MODULE windows x86 94F6190AFB2346CD9408A1DA5A33CEA72 basic-opt32.pdb
INFO CODE_ID 5DDC1E9F6C000 basic-opt32.dll
INFO GENERATOR mozilla/dump_syms XYZ
FUNC 6b20 b 0 test1(int*)
FUNC 6b30 1 0 test2(int, unsigned int)
FUNC 6b40 1 0 test3(int, unsigned int, short)
FUNC 6b50 1 0 test4(int, unsigned int, unsigned short, double*)
FUNC 6b60 41 0 test5(int*, unsigned int, unsigned short, double const*, const std::basic_string<char,std::char_traits<char>,std::allocator<char> >)
FUNC 6bc0 1 0 test6(double const* const, std::basic_string<char,std::char_traits<char>,std::allocator<char> > const&, std::basic_string<char,std::char_traits<char>,std::allocator<char> >&&)
FUNC 6bd0 3 0 test7(void (*)(int, unsigned int, unsigned short, double*))
FUNC 6be0 3 0 test8(int (*)(void (*)(int, unsigned int, unsigned short, double*)))
FUNC 6bf0 3 0 test9(int (*)(int (*)(void (*)(int, unsigned int, unsigned short, double*))))
FUNC 6c00 3 0 test10(char*&)
FUNC 6c10 3 0 test_array(char*, int[34]*, std::basic_string<char,std::char_traits<char>,std::allocator<char> >[34][56]*, double*[34][56][78]*)
FUNC 6c20 3 0 test_array_empty_struct(Empty*, Empty[]*, Empty[][]*, Empty[][][]*)
FUNC 6c30 3 0 A::A()
FUNC 6c40 5 0 A::A(A&&)
FUNC 6c50 1 0 A::~A()
FUNC 6c60 3 0 A::meth1(int)
FUNC 6c70 3 0 A::meth1(double)
FUNC 6c80 3 0 A::meth1(short, signed char)
FUNC 6c90 3 0 A::meth2(int)
FUNC 6ca0 5 0 A::meth2(double)
FUNC 6cb0 1 0 A::meth2(short, signed char)
FUNC 6cc0 7 0 A::meth4(A*, A::B&&)
FUNC 93f0 e 0 operator delete(void*, unsigned int)
FUNC 9401 53 0 dllmain_crt_dispatch(HINSTANCE__* const, const unsigned long, void* const)
FUNC 9468 10a 0 dllmain_crt_process_attach(HINSTANCE__* const, void* const)
FUNC 95b4 92 0 dllmain_crt_process_detach(const bool)
FUNC 966a 106 0 dllmain_dispatch(HINSTANCE__* const, const unsigned long, void* const)
FUNC 97b1 2b 0 dllmain_raw(HINSTANCE__* const, const unsigned long, void* const)
FUNC 97e6 9 c _CRT_INIT(HINSTANCE__* const, const unsigned long, void* const)
FUNC 97f1 23 c _DllMainCRTStartup(HINSTANCE__* const, const unsigned long, void* const)
FUNC 981c 5 0 operator delete(void*)
FUNC 9821 4d 0 __get_entropy()
FUNC 9881 4b 0 __security_init_cookie()
FUNC 98de 6 c DllMain(HINSTANCE__*, unsigned long, void*)
FUNC 98e4 c 0 __scrt_initialize_type_info()
FUNC 98f3 c 0 __scrt_uninitialize_type_info()
FUNC 9902 6 0 __local_stdio_printf_options()
FUNC 9908 6 0 __local_stdio_scanf_options()
FUNC 990e 1d 0 __scrt_initialize_default_local_stdio_options()
FUNC 9932 14 0 __crt_fast_decode_pointer<void (__cdecl**)(void)>(void (** const)())
FUNC 994b 1d 0 __crt_fast_encode_pointer<void (__cdecl**)(void)>(void (** const)())
FUNC 996f d 0 __crt_rotate_pointer_value(const unsigned int, const int)
FUNC 997f d 0 __scrt_narrow_argv_policy::configure_argv()
FUNC 998f 44 0 find_pe_section(unsigned char* const, const unsigned int)
FUNC 99e4 5 0 __scrt_narrow_environment_policy::initialize_environment()
FUNC 99e9 34 0 is_potentially_valid_image_base(void* const)
FUNC 9a2a 7 0 NtCurrentTeb()
FUNC 9a31 32 0 __scrt_acquire_startup_lock()
FUNC 9a6f 2b 0 __scrt_dllmain_after_initialize_c()
FUNC 9aa4 e 0 __scrt_dllmain_before_initialize_c()
FUNC 9ab5 1f 0 __scrt_dllmain_crt_thread_attach()
FUNC 9adb d 0 __scrt_dllmain_crt_thread_detach()
FUNC 9aeb 34 0 __scrt_dllmain_exception_filter(HINSTANCE__*, unsigned long, void*, int (*)(HINSTANCE__*, unsigned long, void*), unsigned long, _EXCEPTION_POINTERS*)
FUNC 9b2c 23 0 __scrt_dllmain_uninitialize_c()
FUNC 9b57 d 0 __scrt_dllmain_uninitialize_critical()
FUNC 9b67 39 0 __scrt_initialize_crt(__scrt_module_type)
FUNC 9bae a5 0 __scrt_initialize_onexit_tables(__scrt_module_type)
FUNC 9c7c 94 0 __scrt_is_nonwritable_in_current_image(void const*)
FUNC 9d35 1d 0 __scrt_release_startup_lock(bool)
FUNC 9d59 28 0 __scrt_uninitialize_crt(bool, bool)
FUNC 9d8b 3b 0 _onexit(int (*)())
FUNC 9dd4 31 0 at_quick_exit(void (*)())
FUNC 9e11 15 0 atexit(void (*)())
FUNC 9e2b 6 0 __scrt_get_dyn_tls_init_callback(<NoType>)
FUNC 9e31 11a 0 __scrt_fastfail(unsigned int)
FUNC 9f91 31 0 __scrt_get_show_window_mode()
FUNC 9fce 5 0 __scrt_initialize_mta()
FUNC 9fd3 3 0 __scrt_initialize_winrt()
FUNC 9fd6 43 0 __scrt_is_managed_app()
FUNC a029 c 0 __scrt_set_unhandled_exception_filter()
FUNC a038 3 0 __scrt_stub_for_initialize_mta()
FUNC a03b 41 4 __scrt_unhandled_exception_filter(_EXCEPTION_POINTERS* const)
FUNC a08c 8 0 _crt_debugger_hook(int)
FUNC a096 2c 0 _RTC_Initialize()
FUNC a0cd 2c 0 _RTC_Terminate()
FUNC a110 46 0 __SEH_prolog4()
FUNC a156 15 0 __SEH_epilog4()
FUNC a181 1 4 _guard_check_icall_nop(unsigned int)
FUNC a182 a 0 ReadNoFence(long const*)
FUNC a18e a 0 ReadPointerNoFence(void* const*)
FUNC a19a 12 0 _guard_icall_checks_enforced()
FUNC a1b0 197 0 __isa_available_init(<NoType>)
FUNC a3ac 4 0 _get_startup_argv_mode()
FUNC a3b0 c 0 __scrt_is_ucrt_dll_in_use(<NoType>)
FUNC a3bf 11 4 __security_check_cookie(unsigned int)
FUNC a3d4 28 0 __raise_securityfailure(_EXCEPTION_POINTERS* const)
FUNC a406 f9 0 __report_gsfailure(<NoType>)
FUNC a53d c 0 __report_rangecheckfailure(<NoType>)
FUNC a54c ce 0 __report_securityfailure(unsigned long)
FUNC a64d 114 0 __report_securityfailureEx(unsigned long, unsigned long, void**)
PUBLIC a7a6 4 QueryPerformanceCounter
PUBLIC a7ac 0 GetCurrentProcessId
PUBLIC a7b2 0 GetCurrentThreadId
PUBLIC a7b8 4 GetSystemTimeAsFileTime
PUBLIC a7be 4 InitializeSListHead
PUBLIC a7c4 0 IsDebuggerPresent
PUBLIC a7ca 4 UnhandledExceptionFilter
PUBLIC a7d0 4 SetUnhandledExceptionFilter
PUBLIC a7d6 4 GetStartupInfoW
PUBLIC a7dc 4 IsProcessorFeaturePresent
PUBLIC a7e2 4 GetModuleHandleW
PUBLIC a7e8 0 GetCurrentProcess
PUBLIC a7ee 8 TerminateProcess
FUNC a800 32 0 ValidateLocalCookies(_EH4_SCOPETABLE*, char*)
FUNC a840 157 0 _except_handler4(_EXCEPTION_RECORD*, _EXCEPTION_REGISTRATION_RECORD*, _CONTEXT*, void*)
FUNC a9ec 5 0 <lambda_02a71323d951a238fa4826e9f186893b>::<lambda_invoker_cdecl>(void* const)
FUNC a9f1 9 0 <lambda_cea3005bd909f0fdd45a57e92f4e3309>::<lambda_invoker_cdecl>(const unsigned int)
FUNC a9fc 10 0 __crt_internal_free_policy::operator()<char>(char const* const) const
FUNC aa10 10 0 __crt_internal_free_policy::operator()<void>(void const* const) const
FUNC aa24 12 0 __crt_interlocked_compare_exchange_pointer<char const ,char *,std::nullptr_t>(char const* const*, char* const, void const*)
FUNC aa3a a 0 __crt_interlocked_read_pointer<char const >(char const* const*)
FUNC aa46 e 0 __crt_unique_heap_ptr<char,__crt_internal_free_policy>::__crt_unique_heap_ptr<char,__crt_internal_free_policy>(char* const)
FUNC aa57 e 0 __crt_unique_heap_ptr<void,__crt_internal_free_policy>::__crt_unique_heap_ptr<void,__crt_internal_free_policy>(void* const)
FUNC aa68 10 0 __crt_unique_heap_ptr<char,__crt_internal_free_policy>::~__crt_unique_heap_ptr<char,__crt_internal_free_policy>()
FUNC aa7c 10 0 __crt_unique_heap_ptr<void,__crt_internal_free_policy>::~__crt_unique_heap_ptr<void,__crt_internal_free_policy>()
FUNC aa90 6 0 <lambda_02a71323d951a238fa4826e9f186893b>::operator void (__cdecl*)(void * const)() const
FUNC aa96 6 0 <lambda_cea3005bd909f0fdd45a57e92f4e3309>::operator void * (__cdecl*)(unsigned int)() const
FUNC aa9c 7 0 __crt_unique_heap_ptr<char,__crt_internal_free_policy>::operator bool() const
FUNC aaa3 7 0 __crt_unique_heap_ptr<void,__crt_internal_free_policy>::operator bool() const
FUNC aaaa 10 0 <lambda_02a71323d951a238fa4826e9f186893b>::operator()(void* const) const
FUNC aabe 10 0 <lambda_cea3005bd909f0fdd45a57e92f4e3309>::operator()(const unsigned int) const
FUNC aad2 a 0 __crt_interlocked_read_32(int const*)
FUNC aade 6 0 __crt_unique_heap_ptr<void,__crt_internal_free_policy>::detach()
FUNC aae4 3 0 __crt_unique_heap_ptr<char,__crt_internal_free_policy>::get() const
FUNC aae7 3 0 __crt_unique_heap_ptr<void,__crt_internal_free_policy>::get() const
FUNC aaea 7 0 __crt_unique_heap_ptr<char,__crt_internal_free_policy>::is_valid() const
FUNC aaf1 7 0 __crt_unique_heap_ptr<void,__crt_internal_free_policy>::is_valid() const
FUNC aaf8 10 0 __crt_unique_heap_ptr<char,__crt_internal_free_policy>::release()
FUNC ab0c 10 0 __crt_unique_heap_ptr<void,__crt_internal_free_policy>::release()
FUNC ab20 3c 0 __std_type_info_compare(__std_type_info_data const*, __std_type_info_data const*)
FUNC ab6b 23 0 __std_type_info_destroy_list(__type_info_node*)
FUNC ab96 26 0 __std_type_info_hash(__std_type_info_data const*)
FUNC abc5 c3 0 __std_type_info_name(__std_type_info_data*, __type_info_node*)
FUNC acb8 29 0 __vcrt_initialize()
FUNC aceb b 0 __vcrt_thread_attach()
FUNC acf8 b 0 __vcrt_thread_detach()
FUNC ad05 1f 0 __vcrt_uninitialize(bool)
FUNC ad2b 8 0 __vcrt_uninitialize_critical()
FUNC ad35 1 0 init_memcpy_functions()
FUNC ad40 15a 0 memset(unsigned char*, unsigned char, unsigned long)
FUNC aef0 90 0 _local_unwind4()
FUNC af80 46 0 _unwind_handler4()
FUNC afc8 28 4 _seh_longjmp_unwind4(unsigned long)
FUNC aff0 17 8 @_EH4_CallFilterFunc@8()
FUNC b008 19 8 @_EH4_TransferToHandler@8()
FUNC b024 1a 8 @_EH4_GlobalUnwind2@8()
FUNC b040 17 10 @_EH4_LocalUnwind@16()
FUNC b0b0 b 0 __except_get_jumpbuf_sp(int*)
FUNC b0bd 30 0 __except_validate_context_record(_CONTEXT*)
FUNC b0f9 2d 0 __except_validate_jump_buffer(int*)
FUNC b131 39 0 __except_validate_jump_buffer_common(int*, void* (*)(int*))
FUNC b178 6 0 _HeapManager::Block::Block()
FUNC b17e b2 0 DName::DName(char const*&, char)
FUNC b25c 16 0 DName::DName(DName const&)
FUNC b277 25 0 DName::DName(char)
FUNC b2a5 48 0 DName::DName(DName*)
FUNC b2ff 33 0 DName::DName(char const*)
FUNC b33e 40 0 DName::DName(DNameStatus)
FUNC b38e a 0 DName::DName()
FUNC b39a 8c 0 DName::DName(long long)
FUNC b449 66 0 DName::DName(unsigned long long)
FUNC b4c8 9 0 DNameNode::DNameNode()
FUNC b4d3 6 0 Replicator::Replicator()
FUNC b4d9 9 0 `UnDecorator::getDecoratedName'::`2'::TrackRecursion::TrackRecursion()
FUNC b4e4 4c 0 UnDecorator::UnDecorator(char const*, char* (*)(long), unsigned long)
FUNC b543 15 0 charNode::charNode(char)
FUNC b55d 28 0 pDNameNode::pDNameNode(DName*)
FUNC b58f 1f 0 pairNode::pairNode(DNameNode const*, DNameNode const*)
FUNC b5b5 59 0 pcharNode::pcharNode(char const*, int)
FUNC b624 7 0 `UnDecorator::getDecoratedName'::`2'::TrackRecursion::~TrackRecursion()
FUNC b62b 15 0 operator new(unsigned int, _HeapManager&, int)
FUNC b645 16 0 DName::operator=(DName const&)
FUNC b660 25 0 DName::operator=(char)
FUNC b68e 42 0 DName::operator=(DName*)
FUNC b6e0 2b 0 DName::operator=(char const*)
FUNC b715 32 0 DName::operator=(DNameStatus)
FUNC b753 46 0 Replicator::operator[](int) const
FUNC b7aa 22 0 operator+(char, DName const&)
FUNC b7d4 22 0 operator+(char const*, DName const&)
FUNC b7fe 22 0 operator+(DNameStatus, DName const&)
FUNC b828 22 0 DName::operator+(DName const&) const
FUNC b852 22 0 DName::operator+(char) const
FUNC b87c 22 0 DName::operator+(DName*) const
FUNC b8a6 22 0 DName::operator+(char const*) const
FUNC b8d0 22 0 DName::operator+(DNameStatus) const
FUNC b8fa 41 0 DName::operator+=(DName const&)
FUNC b94b 50 0 DName::operator+=(char)
FUNC b9af 65 0 DName::operator+=(DName*)
FUNC ba2d 61 0 DName::operator+=(char const*)
FUNC baa6 40 0 DName::operator+=(DNameStatus)
FUNC baf6 4a 0 Replicator::operator+=(DName const&)
FUNC bb52 1c 0 DName::operator|=(DName const&)
FUNC bb75 1d 0 _HeapManager::Constructor(void* (*)(unsigned int), void (*)(void*))
FUNC bb99 38 0 _HeapManager::Destructor()
FUNC bbdf 1f 0 UnDecorator::UScore(Tokens)
FUNC bc05 46 0 DName::append(DNameNode const*)
FUNC bc5c cdd 0 UnDecorator::composeDeclaration(DName const&)
FUNC cc70 e 0 UnDecorator::doAccessSpecifiers()
FUNC cc81 e 0 UnDecorator::doAllocationLanguage()
FUNC cc92 e 0 UnDecorator::doAllocationModel()
FUNC cca3 e 0 UnDecorator::doEcsu()
FUNC ccb4 e 0 UnDecorator::doEllipsis()
FUNC ccc5 e 0 UnDecorator::doFunctionReturns()
FUNC ccd6 d 0 UnDecorator::doMSKeywords()
FUNC cce6 e 0 UnDecorator::doMemberTypes()
FUNC ccf7 b 0 UnDecorator::doNameOnly()
FUNC cd04 b 0 UnDecorator::doNoIdentCharCheck()
FUNC cd11 86 0 DName::doPchar(char const*, int)
FUNC cdb8 e 0 UnDecorator::doPtr64()
FUNC cdc9 e 0 UnDecorator::doRestrictionSpec()
FUNC cdda 12 0 UnDecorator::doThisTypes()
FUNC cdf0 e 0 UnDecorator::doThrowTypes()
FUNC ce01 b 0 UnDecorator::doTypeOnly()
FUNC ce0e b 0 UnDecorator::doUnderScore()
FUNC ce1b f6 0 UnDecorator::getArgumentList()
FUNC cf4e ca 0 UnDecorator::getArgumentTypes()
FUNC d04a 1b1 0 UnDecorator::getArrayType(DName const&)
FUNC d267 98 0 UnDecorator::getBasedType()
FUNC d325 3df 0 UnDecorator::getBasicDataType(DName const&)
FUNC d7fb df 0 UnDecorator::getCHPEName(char*, int)
FUNC d911 14 0 UnDecorator::getCallIndex()
FUNC d92a d3 0 UnDecorator::getCallingConvention()
FUNC da31 5ea 0 UnDecorator::getDataIndirectType(DName const&, char const*, DName const&, int)
FUNC e195 32 0 UnDecorator::getDataIndirectType()
FUNC e1d3 c5 0 UnDecorator::getDataType(DName*)
FUNC e2c9 242 0 UnDecorator::getDecoratedName()
FUNC e59b 11f 0 UnDecorator::getDimension(bool)
FUNC e701 54 0 UnDecorator::getDispatchTarget()
FUNC e76a 14 0 UnDecorator::getDisplacement()
FUNC e783 118 0 UnDecorator::getECSUDataType()
FUNC e8e1 11 0 UnDecorator::getECSUName()
FUNC e8f6 f0 0 UnDecorator::getEnumType()
FUNC ea22 1b7 0 UnDecorator::getExtendedDataIndirectType(char const*&, bool&, int)
FUNC ec46 67 0 UnDecorator::getExternalDataType(DName const&)
FUNC ecc6 3d8 0 UnDecorator::getFunctionIndirectType(DName const&)
FUNC f194 14 0 UnDecorator::getGuardNumber()
FUNC f1ad 20 0 DName::getLastChar() const
FUNC f1d5 c 0 DNameStatusNode::getLastChar() const
FUNC f1e4 4 0 charNode::getLastChar() const
FUNC f1e8 e 0 pDNameNode::getLastChar() const
FUNC f1f9 35 0 pairNode::getLastChar() const
FUNC f23b 12 0 pcharNode::getLastChar() const
FUNC f251 3f 0 UnDecorator::getLexicalFrame()
FUNC f29f 87 0 _HeapManager::getMemory(unsigned int, int)
FUNC f347 45 0 UnDecorator::getNoexcept()
FUNC f39d 61 0 UnDecorator::getNumberOfDimensions()
FUNC f416 658 0 UnDecorator::getOperatorName(bool, bool*)
FUNC fc04 1e 0 UnDecorator::getPointerType(DName const&, DName const&)
FUNC fc29 1e 0 UnDecorator::getPointerTypeArray(DName const&, DName const&)
FUNC fc4e 1e4 0 UnDecorator::getPrimaryDataType(DName const&)
FUNC feab 129 0 UnDecorator::getPtrRefDataType(DName const&, int)
FUNC 1001e fa 0 UnDecorator::getPtrRefType(DName const&, DName const&, char const*)
FUNC 10156 1c 0 UnDecorator::getReferenceType(DName const&, DName const&, char const*)
FUNC 10179 f9 0 UnDecorator::getRestrictionSpec()
FUNC 102b0 2f 0 UnDecorator::getReturnType(DName*)
FUNC 102ea 394 0 UnDecorator::getScope()
FUNC 10763 d4 0 UnDecorator::getScopedName()
FUNC 1086c 51 0 UnDecorator::getSignedDimension()
FUNC 108d1 11 0 UnDecorator::getStorageConvention()
FUNC 108e6 2d 0 DName::getString(char*, char*) const
FUNC 1091e 56 0 DName::getString(char*, int) const
FUNC 10989 27 0 DNameStatusNode::getString(char*, char*) const
FUNC 109b9 15 0 charNode::getString(char*, char*) const
FUNC 109d3 17 0 pDNameNode::getString(char*, char*) const
FUNC 109ef 46 0 pairNode::getString(char*, char*) const
FUNC 10a46 1b 0 pcharNode::getString(char*, char*) const
FUNC 10a67 b0 0 UnDecorator::getStringEncoding(char const*, int)
FUNC 10b43 37 0 getStringHelper(char*, char const*, char const*, int)
FUNC 10b87 48 0 UnDecorator::getSymbolName()
FUNC 10be1 29d 0 UnDecorator::getTemplateArgumentList()
FUNC 10f25 332 0 UnDecorator::getTemplateConstant()
FUNC 11323 162 0 UnDecorator::getTemplateName(bool)
FUNC 114dd 33 0 UnDecorator::getThisType()
FUNC 1151c 23 0 UnDecorator::getThrowTypes()
FUNC 11547 328 0 UnDecorator::getTypeEncoding()
FUNC 11939 c4 0 UnDecorator::getUndecoratedName(char*, int)
FUNC 11a2e 47 0 UnDecorator::getVCallThunkType()
FUNC 11a86 15 0 UnDecorator::getVbTableType(DName const&)
FUNC 11aa0 54 0 UnDecorator::getVdispMapType(DName const&)
FUNC 11b09 163 0 UnDecorator::getVfTableType(DName const&)
FUNC 11cc4 1ff 0 UnDecorator::getZName(bool, bool)
FUNC 11f42 b 0 UnDecorator::haveTemplateParameters()
FUNC 11f4f a 0 DName::isArray() const
FUNC 11f5b a 0 DName::isComArray() const
FUNC 11f67 8 0 DName::isEmpty() const
FUNC 11f71 9 0 Replicator::isFull() const
FUNC 11f7c a 0 DName::isNoTE() const
FUNC 11f88 a 0 DName::isPinPtr() const
FUNC 11f94 a 0 DName::isPtrRef() const
FUNC 11fa0 11 0 DName::isUDC() const
FUNC 11fb5 11 0 DName::isUDTThunk() const
FUNC 11fca a 0 DName::isVCallThunk() const
FUNC 11fd6 a 0 DName::isValid() const
FUNC 11fe2 1f 0 DName::length() const
FUNC 12008 4 0 DNameStatusNode::length() const
FUNC 1200c 4 0 charNode::length() const
FUNC 12010 e 0 pDNameNode::length() const
FUNC 12021 46 0 pairNode::length() const
FUNC 12078 4 0 pcharNode::length() const
FUNC 1207c 1c 0 DNameStatusNode::make(DNameStatus)
FUNC 1209f ee 0 UnDecorator::parseDecoratedName()
FUNC 121c8 8 0 DName::setIsArray()
FUNC 121d2 8 0 DName::setIsComArray()
FUNC 121dc 8 0 DName::setIsNoTE()
FUNC 121e6 8 0 DName::setIsPinPtr()
FUNC 121f0 d 0 DName::setIsUDC()
FUNC 12200 8 0 DName::setIsVCallThunk()
FUNC 1220a a 0 DName::setPtrRef()
FUNC 12216 5 0 DName::status() const
FUNC 1221b 21 0 und_memcpy(char*, char const*, unsigned int)
FUNC 12244 15 0 und_strlen(char const*)
FUNC 1225e 31 0 und_strncmp(char const*, char const*, unsigned int)
FUNC 1229b 23 0 __unDName(char*, char const*, int, void* (*)(unsigned int), void (*)(void*), unsigned short)
FUNC 122c6 9f 0 __unDNameEx(char*, char const*, int, void* (*)(unsigned int), void (*)(void*), char* (*)(long), unsigned long)
FUNC 1238c 2d 0 _vsprintf_s_l(char* const, const unsigned int, char const* const, __crt_locale_pointers* const, char*)
FUNC 123c4 1c 0 sprintf_s(char* const, const unsigned int, char const* const, <NoType>)
FUNC 123e7 5c 0 unDNameGenerateCHPE(char*, char const*, int, void* (*)(unsigned int), void (*)(void*), unsigned long)
FUNC 1245a 10 0 __crt_internal_free_policy::operator()<__vcrt_ptd>(__vcrt_ptd const* const) const
FUNC 1246e e 0 __crt_unique_heap_ptr<__vcrt_ptd,__crt_internal_free_policy>::__crt_unique_heap_ptr<__vcrt_ptd,__crt_internal_free_policy>(__vcrt_ptd* const)
FUNC 1247f f 0 (anonymous namespace)::scoped_get_last_error_reset::scoped_get_last_error_reset()
FUNC 12491 10 0 __crt_unique_heap_ptr<__vcrt_ptd,__crt_internal_free_policy>::~__crt_unique_heap_ptr<__vcrt_ptd,__crt_internal_free_policy>()
FUNC 124a5 9 0 (anonymous namespace)::scoped_get_last_error_reset::~scoped_get_last_error_reset()
FUNC 124b0 7 0 __crt_unique_heap_ptr<__vcrt_ptd,__crt_internal_free_policy>::operator bool() const
FUNC 124b7 6 0 __crt_unique_heap_ptr<__vcrt_ptd,__crt_internal_free_policy>::detach()
FUNC 124bd 3 0 __crt_unique_heap_ptr<__vcrt_ptd,__crt_internal_free_policy>::get() const
FUNC 124c0 7 0 __crt_unique_heap_ptr<__vcrt_ptd,__crt_internal_free_policy>::is_valid() const
FUNC 124c7 10 0 __crt_unique_heap_ptr<__vcrt_ptd,__crt_internal_free_policy>::release()
FUNC 124db 1a 0 store_and_initialize_ptd(__vcrt_ptd* const)
FUNC 124fb 1c 4 __vcrt_freefls(void*)
FUNC 1251e 36 0 __vcrt_freeptd(__vcrt_ptd*)
FUNC 12561 e 0 __vcrt_getptd()
FUNC 12572 92 0 __vcrt_getptd_noexit()
FUNC 12628 37 0 __vcrt_getptd_noinit()
FUNC 1266c 33 0 __vcrt_initialize_ptd()
FUNC 126ab 1b 0 __vcrt_uninitialize_ptd()
FUNC 126cc 3c 0 __vcrt_initialize_locks()
FUNC 12717 15 0 __vcrt_lock(__vcrt_lock_id)
FUNC 12731 2f 0 __vcrt_uninitialize_locks()
FUNC 1276b 15 0 __vcrt_unlock(__vcrt_lock_id)
FUNC 12785 6 0 __crt_fast_encoded_nullptr_t::operator<void> void *() const
FUNC 1278b 14 0 __crt_fast_decode_pointer<void *>(void* const)
FUNC 127a4 1d 0 __crt_fast_encode_pointer<void *>(void* const)
FUNC 127c8 d 0 __crt_interlocked_exchange_pointer<HINSTANCE__,HINSTANCE__ *>(HINSTANCE__* const*, HINSTANCE__* const)
FUNC 127d8 d 0 __crt_interlocked_exchange_pointer<HINSTANCE__,void *>(HINSTANCE__* const*, void* const)
FUNC 127e8 d 0 __crt_interlocked_exchange_pointer<void,void *>(void* const*, void* const)
FUNC 127f8 a 0 __crt_interlocked_read_pointer<HINSTANCE__>(HINSTANCE__* const*)
FUNC 12804 a 0 __crt_interlocked_read_pointer<void>(void* const*)
FUNC 12810 9 0 __crt_fast_encode_pointer(void*)
FUNC 1281b 4 0 invalid_function_sentinel()
FUNC 1281f 1a 0 try_get_FlsAlloc()
FUNC 1283f 1a 0 try_get_FlsFree()
FUNC 1285f 1a 0 try_get_FlsGetValue()
FUNC 1287f 1a 0 try_get_FlsSetValue()
FUNC 1289f 1a 0 try_get_InitializeCriticalSectionEx()
FUNC 128bf c4 0 try_get_first_available_module(`anonymous-namespace'::module_id const* const, `anonymous-namespace'::module_id const* const)
FUNC 129b4 6f 0 try_get_function(const `anonymous-namespace'::function_id, char const* const, `anonymous-namespace'::module_id const* const, `anonymous-namespace'::module_id const* const)
FUNC 12a3e 4f 0 try_get_module(const `anonymous-namespace'::module_id)
FUNC 12aa0 22 0 try_get_proc_address_from_first_available_module(char const* const, `anonymous-namespace'::module_id const* const, `anonymous-namespace'::module_id const* const)
FUNC 12aca 61 0 try_load_library_from_system_directory(wchar_t const* const)
FUNC 12b43 3b 0 __vcrt_FlsAlloc(void (*)(void*))
FUNC 12b8c 3b 0 __vcrt_FlsFree(unsigned long)
FUNC 12bd5 3b 0 __vcrt_FlsGetValue(unsigned long)
FUNC 12c1e 3e 0 __vcrt_FlsSetValue(unsigned long, void*)
FUNC 12c6b 47 0 __vcrt_InitializeCriticalSectionEx(_RTL_CRITICAL_SECTION*, unsigned long, unsigned long)
FUNC 12cc3 29 0 __vcrt_initialize_winapi_thunks()
FUNC 12cf6 32 0 __vcrt_uninitialize_winapi_thunks(bool)
FUNC 12d34 6 0 __crt_fast_encoded_nullptr_t::operator<void __cdecl(void)> void (__cdecl*)(void)() const
FUNC 12d3a 1d 0 __crt_fast_encode_pointer<void (__cdecl*)(void)>(void (* const)())
FUNC 12d5e b 0 __vcrt_initialize_pure_virtual_call_handler()
FUNC 12d70 21 0 __global_unwind2()
FUNC 12d91 45 0 __unwind_handler()
FUNC 12dd6 84 0 __local_unwind2()
FUNC 12e5a 23 0 __abnormal_termination()
FUNC 12e80 9 0 _NLG_Notify1()
FUNC 12e8c 1f 0 _NLG_Notify()
FUNC 12eab 3 0 _NLG_Call()
FUNC 12efd 14 0 __crt_fast_decode_pointer<void (__cdecl*)(void)>(void (* const)())
FUNC 12f16 d 0 __crt_interlocked_exchange_pointer<void __cdecl(void),void (__cdecl*)(void)>(void (* const*)(), void (* const)())
FUNC 12f26 a 0 __crt_interlocked_read_pointer<void __cdecl(void)>(void (* const*)())
FUNC 12f32 15 0 _get_purecall_handler()
FUNC 12f4c 1c 0 _purecall()
FUNC 12f6f 25 0 _set_purecall_handler(void (*)())
FUNC 12f9d 24 0 std::pair<__FrameHandler3::TryBlockMap::iterator,__FrameHandler3::TryBlockMap::iterator>::pair<__FrameHandler3::TryBlockMap::iterator,__FrameHandler3::TryBlockMap::iterator><__FrameHandler3::TryBlockMap::iterator &,__FrameHandler3::TryBlockMap::iterator &,0>(__FrameHandler3::TryBlockMap::iterator&, __FrameHandler3::TryBlockMap::iterator&)
FUNC 12fca 8 0 std::forward<__FrameHandler3::TryBlockMap::iterator &>(__FrameHandler3::TryBlockMap::iterator&)
FUNC 12fd4 14 0 __FrameHandler3::TryBlockMap::iterator::iterator(__FrameHandler3::TryBlockMap&, unsigned int)
FUNC 12fed 82 0 __FrameHandler3::GetRangeOfTrysToCheck(__FrameHandler3::TryBlockMap&, int, int)
FUNC 1308f 5e 0 _CallCatchBlock2(EHRegistrationNode*, _s_FuncInfo const*, void*, int, unsigned long)
FUNC 13104 db 0 _CallSETranslator(EHExceptionRecord*, EHRegistrationNode*, void*, void*, _s_FuncInfo const*, int, EHRegistrationNode*)
FUNC 13215 30 0 _JumpToContinuation(void*, EHRegistrationNode*)
FUNC 13251 53 0 _UnwindNestedFrames(EHRegistrationNode*, EHExceptionRecord*)
FUNC 132b8 3 0 __FrameHandler3::TryBlockMap::getFuncInfo()
FUNC 132bb 31 0 _CatchGuardHandler(EHExceptionRecord*, CatchGuardRN*, void*, void*)
FUNC 132f8 24 0 _CreateFrameInfo(FrameInfo*, void*)
FUNC 13325 45 0 _FindAndUnlinkFrame(FrameInfo*)
FUNC 1337b 9d 0 _TranslatorGuardHandler(EHExceptionRecord*, TranslatorGuardRN*, void*, void*)
FUNC 1343f 36 0 __CxxFrameHandler(EHExceptionRecord*, EHRegistrationNode*, void*, void*)
FUNC 13482 36 0 __CxxFrameHandler2(EHExceptionRecord*, EHRegistrationNode*, void*, void*)
FUNC 134c5 36 0 __CxxFrameHandler3(EHExceptionRecord*, EHRegistrationNode*, void*, void*)
FUNC 13508 25 4 __CxxLongjmpUnwind(__JUMP_BUFFER*)
FUNC 13540 574 0 memcpy(unsigned char*, unsigned char*, unsigned long)
FUNC 13c11 13f 0 BuildCatchObjectHelperInternal<_s_HandlerType const >(EHExceptionRecord*, void*, _s_HandlerType const*, _s_CatchableType const*)
FUNC 13d9f 99 0 BuildCatchObjectInternal<_s_HandlerType const >(EHExceptionRecord*, void*, _s_HandlerType const*, _s_CatchableType const*)
FUNC 13e5e 80 0 CatchIt<__FrameHandler3>(EHExceptionRecord*, EHRegistrationNode*, _CONTEXT*, void*, _s_FuncInfo const*, _s_HandlerType const*, _s_CatchableType const*, _s_TryBlockMapEntry const*, int, EHRegistrationNode*, unsigned char)
FUNC 13efe 38e 0 FindHandler<__FrameHandler3>(EHExceptionRecord*, EHRegistrationNode*, _CONTEXT*, void*, _s_FuncInfo const*, unsigned char, int, EHRegistrationNode*)
FUNC 1436f 111 0 FindHandlerForForeignException<__FrameHandler3>(EHExceptionRecord*, EHRegistrationNode*, _CONTEXT*, void*, _s_FuncInfo const*, int, int, EHRegistrationNode*)
FUNC 144c4 8e 0 TypeMatchHelper<_s_HandlerType const >(_s_HandlerType const*, _s_CatchableType const*, _s_ThrowInfo const*)
FUNC 14575 102 0 __InternalCxxFrameHandler<__FrameHandler3>(EHExceptionRecord*, EHRegistrationNode*, _CONTEXT*, void*, _s_FuncInfo const*, int, EHRegistrationNode*, unsigned char)
FUNC 146b7 17 0 __FrameHandler3::HandlerMap::HandlerMap(_s_TryBlockMapEntry const*, void*)
FUNC 146d3 14 0 __FrameHandler3::TryBlockMap::TryBlockMap(_s_FuncInfo const*, void*)
FUNC 146ec 1b 0 std::bad_exception::bad_exception(std::bad_exception const&)
FUNC 1470d 18 0 std::bad_exception::bad_exception()
FUNC 1472b 2c 0 std::exception::exception(std::exception const&)
FUNC 14762 1d 0 std::exception::exception(char const* const, int)
FUNC 14786 14 0 __FrameHandler3::HandlerMap::iterator::iterator(__FrameHandler3::HandlerMap&, unsigned int)
FUNC 1479f 11 0 std::bad_exception::~bad_exception()
FUNC 147b4 11 0 std::exception::~exception()
FUNC 147c9 13 0 __FrameHandler3::HandlerMap::iterator::operator==(__FrameHandler3::HandlerMap::iterator const&) const
FUNC 147e0 1f 0 type_info::operator==(type_info const&) const
FUNC 14806 13 0 __FrameHandler3::HandlerMap::iterator::operator!=(__FrameHandler3::HandlerMap::iterator const&) const
FUNC 1481d c 0 __FrameHandler3::HandlerMap::iterator::operator*()
FUNC 1482c c 0 __FrameHandler3::TryBlockMap::iterator::operator*()
FUNC 1483b 6 0 __FrameHandler3::HandlerMap::iterator::operator++()
FUNC 14841 6 0 __FrameHandler3::TryBlockMap::iterator::operator++()
FUNC 14847 13 0 __FrameHandler3::TryBlockMap::iterator::operator<(__FrameHandler3::TryBlockMap::iterator const&) const
FUNC 1485e 2d 0 std::bad_exception::`scalar deleting destructor'(unsigned int)
FUNC 14896 2d 0 std::exception::`scalar deleting destructor'(unsigned int)
FUNC 148ce 5 0 __FrameHandler3::BuildCatchObject(EHExceptionRecord*, void*, _s_HandlerType const*, _s_CatchableType const*)
FUNC 148d3 9 0 __FrameHandler3::BuildCatchObjectHelper(EHExceptionRecord*, void*, _s_HandlerType const*, _s_CatchableType const*)
FUNC 148de 1c4 0 CallCatchBlock(EHExceptionRecord*, EHRegistrationNode*, _CONTEXT*, _s_FuncInfo const*, void*, int, unsigned long)
FUNC 14b13 3a 0 CallUnexpected(_s_ESTypeList const*)
FUNC 14b5b 4a 0 ExFilterRethrow(_EXCEPTION_POINTERS*)
FUNC 14bb7 18 0 __FrameHandler3::FrameUnwindToEmptyState(EHRegistrationNode*, void*, _s_FuncInfo const*)
FUNC 14bd5 e8 0 __FrameHandler3::FrameUnwindToState(EHRegistrationNode*, void*, _s_FuncInfo const*, int)
FUNC 14cf7 b 0 __FrameHandler3::GetMaxState(void*, _s_FuncInfo const*)
FUNC 14d04 9a 0 IsInExceptionSpec(EHExceptionRecord*, _s_ESTypeList const*)
FUNC 14dc4 39 0 Is_bad_exception_allowed(_s_ESTypeList const*)
FUNC 14e0b 9 0 __FrameHandler3::TypeMatch(_s_HandlerType const*, _s_CatchableType const*, _s_ThrowInfo const*)
FUNC 14e16 10 0 _CallMemberFunction1(void* const, void* const, void* const)
FUNC 14e2a 13 0 _CallMemberFunction2(void* const, void* const, void* const, const int)
FUNC 14e41 c 0 _ValidateExecute(int (*)())
FUNC 14e50 c 0 _ValidateRead(void const*, unsigned int)
FUNC 14e5f c 0 _ValidateWrite(void*, unsigned int)
FUNC 14e6e 10 0 __FrameHandler3::HandlerMap::begin()
FUNC 14e82 11 0 __FrameHandler3::HandlerMap::end()
FUNC 14e97 b 0 __FrameHandler3::getESTypes(_s_FuncInfo const*)
FUNC 14ea4 e 0 __FrameHandler3::HandlerMap::getLastEntry()
FUNC 14eb5 f 0 __FrameHandler3::getMagicNum(_s_FuncInfo const*)
FUNC 14ec7 6 0 __FrameHandler3::TryBlockMap::getNumTryBlocks()
FUNC 14ecd d 0 __FrameHandler3::isEHs(_s_FuncInfo const*)
FUNC 14edd 10 0 __FrameHandler3::isNoExcept(_s_FuncInfo const*)
FUNC 14ef1 d 0 std::exception::what() const
FUNC 14f01 5 0 __BuildCatchObject(EHExceptionRecord*, void*, _s_HandlerType const*, _s_CatchableType const*)
FUNC 14f06 9 0 __BuildCatchObjectHelper(EHExceptionRecord*, void*, _s_HandlerType const*, _s_CatchableType const*)
FUNC 14f11 9 0 __TypeMatch(_s_HandlerType const*, _s_CatchableType const*, _s_ThrowInfo const*)
FUNC 14f1c e 0 __vcrt_EncodePointer(void* const)
FUNC 14f30 4c c _CallSettingFrame(unsigned long, unsigned long, unsigned long)
FUNC 14f8f 14 0 get_unexpected_or_default(__vcrt_ptd const* const)
FUNC 14fa8 12 0 _get_unexpected()
FUNC 14fbe 1e 0 set_unexpected(void (*)())
FUNC 14fe3 1d 0 unexpected()
FUNC 15007 1d 0 __FrameHandler3::GetCurrentState(EHRegistrationNode*, void*, _s_FuncInfo const*)
FUNC 1502b e 0 __FrameHandler3::SetState(EHRegistrationNode*, _s_FuncInfo const*, int)
FUNC 1503c a0 0 __DestructExceptionObject(EHExceptionRecord*, unsigned char)
FUNC 15104 d 0 _CallMemberFunction0(void* const, void* const)
FUNC 15114 4 0 type_info::raw_name() const
FUNC 15118 26 0 _IsExceptionObjectToBeDestroyed(void*)
FUNC 15147 d 0 _SetWinRTOutOfMemoryExceptionCallback(void* (*)())
FUNC 15157 25 0 __AdjustPointer(void*, PMD const&)
FUNC 15185 45 0 __FrameUnwindFilter(_EXCEPTION_POINTERS*)
FUNC 151db 4c 0 __GetPlatformExceptionInfo(int*)
FUNC 1523a 9 0 __current_exception()
FUNC 15245 9 0 __current_exception_context()
FUNC 15250 9 0 __processing_throw()
FUNC 1525b 5 0 __std_terminate()
FUNC 15260 a4 0 _is_exception_typeof(type_info const&, _EXCEPTION_POINTERS*)
FUNC 1532d 10 0 __crt_public_free_policy::operator()<char>(char const* const) const
FUNC 15341 e 0 __crt_unique_heap_ptr<char,__crt_public_free_policy>::__crt_unique_heap_ptr<char,__crt_public_free_policy>(char* const)
FUNC 15352 10 0 __crt_unique_heap_ptr<char,__crt_public_free_policy>::~__crt_unique_heap_ptr<char,__crt_public_free_policy>()
FUNC 15366 7 0 __crt_unique_heap_ptr<char,__crt_public_free_policy>::operator bool() const
FUNC 1536d 6 0 __crt_unique_heap_ptr<char,__crt_public_free_policy>::detach()
FUNC 15373 3 0 __crt_unique_heap_ptr<char,__crt_public_free_policy>::get() const
FUNC 15376 7 0 __crt_unique_heap_ptr<char,__crt_public_free_policy>::is_valid() const
FUNC 1537d 10 0 __crt_unique_heap_ptr<char,__crt_public_free_policy>::release()
FUNC 15391 63 0 __std_exception_copy(__std_exception_data const*, __std_exception_data*)
FUNC 1540c 1f 0 __std_exception_destroy(__std_exception_data*)
FUNC 15432 6d 8 _CxxThrowException(void*, _s__ThrowInfo const*)
FUNC 154c0 574 0 memmove(unsigned char*, unsigned char*, unsigned long)
FUNC 15b91 16 0 __crt_fast_decode_pointer<void (__cdecl*)(wchar_t const *,wchar_t const *,wchar_t const *,unsigned int,unsigned int)>(void (* const)(wchar_t const*, wchar_t const*, wchar_t const*, unsigned int, unsigned int))
FUNC 15bac 1f 0 __crt_fast_encode_pointer<void (__cdecl*)(wchar_t const *,wchar_t const *,wchar_t const *,unsigned int,unsigned int)>(void (* const)(wchar_t const*, wchar_t const*, wchar_t const*, unsigned int, unsigned int))
FUNC 15bd2 11 0 __crt_state_management::dual_state_global<void (__cdecl*)(wchar_t const *,wchar_t const *,wchar_t const *,unsigned int,unsigned int)>::initialize_from_array<void (__cdecl*[1])(wchar_t const *,wchar_t const *,wchar_t const *,unsigned int,unsigned int)>(void (* const)(wchar_t const*, wchar_t const*, wchar_t const*, unsigned int, unsigned int)[1]&)
FUNC 15be7 3 0 __crt_state_management::dual_state_global<void (__cdecl*)(wchar_t const *,wchar_t const *,wchar_t const *,unsigned int,unsigned int)>::dangerous_get_state_array()
FUNC 15bea 3 0 __crt_state_management::get_current_state_index()
FUNC 15bed 3 0 __crt_state_management::dual_state_global<void (__cdecl*)(wchar_t const *,wchar_t const *,wchar_t const *,unsigned int,unsigned int)>::value()
FUNC 15bf0 139 0 __acrt_call_reportfault(int, unsigned long, unsigned long)
FUNC 15d77 f 0 __acrt_initialize_invalid_parameter_handler(void*)
FUNC 15d89 13 0 _get_invalid_parameter_handler()
FUNC 15da0 11 0 _get_thread_local_invalid_parameter_handler()
FUNC 15db5 64 0 _invalid_parameter(wchar_t const* const, wchar_t const* const, wchar_t const* const, const unsigned int, const unsigned int)
FUNC 15e32 10 0 _invalid_parameter_noinfo()
FUNC 15e46 1d 0 _invalid_parameter_noinfo_noreturn()
FUNC 15e6a 34 0 _invoke_watson(wchar_t const*, wchar_t const*, wchar_t const*, unsigned int, unsigned int)
FUNC 15eab 30 0 _set_invalid_parameter_handler(void (*)(wchar_t const*, wchar_t const*, wchar_t const*, unsigned int, unsigned int))
FUNC 15ee7 1d 0 _set_thread_local_invalid_parameter_handler(void (*)(wchar_t const*, wchar_t const*, wchar_t const*, unsigned int, unsigned int))
FUNC 15f0b 45 0 _initterm(void (**)(), void (**)())
FUNC 15f61 2e 0 _initterm_e(int (**)(), int (**)())
FUNC 15f9a 1b 0 free(void*)
FUNC 15fbb 24 0 xcptlookup(const unsigned long, __crt_signal_action_t* const)
FUNC 15fe8 20 0 _seh_filter_dll(unsigned long, _EXCEPTION_POINTERS*)
FUNC 16010 158 0 _seh_filter_exe(unsigned long, _EXCEPTION_POINTERS*)
FUNC 161be 6 0 __crt_fast_encoded_nullptr_t::operator<void __stdcall(void *,unsigned long,void *)> void (__stdcall*)(void *,unsigned long,void *)() const
FUNC 161c4 4d 0 __crt_seh_guarded_call<void>::operator()<<lambda_03b1d95aef87969028cfba75ccab2455>,<lambda_6e4b09c48022b2350581041d5f6b0c4c> &,<lambda_22bdf7517842c4b3e53723af5aa32b9e> >(__acrt_lock_and_call::__l2::<lambda_03b1d95aef87969028cfba75ccab2455>&&, common_exit::__l2::<lambda_6e4b09c48022b2350581041d5f6b0c4c>&, __acrt_lock_and_call::__l2::<lambda_22bdf7517842c4b3e53723af5aa32b9e>&&)
FUNC 16224 26 0 __acrt_lock_and_call<<lambda_6e4b09c48022b2350581041d5f6b0c4c> >(const __acrt_lock_id, common_exit::__l2::<lambda_6e4b09c48022b2350581041d5f6b0c4c>&&)
FUNC 16253 16 0 __crt_fast_decode_pointer<void (__stdcall*)(void *,unsigned long,void *)>(void (* const)(void*, unsigned long, void*))
FUNC 1626e 1f 0 __crt_fast_encode_pointer<void (__stdcall*)(void *,unsigned long,void *)>(void (* const)(void*, unsigned long, void*))
FUNC 16294 13 0 __crt_get_proc_address<void (__stdcall*)(unsigned int)>(HINSTANCE__* const, char const* const)
FUNC 162ab d 0 __crt_interlocked_read<long>(long const*)
FUNC 162bb 12 0 <lambda_03b1d95aef87969028cfba75ccab2455>::<lambda_03b1d95aef87969028cfba75ccab2455>(__acrt_lock_id const&)
FUNC 162d1 12 0 <lambda_22bdf7517842c4b3e53723af5aa32b9e>::<lambda_22bdf7517842c4b3e53723af5aa32b9e>(__acrt_lock_id const&)
FUNC 162e7 1c 0 <lambda_6e4b09c48022b2350581041d5f6b0c4c>::<lambda_6e4b09c48022b2350581041d5f6b0c4c>(_crt_exit_cleanup_mode const&, _crt_exit_return_mode const&, bool&)
FUNC 1630a 10 0 __crt_unique_handle_t<__crt_hmodule_traits>::__crt_unique_handle_t<__crt_hmodule_traits>(HINSTANCE__* const)
FUNC 1631e 17 0 __crt_unique_handle_t<__crt_hmodule_traits>::~__crt_unique_handle_t<__crt_hmodule_traits>()
FUNC 1633a 9 0 <lambda_03b1d95aef87969028cfba75ccab2455>::operator()() const
FUNC 16345 9 0 <lambda_22bdf7517842c4b3e53723af5aa32b9e>::operator()() const
FUNC 16350 da 0 <lambda_6e4b09c48022b2350581041d5f6b0c4c>::operator()() const
FUNC 16460 4 0 __acrt_select_exit_lock()
FUNC 16464 13 0 atexit_exception_filter(const unsigned long)
FUNC 1647b 17 0 __crt_unique_handle_t<__crt_hmodule_traits>::close()
FUNC 16497 15 0 __crt_hmodule_traits::close(HINSTANCE__*)
FUNC 164b1 64 0 common_exit(const int, const _crt_exit_cleanup_mode, const _crt_exit_return_mode)
FUNC 1652e 42 0 exit_or_terminate_process(const unsigned int)
FUNC 16580 3 0 __crt_unique_handle_t<__crt_hmodule_traits>::get() const
FUNC 16583 3 0 __crt_unique_handle_t<__crt_hmodule_traits>::get_address_of()
FUNC 16586 3 0 __crt_hmodule_traits::get_invalid_value()
FUNC 16589 43 0 is_managed_app()
FUNC 165dc 22 0 should_call_terminate_process()
FUNC 16606 53 0 try_cor_exit_process(const unsigned int)
FUNC 1666d 16 0 _Exit(int)
FUNC 16688 f 0 __acrt_initialize_thread_local_exit_callback(void*)
FUNC 1669a f 0 _c_exit()
FUNC 166ac f 0 _cexit()
FUNC 166be 16 0 _exit(int)
FUNC 166d9 7 0 _is_c_termination_complete()
FUNC 166e0 26 0 _register_thread_local_exe_atexit_callback(void (*)(void*, unsigned long, void*))
FUNC 1670f 16 0 exit(int)
FUNC 1672a 16 0 quick_exit(int)
FUNC 16745 12 0 __crt_internal_free_policy::operator()<unsigned char>(unsigned char const* const) const
FUNC 1675b 12 0 __crt_internal_free_policy::operator()<char *>(char* const* const) const
FUNC 16771 12 0 __crt_internal_free_policy::operator()<wchar_t *>(wchar_t* const* const) const
FUNC 16787 136 0 common_configure_argv<char>(const _crt_argv_mode)
FUNC 1690a 12f 0 common_configure_argv<wchar_t>(const _crt_argv_mode)
FUNC 16a84 1c 0 __crt_char_traits<char>::get_module_file_name<std::nullptr_t,char (&)[261],int>(void*&&, char[261]&, int&&)
FUNC 16aa7 1a 0 __crt_char_traits<wchar_t>::get_module_file_name<std::nullptr_t,wchar_t (&)[261],int>(void*&&, wchar_t[261]&, int&&)
FUNC 16ac7 177 0 parse_command_line<char>(char*, char**, char*, unsigned int*, unsigned int*)
FUNC 16c9b 195 0 parse_command_line<wchar_t>(wchar_t*, wchar_t**, wchar_t*, unsigned int*, unsigned int*)
FUNC 16e95 11 0 __crt_char_traits<char>::set_program_name<char *>(char*&&)
FUNC 16eaa 11 0 __crt_char_traits<wchar_t>::set_program_name<wchar_t *>(wchar_t*&&)
FUNC 16ebf 10 0 <lambda_a36aafc41185bea294aaaa3896c79ecc>::<lambda_a36aafc41185bea294aaaa3896c79ecc>(__crt_unique_heap_ptr<wchar_t *,__crt_internal_free_policy>&)
FUNC 16ed3 10 0 <lambda_df1553121bfa390f1154bd84936f2730>::<lambda_df1553121bfa390f1154bd84936f2730>(__crt_unique_heap_ptr<char *,__crt_internal_free_policy>&)
FUNC 16ee7 10 0 __crt_unique_heap_ptr<unsigned char,__crt_internal_free_policy>::__crt_unique_heap_ptr<unsigned char,__crt_internal_free_policy>(unsigned char* const)
FUNC 16efb 10 0 __crt_unique_heap_ptr<char *,__crt_internal_free_policy>::__crt_unique_heap_ptr<char *,__crt_internal_free_policy>(char** const)
FUNC 16f0f 10 0 __crt_unique_heap_ptr<wchar_t *,__crt_internal_free_policy>::__crt_unique_heap_ptr<wchar_t *,__crt_internal_free_policy>(wchar_t** const)
FUNC 16f23 12 0 __crt_unique_heap_ptr<unsigned char,__crt_internal_free_policy>::~__crt_unique_heap_ptr<unsigned char,__crt_internal_free_policy>()
FUNC 16f39 12 0 __crt_unique_heap_ptr<char *,__crt_internal_free_policy>::~__crt_unique_heap_ptr<char *,__crt_internal_free_policy>()
FUNC 16f4f 12 0 __crt_unique_heap_ptr<wchar_t *,__crt_internal_free_policy>::~__crt_unique_heap_ptr<wchar_t *,__crt_internal_free_policy>()
FUNC 16f65 7 0 __crt_unique_heap_ptr<unsigned char,__crt_internal_free_policy>::operator bool() const
FUNC 16f6c 16 0 <lambda_a36aafc41185bea294aaaa3896c79ecc>::operator()() const
FUNC 16f87 16 0 <lambda_df1553121bfa390f1154bd84936f2730>::operator()() const
FUNC 16fa2 6 0 __crt_unique_heap_ptr<unsigned char,__crt_internal_free_policy>::detach()
FUNC 16fa8 6 0 __crt_unique_heap_ptr<char *,__crt_internal_free_policy>::detach()
FUNC 16fae 6 0 __crt_unique_heap_ptr<wchar_t *,__crt_internal_free_policy>::detach()
FUNC 16fb4 5 0 do_locale_initialization(char)
FUNC 16fb9 3 0 do_locale_initialization(wchar_t)
FUNC 16fbc b 0 expand_argv_wildcards(char** const, char*** const)
FUNC 16fc9 b 0 expand_argv_wildcards(wchar_t** const, wchar_t*** const)
FUNC 16fd6 3 0 __crt_unique_heap_ptr<unsigned char,__crt_internal_free_policy>::get() const
FUNC 16fd9 3 0 __crt_unique_heap_ptr<char *,__crt_internal_free_policy>::get() const
FUNC 16fdc 3 0 __crt_unique_heap_ptr<wchar_t *,__crt_internal_free_policy>::get() const
FUNC 16fdf 3 0 __crt_unique_heap_ptr<char *,__crt_internal_free_policy>::get_address_of()
FUNC 16fe2 3 0 __crt_unique_heap_ptr<wchar_t *,__crt_internal_free_policy>::get_address_of()
FUNC 16fe5 6 0 get_argv(char)
FUNC 16feb 6 0 get_argv(wchar_t)
FUNC 16ff1 6 0 get_command_line(char)
FUNC 16ff7 6 0 get_command_line(wchar_t)
FUNC 16ffd 7 0 __crt_unique_heap_ptr<unsigned char,__crt_internal_free_policy>::is_valid() const
FUNC 17004 12 0 __crt_unique_heap_ptr<unsigned char,__crt_internal_free_policy>::release()
FUNC 1701a 12 0 __crt_unique_heap_ptr<char *,__crt_internal_free_policy>::release()
FUNC 17030 12 0 __crt_unique_heap_ptr<wchar_t *,__crt_internal_free_policy>::release()
FUNC 17046 17 0 should_copy_another_character(const char)
FUNC 17062 3 0 should_copy_another_character(wchar_t)
FUNC 17065 4f 0 __acrt_allocate_buffer_for_argv(unsigned int, unsigned int, unsigned int)
FUNC 170c7 b 0 _configure_narrow_argv(_crt_argv_mode)
FUNC 170d4 b 0 _configure_wide_argv(_crt_argv_mode)
FUNC 170e1 f 0 _set_pgmptr(char*)
FUNC 170f3 f 0 _set_wpgmptr(wchar_t*)
FUNC 17105 12 0 __crt_internal_free_policy::operator()<wchar_t>(wchar_t const* const) const
FUNC 1711b 14 0 common_get_initial_environment<char>()
FUNC 17134 14 0 common_get_initial_environment<wchar_t>()
FUNC 1714d 2c 0 common_get_or_create_environment_nolock<char>()
FUNC 17184 2c 0 common_get_or_create_environment_nolock<wchar_t>()
FUNC 171bb 53 0 common_initialize_environment_nolock<char>()
FUNC 17222 4e 0 common_initialize_environment_nolock<wchar_t>()
FUNC 17283 34 0 count_variables_in_environment_block<char>(char* const)
FUNC 172c4 49 0 count_variables_in_environment_block<wchar_t>(wchar_t* const)
FUNC 1731f d0 0 create_environment<char>(char* const)
FUNC 17423 10d 0 create_environment<wchar_t>(wchar_t* const)
FUNC 17573 2f 0 free_environment<char>(char** const)
FUNC 175ad 2f 0 free_environment<wchar_t>(wchar_t** const)
FUNC 175e7 5 0 __crt_char_traits<char>::get_environment_from_os<>()
FUNC 175ec 5 0 __crt_char_traits<wchar_t>::get_environment_from_os<>()
FUNC 175f1 83 0 initialize_environment_by_cloning_nolock<char>()
FUNC 17694 7d 0 initialize_environment_by_cloning_nolock<wchar_t>()
FUNC 17730 18 0 __crt_char_traits<char>::set_variable_in_environment_nolock<char *,int>(char*&&, int&&)
FUNC 1774e 18 0 __crt_char_traits<wchar_t>::set_variable_in_environment_nolock<wchar_t *,int>(wchar_t*&&, int&&)
FUNC 1776c 1e 0 __crt_char_traits<char>::tcscpy_s<char *,unsigned int const &,char * &>(char*&&, unsigned int const&, char*&)
FUNC 17791 1e 0 __crt_char_traits<wchar_t>::tcscpy_s<wchar_t *,unsigned int const &,wchar_t * &>(wchar_t*&&, unsigned int const&, wchar_t*&)
FUNC 177b6 18 0 __crt_char_traits<char>::tcslen<char * &>(char*&)
FUNC 177d4 1e 0 __crt_char_traits<wchar_t>::tcslen<wchar_t * &>(wchar_t*&)
FUNC 177f9 29 0 __crt_state_management::dual_state_global<char * *>::uninitialize<void (__cdecl&)(char * * &)>(void (&)(char**&))
FUNC 1782c 29 0 __crt_state_management::dual_state_global<wchar_t * *>::uninitialize<void (__cdecl&)(wchar_t * * &)>(void (&)(wchar_t**&))
FUNC 1785f 1b 0 uninitialize_environment_internal<char>(char**&)
FUNC 17880 1b 0 uninitialize_environment_internal<wchar_t>(wchar_t**&)
FUNC 178a1 10 0 __crt_unique_heap_ptr<wchar_t,__crt_internal_free_policy>::__crt_unique_heap_ptr<wchar_t,__crt_internal_free_policy>(wchar_t* const)
FUNC 178b5 12 0 __crt_unique_heap_ptr<wchar_t,__crt_internal_free_policy>::~__crt_unique_heap_ptr<wchar_t,__crt_internal_free_policy>()
FUNC 178cb 7 0 __crt_unique_heap_ptr<char *,__crt_internal_free_policy>::operator bool() const
FUNC 178d2 7 0 __crt_unique_heap_ptr<wchar_t *,__crt_internal_free_policy>::operator bool() const
FUNC 178d9 7 0 __crt_unique_heap_ptr<wchar_t,__crt_internal_free_policy>::operator bool() const
FUNC 178e0 1c 0 __crt_compute_required_transform_buffer_count(const unsigned int, char const* const)
FUNC 17903 1e 0 __crt_compute_required_transform_buffer_count(const unsigned int, wchar_t const* const)
FUNC 17928 1f 0 __crt_transform_string(const unsigned int, char const* const, wchar_t* const, const unsigned int)
FUNC 1794e 22 0 __crt_transform_string(const unsigned int, wchar_t const* const, char* const, const unsigned int)
FUNC 17978 6 0 __crt_unique_heap_ptr<char,__crt_internal_free_policy>::detach()
FUNC 1797e 6 0 __crt_unique_heap_ptr<wchar_t,__crt_internal_free_policy>::detach()
FUNC 17984 3 0 __crt_unique_heap_ptr<wchar_t,__crt_internal_free_policy>::get() const
FUNC 17987 6 0 get_dual_state_environment_nolock(char)
FUNC 1798d 6 0 get_dual_state_environment_nolock(wchar_t)
FUNC 17993 6 0 get_environment_nolock(char)
FUNC 17999 6 0 get_environment_nolock(wchar_t)
FUNC 1799f 6 0 get_initial_environment(char)
FUNC 179a5 6 0 get_initial_environment(wchar_t)
FUNC 179ab 26 0 __crt_state_management::dual_state_global<char * *>::initialize(char** const)
FUNC 179da 26 0 __crt_state_management::dual_state_global<wchar_t * *>::initialize(wchar_t** const)
FUNC 17a09 7 0 __crt_unique_heap_ptr<char *,__crt_internal_free_policy>::is_valid() const
FUNC 17a10 7 0 __crt_unique_heap_ptr<wchar_t *,__crt_internal_free_policy>::is_valid() const
FUNC 17a17 7 0 __crt_unique_heap_ptr<wchar_t,__crt_internal_free_policy>::is_valid() const
FUNC 17a1e 5 0 pre_initialize(char)
FUNC 17a23 3 0 pre_initialize(wchar_t)
FUNC 17a26 12 0 __crt_unique_heap_ptr<wchar_t,__crt_internal_free_policy>::release()
FUNC 17a3c 3 0 __crt_state_management::dual_state_global<char * *>::value()
FUNC 17a3f 3 0 __crt_state_management::dual_state_global<wchar_t * *>::value()
FUNC 17a42 5 0 __dcrt_get_or_create_narrow_environment_nolock()
FUNC 17a47 5 0 __dcrt_get_or_create_wide_environment_nolock()
FUNC 17a4c 37 0 __dcrt_uninitialize_environments_nolock()
FUNC 17a90 6 0 __p__environ()
FUNC 17a96 6 0 __p__wenviron()
FUNC 17a9c 14 0 _get_initial_narrow_environment()
FUNC 17ab5 14 0 _get_initial_wide_environment()
FUNC 17ace 5 0 _initialize_narrow_environment()
FUNC 17ad3 5 0 _initialize_wide_environment()
FUNC 17ad8 22 0 _invoke_watson_if_error(int, wchar_t const*, wchar_t const*, wchar_t const*, unsigned int, unsigned int)
FUNC 17b02 6 0 __crt_fast_encoded_nullptr_t::operator<void (__cdecl*)(void)> void (__cdecl**)(void)() const
FUNC 17b08 12 0 __crt_internal_free_policy::operator()<void (__cdecl*)(void)>(void (* const* const)()) const
FUNC 17b1e 5b 0 __crt_seh_guarded_call<int>::operator()<<lambda_69a2805e680e0e292e8ba93315fe43a8>,<lambda_f03950bc5685219e0bcd2087efbe011e> &,<lambda_03fcd07e894ec930e3f35da366ca99d6> >(__acrt_lock_and_call::__l2::<lambda_69a2805e680e0e292e8ba93315fe43a8>&&, _execute_onexit_table::__l2::<lambda_f03950bc5685219e0bcd2087efbe011e>&, __acrt_lock_and_call::__l2::<lambda_03fcd07e894ec930e3f35da366ca99d6>&&)
FUNC 17b8f 5b 0 __crt_seh_guarded_call<int>::operator()<<lambda_8e746cf0007f6ed984d6f78af1fec997>,<lambda_22ebabd17bc4fa466a2aca6d8deb888d> &,<lambda_18ed0c0b38a6dc0daf1e7ac6d6adf05e> >(__acrt_lock_and_call::__l2::<lambda_8e746cf0007f6ed984d6f78af1fec997>&&, _register_onexit_function::__l2::<lambda_22ebabd17bc4fa466a2aca6d8deb888d>&, __acrt_lock_and_call::__l2::<lambda_18ed0c0b38a6dc0daf1e7ac6d6adf05e>&&)
FUNC 17c00 26 0 __acrt_lock_and_call<<lambda_22ebabd17bc4fa466a2aca6d8deb888d> >(const __acrt_lock_id, _register_onexit_function::__l2::<lambda_22ebabd17bc4fa466a2aca6d8deb888d>&&)
FUNC 17c2f 26 0 __acrt_lock_and_call<<lambda_f03950bc5685219e0bcd2087efbe011e> >(const __acrt_lock_id, _execute_onexit_table::__l2::<lambda_f03950bc5685219e0bcd2087efbe011e>&&)
FUNC 17c5e 1f 0 __crt_fast_encode_pointer<int (__cdecl*)(void)>(int (* const)())
FUNC 17c84 12 0 <lambda_03fcd07e894ec930e3f35da366ca99d6>::<lambda_03fcd07e894ec930e3f35da366ca99d6>(__acrt_lock_id const&)
FUNC 17c9a 12 0 <lambda_18ed0c0b38a6dc0daf1e7ac6d6adf05e>::<lambda_18ed0c0b38a6dc0daf1e7ac6d6adf05e>(__acrt_lock_id const&)
FUNC 17cb0 16 0 <lambda_22ebabd17bc4fa466a2aca6d8deb888d>::<lambda_22ebabd17bc4fa466a2aca6d8deb888d>(_onexit_table_t* const&, int (* const&)())
FUNC 17ccb 12 0 <lambda_69a2805e680e0e292e8ba93315fe43a8>::<lambda_69a2805e680e0e292e8ba93315fe43a8>(__acrt_lock_id const&)
FUNC 17ce1 12 0 <lambda_8e746cf0007f6ed984d6f78af1fec997>::<lambda_8e746cf0007f6ed984d6f78af1fec997>(__acrt_lock_id const&)
FUNC 17cf7 10 0 <lambda_f03950bc5685219e0bcd2087efbe011e>::<lambda_f03950bc5685219e0bcd2087efbe011e>(_onexit_table_t* const&)
FUNC 17d0b 10 0 __crt_unique_heap_ptr<void (__cdecl*)(void),__crt_internal_free_policy>::__crt_unique_heap_ptr<void (__cdecl*)(void),__crt_internal_free_policy>(void (** const)())
FUNC 17d1f 12 0 __crt_unique_heap_ptr<void (__cdecl*)(void),__crt_internal_free_policy>::~__crt_unique_heap_ptr<void (__cdecl*)(void),__crt_internal_free_policy>()
FUNC 17d35 3 0 __crt_state_management::scoped_global_state_reset::~scoped_global_state_reset()
FUNC 17d38 9 0 <lambda_03fcd07e894ec930e3f35da366ca99d6>::operator()() const
FUNC 17d43 9 0 <lambda_18ed0c0b38a6dc0daf1e7ac6d6adf05e>::operator()() const
FUNC 17d4e 129 0 <lambda_22ebabd17bc4fa466a2aca6d8deb888d>::operator()() const
FUNC 17ec1 9 0 <lambda_69a2805e680e0e292e8ba93315fe43a8>::operator()() const
FUNC 17ecc 9 0 <lambda_8e746cf0007f6ed984d6f78af1fec997>::operator()() const
FUNC 17ed7 da 0 <lambda_f03950bc5685219e0bcd2087efbe011e>::operator()() const
FUNC 17fe7 6 0 __crt_unique_heap_ptr<void (__cdecl*)(void),__crt_internal_free_policy>::detach()
FUNC 17fed 12 0 __crt_unique_heap_ptr<void (__cdecl*)(void),__crt_internal_free_policy>::release()
FUNC 18003 16 0 _crt_at_quick_exit(void (*)())
FUNC 1801e 16 0 _crt_atexit(void (*)())
FUNC 18039 2d 0 _execute_onexit_table(_onexit_table_t*)
FUNC 18071 29 0 _initialize_onexit_table(_onexit_table_t*)
FUNC 180a4 33 0 _register_onexit_function(_onexit_table_t*, int (*)())
FUNC 180e3 3 0 report_memory_leaks(const bool)
FUNC 180e6 d 0 initialize_global_variables()
FUNC 180f6 1a 0 initialize_c()
FUNC 18116 3 0 uninitialize_c(bool)
FUNC 18119 3 0 initialize_environment()
FUNC 1811c 8 0 uninitialize_environment(const bool)
FUNC 18126 3 0 initialize_global_state_isolation()
FUNC 18129 3 0 uninitialize_global_state_isolation(const bool)
FUNC 1812c 2e 0 initialize_pointers()
FUNC 18165 9 0 uninitialize_vcruntime(const bool)
FUNC 18170 17 0 uninitialize_allocated_memory(const bool)
FUNC 1818c 50 0 uninitialize_allocated_io_buffers(const bool)
FUNC 181f0 24 0 __crt_state_management::dual_state_global<__crt_multibyte_data *>::uninitialize<<lambda_af42a3ee9806e9a7305d451646e05244> >(uninitialize_allocated_memory::__l2::<lambda_af42a3ee9806e9a7305d451646e05244>&&)
FUNC 1821d 2e 0 <lambda_af42a3ee9806e9a7305d451646e05244>::operator()(__crt_multibyte_data*&) const
FUNC 18256 b 0 __acrt_stdio_is_initialized()
FUNC 18263 26 0 __crt_state_management::dual_state_global<__crt_locale_data *>::initialize(__crt_locale_data* const)
FUNC 18292 12 0 __acrt_initialize()
FUNC 182a8 b 0 __acrt_thread_attach()
FUNC 182b5 8 0 __acrt_thread_detach()
FUNC 182bf 30 0 __acrt_uninitialize(bool)
FUNC 182fb 12 0 __acrt_uninitialize_critical(bool)
FUNC 18311 16 0 get_terminate_or_default(__acrt_ptd const* const)
FUNC 1832c 12 0 _get_terminate()
FUNC 18342 20 0 set_terminate(void (*)())
FUNC 1836a 3c 0 terminate()
FUNC 183b5 b 0 malloc(unsigned int)
FUNC 183c2 5a 0 common_tcscpy_s<char>(char* const, const unsigned int, char const* const)
FUNC 18432 5a 0 strcpy_s(char*, unsigned int, char const*)
FUNC 184a2 23 0 __crt_stdio_output::format_validation_base<char,__crt_stdio_output::stream_output_adapter<char> >::format_validation_base<char,__crt_stdio_output::stream_output_adapter<char> ><__crt_stdio_output::stream_output_adapter<char> const &,unsigned __int64 const &,char const * const &,__crt_locale_pointers * const &,char * const &>(__crt_stdio_output::stream_output_adapter<char> const&, unsigned long long const&, char const* const&, __crt_locale_pointers* const&, char* const&)
FUNC 184cd 48 0 __crt_stdio_output::positional_parameter_base<char,__crt_stdio_output::stream_output_adapter<char> >::positional_parameter_base<char,__crt_stdio_output::stream_output_adapter<char> ><__crt_stdio_output::stream_output_adapter<char> const &,unsigned __int64 const &,char const * const &,__crt_locale_pointers * const &,char * const &>(__crt_stdio_output::stream_output_adapter<char> const&, unsigned long long const&, char const* const&, __crt_locale_pointers* const&, char* const&)
FUNC 18527 35 0 __crt_stdio_output::standard_base<char,__crt_stdio_output::stream_output_adapter<char> >::standard_base<char,__crt_stdio_output::stream_output_adapter<char> ><__crt_stdio_output::stream_output_adapter<char> const &,unsigned __int64 const &,char const * const &,__crt_locale_pointers * const &,char * const &>(__crt_stdio_output::stream_output_adapter<char> const&, unsigned long long const&, char const* const&, __crt_locale_pointers* const&, char* const&)
FUNC 18569 23 0 __crt_stdio_output::format_validation_base<wchar_t,__crt_stdio_output::stream_output_adapter<wchar_t> >::format_validation_base<wchar_t,__crt_stdio_output::stream_output_adapter<wchar_t> ><__crt_stdio_output::stream_output_adapter<wchar_t> const &,unsigned __int64 const &,wchar_t const * const &,__crt_locale_pointers * const &,char * const &>(__crt_stdio_output::stream_output_adapter<wchar_t> const&, unsigned long long const&, wchar_t const* const&, __crt_locale_pointers* const&, char* const&)
FUNC 18594 48 0 __crt_stdio_output::positional_parameter_base<wchar_t,__crt_stdio_output::stream_output_adapter<wchar_t> >::positional_parameter_base<wchar_t,__crt_stdio_output::stream_output_adapter<wchar_t> ><__crt_stdio_output::stream_output_adapter<wchar_t> const &,unsigned __int64 const &,wchar_t const * const &,__crt_locale_pointers * const &,char * const &>(__crt_stdio_output::stream_output_adapter<wchar_t> const&, unsigned long long const&, wchar_t const* const&, __crt_locale_pointers* const&, char* const&)
FUNC 185ee 35 0 __crt_stdio_output::standard_base<wchar_t,__crt_stdio_output::stream_output_adapter<wchar_t> >::standard_base<wchar_t,__crt_stdio_output::stream_output_adapter<wchar_t> ><__crt_stdio_output::stream_output_adapter<wchar_t> const &,unsigned __int64 const &,wchar_t const * const &,__crt_locale_pointers * const &,char * const &>(__crt_stdio_output::stream_output_adapter<wchar_t> const&, unsigned long long const&, wchar_t const* const&, __crt_locale_pointers* const&, char* const&)
FUNC 18630 23 0 __crt_stdio_output::format_validation_base<char,__crt_stdio_output::string_output_adapter<char> >::format_validation_base<char,__crt_stdio_output::string_output_adapter<char> ><__crt_stdio_output::string_output_adapter<char> const &,unsigned __int64 const &,char const * const &,__crt_locale_pointers * const &,char * const &>(__crt_stdio_output::string_output_adapter<char> const&, unsigned long long const&, char const* const&, __crt_locale_pointers* const&, char* const&)
FUNC 1865b 48 0 __crt_stdio_output::positional_parameter_base<char,__crt_stdio_output::string_output_adapter<char> >::positional_parameter_base<char,__crt_stdio_output::string_output_adapter<char> ><__crt_stdio_output::string_output_adapter<char> const &,unsigned __int64 const &,char const * const &,__crt_locale_pointers * const &,char * const &>(__crt_stdio_output::string_output_adapter<char> const&, unsigned long long const&, char const* const&, __crt_locale_pointers* const&, char* const&)
FUNC 186b5 35 0 __crt_stdio_output::standard_base<char,__crt_stdio_output::string_output_adapter<char> >::standard_base<char,__crt_stdio_output::string_output_adapter<char> ><__crt_stdio_output::string_output_adapter<char> const &,unsigned __int64 const &,char const * const &,__crt_locale_pointers * const &,char * const &>(__crt_stdio_output::string_output_adapter<char> const&, unsigned long long const&, char const* const&, __crt_locale_pointers* const&, char* const&)
FUNC 186f7 23 0 __crt_stdio_output::format_validation_base<wchar_t,__crt_stdio_output::string_output_adapter<wchar_t> >::format_validation_base<wchar_t,__crt_stdio_output::string_output_adapter<wchar_t> ><__crt_stdio_output::string_output_adapter<wchar_t> const &,unsigned __int64 const &,wchar_t const * const &,__crt_locale_pointers * const &,char * const &>(__crt_stdio_output::string_output_adapter<wchar_t> const&, unsigned long long const&, wchar_t const* const&, __crt_locale_pointers* const&, char* const&)
FUNC 18722 48 0 __crt_stdio_output::positional_parameter_base<wchar_t,__crt_stdio_output::string_output_adapter<wchar_t> >::positional_parameter_base<wchar_t,__crt_stdio_output::string_output_adapter<wchar_t> ><__crt_stdio_output::string_output_adapter<wchar_t> const &,unsigned __int64 const &,wchar_t const * const &,__crt_locale_pointers * const &,char * const &>(__crt_stdio_output::string_output_adapter<wchar_t> const&, unsigned long long const&, wchar_t const* const&, __crt_locale_pointers* const&, char* const&)
FUNC 1877c 35 0 __crt_stdio_output::standard_base<wchar_t,__crt_stdio_output::string_output_adapter<wchar_t> >::standard_base<wchar_t,__crt_stdio_output::string_output_adapter<wchar_t> ><__crt_stdio_output::string_output_adapter<wchar_t> const &,unsigned __int64 const &,wchar_t const * const &,__crt_locale_pointers * const &,char * const &>(__crt_stdio_output::string_output_adapter<wchar_t> const&, unsigned long long const&, wchar_t const* const&, __crt_locale_pointers* const&, char* const&)
FUNC 187be 5b 0 __crt_seh_guarded_call<int>::operator()<<lambda_3cfd252a7c5e244e8f20fc56fe35ebe9>,<lambda_d7427dbf72509eba5fa970998bac2a27> &,<lambda_8f55a0afecd2292d47fde3ce68e72492> >(__acrt_lock_stream_and_call::__l2::<lambda_3cfd252a7c5e244e8f20fc56fe35ebe9>&&, common_vfprintf::__l2::<lambda_d7427dbf72509eba5fa970998bac2a27>&, __acrt_lock_stream_and_call::__l2::<lambda_8f55a0afecd2292d47fde3ce68e72492>&&)
FUNC 1882f 5b 0 __crt_seh_guarded_call<int>::operator()<<lambda_5d912c5eb12d68f7685796d855ab8da6>,<lambda_81587a929b95143618da2bd798ca9df2> &,<lambda_bfd63e08e93a545639db6d324cf10d1a> >(__acrt_lock_stream_and_call::__l2::<lambda_5d912c5eb12d68f7685796d855ab8da6>&&, common_vfprintf::__l2::<lambda_81587a929b95143618da2bd798ca9df2>&, __acrt_lock_stream_and_call::__l2::<lambda_bfd63e08e93a545639db6d324cf10d1a>&&)
FUNC 188a0 5b 0 __crt_seh_guarded_call<int>::operator()<<lambda_9b2bd5c6bb91c5c032542faa5c3cb611>,<lambda_be68057ced330f874c40fe9612235e36> &,<lambda_dbd837d1c0b7fc6e2d81c287c81c071b> >(__acrt_lock_stream_and_call::__l2::<lambda_9b2bd5c6bb91c5c032542faa5c3cb611>&&, common_vfprintf::__l2::<lambda_be68057ced330f874c40fe9612235e36>&, __acrt_lock_stream_and_call::__l2::<lambda_dbd837d1c0b7fc6e2d81c287c81c071b>&&)
FUNC 18911 5b 0 __crt_seh_guarded_call<int>::operator()<<lambda_ba8264b40644a42074cedf043e7aa388>,<lambda_9dc9bc4853282e051506c0cc602abcf3> &,<lambda_1c412e3457517a614fb7d0c137686c95> >(__acrt_lock_stream_and_call::__l2::<lambda_ba8264b40644a42074cedf043e7aa388>&&, common_vfprintf::__l2::<lambda_9dc9bc4853282e051506c0cc602abcf3>&, __acrt_lock_stream_and_call::__l2::<lambda_1c412e3457517a614fb7d0c137686c95>&&)
FUNC 18982 5b 0 __crt_seh_guarded_call<int>::operator()<<lambda_c29ee0499b841886b80d843682cc403a>,<lambda_0be4ab1c2a6918fda4e39227d83ea893> &,<lambda_5a3ed3da325c8ea037a470278c0f2d16> >(__acrt_lock_stream_and_call::__l2::<lambda_c29ee0499b841886b80d843682cc403a>&&, common_vfprintf::__l2::<lambda_0be4ab1c2a6918fda4e39227d83ea893>&, __acrt_lock_stream_and_call::__l2::<lambda_5a3ed3da325c8ea037a470278c0f2d16>&&)
FUNC 189f3 5b 0 __crt_seh_guarded_call<int>::operator()<<lambda_cae121c7667f229345c68b3f32b19755>,<lambda_b09925f738b1434f525bf50d3162636f> &,<lambda_18d67e1eeb4dde13899af949c649d933> >(__acrt_lock_stream_and_call::__l2::<lambda_cae121c7667f229345c68b3f32b19755>&&, common_vfprintf::__l2::<lambda_b09925f738b1434f525bf50d3162636f>&, __acrt_lock_stream_and_call::__l2::<lambda_18d67e1eeb4dde13899af949c649d933>&&)
FUNC 18a64 26 0 __acrt_lock_stream_and_call<<lambda_0be4ab1c2a6918fda4e39227d83ea893> >(_iobuf* const, common_vfprintf::__l2::<lambda_0be4ab1c2a6918fda4e39227d83ea893>&&)
FUNC 18a93 26 0 __acrt_lock_stream_and_call<<lambda_81587a929b95143618da2bd798ca9df2> >(_iobuf* const, common_vfprintf::__l2::<lambda_81587a929b95143618da2bd798ca9df2>&&)
FUNC 18ac2 26 0 __acrt_lock_stream_and_call<<lambda_9dc9bc4853282e051506c0cc602abcf3> >(_iobuf* const, common_vfprintf::__l2::<lambda_9dc9bc4853282e051506c0cc602abcf3>&&)
FUNC 18af1 26 0 __acrt_lock_stream_and_call<<lambda_b09925f738b1434f525bf50d3162636f> >(_iobuf* const, common_vfprintf::__l2::<lambda_b09925f738b1434f525bf50d3162636f>&&)
FUNC 18b20 26 0 __acrt_lock_stream_and_call<<lambda_be68057ced330f874c40fe9612235e36> >(_iobuf* const, common_vfprintf::__l2::<lambda_be68057ced330f874c40fe9612235e36>&&)
FUNC 18b4f 26 0 __acrt_lock_stream_and_call<<lambda_d7427dbf72509eba5fa970998bac2a27> >(_iobuf* const, common_vfprintf::__l2::<lambda_d7427dbf72509eba5fa970998bac2a27>&&)
FUNC 18b7e 64 0 common_vfprintf<__crt_stdio_output::format_validation_base,char>(const unsigned long long, _iobuf* const, char const* const, __crt_locale_pointers* const, char* const)
FUNC 18bfb 64 0 common_vfprintf<__crt_stdio_output::format_validation_base,wchar_t>(const unsigned long long, _iobuf* const, wchar_t const* const, __crt_locale_pointers* const, char* const)
FUNC 18c78 64 0 common_vfprintf<__crt_stdio_output::positional_parameter_base,char>(const unsigned long long, _iobuf* const, char const* const, __crt_locale_pointers* const, char* const)
FUNC 18cf5 64 0 common_vfprintf<__crt_stdio_output::positional_parameter_base,wchar_t>(const unsigned long long, _iobuf* const, wchar_t const* const, __crt_locale_pointers* const, char* const)
FUNC 18d72 64 0 common_vfprintf<__crt_stdio_output::standard_base,char>(const unsigned long long, _iobuf* const, char const* const, __crt_locale_pointers* const, char* const)
FUNC 18def 64 0 common_vfprintf<__crt_stdio_output::standard_base,wchar_t>(const unsigned long long, _iobuf* const, wchar_t const* const, __crt_locale_pointers* const, char* const)
FUNC 18e6c e8 0 common_vsnprintf_s<char>(const unsigned long long, char* const, const unsigned int, const unsigned int, char const* const, __crt_locale_pointers* const, char* const)
FUNC 18f8e ec 0 common_vsnprintf_s<wchar_t>(const unsigned long long, wchar_t* const, const unsigned int, const unsigned int, wchar_t const* const, __crt_locale_pointers* const, char* const)
FUNC 190b5 17e 0 common_vsprintf<__crt_stdio_output::format_validation_base,char>(const unsigned long long, char* const, const unsigned int, char const* const, __crt_locale_pointers* const, char* const)
FUNC 19292 187 0 common_vsprintf<__crt_stdio_output::format_validation_base,wchar_t>(const unsigned long long, wchar_t* const, const unsigned int, wchar_t const* const, __crt_locale_pointers* const, char* const)
FUNC 1947a 1b0 0 common_vsprintf<__crt_stdio_output::positional_parameter_base,char>(const unsigned long long, char* const, const unsigned int, char const* const, __crt_locale_pointers* const, char* const)
FUNC 19696 1b9 0 common_vsprintf<__crt_stdio_output::positional_parameter_base,wchar_t>(const unsigned long long, wchar_t* const, const unsigned int, wchar_t const* const, __crt_locale_pointers* const, char* const)
FUNC 198bd 17e 0 common_vsprintf<__crt_stdio_output::standard_base,char>(const unsigned long long, char* const, const unsigned int, char const* const, __crt_locale_pointers* const, char* const)
FUNC 19a9a 187 0 common_vsprintf<__crt_stdio_output::standard_base,wchar_t>(const unsigned long long, wchar_t* const, const unsigned int, wchar_t const* const, __crt_locale_pointers* const, char* const)
FUNC 19c82 78 0 common_vsprintf_s<char>(const unsigned long long, char* const, const unsigned int, char const* const, __crt_locale_pointers* const, char* const)
FUNC 19d18 7a 0 common_vsprintf_s<wchar_t>(const unsigned long long, wchar_t* const, const unsigned int, wchar_t const* const, __crt_locale_pointers* const, char* const)
FUNC 19db0 18 0 __crt_stdio_output::formatting_buffer::count<char>() const
FUNC 19dce 19 0 __crt_stdio_output::formatting_buffer::count<wchar_t>() const
FUNC 19ded d 0 __crt_stdio_output::formatting_buffer::data<char>()
FUNC 19dfd d 0 __crt_stdio_output::formatting_buffer::data<wchar_t>()
FUNC 19e0d 7d 0 __crt_stdio_output::formatting_buffer::ensure_buffer_is_big_enough<char>(const unsigned int)
FUNC 19ea9 7e 0 __crt_stdio_output::formatting_buffer::ensure_buffer_is_big_enough<wchar_t>(const unsigned int)
FUNC 19f46 79 0 __crt_stdio_output::positional_parameter_base<char,__crt_stdio_output::stream_output_adapter<char> >::extract_argument_from_va_list<signed char,__int64>(long long&)
FUNC 19fdd 79 0 __crt_stdio_output::positional_parameter_base<char,__crt_stdio_output::string_output_adapter<char> >::extract_argument_from_va_list<signed char,__int64>(long long&)
FUNC 1a074 79 0 __crt_stdio_output::positional_parameter_base<wchar_t,__crt_stdio_output::stream_output_adapter<wchar_t> >::extract_argument_from_va_list<signed char,__int64>(long long&)
FUNC 1a10b 79 0 __crt_stdio_output::positional_parameter_base<wchar_t,__crt_stdio_output::string_output_adapter<wchar_t> >::extract_argument_from_va_list<signed char,__int64>(long long&)
FUNC 1a1a2 1f 0 __crt_stdio_output::standard_base<char,__crt_stdio_output::stream_output_adapter<char> >::extract_argument_from_va_list<signed char,__int64>(long long&)
FUNC 1a1c8 1f 0 __crt_stdio_output::standard_base<char,__crt_stdio_output::string_output_adapter<char> >::extract_argument_from_va_list<signed char,__int64>(long long&)
FUNC 1a1ee 1f 0 __crt_stdio_output::standard_base<wchar_t,__crt_stdio_output::stream_output_adapter<wchar_t> >::extract_argument_from_va_list<signed char,__int64>(long long&)
FUNC 1a214 1f 0 __crt_stdio_output::standard_base<wchar_t,__crt_stdio_output::string_output_adapter<wchar_t> >::extract_argument_from_va_list<signed char,__int64>(long long&)
FUNC 1a23a 79 0 __crt_stdio_output::positional_parameter_base<char,__crt_stdio_output::stream_output_adapter<char> >::extract_argument_from_va_list<unsigned char,__int64>(long long&)
FUNC 1a2d1 79 0 __crt_stdio_output::positional_parameter_base<char,__crt_stdio_output::string_output_adapter<char> >::extract_argument_from_va_list<unsigned char,__int64>(long long&)
FUNC 1a368 79 0 __crt_stdio_output::positional_parameter_base<wchar_t,__crt_stdio_output::stream_output_adapter<wchar_t> >::extract_argument_from_va_list<unsigned char,__int64>(long long&)
FUNC 1a3ff 79 0 __crt_stdio_output::positional_parameter_base<wchar_t,__crt_stdio_output::string_output_adapter<wchar_t> >::extract_argument_from_va_list<unsigned char,__int64>(long long&)
FUNC 1a496 1f 0 __crt_stdio_output::standard_base<char,__crt_stdio_output::stream_output_adapter<char> >::extract_argument_from_va_list<unsigned char,__int64>(long long&)
FUNC 1a4bc 1f 0 __crt_stdio_output::standard_base<char,__crt_stdio_output::string_output_adapter<char> >::extract_argument_from_va_list<unsigned char,__int64>(long long&)
FUNC 1a4e2 1f 0 __crt_stdio_output::standard_base<wchar_t,__crt_stdio_output::stream_output_adapter<wchar_t> >::extract_argument_from_va_list<unsigned char,__int64>(long long&)
FUNC 1a508 1f 0 __crt_stdio_output::standard_base<wchar_t,__crt_stdio_output::string_output_adapter<wchar_t> >::extract_argument_from_va_list<unsigned char,__int64>(long long&)
FUNC 1a52e 79 0 __crt_stdio_output::positional_parameter_base<char,__crt_stdio_output::stream_output_adapter<char> >::extract_argument_from_va_list<short,__int64>(long long&)
FUNC 1a5c5 79 0 __crt_stdio_output::positional_parameter_base<char,__crt_stdio_output::string_output_adapter<char> >::extract_argument_from_va_list<short,__int64>(long long&)
FUNC 1a65c 79 0 __crt_stdio_output::positional_parameter_base<wchar_t,__crt_stdio_output::stream_output_adapter<wchar_t> >::extract_argument_from_va_list<short,__int64>(long long&)
FUNC 1a6f3 79 0 __crt_stdio_output::positional_parameter_base<wchar_t,__crt_stdio_output::string_output_adapter<wchar_t> >::extract_argument_from_va_list<short,__int64>(long long&)
FUNC 1a78a 1f 0 __crt_stdio_output::standard_base<char,__crt_stdio_output::stream_output_adapter<char> >::extract_argument_from_va_list<short,__int64>(long long&)
FUNC 1a7b0 1f 0 __crt_stdio_output::standard_base<char,__crt_stdio_output::string_output_adapter<char> >::extract_argument_from_va_list<short,__int64>(long long&)
FUNC 1a7d6 1f 0 __crt_stdio_output::standard_base<wchar_t,__crt_stdio_output::stream_output_adapter<wchar_t> >::extract_argument_from_va_list<short,__int64>(long long&)
FUNC 1a7fc 1f 0 __crt_stdio_output::standard_base<wchar_t,__crt_stdio_output::string_output_adapter<wchar_t> >::extract_argument_from_va_list<short,__int64>(long long&)
FUNC 1a822 78 0 __crt_stdio_output::positional_parameter_base<char,__crt_stdio_output::stream_output_adapter<char> >::extract_argument_from_va_list<unsigned short,char>(char&)
FUNC 1a8b8 78 0 __crt_stdio_output::positional_parameter_base<char,__crt_stdio_output::string_output_adapter<char> >::extract_argument_from_va_list<unsigned short,char>(char&)
FUNC 1a94e 1a 0 __crt_stdio_output::standard_base<char,__crt_stdio_output::stream_output_adapter<char> >::extract_argument_from_va_list<unsigned short,char>(char&)
FUNC 1a96e 1a 0 __crt_stdio_output::standard_base<char,__crt_stdio_output::string_output_adapter<char> >::extract_argument_from_va_list<unsigned short,char>(char&)
FUNC 1a98e 79 0 __crt_stdio_output::positional_parameter_base<char,__crt_stdio_output::stream_output_adapter<char> >::extract_argument_from_va_list<unsigned short,__int64>(long long&)
FUNC 1aa25 79 0 __crt_stdio_output::positional_parameter_base<char,__crt_stdio_output::string_output_adapter<char> >::extract_argument_from_va_list<unsigned short,__int64>(long long&)
FUNC 1aabc 79 0 __crt_stdio_output::positional_parameter_base<wchar_t,__crt_stdio_output::stream_output_adapter<wchar_t> >::extract_argument_from_va_list<unsigned short,__int64>(long long&)
FUNC 1ab53 79 0 __crt_stdio_output::positional_parameter_base<wchar_t,__crt_stdio_output::string_output_adapter<wchar_t> >::extract_argument_from_va_list<unsigned short,__int64>(long long&)
FUNC 1abea 1f 0 __crt_stdio_output::standard_base<char,__crt_stdio_output::stream_output_adapter<char> >::extract_argument_from_va_list<unsigned short,__int64>(long long&)
FUNC 1ac10 1f 0 __crt_stdio_output::standard_base<char,__crt_stdio_output::string_output_adapter<char> >::extract_argument_from_va_list<unsigned short,__int64>(long long&)
FUNC 1ac36 1f 0 __crt_stdio_output::standard_base<wchar_t,__crt_stdio_output::stream_output_adapter<wchar_t> >::extract_argument_from_va_list<unsigned short,__int64>(long long&)
FUNC 1ac5c 1f 0 __crt_stdio_output::standard_base<wchar_t,__crt_stdio_output::string_output_adapter<wchar_t> >::extract_argument_from_va_list<unsigned short,__int64>(long long&)
FUNC 1ac82 77 0 __crt_stdio_output::positional_parameter_base<char,__crt_stdio_output::stream_output_adapter<char> >::extract_argument_from_va_list<int,__int64>(long long&)
FUNC 1ad16 77 0 __crt_stdio_output::positional_parameter_base<char,__crt_stdio_output::string_output_adapter<char> >::extract_argument_from_va_list<int,__int64>(long long&)
FUNC 1adaa 77 0 __crt_stdio_output::positional_parameter_base<wchar_t,__crt_stdio_output::stream_output_adapter<wchar_t> >::extract_argument_from_va_list<int,__int64>(long long&)
FUNC 1ae3e 77 0 __crt_stdio_output::positional_parameter_base<wchar_t,__crt_stdio_output::string_output_adapter<wchar_t> >::extract_argument_from_va_list<int,__int64>(long long&)
FUNC 1aed2 1e 0 __crt_stdio_output::standard_base<char,__crt_stdio_output::stream_output_adapter<char> >::extract_argument_from_va_list<int,__int64>(long long&)
FUNC 1aef7 1e 0 __crt_stdio_output::standard_base<char,__crt_stdio_output::string_output_adapter<char> >::extract_argument_from_va_list<int,__int64>(long long&)
FUNC 1af1c 1e 0 __crt_stdio_output::standard_base<wchar_t,__crt_stdio_output::stream_output_adapter<wchar_t> >::extract_argument_from_va_list<int,__int64>(long long&)
FUNC 1af41 1e 0 __crt_stdio_output::standard_base<wchar_t,__crt_stdio_output::string_output_adapter<wchar_t> >::extract_argument_from_va_list<int,__int64>(long long&)
FUNC 1af66 80 0 __crt_stdio_output::positional_parameter_base<char,__crt_stdio_output::stream_output_adapter<char> >::extract_argument_from_va_list<unsigned int,__int64>(long long&)
FUNC 1b006 80 0 __crt_stdio_output::positional_parameter_base<char,__crt_stdio_output::string_output_adapter<char> >::extract_argument_from_va_list<unsigned int,__int64>(long long&)
FUNC 1b0a6 80 0 __crt_stdio_output::positional_parameter_base<wchar_t,__crt_stdio_output::stream_output_adapter<wchar_t> >::extract_argument_from_va_list<unsigned int,__int64>(long long&)
FUNC 1b146 80 0 __crt_stdio_output::positional_parameter_base<wchar_t,__crt_stdio_output::string_output_adapter<wchar_t> >::extract_argument_from_va_list<unsigned int,__int64>(long long&)
FUNC 1b1e6 1e 0 __crt_stdio_output::standard_base<char,__crt_stdio_output::stream_output_adapter<char> >::extract_argument_from_va_list<unsigned int,__int64>(long long&)
FUNC 1b20b 1e 0 __crt_stdio_output::standard_base<char,__crt_stdio_output::string_output_adapter<char> >::extract_argument_from_va_list<unsigned int,__int64>(long long&)
FUNC 1b230 1e 0 __crt_stdio_output::standard_base<wchar_t,__crt_stdio_output::stream_output_adapter<wchar_t> >::extract_argument_from_va_list<unsigned int,__int64>(long long&)
FUNC 1b255 1e 0 __crt_stdio_output::standard_base<wchar_t,__crt_stdio_output::string_output_adapter<wchar_t> >::extract_argument_from_va_list<unsigned int,__int64>(long long&)
FUNC 1b27a 78 0 __crt_stdio_output::positional_parameter_base<char,__crt_stdio_output::stream_output_adapter<char> >::extract_argument_from_va_list<char *,char *>(char*&)
FUNC 1b310 78 0 __crt_stdio_output::positional_parameter_base<char,__crt_stdio_output::string_output_adapter<char> >::extract_argument_from_va_list<char *,char *>(char*&)
FUNC 1b3a6 78 0 __crt_stdio_output::positional_parameter_base<wchar_t,__crt_stdio_output::stream_output_adapter<wchar_t> >::extract_argument_from_va_list<char *,char *>(char*&)
FUNC 1b43c 78 0 __crt_stdio_output::positional_parameter_base<wchar_t,__crt_stdio_output::string_output_adapter<wchar_t> >::extract_argument_from_va_list<char *,char *>(char*&)
FUNC 1b4d2 1a 0 __crt_stdio_output::standard_base<char,__crt_stdio_output::stream_output_adapter<char> >::extract_argument_from_va_list<char *,char *>(char*&)
FUNC 1b4f2 1a 0 __crt_stdio_output::standard_base<char,__crt_stdio_output::string_output_adapter<char> >::extract_argument_from_va_list<char *,char *>(char*&)
FUNC 1b512 1a 0 __crt_stdio_output::standard_base<wchar_t,__crt_stdio_output::stream_output_adapter<wchar_t> >::extract_argument_from_va_list<char *,char *>(char*&)
FUNC 1b532 1a 0 __crt_stdio_output::standard_base<wchar_t,__crt_stdio_output::string_output_adapter<wchar_t> >::extract_argument_from_va_list<char *,char *>(char*&)
FUNC 1b552 1a 0 __crt_stdio_output::standard_base<char,__crt_stdio_output::stream_output_adapter<char> >::extract_argument_from_va_list<`__crt_stdio_output::output_processor<char,__crt_stdio_output::stream_output_adapter<char>,__crt_stdio_output::format_validation_base<char,__crt_stdio_output::stream_output_adapter<char> > >::type_case_Z'::`2'::ansi_string *,`__crt_stdio_output::output_processor<char,__crt_stdio_output::stream_output_adapter<char>,__crt_stdio_output::format_validation_base<char,__crt_stdio_output::stream_output_adapter<char> > >::type_case_Z'::`2'::ansi_string *>(__crt_stdio_output::output_processor<char,__crt_stdio_output::stream_output_adapter<char>,__crt_stdio_output::format_validation_base<char,__crt_stdio_output::stream_output_adapter<char> > >::type_case_Z::__l2::ansi_string*&)
FUNC 1b572 78 0 __crt_stdio_output::positional_parameter_base<char,__crt_stdio_output::stream_output_adapter<char> >::extract_argument_from_va_list<`__crt_stdio_output::output_processor<char,__crt_stdio_output::stream_output_adapter<char>,__crt_stdio_output::positional_parameter_base<char,__crt_stdio_output::stream_output_adapter<char> > >::type_case_Z'::`2'::ansi_string *,`__crt_stdio_output::output_processor<char,__crt_stdio_output::stream_output_adapter<char>,__crt_stdio_output::positional_parameter_base<char,__crt_stdio_output::stream_output_adapter<char> > >::type_case_Z'::`2'::ansi_string *>(__crt_stdio_output::output_processor<char,__crt_stdio_output::stream_output_adapter<char>,__crt_stdio_output::positional_parameter_base<char,__crt_stdio_output::stream_output_adapter<char> > >::type_case_Z::__l2::ansi_string*&)
FUNC 1b608 1a 0 __crt_stdio_output::standard_base<char,__crt_stdio_output::stream_output_adapter<char> >::extract_argument_from_va_list<`__crt_stdio_output::output_processor<char,__crt_stdio_output::stream_output_adapter<char>,__crt_stdio_output::positional_parameter_base<char,__crt_stdio_output::stream_output_adapter<char> > >::type_case_Z'::`2'::ansi_string *,`__crt_stdio_output::output_processor<char,__crt_stdio_output::stream_output_adapter<char>,__crt_stdio_output::positional_parameter_base<char,__crt_stdio_output::stream_output_adapter<char> > >::type_case_Z'::`2'::ansi_string *>(__crt_stdio_output::output_processor<char,__crt_stdio_output::stream_output_adapter<char>,__crt_stdio_output::positional_parameter_base<char,__crt_stdio_output::stream_output_adapter<char> > >::type_case_Z::__l2::ansi_string*&)
FUNC 1b628 1a 0 __crt_stdio_output::standard_base<char,__crt_stdio_output::stream_output_adapter<char> >::extract_argument_from_va_list<`__crt_stdio_output::output_processor<char,__crt_stdio_output::stream_output_adapter<char>,__crt_stdio_output::standard_base<char,__crt_stdio_output::stream_output_adapter<char> > >::type_case_Z'::`2'::ansi_string *,`__crt_stdio_output::output_processor<char,__crt_stdio_output::stream_output_adapter<char>,__crt_stdio_output::standard_base<char,__crt_stdio_output::stream_output_adapter<char> > >::type_case_Z'::`2'::ansi_string *>(__crt_stdio_output::output_processor<char,__crt_stdio_output::stream_output_adapter<char>,__crt_stdio_output::standard_base<char,__crt_stdio_output::stream_output_adapter<char> > >::type_case_Z::__l2::ansi_string*&)
FUNC 1b648 1a 0 __crt_stdio_output::standard_base<char,__crt_stdio_output::string_output_adapter<char> >::extract_argument_from_va_list<`__crt_stdio_output::output_processor<char,__crt_stdio_output::string_output_adapter<char>,__crt_stdio_output::format_validation_base<char,__crt_stdio_output::string_output_adapter<char> > >::type_case_Z'::`2'::ansi_string *,`__crt_stdio_output::output_processor<char,__crt_stdio_output::string_output_adapter<char>,__crt_stdio_output::format_validation_base<char,__crt_stdio_output::string_output_adapter<char> > >::type_case_Z'::`2'::ansi_string *>(__crt_stdio_output::output_processor<char,__crt_stdio_output::string_output_adapter<char>,__crt_stdio_output::format_validation_base<char,__crt_stdio_output::string_output_adapter<char> > >::type_case_Z::__l2::ansi_string*&)
FUNC 1b668 78 0 __crt_stdio_output::positional_parameter_base<char,__crt_stdio_output::string_output_adapter<char> >::extract_argument_from_va_list<`__crt_stdio_output::output_processor<char,__crt_stdio_output::string_output_adapter<char>,__crt_stdio_output::positional_parameter_base<char,__crt_stdio_output::string_output_adapter<char> > >::type_case_Z'::`2'::ansi_string *,`__crt_stdio_output::output_processor<char,__crt_stdio_output::string_output_adapter<char>,__crt_stdio_output::positional_parameter_base<char,__crt_stdio_output::string_output_adapter<char> > >::type_case_Z'::`2'::ansi_string *>(__crt_stdio_output::output_processor<char,__crt_stdio_output::string_output_adapter<char>,__crt_stdio_output::positional_parameter_base<char,__crt_stdio_output::string_output_adapter<char> > >::type_case_Z::__l2::ansi_string*&)
FUNC 1b6fe 1a 0 __crt_stdio_output::standard_base<char,__crt_stdio_output::string_output_adapter<char> >::extract_argument_from_va_list<`__crt_stdio_output::output_processor<char,__crt_stdio_output::string_output_adapter<char>,__crt_stdio_output::positional_parameter_base<char,__crt_stdio_output::string_output_adapter<char> > >::type_case_Z'::`2'::ansi_string *,`__crt_stdio_output::output_processor<char,__crt_stdio_output::string_output_adapter<char>,__crt_stdio_output::positional_parameter_base<char,__crt_stdio_output::string_output_adapter<char> > >::type_case_Z'::`2'::ansi_string *>(__crt_stdio_output::output_processor<char,__crt_stdio_output::string_output_adapter<char>,__crt_stdio_output::positional_parameter_base<char,__crt_stdio_output::string_output_adapter<char> > >::type_case_Z::__l2::ansi_string*&)
FUNC 1b71e 1a 0 __crt_stdio_output::standard_base<char,__crt_stdio_output::string_output_adapter<char> >::extract_argument_from_va_list<`__crt_stdio_output::output_processor<char,__crt_stdio_output::string_output_adapter<char>,__crt_stdio_output::standard_base<char,__crt_stdio_output::string_output_adapter<char> > >::type_case_Z'::`2'::ansi_string *,`__crt_stdio_output::output_processor<char,__crt_stdio_output::string_output_adapter<char>,__crt_stdio_output::standard_base<char,__crt_stdio_output::string_output_adapter<char> > >::type_case_Z'::`2'::ansi_string *>(__crt_stdio_output::output_processor<char,__crt_stdio_output::string_output_adapter<char>,__crt_stdio_output::standard_base<char,__crt_stdio_output::string_output_adapter<char> > >::type_case_Z::__l2::ansi_string*&)
FUNC 1b73e 1a 0 __crt_stdio_output::standard_base<wchar_t,__crt_stdio_output::stream_output_adapter<wchar_t> >::extract_argument_from_va_list<`__crt_stdio_output::output_processor<wchar_t,__crt_stdio_output::stream_output_adapter<wchar_t>,__crt_stdio_output::format_validation_base<wchar_t,__crt_stdio_output::stream_output_adapter<wchar_t> > >::type_case_Z'::`2'::ansi_string *,`__crt_stdio_output::output_processor<wchar_t,__crt_stdio_output::stream_output_adapter<wchar_t>,__crt_stdio_output::format_validation_base<wchar_t,__crt_stdio_output::stream_output_adapter<wchar_t> > >::type_case_Z'::`2'::ansi_string *>(__crt_stdio_output::output_processor<wchar_t,__crt_stdio_output::stream_output_adapter<wchar_t>,__crt_stdio_output::format_validation_base<wchar_t,__crt_stdio_output::stream_output_adapter<wchar_t> > >::type_case_Z::__l2::ansi_string*&)
FUNC 1b75e 78 0 __crt_stdio_output::positional_parameter_base<wchar_t,__crt_stdio_output::stream_output_adapter<wchar_t> >::extract_argument_from_va_list<`__crt_stdio_output::output_processor<wchar_t,__crt_stdio_output::stream_output_adapter<wchar_t>,__crt_stdio_output::positional_parameter_base<wchar_t,__crt_stdio_output::stream_output_adapter<wchar_t> > >::type_case_Z'::`2'::ansi_string *,`__crt_stdio_output::output_processor<wchar_t,__crt_stdio_output::stream_output_adapter<wchar_t>,__crt_stdio_output::positional_parameter_base<wchar_t,__crt_stdio_output::stream_output_adapter<wchar_t> > >::type_case_Z'::`2'::ansi_string *>(__crt_stdio_output::output_processor<wchar_t,__crt_stdio_output::stream_output_adapter<wchar_t>,__crt_stdio_output::positional_parameter_base<wchar_t,__crt_stdio_output::stream_output_adapter<wchar_t> > >::type_case_Z::__l2::ansi_string*&)
FUNC 1b7f4 1a 0 __crt_stdio_output::standard_base<wchar_t,__crt_stdio_output::stream_output_adapter<wchar_t> >::extract_argument_from_va_list<`__crt_stdio_output::output_processor<wchar_t,__crt_stdio_output::stream_output_adapter<wchar_t>,__crt_stdio_output::positional_parameter_base<wchar_t,__crt_stdio_output::stream_output_adapter<wchar_t> > >::type_case_Z'::`2'::ansi_string *,`__crt_stdio_output::output_processor<wchar_t,__crt_stdio_output::stream_output_adapter<wchar_t>,__crt_stdio_output::positional_parameter_base<wchar_t,__crt_stdio_output::stream_output_adapter<wchar_t> > >::type_case_Z'::`2'::ansi_string *>(__crt_stdio_output::output_processor<wchar_t,__crt_stdio_output::stream_output_adapter<wchar_t>,__crt_stdio_output::positional_parameter_base<wchar_t,__crt_stdio_output::stream_output_adapter<wchar_t> > >::type_case_Z::__l2::ansi_string*&)
FUNC 1b814 1a 0 __crt_stdio_output::standard_base<wchar_t,__crt_stdio_output::stream_output_adapter<wchar_t> >::extract_argument_from_va_list<`__crt_stdio_output::output_processor<wchar_t,__crt_stdio_output::stream_output_adapter<wchar_t>,__crt_stdio_output::standard_base<wchar_t,__crt_stdio_output::stream_output_adapter<wchar_t> > >::type_case_Z'::`2'::ansi_string *,`__crt_stdio_output::output_processor<wchar_t,__crt_stdio_output::stream_output_adapter<wchar_t>,__crt_stdio_output::standard_base<wchar_t,__crt_stdio_output::stream_output_adapter<wchar_t> > >::type_case_Z'::`2'::ansi_string *>(__crt_stdio_output::output_processor<wchar_t,__crt_stdio_output::stream_output_adapter<wchar_t>,__crt_stdio_output::standard_base<wchar_t,__crt_stdio_output::stream_output_adapter<wchar_t> > >::type_case_Z::__l2::ansi_string*&)
FUNC 1b834 1a 0 __crt_stdio_output::standard_base<wchar_t,__crt_stdio_output::string_output_adapter<wchar_t> >::extract_argument_from_va_list<`__crt_stdio_output::output_processor<wchar_t,__crt_stdio_output::string_output_adapter<wchar_t>,__crt_stdio_output::format_validation_base<wchar_t,__crt_stdio_output::string_output_adapter<wchar_t> > >::type_case_Z'::`2'::ansi_string *,`__crt_stdio_output::output_processor<wchar_t,__crt_stdio_output::string_output_adapter<wchar_t>,__crt_stdio_output::format_validation_base<wchar_t,__crt_stdio_output::string_output_adapter<wchar_t> > >::type_case_Z'::`2'::ansi_string *>(__crt_stdio_output::output_processor<wchar_t,__crt_stdio_output::string_output_adapter<wchar_t>,__crt_stdio_output::format_validation_base<wchar_t,__crt_stdio_output::string_output_adapter<wchar_t> > >::type_case_Z::__l2::ansi_string*&)
FUNC 1b854 78 0 __crt_stdio_output::positional_parameter_base<wchar_t,__crt_stdio_output::string_output_adapter<wchar_t> >::extract_argument_from_va_list<`__crt_stdio_output::output_processor<wchar_t,__crt_stdio_output::string_output_adapter<wchar_t>,__crt_stdio_output::positional_parameter_base<wchar_t,__crt_stdio_output::string_output_adapter<wchar_t> > >::type_case_Z'::`2'::ansi_string *,`__crt_stdio_output::output_processor<wchar_t,__crt_stdio_output::string_output_adapter<wchar_t>,__crt_stdio_output::positional_parameter_base<wchar_t,__crt_stdio_output::string_output_adapter<wchar_t> > >::type_case_Z'::`2'::ansi_string *>(__crt_stdio_output::output_processor<wchar_t,__crt_stdio_output::string_output_adapter<wchar_t>,__crt_stdio_output::positional_parameter_base<wchar_t,__crt_stdio_output::string_output_adapter<wchar_t> > >::type_case_Z::__l2::ansi_string*&)
FUNC 1b8ea 1a 0 __crt_stdio_output::standard_base<wchar_t,__crt_stdio_output::string_output_adapter<wchar_t> >::extract_argument_from_va_list<`__crt_stdio_output::output_processor<wchar_t,__crt_stdio_output::string_output_adapter<wchar_t>,__crt_stdio_output::positional_parameter_base<wchar_t,__crt_stdio_output::string_output_adapter<wchar_t> > >::type_case_Z'::`2'::ansi_string *,`__crt_stdio_output::output_processor<wchar_t,__crt_stdio_output::string_output_adapter<wchar_t>,__crt_stdio_output::positional_parameter_base<wchar_t,__crt_stdio_output::string_output_adapter<wchar_t> > >::type_case_Z'::`2'::ansi_string *>(__crt_stdio_output::output_processor<wchar_t,__crt_stdio_output::string_output_adapter<wchar_t>,__crt_stdio_output::positional_parameter_base<wchar_t,__crt_stdio_output::string_output_adapter<wchar_t> > >::type_case_Z::__l2::ansi_string*&)
FUNC 1b90a 1a 0 __crt_stdio_output::standard_base<wchar_t,__crt_stdio_output::string_output_adapter<wchar_t> >::extract_argument_from_va_list<`__crt_stdio_output::output_processor<wchar_t,__crt_stdio_output::string_output_adapter<wchar_t>,__crt_stdio_output::standard_base<wchar_t,__crt_stdio_output::string_output_adapter<wchar_t> > >::type_case_Z'::`2'::ansi_string *,`__crt_stdio_output::output_processor<wchar_t,__crt_stdio_output::string_output_adapter<wchar_t>,__crt_stdio_output::standard_base<wchar_t,__crt_stdio_output::string_output_adapter<wchar_t> > >::type_case_Z'::`2'::ansi_string *>(__crt_stdio_output::output_processor<wchar_t,__crt_stdio_output::string_output_adapter<wchar_t>,__crt_stdio_output::standard_base<wchar_t,__crt_stdio_output::string_output_adapter<wchar_t> > >::type_case_Z::__l2::ansi_string*&)
FUNC 1b92a 78 0 __crt_stdio_output::positional_parameter_base<char,__crt_stdio_output::stream_output_adapter<char> >::extract_argument_from_va_list<void *,void *>(void*&)
FUNC 1b9c0 78 0 __crt_stdio_output::positional_parameter_base<char,__crt_stdio_output::string_output_adapter<char> >::extract_argument_from_va_list<void *,void *>(void*&)
FUNC 1ba56 78 0 __crt_stdio_output::positional_parameter_base<wchar_t,__crt_stdio_output::stream_output_adapter<wchar_t> >::extract_argument_from_va_list<void *,void *>(void*&)
FUNC 1baec 78 0 __crt_stdio_output::positional_parameter_base<wchar_t,__crt_stdio_output::string_output_adapter<wchar_t> >::extract_argument_from_va_list<void *,void *>(void*&)
FUNC 1bb82 1a 0 __crt_stdio_output::standard_base<char,__crt_stdio_output::stream_output_adapter<char> >::extract_argument_from_va_list<void *,void *>(void*&)
FUNC 1bba2 1a 0 __crt_stdio_output::standard_base<char,__crt_stdio_output::string_output_adapter<char> >::extract_argument_from_va_list<void *,void *>(void*&)
FUNC 1bbc2 1a 0 __crt_stdio_output::standard_base<wchar_t,__crt_stdio_output::stream_output_adapter<wchar_t> >::extract_argument_from_va_list<void *,void *>(void*&)
FUNC 1bbe2 1a 0 __crt_stdio_output::standard_base<wchar_t,__crt_stdio_output::string_output_adapter<wchar_t> >::extract_argument_from_va_list<void *,void *>(void*&)
FUNC 1bc02 86 0 __crt_stdio_output::positional_parameter_base<char,__crt_stdio_output::stream_output_adapter<char> >::extract_argument_from_va_list<_CRT_DOUBLE,_CRT_DOUBLE>(_CRT_DOUBLE&)
FUNC 1bca9 86 0 __crt_stdio_output::positional_parameter_base<char,__crt_stdio_output::string_output_adapter<char> >::extract_argument_from_va_list<_CRT_DOUBLE,_CRT_DOUBLE>(_CRT_DOUBLE&)
FUNC 1bd50 86 0 __crt_stdio_output::positional_parameter_base<wchar_t,__crt_stdio_output::stream_output_adapter<wchar_t> >::extract_argument_from_va_list<_CRT_DOUBLE,_CRT_DOUBLE>(_CRT_DOUBLE&)
FUNC 1bdf7 86 0 __crt_stdio_output::positional_parameter_base<wchar_t,__crt_stdio_output::string_output_adapter<wchar_t> >::extract_argument_from_va_list<_CRT_DOUBLE,_CRT_DOUBLE>(_CRT_DOUBLE&)
FUNC 1be9e 20 0 __crt_stdio_output::standard_base<char,__crt_stdio_output::stream_output_adapter<char> >::extract_argument_from_va_list<_CRT_DOUBLE,_CRT_DOUBLE>(_CRT_DOUBLE&)
FUNC 1bec6 20 0 __crt_stdio_output::standard_base<char,__crt_stdio_output::string_output_adapter<char> >::extract_argument_from_va_list<_CRT_DOUBLE,_CRT_DOUBLE>(_CRT_DOUBLE&)
FUNC 1beee 20 0 __crt_stdio_output::standard_base<wchar_t,__crt_stdio_output::stream_output_adapter<wchar_t> >::extract_argument_from_va_list<_CRT_DOUBLE,_CRT_DOUBLE>(_CRT_DOUBLE&)
FUNC 1bf16 20 0 __crt_stdio_output::standard_base<wchar_t,__crt_stdio_output::string_output_adapter<wchar_t> >::extract_argument_from_va_list<_CRT_DOUBLE,_CRT_DOUBLE>(_CRT_DOUBLE&)
FUNC 1bf3e 86 0 __crt_stdio_output::positional_parameter_base<char,__crt_stdio_output::stream_output_adapter<char> >::extract_argument_from_va_list<__int64,__int64>(long long&)
FUNC 1bfe5 86 0 __crt_stdio_output::positional_parameter_base<char,__crt_stdio_output::string_output_adapter<char> >::extract_argument_from_va_list<__int64,__int64>(long long&)
FUNC 1c08c 86 0 __crt_stdio_output::positional_parameter_base<wchar_t,__crt_stdio_output::stream_output_adapter<wchar_t> >::extract_argument_from_va_list<__int64,__int64>(long long&)
FUNC 1c133 86 0 __crt_stdio_output::positional_parameter_base<wchar_t,__crt_stdio_output::string_output_adapter<wchar_t> >::extract_argument_from_va_list<__int64,__int64>(long long&)
FUNC 1c1da 20 0 __crt_stdio_output::standard_base<char,__crt_stdio_output::stream_output_adapter<char> >::extract_argument_from_va_list<__int64,__int64>(long long&)
FUNC 1c202 20 0 __crt_stdio_output::standard_base<char,__crt_stdio_output::string_output_adapter<char> >::extract_argument_from_va_list<__int64,__int64>(long long&)
FUNC 1c22a 20 0 __crt_stdio_output::standard_base<wchar_t,__crt_stdio_output::stream_output_adapter<wchar_t> >::extract_argument_from_va_list<__int64,__int64>(long long&)
FUNC 1c252 20 0 __crt_stdio_output::standard_base<wchar_t,__crt_stdio_output::string_output_adapter<wchar_t> >::extract_argument_from_va_list<__int64,__int64>(long long&)
FUNC 1c27a 86 0 __crt_stdio_output::positional_parameter_base<char,__crt_stdio_output::stream_output_adapter<char> >::extract_argument_from_va_list<unsigned __int64,__int64>(long long&)
FUNC 1c321 86 0 __crt_stdio_output::positional_parameter_base<char,__crt_stdio_output::string_output_adapter<char> >::extract_argument_from_va_list<unsigned __int64,__int64>(long long&)
FUNC 1c3c8 86 0 __crt_stdio_output::positional_parameter_base<wchar_t,__crt_stdio_output::stream_output_adapter<wchar_t> >::extract_argument_from_va_list<unsigned __int64,__int64>(long long&)
FUNC 1c46f 86 0 __crt_stdio_output::positional_parameter_base<wchar_t,__crt_stdio_output::string_output_adapter<wchar_t> >::extract_argument_from_va_list<unsigned __int64,__int64>(long long&)
FUNC 1c516 20 0 __crt_stdio_output::standard_base<char,__crt_stdio_output::stream_output_adapter<char> >::extract_argument_from_va_list<unsigned __int64,__int64>(long long&)
FUNC 1c53e 20 0 __crt_stdio_output::standard_base<char,__crt_stdio_output::string_output_adapter<char> >::extract_argument_from_va_list<unsigned __int64,__int64>(long long&)
FUNC 1c566 20 0 __crt_stdio_output::standard_base<wchar_t,__crt_stdio_output::stream_output_adapter<wchar_t> >::extract_argument_from_va_list<unsigned __int64,__int64>(long long&)
FUNC 1c58e 20 0 __crt_stdio_output::standard_base<wchar_t,__crt_stdio_output::string_output_adapter<wchar_t> >::extract_argument_from_va_list<unsigned __int64,__int64>(long long&)
FUNC 1c5b6 7c 0 __crt_stdio_output::positional_parameter_base<char,__crt_stdio_output::stream_output_adapter<char> >::extract_argument_from_va_list<wchar_t,wchar_t>(wchar_t&)
FUNC 1c651 7c 0 __crt_stdio_output::positional_parameter_base<char,__crt_stdio_output::string_output_adapter<char> >::extract_argument_from_va_list<wchar_t,wchar_t>(wchar_t&)
FUNC 1c6ec 7c 0 __crt_stdio_output::positional_parameter_base<wchar_t,__crt_stdio_output::stream_output_adapter<wchar_t> >::extract_argument_from_va_list<wchar_t,wchar_t>(wchar_t&)
FUNC 1c787 7c 0 __crt_stdio_output::positional_parameter_base<wchar_t,__crt_stdio_output::string_output_adapter<wchar_t> >::extract_argument_from_va_list<wchar_t,wchar_t>(wchar_t&)
FUNC 1c822 1c 0 __crt_stdio_output::standard_base<char,__crt_stdio_output::stream_output_adapter<char> >::extract_argument_from_va_list<wchar_t,wchar_t>(wchar_t&)
FUNC 1c845 1c 0 __crt_stdio_output::standard_base<char,__crt_stdio_output::string_output_adapter<char> >::extract_argument_from_va_list<wchar_t,wchar_t>(wchar_t&)
FUNC 1c868 1c 0 __crt_stdio_output::standard_base<wchar_t,__crt_stdio_output::stream_output_adapter<wchar_t> >::extract_argument_from_va_list<wchar_t,wchar_t>(wchar_t&)
FUNC 1c88b 1c 0 __crt_stdio_output::standard_base<wchar_t,__crt_stdio_output::string_output_adapter<wchar_t> >::extract_argument_from_va_list<wchar_t,wchar_t>(wchar_t&)
FUNC 1c8ae 4 0 __crt_stdio_output::positional_parameter_base<char,__crt_stdio_output::stream_output_adapter<char> >::get_parameter_type<char>(char*)
FUNC 1c8b2 4 0 __crt_stdio_output::positional_parameter_base<char,__crt_stdio_output::string_output_adapter<char> >::get_parameter_type<char>(char*)
FUNC 1c8b6 4 0 __crt_stdio_output::positional_parameter_base<wchar_t,__crt_stdio_output::stream_output_adapter<wchar_t> >::get_parameter_type<char>(char*)
FUNC 1c8ba 4 0 __crt_stdio_output::positional_parameter_base<wchar_t,__crt_stdio_output::string_output_adapter<wchar_t> >::get_parameter_type<char>(char*)
FUNC 1c8be 4 0 __crt_stdio_output::positional_parameter_base<char,__crt_stdio_output::stream_output_adapter<char> >::get_parameter_type<`__crt_stdio_output::output_processor<char,__crt_stdio_output::stream_output_adapter<char>,__crt_stdio_output::positional_parameter_base<char,__crt_stdio_output::stream_output_adapter<char> > >::type_case_Z'::`2'::ansi_string>(__crt_stdio_output::output_processor<char,__crt_stdio_output::stream_output_adapter<char>,__crt_stdio_output::positional_parameter_base<char,__crt_stdio_output::stream_output_adapter<char> > >::type_case_Z::__l2::ansi_string*)
FUNC 1c8c2 4 0 __crt_stdio_output::positional_parameter_base<char,__crt_stdio_output::string_output_adapter<char> >::get_parameter_type<`__crt_stdio_output::output_processor<char,__crt_stdio_output::string_output_adapter<char>,__crt_stdio_output::positional_parameter_base<char,__crt_stdio_output::string_output_adapter<char> > >::type_case_Z'::`2'::ansi_string>(__crt_stdio_output::output_processor<char,__crt_stdio_output::string_output_adapter<char>,__crt_stdio_output::positional_parameter_base<char,__crt_stdio_output::string_output_adapter<char> > >::type_case_Z::__l2::ansi_string*)
FUNC 1c8c6 4 0 __crt_stdio_output::positional_parameter_base<wchar_t,__crt_stdio_output::stream_output_adapter<wchar_t> >::get_parameter_type<`__crt_stdio_output::output_processor<wchar_t,__crt_stdio_output::stream_output_adapter<wchar_t>,__crt_stdio_output::positional_parameter_base<wchar_t,__crt_stdio_output::stream_output_adapter<wchar_t> > >::type_case_Z'::`2'::ansi_string>(__crt_stdio_output::output_processor<wchar_t,__crt_stdio_output::stream_output_adapter<wchar_t>,__crt_stdio_output::positional_parameter_base<wchar_t,__crt_stdio_output::stream_output_adapter<wchar_t> > >::type_case_Z::__l2::ansi_string*)
FUNC 1c8ca 4 0 __crt_stdio_output::positional_parameter_base<wchar_t,__crt_stdio_output::string_output_adapter<wchar_t> >::get_parameter_type<`__crt_stdio_output::output_processor<wchar_t,__crt_stdio_output::string_output_adapter<wchar_t>,__crt_stdio_output::positional_parameter_base<wchar_t,__crt_stdio_output::string_output_adapter<wchar_t> > >::type_case_Z'::`2'::ansi_string>(__crt_stdio_output::output_processor<wchar_t,__crt_stdio_output::string_output_adapter<wchar_t>,__crt_stdio_output::positional_parameter_base<wchar_t,__crt_stdio_output::string_output_adapter<wchar_t> > >::type_case_Z::__l2::ansi_string*)
FUNC 1c8ce 4 0 __crt_stdio_output::positional_parameter_base<char,__crt_stdio_output::stream_output_adapter<char> >::get_parameter_type<void>(void*)
FUNC 1c8d2 4 0 __crt_stdio_output::positional_parameter_base<char,__crt_stdio_output::string_output_adapter<char> >::get_parameter_type<void>(void*)
FUNC 1c8d6 4 0 __crt_stdio_output::positional_parameter_base<wchar_t,__crt_stdio_output::stream_output_adapter<wchar_t> >::get_parameter_type<void>(void*)
FUNC 1c8da 4 0 __crt_stdio_output::positional_parameter_base<wchar_t,__crt_stdio_output::string_output_adapter<wchar_t> >::get_parameter_type<void>(void*)
FUNC 1c8de 18 0 __crt_stdio_output::positional_parameter_base<char,__crt_stdio_output::stream_output_adapter<char> >::is_character_specifier<char>(const char)
FUNC 1c8fc 18 0 __crt_stdio_output::positional_parameter_base<char,__crt_stdio_output::string_output_adapter<char> >::is_character_specifier<char>(const char)
FUNC 1c91a 1b 0 __crt_stdio_output::positional_parameter_base<wchar_t,__crt_stdio_output::stream_output_adapter<wchar_t> >::is_character_specifier<wchar_t>(const wchar_t)
FUNC 1c93b 1b 0 __crt_stdio_output::positional_parameter_base<wchar_t,__crt_stdio_output::string_output_adapter<wchar_t> >::is_character_specifier<wchar_t>(const wchar_t)
FUNC 1c95c 2c 0 __crt_stdio_output::positional_parameter_base<char,__crt_stdio_output::stream_output_adapter<char> >::is_integral_specifier<char>(const char)
FUNC 1c993 2c 0 __crt_stdio_output::positional_parameter_base<char,__crt_stdio_output::string_output_adapter<char> >::is_integral_specifier<char>(const char)
FUNC 1c9ca 3b 0 __crt_stdio_output::positional_parameter_base<wchar_t,__crt_stdio_output::stream_output_adapter<wchar_t> >::is_integral_specifier<wchar_t>(const wchar_t)
FUNC 1ca13 3b 0 __crt_stdio_output::positional_parameter_base<wchar_t,__crt_stdio_output::string_output_adapter<wchar_t> >::is_integral_specifier<wchar_t>(const wchar_t)
FUNC 1ca5c e 0 __crt_stdio_output::positional_parameter_base<char,__crt_stdio_output::stream_output_adapter<char> >::is_pointer_specifier<char>(const char)
FUNC 1ca6d e 0 __crt_stdio_output::positional_parameter_base<char,__crt_stdio_output::string_output_adapter<char> >::is_pointer_specifier<char>(const char)
FUNC 1ca7e f 0 __crt_stdio_output::positional_parameter_base<wchar_t,__crt_stdio_output::stream_output_adapter<wchar_t> >::is_pointer_specifier<wchar_t>(const wchar_t)
FUNC 1ca90 f 0 __crt_stdio_output::positional_parameter_base<wchar_t,__crt_stdio_output::string_output_adapter<wchar_t> >::is_pointer_specifier<wchar_t>(const wchar_t)
FUNC 1caa2 18 0 __crt_stdio_output::positional_parameter_base<char,__crt_stdio_output::stream_output_adapter<char> >::is_string_specifier<char>(const char)
FUNC 1cac0 18 0 __crt_stdio_output::positional_parameter_base<char,__crt_stdio_output::string_output_adapter<char> >::is_string_specifier<char>(const char)
FUNC 1cade 1b 0 __crt_stdio_output::positional_parameter_base<wchar_t,__crt_stdio_output::stream_output_adapter<wchar_t> >::is_string_specifier<wchar_t>(const wchar_t)
FUNC 1caff 1b 0 __crt_stdio_output::positional_parameter_base<wchar_t,__crt_stdio_output::string_output_adapter<wchar_t> >::is_string_specifier<wchar_t>(const wchar_t)
FUNC 1cb20 31 0 __crt_stdio_output::is_wide_character_specifier<char>(const unsigned long long, const char, const __crt_stdio_output::length_modifier)
FUNC 1cb5d 4e 0 __crt_stdio_output::is_wide_character_specifier<wchar_t>(const unsigned long long, const wchar_t, const __crt_stdio_output::length_modifier)
FUNC 1cbbe c 0 __crt_stdio_output::peek_va_arg<signed char>(char*)
FUNC 1cbcd c 0 __crt_stdio_output::peek_va_arg<unsigned char>(char*)
FUNC 1cbdc d 0 __crt_stdio_output::peek_va_arg<short>(char*)
FUNC 1cbec d 0 __crt_stdio_output::peek_va_arg<unsigned short>(char*)
FUNC 1cbfc c 0 __crt_stdio_output::peek_va_arg<int>(char*)
FUNC 1cc0b c 0 __crt_stdio_output::peek_va_arg<unsigned int>(char*)
FUNC 1cc1a c 0 __crt_stdio_output::peek_va_arg<char *>(char*)
FUNC 1cc29 c 0 __crt_stdio_output::peek_va_arg<`__crt_stdio_output::output_processor<char,__crt_stdio_output::stream_output_adapter<char>,__crt_stdio_output::positional_parameter_base<char,__crt_stdio_output::stream_output_adapter<char> > >::type_case_Z'::`2'::ansi_string *>(char*)
FUNC 1cc38 c 0 __crt_stdio_output::peek_va_arg<`__crt_stdio_output::output_processor<char,__crt_stdio_output::string_output_adapter<char>,__crt_stdio_output::positional_parameter_base<char,__crt_stdio_output::string_output_adapter<char> > >::type_case_Z'::`2'::ansi_string *>(char*)
FUNC 1cc47 c 0 __crt_stdio_output::peek_va_arg<`__crt_stdio_output::output_processor<wchar_t,__crt_stdio_output::stream_output_adapter<wchar_t>,__crt_stdio_output::positional_parameter_base<wchar_t,__crt_stdio_output::stream_output_adapter<wchar_t> > >::type_case_Z'::`2'::ansi_string *>(char*)
FUNC 1cc56 c 0 __crt_stdio_output::peek_va_arg<`__crt_stdio_output::output_processor<wchar_t,__crt_stdio_output::string_output_adapter<wchar_t>,__crt_stdio_output::positional_parameter_base<wchar_t,__crt_stdio_output::string_output_adapter<wchar_t> > >::type_case_Z'::`2'::ansi_string *>(char*)
FUNC 1cc65 c 0 __crt_stdio_output::peek_va_arg<void *>(char*)
FUNC 1cc74 f 0 __crt_stdio_output::peek_va_arg<_CRT_DOUBLE>(char*)
FUNC 1cc86 f 0 __crt_stdio_output::peek_va_arg<__int64>(char*)
FUNC 1cc98 f 0 __crt_stdio_output::peek_va_arg<unsigned __int64>(char*)
FUNC 1ccaa d 0 __crt_stdio_output::peek_va_arg<wchar_t>(char*)
FUNC 1ccba 1a 0 __crt_char_traits<char>::puttc_nolock<char const &,_iobuf *>(char const&, _iobuf*&&)
FUNC 1ccda 1a 0 __crt_char_traits<wchar_t>::puttc_nolock<wchar_t const &,_iobuf *>(wchar_t const&, _iobuf*&&)
FUNC 1ccfa 12 0 __crt_stdio_output::read_va_arg<signed char>(char*&)
FUNC 1cd10 12 0 __crt_stdio_output::read_va_arg<unsigned char>(char*&)
FUNC 1cd26 13 0 __crt_stdio_output::read_va_arg<short>(char*&)
FUNC 1cd3d 13 0 __crt_stdio_output::read_va_arg<unsigned short>(char*&)
FUNC 1cd54 12 0 __crt_stdio_output::read_va_arg<int>(char*&)
FUNC 1cd6a 12 0 __crt_stdio_output::read_va_arg<unsigned int>(char*&)
FUNC 1cd80 12 0 __crt_stdio_output::read_va_arg<char *>(char*&)
FUNC 1cd96 12 0 __crt_stdio_output::read_va_arg<`__crt_stdio_output::output_processor<char,__crt_stdio_output::stream_output_adapter<char>,__crt_stdio_output::format_validation_base<char,__crt_stdio_output::stream_output_adapter<char> > >::type_case_Z'::`2'::ansi_string *>(char*&)
FUNC 1cdac 12 0 __crt_stdio_output::read_va_arg<`__crt_stdio_output::output_processor<char,__crt_stdio_output::stream_output_adapter<char>,__crt_stdio_output::positional_parameter_base<char,__crt_stdio_output::stream_output_adapter<char> > >::type_case_Z'::`2'::ansi_string *>(char*&)
FUNC 1cdc2 12 0 __crt_stdio_output::read_va_arg<`__crt_stdio_output::output_processor<char,__crt_stdio_output::stream_output_adapter<char>,__crt_stdio_output::standard_base<char,__crt_stdio_output::stream_output_adapter<char> > >::type_case_Z'::`2'::ansi_string *>(char*&)
FUNC 1cdd8 12 0 __crt_stdio_output::read_va_arg<`__crt_stdio_output::output_processor<char,__crt_stdio_output::string_output_adapter<char>,__crt_stdio_output::format_validation_base<char,__crt_stdio_output::string_output_adapter<char> > >::type_case_Z'::`2'::ansi_string *>(char*&)
FUNC 1cdee 12 0 __crt_stdio_output::read_va_arg<`__crt_stdio_output::output_processor<char,__crt_stdio_output::string_output_adapter<char>,__crt_stdio_output::positional_parameter_base<char,__crt_stdio_output::string_output_adapter<char> > >::type_case_Z'::`2'::ansi_string *>(char*&)
FUNC 1ce04 12 0 __crt_stdio_output::read_va_arg<`__crt_stdio_output::output_processor<char,__crt_stdio_output::string_output_adapter<char>,__crt_stdio_output::standard_base<char,__crt_stdio_output::string_output_adapter<char> > >::type_case_Z'::`2'::ansi_string *>(char*&)
FUNC 1ce1a 12 0 __crt_stdio_output::read_va_arg<`__crt_stdio_output::output_processor<wchar_t,__crt_stdio_output::stream_output_adapter<wchar_t>,__crt_stdio_output::format_validation_base<wchar_t,__crt_stdio_output::stream_output_adapter<wchar_t> > >::type_case_Z'::`2'::ansi_string *>(char*&)
FUNC 1ce30 12 0 __crt_stdio_output::read_va_arg<`__crt_stdio_output::output_processor<wchar_t,__crt_stdio_output::stream_output_adapter<wchar_t>,__crt_stdio_output::positional_parameter_base<wchar_t,__crt_stdio_output::stream_output_adapter<wchar_t> > >::type_case_Z'::`2'::ansi_string *>(char*&)
FUNC 1ce46 12 0 __crt_stdio_output::read_va_arg<`__crt_stdio_output::output_processor<wchar_t,__crt_stdio_output::stream_output_adapter<wchar_t>,__crt_stdio_output::standard_base<wchar_t,__crt_stdio_output::stream_output_adapter<wchar_t> > >::type_case_Z'::`2'::ansi_string *>(char*&)
FUNC 1ce5c 12 0 __crt_stdio_output::read_va_arg<`__crt_stdio_output::output_processor<wchar_t,__crt_stdio_output::string_output_adapter<wchar_t>,__crt_stdio_output::format_validation_base<wchar_t,__crt_stdio_output::string_output_adapter<wchar_t> > >::type_case_Z'::`2'::ansi_string *>(char*&)
FUNC 1ce72 12 0 __crt_stdio_output::read_va_arg<`__crt_stdio_output::output_processor<wchar_t,__crt_stdio_output::string_output_adapter<wchar_t>,__crt_stdio_output::positional_parameter_base<wchar_t,__crt_stdio_output::string_output_adapter<wchar_t> > >::type_case_Z'::`2'::ansi_string *>(char*&)
FUNC 1ce88 12 0 __crt_stdio_output::read_va_arg<`__crt_stdio_output::output_processor<wchar_t,__crt_stdio_output::string_output_adapter<wchar_t>,__crt_stdio_output::standard_base<wchar_t,__crt_stdio_output::string_output_adapter<wchar_t> > >::type_case_Z'::`2'::ansi_string *>(char*&)
FUNC 1ce9e 12 0 __crt_stdio_output::read_va_arg<void *>(char*&)
FUNC 1ceb4 16 0 __crt_stdio_output::read_va_arg<_CRT_DOUBLE>(char*&)
FUNC 1cecf 15 0 __crt_stdio_output::read_va_arg<__int64>(char*&)
FUNC 1cee9 15 0 __crt_stdio_output::read_va_arg<unsigned __int64>(char*&)
FUNC 1cf03 13 0 __crt_stdio_output::read_va_arg<wchar_t>(char*&)
FUNC 1cf1a 5 0 __crt_stdio_output::formatting_buffer::scratch_count<char>() const
FUNC 1cf1f 1e 0 __crt_stdio_output::formatting_buffer::scratch_data<char>()
FUNC 1cf44 1e 0 __crt_char_traits<char>::tcstol<char const * &,char * *,int>(char const*&, char**&&, int&&)
FUNC 1cf69 1e 0 __crt_char_traits<wchar_t>::tcstol<wchar_t const * &,wchar_t * *,int>(wchar_t const*&, wchar_t**&&, int&&)
FUNC 1cf8e 1e 0 __crt_char_traits<char>::tcstol<char const *,char * *,int>(char const*&&, char**&&, int&&)
FUNC 1cfb3 1e 0 __crt_char_traits<wchar_t>::tcstol<wchar_t const *,wchar_t * *,int>(wchar_t const*&&, wchar_t**&&, int&&)
FUNC 1cfd8 73 0 __crt_stdio_output::output_processor<char,__crt_stdio_output::stream_output_adapter<char>,__crt_stdio_output::format_validation_base<char,__crt_stdio_output::stream_output_adapter<char> > >::type_case_integer_parse_into_buffer<unsigned int>(unsigned int, const unsigned int, const bool)
FUNC 1d067 73 0 __crt_stdio_output::output_processor<char,__crt_stdio_output::stream_output_adapter<char>,__crt_stdio_output::positional_parameter_base<char,__crt_stdio_output::stream_output_adapter<char> > >::type_case_integer_parse_into_buffer<unsigned int>(unsigned int, const unsigned int, const bool)
FUNC 1d0f6 73 0 __crt_stdio_output::output_processor<char,__crt_stdio_output::stream_output_adapter<char>,__crt_stdio_output::standard_base<char,__crt_stdio_output::stream_output_adapter<char> > >::type_case_integer_parse_into_buffer<unsigned int>(unsigned int, const unsigned int, const bool)
FUNC 1d185 73 0 __crt_stdio_output::output_processor<char,__crt_stdio_output::string_output_adapter<char>,__crt_stdio_output::format_validation_base<char,__crt_stdio_output::string_output_adapter<char> > >::type_case_integer_parse_into_buffer<unsigned int>(unsigned int, const unsigned int, const bool)
FUNC 1d214 73 0 __crt_stdio_output::output_processor<char,__crt_stdio_output::string_output_adapter<char>,__crt_stdio_output::positional_parameter_base<char,__crt_stdio_output::string_output_adapter<char> > >::type_case_integer_parse_into_buffer<unsigned int>(unsigned int, const unsigned int, const bool)
FUNC 1d2a3 73 0 __crt_stdio_output::output_processor<char,__crt_stdio_output::string_output_adapter<char>,__crt_stdio_output::standard_base<char,__crt_stdio_output::string_output_adapter<char> > >::type_case_integer_parse_into_buffer<unsigned int>(unsigned int, const unsigned int, const bool)
FUNC 1d332 87 0 __crt_stdio_output::output_processor<wchar_t,__crt_stdio_output::stream_output_adapter<wchar_t>,__crt_stdio_output::format_validation_base<wchar_t,__crt_stdio_output::stream_output_adapter<wchar_t> > >::type_case_integer_parse_into_buffer<unsigned int>(unsigned int, const unsigned int, const bool)
FUNC 1d3da 87 0 __crt_stdio_output::output_processor<wchar_t,__crt_stdio_output::stream_output_adapter<wchar_t>,__crt_stdio_output::positional_parameter_base<wchar_t,__crt_stdio_output::stream_output_adapter<wchar_t> > >::type_case_integer_parse_into_buffer<unsigned int>(unsigned int, const unsigned int, const bool)
FUNC 1d482 87 0 __crt_stdio_output::output_processor<wchar_t,__crt_stdio_output::stream_output_adapter<wchar_t>,__crt_stdio_output::standard_base<wchar_t,__crt_stdio_output::stream_output_adapter<wchar_t> > >::type_case_integer_parse_into_buffer<unsigned int>(unsigned int, const unsigned int, const bool)
FUNC 1d52a 87 0 __crt_stdio_output::output_processor<wchar_t,__crt_stdio_output::string_output_adapter<wchar_t>,__crt_stdio_output::format_validation_base<wchar_t,__crt_stdio_output::string_output_adapter<wchar_t> > >::type_case_integer_parse_into_buffer<unsigned int>(unsigned int, const unsigned int, const bool)
FUNC 1d5d2 87 0 __crt_stdio_output::output_processor<wchar_t,__crt_stdio_output::string_output_adapter<wchar_t>,__crt_stdio_output::positional_parameter_base<wchar_t,__crt_stdio_output::string_output_adapter<wchar_t> > >::type_case_integer_parse_into_buffer<unsigned int>(unsigned int, const unsigned int, const bool)
FUNC 1d67a 87 0 __crt_stdio_output::output_processor<wchar_t,__crt_stdio_output::string_output_adapter<wchar_t>,__crt_stdio_output::standard_base<wchar_t,__crt_stdio_output::string_output_adapter<wchar_t> > >::type_case_integer_parse_into_buffer<unsigned int>(unsigned int, const unsigned int, const bool)
FUNC 1d722 8e 0 __crt_stdio_output::output_processor<char,__crt_stdio_output::stream_output_adapter<char>,__crt_stdio_output::format_validation_base<char,__crt_stdio_output::stream_output_adapter<char> > >::type_case_integer_parse_into_buffer<unsigned __int64>(unsigned long long, const unsigned int, const bool)
FUNC 1d7d3 8e 0 __crt_stdio_output::output_processor<char,__crt_stdio_output::stream_output_adapter<char>,__crt_stdio_output::positional_parameter_base<char,__crt_stdio_output::stream_output_adapter<char> > >::type_case_integer_parse_into_buffer<unsigned __int64>(unsigned long long, const unsigned int, const bool)
FUNC 1d884 8e 0 __crt_stdio_output::output_processor<char,__crt_stdio_output::stream_output_adapter<char>,__crt_stdio_output::standard_base<char,__crt_stdio_output::stream_output_adapter<char> > >::type_case_integer_parse_into_buffer<unsigned __int64>(unsigned long long, const unsigned int, const bool)
FUNC 1d935 8e 0 __crt_stdio_output::output_processor<char,__crt_stdio_output::string_output_adapter<char>,__crt_stdio_output::format_validation_base<char,__crt_stdio_output::string_output_adapter<char> > >::type_case_integer_parse_into_buffer<unsigned __int64>(unsigned long long, const unsigned int, const bool)
FUNC 1d9e6 8e 0 __crt_stdio_output::output_processor<char,__crt_stdio_output::string_output_adapter<char>,__crt_stdio_output::positional_parameter_base<char,__crt_stdio_output::string_output_adapter<char> > >::type_case_integer_parse_into_buffer<unsigned __int64>(unsigned long long, const unsigned int, const bool)
FUNC 1da97 8e 0 __crt_stdio_output::output_processor<char,__crt_stdio_output::string_output_adapter<char>,__crt_stdio_output::standard_base<char,__crt_stdio_output::string_output_adapter<char> > >::type_case_integer_parse_into_buffer<unsigned __int64>(unsigned long long, const unsigned int, const bool)
FUNC 1db48 a2 0 __crt_stdio_output::output_processor<wchar_t,__crt_stdio_output::stream_output_adapter<wchar_t>,__crt_stdio_output::format_validation_base<wchar_t,__crt_stdio_output::stream_output_adapter<wchar_t> > >::type_case_integer_parse_into_buffer<unsigned __int64>(unsigned long long, const unsigned int, const bool)
FUNC 1dc12 a2 0 __crt_stdio_output::output_processor<wchar_t,__crt_stdio_output::stream_output_adapter<wchar_t>,__crt_stdio_output::positional_parameter_base<wchar_t,__crt_stdio_output::stream_output_adapter<wchar_t> > >::type_case_integer_parse_into_buffer<unsigned __int64>(unsigned long long, const unsigned int, const bool)
FUNC 1dcdc a2 0 __crt_stdio_output::output_processor<wchar_t,__crt_stdio_output::stream_output_adapter<wchar_t>,__crt_stdio_output::standard_base<wchar_t,__crt_stdio_output::stream_output_adapter<wchar_t> > >::type_case_integer_parse_into_buffer<unsigned __int64>(unsigned long long, const unsigned int, const bool)
FUNC 1dda6 a2 0 __crt_stdio_output::output_processor<wchar_t,__crt_stdio_output::string_output_adapter<wchar_t>,__crt_stdio_output::format_validation_base<wchar_t,__crt_stdio_output::string_output_adapter<wchar_t> > >::type_case_integer_parse_into_buffer<unsigned __int64>(unsigned long long, const unsigned int, const bool)
FUNC 1de70 a2 0 __crt_stdio_output::output_processor<wchar_t,__crt_stdio_output::string_output_adapter<wchar_t>,__crt_stdio_output::positional_parameter_base<wchar_t,__crt_stdio_output::string_output_adapter<wchar_t> > >::type_case_integer_parse_into_buffer<unsigned __int64>(unsigned long long, const unsigned int, const bool)
FUNC 1df3a a2 0 __crt_stdio_output::output_processor<wchar_t,__crt_stdio_output::string_output_adapter<wchar_t>,__crt_stdio_output::standard_base<wchar_t,__crt_stdio_output::string_output_adapter<wchar_t> > >::type_case_integer_parse_into_buffer<unsigned __int64>(unsigned long long, const unsigned int, const bool)
FUNC 1e004 3b 0 __crt_stdio_output::write_multiple_characters<__crt_stdio_output::stream_output_adapter<char>,char>(__crt_stdio_output::stream_output_adapter<char> const&, const char, const int, int* const)
FUNC 1e04d 40 0 __crt_stdio_output::write_multiple_characters<__crt_stdio_output::stream_output_adapter<wchar_t>,char>(__crt_stdio_output::stream_output_adapter<wchar_t> const&, const char, const int, int* const)
FUNC 1e09d 2c 0 __crt_stdio_output::write_multiple_characters<__crt_stdio_output::string_output_adapter<char>,char>(__crt_stdio_output::string_output_adapter<char> const&, const char, const int, int* const)
FUNC 1e0d4 31 0 __crt_stdio_output::write_multiple_characters<__crt_stdio_output::string_output_adapter<wchar_t>,char>(__crt_stdio_output::string_output_adapter<wchar_t> const&, const char, const int, int* const)
FUNC 1e111 28 0 <lambda_0be4ab1c2a6918fda4e39227d83ea893>::<lambda_0be4ab1c2a6918fda4e39227d83ea893>(_iobuf* const&, __crt_locale_pointers* const&, unsigned long long const&, char const* const&, char* const&)
FUNC 1e143 12 0 <lambda_18d67e1eeb4dde13899af949c649d933>::<lambda_18d67e1eeb4dde13899af949c649d933>(_iobuf* const&)
FUNC 1e159 12 0 <lambda_1c412e3457517a614fb7d0c137686c95>::<lambda_1c412e3457517a614fb7d0c137686c95>(_iobuf* const&)
FUNC 1e16f 12 0 <lambda_3cfd252a7c5e244e8f20fc56fe35ebe9>::<lambda_3cfd252a7c5e244e8f20fc56fe35ebe9>(_iobuf* const&)
FUNC 1e185 12 0 <lambda_5a3ed3da325c8ea037a470278c0f2d16>::<lambda_5a3ed3da325c8ea037a470278c0f2d16>(_iobuf* const&)
FUNC 1e19b 12 0 <lambda_5d912c5eb12d68f7685796d855ab8da6>::<lambda_5d912c5eb12d68f7685796d855ab8da6>(_iobuf* const&)
FUNC 1e1b1 28 0 <lambda_81587a929b95143618da2bd798ca9df2>::<lambda_81587a929b95143618da2bd798ca9df2>(_iobuf* const&, __crt_locale_pointers* const&, unsigned long long const&, char const* const&, char* const&)
FUNC 1e1e3 12 0 <lambda_8f55a0afecd2292d47fde3ce68e72492>::<lambda_8f55a0afecd2292d47fde3ce68e72492>(_iobuf* const&)
FUNC 1e1f9 12 0 <lambda_9b2bd5c6bb91c5c032542faa5c3cb611>::<lambda_9b2bd5c6bb91c5c032542faa5c3cb611>(_iobuf* const&)
FUNC 1e20f 28 0 <lambda_9dc9bc4853282e051506c0cc602abcf3>::<lambda_9dc9bc4853282e051506c0cc602abcf3>(_iobuf* const&, __crt_locale_pointers* const&, unsigned long long const&, char const* const&, char* const&)
FUNC 1e241 28 0 <lambda_b09925f738b1434f525bf50d3162636f>::<lambda_b09925f738b1434f525bf50d3162636f>(_iobuf* const&, __crt_locale_pointers* const&, unsigned long long const&, wchar_t const* const&, char* const&)
FUNC 1e273 12 0 <lambda_ba8264b40644a42074cedf043e7aa388>::<lambda_ba8264b40644a42074cedf043e7aa388>(_iobuf* const&)
FUNC 1e289 28 0 <lambda_be68057ced330f874c40fe9612235e36>::<lambda_be68057ced330f874c40fe9612235e36>(_iobuf* const&, __crt_locale_pointers* const&, unsigned long long const&, wchar_t const* const&, char* const&)
FUNC 1e2bb 12 0 <lambda_bfd63e08e93a545639db6d324cf10d1a>::<lambda_bfd63e08e93a545639db6d324cf10d1a>(_iobuf* const&)
FUNC 1e2d1 12 0 <lambda_c29ee0499b841886b80d843682cc403a>::<lambda_c29ee0499b841886b80d843682cc403a>(_iobuf* const&)
FUNC 1e2e7 12 0 <lambda_cae121c7667f229345c68b3f32b19755>::<lambda_cae121c7667f229345c68b3f32b19755>(_iobuf* const&)
FUNC 1e2fd 28 0 <lambda_d7427dbf72509eba5fa970998bac2a27>::<lambda_d7427dbf72509eba5fa970998bac2a27>(_iobuf* const&, __crt_locale_pointers* const&, unsigned long long const&, wchar_t const* const&, char* const&)
FUNC 1e32f 12 0 <lambda_dbd837d1c0b7fc6e2d81c287c81c071b>::<lambda_dbd837d1c0b7fc6e2d81c287c81c071b>(_iobuf* const&)
FUNC 1e345 45 0 __crt_stdio_output::common_data<char>::common_data<char>()
FUNC 1e39b 4a 0 __crt_stdio_output::common_data<wchar_t>::common_data<wchar_t>()
FUNC 1e3f7 3c 0 __crt_stdio_output::output_adapter_data<char,__crt_stdio_output::stream_output_adapter<char> >::output_adapter_data<char,__crt_stdio_output::stream_output_adapter<char> >(__crt_stdio_output::stream_output_adapter<char> const&, const unsigned long long, char const* const, __crt_locale_pointers* const, char* const)
FUNC 1e442 3c 0 __crt_stdio_output::output_adapter_data<char,__crt_stdio_output::string_output_adapter<char> >::output_adapter_data<char,__crt_stdio_output::string_output_adapter<char> >(__crt_stdio_output::string_output_adapter<char> const&, const unsigned long long, char const* const, __crt_locale_pointers* const, char* const)
FUNC 1e48d 3c 0 __crt_stdio_output::output_adapter_data<wchar_t,__crt_stdio_output::stream_output_adapter<wchar_t> >::output_adapter_data<wchar_t,__crt_stdio_output::stream_output_adapter<wchar_t> >(__crt_stdio_output::stream_output_adapter<wchar_t> const&, const unsigned long long, wchar_t const* const, __crt_locale_pointers* const, char* const)
FUNC 1e4d8 3c 0 __crt_stdio_output::output_adapter_data<wchar_t,__crt_stdio_output::string_output_adapter<wchar_t> >::output_adapter_data<wchar_t,__crt_stdio_output::string_output_adapter<wchar_t> >(__crt_stdio_output::string_output_adapter<wchar_t> const&, const unsigned long long, wchar_t const* const, __crt_locale_pointers* const, char* const)
FUNC 1e523 2d 0 __crt_stdio_output::output_processor<char,__crt_stdio_output::stream_output_adapter<char>,__crt_stdio_output::format_validation_base<char,__crt_stdio_output::stream_output_adapter<char> > >::output_processor<char,__crt_stdio_output::stream_output_adapter<char>,__crt_stdio_output::format_validation_base<char,__crt_stdio_output::stream_output_adapter<char> > >(__crt_stdio_output::stream_output_adapter<char> const&, const unsigned long long, char const* const, __crt_locale_pointers* const, char* const)
FUNC 1e55b 27 0 __crt_stdio_output::output_processor<char,__crt_stdio_output::stream_output_adapter<char>,__crt_stdio_output::positional_parameter_base<char,__crt_stdio_output::stream_output_adapter<char> > >::output_processor<char,__crt_stdio_output::stream_output_adapter<char>,__crt_stdio_output::positional_parameter_base<char,__crt_stdio_output::stream_output_adapter<char> > >(__crt_stdio_output::stream_output_adapter<char> const&, const unsigned long long, char const* const, __crt_locale_pointers* const, char* const)
FUNC 1e58b 2d 0 __crt_stdio_output::output_processor<char,__crt_stdio_output::stream_output_adapter<char>,__crt_stdio_output::standard_base<char,__crt_stdio_output::stream_output_adapter<char> > >::output_processor<char,__crt_stdio_output::stream_output_adapter<char>,__crt_stdio_output::standard_base<char,__crt_stdio_output::stream_output_adapter<char> > >(__crt_stdio_output::stream_output_adapter<char> const&, const unsigned long long, char const* const, __crt_locale_pointers* const, char* const)
FUNC 1e5c3 2d 0 __crt_stdio_output::output_processor<char,__crt_stdio_output::string_output_adapter<char>,__crt_stdio_output::format_validation_base<char,__crt_stdio_output::string_output_adapter<char> > >::output_processor<char,__crt_stdio_output::string_output_adapter<char>,__crt_stdio_output::format_validation_base<char,__crt_stdio_output::string_output_adapter<char> > >(__crt_stdio_output::string_output_adapter<char> const&, const unsigned long long, char const* const, __crt_locale_pointers* const, char* const)
FUNC 1e5fb 27 0 __crt_stdio_output::output_processor<char,__crt_stdio_output::string_output_adapter<char>,__crt_stdio_output::positional_parameter_base<char,__crt_stdio_output::string_output_adapter<char> > >::output_processor<char,__crt_stdio_output::string_output_adapter<char>,__crt_stdio_output::positional_parameter_base<char,__crt_stdio_output::string_output_adapter<char> > >(__crt_stdio_output::string_output_adapter<char> const&, const unsigned long long, char const* const, __crt_locale_pointers* const, char* const)
FUNC 1e62b 2d 0 __crt_stdio_output::output_processor<char,__crt_stdio_output::string_output_adapter<char>,__crt_stdio_output::standard_base<char,__crt_stdio_output::string_output_adapter<char> > >::output_processor<char,__crt_stdio_output::string_output_adapter<char>,__crt_stdio_output::standard_base<char,__crt_stdio_output::string_output_adapter<char> > >(__crt_stdio_output::string_output_adapter<char> const&, const unsigned long long, char const* const, __crt_locale_pointers* const, char* const)
FUNC 1e663 2d 0 __crt_stdio_output::output_processor<wchar_t,__crt_stdio_output::stream_output_adapter<wchar_t>,__crt_stdio_output::format_validation_base<wchar_t,__crt_stdio_output::stream_output_adapter<wchar_t> > >::output_processor<wchar_t,__crt_stdio_output::stream_output_adapter<wchar_t>,__crt_stdio_output::format_validation_base<wchar_t,__crt_stdio_output::stream_output_adapter<wchar_t> > >(__crt_stdio_output::stream_output_adapter<wchar_t> const&, const unsigned long long, wchar_t const* const, __crt_locale_pointers* const, char* const)
FUNC 1e69b 27 0 __crt_stdio_output::output_processor<wchar_t,__crt_stdio_output::stream_output_adapter<wchar_t>,__crt_stdio_output::positional_parameter_base<wchar_t,__crt_stdio_output::stream_output_adapter<wchar_t> > >::output_processor<wchar_t,__crt_stdio_output::stream_output_adapter<wchar_t>,__crt_stdio_output::positional_parameter_base<wchar_t,__crt_stdio_output::stream_output_adapter<wchar_t> > >(__crt_stdio_output::stream_output_adapter<wchar_t> const&, const unsigned long long, wchar_t const* const, __crt_locale_pointers* const, char* const)
FUNC 1e6cb 2d 0 __crt_stdio_output::output_processor<wchar_t,__crt_stdio_output::stream_output_adapter<wchar_t>,__crt_stdio_output::standard_base<wchar_t,__crt_stdio_output::stream_output_adapter<wchar_t> > >::output_processor<wchar_t,__crt_stdio_output::stream_output_adapter<wchar_t>,__crt_stdio_output::standard_base<wchar_t,__crt_stdio_output::stream_output_adapter<wchar_t> > >(__crt_stdio_output::stream_output_adapter<wchar_t> const&, const unsigned long long, wchar_t const* const, __crt_locale_pointers* const, char* const)
FUNC 1e703 2d 0 __crt_stdio_output::output_processor<wchar_t,__crt_stdio_output::string_output_adapter<wchar_t>,__crt_stdio_output::format_validation_base<wchar_t,__crt_stdio_output::string_output_adapter<wchar_t> > >::output_processor<wchar_t,__crt_stdio_output::string_output_adapter<wchar_t>,__crt_stdio_output::format_validation_base<wchar_t,__crt_stdio_output::string_output_adapter<wchar_t> > >(__crt_stdio_output::string_output_adapter<wchar_t> const&, const unsigned long long, wchar_t const* const, __crt_locale_pointers* const, char* const)
FUNC 1e73b 27 0 __crt_stdio_output::output_processor<wchar_t,__crt_stdio_output::string_output_adapter<wchar_t>,__crt_stdio_output::positional_parameter_base<wchar_t,__crt_stdio_output::string_output_adapter<wchar_t> > >::output_processor<wchar_t,__crt_stdio_output::string_output_adapter<wchar_t>,__crt_stdio_output::positional_parameter_base<wchar_t,__crt_stdio_output::string_output_adapter<wchar_t> > >(__crt_stdio_output::string_output_adapter<wchar_t> const&, const unsigned long long, wchar_t const* const, __crt_locale_pointers* const, char* const)
FUNC 1e76b 2d 0 __crt_stdio_output::output_processor<wchar_t,__crt_stdio_output::string_output_adapter<wchar_t>,__crt_stdio_output::standard_base<wchar_t,__crt_stdio_output::string_output_adapter<wchar_t> > >::output_processor<wchar_t,__crt_stdio_output::string_output_adapter<wchar_t>,__crt_stdio_output::standard_base<wchar_t,__crt_stdio_output::string_output_adapter<wchar_t> > >(__crt_stdio_output::string_output_adapter<wchar_t> const&, const unsigned long long, wchar_t const* const, __crt_locale_pointers* const, char* const)
FUNC 1e7a3 10 0 __crt_stdio_output::stream_output_adapter<char>::stream_output_adapter<char>(_iobuf* const)
FUNC 1e7b7 10 0 __crt_stdio_output::stream_output_adapter<wchar_t>::stream_output_adapter<wchar_t>(_iobuf* const)
FUNC 1e7cb 10 0 __crt_stdio_output::string_output_adapter<char>::string_output_adapter<char>(__crt_stdio_output::string_output_adapter_context<char>* const)
FUNC 1e7df 10 0 __crt_stdio_output::string_output_adapter<wchar_t>::string_output_adapter<wchar_t>(__crt_stdio_output::string_output_adapter_context<wchar_t>* const)
FUNC 1e7f3 83 0 _LocaleUpdate::_LocaleUpdate(__crt_locale_pointers* const)
FUNC 1e896 1e 0 __acrt_stdio_temporary_buffering_guard::__acrt_stdio_temporary_buffering_guard(_iobuf* const)
FUNC 1e8bb 6 0 __crt_deferred_errno_cache::__crt_deferred_errno_cache()
FUNC 1e8c1 18 0 __crt_errno_guard::__crt_errno_guard(int* const)
FUNC 1e8df 10 0 __crt_stdio_stream::__crt_stdio_stream(_iobuf* const)
FUNC 1e8f3 11 0 __crt_stdio_output::formatting_buffer::formatting_buffer()
FUNC 1e908 8 0 __crt_stdio_output::common_data<char>::~common_data<char>()
FUNC 1e912 8 0 __crt_stdio_output::common_data<wchar_t>::~common_data<wchar_t>()
FUNC 1e91c 8 0 __crt_stdio_output::format_validation_base<char,__crt_stdio_output::stream_output_adapter<char> >::~format_validation_base<char,__crt_stdio_output::stream_output_adapter<char> >()
FUNC 1e926 8 0 __crt_stdio_output::format_validation_base<char,__crt_stdio_output::string_output_adapter<char> >::~format_validation_base<char,__crt_stdio_output::string_output_adapter<char> >()
FUNC 1e930 8 0 __crt_stdio_output::format_validation_base<wchar_t,__crt_stdio_output::stream_output_adapter<wchar_t> >::~format_validation_base<wchar_t,__crt_stdio_output::stream_output_adapter<wchar_t> >()
FUNC 1e93a 8 0 __crt_stdio_output::format_validation_base<wchar_t,__crt_stdio_output::string_output_adapter<wchar_t> >::~format_validation_base<wchar_t,__crt_stdio_output::string_output_adapter<wchar_t> >()
FUNC 1e944 8 0 __crt_stdio_output::output_adapter_data<char,__crt_stdio_output::stream_output_adapter<char> >::~output_adapter_data<char,__crt_stdio_output::stream_output_adapter<char> >()
FUNC 1e94e 8 0 __crt_stdio_output::output_adapter_data<char,__crt_stdio_output::string_output_adapter<char> >::~output_adapter_data<char,__crt_stdio_output::string_output_adapter<char> >()
FUNC 1e958 8 0 __crt_stdio_output::output_adapter_data<wchar_t,__crt_stdio_output::stream_output_adapter<wchar_t> >::~output_adapter_data<wchar_t,__crt_stdio_output::stream_output_adapter<wchar_t> >()
FUNC 1e962 8 0 __crt_stdio_output::output_adapter_data<wchar_t,__crt_stdio_output::string_output_adapter<wchar_t> >::~output_adapter_data<wchar_t,__crt_stdio_output::string_output_adapter<wchar_t> >()
FUNC 1e96c 8 0 __crt_stdio_output::output_processor<char,__crt_stdio_output::stream_output_adapter<char>,__crt_stdio_output::format_validation_base<char,__crt_stdio_output::stream_output_adapter<char> > >::~output_processor<char,__crt_stdio_output::stream_output_adapter<char>,__crt_stdio_output::format_validation_base<char,__crt_stdio_output::stream_output_adapter<char> > >()
FUNC 1e976 8 0 __crt_stdio_output::output_processor<char,__crt_stdio_output::stream_output_adapter<char>,__crt_stdio_output::positional_parameter_base<char,__crt_stdio_output::stream_output_adapter<char> > >::~output_processor<char,__crt_stdio_output::stream_output_adapter<char>,__crt_stdio_output::positional_parameter_base<char,__crt_stdio_output::stream_output_adapter<char> > >()
FUNC 1e980 8 0 __crt_stdio_output::output_processor<char,__crt_stdio_output::stream_output_adapter<char>,__crt_stdio_output::standard_base<char,__crt_stdio_output::stream_output_adapter<char> > >::~output_processor<char,__crt_stdio_output::stream_output_adapter<char>,__crt_stdio_output::standard_base<char,__crt_stdio_output::stream_output_adapter<char> > >()
FUNC 1e98a 8 0 __crt_stdio_output::output_processor<char,__crt_stdio_output::string_output_adapter<char>,__crt_stdio_output::format_validation_base<char,__crt_stdio_output::string_output_adapter<char> > >::~output_processor<char,__crt_stdio_output::string_output_adapter<char>,__crt_stdio_output::format_validation_base<char,__crt_stdio_output::string_output_adapter<char> > >()
FUNC 1e994 8 0 __crt_stdio_output::output_processor<char,__crt_stdio_output::string_output_adapter<char>,__crt_stdio_output::positional_parameter_base<char,__crt_stdio_output::string_output_adapter<char> > >::~output_processor<char,__crt_stdio_output::string_output_adapter<char>,__crt_stdio_output::positional_parameter_base<char,__crt_stdio_output::string_output_adapter<char> > >()
FUNC 1e99e 8 0 __crt_stdio_output::output_processor<char,__crt_stdio_output::string_output_adapter<char>,__crt_stdio_output::standard_base<char,__crt_stdio_output::string_output_adapter<char> > >::~output_processor<char,__crt_stdio_output::string_output_adapter<char>,__crt_stdio_output::standard_base<char,__crt_stdio_output::string_output_adapter<char> > >()
FUNC 1e9a8 8 0 __crt_stdio_output::output_processor<wchar_t,__crt_stdio_output::stream_output_adapter<wchar_t>,__crt_stdio_output::format_validation_base<wchar_t,__crt_stdio_output::stream_output_adapter<wchar_t> > >::~output_processor<wchar_t,__crt_stdio_output::stream_output_adapter<wchar_t>,__crt_stdio_output::format_validation_base<wchar_t,__crt_stdio_output::stream_output_adapter<wchar_t> > >()
FUNC 1e9b2 8 0 __crt_stdio_output::output_processor<wchar_t,__crt_stdio_output::stream_output_adapter<wchar_t>,__crt_stdio_output::positional_parameter_base<wchar_t,__crt_stdio_output::stream_output_adapter<wchar_t> > >::~output_processor<wchar_t,__crt_stdio_output::stream_output_adapter<wchar_t>,__crt_stdio_output::positional_parameter_base<wchar_t,__crt_stdio_output::stream_output_adapter<wchar_t> > >()
FUNC 1e9bc 8 0 __crt_stdio_output::output_processor<wchar_t,__crt_stdio_output::stream_output_adapter<wchar_t>,__crt_stdio_output::standard_base<wchar_t,__crt_stdio_output::stream_output_adapter<wchar_t> > >::~output_processor<wchar_t,__crt_stdio_output::stream_output_adapter<wchar_t>,__crt_stdio_output::standard_base<wchar_t,__crt_stdio_output::stream_output_adapter<wchar_t> > >()
FUNC 1e9c6 8 0 __crt_stdio_output::output_processor<wchar_t,__crt_stdio_output::string_output_adapter<wchar_t>,__crt_stdio_output::format_validation_base<wchar_t,__crt_stdio_output::string_output_adapter<wchar_t> > >::~output_processor<wchar_t,__crt_stdio_output::string_output_adapter<wchar_t>,__crt_stdio_output::format_validation_base<wchar_t,__crt_stdio_output::string_output_adapter<wchar_t> > >()
FUNC 1e9d0 8 0 __crt_stdio_output::output_processor<wchar_t,__crt_stdio_output::string_output_adapter<wchar_t>,__crt_stdio_output::positional_parameter_base<wchar_t,__crt_stdio_output::string_output_adapter<wchar_t> > >::~output_processor<wchar_t,__crt_stdio_output::string_output_adapter<wchar_t>,__crt_stdio_output::positional_parameter_base<wchar_t,__crt_stdio_output::string_output_adapter<wchar_t> > >()
FUNC 1e9da 8 0 __crt_stdio_output::output_processor<wchar_t,__crt_stdio_output::string_output_adapter<wchar_t>,__crt_stdio_output::standard_base<wchar_t,__crt_stdio_output::string_output_adapter<wchar_t> > >::~output_processor<wchar_t,__crt_stdio_output::string_output_adapter<wchar_t>,__crt_stdio_output::standard_base<wchar_t,__crt_stdio_output::string_output_adapter<wchar_t> > >()
FUNC 1e9e4 8 0 __crt_stdio_output::positional_parameter_base<char,__crt_stdio_output::stream_output_adapter<char> >::~positional_parameter_base<char,__crt_stdio_output::stream_output_adapter<char> >()
FUNC 1e9ee 8 0 __crt_stdio_output::positional_parameter_base<char,__crt_stdio_output::string_output_adapter<char> >::~positional_parameter_base<char,__crt_stdio_output::string_output_adapter<char> >()
FUNC 1e9f8 8 0 __crt_stdio_output::positional_parameter_base<wchar_t,__crt_stdio_output::stream_output_adapter<wchar_t> >::~positional_parameter_base<wchar_t,__crt_stdio_output::stream_output_adapter<wchar_t> >()
FUNC 1ea02 8 0 __crt_stdio_output::positional_parameter_base<wchar_t,__crt_stdio_output::string_output_adapter<wchar_t> >::~positional_parameter_base<wchar_t,__crt_stdio_output::string_output_adapter<wchar_t> >()
FUNC 1ea0c 8 0 __crt_stdio_output::standard_base<char,__crt_stdio_output::stream_output_adapter<char> >::~standard_base<char,__crt_stdio_output::stream_output_adapter<char> >()
FUNC 1ea16 8 0 __crt_stdio_output::standard_base<char,__crt_stdio_output::string_output_adapter<char> >::~standard_base<char,__crt_stdio_output::string_output_adapter<char> >()
FUNC 1ea20 8 0 __crt_stdio_output::standard_base<wchar_t,__crt_stdio_output::stream_output_adapter<wchar_t> >::~standard_base<wchar_t,__crt_stdio_output::stream_output_adapter<wchar_t> >()
FUNC 1ea2a 8 0 __crt_stdio_output::standard_base<wchar_t,__crt_stdio_output::string_output_adapter<wchar_t> >::~standard_base<wchar_t,__crt_stdio_output::string_output_adapter<wchar_t> >()
FUNC 1ea34 10 0 _LocaleUpdate::~_LocaleUpdate()
FUNC 1ea48 f 0 __acrt_stdio_temporary_buffering_guard::~__acrt_stdio_temporary_buffering_guard()
FUNC 1ea5a 11 0 __crt_errno_guard::~__crt_errno_guard()
FUNC 1ea6f 1a 0 __crt_stdio_output::formatting_buffer::~formatting_buffer()
FUNC 1ea8f 24 0 __crt_unique_heap_ptr<char,__crt_internal_free_policy>::operator=(__crt_unique_heap_ptr<char,__crt_internal_free_policy>&&)
FUNC 1eabc 3 0 __crt_stdio_stream::operator->() const
FUNC 1eabf bf 0 <lambda_0be4ab1c2a6918fda4e39227d83ea893>::operator()() const
FUNC 1ebad 9 0 <lambda_18d67e1eeb4dde13899af949c649d933>::operator()() const
FUNC 1ebb8 9 0 <lambda_1c412e3457517a614fb7d0c137686c95>::operator()() const
FUNC 1ebc3 9 0 <lambda_3cfd252a7c5e244e8f20fc56fe35ebe9>::operator()() const
FUNC 1ebce 9 0 <lambda_5a3ed3da325c8ea037a470278c0f2d16>::operator()() const
FUNC 1ebd9 9 0 <lambda_5d912c5eb12d68f7685796d855ab8da6>::operator()() const
FUNC 1ebe4 bf 0 <lambda_81587a929b95143618da2bd798ca9df2>::operator()() const
FUNC 1ecd2 9 0 <lambda_8f55a0afecd2292d47fde3ce68e72492>::operator()() const
FUNC 1ecdd 9 0 <lambda_9b2bd5c6bb91c5c032542faa5c3cb611>::operator()() const
FUNC 1ece8 f4 0 <lambda_9dc9bc4853282e051506c0cc602abcf3>::operator()() const
FUNC 1ee19 f4 0 <lambda_b09925f738b1434f525bf50d3162636f>::operator()() const
FUNC 1ef4a 9 0 <lambda_ba8264b40644a42074cedf043e7aa388>::operator()() const
FUNC 1ef55 bf 0 <lambda_be68057ced330f874c40fe9612235e36>::operator()() const
FUNC 1f043 9 0 <lambda_bfd63e08e93a545639db6d324cf10d1a>::operator()() const
FUNC 1f04e 9 0 <lambda_c29ee0499b841886b80d843682cc403a>::operator()() const
FUNC 1f059 9 0 <lambda_cae121c7667f229345c68b3f32b19755>::operator()() const
FUNC 1f064 bf 0 <lambda_d7427dbf72509eba5fa970998bac2a27>::operator()() const
FUNC 1f152 9 0 <lambda_dbd837d1c0b7fc6e2d81c287c81c071b>::operator()() const
FUNC 1f15d 4 0 _LocaleUpdate::GetLocaleT()
FUNC 1f161 14 0 __crt_stdio_output::output_processor<char,__crt_stdio_output::stream_output_adapter<char>,__crt_stdio_output::format_validation_base<char,__crt_stdio_output::stream_output_adapter<char> > >::adjust_hexit(const int, const bool)
FUNC 1f17a 14 0 __crt_stdio_output::output_processor<char,__crt_stdio_output::stream_output_adapter<char>,__crt_stdio_output::positional_parameter_base<char,__crt_stdio_output::stream_output_adapter<char> > >::adjust_hexit(const int, const bool)
FUNC 1f193 14 0 __crt_stdio_output::output_processor<char,__crt_stdio_output::stream_output_adapter<char>,__crt_stdio_output::standard_base<char,__crt_stdio_output::stream_output_adapter<char> > >::adjust_hexit(const int, const bool)
FUNC 1f1ac 14 0 __crt_stdio_output::output_processor<char,__crt_stdio_output::string_output_adapter<char>,__crt_stdio_output::format_validation_base<char,__crt_stdio_output::string_output_adapter<char> > >::adjust_hexit(const int, const bool)
FUNC 1f1c5 14 0 __crt_stdio_output::output_processor<char,__crt_stdio_output::string_output_adapter<char>,__crt_stdio_output::positional_parameter_base<char,__crt_stdio_output::string_output_adapter<char> > >::adjust_hexit(const int, const bool)
FUNC 1f1de 14 0 __crt_stdio_output::output_processor<char,__crt_stdio_output::string_output_adapter<char>,__crt_stdio_output::standard_base<char,__crt_stdio_output::string_output_adapter<char> > >::adjust_hexit(const int, const bool)
FUNC 1f1f7 14 0 __crt_stdio_output::output_processor<wchar_t,__crt_stdio_output::stream_output_adapter<wchar_t>,__crt_stdio_output::format_validation_base<wchar_t,__crt_stdio_output::stream_output_adapter<wchar_t> > >::adjust_hexit(const int, const bool)
FUNC 1f210 14 0 __crt_stdio_output::output_processor<wchar_t,__crt_stdio_output::stream_output_adapter<wchar_t>,__crt_stdio_output::positional_parameter_base<wchar_t,__crt_stdio_output::stream_output_adapter<wchar_t> > >::adjust_hexit(const int, const bool)
FUNC 1f229 14 0 __crt_stdio_output::output_processor<wchar_t,__crt_stdio_output::stream_output_adapter<wchar_t>,__crt_stdio_output::standard_base<wchar_t,__crt_stdio_output::stream_output_adapter<wchar_t> > >::adjust_hexit(const int, const bool)
FUNC 1f242 14 0 __crt_stdio_output::output_processor<wchar_t,__crt_stdio_output::string_output_adapter<wchar_t>,__crt_stdio_output::format_validation_base<wchar_t,__crt_stdio_output::string_output_adapter<wchar_t> > >::adjust_hexit(const int, const bool)
FUNC 1f25b 14 0 __crt_stdio_output::output_processor<wchar_t,__crt_stdio_output::string_output_adapter<wchar_t>,__crt_stdio_output::positional_parameter_base<wchar_t,__crt_stdio_output::string_output_adapter<wchar_t> > >::adjust_hexit(const int, const bool)
FUNC 1f274 14 0 __crt_stdio_output::output_processor<wchar_t,__crt_stdio_output::string_output_adapter<wchar_t>,__crt_stdio_output::standard_base<wchar_t,__crt_stdio_output::string_output_adapter<wchar_t> > >::adjust_hexit(const int, const bool)
FUNC 1f28d 4c 0 __crt_stdio_output::positional_parameter_base<char,__crt_stdio_output::stream_output_adapter<char> >::advance_to_next_pass()
FUNC 1f2ec 4c 0 __crt_stdio_output::positional_parameter_base<char,__crt_stdio_output::string_output_adapter<char> >::advance_to_next_pass()
FUNC 1f34b 4c 0 __crt_stdio_output::positional_parameter_base<wchar_t,__crt_stdio_output::stream_output_adapter<wchar_t> >::advance_to_next_pass()
FUNC 1f3aa 4c 0 __crt_stdio_output::positional_parameter_base<wchar_t,__crt_stdio_output::string_output_adapter<wchar_t> >::advance_to_next_pass()
FUNC 1f409 11 0 __crt_stdio_output::standard_base<char,__crt_stdio_output::stream_output_adapter<char> >::advance_to_next_pass()
FUNC 1f41e 11 0 __crt_stdio_output::standard_base<char,__crt_stdio_output::string_output_adapter<char> >::advance_to_next_pass()
FUNC 1f433 11 0 __crt_stdio_output::standard_base<wchar_t,__crt_stdio_output::stream_output_adapter<wchar_t> >::advance_to_next_pass()
FUNC 1f448 11 0 __crt_stdio_output::standard_base<wchar_t,__crt_stdio_output::string_output_adapter<wchar_t> >::advance_to_next_pass()
FUNC 1f45d 60 0 __crt_stdio_output::crop_zeroes(char*, __crt_locale_pointers* const)
FUNC 1f4d5 40 0 __crt_stdio_output::output_processor<char,__crt_stdio_output::stream_output_adapter<char>,__crt_stdio_output::format_validation_base<char,__crt_stdio_output::stream_output_adapter<char> > >::find_next_state(const char, const __crt_stdio_output::state) const
FUNC 1f525 40 0 __crt_stdio_output::output_processor<char,__crt_stdio_output::stream_output_adapter<char>,__crt_stdio_output::positional_parameter_base<char,__crt_stdio_output::stream_output_adapter<char> > >::find_next_state(const char, const __crt_stdio_output::state) const
FUNC 1f575 3d 0 __crt_stdio_output::output_processor<char,__crt_stdio_output::stream_output_adapter<char>,__crt_stdio_output::standard_base<char,__crt_stdio_output::stream_output_adapter<char> > >::find_next_state(const char, const __crt_stdio_output::state) const
FUNC 1f5c1 40 0 __crt_stdio_output::output_processor<char,__crt_stdio_output::string_output_adapter<char>,__crt_stdio_output::format_validation_base<char,__crt_stdio_output::string_output_adapter<char> > >::find_next_state(const char, const __crt_stdio_output::state) const
FUNC 1f611 40 0 __crt_stdio_output::output_processor<char,__crt_stdio_output::string_output_adapter<char>,__crt_stdio_output::positional_parameter_base<char,__crt_stdio_output::string_output_adapter<char> > >::find_next_state(const char, const __crt_stdio_output::state) const
FUNC 1f661 3d 0 __crt_stdio_output::output_processor<char,__crt_stdio_output::string_output_adapter<char>,__crt_stdio_output::standard_base<char,__crt_stdio_output::string_output_adapter<char> > >::find_next_state(const char, const __crt_stdio_output::state) const
FUNC 1f6ad 42 0 __crt_stdio_output::output_processor<wchar_t,__crt_stdio_output::stream_output_adapter<wchar_t>,__crt_stdio_output::format_validation_base<wchar_t,__crt_stdio_output::stream_output_adapter<wchar_t> > >::find_next_state(const wchar_t, const __crt_stdio_output::state) const
FUNC 1f6ff 42 0 __crt_stdio_output::output_processor<wchar_t,__crt_stdio_output::stream_output_adapter<wchar_t>,__crt_stdio_output::positional_parameter_base<wchar_t,__crt_stdio_output::stream_output_adapter<wchar_t> > >::find_next_state(const wchar_t, const __crt_stdio_output::state) const
FUNC 1f751 3f 0 __crt_stdio_output::output_processor<wchar_t,__crt_stdio_output::stream_output_adapter<wchar_t>,__crt_stdio_output::standard_base<wchar_t,__crt_stdio_output::stream_output_adapter<wchar_t> > >::find_next_state(const wchar_t, const __crt_stdio_output::state) const
FUNC 1f79f 42 0 __crt_stdio_output::output_processor<wchar_t,__crt_stdio_output::string_output_adapter<wchar_t>,__crt_stdio_output::format_validation_base<wchar_t,__crt_stdio_output::string_output_adapter<wchar_t> > >::find_next_state(const wchar_t, const __crt_stdio_output::state) const
FUNC 1f7f1 42 0 __crt_stdio_output::output_processor<wchar_t,__crt_stdio_output::string_output_adapter<wchar_t>,__crt_stdio_output::positional_parameter_base<wchar_t,__crt_stdio_output::string_output_adapter<wchar_t> > >::find_next_state(const wchar_t, const __crt_stdio_output::state) const
FUNC 1f843 3f 0 __crt_stdio_output::output_processor<wchar_t,__crt_stdio_output::string_output_adapter<wchar_t>,__crt_stdio_output::standard_base<wchar_t,__crt_stdio_output::string_output_adapter<wchar_t> > >::find_next_state(const wchar_t, const __crt_stdio_output::state) const
FUNC 1f891 5c 0 __crt_stdio_output::force_decimal_point(char*, __crt_locale_pointers* const)
FUNC 1f904 14 0 __crt_deferred_errno_cache::get()
FUNC 1f91d 7 0 __crt_stdio_stream::get_flags() const
FUNC 1f924 4 0 __crt_stdio_output::positional_parameter_base<char,__crt_stdio_output::stream_output_adapter<char> >::get_parameter_type(short)
FUNC 1f928 4 0 __crt_stdio_output::positional_parameter_base<char,__crt_stdio_output::stream_output_adapter<char> >::get_parameter_type(unsigned short)
FUNC 1f92c 4 0 __crt_stdio_output::positional_parameter_base<char,__crt_stdio_output::stream_output_adapter<char> >::get_parameter_type(int)
FUNC 1f930 4 0 __crt_stdio_output::positional_parameter_base<char,__crt_stdio_output::stream_output_adapter<char> >::get_parameter_type(unsigned int)
FUNC 1f934 4 0 __crt_stdio_output::positional_parameter_base<char,__crt_stdio_output::stream_output_adapter<char> >::get_parameter_type(_CRT_DOUBLE)
FUNC 1f938 4 0 __crt_stdio_output::positional_parameter_base<char,__crt_stdio_output::stream_output_adapter<char> >::get_parameter_type(long long)
FUNC 1f93c 4 0 __crt_stdio_output::positional_parameter_base<char,__crt_stdio_output::stream_output_adapter<char> >::get_parameter_type(unsigned long long)
FUNC 1f940 4 0 __crt_stdio_output::positional_parameter_base<char,__crt_stdio_output::stream_output_adapter<char> >::get_parameter_type(wchar_t)
FUNC 1f944 4 0 __crt_stdio_output::positional_parameter_base<char,__crt_stdio_output::string_output_adapter<char> >::get_parameter_type(short)
FUNC 1f948 4 0 __crt_stdio_output::positional_parameter_base<char,__crt_stdio_output::string_output_adapter<char> >::get_parameter_type(unsigned short)
FUNC 1f94c 4 0 __crt_stdio_output::positional_parameter_base<char,__crt_stdio_output::string_output_adapter<char> >::get_parameter_type(int)
FUNC 1f950 4 0 __crt_stdio_output::positional_parameter_base<char,__crt_stdio_output::string_output_adapter<char> >::get_parameter_type(unsigned int)
FUNC 1f954 4 0 __crt_stdio_output::positional_parameter_base<char,__crt_stdio_output::string_output_adapter<char> >::get_parameter_type(_CRT_DOUBLE)
FUNC 1f958 4 0 __crt_stdio_output::positional_parameter_base<char,__crt_stdio_output::string_output_adapter<char> >::get_parameter_type(long long)
FUNC 1f95c 4 0 __crt_stdio_output::positional_parameter_base<char,__crt_stdio_output::string_output_adapter<char> >::get_parameter_type(unsigned long long)
FUNC 1f960 4 0 __crt_stdio_output::positional_parameter_base<char,__crt_stdio_output::string_output_adapter<char> >::get_parameter_type(wchar_t)
FUNC 1f964 4 0 __crt_stdio_output::positional_parameter_base<wchar_t,__crt_stdio_output::stream_output_adapter<wchar_t> >::get_parameter_type(short)
FUNC 1f968 4 0 __crt_stdio_output::positional_parameter_base<wchar_t,__crt_stdio_output::stream_output_adapter<wchar_t> >::get_parameter_type(unsigned short)
FUNC 1f96c 4 0 __crt_stdio_output::positional_parameter_base<wchar_t,__crt_stdio_output::stream_output_adapter<wchar_t> >::get_parameter_type(int)
FUNC 1f970 4 0 __crt_stdio_output::positional_parameter_base<wchar_t,__crt_stdio_output::stream_output_adapter<wchar_t> >::get_parameter_type(unsigned int)
FUNC 1f974 4 0 __crt_stdio_output::positional_parameter_base<wchar_t,__crt_stdio_output::stream_output_adapter<wchar_t> >::get_parameter_type(_CRT_DOUBLE)
FUNC 1f978 4 0 __crt_stdio_output::positional_parameter_base<wchar_t,__crt_stdio_output::stream_output_adapter<wchar_t> >::get_parameter_type(long long)
FUNC 1f97c 4 0 __crt_stdio_output::positional_parameter_base<wchar_t,__crt_stdio_output::stream_output_adapter<wchar_t> >::get_parameter_type(unsigned long long)
FUNC 1f980 4 0 __crt_stdio_output::positional_parameter_base<wchar_t,__crt_stdio_output::stream_output_adapter<wchar_t> >::get_parameter_type(wchar_t)
FUNC 1f984 4 0 __crt_stdio_output::positional_parameter_base<wchar_t,__crt_stdio_output::string_output_adapter<wchar_t> >::get_parameter_type(short)
FUNC 1f988 4 0 __crt_stdio_output::positional_parameter_base<wchar_t,__crt_stdio_output::string_output_adapter<wchar_t> >::get_parameter_type(unsigned short)
FUNC 1f98c 4 0 __crt_stdio_output::positional_parameter_base<wchar_t,__crt_stdio_output::string_output_adapter<wchar_t> >::get_parameter_type(int)
FUNC 1f990 4 0 __crt_stdio_output::positional_parameter_base<wchar_t,__crt_stdio_output::string_output_adapter<wchar_t> >::get_parameter_type(unsigned int)
FUNC 1f994 4 0 __crt_stdio_output::positional_parameter_base<wchar_t,__crt_stdio_output::string_output_adapter<wchar_t> >::get_parameter_type(_CRT_DOUBLE)
FUNC 1f998 4 0 __crt_stdio_output::positional_parameter_base<wchar_t,__crt_stdio_output::string_output_adapter<wchar_t> >::get_parameter_type(long long)
FUNC 1f99c 4 0 __crt_stdio_output::positional_parameter_base<wchar_t,__crt_stdio_output::string_output_adapter<wchar_t> >::get_parameter_type(unsigned long long)
FUNC 1f9a0 4 0 __crt_stdio_output::positional_parameter_base<wchar_t,__crt_stdio_output::string_output_adapter<wchar_t> >::get_parameter_type(wchar_t)
FUNC 1f9a4 12 0 __crt_stdio_output::output_processor<char,__crt_stdio_output::stream_output_adapter<char>,__crt_stdio_output::format_validation_base<char,__crt_stdio_output::stream_output_adapter<char> > >::has_flag(const unsigned int) const
FUNC 1f9ba 12 0 __crt_stdio_output::output_processor<char,__crt_stdio_output::stream_output_adapter<char>,__crt_stdio_output::positional_parameter_base<char,__crt_stdio_output::stream_output_adapter<char> > >::has_flag(const unsigned int) const
FUNC 1f9d0 12 0 __crt_stdio_output::output_processor<char,__crt_stdio_output::stream_output_adapter<char>,__crt_stdio_output::standard_base<char,__crt_stdio_output::stream_output_adapter<char> > >::has_flag(const unsigned int) const
FUNC 1f9e6 12 0 __crt_stdio_output::output_processor<char,__crt_stdio_output::string_output_adapter<char>,__crt_stdio_output::format_validation_base<char,__crt_stdio_output::string_output_adapter<char> > >::has_flag(const unsigned int) const
FUNC 1f9fc 12 0 __crt_stdio_output::output_processor<char,__crt_stdio_output::string_output_adapter<char>,__crt_stdio_output::positional_parameter_base<char,__crt_stdio_output::string_output_adapter<char> > >::has_flag(const unsigned int) const
FUNC 1fa12 12 0 __crt_stdio_output::output_processor<char,__crt_stdio_output::string_output_adapter<char>,__crt_stdio_output::standard_base<char,__crt_stdio_output::string_output_adapter<char> > >::has_flag(const unsigned int) const
FUNC 1fa28 12 0 __crt_stdio_output::output_processor<wchar_t,__crt_stdio_output::stream_output_adapter<wchar_t>,__crt_stdio_output::format_validation_base<wchar_t,__crt_stdio_output::stream_output_adapter<wchar_t> > >::has_flag(const unsigned int) const
FUNC 1fa3e 12 0 __crt_stdio_output::output_processor<wchar_t,__crt_stdio_output::stream_output_adapter<wchar_t>,__crt_stdio_output::positional_parameter_base<wchar_t,__crt_stdio_output::stream_output_adapter<wchar_t> > >::has_flag(const unsigned int) const
FUNC 1fa54 12 0 __crt_stdio_output::output_processor<wchar_t,__crt_stdio_output::stream_output_adapter<wchar_t>,__crt_stdio_output::standard_base<wchar_t,__crt_stdio_output::stream_output_adapter<wchar_t> > >::has_flag(const unsigned int) const
FUNC 1fa6a 12 0 __crt_stdio_output::output_processor<wchar_t,__crt_stdio_output::string_output_adapter<wchar_t>,__crt_stdio_output::format_validation_base<wchar_t,__crt_stdio_output::string_output_adapter<wchar_t> > >::has_flag(const unsigned int) const
FUNC 1fa80 12 0 __crt_stdio_output::output_processor<wchar_t,__crt_stdio_output::string_output_adapter<wchar_t>,__crt_stdio_output::positional_parameter_base<wchar_t,__crt_stdio_output::string_output_adapter<wchar_t> > >::has_flag(const unsigned int) const
FUNC 1fa96 12 0 __crt_stdio_output::output_processor<wchar_t,__crt_stdio_output::string_output_adapter<wchar_t>,__crt_stdio_output::standard_base<wchar_t,__crt_stdio_output::string_output_adapter<wchar_t> > >::has_flag(const unsigned int) const
FUNC 1faac 118 0 __crt_stdio_output::positional_parameter_base<char,__crt_stdio_output::stream_output_adapter<char> >::is_positional_parameter_reappearance_consistent(__crt_stdio_output::positional_parameter_base<char,__crt_stdio_output::stream_output_adapter<char> >::parameter_data const&, const __crt_stdio_output::positional_parameter_base<char,__crt_stdio_output::stream_output_adapter<char> >::parameter_type, const char, const __crt_stdio_output::length_modifier)
FUNC 1fc0a 118 0 __crt_stdio_output::positional_parameter_base<char,__crt_stdio_output::string_output_adapter<char> >::is_positional_parameter_reappearance_consistent(__crt_stdio_output::positional_parameter_base<char,__crt_stdio_output::string_output_adapter<char> >::parameter_data const&, const __crt_stdio_output::positional_parameter_base<char,__crt_stdio_output::string_output_adapter<char> >::parameter_type, const char, const __crt_stdio_output::length_modifier)
FUNC 1fd68 118 0 __crt_stdio_output::positional_parameter_base<wchar_t,__crt_stdio_output::stream_output_adapter<wchar_t> >::is_positional_parameter_reappearance_consistent(__crt_stdio_output::positional_parameter_base<wchar_t,__crt_stdio_output::stream_output_adapter<wchar_t> >::parameter_data const&, const __crt_stdio_output::positional_parameter_base<wchar_t,__crt_stdio_output::stream_output_adapter<wchar_t> >::parameter_type, const wchar_t, const __crt_stdio_output::length_modifier)
FUNC 1fec6 118 0 __crt_stdio_output::positional_parameter_base<wchar_t,__crt_stdio_output::string_output_adapter<wchar_t> >::is_positional_parameter_reappearance_consistent(__crt_stdio_output::positional_parameter_base<wchar_t,__crt_stdio_output::string_output_adapter<wchar_t> >::parameter_data const&, const __crt_stdio_output::positional_parameter_base<wchar_t,__crt_stdio_output::string_output_adapter<wchar_t> >::parameter_type, const wchar_t, const __crt_stdio_output::length_modifier)
FUNC 20024 c 0 __crt_stdio_stream::is_string_backed() const
FUNC 20033 6 0 __crt_stdio_output::output_processor<char,__crt_stdio_output::stream_output_adapter<char>,__crt_stdio_output::format_validation_base<char,__crt_stdio_output::stream_output_adapter<char> > >::narrow_null_string()
FUNC 20039 6 0 __crt_stdio_output::output_processor<char,__crt_stdio_output::stream_output_adapter<char>,__crt_stdio_output::positional_parameter_base<char,__crt_stdio_output::stream_output_adapter<char> > >::narrow_null_string()
FUNC 2003f 6 0 __crt_stdio_output::output_processor<char,__crt_stdio_output::stream_output_adapter<char>,__crt_stdio_output::standard_base<char,__crt_stdio_output::stream_output_adapter<char> > >::narrow_null_string()
FUNC 20045 6 0 __crt_stdio_output::output_processor<char,__crt_stdio_output::string_output_adapter<char>,__crt_stdio_output::format_validation_base<char,__crt_stdio_output::string_output_adapter<char> > >::narrow_null_string()
FUNC 2004b 6 0 __crt_stdio_output::output_processor<char,__crt_stdio_output::string_output_adapter<char>,__crt_stdio_output::positional_parameter_base<char,__crt_stdio_output::string_output_adapter<char> > >::narrow_null_string()
FUNC 20051 6 0 __crt_stdio_output::output_processor<char,__crt_stdio_output::string_output_adapter<char>,__crt_stdio_output::standard_base<char,__crt_stdio_output::string_output_adapter<char> > >::narrow_null_string()
FUNC 20057 6 0 __crt_stdio_output::output_processor<wchar_t,__crt_stdio_output::stream_output_adapter<wchar_t>,__crt_stdio_output::format_validation_base<wchar_t,__crt_stdio_output::stream_output_adapter<wchar_t> > >::narrow_null_string()
FUNC 2005d 6 0 __crt_stdio_output::output_processor<wchar_t,__crt_stdio_output::stream_output_adapter<wchar_t>,__crt_stdio_output::positional_parameter_base<wchar_t,__crt_stdio_output::stream_output_adapter<wchar_t> > >::narrow_null_string()
FUNC 20063 6 0 __crt_stdio_output::output_processor<wchar_t,__crt_stdio_output::stream_output_adapter<wchar_t>,__crt_stdio_output::standard_base<wchar_t,__crt_stdio_output::stream_output_adapter<wchar_t> > >::narrow_null_string()
FUNC 20069 6 0 __crt_stdio_output::output_processor<wchar_t,__crt_stdio_output::string_output_adapter<wchar_t>,__crt_stdio_output::format_validation_base<wchar_t,__crt_stdio_output::string_output_adapter<wchar_t> > >::narrow_null_string()
FUNC 2006f 6 0 __crt_stdio_output::output_processor<wchar_t,__crt_stdio_output::string_output_adapter<wchar_t>,__crt_stdio_output::positional_parameter_base<wchar_t,__crt_stdio_output::string_output_adapter<wchar_t> > >::narrow_null_string()
FUNC 20075 6 0 __crt_stdio_output::output_processor<wchar_t,__crt_stdio_output::string_output_adapter<wchar_t>,__crt_stdio_output::standard_base<wchar_t,__crt_stdio_output::string_output_adapter<wchar_t> > >::narrow_null_string()
FUNC 2007b 74 0 __crt_stdio_output::output_processor<char,__crt_stdio_output::stream_output_adapter<char>,__crt_stdio_output::format_validation_base<char,__crt_stdio_output::stream_output_adapter<char> > >::parse_int_from_format_string(int* const)
FUNC 2010c 74 0 __crt_stdio_output::output_processor<char,__crt_stdio_output::stream_output_adapter<char>,__crt_stdio_output::positional_parameter_base<char,__crt_stdio_output::stream_output_adapter<char> > >::parse_int_from_format_string(int* const)
FUNC 2019d 74 0 __crt_stdio_output::output_processor<char,__crt_stdio_output::stream_output_adapter<char>,__crt_stdio_output::standard_base<char,__crt_stdio_output::stream_output_adapter<char> > >::parse_int_from_format_string(int* const)
FUNC 2022e 74 0 __crt_stdio_output::output_processor<char,__crt_stdio_output::string_output_adapter<char>,__crt_stdio_output::format_validation_base<char,__crt_stdio_output::string_output_adapter<char> > >::parse_int_from_format_string(int* const)
FUNC 202bf 74 0 __crt_stdio_output::output_processor<char,__crt_stdio_output::string_output_adapter<char>,__crt_stdio_output::positional_parameter_base<char,__crt_stdio_output::string_output_adapter<char> > >::parse_int_from_format_string(int* const)
FUNC 20350 74 0 __crt_stdio_output::output_processor<char,__crt_stdio_output::string_output_adapter<char>,__crt_stdio_output::standard_base<char,__crt_stdio_output::string_output_adapter<char> > >::parse_int_from_format_string(int* const)
FUNC 203e1 76 0 __crt_stdio_output::output_processor<wchar_t,__crt_stdio_output::stream_output_adapter<wchar_t>,__crt_stdio_output::format_validation_base<wchar_t,__crt_stdio_output::stream_output_adapter<wchar_t> > >::parse_int_from_format_string(int* const)
FUNC 20474 76 0 __crt_stdio_output::output_processor<wchar_t,__crt_stdio_output::stream_output_adapter<wchar_t>,__crt_stdio_output::positional_parameter_base<wchar_t,__crt_stdio_output::stream_output_adapter<wchar_t> > >::parse_int_from_format_string(int* const)
FUNC 20507 76 0 __crt_stdio_output::output_processor<wchar_t,__crt_stdio_output::stream_output_adapter<wchar_t>,__crt_stdio_output::standard_base<wchar_t,__crt_stdio_output::stream_output_adapter<wchar_t> > >::parse_int_from_format_string(int* const)
FUNC 2059a 76 0 __crt_stdio_output::output_processor<wchar_t,__crt_stdio_output::string_output_adapter<wchar_t>,__crt_stdio_output::format_validation_base<wchar_t,__crt_stdio_output::string_output_adapter<wchar_t> > >::parse_int_from_format_string(int* const)
FUNC 2062d 76 0 __crt_stdio_output::output_processor<wchar_t,__crt_stdio_output::string_output_adapter<wchar_t>,__crt_stdio_output::positional_parameter_base<wchar_t,__crt_stdio_output::string_output_adapter<wchar_t> > >::parse_int_from_format_string(int* const)
FUNC 206c0 76 0 __crt_stdio_output::output_processor<wchar_t,__crt_stdio_output::string_output_adapter<wchar_t>,__crt_stdio_output::standard_base<wchar_t,__crt_stdio_output::string_output_adapter<wchar_t> > >::parse_int_from_format_string(int* const)
FUNC 20753 124 0 __crt_stdio_output::output_processor<char,__crt_stdio_output::stream_output_adapter<char>,__crt_stdio_output::format_validation_base<char,__crt_stdio_output::stream_output_adapter<char> > >::process()
FUNC 208c0 130 0 __crt_stdio_output::output_processor<char,__crt_stdio_output::stream_output_adapter<char>,__crt_stdio_output::positional_parameter_base<char,__crt_stdio_output::stream_output_adapter<char> > >::process()
FUNC 20a3c 114 0 __crt_stdio_output::output_processor<char,__crt_stdio_output::stream_output_adapter<char>,__crt_stdio_output::standard_base<char,__crt_stdio_output::stream_output_adapter<char> > >::process()
FUNC 20b95 124 0 __crt_stdio_output::output_processor<char,__crt_stdio_output::string_output_adapter<char>,__crt_stdio_output::format_validation_base<char,__crt_stdio_output::string_output_adapter<char> > >::process()
FUNC 20d02 130 0 __crt_stdio_output::output_processor<char,__crt_stdio_output::string_output_adapter<char>,__crt_stdio_output::positional_parameter_base<char,__crt_stdio_output::string_output_adapter<char> > >::process()
FUNC 20e7e 114 0 __crt_stdio_output::output_processor<char,__crt_stdio_output::string_output_adapter<char>,__crt_stdio_output::standard_base<char,__crt_stdio_output::string_output_adapter<char> > >::process()
FUNC 20fd7 128 0 __crt_stdio_output::output_processor<wchar_t,__crt_stdio_output::stream_output_adapter<wchar_t>,__crt_stdio_output::format_validation_base<wchar_t,__crt_stdio_output::stream_output_adapter<wchar_t> > >::process()
FUNC 21149 134 0 __crt_stdio_output::output_processor<wchar_t,__crt_stdio_output::stream_output_adapter<wchar_t>,__crt_stdio_output::positional_parameter_base<wchar_t,__crt_stdio_output::stream_output_adapter<wchar_t> > >::process()
FUNC 212ca 11c 0 __crt_stdio_output::output_processor<wchar_t,__crt_stdio_output::stream_output_adapter<wchar_t>,__crt_stdio_output::standard_base<wchar_t,__crt_stdio_output::stream_output_adapter<wchar_t> > >::process()
FUNC 2142d 128 0 __crt_stdio_output::output_processor<wchar_t,__crt_stdio_output::string_output_adapter<wchar_t>,__crt_stdio_output::format_validation_base<wchar_t,__crt_stdio_output::string_output_adapter<wchar_t> > >::process()
FUNC 2159f 134 0 __crt_stdio_output::output_processor<wchar_t,__crt_stdio_output::string_output_adapter<wchar_t>,__crt_stdio_output::positional_parameter_base<wchar_t,__crt_stdio_output::string_output_adapter<wchar_t> > >::process()
FUNC 21720 11c 0 __crt_stdio_output::output_processor<wchar_t,__crt_stdio_output::string_output_adapter<wchar_t>,__crt_stdio_output::standard_base<wchar_t,__crt_stdio_output::string_output_adapter<wchar_t> > >::process()
FUNC 21883 3 0 __crt_stdio_stream::public_stream() const
FUNC 21886 f 0 __crt_stdio_output::output_processor<char,__crt_stdio_output::stream_output_adapter<char>,__crt_stdio_output::format_validation_base<char,__crt_stdio_output::stream_output_adapter<char> > >::set_flag(const unsigned int)
FUNC 21898 f 0 __crt_stdio_output::output_processor<char,__crt_stdio_output::stream_output_adapter<char>,__crt_stdio_output::positional_parameter_base<char,__crt_stdio_output::stream_output_adapter<char> > >::set_flag(const unsigned int)
FUNC 218aa f 0 __crt_stdio_output::output_processor<char,__crt_stdio_output::stream_output_adapter<char>,__crt_stdio_output::standard_base<char,__crt_stdio_output::stream_output_adapter<char> > >::set_flag(const unsigned int)
FUNC 218bc f 0 __crt_stdio_output::output_processor<char,__crt_stdio_output::string_output_adapter<char>,__crt_stdio_output::format_validation_base<char,__crt_stdio_output::string_output_adapter<char> > >::set_flag(const unsigned int)
FUNC 218ce f 0 __crt_stdio_output::output_processor<char,__crt_stdio_output::string_output_adapter<char>,__crt_stdio_output::positional_parameter_base<char,__crt_stdio_output::string_output_adapter<char> > >::set_flag(const unsigned int)
FUNC 218e0 f 0 __crt_stdio_output::output_processor<char,__crt_stdio_output::string_output_adapter<char>,__crt_stdio_output::standard_base<char,__crt_stdio_output::string_output_adapter<char> > >::set_flag(const unsigned int)
FUNC 218f2 f 0 __crt_stdio_output::output_processor<wchar_t,__crt_stdio_output::stream_output_adapter<wchar_t>,__crt_stdio_output::format_validation_base<wchar_t,__crt_stdio_output::stream_output_adapter<wchar_t> > >::set_flag(const unsigned int)
FUNC 21904 f 0 __crt_stdio_output::output_processor<wchar_t,__crt_stdio_output::stream_output_adapter<wchar_t>,__crt_stdio_output::positional_parameter_base<wchar_t,__crt_stdio_output::stream_output_adapter<wchar_t> > >::set_flag(const unsigned int)
FUNC 21916 f 0 __crt_stdio_output::output_processor<wchar_t,__crt_stdio_output::stream_output_adapter<wchar_t>,__crt_stdio_output::standard_base<wchar_t,__crt_stdio_output::stream_output_adapter<wchar_t> > >::set_flag(const unsigned int)
FUNC 21928 f 0 __crt_stdio_output::output_processor<wchar_t,__crt_stdio_output::string_output_adapter<wchar_t>,__crt_stdio_output::format_validation_base<wchar_t,__crt_stdio_output::string_output_adapter<wchar_t> > >::set_flag(const unsigned int)
FUNC 2193a f 0 __crt_stdio_output::output_processor<wchar_t,__crt_stdio_output::string_output_adapter<wchar_t>,__crt_stdio_output::positional_parameter_base<wchar_t,__crt_stdio_output::string_output_adapter<wchar_t> > >::set_flag(const unsigned int)
FUNC 2194c f 0 __crt_stdio_output::output_processor<wchar_t,__crt_stdio_output::string_output_adapter<wchar_t>,__crt_stdio_output::standard_base<wchar_t,__crt_stdio_output::string_output_adapter<wchar_t> > >::set_flag(const unsigned int)
FUNC 2195e 16 0 __crt_stdio_output::positional_parameter_base<char,__crt_stdio_output::stream_output_adapter<char> >::should_format()
FUNC 21979 16 0 __crt_stdio_output::positional_parameter_base<char,__crt_stdio_output::string_output_adapter<char> >::should_format()
FUNC 21994 16 0 __crt_stdio_output::positional_parameter_base<wchar_t,__crt_stdio_output::stream_output_adapter<wchar_t> >::should_format()
FUNC 219af 16 0 __crt_stdio_output::positional_parameter_base<wchar_t,__crt_stdio_output::string_output_adapter<wchar_t> >::should_format()
FUNC 219ca 3 0 __crt_stdio_output::standard_base<char,__crt_stdio_output::stream_output_adapter<char> >::should_format()
FUNC 219cd 3 0 __crt_stdio_output::standard_base<char,__crt_stdio_output::string_output_adapter<char> >::should_format()
FUNC 219d0 3 0 __crt_stdio_output::standard_base<wchar_t,__crt_stdio_output::stream_output_adapter<wchar_t> >::should_format()
FUNC 219d3 3 0 __crt_stdio_output::standard_base<wchar_t,__crt_stdio_output::string_output_adapter<wchar_t> >::should_format()
FUNC 219d6 28 0 __crt_stdio_output::positional_parameter_base<char,__crt_stdio_output::stream_output_adapter<char> >::should_skip_normal_state_processing()
FUNC 21a08 28 0 __crt_stdio_output::positional_parameter_base<char,__crt_stdio_output::string_output_adapter<char> >::should_skip_normal_state_processing()
FUNC 21a3a 28 0 __crt_stdio_output::positional_parameter_base<wchar_t,__crt_stdio_output::stream_output_adapter<wchar_t> >::should_skip_normal_state_processing()
FUNC 21a6c 28 0 __crt_stdio_output::positional_parameter_base<wchar_t,__crt_stdio_output::string_output_adapter<wchar_t> >::should_skip_normal_state_processing()
FUNC 21a9e 3 0 __crt_stdio_output::standard_base<char,__crt_stdio_output::stream_output_adapter<char> >::should_skip_normal_state_processing()
FUNC 21aa1 3 0 __crt_stdio_output::standard_base<char,__crt_stdio_output::string_output_adapter<char> >::should_skip_normal_state_processing()
FUNC 21aa4 3 0 __crt_stdio_output::standard_base<wchar_t,__crt_stdio_output::stream_output_adapter<wchar_t> >::should_skip_normal_state_processing()
FUNC 21aa7 3 0 __crt_stdio_output::standard_base<wchar_t,__crt_stdio_output::string_output_adapter<wchar_t> >::should_skip_normal_state_processing()
FUNC 21aaa 17 0 __crt_stdio_output::positional_parameter_base<char,__crt_stdio_output::stream_output_adapter<char> >::should_skip_type_state_output() const
FUNC 21ac6 17 0 __crt_stdio_output::positional_parameter_base<char,__crt_stdio_output::string_output_adapter<char> >::should_skip_type_state_output() const
FUNC 21ae2 17 0 __crt_stdio_output::positional_parameter_base<wchar_t,__crt_stdio_output::stream_output_adapter<wchar_t> >::should_skip_type_state_output() const
FUNC 21afe 17 0 __crt_stdio_output::positional_parameter_base<wchar_t,__crt_stdio_output::string_output_adapter<wchar_t> >::should_skip_type_state_output() const
FUNC 21b1a 3 0 __crt_stdio_output::standard_base<char,__crt_stdio_output::stream_output_adapter<char> >::should_skip_type_state_output() const
FUNC 21b1d 3 0 __crt_stdio_output::standard_base<char,__crt_stdio_output::string_output_adapter<char> >::should_skip_type_state_output() const
FUNC 21b20 3 0 __crt_stdio_output::standard_base<wchar_t,__crt_stdio_output::stream_output_adapter<wchar_t> >::should_skip_type_state_output() const
FUNC 21b23 3 0 __crt_stdio_output::standard_base<wchar_t,__crt_stdio_output::string_output_adapter<wchar_t> >::should_skip_type_state_output() const
FUNC 21b26 7 0 __crt_stdio_output::output_processor<char,__crt_stdio_output::stream_output_adapter<char>,__crt_stdio_output::format_validation_base<char,__crt_stdio_output::stream_output_adapter<char> > >::state_case_dot()
FUNC 21b2d 7 0 __crt_stdio_output::output_processor<char,__crt_stdio_output::stream_output_adapter<char>,__crt_stdio_output::positional_parameter_base<char,__crt_stdio_output::stream_output_adapter<char> > >::state_case_dot()
FUNC 21b34 7 0 __crt_stdio_output::output_processor<char,__crt_stdio_output::stream_output_adapter<char>,__crt_stdio_output::standard_base<char,__crt_stdio_output::stream_output_adapter<char> > >::state_case_dot()
FUNC 21b3b 7 0 __crt_stdio_output::output_processor<char,__crt_stdio_output::string_output_adapter<char>,__crt_stdio_output::format_validation_base<char,__crt_stdio_output::string_output_adapter<char> > >::state_case_dot()
FUNC 21b42 7 0 __crt_stdio_output::output_processor<char,__crt_stdio_output::string_output_adapter<char>,__crt_stdio_output::positional_parameter_base<char,__crt_stdio_output::string_output_adapter<char> > >::state_case_dot()
FUNC 21b49 7 0 __crt_stdio_output::output_processor<char,__crt_stdio_output::string_output_adapter<char>,__crt_stdio_output::standard_base<char,__crt_stdio_output::string_output_adapter<char> > >::state_case_dot()
FUNC 21b50 7 0 __crt_stdio_output::output_processor<wchar_t,__crt_stdio_output::stream_output_adapter<wchar_t>,__crt_stdio_output::format_validation_base<wchar_t,__crt_stdio_output::stream_output_adapter<wchar_t> > >::state_case_dot()
FUNC 21b57 7 0 __crt_stdio_output::output_processor<wchar_t,__crt_stdio_output::stream_output_adapter<wchar_t>,__crt_stdio_output::positional_parameter_base<wchar_t,__crt_stdio_output::stream_output_adapter<wchar_t> > >::state_case_dot()
FUNC 21b5e 7 0 __crt_stdio_output::output_processor<wchar_t,__crt_stdio_output::stream_output_adapter<wchar_t>,__crt_stdio_output::standard_base<wchar_t,__crt_stdio_output::stream_output_adapter<wchar_t> > >::state_case_dot()
FUNC 21b65 7 0 __crt_stdio_output::output_processor<wchar_t,__crt_stdio_output::string_output_adapter<wchar_t>,__crt_stdio_output::format_validation_base<wchar_t,__crt_stdio_output::string_output_adapter<wchar_t> > >::state_case_dot()
FUNC 21b6c 7 0 __crt_stdio_output::output_processor<wchar_t,__crt_stdio_output::string_output_adapter<wchar_t>,__crt_stdio_output::positional_parameter_base<wchar_t,__crt_stdio_output::string_output_adapter<wchar_t> > >::state_case_dot()
FUNC 21b73 7 0 __crt_stdio_output::output_processor<wchar_t,__crt_stdio_output::string_output_adapter<wchar_t>,__crt_stdio_output::standard_base<wchar_t,__crt_stdio_output::string_output_adapter<wchar_t> > >::state_case_dot()
FUNC 21b7a 3d 0 __crt_stdio_output::output_processor<char,__crt_stdio_output::stream_output_adapter<char>,__crt_stdio_output::format_validation_base<char,__crt_stdio_output::stream_output_adapter<char> > >::state_case_flag()
FUNC 21bc6 3d 0 __crt_stdio_output::output_processor<char,__crt_stdio_output::stream_output_adapter<char>,__crt_stdio_output::positional_parameter_base<char,__crt_stdio_output::stream_output_adapter<char> > >::state_case_flag()
FUNC 21c12 3d 0 __crt_stdio_output::output_processor<char,__crt_stdio_output::stream_output_adapter<char>,__crt_stdio_output::standard_base<char,__crt_stdio_output::stream_output_adapter<char> > >::state_case_flag()
FUNC 21c5e 3d 0 __crt_stdio_output::output_processor<char,__crt_stdio_output::string_output_adapter<char>,__crt_stdio_output::format_validation_base<char,__crt_stdio_output::string_output_adapter<char> > >::state_case_flag()
FUNC 21caa 3d 0 __crt_stdio_output::output_processor<char,__crt_stdio_output::string_output_adapter<char>,__crt_stdio_output::positional_parameter_base<char,__crt_stdio_output::string_output_adapter<char> > >::state_case_flag()
FUNC 21cf6 3d 0 __crt_stdio_output::output_processor<char,__crt_stdio_output::string_output_adapter<char>,__crt_stdio_output::standard_base<char,__crt_stdio_output::string_output_adapter<char> > >::state_case_flag()
FUNC 21d42 3d 0 __crt_stdio_output::output_processor<wchar_t,__crt_stdio_output::stream_output_adapter<wchar_t>,__crt_stdio_output::format_validation_base<wchar_t,__crt_stdio_output::stream_output_adapter<wchar_t> > >::state_case_flag()
FUNC 21d8e 3d 0 __crt_stdio_output::output_processor<wchar_t,__crt_stdio_output::stream_output_adapter<wchar_t>,__crt_stdio_output::positional_parameter_base<wchar_t,__crt_stdio_output::stream_output_adapter<wchar_t> > >::state_case_flag()
FUNC 21dda 3d 0 __crt_stdio_output::output_processor<wchar_t,__crt_stdio_output::stream_output_adapter<wchar_t>,__crt_stdio_output::standard_base<wchar_t,__crt_stdio_output::stream_output_adapter<wchar_t> > >::state_case_flag()
FUNC 21e26 3d 0 __crt_stdio_output::output_processor<wchar_t,__crt_stdio_output::string_output_adapter<wchar_t>,__crt_stdio_output::format_validation_base<wchar_t,__crt_stdio_output::string_output_adapter<wchar_t> > >::state_case_flag()
FUNC 21e72 3d 0 __crt_stdio_output::output_processor<wchar_t,__crt_stdio_output::string_output_adapter<wchar_t>,__crt_stdio_output::positional_parameter_base<wchar_t,__crt_stdio_output::string_output_adapter<wchar_t> > >::state_case_flag()
FUNC 21ebe 3d 0 __crt_stdio_output::output_processor<wchar_t,__crt_stdio_output::string_output_adapter<wchar_t>,__crt_stdio_output::standard_base<wchar_t,__crt_stdio_output::string_output_adapter<wchar_t> > >::state_case_flag()
FUNC 21f0a 1f 0 __crt_stdio_output::output_processor<char,__crt_stdio_output::stream_output_adapter<char>,__crt_stdio_output::format_validation_base<char,__crt_stdio_output::stream_output_adapter<char> > >::state_case_normal()
FUNC 21f30 31 0 __crt_stdio_output::output_processor<char,__crt_stdio_output::stream_output_adapter<char>,__crt_stdio_output::positional_parameter_base<char,__crt_stdio_output::stream_output_adapter<char> > >::state_case_normal()
FUNC 21f6d 1f 0 __crt_stdio_output::output_processor<char,__crt_stdio_output::stream_output_adapter<char>,__crt_stdio_output::standard_base<char,__crt_stdio_output::stream_output_adapter<char> > >::state_case_normal()
FUNC 21f93 1f 0 __crt_stdio_output::output_processor<char,__crt_stdio_output::string_output_adapter<char>,__crt_stdio_output::format_validation_base<char,__crt_stdio_output::string_output_adapter<char> > >::state_case_normal()
FUNC 21fb9 31 0 __crt_stdio_output::output_processor<char,__crt_stdio_output::string_output_adapter<char>,__crt_stdio_output::positional_parameter_base<char,__crt_stdio_output::string_output_adapter<char> > >::state_case_normal()
FUNC 21ff6 1f 0 __crt_stdio_output::output_processor<char,__crt_stdio_output::string_output_adapter<char>,__crt_stdio_output::standard_base<char,__crt_stdio_output::string_output_adapter<char> > >::state_case_normal()
FUNC 2201c 1f 0 __crt_stdio_output::output_processor<wchar_t,__crt_stdio_output::stream_output_adapter<wchar_t>,__crt_stdio_output::format_validation_base<wchar_t,__crt_stdio_output::stream_output_adapter<wchar_t> > >::state_case_normal()
FUNC 22042 31 0 __crt_stdio_output::output_processor<wchar_t,__crt_stdio_output::stream_output_adapter<wchar_t>,__crt_stdio_output::positional_parameter_base<wchar_t,__crt_stdio_output::stream_output_adapter<wchar_t> > >::state_case_normal()
FUNC 2207f 1f 0 __crt_stdio_output::output_processor<wchar_t,__crt_stdio_output::stream_output_adapter<wchar_t>,__crt_stdio_output::standard_base<wchar_t,__crt_stdio_output::stream_output_adapter<wchar_t> > >::state_case_normal()
FUNC 220a5 1f 0 __crt_stdio_output::output_processor<wchar_t,__crt_stdio_output::string_output_adapter<wchar_t>,__crt_stdio_output::format_validation_base<wchar_t,__crt_stdio_output::string_output_adapter<wchar_t> > >::state_case_normal()
FUNC 220cb 31 0 __crt_stdio_output::output_processor<wchar_t,__crt_stdio_output::string_output_adapter<wchar_t>,__crt_stdio_output::positional_parameter_base<wchar_t,__crt_stdio_output::string_output_adapter<wchar_t> > >::state_case_normal()
FUNC 22108 1f 0 __crt_stdio_output::output_processor<wchar_t,__crt_stdio_output::string_output_adapter<wchar_t>,__crt_stdio_output::standard_base<wchar_t,__crt_stdio_output::string_output_adapter<wchar_t> > >::state_case_normal()
FUNC 2212e 3a 0 __crt_stdio_output::output_processor<char,__crt_stdio_output::stream_output_adapter<char>,__crt_stdio_output::format_validation_base<char,__crt_stdio_output::stream_output_adapter<char> > >::state_case_normal_common()
FUNC 22176 3a 0 __crt_stdio_output::output_processor<char,__crt_stdio_output::stream_output_adapter<char>,__crt_stdio_output::positional_parameter_base<char,__crt_stdio_output::stream_output_adapter<char> > >::state_case_normal_common()
FUNC 221be 3a 0 __crt_stdio_output::output_processor<char,__crt_stdio_output::stream_output_adapter<char>,__crt_stdio_output::standard_base<char,__crt_stdio_output::stream_output_adapter<char> > >::state_case_normal_common()
FUNC 22206 2a 0 __crt_stdio_output::output_processor<char,__crt_stdio_output::string_output_adapter<char>,__crt_stdio_output::format_validation_base<char,__crt_stdio_output::string_output_adapter<char> > >::state_case_normal_common()
FUNC 2223a 2a 0 __crt_stdio_output::output_processor<char,__crt_stdio_output::string_output_adapter<char>,__crt_stdio_output::positional_parameter_base<char,__crt_stdio_output::string_output_adapter<char> > >::state_case_normal_common()
FUNC 2226e 2a 0 __crt_stdio_output::output_processor<char,__crt_stdio_output::string_output_adapter<char>,__crt_stdio_output::standard_base<char,__crt_stdio_output::string_output_adapter<char> > >::state_case_normal_common()
FUNC 222a2 2a 0 __crt_stdio_output::output_processor<wchar_t,__crt_stdio_output::stream_output_adapter<wchar_t>,__crt_stdio_output::format_validation_base<wchar_t,__crt_stdio_output::stream_output_adapter<wchar_t> > >::state_case_normal_common()
FUNC 222d6 2a 0 __crt_stdio_output::output_processor<wchar_t,__crt_stdio_output::stream_output_adapter<wchar_t>,__crt_stdio_output::positional_parameter_base<wchar_t,__crt_stdio_output::stream_output_adapter<wchar_t> > >::state_case_normal_common()
FUNC 2230a 2a 0 __crt_stdio_output::output_processor<wchar_t,__crt_stdio_output::stream_output_adapter<wchar_t>,__crt_stdio_output::standard_base<wchar_t,__crt_stdio_output::stream_output_adapter<wchar_t> > >::state_case_normal_common()
FUNC 2233e 1b 0 __crt_stdio_output::output_processor<wchar_t,__crt_stdio_output::string_output_adapter<wchar_t>,__crt_stdio_output::format_validation_base<wchar_t,__crt_stdio_output::string_output_adapter<wchar_t> > >::state_case_normal_common()
FUNC 2235f 1b 0 __crt_stdio_output::output_processor<wchar_t,__crt_stdio_output::string_output_adapter<wchar_t>,__crt_stdio_output::positional_parameter_base<wchar_t,__crt_stdio_output::string_output_adapter<wchar_t> > >::state_case_normal_common()
FUNC 22380 1b 0 __crt_stdio_output::output_processor<wchar_t,__crt_stdio_output::string_output_adapter<wchar_t>,__crt_stdio_output::standard_base<wchar_t,__crt_stdio_output::string_output_adapter<wchar_t> > >::state_case_normal_common()
FUNC 223a1 6d 0 __crt_stdio_output::output_processor<char,__crt_stdio_output::stream_output_adapter<char>,__crt_stdio_output::format_validation_base<char,__crt_stdio_output::stream_output_adapter<char> > >::state_case_normal_tchar(char)
FUNC 22429 6d 0 __crt_stdio_output::output_processor<char,__crt_stdio_output::stream_output_adapter<char>,__crt_stdio_output::positional_parameter_base<char,__crt_stdio_output::stream_output_adapter<char> > >::state_case_normal_tchar(char)
FUNC 224b1 6d 0 __crt_stdio_output::output_processor<char,__crt_stdio_output::stream_output_adapter<char>,__crt_stdio_output::standard_base<char,__crt_stdio_output::stream_output_adapter<char> > >::state_case_normal_tchar(char)
FUNC 22539 64 0 __crt_stdio_output::output_processor<char,__crt_stdio_output::string_output_adapter<char>,__crt_stdio_output::format_validation_base<char,__crt_stdio_output::string_output_adapter<char> > >::state_case_normal_tchar(char)
FUNC 225b6 64 0 __crt_stdio_output::output_processor<char,__crt_stdio_output::string_output_adapter<char>,__crt_stdio_output::positional_parameter_base<char,__crt_stdio_output::string_output_adapter<char> > >::state_case_normal_tchar(char)
FUNC 22633 64 0 __crt_stdio_output::output_processor<char,__crt_stdio_output::string_output_adapter<char>,__crt_stdio_output::standard_base<char,__crt_stdio_output::string_output_adapter<char> > >::state_case_normal_tchar(char)
FUNC 226b0 9 0 __crt_stdio_output::output_processor<wchar_t,__crt_stdio_output::stream_output_adapter<wchar_t>,__crt_stdio_output::format_validation_base<wchar_t,__crt_stdio_output::stream_output_adapter<wchar_t> > >::state_case_normal_tchar(wchar_t)
FUNC 226bb 9 0 __crt_stdio_output::output_processor<wchar_t,__crt_stdio_output::stream_output_adapter<wchar_t>,__crt_stdio_output::positional_parameter_base<wchar_t,__crt_stdio_output::stream_output_adapter<wchar_t> > >::state_case_normal_tchar(wchar_t)
FUNC 226c6 9 0 __crt_stdio_output::output_processor<wchar_t,__crt_stdio_output::stream_output_adapter<wchar_t>,__crt_stdio_output::standard_base<wchar_t,__crt_stdio_output::stream_output_adapter<wchar_t> > >::state_case_normal_tchar(wchar_t)
FUNC 226d1 9 0 __crt_stdio_output::output_processor<wchar_t,__crt_stdio_output::string_output_adapter<wchar_t>,__crt_stdio_output::format_validation_base<wchar_t,__crt_stdio_output::string_output_adapter<wchar_t> > >::state_case_normal_tchar(wchar_t)
FUNC 226dc 9 0 __crt_stdio_output::output_processor<wchar_t,__crt_stdio_output::string_output_adapter<wchar_t>,__crt_stdio_output::positional_parameter_base<wchar_t,__crt_stdio_output::string_output_adapter<wchar_t> > >::state_case_normal_tchar(wchar_t)
FUNC 226e7 9 0 __crt_stdio_output::output_processor<wchar_t,__crt_stdio_output::string_output_adapter<wchar_t>,__crt_stdio_output::standard_base<wchar_t,__crt_stdio_output::string_output_adapter<wchar_t> > >::state_case_normal_tchar(wchar_t)
FUNC 226f2 18 0 __crt_stdio_output::output_processor<char,__crt_stdio_output::stream_output_adapter<char>,__crt_stdio_output::format_validation_base<char,__crt_stdio_output::stream_output_adapter<char> > >::state_case_percent()
FUNC 22710 18 0 __crt_stdio_output::output_processor<char,__crt_stdio_output::stream_output_adapter<char>,__crt_stdio_output::positional_parameter_base<char,__crt_stdio_output::stream_output_adapter<char> > >::state_case_percent()
FUNC 2272e 18 0 __crt_stdio_output::output_processor<char,__crt_stdio_output::stream_output_adapter<char>,__crt_stdio_output::standard_base<char,__crt_stdio_output::stream_output_adapter<char> > >::state_case_percent()
FUNC 2274c 18 0 __crt_stdio_output::output_processor<char,__crt_stdio_output::string_output_adapter<char>,__crt_stdio_output::format_validation_base<char,__crt_stdio_output::string_output_adapter<char> > >::state_case_percent()
FUNC 2276a 18 0 __crt_stdio_output::output_processor<char,__crt_stdio_output::string_output_adapter<char>,__crt_stdio_output::positional_parameter_base<char,__crt_stdio_output::string_output_adapter<char> > >::state_case_percent()
FUNC 22788 18 0 __crt_stdio_output::output_processor<char,__crt_stdio_output::string_output_adapter<char>,__crt_stdio_output::standard_base<char,__crt_stdio_output::string_output_adapter<char> > >::state_case_percent()
FUNC 227a6 18 0 __crt_stdio_output::output_processor<wchar_t,__crt_stdio_output::stream_output_adapter<wchar_t>,__crt_stdio_output::format_validation_base<wchar_t,__crt_stdio_output::stream_output_adapter<wchar_t> > >::state_case_percent()
FUNC 227c4 18 0 __crt_stdio_output::output_processor<wchar_t,__crt_stdio_output::stream_output_adapter<wchar_t>,__crt_stdio_output::positional_parameter_base<wchar_t,__crt_stdio_output::stream_output_adapter<wchar_t> > >::state_case_percent()
FUNC 227e2 18 0 __crt_stdio_output::output_processor<wchar_t,__crt_stdio_output::stream_output_adapter<wchar_t>,__crt_stdio_output::standard_base<wchar_t,__crt_stdio_output::stream_output_adapter<wchar_t> > >::state_case_percent()
FUNC 22800 18 0 __crt_stdio_output::output_processor<wchar_t,__crt_stdio_output::string_output_adapter<wchar_t>,__crt_stdio_output::format_validation_base<wchar_t,__crt_stdio_output::string_output_adapter<wchar_t> > >::state_case_percent()
FUNC 2281e 18 0 __crt_stdio_output::output_processor<wchar_t,__crt_stdio_output::string_output_adapter<wchar_t>,__crt_stdio_output::positional_parameter_base<wchar_t,__crt_stdio_output::string_output_adapter<wchar_t> > >::state_case_percent()
FUNC 2283c 18 0 __crt_stdio_output::output_processor<wchar_t,__crt_stdio_output::string_output_adapter<wchar_t>,__crt_stdio_output::standard_base<wchar_t,__crt_stdio_output::string_output_adapter<wchar_t> > >::state_case_percent()
FUNC 2285a 26 0 __crt_stdio_output::output_processor<char,__crt_stdio_output::stream_output_adapter<char>,__crt_stdio_output::format_validation_base<char,__crt_stdio_output::stream_output_adapter<char> > >::state_case_precision()
FUNC 22889 3a 0 __crt_stdio_output::output_processor<char,__crt_stdio_output::stream_output_adapter<char>,__crt_stdio_output::positional_parameter_base<char,__crt_stdio_output::stream_output_adapter<char> > >::state_case_precision()
FUNC 228d1 26 0 __crt_stdio_output::output_processor<char,__crt_stdio_output::stream_output_adapter<char>,__crt_stdio_output::standard_base<char,__crt_stdio_output::stream_output_adapter<char> > >::state_case_precision()
FUNC 22900 26 0 __crt_stdio_output::output_processor<char,__crt_stdio_output::string_output_adapter<char>,__crt_stdio_output::format_validation_base<char,__crt_stdio_output::string_output_adapter<char> > >::state_case_precision()
FUNC 2292f 3a 0 __crt_stdio_output::output_processor<char,__crt_stdio_output::string_output_adapter<char>,__crt_stdio_output::positional_parameter_base<char,__crt_stdio_output::string_output_adapter<char> > >::state_case_precision()
FUNC 22977 26 0 __crt_stdio_output::output_processor<char,__crt_stdio_output::string_output_adapter<char>,__crt_stdio_output::standard_base<char,__crt_stdio_output::string_output_adapter<char> > >::state_case_precision()
FUNC 229a6 27 0 __crt_stdio_output::output_processor<wchar_t,__crt_stdio_output::stream_output_adapter<wchar_t>,__crt_stdio_output::format_validation_base<wchar_t,__crt_stdio_output::stream_output_adapter<wchar_t> > >::state_case_precision()
FUNC 229d6 3b 0 __crt_stdio_output::output_processor<wchar_t,__crt_stdio_output::stream_output_adapter<wchar_t>,__crt_stdio_output::positional_parameter_base<wchar_t,__crt_stdio_output::stream_output_adapter<wchar_t> > >::state_case_precision()
FUNC 22a1f 27 0 __crt_stdio_output::output_processor<wchar_t,__crt_stdio_output::stream_output_adapter<wchar_t>,__crt_stdio_output::standard_base<wchar_t,__crt_stdio_output::stream_output_adapter<wchar_t> > >::state_case_precision()
FUNC 22a4f 27 0 __crt_stdio_output::output_processor<wchar_t,__crt_stdio_output::string_output_adapter<wchar_t>,__crt_stdio_output::format_validation_base<wchar_t,__crt_stdio_output::string_output_adapter<wchar_t> > >::state_case_precision()
FUNC 22a7f 3b 0 __crt_stdio_output::output_processor<wchar_t,__crt_stdio_output::string_output_adapter<wchar_t>,__crt_stdio_output::positional_parameter_base<wchar_t,__crt_stdio_output::string_output_adapter<wchar_t> > >::state_case_precision()
FUNC 22ac8 27 0 __crt_stdio_output::output_processor<wchar_t,__crt_stdio_output::string_output_adapter<wchar_t>,__crt_stdio_output::standard_base<wchar_t,__crt_stdio_output::string_output_adapter<wchar_t> > >::state_case_precision()
FUNC 22af8 14e 0 __crt_stdio_output::output_processor<char,__crt_stdio_output::stream_output_adapter<char>,__crt_stdio_output::format_validation_base<char,__crt_stdio_output::stream_output_adapter<char> > >::state_case_size()
FUNC 22c99 14e 0 __crt_stdio_output::output_processor<char,__crt_stdio_output::stream_output_adapter<char>,__crt_stdio_output::positional_parameter_base<char,__crt_stdio_output::stream_output_adapter<char> > >::state_case_size()
FUNC 22e3a 14e 0 __crt_stdio_output::output_processor<char,__crt_stdio_output::stream_output_adapter<char>,__crt_stdio_output::standard_base<char,__crt_stdio_output::stream_output_adapter<char> > >::state_case_size()
FUNC 22fdb 14e 0 __crt_stdio_output::output_processor<char,__crt_stdio_output::string_output_adapter<char>,__crt_stdio_output::format_validation_base<char,__crt_stdio_output::string_output_adapter<char> > >::state_case_size()
FUNC 2317c 14e 0 __crt_stdio_output::output_processor<char,__crt_stdio_output::string_output_adapter<char>,__crt_stdio_output::positional_parameter_base<char,__crt_stdio_output::string_output_adapter<char> > >::state_case_size()
FUNC 2331d 14e 0 __crt_stdio_output::output_processor<char,__crt_stdio_output::string_output_adapter<char>,__crt_stdio_output::standard_base<char,__crt_stdio_output::string_output_adapter<char> > >::state_case_size()
FUNC 234be 178 0 __crt_stdio_output::output_processor<wchar_t,__crt_stdio_output::stream_output_adapter<wchar_t>,__crt_stdio_output::format_validation_base<wchar_t,__crt_stdio_output::stream_output_adapter<wchar_t> > >::state_case_size()
FUNC 23694 178 0 __crt_stdio_output::output_processor<wchar_t,__crt_stdio_output::stream_output_adapter<wchar_t>,__crt_stdio_output::positional_parameter_base<wchar_t,__crt_stdio_output::stream_output_adapter<wchar_t> > >::state_case_size()
FUNC 2386a 178 0 __crt_stdio_output::output_processor<wchar_t,__crt_stdio_output::stream_output_adapter<wchar_t>,__crt_stdio_output::standard_base<wchar_t,__crt_stdio_output::stream_output_adapter<wchar_t> > >::state_case_size()
FUNC 23a40 178 0 __crt_stdio_output::output_processor<wchar_t,__crt_stdio_output::string_output_adapter<wchar_t>,__crt_stdio_output::format_validation_base<wchar_t,__crt_stdio_output::string_output_adapter<wchar_t> > >::state_case_size()
FUNC 23c16 178 0 __crt_stdio_output::output_processor<wchar_t,__crt_stdio_output::string_output_adapter<wchar_t>,__crt_stdio_output::positional_parameter_base<wchar_t,__crt_stdio_output::string_output_adapter<wchar_t> > >::state_case_size()
FUNC 23dec 178 0 __crt_stdio_output::output_processor<wchar_t,__crt_stdio_output::string_output_adapter<wchar_t>,__crt_stdio_output::standard_base<wchar_t,__crt_stdio_output::string_output_adapter<wchar_t> > >::state_case_size()
FUNC 23fc2 232 0 __crt_stdio_output::output_processor<char,__crt_stdio_output::stream_output_adapter<char>,__crt_stdio_output::format_validation_base<char,__crt_stdio_output::stream_output_adapter<char> > >::state_case_type()
FUNC 24280 241 0 __crt_stdio_output::output_processor<char,__crt_stdio_output::stream_output_adapter<char>,__crt_stdio_output::positional_parameter_base<char,__crt_stdio_output::stream_output_adapter<char> > >::state_case_type()
FUNC 24551 232 0 __crt_stdio_output::output_processor<char,__crt_stdio_output::stream_output_adapter<char>,__crt_stdio_output::standard_base<char,__crt_stdio_output::stream_output_adapter<char> > >::state_case_type()
FUNC 2480f 232 0 __crt_stdio_output::output_processor<char,__crt_stdio_output::string_output_adapter<char>,__crt_stdio_output::format_validation_base<char,__crt_stdio_output::string_output_adapter<char> > >::state_case_type()
FUNC 24acd 241 0 __crt_stdio_output::output_processor<char,__crt_stdio_output::string_output_adapter<char>,__crt_stdio_output::positional_parameter_base<char,__crt_stdio_output::string_output_adapter<char> > >::state_case_type()
FUNC 24d9e 232 0 __crt_stdio_output::output_processor<char,__crt_stdio_output::string_output_adapter<char>,__crt_stdio_output::standard_base<char,__crt_stdio_output::string_output_adapter<char> > >::state_case_type()
FUNC 2505c 265 0 __crt_stdio_output::output_processor<wchar_t,__crt_stdio_output::stream_output_adapter<wchar_t>,__crt_stdio_output::format_validation_base<wchar_t,__crt_stdio_output::stream_output_adapter<wchar_t> > >::state_case_type()
FUNC 2535a 274 0 __crt_stdio_output::output_processor<wchar_t,__crt_stdio_output::stream_output_adapter<wchar_t>,__crt_stdio_output::positional_parameter_base<wchar_t,__crt_stdio_output::stream_output_adapter<wchar_t> > >::state_case_type()
FUNC 2566b 265 0 __crt_stdio_output::output_processor<wchar_t,__crt_stdio_output::stream_output_adapter<wchar_t>,__crt_stdio_output::standard_base<wchar_t,__crt_stdio_output::stream_output_adapter<wchar_t> > >::state_case_type()
FUNC 25969 265 0 __crt_stdio_output::output_processor<wchar_t,__crt_stdio_output::string_output_adapter<wchar_t>,__crt_stdio_output::format_validation_base<wchar_t,__crt_stdio_output::string_output_adapter<wchar_t> > >::state_case_type()
FUNC 25c67 274 0 __crt_stdio_output::output_processor<wchar_t,__crt_stdio_output::string_output_adapter<wchar_t>,__crt_stdio_output::positional_parameter_base<wchar_t,__crt_stdio_output::string_output_adapter<wchar_t> > >::state_case_type()
FUNC 25f78 265 0 __crt_stdio_output::output_processor<wchar_t,__crt_stdio_output::string_output_adapter<wchar_t>,__crt_stdio_output::standard_base<wchar_t,__crt_stdio_output::string_output_adapter<wchar_t> > >::state_case_type()
FUNC 26276 2b 0 __crt_stdio_output::output_processor<char,__crt_stdio_output::stream_output_adapter<char>,__crt_stdio_output::format_validation_base<char,__crt_stdio_output::stream_output_adapter<char> > >::state_case_width()
FUNC 262ab 40 0 __crt_stdio_output::output_processor<char,__crt_stdio_output::stream_output_adapter<char>,__crt_stdio_output::positional_parameter_base<char,__crt_stdio_output::stream_output_adapter<char> > >::state_case_width()
FUNC 262fb 2b 0 __crt_stdio_output::output_processor<char,__crt_stdio_output::stream_output_adapter<char>,__crt_stdio_output::standard_base<char,__crt_stdio_output::stream_output_adapter<char> > >::state_case_width()
FUNC 26330 2b 0 __crt_stdio_output::output_processor<char,__crt_stdio_output::string_output_adapter<char>,__crt_stdio_output::format_validation_base<char,__crt_stdio_output::string_output_adapter<char> > >::state_case_width()
FUNC 26365 40 0 __crt_stdio_output::output_processor<char,__crt_stdio_output::string_output_adapter<char>,__crt_stdio_output::positional_parameter_base<char,__crt_stdio_output::string_output_adapter<char> > >::state_case_width()
FUNC 263b5 2b 0 __crt_stdio_output::output_processor<char,__crt_stdio_output::string_output_adapter<char>,__crt_stdio_output::standard_base<char,__crt_stdio_output::string_output_adapter<char> > >::state_case_width()
FUNC 263ea 2c 0 __crt_stdio_output::output_processor<wchar_t,__crt_stdio_output::stream_output_adapter<wchar_t>,__crt_stdio_output::format_validation_base<wchar_t,__crt_stdio_output::stream_output_adapter<wchar_t> > >::state_case_width()
FUNC 26421 41 0 __crt_stdio_output::output_processor<wchar_t,__crt_stdio_output::stream_output_adapter<wchar_t>,__crt_stdio_output::positional_parameter_base<wchar_t,__crt_stdio_output::stream_output_adapter<wchar_t> > >::state_case_width()
FUNC 26472 2c 0 __crt_stdio_output::output_processor<wchar_t,__crt_stdio_output::stream_output_adapter<wchar_t>,__crt_stdio_output::standard_base<wchar_t,__crt_stdio_output::stream_output_adapter<wchar_t> > >::state_case_width()
FUNC 264a9 2c 0 __crt_stdio_output::output_processor<wchar_t,__crt_stdio_output::string_output_adapter<wchar_t>,__crt_stdio_output::format_validation_base<wchar_t,__crt_stdio_output::string_output_adapter<wchar_t> > >::state_case_width()
FUNC 264e0 41 0 __crt_stdio_output::output_processor<wchar_t,__crt_stdio_output::string_output_adapter<wchar_t>,__crt_stdio_output::positional_parameter_base<wchar_t,__crt_stdio_output::string_output_adapter<wchar_t> > >::state_case_width()
FUNC 26531 2c 0 __crt_stdio_output::output_processor<wchar_t,__crt_stdio_output::string_output_adapter<wchar_t>,__crt_stdio_output::standard_base<wchar_t,__crt_stdio_output::string_output_adapter<wchar_t> > >::state_case_width()
FUNC 26568 4 0 __crt_stdio_output::format_validation_base<char,__crt_stdio_output::stream_output_adapter<char> >::state_count()
FUNC 2656c 4 0 __crt_stdio_output::format_validation_base<char,__crt_stdio_output::string_output_adapter<char> >::state_count()
FUNC 26570 4 0 __crt_stdio_output::format_validation_base<wchar_t,__crt_stdio_output::stream_output_adapter<wchar_t> >::state_count()
FUNC 26574 4 0 __crt_stdio_output::format_validation_base<wchar_t,__crt_stdio_output::string_output_adapter<wchar_t> >::state_count()
FUNC 26578 4 0 __crt_stdio_output::standard_base<char,__crt_stdio_output::stream_output_adapter<char> >::state_count()
FUNC 2657c 4 0 __crt_stdio_output::standard_base<char,__crt_stdio_output::string_output_adapter<char> >::state_count()
FUNC 26580 4 0 __crt_stdio_output::standard_base<wchar_t,__crt_stdio_output::stream_output_adapter<wchar_t> >::state_count()
FUNC 26584 4 0 __crt_stdio_output::standard_base<wchar_t,__crt_stdio_output::string_output_adapter<wchar_t> >::state_count()
FUNC 26588 6 0 __crt_stdio_output::format_validation_base<char,__crt_stdio_output::stream_output_adapter<char> >::state_transition_table()
FUNC 2658e 6 0 __crt_stdio_output::format_validation_base<char,__crt_stdio_output::string_output_adapter<char> >::state_transition_table()
FUNC 26594 6 0 __crt_stdio_output::format_validation_base<wchar_t,__crt_stdio_output::stream_output_adapter<wchar_t> >::state_transition_table()
FUNC 2659a 6 0 __crt_stdio_output::format_validation_base<wchar_t,__crt_stdio_output::string_output_adapter<wchar_t> >::state_transition_table()
FUNC 265a0 6 0 __crt_stdio_output::standard_base<char,__crt_stdio_output::stream_output_adapter<char> >::state_transition_table()
FUNC 265a6 6 0 __crt_stdio_output::standard_base<char,__crt_stdio_output::string_output_adapter<char> >::state_transition_table()
FUNC 265ac 6 0 __crt_stdio_output::standard_base<wchar_t,__crt_stdio_output::stream_output_adapter<wchar_t> >::state_transition_table()
FUNC 265b2 6 0 __crt_stdio_output::standard_base<wchar_t,__crt_stdio_output::string_output_adapter<wchar_t> >::state_transition_table()
FUNC 265b8 6 0 __crt_stdio_output::common_data<char>::tchar_string(char)
FUNC 265be 4 0 __crt_stdio_output::common_data<char>::tchar_string()
FUNC 265c2 4 0 __crt_stdio_output::common_data<wchar_t>::tchar_string()
FUNC 265c6 6 0 __crt_stdio_output::common_data<wchar_t>::tchar_string(wchar_t)
FUNC 265cc 54 0 __crt_stdio_output::to_integer_size(const __crt_stdio_output::length_modifier)
FUNC 26635 a 0 __crt_stdio_output::output_processor<char,__crt_stdio_output::stream_output_adapter<char>,__crt_stdio_output::format_validation_base<char,__crt_stdio_output::stream_output_adapter<char> > >::type_case_X()
FUNC 26641 a 0 __crt_stdio_output::output_processor<char,__crt_stdio_output::stream_output_adapter<char>,__crt_stdio_output::positional_parameter_base<char,__crt_stdio_output::stream_output_adapter<char> > >::type_case_X()
FUNC 2664d a 0 __crt_stdio_output::output_processor<char,__crt_stdio_output::stream_output_adapter<char>,__crt_stdio_output::standard_base<char,__crt_stdio_output::stream_output_adapter<char> > >::type_case_X()
FUNC 26659 a 0 __crt_stdio_output::output_processor<char,__crt_stdio_output::string_output_adapter<char>,__crt_stdio_output::format_validation_base<char,__crt_stdio_output::string_output_adapter<char> > >::type_case_X()
FUNC 26665 a 0 __crt_stdio_output::output_processor<char,__crt_stdio_output::string_output_adapter<char>,__crt_stdio_output::positional_parameter_base<char,__crt_stdio_output::string_output_adapter<char> > >::type_case_X()
FUNC 26671 a 0 __crt_stdio_output::output_processor<char,__crt_stdio_output::string_output_adapter<char>,__crt_stdio_output::standard_base<char,__crt_stdio_output::string_output_adapter<char> > >::type_case_X()
FUNC 2667d a 0 __crt_stdio_output::output_processor<wchar_t,__crt_stdio_output::stream_output_adapter<wchar_t>,__crt_stdio_output::format_validation_base<wchar_t,__crt_stdio_output::stream_output_adapter<wchar_t> > >::type_case_X()
FUNC 26689 a 0 __crt_stdio_output::output_processor<wchar_t,__crt_stdio_output::stream_output_adapter<wchar_t>,__crt_stdio_output::positional_parameter_base<wchar_t,__crt_stdio_output::stream_output_adapter<wchar_t> > >::type_case_X()
FUNC 26695 a 0 __crt_stdio_output::output_processor<wchar_t,__crt_stdio_output::stream_output_adapter<wchar_t>,__crt_stdio_output::standard_base<wchar_t,__crt_stdio_output::stream_output_adapter<wchar_t> > >::type_case_X()
FUNC 266a1 a 0 __crt_stdio_output::output_processor<wchar_t,__crt_stdio_output::string_output_adapter<wchar_t>,__crt_stdio_output::format_validation_base<wchar_t,__crt_stdio_output::string_output_adapter<wchar_t> > >::type_case_X()
FUNC 266ad a 0 __crt_stdio_output::output_processor<wchar_t,__crt_stdio_output::string_output_adapter<wchar_t>,__crt_stdio_output::positional_parameter_base<wchar_t,__crt_stdio_output::string_output_adapter<wchar_t> > >::type_case_X()
FUNC 266b9 a 0 __crt_stdio_output::output_processor<wchar_t,__crt_stdio_output::string_output_adapter<wchar_t>,__crt_stdio_output::standard_base<wchar_t,__crt_stdio_output::string_output_adapter<wchar_t> > >::type_case_X()
FUNC 266c5 5a 0 __crt_stdio_output::output_processor<char,__crt_stdio_output::stream_output_adapter<char>,__crt_stdio_output::format_validation_base<char,__crt_stdio_output::stream_output_adapter<char> > >::type_case_Z()
FUNC 26735 d8 0 __crt_stdio_output::output_processor<char,__crt_stdio_output::stream_output_adapter<char>,__crt_stdio_output::positional_parameter_base<char,__crt_stdio_output::stream_output_adapter<char> > >::type_case_Z()
FUNC 26843 5a 0 __crt_stdio_output::output_processor<char,__crt_stdio_output::stream_output_adapter<char>,__crt_stdio_output::standard_base<char,__crt_stdio_output::stream_output_adapter<char> > >::type_case_Z()
FUNC 268b3 5a 0 __crt_stdio_output::output_processor<char,__crt_stdio_output::string_output_adapter<char>,__crt_stdio_output::format_validation_base<char,__crt_stdio_output::string_output_adapter<char> > >::type_case_Z()
FUNC 26923 d8 0 __crt_stdio_output::output_processor<char,__crt_stdio_output::string_output_adapter<char>,__crt_stdio_output::positional_parameter_base<char,__crt_stdio_output::string_output_adapter<char> > >::type_case_Z()
FUNC 26a31 5a 0 __crt_stdio_output::output_processor<char,__crt_stdio_output::string_output_adapter<char>,__crt_stdio_output::standard_base<char,__crt_stdio_output::string_output_adapter<char> > >::type_case_Z()
FUNC 26aa1 5a 0 __crt_stdio_output::output_processor<wchar_t,__crt_stdio_output::stream_output_adapter<wchar_t>,__crt_stdio_output::format_validation_base<wchar_t,__crt_stdio_output::stream_output_adapter<wchar_t> > >::type_case_Z()
FUNC 26b11 d8 0 __crt_stdio_output::output_processor<wchar_t,__crt_stdio_output::stream_output_adapter<wchar_t>,__crt_stdio_output::positional_parameter_base<wchar_t,__crt_stdio_output::stream_output_adapter<wchar_t> > >::type_case_Z()
FUNC 26c1f 5a 0 __crt_stdio_output::output_processor<wchar_t,__crt_stdio_output::stream_output_adapter<wchar_t>,__crt_stdio_output::standard_base<wchar_t,__crt_stdio_output::stream_output_adapter<wchar_t> > >::type_case_Z()
FUNC 26c8f 5a 0 __crt_stdio_output::output_processor<wchar_t,__crt_stdio_output::string_output_adapter<wchar_t>,__crt_stdio_output::format_validation_base<wchar_t,__crt_stdio_output::string_output_adapter<wchar_t> > >::type_case_Z()
FUNC 26cff d8 0 __crt_stdio_output::output_processor<wchar_t,__crt_stdio_output::string_output_adapter<wchar_t>,__crt_stdio_output::positional_parameter_base<wchar_t,__crt_stdio_output::string_output_adapter<wchar_t> > >::type_case_Z()
FUNC 26e0d 5a 0 __crt_stdio_output::output_processor<wchar_t,__crt_stdio_output::string_output_adapter<wchar_t>,__crt_stdio_output::standard_base<wchar_t,__crt_stdio_output::string_output_adapter<wchar_t> > >::type_case_Z()
FUNC 26e7d 14f 0 __crt_stdio_output::output_processor<char,__crt_stdio_output::stream_output_adapter<char>,__crt_stdio_output::format_validation_base<char,__crt_stdio_output::stream_output_adapter<char> > >::type_case_a()
FUNC 2701f 17b 0 __crt_stdio_output::output_processor<char,__crt_stdio_output::stream_output_adapter<char>,__crt_stdio_output::positional_parameter_base<char,__crt_stdio_output::stream_output_adapter<char> > >::type_case_a()
FUNC 271f8 14f 0 __crt_stdio_output::output_processor<char,__crt_stdio_output::stream_output_adapter<char>,__crt_stdio_output::standard_base<char,__crt_stdio_output::stream_output_adapter<char> > >::type_case_a()
FUNC 2739a 14f 0 __crt_stdio_output::output_processor<char,__crt_stdio_output::string_output_adapter<char>,__crt_stdio_output::format_validation_base<char,__crt_stdio_output::string_output_adapter<char> > >::type_case_a()
FUNC 2753c 17b 0 __crt_stdio_output::output_processor<char,__crt_stdio_output::string_output_adapter<char>,__crt_stdio_output::positional_parameter_base<char,__crt_stdio_output::string_output_adapter<char> > >::type_case_a()
FUNC 27715 14f 0 __crt_stdio_output::output_processor<char,__crt_stdio_output::string_output_adapter<char>,__crt_stdio_output::standard_base<char,__crt_stdio_output::string_output_adapter<char> > >::type_case_a()
FUNC 278b7 165 0 __crt_stdio_output::output_processor<wchar_t,__crt_stdio_output::stream_output_adapter<wchar_t>,__crt_stdio_output::format_validation_base<wchar_t,__crt_stdio_output::stream_output_adapter<wchar_t> > >::type_case_a()
FUNC 27a75 191 0 __crt_stdio_output::output_processor<wchar_t,__crt_stdio_output::stream_output_adapter<wchar_t>,__crt_stdio_output::positional_parameter_base<wchar_t,__crt_stdio_output::stream_output_adapter<wchar_t> > >::type_case_a()
FUNC 27c6a 165 0 __crt_stdio_output::output_processor<wchar_t,__crt_stdio_output::stream_output_adapter<wchar_t>,__crt_stdio_output::standard_base<wchar_t,__crt_stdio_output::stream_output_adapter<wchar_t> > >::type_case_a()
FUNC 27e28 165 0 __crt_stdio_output::output_processor<wchar_t,__crt_stdio_output::string_output_adapter<wchar_t>,__crt_stdio_output::format_validation_base<wchar_t,__crt_stdio_output::string_output_adapter<wchar_t> > >::type_case_a()
FUNC 27fe6 191 0 __crt_stdio_output::output_processor<wchar_t,__crt_stdio_output::string_output_adapter<wchar_t>,__crt_stdio_output::positional_parameter_base<wchar_t,__crt_stdio_output::string_output_adapter<wchar_t> > >::type_case_a()
FUNC 281db 165 0 __crt_stdio_output::output_processor<wchar_t,__crt_stdio_output::string_output_adapter<wchar_t>,__crt_stdio_output::standard_base<wchar_t,__crt_stdio_output::string_output_adapter<wchar_t> > >::type_case_a()
FUNC 28399 8 0 __crt_stdio_output::output_processor<char,__crt_stdio_output::stream_output_adapter<char>,__crt_stdio_output::format_validation_base<char,__crt_stdio_output::stream_output_adapter<char> > >::type_case_c()
FUNC 283a3 8 0 __crt_stdio_output::output_processor<char,__crt_stdio_output::stream_output_adapter<char>,__crt_stdio_output::positional_parameter_base<char,__crt_stdio_output::stream_output_adapter<char> > >::type_case_c()
FUNC 283ad 8 0 __crt_stdio_output::output_processor<char,__crt_stdio_output::stream_output_adapter<char>,__crt_stdio_output::standard_base<char,__crt_stdio_output::stream_output_adapter<char> > >::type_case_c()
FUNC 283b7 8 0 __crt_stdio_output::output_processor<char,__crt_stdio_output::string_output_adapter<char>,__crt_stdio_output::format_validation_base<char,__crt_stdio_output::string_output_adapter<char> > >::type_case_c()
FUNC 283c1 8 0 __crt_stdio_output::output_processor<char,__crt_stdio_output::string_output_adapter<char>,__crt_stdio_output::positional_parameter_base<char,__crt_stdio_output::string_output_adapter<char> > >::type_case_c()
FUNC 283cb 8 0 __crt_stdio_output::output_processor<char,__crt_stdio_output::string_output_adapter<char>,__crt_stdio_output::standard_base<char,__crt_stdio_output::string_output_adapter<char> > >::type_case_c()
FUNC 283d5 8 0 __crt_stdio_output::output_processor<wchar_t,__crt_stdio_output::stream_output_adapter<wchar_t>,__crt_stdio_output::format_validation_base<wchar_t,__crt_stdio_output::stream_output_adapter<wchar_t> > >::type_case_c()
FUNC 283df 8 0 __crt_stdio_output::output_processor<wchar_t,__crt_stdio_output::stream_output_adapter<wchar_t>,__crt_stdio_output::positional_parameter_base<wchar_t,__crt_stdio_output::stream_output_adapter<wchar_t> > >::type_case_c()
FUNC 283e9 8 0 __crt_stdio_output::output_processor<wchar_t,__crt_stdio_output::stream_output_adapter<wchar_t>,__crt_stdio_output::standard_base<wchar_t,__crt_stdio_output::stream_output_adapter<wchar_t> > >::type_case_c()
FUNC 283f3 8 0 __crt_stdio_output::output_processor<wchar_t,__crt_stdio_output::string_output_adapter<wchar_t>,__crt_stdio_output::format_validation_base<wchar_t,__crt_stdio_output::string_output_adapter<wchar_t> > >::type_case_c()
FUNC 283fd 8 0 __crt_stdio_output::output_processor<wchar_t,__crt_stdio_output::string_output_adapter<wchar_t>,__crt_stdio_output::positional_parameter_base<wchar_t,__crt_stdio_output::string_output_adapter<wchar_t> > >::type_case_c()
FUNC 28407 8 0 __crt_stdio_output::output_processor<wchar_t,__crt_stdio_output::string_output_adapter<wchar_t>,__crt_stdio_output::standard_base<wchar_t,__crt_stdio_output::string_output_adapter<wchar_t> > >::type_case_c()
FUNC 28411 90 0 __crt_stdio_output::output_processor<char,__crt_stdio_output::stream_output_adapter<char>,__crt_stdio_output::format_validation_base<char,__crt_stdio_output::stream_output_adapter<char> > >::type_case_c_tchar(char)
FUNC 284c5 be 0 __crt_stdio_output::output_processor<char,__crt_stdio_output::stream_output_adapter<char>,__crt_stdio_output::positional_parameter_base<char,__crt_stdio_output::stream_output_adapter<char> > >::type_case_c_tchar(char)
FUNC 285b2 90 0 __crt_stdio_output::output_processor<char,__crt_stdio_output::stream_output_adapter<char>,__crt_stdio_output::standard_base<char,__crt_stdio_output::stream_output_adapter<char> > >::type_case_c_tchar(char)
FUNC 28666 90 0 __crt_stdio_output::output_processor<char,__crt_stdio_output::string_output_adapter<char>,__crt_stdio_output::format_validation_base<char,__crt_stdio_output::string_output_adapter<char> > >::type_case_c_tchar(char)
FUNC 2871a be 0 __crt_stdio_output::output_processor<char,__crt_stdio_output::string_output_adapter<char>,__crt_stdio_output::positional_parameter_base<char,__crt_stdio_output::string_output_adapter<char> > >::type_case_c_tchar(char)
FUNC 28807 90 0 __crt_stdio_output::output_processor<char,__crt_stdio_output::string_output_adapter<char>,__crt_stdio_output::standard_base<char,__crt_stdio_output::string_output_adapter<char> > >::type_case_c_tchar(char)
FUNC 288bb 96 0 __crt_stdio_output::output_processor<wchar_t,__crt_stdio_output::stream_output_adapter<wchar_t>,__crt_stdio_output::format_validation_base<wchar_t,__crt_stdio_output::stream_output_adapter<wchar_t> > >::type_case_c_tchar(wchar_t)
FUNC 28976 ad 0 __crt_stdio_output::output_processor<wchar_t,__crt_stdio_output::stream_output_adapter<wchar_t>,__crt_stdio_output::positional_parameter_base<wchar_t,__crt_stdio_output::stream_output_adapter<wchar_t> > >::type_case_c_tchar(wchar_t)
FUNC 28a4e 96 0 __crt_stdio_output::output_processor<wchar_t,__crt_stdio_output::stream_output_adapter<wchar_t>,__crt_stdio_output::standard_base<wchar_t,__crt_stdio_output::stream_output_adapter<wchar_t> > >::type_case_c_tchar(wchar_t)
FUNC 28b09 96 0 __crt_stdio_output::output_processor<wchar_t,__crt_stdio_output::string_output_adapter<wchar_t>,__crt_stdio_output::format_validation_base<wchar_t,__crt_stdio_output::string_output_adapter<wchar_t> > >::type_case_c_tchar(wchar_t)
FUNC 28bc4 ad 0 __crt_stdio_output::output_processor<wchar_t,__crt_stdio_output::string_output_adapter<wchar_t>,__crt_stdio_output::positional_parameter_base<wchar_t,__crt_stdio_output::string_output_adapter<wchar_t> > >::type_case_c_tchar(wchar_t)
FUNC 28c9c 96 0 __crt_stdio_output::output_processor<wchar_t,__crt_stdio_output::string_output_adapter<wchar_t>,__crt_stdio_output::standard_base<wchar_t,__crt_stdio_output::string_output_adapter<wchar_t> > >::type_case_c_tchar(wchar_t)
FUNC 28d57 e 0 __crt_stdio_output::output_processor<char,__crt_stdio_output::stream_output_adapter<char>,__crt_stdio_output::format_validation_base<char,__crt_stdio_output::stream_output_adapter<char> > >::type_case_d()
FUNC 28d68 e 0 __crt_stdio_output::output_processor<char,__crt_stdio_output::stream_output_adapter<char>,__crt_stdio_output::positional_parameter_base<char,__crt_stdio_output::stream_output_adapter<char> > >::type_case_d()
FUNC 28d79 e 0 __crt_stdio_output::output_processor<char,__crt_stdio_output::stream_output_adapter<char>,__crt_stdio_output::standard_base<char,__crt_stdio_output::stream_output_adapter<char> > >::type_case_d()
FUNC 28d8a e 0 __crt_stdio_output::output_processor<char,__crt_stdio_output::string_output_adapter<char>,__crt_stdio_output::format_validation_base<char,__crt_stdio_output::string_output_adapter<char> > >::type_case_d()
FUNC 28d9b e 0 __crt_stdio_output::output_processor<char,__crt_stdio_output::string_output_adapter<char>,__crt_stdio_output::positional_parameter_base<char,__crt_stdio_output::string_output_adapter<char> > >::type_case_d()
FUNC 28dac e 0 __crt_stdio_output::output_processor<char,__crt_stdio_output::string_output_adapter<char>,__crt_stdio_output::standard_base<char,__crt_stdio_output::string_output_adapter<char> > >::type_case_d()
FUNC 28dbd e 0 __crt_stdio_output::output_processor<wchar_t,__crt_stdio_output::stream_output_adapter<wchar_t>,__crt_stdio_output::format_validation_base<wchar_t,__crt_stdio_output::stream_output_adapter<wchar_t> > >::type_case_d()
FUNC 28dce e 0 __crt_stdio_output::output_processor<wchar_t,__crt_stdio_output::stream_output_adapter<wchar_t>,__crt_stdio_output::positional_parameter_base<wchar_t,__crt_stdio_output::stream_output_adapter<wchar_t> > >::type_case_d()
FUNC 28ddf e 0 __crt_stdio_output::output_processor<wchar_t,__crt_stdio_output::stream_output_adapter<wchar_t>,__crt_stdio_output::standard_base<wchar_t,__crt_stdio_output::stream_output_adapter<wchar_t> > >::type_case_d()
FUNC 28df0 e 0 __crt_stdio_output::output_processor<wchar_t,__crt_stdio_output::string_output_adapter<wchar_t>,__crt_stdio_output::format_validation_base<wchar_t,__crt_stdio_output::string_output_adapter<wchar_t> > >::type_case_d()
FUNC 28e01 e 0 __crt_stdio_output::output_processor<wchar_t,__crt_stdio_output::string_output_adapter<wchar_t>,__crt_stdio_output::positional_parameter_base<wchar_t,__crt_stdio_output::string_output_adapter<wchar_t> > >::type_case_d()
FUNC 28e12 e 0 __crt_stdio_output::output_processor<wchar_t,__crt_stdio_output::string_output_adapter<wchar_t>,__crt_stdio_output::standard_base<wchar_t,__crt_stdio_output::string_output_adapter<wchar_t> > >::type_case_d()
FUNC 28e23 151 0 __crt_stdio_output::output_processor<char,__crt_stdio_output::stream_output_adapter<char>,__crt_stdio_output::format_validation_base<char,__crt_stdio_output::stream_output_adapter<char> > >::type_case_integer(const unsigned int, const bool)
FUNC 28fc8 181 0 __crt_stdio_output::output_processor<char,__crt_stdio_output::stream_output_adapter<char>,__crt_stdio_output::positional_parameter_base<char,__crt_stdio_output::stream_output_adapter<char> > >::type_case_integer(const unsigned int, const bool)
FUNC 291a9 151 0 __crt_stdio_output::output_processor<char,__crt_stdio_output::stream_output_adapter<char>,__crt_stdio_output::standard_base<char,__crt_stdio_output::stream_output_adapter<char> > >::type_case_integer(const unsigned int, const bool)
FUNC 2934e 151 0 __crt_stdio_output::output_processor<char,__crt_stdio_output::string_output_adapter<char>,__crt_stdio_output::format_validation_base<char,__crt_stdio_output::string_output_adapter<char> > >::type_case_integer(const unsigned int, const bool)
FUNC 294f3 181 0 __crt_stdio_output::output_processor<char,__crt_stdio_output::string_output_adapter<char>,__crt_stdio_output::positional_parameter_base<char,__crt_stdio_output::string_output_adapter<char> > >::type_case_integer(const unsigned int, const bool)
FUNC 296d4 151 0 __crt_stdio_output::output_processor<char,__crt_stdio_output::string_output_adapter<char>,__crt_stdio_output::standard_base<char,__crt_stdio_output::string_output_adapter<char> > >::type_case_integer(const unsigned int, const bool)
FUNC 29879 155 0 __crt_stdio_output::output_processor<wchar_t,__crt_stdio_output::stream_output_adapter<wchar_t>,__crt_stdio_output::format_validation_base<wchar_t,__crt_stdio_output::stream_output_adapter<wchar_t> > >::type_case_integer(const unsigned int, const bool)
FUNC 29a23 185 0 __crt_stdio_output::output_processor<wchar_t,__crt_stdio_output::stream_output_adapter<wchar_t>,__crt_stdio_output::positional_parameter_base<wchar_t,__crt_stdio_output::stream_output_adapter<wchar_t> > >::type_case_integer(const unsigned int, const bool)
FUNC 29c09 155 0 __crt_stdio_output::output_processor<wchar_t,__crt_stdio_output::stream_output_adapter<wchar_t>,__crt_stdio_output::standard_base<wchar_t,__crt_stdio_output::stream_output_adapter<wchar_t> > >::type_case_integer(const unsigned int, const bool)
FUNC 29db3 155 0 __crt_stdio_output::output_processor<wchar_t,__crt_stdio_output::string_output_adapter<wchar_t>,__crt_stdio_output::format_validation_base<wchar_t,__crt_stdio_output::string_output_adapter<wchar_t> > >::type_case_integer(const unsigned int, const bool)
FUNC 29f5d 185 0 __crt_stdio_output::output_processor<wchar_t,__crt_stdio_output::string_output_adapter<wchar_t>,__crt_stdio_output::positional_parameter_base<wchar_t,__crt_stdio_output::string_output_adapter<wchar_t> > >::type_case_integer(const unsigned int, const bool)
FUNC 2a143 155 0 __crt_stdio_output::output_processor<wchar_t,__crt_stdio_output::string_output_adapter<wchar_t>,__crt_stdio_output::standard_base<wchar_t,__crt_stdio_output::string_output_adapter<wchar_t> > >::type_case_integer(const unsigned int, const bool)
FUNC 2a2ed 74 0 __crt_stdio_output::output_processor<char,__crt_stdio_output::stream_output_adapter<char>,__crt_stdio_output::format_validation_base<char,__crt_stdio_output::stream_output_adapter<char> > >::type_case_n()
FUNC 2a37e 97 0 __crt_stdio_output::output_processor<char,__crt_stdio_output::stream_output_adapter<char>,__crt_stdio_output::positional_parameter_base<char,__crt_stdio_output::stream_output_adapter<char> > >::type_case_n()
FUNC 2a43a 74 0 __crt_stdio_output::output_processor<char,__crt_stdio_output::stream_output_adapter<char>,__crt_stdio_output::standard_base<char,__crt_stdio_output::stream_output_adapter<char> > >::type_case_n()
FUNC 2a4cb 74 0 __crt_stdio_output::output_processor<char,__crt_stdio_output::string_output_adapter<char>,__crt_stdio_output::format_validation_base<char,__crt_stdio_output::string_output_adapter<char> > >::type_case_n()
FUNC 2a55c 97 0 __crt_stdio_output::output_processor<char,__crt_stdio_output::string_output_adapter<char>,__crt_stdio_output::positional_parameter_base<char,__crt_stdio_output::string_output_adapter<char> > >::type_case_n()
FUNC 2a618 74 0 __crt_stdio_output::output_processor<char,__crt_stdio_output::string_output_adapter<char>,__crt_stdio_output::standard_base<char,__crt_stdio_output::string_output_adapter<char> > >::type_case_n()
FUNC 2a6a9 74 0 __crt_stdio_output::output_processor<wchar_t,__crt_stdio_output::stream_output_adapter<wchar_t>,__crt_stdio_output::format_validation_base<wchar_t,__crt_stdio_output::stream_output_adapter<wchar_t> > >::type_case_n()
FUNC 2a73a 97 0 __crt_stdio_output::output_processor<wchar_t,__crt_stdio_output::stream_output_adapter<wchar_t>,__crt_stdio_output::positional_parameter_base<wchar_t,__crt_stdio_output::stream_output_adapter<wchar_t> > >::type_case_n()
FUNC 2a7f6 74 0 __crt_stdio_output::output_processor<wchar_t,__crt_stdio_output::stream_output_adapter<wchar_t>,__crt_stdio_output::standard_base<wchar_t,__crt_stdio_output::stream_output_adapter<wchar_t> > >::type_case_n()
FUNC 2a887 74 0 __crt_stdio_output::output_processor<wchar_t,__crt_stdio_output::string_output_adapter<wchar_t>,__crt_stdio_output::format_validation_base<wchar_t,__crt_stdio_output::string_output_adapter<wchar_t> > >::type_case_n()
FUNC 2a918 97 0 __crt_stdio_output::output_processor<wchar_t,__crt_stdio_output::string_output_adapter<wchar_t>,__crt_stdio_output::positional_parameter_base<wchar_t,__crt_stdio_output::string_output_adapter<wchar_t> > >::type_case_n()
FUNC 2a9d4 74 0 __crt_stdio_output::output_processor<wchar_t,__crt_stdio_output::string_output_adapter<wchar_t>,__crt_stdio_output::standard_base<wchar_t,__crt_stdio_output::string_output_adapter<wchar_t> > >::type_case_n()
FUNC 2aa65 1f 0 __crt_stdio_output::output_processor<char,__crt_stdio_output::stream_output_adapter<char>,__crt_stdio_output::format_validation_base<char,__crt_stdio_output::stream_output_adapter<char> > >::type_case_o()
FUNC 2aa8b 1f 0 __crt_stdio_output::output_processor<char,__crt_stdio_output::stream_output_adapter<char>,__crt_stdio_output::positional_parameter_base<char,__crt_stdio_output::stream_output_adapter<char> > >::type_case_o()
FUNC 2aab1 1f 0 __crt_stdio_output::output_processor<char,__crt_stdio_output::stream_output_adapter<char>,__crt_stdio_output::standard_base<char,__crt_stdio_output::stream_output_adapter<char> > >::type_case_o()
FUNC 2aad7 1f 0 __crt_stdio_output::output_processor<char,__crt_stdio_output::string_output_adapter<char>,__crt_stdio_output::format_validation_base<char,__crt_stdio_output::string_output_adapter<char> > >::type_case_o()
FUNC 2aafd 1f 0 __crt_stdio_output::output_processor<char,__crt_stdio_output::string_output_adapter<char>,__crt_stdio_output::positional_parameter_base<char,__crt_stdio_output::string_output_adapter<char> > >::type_case_o()
FUNC 2ab23 1f 0 __crt_stdio_output::output_processor<char,__crt_stdio_output::string_output_adapter<char>,__crt_stdio_output::standard_base<char,__crt_stdio_output::string_output_adapter<char> > >::type_case_o()
FUNC 2ab49 1f 0 __crt_stdio_output::output_processor<wchar_t,__crt_stdio_output::stream_output_adapter<wchar_t>,__crt_stdio_output::format_validation_base<wchar_t,__crt_stdio_output::stream_output_adapter<wchar_t> > >::type_case_o()
FUNC 2ab6f 1f 0 __crt_stdio_output::output_processor<wchar_t,__crt_stdio_output::stream_output_adapter<wchar_t>,__crt_stdio_output::positional_parameter_base<wchar_t,__crt_stdio_output::stream_output_adapter<wchar_t> > >::type_case_o()
FUNC 2ab95 1f 0 __crt_stdio_output::output_processor<wchar_t,__crt_stdio_output::stream_output_adapter<wchar_t>,__crt_stdio_output::standard_base<wchar_t,__crt_stdio_output::stream_output_adapter<wchar_t> > >::type_case_o()
FUNC 2abbb 1f 0 __crt_stdio_output::output_processor<wchar_t,__crt_stdio_output::string_output_adapter<wchar_t>,__crt_stdio_output::format_validation_base<wchar_t,__crt_stdio_output::string_output_adapter<wchar_t> > >::type_case_o()
FUNC 2abe1 1f 0 __crt_stdio_output::output_processor<wchar_t,__crt_stdio_output::string_output_adapter<wchar_t>,__crt_stdio_output::positional_parameter_base<wchar_t,__crt_stdio_output::string_output_adapter<wchar_t> > >::type_case_o()
FUNC 2ac07 1f 0 __crt_stdio_output::output_processor<wchar_t,__crt_stdio_output::string_output_adapter<wchar_t>,__crt_stdio_output::standard_base<wchar_t,__crt_stdio_output::string_output_adapter<wchar_t> > >::type_case_o()
FUNC 2ac2d 18 0 __crt_stdio_output::output_processor<char,__crt_stdio_output::stream_output_adapter<char>,__crt_stdio_output::format_validation_base<char,__crt_stdio_output::stream_output_adapter<char> > >::type_case_p()
FUNC 2ac4b 18 0 __crt_stdio_output::output_processor<char,__crt_stdio_output::stream_output_adapter<char>,__crt_stdio_output::positional_parameter_base<char,__crt_stdio_output::stream_output_adapter<char> > >::type_case_p()
FUNC 2ac69 18 0 __crt_stdio_output::output_processor<char,__crt_stdio_output::stream_output_adapter<char>,__crt_stdio_output::standard_base<char,__crt_stdio_output::stream_output_adapter<char> > >::type_case_p()
FUNC 2ac87 18 0 __crt_stdio_output::output_processor<char,__crt_stdio_output::string_output_adapter<char>,__crt_stdio_output::format_validation_base<char,__crt_stdio_output::string_output_adapter<char> > >::type_case_p()
FUNC 2aca5 18 0 __crt_stdio_output::output_processor<char,__crt_stdio_output::string_output_adapter<char>,__crt_stdio_output::positional_parameter_base<char,__crt_stdio_output::string_output_adapter<char> > >::type_case_p()
FUNC 2acc3 18 0 __crt_stdio_output::output_processor<char,__crt_stdio_output::string_output_adapter<char>,__crt_stdio_output::standard_base<char,__crt_stdio_output::string_output_adapter<char> > >::type_case_p()
FUNC 2ace1 18 0 __crt_stdio_output::output_processor<wchar_t,__crt_stdio_output::stream_output_adapter<wchar_t>,__crt_stdio_output::format_validation_base<wchar_t,__crt_stdio_output::stream_output_adapter<wchar_t> > >::type_case_p()
FUNC 2acff 18 0 __crt_stdio_output::output_processor<wchar_t,__crt_stdio_output::stream_output_adapter<wchar_t>,__crt_stdio_output::positional_parameter_base<wchar_t,__crt_stdio_output::stream_output_adapter<wchar_t> > >::type_case_p()
FUNC 2ad1d 18 0 __crt_stdio_output::output_processor<wchar_t,__crt_stdio_output::stream_output_adapter<wchar_t>,__crt_stdio_output::standard_base<wchar_t,__crt_stdio_output::stream_output_adapter<wchar_t> > >::type_case_p()
FUNC 2ad3b 18 0 __crt_stdio_output::output_processor<wchar_t,__crt_stdio_output::string_output_adapter<wchar_t>,__crt_stdio_output::format_validation_base<wchar_t,__crt_stdio_output::string_output_adapter<wchar_t> > >::type_case_p()
FUNC 2ad59 18 0 __crt_stdio_output::output_processor<wchar_t,__crt_stdio_output::string_output_adapter<wchar_t>,__crt_stdio_output::positional_parameter_base<wchar_t,__crt_stdio_output::string_output_adapter<wchar_t> > >::type_case_p()
FUNC 2ad77 18 0 __crt_stdio_output::output_processor<wchar_t,__crt_stdio_output::string_output_adapter<wchar_t>,__crt_stdio_output::standard_base<wchar_t,__crt_stdio_output::string_output_adapter<wchar_t> > >::type_case_p()
FUNC 2ad95 71 0 __crt_stdio_output::output_processor<char,__crt_stdio_output::stream_output_adapter<char>,__crt_stdio_output::format_validation_base<char,__crt_stdio_output::stream_output_adapter<char> > >::type_case_s()
FUNC 2ae22 7e 0 __crt_stdio_output::output_processor<char,__crt_stdio_output::stream_output_adapter<char>,__crt_stdio_output::positional_parameter_base<char,__crt_stdio_output::stream_output_adapter<char> > >::type_case_s()
FUNC 2aebf 71 0 __crt_stdio_output::output_processor<char,__crt_stdio_output::stream_output_adapter<char>,__crt_stdio_output::standard_base<char,__crt_stdio_output::stream_output_adapter<char> > >::type_case_s()
FUNC 2af4c 71 0 __crt_stdio_output::output_processor<char,__crt_stdio_output::string_output_adapter<char>,__crt_stdio_output::format_validation_base<char,__crt_stdio_output::string_output_adapter<char> > >::type_case_s()
FUNC 2afd9 7e 0 __crt_stdio_output::output_processor<char,__crt_stdio_output::string_output_adapter<char>,__crt_stdio_output::positional_parameter_base<char,__crt_stdio_output::string_output_adapter<char> > >::type_case_s()
FUNC 2b076 71 0 __crt_stdio_output::output_processor<char,__crt_stdio_output::string_output_adapter<char>,__crt_stdio_output::standard_base<char,__crt_stdio_output::string_output_adapter<char> > >::type_case_s()
FUNC 2b103 73 0 __crt_stdio_output::output_processor<wchar_t,__crt_stdio_output::stream_output_adapter<wchar_t>,__crt_stdio_output::format_validation_base<wchar_t,__crt_stdio_output::stream_output_adapter<wchar_t> > >::type_case_s()
FUNC 2b192 80 0 __crt_stdio_output::output_processor<wchar_t,__crt_stdio_output::stream_output_adapter<wchar_t>,__crt_stdio_output::positional_parameter_base<wchar_t,__crt_stdio_output::stream_output_adapter<wchar_t> > >::type_case_s()
FUNC 2b232 73 0 __crt_stdio_output::output_processor<wchar_t,__crt_stdio_output::stream_output_adapter<wchar_t>,__crt_stdio_output::standard_base<wchar_t,__crt_stdio_output::stream_output_adapter<wchar_t> > >::type_case_s()
FUNC 2b2c1 73 0 __crt_stdio_output::output_processor<wchar_t,__crt_stdio_output::string_output_adapter<wchar_t>,__crt_stdio_output::format_validation_base<wchar_t,__crt_stdio_output::string_output_adapter<wchar_t> > >::type_case_s()
FUNC 2b350 80 0 __crt_stdio_output::output_processor<wchar_t,__crt_stdio_output::string_output_adapter<wchar_t>,__crt_stdio_output::positional_parameter_base<wchar_t,__crt_stdio_output::string_output_adapter<wchar_t> > >::type_case_s()
FUNC 2b3f0 73 0 __crt_stdio_output::output_processor<wchar_t,__crt_stdio_output::string_output_adapter<wchar_t>,__crt_stdio_output::standard_base<wchar_t,__crt_stdio_output::string_output_adapter<wchar_t> > >::type_case_s()
FUNC 2b47f 16 0 __crt_stdio_output::output_processor<char,__crt_stdio_output::stream_output_adapter<char>,__crt_stdio_output::format_validation_base<char,__crt_stdio_output::stream_output_adapter<char> > >::type_case_s_compute_narrow_string_length(const int, char) const
FUNC 2b49a 16 0 __crt_stdio_output::output_processor<char,__crt_stdio_output::stream_output_adapter<char>,__crt_stdio_output::positional_parameter_base<char,__crt_stdio_output::stream_output_adapter<char> > >::type_case_s_compute_narrow_string_length(const int, char) const
FUNC 2b4b5 16 0 __crt_stdio_output::output_processor<char,__crt_stdio_output::stream_output_adapter<char>,__crt_stdio_output::standard_base<char,__crt_stdio_output::stream_output_adapter<char> > >::type_case_s_compute_narrow_string_length(const int, char) const
FUNC 2b4d0 16 0 __crt_stdio_output::output_processor<char,__crt_stdio_output::string_output_adapter<char>,__crt_stdio_output::format_validation_base<char,__crt_stdio_output::string_output_adapter<char> > >::type_case_s_compute_narrow_string_length(const int, char) const
FUNC 2b4eb 16 0 __crt_stdio_output::output_processor<char,__crt_stdio_output::string_output_adapter<char>,__crt_stdio_output::positional_parameter_base<char,__crt_stdio_output::string_output_adapter<char> > >::type_case_s_compute_narrow_string_length(const int, char) const
FUNC 2b506 16 0 __crt_stdio_output::output_processor<char,__crt_stdio_output::string_output_adapter<char>,__crt_stdio_output::standard_base<char,__crt_stdio_output::string_output_adapter<char> > >::type_case_s_compute_narrow_string_length(const int, char) const
FUNC 2b521 47 0 __crt_stdio_output::output_processor<wchar_t,__crt_stdio_output::stream_output_adapter<wchar_t>,__crt_stdio_output::format_validation_base<wchar_t,__crt_stdio_output::stream_output_adapter<wchar_t> > >::type_case_s_compute_narrow_string_length(const int, wchar_t) const
FUNC 2b579 47 0 __crt_stdio_output::output_processor<wchar_t,__crt_stdio_output::stream_output_adapter<wchar_t>,__crt_stdio_output::positional_parameter_base<wchar_t,__crt_stdio_output::stream_output_adapter<wchar_t> > >::type_case_s_compute_narrow_string_length(const int, wchar_t) const
FUNC 2b5d1 47 0 __crt_stdio_output::output_processor<wchar_t,__crt_stdio_output::stream_output_adapter<wchar_t>,__crt_stdio_output::standard_base<wchar_t,__crt_stdio_output::stream_output_adapter<wchar_t> > >::type_case_s_compute_narrow_string_length(const int, wchar_t) const
FUNC 2b629 47 0 __crt_stdio_output::output_processor<wchar_t,__crt_stdio_output::string_output_adapter<wchar_t>,__crt_stdio_output::format_validation_base<wchar_t,__crt_stdio_output::string_output_adapter<wchar_t> > >::type_case_s_compute_narrow_string_length(const int, wchar_t) const
FUNC 2b681 47 0 __crt_stdio_output::output_processor<wchar_t,__crt_stdio_output::string_output_adapter<wchar_t>,__crt_stdio_output::positional_parameter_base<wchar_t,__crt_stdio_output::string_output_adapter<wchar_t> > >::type_case_s_compute_narrow_string_length(const int, wchar_t) const
FUNC 2b6d9 47 0 __crt_stdio_output::output_processor<wchar_t,__crt_stdio_output::string_output_adapter<wchar_t>,__crt_stdio_output::standard_base<wchar_t,__crt_stdio_output::string_output_adapter<wchar_t> > >::type_case_s_compute_narrow_string_length(const int, wchar_t) const
FUNC 2b731 a 0 __crt_stdio_output::output_processor<char,__crt_stdio_output::stream_output_adapter<char>,__crt_stdio_output::format_validation_base<char,__crt_stdio_output::stream_output_adapter<char> > >::type_case_u()
FUNC 2b73d a 0 __crt_stdio_output::output_processor<char,__crt_stdio_output::stream_output_adapter<char>,__crt_stdio_output::positional_parameter_base<char,__crt_stdio_output::stream_output_adapter<char> > >::type_case_u()
FUNC 2b749 a 0 __crt_stdio_output::output_processor<char,__crt_stdio_output::stream_output_adapter<char>,__crt_stdio_output::standard_base<char,__crt_stdio_output::stream_output_adapter<char> > >::type_case_u()
FUNC 2b755 a 0 __crt_stdio_output::output_processor<char,__crt_stdio_output::string_output_adapter<char>,__crt_stdio_output::format_validation_base<char,__crt_stdio_output::string_output_adapter<char> > >::type_case_u()
FUNC 2b761 a 0 __crt_stdio_output::output_processor<char,__crt_stdio_output::string_output_adapter<char>,__crt_stdio_output::positional_parameter_base<char,__crt_stdio_output::string_output_adapter<char> > >::type_case_u()
FUNC 2b76d a 0 __crt_stdio_output::output_processor<char,__crt_stdio_output::string_output_adapter<char>,__crt_stdio_output::standard_base<char,__crt_stdio_output::string_output_adapter<char> > >::type_case_u()
FUNC 2b779 a 0 __crt_stdio_output::output_processor<wchar_t,__crt_stdio_output::stream_output_adapter<wchar_t>,__crt_stdio_output::format_validation_base<wchar_t,__crt_stdio_output::stream_output_adapter<wchar_t> > >::type_case_u()
FUNC 2b785 a 0 __crt_stdio_output::output_processor<wchar_t,__crt_stdio_output::stream_output_adapter<wchar_t>,__crt_stdio_output::positional_parameter_base<wchar_t,__crt_stdio_output::stream_output_adapter<wchar_t> > >::type_case_u()
FUNC 2b791 a 0 __crt_stdio_output::output_processor<wchar_t,__crt_stdio_output::stream_output_adapter<wchar_t>,__crt_stdio_output::standard_base<wchar_t,__crt_stdio_output::stream_output_adapter<wchar_t> > >::type_case_u()
FUNC 2b79d a 0 __crt_stdio_output::output_processor<wchar_t,__crt_stdio_output::string_output_adapter<wchar_t>,__crt_stdio_output::format_validation_base<wchar_t,__crt_stdio_output::string_output_adapter<wchar_t> > >::type_case_u()
FUNC 2b7a9 a 0 __crt_stdio_output::output_processor<wchar_t,__crt_stdio_output::string_output_adapter<wchar_t>,__crt_stdio_output::positional_parameter_base<wchar_t,__crt_stdio_output::string_output_adapter<wchar_t> > >::type_case_u()
FUNC 2b7b5 a 0 __crt_stdio_output::output_processor<wchar_t,__crt_stdio_output::string_output_adapter<wchar_t>,__crt_stdio_output::standard_base<wchar_t,__crt_stdio_output::string_output_adapter<wchar_t> > >::type_case_u()
FUNC 2b7c1 a 0 __crt_stdio_output::output_processor<char,__crt_stdio_output::stream_output_adapter<char>,__crt_stdio_output::format_validation_base<char,__crt_stdio_output::stream_output_adapter<char> > >::type_case_x()
FUNC 2b7cd a 0 __crt_stdio_output::output_processor<char,__crt_stdio_output::stream_output_adapter<char>,__crt_stdio_output::positional_parameter_base<char,__crt_stdio_output::stream_output_adapter<char> > >::type_case_x()
FUNC 2b7d9 a 0 __crt_stdio_output::output_processor<char,__crt_stdio_output::stream_output_adapter<char>,__crt_stdio_output::standard_base<char,__crt_stdio_output::stream_output_adapter<char> > >::type_case_x()
FUNC 2b7e5 a 0 __crt_stdio_output::output_processor<char,__crt_stdio_output::string_output_adapter<char>,__crt_stdio_output::format_validation_base<char,__crt_stdio_output::string_output_adapter<char> > >::type_case_x()
FUNC 2b7f1 a 0 __crt_stdio_output::output_processor<char,__crt_stdio_output::string_output_adapter<char>,__crt_stdio_output::positional_parameter_base<char,__crt_stdio_output::string_output_adapter<char> > >::type_case_x()
FUNC 2b7fd a 0 __crt_stdio_output::output_processor<char,__crt_stdio_output::string_output_adapter<char>,__crt_stdio_output::standard_base<char,__crt_stdio_output::string_output_adapter<char> > >::type_case_x()
FUNC 2b809 a 0 __crt_stdio_output::output_processor<wchar_t,__crt_stdio_output::stream_output_adapter<wchar_t>,__crt_stdio_output::format_validation_base<wchar_t,__crt_stdio_output::stream_output_adapter<wchar_t> > >::type_case_x()
FUNC 2b815 a 0 __crt_stdio_output::output_processor<wchar_t,__crt_stdio_output::stream_output_adapter<wchar_t>,__crt_stdio_output::positional_parameter_base<wchar_t,__crt_stdio_output::stream_output_adapter<wchar_t> > >::type_case_x()
FUNC 2b821 a 0 __crt_stdio_output::output_processor<wchar_t,__crt_stdio_output::stream_output_adapter<wchar_t>,__crt_stdio_output::standard_base<wchar_t,__crt_stdio_output::stream_output_adapter<wchar_t> > >::type_case_x()
FUNC 2b82d a 0 __crt_stdio_output::output_processor<wchar_t,__crt_stdio_output::string_output_adapter<wchar_t>,__crt_stdio_output::format_validation_base<wchar_t,__crt_stdio_output::string_output_adapter<wchar_t> > >::type_case_x()
FUNC 2b839 a 0 __crt_stdio_output::output_processor<wchar_t,__crt_stdio_output::string_output_adapter<wchar_t>,__crt_stdio_output::positional_parameter_base<wchar_t,__crt_stdio_output::string_output_adapter<wchar_t> > >::type_case_x()
FUNC 2b845 a 0 __crt_stdio_output::output_processor<wchar_t,__crt_stdio_output::string_output_adapter<wchar_t>,__crt_stdio_output::standard_base<wchar_t,__crt_stdio_output::string_output_adapter<wchar_t> > >::type_case_x()
FUNC 2b851 11 0 __crt_stdio_output::output_processor<char,__crt_stdio_output::stream_output_adapter<char>,__crt_stdio_output::format_validation_base<char,__crt_stdio_output::stream_output_adapter<char> > >::unset_flag(const unsigned int)
FUNC 2b866 11 0 __crt_stdio_output::output_processor<char,__crt_stdio_output::stream_output_adapter<char>,__crt_stdio_output::positional_parameter_base<char,__crt_stdio_output::stream_output_adapter<char> > >::unset_flag(const unsigned int)
FUNC 2b87b 11 0 __crt_stdio_output::output_processor<char,__crt_stdio_output::stream_output_adapter<char>,__crt_stdio_output::standard_base<char,__crt_stdio_output::stream_output_adapter<char> > >::unset_flag(const unsigned int)
FUNC 2b890 11 0 __crt_stdio_output::output_processor<char,__crt_stdio_output::string_output_adapter<char>,__crt_stdio_output::format_validation_base<char,__crt_stdio_output::string_output_adapter<char> > >::unset_flag(const unsigned int)
FUNC 2b8a5 11 0 __crt_stdio_output::output_processor<char,__crt_stdio_output::string_output_adapter<char>,__crt_stdio_output::positional_parameter_base<char,__crt_stdio_output::string_output_adapter<char> > >::unset_flag(const unsigned int)
FUNC 2b8ba 11 0 __crt_stdio_output::output_processor<char,__crt_stdio_output::string_output_adapter<char>,__crt_stdio_output::standard_base<char,__crt_stdio_output::string_output_adapter<char> > >::unset_flag(const unsigned int)
FUNC 2b8cf 11 0 __crt_stdio_output::output_processor<wchar_t,__crt_stdio_output::stream_output_adapter<wchar_t>,__crt_stdio_output::format_validation_base<wchar_t,__crt_stdio_output::stream_output_adapter<wchar_t> > >::unset_flag(const unsigned int)
FUNC 2b8e4 11 0 __crt_stdio_output::output_processor<wchar_t,__crt_stdio_output::stream_output_adapter<wchar_t>,__crt_stdio_output::positional_parameter_base<wchar_t,__crt_stdio_output::stream_output_adapter<wchar_t> > >::unset_flag(const unsigned int)
FUNC 2b8f9 11 0 __crt_stdio_output::output_processor<wchar_t,__crt_stdio_output::stream_output_adapter<wchar_t>,__crt_stdio_output::standard_base<wchar_t,__crt_stdio_output::stream_output_adapter<wchar_t> > >::unset_flag(const unsigned int)
FUNC 2b90e 11 0 __crt_stdio_output::output_processor<wchar_t,__crt_stdio_output::string_output_adapter<wchar_t>,__crt_stdio_output::format_validation_base<wchar_t,__crt_stdio_output::string_output_adapter<wchar_t> > >::unset_flag(const unsigned int)
FUNC 2b923 11 0 __crt_stdio_output::output_processor<wchar_t,__crt_stdio_output::string_output_adapter<wchar_t>,__crt_stdio_output::positional_parameter_base<wchar_t,__crt_stdio_output::string_output_adapter<wchar_t> > >::unset_flag(const unsigned int)
FUNC 2b938 11 0 __crt_stdio_output::output_processor<wchar_t,__crt_stdio_output::string_output_adapter<wchar_t>,__crt_stdio_output::standard_base<wchar_t,__crt_stdio_output::string_output_adapter<wchar_t> > >::unset_flag(const unsigned int)
FUNC 2b94d b4 0 __crt_stdio_output::positional_parameter_base<char,__crt_stdio_output::stream_output_adapter<char> >::update_field_width()
FUNC 2ba2e b4 0 __crt_stdio_output::positional_parameter_base<char,__crt_stdio_output::string_output_adapter<char> >::update_field_width()
FUNC 2bb0f b5 0 __crt_stdio_output::positional_parameter_base<wchar_t,__crt_stdio_output::stream_output_adapter<wchar_t> >::update_field_width()
FUNC 2bbf1 b5 0 __crt_stdio_output::positional_parameter_base<wchar_t,__crt_stdio_output::string_output_adapter<wchar_t> >::update_field_width()
FUNC 2bcd3 10 0 __crt_stdio_output::standard_base<char,__crt_stdio_output::stream_output_adapter<char> >::update_field_width()
FUNC 2bce7 10 0 __crt_stdio_output::standard_base<char,__crt_stdio_output::string_output_adapter<char> >::update_field_width()
FUNC 2bcfb 10 0 __crt_stdio_output::standard_base<wchar_t,__crt_stdio_output::stream_output_adapter<wchar_t> >::update_field_width()
FUNC 2bd0f 10 0 __crt_stdio_output::standard_base<wchar_t,__crt_stdio_output::string_output_adapter<wchar_t> >::update_field_width()
FUNC 2bd23 b4 0 __crt_stdio_output::positional_parameter_base<char,__crt_stdio_output::stream_output_adapter<char> >::update_precision()
FUNC 2be04 b4 0 __crt_stdio_output::positional_parameter_base<char,__crt_stdio_output::string_output_adapter<char> >::update_precision()
FUNC 2bee5 b5 0 __crt_stdio_output::positional_parameter_base<wchar_t,__crt_stdio_output::stream_output_adapter<wchar_t> >::update_precision()
FUNC 2bfc7 b5 0 __crt_stdio_output::positional_parameter_base<wchar_t,__crt_stdio_output::string_output_adapter<wchar_t> >::update_precision()
FUNC 2c0a9 10 0 __crt_stdio_output::standard_base<char,__crt_stdio_output::stream_output_adapter<char> >::update_precision()
FUNC 2c0bd 10 0 __crt_stdio_output::standard_base<char,__crt_stdio_output::string_output_adapter<char> >::update_precision()
FUNC 2c0d1 10 0 __crt_stdio_output::standard_base<wchar_t,__crt_stdio_output::stream_output_adapter<wchar_t> >::update_precision()
FUNC 2c0e5 10 0 __crt_stdio_output::standard_base<wchar_t,__crt_stdio_output::string_output_adapter<wchar_t> >::update_precision()
FUNC 2c0f9 7 0 __crt_stdio_stream::valid() const
FUNC 2c100 21 0 __crt_stdio_output::stream_output_adapter<char>::validate() const
FUNC 2c129 1b 0 __crt_stdio_output::stream_output_adapter<wchar_t>::validate() const
FUNC 2c14a 1b 0 __crt_stdio_output::string_output_adapter<char>::validate() const
FUNC 2c16b 1b 0 __crt_stdio_output::string_output_adapter<wchar_t>::validate() const
FUNC 2c18c 4b 0 __crt_stdio_output::positional_parameter_base<char,__crt_stdio_output::stream_output_adapter<char> >::validate_and_store_parameter_data(__crt_stdio_output::positional_parameter_base<char,__crt_stdio_output::stream_output_adapter<char> >::parameter_data&, const __crt_stdio_output::positional_parameter_base<char,__crt_stdio_output::stream_output_adapter<char> >::parameter_type, const char, const __crt_stdio_output::length_modifier)
FUNC 2c1e9 4b 0 __crt_stdio_output::positional_parameter_base<char,__crt_stdio_output::string_output_adapter<char> >::validate_and_store_parameter_data(__crt_stdio_output::positional_parameter_base<char,__crt_stdio_output::string_output_adapter<char> >::parameter_data&, const __crt_stdio_output::positional_parameter_base<char,__crt_stdio_output::string_output_adapter<char> >::parameter_type, const char, const __crt_stdio_output::length_modifier)
FUNC 2c246 4d 0 __crt_stdio_output::positional_parameter_base<wchar_t,__crt_stdio_output::stream_output_adapter<wchar_t> >::validate_and_store_parameter_data(__crt_stdio_output::positional_parameter_base<wchar_t,__crt_stdio_output::stream_output_adapter<wchar_t> >::parameter_data&, const __crt_stdio_output::positional_parameter_base<wchar_t,__crt_stdio_output::stream_output_adapter<wchar_t> >::parameter_type, const wchar_t, const __crt_stdio_output::length_modifier)
FUNC 2c2a6 4d 0 __crt_stdio_output::positional_parameter_base<wchar_t,__crt_stdio_output::string_output_adapter<wchar_t> >::validate_and_store_parameter_data(__crt_stdio_output::positional_parameter_base<wchar_t,__crt_stdio_output::string_output_adapter<wchar_t> >::parameter_data&, const __crt_stdio_output::positional_parameter_base<wchar_t,__crt_stdio_output::string_output_adapter<wchar_t> >::parameter_type, const wchar_t, const __crt_stdio_output::length_modifier)
FUNC 2c306 f8 0 __crt_stdio_output::positional_parameter_base<char,__crt_stdio_output::stream_output_adapter<char> >::validate_and_update_state_at_beginning_of_format_character()
FUNC 2c43c f8 0 __crt_stdio_output::positional_parameter_base<char,__crt_stdio_output::string_output_adapter<char> >::validate_and_update_state_at_beginning_of_format_character()
FUNC 2c572 101 0 __crt_stdio_output::positional_parameter_base<wchar_t,__crt_stdio_output::stream_output_adapter<wchar_t> >::validate_and_update_state_at_beginning_of_format_character()
FUNC 2c6b3 101 0 __crt_stdio_output::positional_parameter_base<wchar_t,__crt_stdio_output::string_output_adapter<wchar_t> >::validate_and_update_state_at_beginning_of_format_character()
FUNC 2c7f4 3 0 __crt_stdio_output::standard_base<char,__crt_stdio_output::stream_output_adapter<char> >::validate_and_update_state_at_beginning_of_format_character()
FUNC 2c7f7 3 0 __crt_stdio_output::standard_base<char,__crt_stdio_output::string_output_adapter<char> >::validate_and_update_state_at_beginning_of_format_character()
FUNC 2c7fa 3 0 __crt_stdio_output::standard_base<wchar_t,__crt_stdio_output::stream_output_adapter<wchar_t> >::validate_and_update_state_at_beginning_of_format_character()
FUNC 2c7fd 3 0 __crt_stdio_output::standard_base<wchar_t,__crt_stdio_output::string_output_adapter<wchar_t> >::validate_and_update_state_at_beginning_of_format_character()
FUNC 2c800 22 0 __crt_stdio_output::format_validation_base<char,__crt_stdio_output::stream_output_adapter<char> >::validate_and_update_state_at_end_of_format_string() const
FUNC 2c82a 22 0 __crt_stdio_output::format_validation_base<char,__crt_stdio_output::string_output_adapter<char> >::validate_and_update_state_at_end_of_format_string() const
FUNC 2c854 22 0 __crt_stdio_output::format_validation_base<wchar_t,__crt_stdio_output::stream_output_adapter<wchar_t> >::validate_and_update_state_at_end_of_format_string() const
FUNC 2c87e 22 0 __crt_stdio_output::format_validation_base<wchar_t,__crt_stdio_output::string_output_adapter<wchar_t> >::validate_and_update_state_at_end_of_format_string() const
FUNC 2c8a8 90 0 __crt_stdio_output::positional_parameter_base<char,__crt_stdio_output::stream_output_adapter<char> >::validate_and_update_state_at_end_of_format_string()
FUNC 2c95c 90 0 __crt_stdio_output::positional_parameter_base<char,__crt_stdio_output::string_output_adapter<char> >::validate_and_update_state_at_end_of_format_string()
FUNC 2ca10 90 0 __crt_stdio_output::positional_parameter_base<wchar_t,__crt_stdio_output::stream_output_adapter<wchar_t> >::validate_and_update_state_at_end_of_format_string()
FUNC 2cac4 90 0 __crt_stdio_output::positional_parameter_base<wchar_t,__crt_stdio_output::string_output_adapter<wchar_t> >::validate_and_update_state_at_end_of_format_string()
FUNC 2cb78 3 0 __crt_stdio_output::standard_base<char,__crt_stdio_output::stream_output_adapter<char> >::validate_and_update_state_at_end_of_format_string() const
FUNC 2cb7b 3 0 __crt_stdio_output::standard_base<char,__crt_stdio_output::string_output_adapter<char> >::validate_and_update_state_at_end_of_format_string() const
FUNC 2cb7e 3 0 __crt_stdio_output::standard_base<wchar_t,__crt_stdio_output::stream_output_adapter<wchar_t> >::validate_and_update_state_at_end_of_format_string() const
FUNC 2cb81 3 0 __crt_stdio_output::standard_base<wchar_t,__crt_stdio_output::string_output_adapter<wchar_t> >::validate_and_update_state_at_end_of_format_string() const
FUNC 2cb84 4f 0 __crt_stdio_output::positional_parameter_base<char,__crt_stdio_output::stream_output_adapter<char> >::validate_state_for_type_case_a()
FUNC 2cbe6 4f 0 __crt_stdio_output::positional_parameter_base<char,__crt_stdio_output::string_output_adapter<char> >::validate_state_for_type_case_a()
FUNC 2cc48 4f 0 __crt_stdio_output::positional_parameter_base<wchar_t,__crt_stdio_output::stream_output_adapter<wchar_t> >::validate_state_for_type_case_a()
FUNC 2ccaa 4f 0 __crt_stdio_output::positional_parameter_base<wchar_t,__crt_stdio_output::string_output_adapter<wchar_t> >::validate_state_for_type_case_a()
FUNC 2cd0c 3 0 __crt_stdio_output::standard_base<char,__crt_stdio_output::stream_output_adapter<char> >::validate_state_for_type_case_a() const
FUNC 2cd0f 3 0 __crt_stdio_output::standard_base<char,__crt_stdio_output::string_output_adapter<char> >::validate_state_for_type_case_a() const
FUNC 2cd12 3 0 __crt_stdio_output::standard_base<wchar_t,__crt_stdio_output::stream_output_adapter<wchar_t> >::validate_state_for_type_case_a() const
FUNC 2cd15 3 0 __crt_stdio_output::standard_base<wchar_t,__crt_stdio_output::string_output_adapter<wchar_t> >::validate_state_for_type_case_a() const
FUNC 2cd18 87 0 __acrt_stdio_char_traits<char>::validate_stream_is_ansi_if_required(_iobuf* const)
FUNC 2cdc0 3 0 __acrt_stdio_char_traits<wchar_t>::validate_stream_is_ansi_if_required(_iobuf* const)
FUNC 2cdc3 6 0 __crt_stdio_output::output_processor<char,__crt_stdio_output::stream_output_adapter<char>,__crt_stdio_output::format_validation_base<char,__crt_stdio_output::stream_output_adapter<char> > >::wide_null_string()
FUNC 2cdc9 6 0 __crt_stdio_output::output_processor<char,__crt_stdio_output::stream_output_adapter<char>,__crt_stdio_output::positional_parameter_base<char,__crt_stdio_output::stream_output_adapter<char> > >::wide_null_string()
FUNC 2cdcf 6 0 __crt_stdio_output::output_processor<char,__crt_stdio_output::stream_output_adapter<char>,__crt_stdio_output::standard_base<char,__crt_stdio_output::stream_output_adapter<char> > >::wide_null_string()
FUNC 2cdd5 6 0 __crt_stdio_output::output_processor<char,__crt_stdio_output::string_output_adapter<char>,__crt_stdio_output::format_validation_base<char,__crt_stdio_output::string_output_adapter<char> > >::wide_null_string()
FUNC 2cddb 6 0 __crt_stdio_output::output_processor<char,__crt_stdio_output::string_output_adapter<char>,__crt_stdio_output::positional_parameter_base<char,__crt_stdio_output::string_output_adapter<char> > >::wide_null_string()
FUNC 2cde1 6 0 __crt_stdio_output::output_processor<char,__crt_stdio_output::string_output_adapter<char>,__crt_stdio_output::standard_base<char,__crt_stdio_output::string_output_adapter<char> > >::wide_null_string()
FUNC 2cde7 6 0 __crt_stdio_output::output_processor<wchar_t,__crt_stdio_output::stream_output_adapter<wchar_t>,__crt_stdio_output::format_validation_base<wchar_t,__crt_stdio_output::stream_output_adapter<wchar_t> > >::wide_null_string()
FUNC 2cded 6 0 __crt_stdio_output::output_processor<wchar_t,__crt_stdio_output::stream_output_adapter<wchar_t>,__crt_stdio_output::positional_parameter_base<wchar_t,__crt_stdio_output::stream_output_adapter<wchar_t> > >::wide_null_string()
FUNC 2cdf3 6 0 __crt_stdio_output::output_processor<wchar_t,__crt_stdio_output::stream_output_adapter<wchar_t>,__crt_stdio_output::standard_base<wchar_t,__crt_stdio_output::stream_output_adapter<wchar_t> > >::wide_null_string()
FUNC 2cdf9 6 0 __crt_stdio_output::output_processor<wchar_t,__crt_stdio_output::string_output_adapter<wchar_t>,__crt_stdio_output::format_validation_base<wchar_t,__crt_stdio_output::string_output_adapter<wchar_t> > >::wide_null_string()
FUNC 2cdff 6 0 __crt_stdio_output::output_processor<wchar_t,__crt_stdio_output::string_output_adapter<wchar_t>,__crt_stdio_output::positional_parameter_base<wchar_t,__crt_stdio_output::string_output_adapter<wchar_t> > >::wide_null_string()
FUNC 2ce05 6 0 __crt_stdio_output::output_processor<wchar_t,__crt_stdio_output::string_output_adapter<wchar_t>,__crt_stdio_output::standard_base<wchar_t,__crt_stdio_output::string_output_adapter<wchar_t> > >::wide_null_string()
FUNC 2ce0b 1f 0 __crt_stdio_output::output_adapter_common<char,__crt_stdio_output::stream_output_adapter<char> >::write_character(const char, int* const) const
FUNC 2ce31 1f 0 __crt_stdio_output::output_adapter_common<wchar_t,__crt_stdio_output::stream_output_adapter<wchar_t> >::write_character(const wchar_t, int* const) const
FUNC 2ce57 42 0 __crt_stdio_output::string_output_adapter<char>::write_character(const char, int* const) const
FUNC 2cea9 45 0 __crt_stdio_output::string_output_adapter<wchar_t>::write_character(const wchar_t, int* const) const
FUNC 2ceff 36 0 __crt_stdio_output::stream_output_adapter<char>::write_character_without_count_update(const char) const
FUNC 2cf42 39 0 __crt_stdio_output::stream_output_adapter<wchar_t>::write_character_without_count_update(const wchar_t) const
FUNC 2cf89 a7 0 __crt_stdio_output::output_processor<char,__crt_stdio_output::stream_output_adapter<char>,__crt_stdio_output::format_validation_base<char,__crt_stdio_output::stream_output_adapter<char> > >::write_stored_string_tchar(char)
FUNC 2d059 a7 0 __crt_stdio_output::output_processor<char,__crt_stdio_output::stream_output_adapter<char>,__crt_stdio_output::positional_parameter_base<char,__crt_stdio_output::stream_output_adapter<char> > >::write_stored_string_tchar(char)
FUNC 2d129 a7 0 __crt_stdio_output::output_processor<char,__crt_stdio_output::stream_output_adapter<char>,__crt_stdio_output::standard_base<char,__crt_stdio_output::stream_output_adapter<char> > >::write_stored_string_tchar(char)
FUNC 2d1f9 a7 0 __crt_stdio_output::output_processor<char,__crt_stdio_output::string_output_adapter<char>,__crt_stdio_output::format_validation_base<char,__crt_stdio_output::string_output_adapter<char> > >::write_stored_string_tchar(char)
FUNC 2d2c9 a7 0 __crt_stdio_output::output_processor<char,__crt_stdio_output::string_output_adapter<char>,__crt_stdio_output::positional_parameter_base<char,__crt_stdio_output::string_output_adapter<char> > >::write_stored_string_tchar(char)
FUNC 2d399 a7 0 __crt_stdio_output::output_processor<char,__crt_stdio_output::string_output_adapter<char>,__crt_stdio_output::standard_base<char,__crt_stdio_output::string_output_adapter<char> > >::write_stored_string_tchar(char)
FUNC 2d469 93 0 __crt_stdio_output::output_processor<wchar_t,__crt_stdio_output::stream_output_adapter<wchar_t>,__crt_stdio_output::format_validation_base<wchar_t,__crt_stdio_output::stream_output_adapter<wchar_t> > >::write_stored_string_tchar(wchar_t)
FUNC 2d520 93 0 __crt_stdio_output::output_processor<wchar_t,__crt_stdio_output::stream_output_adapter<wchar_t>,__crt_stdio_output::positional_parameter_base<wchar_t,__crt_stdio_output::stream_output_adapter<wchar_t> > >::write_stored_string_tchar(wchar_t)
FUNC 2d5d7 93 0 __crt_stdio_output::output_processor<wchar_t,__crt_stdio_output::stream_output_adapter<wchar_t>,__crt_stdio_output::standard_base<wchar_t,__crt_stdio_output::stream_output_adapter<wchar_t> > >::write_stored_string_tchar(wchar_t)
FUNC 2d68e 93 0 __crt_stdio_output::output_processor<wchar_t,__crt_stdio_output::string_output_adapter<wchar_t>,__crt_stdio_output::format_validation_base<wchar_t,__crt_stdio_output::string_output_adapter<wchar_t> > >::write_stored_string_tchar(wchar_t)
FUNC 2d745 93 0 __crt_stdio_output::output_processor<wchar_t,__crt_stdio_output::string_output_adapter<wchar_t>,__crt_stdio_output::positional_parameter_base<wchar_t,__crt_stdio_output::string_output_adapter<wchar_t> > >::write_stored_string_tchar(wchar_t)
FUNC 2d7fc 93 0 __crt_stdio_output::output_processor<wchar_t,__crt_stdio_output::string_output_adapter<wchar_t>,__crt_stdio_output::standard_base<wchar_t,__crt_stdio_output::string_output_adapter<wchar_t> > >::write_stored_string_tchar(wchar_t)
FUNC 2d8b3 2c 0 __crt_stdio_output::stream_output_adapter<char>::write_string(char const* const, const int, int* const, __crt_deferred_errno_cache&) const
FUNC 2d8ea 2c 0 __crt_stdio_output::stream_output_adapter<wchar_t>::write_string(wchar_t const* const, const int, int* const, __crt_deferred_errno_cache&) const
FUNC 2d921 67 0 __crt_stdio_output::string_output_adapter<char>::write_string(char const* const, const int, int* const, __crt_deferred_errno_cache&) const
FUNC 2d9a1 71 0 __crt_stdio_output::string_output_adapter<wchar_t>::write_string(wchar_t const* const, const int, int* const, __crt_deferred_errno_cache&) const
FUNC 2da2e 9e 0 __crt_stdio_output::output_adapter_common<char,__crt_stdio_output::stream_output_adapter<char> >::write_string_impl(char const* const, const int, int* const, __crt_deferred_errno_cache&) const
FUNC 2daf3 a1 0 __crt_stdio_output::output_adapter_common<wchar_t,__crt_stdio_output::stream_output_adapter<wchar_t> >::write_string_impl(wchar_t const* const, const int, int* const, __crt_deferred_errno_cache&) const
FUNC 2dbbc 1e 0 __acrt_isleadbyte_l_noupdate(const int, __crt_locale_pointers* const)
FUNC 2dbe1 b 0 __acrt_locale_changed()
FUNC 2dbee 22 0 __acrt_locale_get_ctype_array_value(unsigned short const* const, const int, const int)
FUNC 2dc18 83 0 __stdio_common_vfprintf(unsigned long long, _iobuf*, char const*, __crt_locale_pointers*, char*)
FUNC 2dcbb 83 0 __stdio_common_vfprintf_p(unsigned long long, _iobuf*, char const*, __crt_locale_pointers*, char*)
FUNC 2dd5e 83 0 __stdio_common_vfprintf_s(unsigned long long, _iobuf*, char const*, __crt_locale_pointers*, char*)
FUNC 2de01 83 0 __stdio_common_vfwprintf(unsigned long long, _iobuf*, wchar_t const*, __crt_locale_pointers*, char*)
FUNC 2dea4 83 0 __stdio_common_vfwprintf_p(unsigned long long, _iobuf*, wchar_t const*, __crt_locale_pointers*, char*)
FUNC 2df47 83 0 __stdio_common_vfwprintf_s(unsigned long long, _iobuf*, wchar_t const*, __crt_locale_pointers*, char*)
FUNC 2dfea 27 0 __stdio_common_vsnprintf_s(unsigned long long, char*, unsigned int, unsigned int, char const*, __crt_locale_pointers*, char*)
FUNC 2e01a 27 0 __stdio_common_vsnwprintf_s(unsigned long long, wchar_t*, unsigned int, unsigned int, wchar_t const*, __crt_locale_pointers*, char*)
FUNC 2e04a 24 0 __stdio_common_vsprintf(unsigned long long, char*, unsigned int, char const*, __crt_locale_pointers*, char*)
FUNC 2e077 24 0 __stdio_common_vsprintf_p(unsigned long long, char*, unsigned int, char const*, __crt_locale_pointers*, char*)
FUNC 2e0a4 24 0 __stdio_common_vsprintf_s(unsigned long long, char*, unsigned int, char const*, __crt_locale_pointers*, char*)
FUNC 2e0d1 24 0 __stdio_common_vswprintf(unsigned long long, wchar_t*, unsigned int, wchar_t const*, __crt_locale_pointers*, char*)
FUNC 2e0fe 24 0 __stdio_common_vswprintf_p(unsigned long long, wchar_t*, unsigned int, wchar_t const*, __crt_locale_pointers*, char*)
FUNC 2e12b 24 0 __stdio_common_vswprintf_s(unsigned long long, wchar_t*, unsigned int, wchar_t const*, __crt_locale_pointers*, char*)
FUNC 2e158 1a 0 _ctype_fast_check_internal(const unsigned char, const int, __crt_locale_pointers* const)
FUNC 2e178 1a 0 _isdigit_fast_internal(const unsigned char, __crt_locale_pointers* const)
FUNC 2e198 19 0 _tolower_fast_internal(const unsigned char, __crt_locale_pointers* const)
FUNC 2e1b7 31 0 __crt_strtox::is_overflow_condition<unsigned long>(const unsigned int, const unsigned long)
FUNC 2e1f4 41 0 __crt_strtox::is_overflow_condition<unsigned __int64>(const unsigned int, const unsigned long long)
FUNC 2e245 1b 0 __crt_strtox::make_c_string_character_source<char,std::nullptr_t>(char const* const, void const*)
FUNC 2e266 1b 0 __crt_strtox::make_c_string_character_source<wchar_t,std::nullptr_t>(wchar_t const* const, void const*)
FUNC 2e287 225 0 __crt_strtox::parse_integer<unsigned long,__crt_strtox::c_string_character_source<char> >(__crt_locale_pointers* const, __crt_strtox::c_string_character_source<char>, int, const bool)
FUNC 2e535 608 0 __crt_strtox::parse_integer<unsigned long,__crt_strtox::c_string_character_source<wchar_t> >(__crt_locale_pointers* const, __crt_strtox::c_string_character_source<wchar_t>, int, const bool)
FUNC 2ecbf 2a6 0 __crt_strtox::parse_integer<unsigned __int64,__crt_strtox::c_string_character_source<char> >(__crt_locale_pointers* const, __crt_strtox::c_string_character_source<char>, int, const bool)
FUNC 2f00e 6d1 0 __crt_strtox::parse_integer<unsigned __int64,__crt_strtox::c_string_character_source<wchar_t> >(__crt_locale_pointers* const, __crt_strtox::c_string_character_source<wchar_t>, int, const bool)
FUNC 2f893 2b 0 __crt_strtox::parse_integer_from_string<long,char,std::nullptr_t>(char const* const, void const*, const int, __crt_locale_pointers* const)
FUNC 2f8c8 2b 0 __crt_strtox::parse_integer_from_string<long,wchar_t,std::nullptr_t>(wchar_t const* const, void const*, const int, __crt_locale_pointers* const)
FUNC 2f8fd 2b 0 __crt_strtox::parse_integer_from_string<__int64,char,std::nullptr_t>(char const* const, void const*, const int, __crt_locale_pointers* const)
FUNC 2f932 2b 0 __crt_strtox::parse_integer_from_string<__int64,wchar_t,std::nullptr_t>(wchar_t const* const, void const*, const int, __crt_locale_pointers* const)
FUNC 2f967 1c 0 __crt_strtox::c_string_character_source<char>::c_string_character_source<char>(char const* const, char const** const)
FUNC 2f98a 1c 0 __crt_strtox::c_string_character_source<wchar_t>::c_string_character_source<wchar_t>(wchar_t const* const, wchar_t const** const)
FUNC 2f9ad c 0 __crt_strtox::c_string_character_source<char>::~c_string_character_source<char>()
FUNC 2f9bc c 0 __crt_strtox::c_string_character_source<wchar_t>::~c_string_character_source<wchar_t>()
FUNC 2f9cb 8 0 __crt_strtox::c_string_character_source<char>::get()
FUNC 2f9d5 b 0 __crt_strtox::c_string_character_source<wchar_t>::get()
FUNC 2f9e2 1e 0 __crt_strtox::is_space(const char, __crt_locale_pointers* const)
FUNC 2fa07 18 0 __crt_strtox::is_space(const wchar_t, __crt_locale_pointers*)
FUNC 2fa25 6 0 __crt_strtox::maximum_signed_value(unsigned long)
FUNC 2fa2b 9 0 __crt_strtox::maximum_signed_value(unsigned long long)
FUNC 2fa36 6 0 __crt_strtox::minimum_signed_value(unsigned long)
FUNC 2fa3c 8 0 __crt_strtox::minimum_signed_value(unsigned long long)
FUNC 2fa46 3a 0 __crt_strtox::parse_digit(const char)
FUNC 2fa8e 1df 0 __crt_strtox::parse_digit(const wchar_t)
FUNC 2fce4 10 0 __crt_strtox::c_string_character_source<char>::restore_state(char const* const)
FUNC 2fcf8 10 0 __crt_strtox::c_string_character_source<wchar_t>::restore_state(wchar_t const* const)
FUNC 2fd0c 3 0 __crt_strtox::c_string_character_source<char>::save_state() const
FUNC 2fd0f 3 0 __crt_strtox::c_string_character_source<wchar_t>::save_state() const
FUNC 2fd12 29 0 __crt_strtox::c_string_character_source<char>::unget(const char)
FUNC 2fd45 2e 0 __crt_strtox::c_string_character_source<wchar_t>::unget(const wchar_t)
FUNC 2fd7e 1b 0 __crt_strtox::c_string_character_source<char>::validate() const
FUNC 2fd9f 1b 0 __crt_strtox::c_string_character_source<wchar_t>::validate() const
FUNC 2fdc0 1a1 0 __crt_strtox::wide_character_to_digit(const wchar_t)
FUNC 2ffc9 c 0 __acrt_get_locale_data_prefix(void const* const)
FUNC 2ffd8 23 0 __ascii_iswalpha(const int)
FUNC 30003 17 0 __ascii_toupper(const int)
FUNC 3001f 17 0 __ascii_towupper(const int)
FUNC 3003b 23 0 _atoi64(char const*)
FUNC 30066 24 0 _atoi64_l(char const*, __crt_locale_pointers*)
FUNC 30093 24 0 _atoi_l(char const*, __crt_locale_pointers*)
FUNC 300c0 24 0 _atol_l(char const*, __crt_locale_pointers*)
FUNC 300ed 24 0 _atoll_l(char const*, __crt_locale_pointers*)
FUNC 3011a 28 0 _chvalidchk_l(const int, const int, __crt_locale_pointers* const)
FUNC 3014c 54 0 _ischartype_l(const int, const int, __crt_locale_pointers* const)
FUNC 301b5 23 0 _wtoi(wchar_t const*)
FUNC 301e0 23 0 _wtoi64(wchar_t const*)
FUNC 3020b 24 0 _wtoi64_l(wchar_t const*, __crt_locale_pointers*)
FUNC 30238 24 0 _wtoi_l(wchar_t const*, __crt_locale_pointers*)
FUNC 30265 23 0 _wtol(wchar_t const*)
FUNC 30290 24 0 _wtol_l(wchar_t const*, __crt_locale_pointers*)
FUNC 302bd 23 0 _wtoll(wchar_t const*)
FUNC 302e8 24 0 _wtoll_l(wchar_t const*, __crt_locale_pointers*)
FUNC 30315 23 0 atoi(char const*)
FUNC 30340 23 0 atol(char const*)
FUNC 3036b 23 0 atoll(char const*)
FUNC 303a0 78 0 strncmp(unsigned char*, unsigned char*, unsigned long)
FUNC 30436 21 0 _set_abort_behavior(unsigned int, unsigned int)
FUNC 3045f 44 0 abort()
FUNC 304b4 b 0 calloc(unsigned int, unsigned int)
FUNC 304c1 3a 0 wcsncmp(wchar_t const*, wchar_t const*, unsigned int)
FUNC 30509 12 0 __crt_internal_free_policy::operator()<__acrt_ptd>(__acrt_ptd const* const) const
FUNC 3051f 52 0 __crt_seh_guarded_call<void>::operator()<<lambda_15ade71b0218206bbe3333a0c9b79046>,<lambda_da44e0f8b0f19ba52fefafb335991732> &,<lambda_207f2d024fc103971653565357d6cd41> >(__acrt_lock_and_call::__l2::<lambda_15ade71b0218206bbe3333a0c9b79046>&&, construct_ptd::__l2::<lambda_da44e0f8b0f19ba52fefafb335991732>&, __acrt_lock_and_call::__l2::<lambda_207f2d024fc103971653565357d6cd41>&&)
FUNC 30585 6b 0 __crt_seh_guarded_call<void>::operator()<<lambda_38edbb1296d33220d7e4dd0ed76b244a>,<lambda_5ce1d447e08cb34b2473517608e21441> &,<lambda_fb385d3da700c9147fc39e65dd577a8c> >(__acrt_lock_and_call::__l2::<lambda_38edbb1296d33220d7e4dd0ed76b244a>&&, destroy_ptd::__l2::<lambda_5ce1d447e08cb34b2473517608e21441>&, __acrt_lock_and_call::__l2::<lambda_fb385d3da700c9147fc39e65dd577a8c>&&)
FUNC 3060a 55 0 __crt_seh_guarded_call<void>::operator()<<lambda_6affb1475c98b40b75cdec977db92e3c>,<lambda_b8d4b9c228a6ecc3f80208dbb4b4a104> &,<lambda_608742c3c92a14382c1684fc64f96c88> >(__acrt_lock_and_call::__l2::<lambda_6affb1475c98b40b75cdec977db92e3c>&&, destroy_ptd::__l2::<lambda_b8d4b9c228a6ecc3f80208dbb4b4a104>&, __acrt_lock_and_call::__l2::<lambda_608742c3c92a14382c1684fc64f96c88>&&)
FUNC 30674 5a 0 __crt_seh_guarded_call<void>::operator()<<lambda_a7e850c220f1c8d1e6efeecdedd162c6>,<lambda_46720907175c18b6c9d2717bc0d2d362> &,<lambda_9048902d66e8d99359bc9897bbb930a8> >(__acrt_lock_and_call::__l2::<lambda_a7e850c220f1c8d1e6efeecdedd162c6>&&, construct_ptd::__l2::<lambda_46720907175c18b6c9d2717bc0d2d362>&, __acrt_lock_and_call::__l2::<lambda_9048902d66e8d99359bc9897bbb930a8>&&)
FUNC 306e4 26 0 __acrt_lock_and_call<<lambda_46720907175c18b6c9d2717bc0d2d362> >(const __acrt_lock_id, construct_ptd::__l2::<lambda_46720907175c18b6c9d2717bc0d2d362>&&)
FUNC 30713 26 0 __acrt_lock_and_call<<lambda_5ce1d447e08cb34b2473517608e21441> >(const __acrt_lock_id, destroy_ptd::__l2::<lambda_5ce1d447e08cb34b2473517608e21441>&&)
FUNC 30742 26 0 __acrt_lock_and_call<<lambda_b8d4b9c228a6ecc3f80208dbb4b4a104> >(const __acrt_lock_id, destroy_ptd::__l2::<lambda_b8d4b9c228a6ecc3f80208dbb4b4a104>&&)
FUNC 30771 26 0 __acrt_lock_and_call<<lambda_da44e0f8b0f19ba52fefafb335991732> >(const __acrt_lock_id, construct_ptd::__l2::<lambda_da44e0f8b0f19ba52fefafb335991732>&&)
FUNC 307a0 12 0 <lambda_15ade71b0218206bbe3333a0c9b79046>::<lambda_15ade71b0218206bbe3333a0c9b79046>(__acrt_lock_id const&)
FUNC 307b6 12 0 <lambda_207f2d024fc103971653565357d6cd41>::<lambda_207f2d024fc103971653565357d6cd41>(__acrt_lock_id const&)
FUNC 307cc 12 0 <lambda_38edbb1296d33220d7e4dd0ed76b244a>::<lambda_38edbb1296d33220d7e4dd0ed76b244a>(__acrt_lock_id const&)
FUNC 307e2 16 0 <lambda_46720907175c18b6c9d2717bc0d2d362>::<lambda_46720907175c18b6c9d2717bc0d2d362>(__acrt_ptd* const&, __crt_locale_data** const&)
FUNC 307fd 10 0 <lambda_5ce1d447e08cb34b2473517608e21441>::<lambda_5ce1d447e08cb34b2473517608e21441>(__acrt_ptd* const&)
FUNC 30811 12 0 <lambda_608742c3c92a14382c1684fc64f96c88>::<lambda_608742c3c92a14382c1684fc64f96c88>(__acrt_lock_id const&)
FUNC 30827 12 0 <lambda_6affb1475c98b40b75cdec977db92e3c>::<lambda_6affb1475c98b40b75cdec977db92e3c>(__acrt_lock_id const&)
FUNC 3083d 12 0 <lambda_9048902d66e8d99359bc9897bbb930a8>::<lambda_9048902d66e8d99359bc9897bbb930a8>(__acrt_lock_id const&)
FUNC 30853 12 0 <lambda_a7e850c220f1c8d1e6efeecdedd162c6>::<lambda_a7e850c220f1c8d1e6efeecdedd162c6>(__acrt_lock_id const&)
FUNC 30869 10 0 <lambda_b8d4b9c228a6ecc3f80208dbb4b4a104>::<lambda_b8d4b9c228a6ecc3f80208dbb4b4a104>(__acrt_ptd* const&)
FUNC 3087d 10 0 <lambda_da44e0f8b0f19ba52fefafb335991732>::<lambda_da44e0f8b0f19ba52fefafb335991732>(__acrt_ptd* const&)
FUNC 30891 12 0 <lambda_fb385d3da700c9147fc39e65dd577a8c>::<lambda_fb385d3da700c9147fc39e65dd577a8c>(__acrt_lock_id const&)
FUNC 308a7 10 0 __crt_unique_heap_ptr<__acrt_ptd,__crt_internal_free_policy>::__crt_unique_heap_ptr<__acrt_ptd,__crt_internal_free_policy>(__acrt_ptd* const)
FUNC 308bb 11 0 __crt_scoped_get_last_error_reset::__crt_scoped_get_last_error_reset()
FUNC 308d0 12 0 __crt_unique_heap_ptr<__acrt_ptd,__crt_internal_free_policy>::~__crt_unique_heap_ptr<__acrt_ptd,__crt_internal_free_policy>()
FUNC 308e6 9 0 __crt_scoped_get_last_error_reset::~__crt_scoped_get_last_error_reset()
FUNC 308f1 7 0 __crt_unique_heap_ptr<__acrt_ptd,__crt_internal_free_policy>::operator bool() const
FUNC 308f8 9 0 <lambda_15ade71b0218206bbe3333a0c9b79046>::operator()() const
FUNC 30903 9 0 <lambda_207f2d024fc103971653565357d6cd41>::operator()() const
FUNC 3090e 9 0 <lambda_38edbb1296d33220d7e4dd0ed76b244a>::operator()() const
FUNC 30919 13 0 <lambda_46720907175c18b6c9d2717bc0d2d362>::operator()() const
FUNC 30930 24 0 <lambda_5ce1d447e08cb34b2473517608e21441>::operator()() const
FUNC 3095d 9 0 <lambda_608742c3c92a14382c1684fc64f96c88>::operator()() const
FUNC 30968 9 0 <lambda_6affb1475c98b40b75cdec977db92e3c>::operator()() const
FUNC 30973 9 0 <lambda_9048902d66e8d99359bc9897bbb930a8>::operator()() const
FUNC 3097e 9 0 <lambda_a7e850c220f1c8d1e6efeecdedd162c6>::operator()() const
FUNC 30989 e 0 <lambda_b8d4b9c228a6ecc3f80208dbb4b4a104>::operator()() const
FUNC 3099a b 0 <lambda_da44e0f8b0f19ba52fefafb335991732>::operator()() const
FUNC 309a7 9 0 <lambda_fb385d3da700c9147fc39e65dd577a8c>::operator()() const
FUNC 309b2 99 0 construct_ptd(__acrt_ptd* const, __crt_locale_data** const)
FUNC 30a71 16 0 construct_ptd_array(__acrt_ptd* const)
FUNC 30a8c 3 0 __crt_state_management::dual_state_global<__crt_locale_data *>::dangerous_get_state_array()
FUNC 30a8f 21 0 destroy_fls(void*)
FUNC 30ab8 cd 0 destroy_ptd(__acrt_ptd* const)
FUNC 30bb8 5 0 destroy_ptd_array(__acrt_ptd* const)
FUNC 30bbd 6 0 __crt_unique_heap_ptr<__acrt_ptd,__crt_internal_free_policy>::detach()
FUNC 30bc3 3 0 __crt_unique_heap_ptr<__acrt_ptd,__crt_internal_free_policy>::get() const
FUNC 30bc6 3 0 __crt_state_management::get_current_state_index(__crt_scoped_get_last_error_reset const&)
FUNC 30bc9 81 0 internal_get_ptd_head()
FUNC 30c6a b1 0 internal_getptd_noexit()
FUNC 30d47 7 0 __crt_unique_heap_ptr<__acrt_ptd,__crt_internal_free_policy>::is_valid() const
FUNC 30d4e 12 0 __crt_unique_heap_ptr<__acrt_ptd,__crt_internal_free_policy>::release()
FUNC 30d64 4b 0 replace_current_thread_locale_nolock(__acrt_ptd* const, __crt_locale_data* const)
FUNC 30dc1 17 0 try_get_ptd_head()
FUNC 30ddd 3 0 __crt_state_management::dual_state_global<__crt_locale_data *>::value()
FUNC 30de0 2c 0 __acrt_freeptd()
FUNC 30e17 bd 0 __acrt_getptd()
FUNC 30f03 9a 0 __acrt_getptd_head()
FUNC 30fc3 b5 0 __acrt_getptd_noexit()
FUNC 310a5 2c 0 __acrt_initialize_ptd()
FUNC 310dc 1a 0 __acrt_uninitialize_ptd(bool)
FUNC 310fc 6 0 __threadhandle()
FUNC 31102 6 0 __threadid()
FUNC 31108 6 0 select_heap(void* const)
FUNC 3110e 3a 0 _free_base(void*)
FUNC 31156 41 0 __acrt_initialize_locks()
FUNC 311a7 17 0 __acrt_lock(__acrt_lock_id)
FUNC 311c3 31 0 __acrt_uninitialize_locks(bool)
FUNC 31200 17 0 __acrt_unlock(__acrt_lock_id)
FUNC 3121c e 0 _lock_locales()
FUNC 3122d 9 0 _unlock_locales()
FUNC 31238 43 0 get_cached_win_policy<`__acrt_get_begin_thread_init_policy'::`2'::begin_thread_init_policy_properties>(AppPolicyThreadInitializationType)
FUNC 3128b 43 0 get_cached_win_policy<`__acrt_get_developer_information_policy'::`2'::developer_information_policy_properties>(AppPolicyShowDeveloperDiagnostic)
FUNC 312de 5b 0 get_cached_win_policy<`__acrt_get_windowing_model_policy'::`2'::windowing_model_policy_properties>(AppPolicyWindowingModel)
FUNC 3134f 2f 0 get_win_policy<`__acrt_get_process_end_policy'::`2'::process_end_policy_properties>(AppPolicyProcessTerminationMethod)
FUNC 31389 f 0 `__acrt_get_begin_thread_init_policy'::`2'::begin_thread_init_policy_properties::appmodel_get_policy(AppPolicyThreadInitializationType*)
FUNC 3139b f 0 `__acrt_get_developer_information_policy'::`2'::developer_information_policy_properties::appmodel_get_policy(AppPolicyShowDeveloperDiagnostic*)
FUNC 313ad f 0 `__acrt_get_process_end_policy'::`2'::process_end_policy_properties::appmodel_get_policy(AppPolicyProcessTerminationMethod*)
FUNC 313bf f 0 `__acrt_get_windowing_model_policy'::`2'::windowing_model_policy_properties::appmodel_get_policy(AppPolicyWindowingModel*)
FUNC 313d1 11 0 `__acrt_get_begin_thread_init_policy'::`2'::begin_thread_init_policy_properties::appmodel_policy_to_policy_type(const long)
FUNC 313e6 11 0 `__acrt_get_developer_information_policy'::`2'::developer_information_policy_properties::appmodel_policy_to_policy_type(const long)
FUNC 313fb 10 0 `__acrt_get_process_end_policy'::`2'::process_end_policy_properties::appmodel_policy_to_policy_type(const AppPolicyProcessTerminationMethod)
FUNC 3140f 29 0 `__acrt_get_windowing_model_policy'::`2'::windowing_model_policy_properties::appmodel_policy_to_policy_type(const long)
FUNC 31442 44 0 __acrt_get_begin_thread_init_policy()
FUNC 31497 44 0 __acrt_get_developer_information_policy()
FUNC 314ec 31 0 __acrt_get_process_end_policy()
FUNC 31529 5c 0 __acrt_get_windowing_model_policy()
FUNC 3159c 43 0 __acrt_errno_from_os_error(unsigned long)
FUNC 315ef 23 0 __acrt_errno_map_os_error(unsigned long)
FUNC 3161a 13 0 __doserrno()
FUNC 31631 13 0 _errno()
FUNC 31648 25 0 _get_doserrno(unsigned long*)
FUNC 31676 25 0 _get_errno(int*)
FUNC 316a4 21 0 _set_doserrno(unsigned long)
FUNC 316cd 21 0 _set_errno(int)
FUNC 316f6 5d 0 _calloc_base(unsigned int, unsigned int)
FUNC 3176a 18 0 <lambda_838c7f62c73c983481e27c09e84b0b5d>::<lambda_invoker_cdecl>(void const*, void const*)
FUNC 31788 18 0 <lambda_d388dc2bcbe6079ffc891eec49d9b3b2>::<lambda_invoker_cdecl>(void const*, void const*)
FUNC 317a6 b2 0 __acrt_convert_wcs_mbs_cp<char,wchar_t,<lambda_62f6974d9771e494a5ea317cc32e971c>,__crt_win32_buffer_internal_dynamic_resizing>(char const* const, __crt_win32_buffer<wchar_t,__crt_win32_buffer_internal_dynamic_resizing>&, __acrt_mbs_to_wcs_cp::__l2::<lambda_62f6974d9771e494a5ea317cc32e971c> const&, const unsigned int)
FUNC 31884 cf 0 __acrt_convert_wcs_mbs_cp<wchar_t,char,<lambda_28bda7af82a03b66c1cb3803a755f95d>,__crt_win32_buffer_internal_dynamic_resizing>(wchar_t const* const, __crt_win32_buffer<char,__crt_win32_buffer_internal_dynamic_resizing>&, __acrt_wcs_to_mbs_cp::__l2::<lambda_28bda7af82a03b66c1cb3803a755f95d> const&, const unsigned int)
FUNC 31986 1d 0 __acrt_mbs_to_wcs_cp<__crt_win32_buffer_internal_dynamic_resizing>(char const* const, __crt_win32_buffer<wchar_t,__crt_win32_buffer_internal_dynamic_resizing>&, const unsigned int)
FUNC 319aa 1d 0 __acrt_wcs_to_mbs_cp<__crt_win32_buffer_internal_dynamic_resizing>(wchar_t const* const, __crt_win32_buffer<char,__crt_win32_buffer_internal_dynamic_resizing>&, const unsigned int)
FUNC 319ce 1ef 0 common_expand_argv_wildcards<char>(char** const, char*** const)
FUNC 31c38 228 0 common_expand_argv_wildcards<wchar_t>(wchar_t** const, wchar_t*** const)
FUNC 31eea b1 0 copy_and_add_argument_to_buffer<char>(char const* const, char const* const, const unsigned int, `anonymous-namespace'::argument_list<char>&)
FUNC 31fc7 b4 0 copy_and_add_argument_to_buffer<wchar_t>(wchar_t const* const, wchar_t const* const, const unsigned int, `anonymous-namespace'::argument_list<wchar_t>&)
FUNC 320a8 257 0 expand_argument_wildcards<char>(char* const, char* const, `anonymous-namespace'::argument_list<char>&)
FUNC 32394 172 0 expand_argument_wildcards<wchar_t>(wchar_t* const, wchar_t* const, `anonymous-namespace'::argument_list<wchar_t>&)
FUNC 32562 18 0 __crt_char_traits<char>::tcslen<char const * const &>(char const* const&)
FUNC 32580 1e 0 __crt_char_traits<wchar_t>::tcslen<wchar_t const * const &>(wchar_t const* const&)
FUNC 325a5 23 0 __crt_char_traits<char>::tcsncpy_s<char * &,unsigned int,char * &,unsigned int const &>(char*&, unsigned int&&, char*&, unsigned int const&)
FUNC 325d0 23 0 __crt_char_traits<wchar_t>::tcsncpy_s<wchar_t * &,unsigned int,wchar_t * &,unsigned int const &>(wchar_t*&, unsigned int&&, wchar_t*&, unsigned int const&)
FUNC 325fb 23 0 __crt_char_traits<char>::tcsncpy_s<char *,unsigned int const &,char const * const &,unsigned int const &>(char*&&, unsigned int const&, char const* const&, unsigned int const&)
FUNC 32626 23 0 __crt_char_traits<char>::tcsncpy_s<char *,unsigned int,char const * const &,unsigned int const &>(char*&&, unsigned int&&, char const* const&, unsigned int const&)
FUNC 32651 23 0 __crt_char_traits<wchar_t>::tcsncpy_s<wchar_t *,unsigned int const &,wchar_t const * const &,unsigned int const &>(wchar_t*&&, unsigned int const&, wchar_t const* const&, unsigned int const&)
FUNC 3267c 23 0 __crt_char_traits<wchar_t>::tcsncpy_s<wchar_t *,unsigned int,wchar_t const * const &,unsigned int const &>(wchar_t*&&, unsigned int&&, wchar_t const* const&, unsigned int const&)
FUNC 326a7 16 0 __crt_char_traits<char>::tcspbrk<char * &,char const (&)[3]>(char*&, const char[3]&)
FUNC 326c2 16 0 __crt_char_traits<wchar_t>::tcspbrk<wchar_t * &,wchar_t const (&)[3]>(wchar_t*&, const wchar_t[3]&)
FUNC 326dd 10 0 __crt_unique_handle_t<__crt_findfile_traits>::__crt_unique_handle_t<__crt_findfile_traits>(void* const)
FUNC 326f1 16 0 __crt_win32_buffer<char,__crt_win32_buffer_internal_dynamic_resizing>::__crt_win32_buffer<char,__crt_win32_buffer_internal_dynamic_resizing>()
FUNC 3270c 16 0 __crt_win32_buffer<wchar_t,__crt_win32_buffer_internal_dynamic_resizing>::__crt_win32_buffer<wchar_t,__crt_win32_buffer_internal_dynamic_resizing>()
FUNC 32727 d 0 (anonymous namespace)::argument_list<char>::argument_list<char>()
FUNC 32737 d 0 (anonymous namespace)::argument_list<wchar_t>::argument_list<wchar_t>()
FUNC 32747 17 0 __crt_unique_handle_t<__crt_findfile_traits>::~__crt_unique_handle_t<__crt_findfile_traits>()
FUNC 32763 5 0 __crt_win32_buffer<char,__crt_win32_buffer_internal_dynamic_resizing>::~__crt_win32_buffer<char,__crt_win32_buffer_internal_dynamic_resizing>()
FUNC 32768 5 0 __crt_win32_buffer<wchar_t,__crt_win32_buffer_internal_dynamic_resizing>::~__crt_win32_buffer<wchar_t,__crt_win32_buffer_internal_dynamic_resizing>()
FUNC 3276d 29 0 (anonymous namespace)::argument_list<char>::~argument_list<char>()
FUNC 327a0 29 0 (anonymous namespace)::argument_list<wchar_t>::~argument_list<wchar_t>()
FUNC 327d3 6 0 <lambda_838c7f62c73c983481e27c09e84b0b5d>::operator int (__cdecl*)(void const *,void const *)() const
FUNC 327d9 6 0 <lambda_d388dc2bcbe6079ffc891eec49d9b3b2>::operator int (__cdecl*)(void const *,void const *)() const
FUNC 327df 24 0 <lambda_28bda7af82a03b66c1cb3803a755f95d>::operator()(const unsigned int, wchar_t const* const, char* const, const unsigned int) const
FUNC 3280c 1e 0 <lambda_594f614a8947934b886943aa86a6498d>::operator()(const char) const
FUNC 32831 21 0 <lambda_62f6974d9771e494a5ea317cc32e971c>::operator()(const unsigned int, char const* const, wchar_t* const, const unsigned int) const
FUNC 3285a 1a 0 <lambda_838c7f62c73c983481e27c09e84b0b5d>::operator()(void const*, void const*) const
FUNC 3287a 1a 0 <lambda_d388dc2bcbe6079ffc891eec49d9b3b2>::operator()(void const*, void const*) const
FUNC 3289a 24 0 <lambda_d734a73e0f649ebd9d9b0eca0b8ca86a>::operator()(const wchar_t) const
FUNC 328c7 3f 0 __acrt_get_utf8_acp_compatibility_codepage()
FUNC 32915 1a 0 __crt_win32_buffer<char,__crt_win32_buffer_internal_dynamic_resizing>::_deallocate()
FUNC 32935 1a 0 __crt_win32_buffer<wchar_t,__crt_win32_buffer_internal_dynamic_resizing>::_deallocate()
FUNC 32955 3c 0 __crt_win32_buffer<char,__crt_win32_buffer_internal_dynamic_resizing>::allocate(unsigned int)
FUNC 329a0 3f 0 __crt_win32_buffer<wchar_t,__crt_win32_buffer_internal_dynamic_resizing>::allocate(unsigned int)
FUNC 329ee 1f 0 __crt_win32_buffer_internal_dynamic_resizing::allocate(void** const, const unsigned int, __crt_win32_buffer_empty_debug_info const&)
FUNC 32a14 35 0 (anonymous namespace)::argument_list<char>::append(char* const)
FUNC 32a56 35 0 (anonymous namespace)::argument_list<wchar_t>::append(wchar_t* const)
FUNC 32a98 3 0 (anonymous namespace)::argument_list<char>::begin() const
FUNC 32a9b 3 0 (anonymous namespace)::argument_list<wchar_t>::begin() const
FUNC 32a9e 4 0 __crt_win32_buffer<char,__crt_win32_buffer_internal_dynamic_resizing>::capacity() const
FUNC 32aa2 4 0 __crt_win32_buffer<wchar_t,__crt_win32_buffer_internal_dynamic_resizing>::capacity() const
FUNC 32aa6 17 0 __crt_unique_handle_t<__crt_findfile_traits>::close()
FUNC 32ac2 15 0 __crt_findfile_traits::close(void*)
FUNC 32adc 4 0 __crt_win32_buffer<char,__crt_win32_buffer_internal_dynamic_resizing>::data()
FUNC 32ae0 4 0 __crt_win32_buffer<wchar_t,__crt_win32_buffer_internal_dynamic_resizing>::data()
FUNC 32ae4 10 0 __crt_win32_buffer_internal_dynamic_resizing::deallocate(void* const, __crt_win32_buffer_empty_debug_info const&)
FUNC 32af8 3 0 __crt_win32_buffer<char,__crt_win32_buffer_internal_dynamic_resizing>::debug_info() const
FUNC 32afb 3 0 __crt_win32_buffer<wchar_t,__crt_win32_buffer_internal_dynamic_resizing>::debug_info() const
FUNC 32afe 4 0 (anonymous namespace)::argument_list<char>::end() const
FUNC 32b02 4 0 (anonymous namespace)::argument_list<wchar_t>::end() const
FUNC 32b06 87 0 (anonymous namespace)::argument_list<char>::expand_if_necessary()
FUNC 32bae 87 0 (anonymous namespace)::argument_list<wchar_t>::expand_if_necessary()
FUNC 32c56 3 0 __crt_unique_handle_t<__crt_findfile_traits>::get() const
FUNC 32c59 29 0 get_file_name(__crt_win32_buffer<char,__crt_win32_buffer_internal_dynamic_resizing>* const, wchar_t* const)
FUNC 32c8c a 0 get_file_name(__crt_win32_buffer<wchar_t,__crt_win32_buffer_internal_dynamic_resizing>*, wchar_t* const)
FUNC 32c98 4 0 __crt_findfile_traits::get_invalid_value()
FUNC 32c9c a 0 get_wide(__crt_win32_buffer<wchar_t,__crt_win32_buffer_internal_dynamic_resizing>*, wchar_t* const)
FUNC 32ca8 29 0 get_wide(__crt_win32_buffer<wchar_t,__crt_win32_buffer_internal_dynamic_resizing>* const, char* const)
FUNC 32cdb b 0 previous_character(char* const, char* const)
FUNC 32ce8 d 0 previous_character(wchar_t*, wchar_t* const)
FUNC 32cf8 17 0 __crt_win32_buffer<char,__crt_win32_buffer_internal_dynamic_resizing>::set_to_nullptr()
FUNC 32d14 17 0 __crt_win32_buffer<wchar_t,__crt_win32_buffer_internal_dynamic_resizing>::set_to_nullptr()
FUNC 32d30 f 0 __crt_win32_buffer<char,__crt_win32_buffer_internal_dynamic_resizing>::size(unsigned int)
FUNC 32d42 f 0 __crt_win32_buffer<wchar_t,__crt_win32_buffer_internal_dynamic_resizing>::size(unsigned int)
FUNC 32d54 9 0 (anonymous namespace)::argument_list<char>::size() const
FUNC 32d5f 9 0 (anonymous namespace)::argument_list<wchar_t>::size() const
FUNC 32d6a b 0 strpbrk(char* const, char const* const)
FUNC 32d77 b 0 wcspbrk(wchar_t*, wchar_t const*)
FUNC 32d84 b 0 __acrt_expand_narrow_argv_wildcards(char**, char***)
FUNC 32d91 b 0 __acrt_expand_wide_argv_wildcards(wchar_t**, wchar_t***)
FUNC 32d9e c7 0 __acrt_convert_wcs_mbs_cp<wchar_t,char,<lambda_0fec1a7b3f42a53036604e18c2d5e07e>,__crt_win32_buffer_no_resizing>(wchar_t const* const, __crt_win32_buffer<char,__crt_win32_buffer_no_resizing>&, __acrt_wcs_to_mbs_cp::__l2::<lambda_0fec1a7b3f42a53036604e18c2d5e07e> const&, const unsigned int)
FUNC 32e96 1d 0 __acrt_wcs_to_mbs_cp<__crt_win32_buffer_no_resizing>(wchar_t const* const, __crt_win32_buffer<char,__crt_win32_buffer_no_resizing>&, const unsigned int)
FUNC 32eba 24 0 __crt_win32_buffer<char,__crt_win32_buffer_no_resizing>::__crt_win32_buffer<char,__crt_win32_buffer_no_resizing>(char* const, const unsigned int)
FUNC 32ee7 b 0 __crt_win32_buffer<char,__crt_win32_buffer_no_resizing>::~__crt_win32_buffer<char,__crt_win32_buffer_no_resizing>()
FUNC 32ef4 24 0 <lambda_0fec1a7b3f42a53036604e18c2d5e07e>::operator()(const unsigned int, wchar_t const* const, char* const, const unsigned int) const
FUNC 32f21 b 0 __crt_win32_buffer<char,__crt_win32_buffer_no_resizing>::_deallocate()
FUNC 32f2e 27 0 __crt_win32_buffer<char,__crt_win32_buffer_no_resizing>::allocate(unsigned int)
FUNC 32f5e d 0 __crt_win32_buffer_no_resizing::allocate(void** const, const unsigned int, __crt_win32_buffer_empty_debug_info const&)
FUNC 32f6e 4 0 __crt_win32_buffer<char,__crt_win32_buffer_no_resizing>::capacity() const
FUNC 32f72 4 0 __crt_win32_buffer<char,__crt_win32_buffer_no_resizing>::data()
FUNC 32f76 3 0 __crt_win32_buffer_no_resizing::deallocate(void* const, __crt_win32_buffer_empty_debug_info const&)
FUNC 32f79 3 0 __crt_win32_buffer<char,__crt_win32_buffer_no_resizing>::debug_info() const
FUNC 32f7c 14 0 __crt_win32_buffer<char,__crt_win32_buffer_no_resizing>::set_to_nullptr()
FUNC 32f95 f 0 __crt_win32_buffer<char,__crt_win32_buffer_no_resizing>::size(unsigned int)
FUNC 32fa7 4 0 __crt_win32_buffer<char,__crt_win32_buffer_no_resizing>::size() const
FUNC 32fab a1 0 __acrt_GetModuleFileNameA(HINSTANCE__*, char*, unsigned long)
FUNC 33074 12 0 __crt_internal_free_policy::operator()<__crt_multibyte_data>(__crt_multibyte_data const* const) const
FUNC 3308a 4d 0 __crt_seh_guarded_call<void>::operator()<<lambda_ceb1ee4838e85a9d631eb091e2fbe199>,<lambda_ae742caa10f662c28703da3d2ea5e57e> &,<lambda_cd08b5d6af4937fe54fc07d0c9bf6b37> >(__acrt_lock_and_call::__l2::<lambda_ceb1ee4838e85a9d631eb091e2fbe199>&&, setmbcp_internal::__l2::<lambda_ae742caa10f662c28703da3d2ea5e57e>&, __acrt_lock_and_call::__l2::<lambda_cd08b5d6af4937fe54fc07d0c9bf6b37>&&)
FUNC 330ea 26 0 __acrt_lock_and_call<<lambda_ae742caa10f662c28703da3d2ea5e57e> >(const __acrt_lock_id, setmbcp_internal::__l2::<lambda_ae742caa10f662c28703da3d2ea5e57e>&&)
FUNC 33119 f 0 __crt_state_management::dual_state_global<unsigned char *>::initialize_from_array<unsigned char [1][256]>(unsigned char[1][256]&)
FUNC 3312b f 0 __crt_state_management::dual_state_global<unsigned char *>::initialize_from_array<unsigned char [1][257]>(unsigned char[1][257]&)
FUNC 3313d 16 0 <lambda_ae742caa10f662c28703da3d2ea5e57e>::<lambda_ae742caa10f662c28703da3d2ea5e57e>(__acrt_ptd* const&, __crt_multibyte_data** const&)
FUNC 33158 12 0 <lambda_cd08b5d6af4937fe54fc07d0c9bf6b37>::<lambda_cd08b5d6af4937fe54fc07d0c9bf6b37>(__acrt_lock_id const&)
FUNC 3316e 12 0 <lambda_ceb1ee4838e85a9d631eb091e2fbe199>::<lambda_ceb1ee4838e85a9d631eb091e2fbe199>(__acrt_lock_id const&)
FUNC 33184 10 0 __crt_unique_heap_ptr<__crt_multibyte_data,__crt_internal_free_policy>::__crt_unique_heap_ptr<__crt_multibyte_data,__crt_internal_free_policy>(__crt_multibyte_data* const)
FUNC 33198 12 0 __crt_unique_heap_ptr<__crt_multibyte_data,__crt_internal_free_policy>::~__crt_unique_heap_ptr<__crt_multibyte_data,__crt_internal_free_policy>()
FUNC 331ae 7 0 __crt_unique_heap_ptr<__crt_multibyte_data,__crt_internal_free_policy>::operator bool() const
FUNC 331b5 83 0 <lambda_ae742caa10f662c28703da3d2ea5e57e>::operator()() const
FUNC 33258 9 0 <lambda_cd08b5d6af4937fe54fc07d0c9bf6b37>::operator()() const
FUNC 33263 9 0 <lambda_ceb1ee4838e85a9d631eb091e2fbe199>::operator()() const
FUNC 3326e 3e 0 CPtoLocaleName(int)
FUNC 332bb 3 0 __crt_state_management::dual_state_global<unsigned char *>::dangerous_get_state_array()
FUNC 332be 3 0 __crt_state_management::dual_state_global<__crt_multibyte_data *>::dangerous_get_state_array()
FUNC 332c1 6 0 __crt_unique_heap_ptr<__crt_multibyte_data,__crt_internal_free_policy>::detach()
FUNC 332c7 3 0 __crt_unique_heap_ptr<__crt_multibyte_data,__crt_internal_free_policy>::get() const
FUNC 332ca 71 0 getSystemCP(int)
FUNC 33357 26 0 __crt_state_management::dual_state_global<__crt_multibyte_data *>::initialize(__crt_multibyte_data* const)
FUNC 33386 7 0 __crt_unique_heap_ptr<__crt_multibyte_data,__crt_internal_free_policy>::is_valid() const
FUNC 3338d 12 0 __crt_unique_heap_ptr<__crt_multibyte_data,__crt_internal_free_policy>::release()
FUNC 333a3 65 0 setSBCS(__crt_multibyte_data*)
FUNC 33421 181 0 setSBUpLow(__crt_multibyte_data*)
FUNC 33602 119 0 setmbcp_internal(const int, const bool, __acrt_ptd* const, __crt_multibyte_data** const)
FUNC 33761 a0 0 update_thread_multibyte_data_internal(__acrt_ptd* const, __crt_multibyte_data** const)
FUNC 33829 3 0 __crt_state_management::dual_state_global<unsigned char *>::value()
FUNC 3382c 3 0 __crt_state_management::dual_state_global<__crt_multibyte_data *>::value()
FUNC 3382f 48 0 __acrt_initialize_multibyte()
FUNC 33889 13 0 __acrt_update_thread_multibyte_data()
FUNC 338a0 6 0 __p__mbcasemap()
FUNC 338a6 6 0 __p__mbctype()
FUNC 338ac 34 0 _getmbcp()
FUNC 338ed 1f 0 _setmbcp(int)
FUNC 33913 1f3 0 _setmbcp_nolock(int, __crt_multibyte_data*)
FUNC 33b82 81 0 memcpy_s(void* const, const unsigned int, void const* const, const unsigned int)
FUNC 33c23 57 0 x_ismbbtype_l(__crt_locale_pointers*, unsigned int, int, int)
FUNC 33c8f 1b 0 _ismbbalnum(unsigned int)
FUNC 33cb0 1c 0 _ismbbalnum_l(unsigned int, __crt_locale_pointers*)
FUNC 33cd3 1b 0 _ismbbalpha(unsigned int)
FUNC 33cf4 1c 0 _ismbbalpha_l(unsigned int, __crt_locale_pointers*)
FUNC 33d17 23 0 _ismbbblank(unsigned int)
FUNC 33d42 24 0 _ismbbblank_l(unsigned int, __crt_locale_pointers*)
FUNC 33d6f 1b 0 _ismbbgraph(unsigned int)
FUNC 33d90 1c 0 _ismbbgraph_l(unsigned int, __crt_locale_pointers*)
FUNC 33db3 18 0 _ismbbkalnum(unsigned int)
FUNC 33dd1 19 0 _ismbbkalnum_l(unsigned int, __crt_locale_pointers*)
FUNC 33df0 13 0 _ismbbkana(unsigned int)
FUNC 33e07 4f 0 _ismbbkana_l(unsigned int, __crt_locale_pointers*)
FUNC 33e69 18 0 _ismbbkprint(unsigned int)
FUNC 33e87 19 0 _ismbbkprint_l(unsigned int, __crt_locale_pointers*)
FUNC 33ea6 18 0 _ismbbkpunct(unsigned int)
FUNC 33ec4 19 0 _ismbbkpunct_l(unsigned int, __crt_locale_pointers*)
FUNC 33ee3 18 0 _ismbblead(unsigned int)
FUNC 33f01 19 0 _ismbblead_l(unsigned int, __crt_locale_pointers*)
FUNC 33f20 1b 0 _ismbbprint(unsigned int)
FUNC 33f41 1c 0 _ismbbprint_l(unsigned int, __crt_locale_pointers*)
FUNC 33f64 18 0 _ismbbpunct(unsigned int)
FUNC 33f82 19 0 _ismbbpunct_l(unsigned int, __crt_locale_pointers*)
FUNC 33fa1 18 0 _ismbbtrail(unsigned int)
FUNC 33fbf 19 0 _ismbbtrail_l(unsigned int, __crt_locale_pointers*)
FUNC 33fde 19 0 __acrt_initialize_command_line()
FUNC 33ffd 3 0 __acrt_uninitialize_command_line(bool)
FUNC 34000 6 0 __p___argc()
FUNC 34006 6 0 __p___argv()
FUNC 3400c 6 0 __p___wargv()
FUNC 34012 6 0 __p__acmdln()
FUNC 34018 6 0 __p__pgmptr()
FUNC 3401e 6 0 __p__wcmdln()
FUNC 34024 6 0 __p__wpgmptr()
FUNC 3402a 31 0 _get_pgmptr(char**)
FUNC 34067 31 0 _get_wpgmptr(wchar_t**)
FUNC 340a4 60 0 common_tcscpy_s<wchar_t>(wchar_t* const, const unsigned int, wchar_t const* const)
FUNC 3411c 64 0 wcscpy_s(wchar_t*, unsigned int, wchar_t const*)
FUNC 34199 68 0 filter_mbtowcs_flags(const unsigned int, const unsigned long)
FUNC 3421b 7c 0 __acrt_MultiByteToWideChar(unsigned int, unsigned long, char const*, int, wchar_t*, int)
FUNC 342b6 65 0 filter_wcstomb_flags(const unsigned int, const unsigned long)
FUNC 34334 ad 0 __acrt_WideCharToMultiByte(unsigned int, unsigned long, wchar_t const*, int, char*, int, char const*, int*)
FUNC 3440c 10 0 __crt_unique_handle_t<(anonymous namespace)::environment_strings_traits>::__crt_unique_handle_t<(anonymous namespace)::environment_strings_traits>(wchar_t* const)
FUNC 34420 17 0 __crt_unique_handle_t<(anonymous namespace)::environment_strings_traits>::~__crt_unique_handle_t<(anonymous namespace)::environment_strings_traits>()
FUNC 3443c 7 0 __crt_unique_handle_t<(anonymous namespace)::environment_strings_traits>::operator bool() const
FUNC 34443 17 0 __crt_unique_handle_t<(anonymous namespace)::environment_strings_traits>::close()
FUNC 3445f 12 0 (anonymous namespace)::environment_strings_traits::close(wchar_t*)
FUNC 34475 37 0 find_end_of_double_null_terminated_sequence(wchar_t const* const)
FUNC 344b9 3 0 __crt_unique_handle_t<(anonymous namespace)::environment_strings_traits>::get() const
FUNC 344bc 3 0 (anonymous namespace)::environment_strings_traits::get_invalid_value()
FUNC 344bf 7 0 __crt_unique_handle_t<(anonymous namespace)::environment_strings_traits>::is_valid() const
FUNC 344c6 84 0 __dcrt_get_narrow_environment_from_os()
FUNC 3456b 50 0 __dcrt_get_wide_environment_from_os()
FUNC 345cf 23e 0 common_set_variable_in_environment_nolock<char>(char* const, const int)
FUNC 3489c 253 0 common_set_variable_in_environment_nolock<wchar_t>(wchar_t* const, const int)
FUNC 34b83 b0 0 copy_environment<char>(char** const)
FUNC 34c5f be 0 copy_environment<wchar_t>(wchar_t** const)
FUNC 34d4c 1a 0 ensure_current_environment_is_not_initial_environment_nolock<char>()
FUNC 34d6c 1a 0 ensure_current_environment_is_not_initial_environment_nolock<wchar_t>()
FUNC 34d8c 55 0 find_in_environment_nolock<char>(char const* const, const unsigned int)
FUNC 34df6 58 0 find_in_environment_nolock<wchar_t>(wchar_t const* const, const unsigned int)
FUNC 34e64 5 0 __crt_char_traits<char>::get_or_create_environment_nolock<>()
FUNC 34e69 5 0 __crt_char_traits<wchar_t>::get_or_create_environment_nolock<>()
FUNC 34e6e 18 0 __crt_char_traits<char>::set_environment_variable<char * const &,char * const>(char* const&, char* const&&)
FUNC 34e8c 17 0 __crt_char_traits<wchar_t>::set_environment_variable<wchar_t * const &,wchar_t * const>(wchar_t* const&, wchar_t* const&&)
FUNC 34ea8 1a 0 __crt_char_traits<char>::tcschr<char * const &,char>(char* const&, char&&)
FUNC 34ec8 1e 0 __crt_char_traits<wchar_t>::tcschr<wchar_t * const &,char>(wchar_t* const&, char&&)
FUNC 34eed 1e 0 __crt_char_traits<char>::tcscpy_s<char * &,unsigned int const &,char * &>(char*&, unsigned int const&, char*&)
FUNC 34f12 1e 0 __crt_char_traits<wchar_t>::tcscpy_s<wchar_t * &,unsigned int const &,wchar_t * &>(wchar_t*&, unsigned int const&, wchar_t*&)
FUNC 34f37 1e 0 __crt_char_traits<char>::tcscpy_s<char * const &,unsigned int const &,char * const &>(char* const&, unsigned int const&, char* const&)
FUNC 34f5c 1e 0 __crt_char_traits<wchar_t>::tcscpy_s<wchar_t * const &,unsigned int const &,wchar_t * const &>(wchar_t* const&, unsigned int const&, wchar_t* const&)
FUNC 34f81 18 0 __crt_char_traits<char>::tcslen<char * const &>(char* const&)
FUNC 34f9f 1e 0 __crt_char_traits<wchar_t>::tcslen<wchar_t * const &>(wchar_t* const&)
FUNC 34fc4 1e 0 __crt_char_traits<char>::tcsnicoll<char const * const &,char * &,unsigned int const &>(char const* const&, char*&, unsigned int const&)
FUNC 34fe9 1e 0 __crt_char_traits<wchar_t>::tcsnicoll<wchar_t const * const &,wchar_t * &,unsigned int const &>(wchar_t const* const&, wchar_t*&, unsigned int const&)
FUNC 3500e 6 0 get_environment(char)
FUNC 35014 6 0 get_environment(wchar_t)
FUNC 3501a 6 0 get_initial_environment(char)
FUNC 35020 6 0 get_initial_environment(wchar_t)
FUNC 35026 6 0 get_other_environment(wchar_t)
FUNC 3502c 6 0 get_other_environment(char)
FUNC 35032 b 0 strchr(char* const, const int)
FUNC 3503f b 0 wcschr(wchar_t*, wchar_t)
FUNC 3504c b 0 __dcrt_set_variable_in_narrow_environment_nolock(char*, int)
FUNC 35059 b 0 __dcrt_set_variable_in_wide_environment_nolock(wchar_t*, int)
FUNC 35066 b 0 _recalloc(void*, unsigned int, unsigned int)
FUNC 35073 6d 0 _recalloc_base(void*, unsigned int, unsigned int)
FUNC 350fb d 0 <lambda_29d3c280b90b41c2ae070ffca879996a>::<lambda_invoker_stdcall>(wchar_t*)
FUNC 3510b 6 0 __crt_fast_encoded_nullptr_t::operator<int __stdcall(wchar_t *,unsigned long,long)> int (__stdcall*)(wchar_t *,unsigned long,long)() const
FUNC 35111 7c 0 __crt_seh_guarded_call<int>::operator()<<lambda_6b4b7855443974f2b4b77000ea21c99c>,<lambda_8f7d3b162ab39427f4fa9995c67a7986> &,<lambda_cc9a5ba8a5d8428b9634eab82665e5dc> >(__acrt_lock_and_call::__l2::<lambda_6b4b7855443974f2b4b77000ea21c99c>&&, __acrt_EnumSystemLocalesEx::__l2::<lambda_8f7d3b162ab39427f4fa9995c67a7986>&, __acrt_lock_and_call::__l2::<lambda_cc9a5ba8a5d8428b9634eab82665e5dc>&&)
FUNC 351ac 26 0 __acrt_lock_and_call<<lambda_8f7d3b162ab39427f4fa9995c67a7986> >(const __acrt_lock_id, __acrt_EnumSystemLocalesEx::__l2::<lambda_8f7d3b162ab39427f4fa9995c67a7986>&&)
FUNC 351db 16 0 __crt_fast_decode_pointer<int (__stdcall*)(wchar_t *,unsigned long,long)>(int (* const)(wchar_t*, unsigned long, long))
FUNC 351f6 1f 0 __crt_fast_encode_pointer<int (__stdcall*)(wchar_t *,unsigned long,long)>(int (* const)(wchar_t*, unsigned long, long))
FUNC 3521c 12 0 <lambda_6b4b7855443974f2b4b77000ea21c99c>::<lambda_6b4b7855443974f2b4b77000ea21c99c>(__acrt_lock_id const&)
FUNC 35232 10 0 <lambda_8f7d3b162ab39427f4fa9995c67a7986>::<lambda_8f7d3b162ab39427f4fa9995c67a7986>(int (* const&)(wchar_t*, unsigned long, long))
FUNC 35246 12 0 <lambda_cc9a5ba8a5d8428b9634eab82665e5dc>::<lambda_cc9a5ba8a5d8428b9634eab82665e5dc>(__acrt_lock_id const&)
FUNC 3525c 6 0 <lambda_29d3c280b90b41c2ae070ffca879996a>::operator int (__stdcall*)(wchar_t *)() const
FUNC 35262 2f 0 <lambda_29d3c280b90b41c2ae070ffca879996a>::operator()(wchar_t*) const
FUNC 3529c 9 0 <lambda_6b4b7855443974f2b4b77000ea21c99c>::operator()() const
FUNC 352a7 29 0 <lambda_8f7d3b162ab39427f4fa9995c67a7986>::operator()() const
FUNC 352da 9 0 <lambda_cc9a5ba8a5d8428b9634eab82665e5dc>::operator()() const
FUNC 352e5 2e 0 enum_system_locales_ex_nolock(int (* const)(wchar_t*, unsigned long, long))
FUNC 3531e 4 0 invalid_function_sentinel()
FUNC 35322 1a 0 try_get_AppPolicyGetProcessTerminationMethod()
FUNC 35342 1a 0 try_get_AppPolicyGetShowDeveloperDiagnostic()
FUNC 35362 1a 0 try_get_AppPolicyGetThreadInitializationType()
FUNC 35382 1a 0 try_get_AppPolicyGetWindowingModel()
FUNC 353a2 1a 0 try_get_AreFileApisANSI()
FUNC 353c2 1a 0 try_get_CompareStringEx()
FUNC 353e2 1a 0 try_get_EnumSystemLocalesEx()
FUNC 35402 1a 0 try_get_FlsAlloc()
FUNC 35422 1a 0 try_get_FlsFree()
FUNC 35442 1a 0 try_get_FlsGetValue()
FUNC 35462 1a 0 try_get_FlsSetValue()
FUNC 35482 1a 0 try_get_GetActiveWindow()
FUNC 354a2 1a 0 try_get_GetDateFormatEx()
FUNC 354c2 1a 0 try_get_GetEnabledXStateFeatures()
FUNC 354e2 1a 0 try_get_GetLastActivePopup()
FUNC 35502 1a 0 try_get_GetLocaleInfoEx()
FUNC 35522 1a 0 try_get_GetProcessWindowStation()
FUNC 35542 1a 0 try_get_GetSystemTimePreciseAsFileTime()
FUNC 35562 1a 0 try_get_GetTimeFormatEx()
FUNC 35582 1a 0 try_get_GetUserDefaultLocaleName()
FUNC 355a2 1a 0 try_get_GetUserObjectInformationW()
FUNC 355c2 1a 0 try_get_GetXStateFeaturesMask()
FUNC 355e2 1a 0 try_get_InitializeCriticalSectionEx()
FUNC 35602 1a 0 try_get_IsValidLocaleName()
FUNC 35622 1a 0 try_get_LCIDToLocaleName()
FUNC 35642 1a 0 try_get_LCMapStringEx()
FUNC 35662 1a 0 try_get_LocaleNameToLCID()
FUNC 35682 1a 0 try_get_LocateXStateFeature()
FUNC 356a2 1a 0 try_get_MessageBoxA()
FUNC 356c2 1a 0 try_get_MessageBoxW()
FUNC 356e2 1a 0 try_get_RoInitialize()
FUNC 35702 1a 0 try_get_RoUninitialize()
FUNC 35722 1a 0 try_get_SetThreadStackGuarantee()
FUNC 35742 1a 0 try_get_SystemFunction036()
FUNC 35762 c7 0 try_get_first_available_module(`anonymous-namespace'::module_id const* const, `anonymous-namespace'::module_id const* const)
FUNC 3585a 83 0 try_get_function(const `anonymous-namespace'::function_id, char const* const, `anonymous-namespace'::module_id const* const, `anonymous-namespace'::module_id const* const)
FUNC 358fd 52 0 try_get_module(const `anonymous-namespace'::module_id)
FUNC 35963 24 0 try_get_proc_address_from_first_available_module(char const* const, `anonymous-namespace'::module_id const* const, `anonymous-namespace'::module_id const* const)
FUNC 35990 63 0 try_load_library_from_system_directory(wchar_t const* const)
FUNC 35a0b 4 0 GetCurrentThreadEffectiveToken()
FUNC 35a0f 40 4 __acrt_AppPolicyGetProcessTerminationMethodInternal(AppPolicyProcessTerminationMethod*)
FUNC 35a5f 40 4 __acrt_AppPolicyGetShowDeveloperDiagnosticInternal(AppPolicyShowDeveloperDiagnostic*)
FUNC 35aaf 40 4 __acrt_AppPolicyGetThreadInitializationTypeInternal(AppPolicyThreadInitializationType*)
FUNC 35aff 40 4 __acrt_AppPolicyGetWindowingModelInternal(AppPolicyWindowingModel*)
FUNC 35b4f 1f 0 __acrt_AreFileApisANSI()
FUNC 35b75 5d 24 __acrt_CompareStringEx(wchar_t const*, unsigned long, wchar_t const*, int, wchar_t const*, int, _nlsversioninfo*, void*, long)
FUNC 35be9 54 10 __acrt_EnumSystemLocalesEx(int (*)(wchar_t*, unsigned long, long), unsigned long, long, void*)
FUNC 35c52 3f 4 __acrt_FlsAlloc(void (*)(void*))
FUNC 35ca0 3f 4 __acrt_FlsFree(unsigned long)
FUNC 35cee 3f 4 __acrt_FlsGetValue(unsigned long)
FUNC 35d3c 42 8 __acrt_FlsSetValue(unsigned long, void*)
FUNC 35d8e 57 1c __acrt_GetDateFormatEx(wchar_t const*, unsigned long, _SYSTEMTIME const*, wchar_t const*, wchar_t*, int, wchar_t const*)
FUNC 35dfa 34 0 __acrt_GetEnabledXStateFeatures()
FUNC 35e3b 3f 10 __acrt_GetLocaleInfoEx(wchar_t const*, unsigned long, wchar_t*, int)
FUNC 35e89 3f 4 __acrt_GetSystemTimePreciseAsFileTime(_FILETIME*)
FUNC 35ed7 45 18 __acrt_GetTimeFormatEx(wchar_t const*, unsigned long, _SYSTEMTIME const*, wchar_t const*, wchar_t*, int)
FUNC 35f2d 3c 8 __acrt_GetUserDefaultLocaleName(wchar_t*, int)
FUNC 35f78 40 8 __acrt_GetXStateFeaturesMask(_CONTEXT*, unsigned long long*)
FUNC 35fc8 4b c __acrt_InitializeCriticalSectionEx(_RTL_CRITICAL_SECTION*, unsigned long, unsigned long)
FUNC 36025 38 4 __acrt_IsValidLocaleName(wchar_t const*)
FUNC 3606b 3f 10 __acrt_LCIDToLocaleName(unsigned long, wchar_t*, int, unsigned long)
FUNC 360b9 5d 24 __acrt_LCMapStringEx(wchar_t const*, unsigned long, wchar_t const*, int, wchar_t*, int, _nlsversioninfo*, void*, long)
FUNC 3612d 31 8 __acrt_LocaleNameToLCID(wchar_t const*, unsigned long)
FUNC 3616a 2f c __acrt_LocateXStateFeature(_CONTEXT*, unsigned long, unsigned long*)
FUNC 361a4 32 10 __acrt_MessageBoxA(HWND__*, char const*, char const*, unsigned int)
FUNC 361e2 32 10 __acrt_MessageBoxW(HWND__*, wchar_t const*, wchar_t const*, unsigned int)
FUNC 36220 3b 4 __acrt_RoInitialize(RO_INIT_TYPE)
FUNC 36269 2e 0 __acrt_RoUninitialize()
FUNC 362a2 40 8 __acrt_RtlGenRandom(void*, unsigned long)
FUNC 362f2 3b 4 __acrt_SetThreadStackGuarantee(unsigned long*)
FUNC 3633b 27 0 __acrt_can_show_message_box()
FUNC 3636b b 0 __acrt_can_use_vista_locale_apis()
FUNC 36378 b 0 __acrt_can_use_xstate_apis()
FUNC 36385 37 0 __acrt_eagerly_load_locale_apis()
FUNC 363c9 68 0 __acrt_get_parent_window()
FUNC 3644b 2b 0 __acrt_initialize_winapi_thunks()
FUNC 36480 9f 0 __acrt_is_interactive()
FUNC 36546 36 0 __acrt_uninitialize_winapi_thunks(bool)
FUNC 36589 6 0 __acrt_getheap()
FUNC 3658f 11 0 __acrt_initialize_heap()
FUNC 365a4 a 0 __acrt_uninitialize_heap(bool)
FUNC 365b0 6 0 _get_heap_handle()
FUNC 365b6 22 0 get_std_handle_id(const int)
FUNC 365e0 b6 0 initialize_inherited_file_handles_nolock()
FUNC 366c3 b4 0 initialize_stdio_handles_nolock()
FUNC 367a4 60 0 __acrt_initialize_lowio()
FUNC 3681c 2c 0 __acrt_uninitialize_lowio(bool)
FUNC 36853 68 0 __acrt_execute_initializers(__acrt_initializer const*, __acrt_initializer const*)
FUNC 368d5 31 0 __acrt_execute_uninitializers(__acrt_initializer const*, __acrt_initializer const*)
FUNC 36912 6 0 __crt_fast_encoded_nullptr_t::operator<int __cdecl(unsigned int)> int (__cdecl*)(unsigned int)() const
FUNC 36918 16 0 __crt_fast_decode_pointer<int (__cdecl*)(unsigned int)>(int (* const)(unsigned int))
FUNC 36933 1f 0 __crt_fast_encode_pointer<int (__cdecl*)(unsigned int)>(int (* const)(unsigned int))
FUNC 36959 d 0 _set_new_handler(const int)
FUNC 36969 26 0 __crt_state_management::dual_state_global<int (__cdecl*)(unsigned int)>::initialize(int (* const)(unsigned int))
FUNC 36998 3 0 __crt_state_management::dual_state_global<int (__cdecl*)(unsigned int)>::value()
FUNC 3699b f 0 __acrt_initialize_new_handler(void*)
FUNC 369ad 2d 0 _callnewh(unsigned int)
FUNC 369e5 5c 0 _query_new_handler()
FUNC 36a58 6a 0 _set_new_handler(int (*)(unsigned int))
FUNC 36adc 6 0 __crt_fast_encoded_nullptr_t::operator<void __cdecl(int)> void (__cdecl*)(int)() const
FUNC 36ae2 64 0 __crt_seh_guarded_call<void (__cdecl*)(int)>::operator()<<lambda_cbab9ec6f41b0180b23cc171c22676b0>,<lambda_44731a7d0e6d81c3e6aa82d741081786> &,<lambda_4b292cb8dd18144e164572427af410ab> >(__acrt_lock_and_call::__l2::<lambda_cbab9ec6f41b0180b23cc171c22676b0>&&, __acrt_get_sigabrt_handler::__l2::<lambda_44731a7d0e6d81c3e6aa82d741081786>&, __acrt_lock_and_call::__l2::<lambda_4b292cb8dd18144e164572427af410ab>&&)
FUNC 36b5f 26 0 __acrt_lock_and_call<<lambda_44731a7d0e6d81c3e6aa82d741081786> >(const __acrt_lock_id, __acrt_get_sigabrt_handler::__l2::<lambda_44731a7d0e6d81c3e6aa82d741081786>&&)
FUNC 36b8e 16 0 __crt_fast_decode_pointer<void (__cdecl*)(int)>(void (* const)(int))
FUNC 36ba9 1f 0 __crt_fast_encode_pointer<void (__cdecl*)(int)>(void (* const)(int))
FUNC 36bcf 12 0 <lambda_4b292cb8dd18144e164572427af410ab>::<lambda_4b292cb8dd18144e164572427af410ab>(__acrt_lock_id const&)
FUNC 36be5 12 0 <lambda_cbab9ec6f41b0180b23cc171c22676b0>::<lambda_cbab9ec6f41b0180b23cc171c22676b0>(__acrt_lock_id const&)
FUNC 36bfb 13 0 <lambda_44731a7d0e6d81c3e6aa82d741081786>::operator()() const
FUNC 36c12 9 0 <lambda_4b292cb8dd18144e164572427af410ab>::operator()() const
FUNC 36c1d 9 0 <lambda_cbab9ec6f41b0180b23cc171c22676b0>::operator()() const
FUNC 36c28 aa 0 ctrlevent_capture(const unsigned long)
FUNC 36cfc 42 0 get_global_action_nolock(const int)
FUNC 36d4e 26 0 __crt_state_management::dual_state_global<void (__cdecl*)(int)>::initialize(void (* const)(int))
FUNC 36d7d 1a 0 is_console_signal(const int)
FUNC 36d9d 1a 0 is_unsupported_signal(const int, void (* const)(int))
FUNC 36dbd 28 0 siglookup(const int, __crt_signal_action_t* const)
FUNC 36def 31 0 signal_failed(const int)
FUNC 36e2c 3 0 __crt_state_management::dual_state_global<void (__cdecl*)(int)>::value()
FUNC 36e2f 27 0 __acrt_get_sigabrt_handler()
FUNC 36e5f 1e 0 __acrt_initialize_signal_handlers(void*)
FUNC 36e84 9 0 __fpecode()
FUNC 36e8f 9 0 __pxcptinfoptrs()
FUNC 36e9a 1fb 0 raise(int)
FUNC 37113 1bf 0 signal(int, void (*)(int))
FUNC 37341 16 0 __crt_fast_decode_pointer<int (__cdecl*)(_exception *)>(int (* const)(_exception*))
FUNC 3735c 1f 0 __crt_fast_encode_pointer<int (__cdecl*)(_exception *)>(int (* const)(_exception*))
FUNC 37382 26 0 __crt_state_management::dual_state_global<int (__cdecl*)(_exception *)>::initialize(int (* const)(_exception*))
FUNC 373b1 3 0 __crt_state_management::dual_state_global<int (__cdecl*)(_exception *)>::value()
FUNC 373b4 18 0 __acrt_has_user_matherr()
FUNC 373d2 f 0 __acrt_initialize_user_matherr(void*)
FUNC 373e4 32 0 __acrt_invoke_user_matherr(_exception*)
FUNC 37422 15 0 __setusermatherr(int (*)(_exception*))
FUNC 3743c 8c 0 __crt_seh_guarded_call<void>::operator()<<lambda_2866be3712abc81a800a822484c830d8>,<lambda_39ca0ed439415581b5b15c265174cece> &,<lambda_2b24c74d71094a6cd0cb82e44167d71b> >(__acrt_lock_stream_and_call::__l2::<lambda_2866be3712abc81a800a822484c830d8>&&, common_flush_all::__l2::<lambda_ab61a845afdef5b7c387490eaf3616ee>::()::__l4::<lambda_39ca0ed439415581b5b15c265174cece>&, __acrt_lock_stream_and_call::__l2::<lambda_2b24c74d71094a6cd0cb82e44167d71b>&&)
FUNC 374eb ac 0 __crt_seh_guarded_call<void>::operator()<<lambda_2cc53f568c5a2bb6f192f930a45d44ea>,<lambda_ab61a845afdef5b7c387490eaf3616ee> &,<lambda_c2ffc0b7726aa6be21d5f0026187e748> >(__acrt_lock_and_call::__l2::<lambda_2cc53f568c5a2bb6f192f930a45d44ea>&&, common_flush_all::__l2::<lambda_ab61a845afdef5b7c387490eaf3616ee>&, __acrt_lock_and_call::__l2::<lambda_c2ffc0b7726aa6be21d5f0026187e748>&&)
FUNC 375c2 60 0 __crt_seh_guarded_call<int>::operator()<<lambda_6d20deecaf4856105ebacbad442d1079>,<lambda_9a32fed5bf61b6b509b2d3f6003082a1> &,<lambda_63ea2239ed67c638ddbae41947fdf875> >(__acrt_lock_stream_and_call::__l2::<lambda_6d20deecaf4856105ebacbad442d1079>&&, fflush::__l2::<lambda_9a32fed5bf61b6b509b2d3f6003082a1>&, __acrt_lock_stream_and_call::__l2::<lambda_63ea2239ed67c638ddbae41947fdf875>&&)
FUNC 3763a 26 0 __acrt_lock_and_call<<lambda_ab61a845afdef5b7c387490eaf3616ee> >(const __acrt_lock_id, common_flush_all::__l2::<lambda_ab61a845afdef5b7c387490eaf3616ee>&&)
FUNC 37669 26 0 __acrt_lock_stream_and_call<<lambda_39ca0ed439415581b5b15c265174cece> >(_iobuf* const, common_flush_all::__l2::<lambda_ab61a845afdef5b7c387490eaf3616ee>::()::__l4::<lambda_39ca0ed439415581b5b15c265174cece>&&)
FUNC 37698 26 0 __acrt_lock_stream_and_call<<lambda_9a32fed5bf61b6b509b2d3f6003082a1> >(_iobuf* const, fflush::__l2::<lambda_9a32fed5bf61b6b509b2d3f6003082a1>&&)
FUNC 376c7 12 0 <lambda_2866be3712abc81a800a822484c830d8>::<lambda_2866be3712abc81a800a822484c830d8>(_iobuf* const&)
FUNC 376dd 12 0 <lambda_2b24c74d71094a6cd0cb82e44167d71b>::<lambda_2b24c74d71094a6cd0cb82e44167d71b>(_iobuf* const&)
FUNC 376f3 12 0 <lambda_2cc53f568c5a2bb6f192f930a45d44ea>::<lambda_2cc53f568c5a2bb6f192f930a45d44ea>(__acrt_lock_id const&)
FUNC 37709 22 0 <lambda_39ca0ed439415581b5b15c265174cece>::<lambda_39ca0ed439415581b5b15c265174cece>(__crt_stdio_stream const&, int&, bool const&, int&)
FUNC 37733 12 0 <lambda_63ea2239ed67c638ddbae41947fdf875>::<lambda_63ea2239ed67c638ddbae41947fdf875>(_iobuf* const&)
FUNC 37749 12 0 <lambda_6d20deecaf4856105ebacbad442d1079>::<lambda_6d20deecaf4856105ebacbad442d1079>(_iobuf* const&)
FUNC 3775f 10 0 <lambda_9a32fed5bf61b6b509b2d3f6003082a1>::<lambda_9a32fed5bf61b6b509b2d3f6003082a1>(__crt_stdio_stream const&)
FUNC 37773 1c 0 <lambda_ab61a845afdef5b7c387490eaf3616ee>::<lambda_ab61a845afdef5b7c387490eaf3616ee>(int&, bool const&, int&)
FUNC 37796 12 0 <lambda_c2ffc0b7726aa6be21d5f0026187e748>::<lambda_c2ffc0b7726aa6be21d5f0026187e748>(__acrt_lock_id const&)
FUNC 377ac 10 0 __crt_stdio_stream::__crt_stdio_stream(__crt_stdio_stream_data* const)
FUNC 377c0 9 0 <lambda_2866be3712abc81a800a822484c830d8>::operator()() const
FUNC 377cb 9 0 <lambda_2b24c74d71094a6cd0cb82e44167d71b>::operator()() const
FUNC 377d6 9 0 <lambda_2cc53f568c5a2bb6f192f930a45d44ea>::operator()() const
FUNC 377e1 4b 0 <lambda_39ca0ed439415581b5b15c265174cece>::operator()() const
FUNC 3783e 9 0 <lambda_63ea2239ed67c638ddbae41947fdf875>::operator()() const
FUNC 37849 9 0 <lambda_6d20deecaf4856105ebacbad442d1079>::operator()() const
FUNC 37854 b 0 <lambda_9a32fed5bf61b6b509b2d3f6003082a1>::operator()() const
FUNC 37861 88 0 <lambda_ab61a845afdef5b7c387490eaf3616ee>::operator()() const
FUNC 3790b 9 0 <lambda_c2ffc0b7726aa6be21d5f0026187e748>::operator()() const
FUNC 37916 16 0 __acrt_stdio_reset_buffer(const __crt_stdio_stream)
FUNC 37931 4d 0 common_flush_all(const bool)
FUNC 37991 33 0 common_flush_all_should_try_to_flush_stream(const __crt_stdio_stream, int* const)
FUNC 379d0 18 0 __crt_stdio_stream::has_all_of(const long) const
FUNC 379ee f 0 is_stream_allocated(const long)
FUNC 37a00 1c 0 is_stream_flushable(const long)
FUNC 37a23 25 0 is_stream_flushable_or_commitable(const long)
FUNC 37a51 24 0 __crt_stdio_stream::set_flags(const long) const
FUNC 37a7e 29 0 __crt_stdio_stream::unset_flags(const long) const
FUNC 37ab1 65 0 __acrt_stdio_flush_nolock(_iobuf*)
FUNC 37b2f 48 0 _fflush_nolock(_iobuf*)
FUNC 37b89 9 0 _flushall()
FUNC 37b94 55 0 fflush(_iobuf*)
FUNC 37bfe 25 0 __p___mb_cur_max()
FUNC 37c2c 12 0 __crt_internal_free_policy::operator()<__crt_stdio_stream_data *>(__crt_stdio_stream_data* const* const) const
FUNC 37c42 10 0 __crt_unique_heap_ptr<__crt_stdio_stream_data *,__crt_internal_free_policy>::__crt_unique_heap_ptr<__crt_stdio_stream_data *,__crt_internal_free_policy>(__crt_stdio_stream_data** const)
FUNC 37c56 12 0 __crt_unique_heap_ptr<__crt_stdio_stream_data *,__crt_internal_free_policy>::~__crt_unique_heap_ptr<__crt_stdio_stream_data *,__crt_internal_free_policy>()
FUNC 37c6c 6 0 __crt_unique_heap_ptr<__crt_stdio_stream_data *,__crt_internal_free_policy>::detach()
FUNC 37c72 12 0 __crt_unique_heap_ptr<__crt_stdio_stream_data *,__crt_internal_free_policy>::release()
FUNC 37c88 c8 0 __acrt_initialize_stdio()
FUNC 37d82 10 0 __acrt_iob_func(unsigned int)
FUNC 37d96 4c 0 __acrt_uninitialize_stdio()
FUNC 37df5 46 0 _get_stream_buffer_pointers(_iobuf*, char***, char***, int**)
FUNC 37e4c 14 0 _lock_file(_iobuf*)
FUNC 37e65 14 0 _unlock_file(_iobuf*)
FUNC 37e7e f 0 __crt_stdio_stream::has_any_buffer() const
FUNC 37e90 15 0 __crt_stdio_stream::has_any_of(const long) const
FUNC 37eaa c 0 __crt_stdio_stream::has_temporary_buffer() const
FUNC 37eb9 b3 0 __acrt_stdio_begin_temporary_buffering_nolock(_iobuf*)
FUNC 37f98 3a 0 __acrt_stdio_end_temporary_buffering_nolock(bool, _iobuf*)
FUNC 37fe0 4e 0 _malloc_base(unsigned int)
FUNC 38041 1b 0 __crt_strtox::make_c_string_character_source<char,char * *>(char const* const, char** const)
FUNC 38062 1b 0 __crt_strtox::make_c_string_character_source<wchar_t,wchar_t * *>(wchar_t const* const, wchar_t** const)
FUNC 38083 2b 0 __crt_strtox::parse_integer_from_string<long,char,char * *>(char const* const, char** const, const int, __crt_locale_pointers* const)
FUNC 380b8 2b 0 __crt_strtox::parse_integer_from_string<long,wchar_t,wchar_t * *>(wchar_t const* const, wchar_t** const, const int, __crt_locale_pointers* const)
FUNC 380ed 2b 0 __crt_strtox::parse_integer_from_string<unsigned long,char,char * *>(char const* const, char** const, const int, __crt_locale_pointers* const)
FUNC 38122 2b 0 __crt_strtox::parse_integer_from_string<unsigned long,wchar_t,wchar_t * *>(wchar_t const* const, wchar_t** const, const int, __crt_locale_pointers* const)
FUNC 38157 2b 0 __crt_strtox::parse_integer_from_string<__int64,char,char * *>(char const* const, char** const, const int, __crt_locale_pointers* const)
FUNC 3818c 2b 0 __crt_strtox::parse_integer_from_string<__int64,wchar_t,wchar_t * *>(wchar_t const* const, wchar_t** const, const int, __crt_locale_pointers* const)
FUNC 381c1 2b 0 __crt_strtox::parse_integer_from_string<unsigned __int64,char,char * *>(char const* const, char** const, const int, __crt_locale_pointers* const)
FUNC 381f6 2b 0 __crt_strtox::parse_integer_from_string<unsigned __int64,wchar_t,wchar_t * *>(wchar_t const* const, wchar_t** const, const int, __crt_locale_pointers* const)
FUNC 3822b 2a 0 _strtoi64(char const*, char**, int)
FUNC 3825f 2b 0 _strtoi64_l(char const*, char**, int, __crt_locale_pointers*)
FUNC 38294 2b 0 _strtoimax_l(char const*, char**, int, __crt_locale_pointers*)
FUNC 382c9 2b 0 _strtol_l(char const*, char**, int, __crt_locale_pointers*)
FUNC 382fe 2b 0 _strtoll_l(char const*, char**, int, __crt_locale_pointers*)
FUNC 38333 2a 0 _strtoui64(char const*, char**, int)
FUNC 38367 2b 0 _strtoui64_l(char const*, char**, int, __crt_locale_pointers*)
FUNC 3839c 2b 0 _strtoul_l(char const*, char**, int, __crt_locale_pointers*)
FUNC 383d1 2b 0 _strtoull_l(char const*, char**, int, __crt_locale_pointers*)
FUNC 38406 2b 0 _strtoumax_l(char const*, char**, int, __crt_locale_pointers*)
FUNC 3843b 2a 0 _wcstoi64(wchar_t const*, wchar_t**, int)
FUNC 3846f 2b 0 _wcstoi64_l(wchar_t const*, wchar_t**, int, __crt_locale_pointers*)
FUNC 384a4 2b 0 _wcstoimax_l(wchar_t const*, wchar_t**, int, __crt_locale_pointers*)
FUNC 384d9 2b 0 _wcstol_l(wchar_t const*, wchar_t**, int, __crt_locale_pointers*)
FUNC 3850e 2b 0 _wcstoll_l(wchar_t const*, wchar_t**, int, __crt_locale_pointers*)
FUNC 38543 2a 0 _wcstoui64(wchar_t const*, wchar_t**, int)
FUNC 38577 2b 0 _wcstoui64_l(wchar_t const*, wchar_t**, int, __crt_locale_pointers*)
FUNC 385ac 2b 0 _wcstoul_l(wchar_t const*, wchar_t**, int, __crt_locale_pointers*)
FUNC 385e1 2b 0 _wcstoull_l(wchar_t const*, wchar_t**, int, __crt_locale_pointers*)
FUNC 38616 2b 0 _wcstoumax_l(wchar_t const*, wchar_t**, int, __crt_locale_pointers*)
FUNC 3864b 2a 0 strtoimax(char const*, char**, int)
FUNC 3867f 2a 0 strtol(char const*, char**, int)
FUNC 386b3 2a 0 strtoll(char const*, char**, int)
FUNC 386e7 2a 0 strtoul(char const*, char**, int)
FUNC 3871b 2a 0 strtoull(char const*, char**, int)
FUNC 3874f 2a 0 strtoumax(char const*, char**, int)
FUNC 38783 2a 0 wcstoimax(wchar_t const*, wchar_t**, int)
FUNC 387b7 2a 0 wcstol(wchar_t const*, wchar_t**, int)
FUNC 387eb 2a 0 wcstoll(wchar_t const*, wchar_t**, int)
FUNC 3881f 2a 0 wcstoul(wchar_t const*, wchar_t**, int)
FUNC 38853 2a 0 wcstoull(wchar_t const*, wchar_t**, int)
FUNC 38887 2a 0 wcstoumax(wchar_t const*, wchar_t**, int)
FUNC 388bb 142 0 _mbtowc_l(wchar_t*, char const*, unsigned int, __crt_locale_pointers*)
FUNC 38a4d 1a 0 mbtowc(wchar_t*, char const*, unsigned int)
FUNC 38a6d 51 0 _wctomb_l(char*, wchar_t, __crt_locale_pointers*)
FUNC 38ad2 15b 0 _wctomb_s_l(int*, char*, unsigned int, wchar_t, __crt_locale_pointers*)
FUNC 38c83 32 0 wctomb(char*, wchar_t)
FUNC 38cc1 1d 0 wctomb_s(int*, char*, unsigned int, wchar_t)
FUNC 38ce5 136 0 common_strnlen<1,unsigned short>(unsigned short const* const, const unsigned int)
FUNC 38e68 11e 0 common_strnlen<0,unsigned char>(unsigned char const* const, const unsigned int)
FUNC 38fcd 1a9 0 common_strnlen<0,unsigned short>(unsigned short const* const, const unsigned int)
FUNC 391e0 1a 0 common_strnlen_c<1,unsigned short>(unsigned short const* const, const unsigned int)
FUNC 39200 21 0 common_strnlen_c<0,unsigned char>(unsigned char const* const, const unsigned int)
FUNC 39229 27 0 common_strnlen_c<0,unsigned short>(unsigned short const* const, const unsigned int)
FUNC 39259 8c 0 common_strnlen_simd<1,1,unsigned short>(unsigned short const* const, const unsigned int)
FUNC 39308 8b 0 common_strnlen_simd<1,0,unsigned short>(unsigned short const* const, const unsigned int)
FUNC 393b5 7a 0 common_strnlen_simd<0,1,unsigned char>(unsigned char const* const, const unsigned int)
FUNC 3944d c0 0 common_strnlen_simd<0,1,unsigned short>(unsigned short const* const, const unsigned int)
FUNC 3953d 79 0 common_strnlen_simd<0,0,unsigned char>(unsigned char const* const, const unsigned int)
FUNC 395d4 bf 0 common_strnlen_simd<0,0,unsigned short>(unsigned short const* const, const unsigned int)
FUNC 396c2 3 0 last_reached<1>(void const* const, void const* const)
FUNC 396c5 10 0 last_reached<0>(void const* const, void const* const)
FUNC 396d9 4 0 __crt_simd_cleanup_guard<1>::~__crt_simd_cleanup_guard<1>()
FUNC 396dd 3 0 __crt_simd_cleanup_guard<0>::~__crt_simd_cleanup_guard<0>()
FUNC 396e0 5 0 __crt_simd_traits<1,unsigned char>::compare_equals(const __m256i, const __m256i)
FUNC 396e5 5 0 __crt_simd_traits<1,unsigned short>::compare_equals(const __m256i, const __m256i)
FUNC 396ea 5 0 __crt_simd_traits<0,unsigned char>::compare_equals(const __m128i, const __m128i)
FUNC 396ef 5 0 __crt_simd_traits<0,unsigned short>::compare_equals(const __m128i, const __m128i)
FUNC 396f4 5 0 __crt_simd_pack_traits<1>::compute_byte_mask(const __m256i)
FUNC 396f9 5 0 __crt_simd_pack_traits<0>::compute_byte_mask(const __m128i)
FUNC 396fe 5 0 __crt_simd_pack_traits<1>::get_zero_pack()
FUNC 39703 4 0 __crt_simd_pack_traits<0>::get_zero_pack()
FUNC 39707 122 0 strnlen(char const*, unsigned int)
FUNC 39871 128 0 wcslen(wchar_t const*)
FUNC 399e3 1b0 0 wcsnlen(wchar_t const*, unsigned int)
FUNC 39bff 2d 0 __acrt_update_locale_info(__acrt_ptd* const, __crt_locale_data** const)
FUNC 39c37 2d 0 __acrt_update_multibyte_info(__acrt_ptd* const, __crt_multibyte_data** const)
FUNC 39c6f 62 0 __acrt_fp_classify(double const&)
FUNC 39ce9 19 0 __acrt_fp_is_negative(double const&)
FUNC 39d08 319 0 fp_format_a(double const* const, char*, const unsigned int, char* const, const unsigned int, int, const bool, const unsigned int, __crt_locale_pointers* const)
FUNC 3a0e7 a2 0 fp_format_e(double const* const, char* const, const unsigned int, char* const, const unsigned int, const int, const bool, const unsigned int, __crt_locale_pointers* const)
FUNC 3a1b1 148 0 fp_format_e_internal(char* const, const unsigned int, const int, const bool, const unsigned int, _strflt* const, const bool, __crt_locale_pointers* const)
FUNC 3a34b 8b 0 fp_format_f(double const* const, char* const, const unsigned int, char* const, const unsigned int, const int, __crt_locale_pointers* const)
FUNC 3a3f8 d1 0 fp_format_f_internal(char* const, const unsigned int, const int, _strflt* const, const bool, __crt_locale_pointers* const)
FUNC 3a4fd c1 0 fp_format_g(double const* const, char* const, const unsigned int, char* const, const unsigned int, const int, const bool, const unsigned int, __crt_locale_pointers* const)
FUNC 3a5ee 95 0 fp_format_nan_or_infinity(const __acrt_fp_class, const bool, char*, unsigned int, const bool)
FUNC 3a6a8 34 0 shift_bytes(char* const, const unsigned int, char* const, const int)
FUNC 3a6e9 b 0 strrchr(char* const, const int)
FUNC 3a6f6 13b 0 __acrt_fp_format(double const*, char*, unsigned int, char*, unsigned int, int, int, unsigned long long, __crt_locale_pointers*)
FUNC 3a87f 30 0 fputwc_binary_nolock(const wchar_t, const __crt_stdio_stream)
FUNC 3a8bb 129 0 _fputwc_nolock(wchar_t, _iobuf*)
FUNC 3aa2e 1a 0 _fputwchar(wchar_t)
FUNC 3aa4e b 0 _putwc_nolock(wchar_t, _iobuf*)
FUNC 3aa5b 7e 0 fputwc(wchar_t, _iobuf*)
FUNC 3aaf8 b 0 putwc(wchar_t, _iobuf*)
FUNC 3ab05 b 0 putwchar(wchar_t)
FUNC 3ab12 7 0 __crt_stdio_stream::lowio_handle() const
FUNC 3ab19 27 0 _fileno(_iobuf*)
FUNC 3ab49 29 0 _fputc_nolock(int, _iobuf*)
FUNC 3ab7c 1a 0 _fputchar(int)
FUNC 3ab9c b 0 _putc_nolock(int, _iobuf*)
FUNC 3aba9 10a 0 fputc(int, _iobuf*)
FUNC 3acf5 b 0 putc(int, _iobuf*)
FUNC 3ad02 b 0 putchar(int)
FUNC 3ad0f 15 0 _get_printf_count_output()
FUNC 3ad29 2a 0 _set_printf_count_output(int)
FUNC 3ad5d 3 0 no_op_initialize(__crt_locale_data*)
FUNC 3ad60 12 0 __crt_internal_free_policy::operator()<__crt_locale_data>(__crt_locale_data const* const) const
FUNC 3ad76 12 0 __crt_internal_free_policy::operator()<__crt_locale_pointers>(__crt_locale_pointers const* const) const
FUNC 3ad8c 45 0 __crt_seh_guarded_call<void>::operator()<<lambda_135d2772fca65dc1248eeaa1b56e886a>,<lambda_2a444430fde8c29194d880d93eed5e8f> &,<lambda_8dff2cf36a5417162780cd64fa2883ef> &>(__crt_call_and_cleanup::__l2::<lambda_135d2772fca65dc1248eeaa1b56e886a>&&, _wsetlocale::__l2::<lambda_2a444430fde8c29194d880d93eed5e8f>&, _wsetlocale::__l2::<lambda_8dff2cf36a5417162780cd64fa2883ef>&)
FUNC 3ade2 4d 0 __crt_seh_guarded_call<void>::operator()<<lambda_4fdada1b837b2abbf20876fac97688ad>,<lambda_b57350f2640456a0859d250846f69caf> &,<lambda_eed5e4f92b5b7d55fa22c48c484aaa54> >(__acrt_lock_and_call::__l2::<lambda_4fdada1b837b2abbf20876fac97688ad>&&, _wsetlocale::__l2::<lambda_2a444430fde8c29194d880d93eed5e8f>::()::__l5::<lambda_b57350f2640456a0859d250846f69caf>&, __acrt_lock_and_call::__l2::<lambda_eed5e4f92b5b7d55fa22c48c484aaa54>&&)
FUNC 3ae42 52 0 __crt_seh_guarded_call<void>::operator()<<lambda_6673f7c4c09a5d469d0c27ae364621ce>,<lambda_ebab98244f73a74f49db879bf13fa982> &,<lambda_be20789b7a146653eab82509ec35b419> >(__acrt_lock_and_call::__l2::<lambda_6673f7c4c09a5d469d0c27ae364621ce>&&, _get_current_locale::__l2::<lambda_ebab98244f73a74f49db879bf13fa982>&, __acrt_lock_and_call::__l2::<lambda_be20789b7a146653eab82509ec35b419>&&)
FUNC 3aea8 54 0 __crt_seh_guarded_call<void>::operator()<<lambda_82aef432098b982f9ede325b418aa67a>,<lambda_862e9a3f04921db6ca1ce3faa2bf3edf> &,<lambda_ffabc152e504b53d7492b9889b10c020> >(__acrt_lock_and_call::__l2::<lambda_82aef432098b982f9ede325b418aa67a>&&, _get_current_locale::__l2::<lambda_862e9a3f04921db6ca1ce3faa2bf3edf>&, __acrt_lock_and_call::__l2::<lambda_ffabc152e504b53d7492b9889b10c020>&&)
FUNC 3af11 6e 0 __crt_seh_guarded_call<void>::operator()<<lambda_e5124f882df8998aaf41531e079ba474>,<lambda_3e16ef9562a7dcce91392c22ab16ea36> &,<lambda_e25ca0880e6ef98be67edffd8c599615> >(__acrt_lock_and_call::__l2::<lambda_e5124f882df8998aaf41531e079ba474>&&, __acrt_uninitialize_locale::__l2::<lambda_3e16ef9562a7dcce91392c22ab16ea36>&, __acrt_lock_and_call::__l2::<lambda_e25ca0880e6ef98be67edffd8c599615>&&)
FUNC 3af9a 26 0 __acrt_lock_and_call<<lambda_3e16ef9562a7dcce91392c22ab16ea36> >(const __acrt_lock_id, __acrt_uninitialize_locale::__l2::<lambda_3e16ef9562a7dcce91392c22ab16ea36>&&)
FUNC 3afc9 26 0 __acrt_lock_and_call<<lambda_862e9a3f04921db6ca1ce3faa2bf3edf> >(const __acrt_lock_id, _get_current_locale::__l2::<lambda_862e9a3f04921db6ca1ce3faa2bf3edf>&&)
FUNC 3aff8 26 0 __acrt_lock_and_call<<lambda_b57350f2640456a0859d250846f69caf> >(const __acrt_lock_id, _wsetlocale::__l2::<lambda_2a444430fde8c29194d880d93eed5e8f>::()::__l5::<lambda_b57350f2640456a0859d250846f69caf>&&)
FUNC 3b027 26 0 __acrt_lock_and_call<<lambda_ebab98244f73a74f49db879bf13fa982> >(const __acrt_lock_id, _get_current_locale::__l2::<lambda_ebab98244f73a74f49db879bf13fa982>&&)
FUNC 3b056 1a 0 __crt_call_and_cleanup<<lambda_2a444430fde8c29194d880d93eed5e8f>,<lambda_8dff2cf36a5417162780cd64fa2883ef> >(_wsetlocale::__l2::<lambda_2a444430fde8c29194d880d93eed5e8f>&&, _wsetlocale::__l2::<lambda_8dff2cf36a5417162780cd64fa2883ef>&&)
FUNC 3b076 2f 0 __crt_state_management::dual_state_global<__crt_locale_data *>::uninitialize<<lambda_88ce03f932007f29bf8b8056cbaba4f3> >(__acrt_uninitialize_locale::__l2::<lambda_3e16ef9562a7dcce91392c22ab16ea36>::()::__l2::<lambda_88ce03f932007f29bf8b8056cbaba4f3>&&)
FUNC 3b0b0 28 0 <lambda_2a444430fde8c29194d880d93eed5e8f>::<lambda_2a444430fde8c29194d880d93eed5e8f>(__crt_locale_data*&, __acrt_ptd* const&, wchar_t*&, int&, wchar_t const*&)
FUNC 3b0e2 12 0 <lambda_4fdada1b837b2abbf20876fac97688ad>::<lambda_4fdada1b837b2abbf20876fac97688ad>(__acrt_lock_id const&)
FUNC 3b0f8 12 0 <lambda_6673f7c4c09a5d469d0c27ae364621ce>::<lambda_6673f7c4c09a5d469d0c27ae364621ce>(__acrt_lock_id const&)
FUNC 3b10e 12 0 <lambda_82aef432098b982f9ede325b418aa67a>::<lambda_82aef432098b982f9ede325b418aa67a>(__acrt_lock_id const&)
FUNC 3b124 10 0 <lambda_862e9a3f04921db6ca1ce3faa2bf3edf>::<lambda_862e9a3f04921db6ca1ce3faa2bf3edf>(__crt_unique_heap_ptr<__crt_locale_pointers,__crt_internal_free_policy>&)
FUNC 3b138 10 0 <lambda_8dff2cf36a5417162780cd64fa2883ef>::<lambda_8dff2cf36a5417162780cd64fa2883ef>(__acrt_ptd* const&)
FUNC 3b14c 28 0 <lambda_b57350f2640456a0859d250846f69caf>::<lambda_b57350f2640456a0859d250846f69caf>(__crt_locale_data*&, __acrt_ptd* const&, wchar_t*&, int&, wchar_t const*&)
FUNC 3b17e 12 0 <lambda_be20789b7a146653eab82509ec35b419>::<lambda_be20789b7a146653eab82509ec35b419>(__acrt_lock_id const&)
FUNC 3b194 12 0 <lambda_e25ca0880e6ef98be67edffd8c599615>::<lambda_e25ca0880e6ef98be67edffd8c599615>(__acrt_lock_id const&)
FUNC 3b1aa 12 0 <lambda_e5124f882df8998aaf41531e079ba474>::<lambda_e5124f882df8998aaf41531e079ba474>(__acrt_lock_id const&)
FUNC 3b1c0 10 0 <lambda_ebab98244f73a74f49db879bf13fa982>::<lambda_ebab98244f73a74f49db879bf13fa982>(__crt_unique_heap_ptr<__crt_locale_pointers,__crt_internal_free_policy>&)
FUNC 3b1d4 12 0 <lambda_eed5e4f92b5b7d55fa22c48c484aaa54>::<lambda_eed5e4f92b5b7d55fa22c48c484aaa54>(__acrt_lock_id const&)
FUNC 3b1ea 12 0 <lambda_ffabc152e504b53d7492b9889b10c020>::<lambda_ffabc152e504b53d7492b9889b10c020>(__acrt_lock_id const&)
FUNC 3b200 10 0 __crt_unique_heap_ptr<__crt_locale_data,__crt_internal_free_policy>::__crt_unique_heap_ptr<__crt_locale_data,__crt_internal_free_policy>(__crt_locale_data* const)
FUNC 3b214 10 0 __crt_unique_heap_ptr<__crt_locale_pointers,__crt_internal_free_policy>::__crt_unique_heap_ptr<__crt_locale_pointers,__crt_internal_free_policy>(__crt_locale_pointers* const)
FUNC 3b228 4a 0 _expandlocale_locale_name_cache::_expandlocale_locale_name_cache(wchar_t* const, const unsigned int, __crt_qualified_locale_data* const)
FUNC 3b284 12 0 __crt_unique_heap_ptr<__crt_locale_data,__crt_internal_free_policy>::~__crt_unique_heap_ptr<__crt_locale_data,__crt_internal_free_policy>()
FUNC 3b29a 12 0 __crt_unique_heap_ptr<__crt_locale_pointers,__crt_internal_free_policy>::~__crt_unique_heap_ptr<__crt_locale_pointers,__crt_internal_free_policy>()
FUNC 3b2b0 30 0 _expandlocale_locale_name_cache::~_expandlocale_locale_name_cache()
FUNC 3b2ec 7 0 __crt_unique_heap_ptr<__crt_locale_data,__crt_internal_free_policy>::operator bool() const
FUNC 3b2f3 7 0 __crt_unique_heap_ptr<__crt_locale_pointers,__crt_internal_free_policy>::operator bool() const
FUNC 3b2fa 3 0 <lambda_135d2772fca65dc1248eeaa1b56e886a>::operator()() const
FUNC 3b2fd 6a 0 <lambda_2a444430fde8c29194d880d93eed5e8f>::operator()() const
FUNC 3b381 20 0 <lambda_3e16ef9562a7dcce91392c22ab16ea36>::operator()() const
FUNC 3b3a9 9 0 <lambda_4fdada1b837b2abbf20876fac97688ad>::operator()() const
FUNC 3b3b4 9 0 <lambda_6673f7c4c09a5d469d0c27ae364621ce>::operator()() const
FUNC 3b3bf 9 0 <lambda_82aef432098b982f9ede325b418aa67a>::operator()() const
FUNC 3b3ca d 0 <lambda_862e9a3f04921db6ca1ce3faa2bf3edf>::operator()() const
FUNC 3b3da 22 0 <lambda_88ce03f932007f29bf8b8056cbaba4f3>::operator()(__crt_locale_data*&) const
FUNC 3b404 c 0 <lambda_8dff2cf36a5417162780cd64fa2883ef>::operator()() const
FUNC 3b413 fe 0 <lambda_b57350f2640456a0859d250846f69caf>::operator()() const
FUNC 3b550 9 0 <lambda_be20789b7a146653eab82509ec35b419>::operator()() const
FUNC 3b55b 9 0 <lambda_e25ca0880e6ef98be67edffd8c599615>::operator()() const
FUNC 3b566 9 0 <lambda_e5124f882df8998aaf41531e079ba474>::operator()() const
FUNC 3b571 b 0 <lambda_ebab98244f73a74f49db879bf13fa982>::operator()() const
FUNC 3b57e 9 0 <lambda_eed5e4f92b5b7d55fa22c48c484aaa54>::operator()() const
FUNC 3b589 9 0 <lambda_ffabc152e504b53d7492b9889b10c020>::operator()() const
FUNC 3b594 44 0 _expandlocale_locale_name_cache::commit_locale_name(wchar_t const* const, const unsigned int)
FUNC 3b5e9 35 0 _expandlocale_locale_name_cache::commit_locale_name_cache_already_updated(wchar_t const* const, const unsigned int)
FUNC 3b62b 6 0 __crt_unique_heap_ptr<__crt_locale_data,__crt_internal_free_policy>::detach()
FUNC 3b631 6 0 __crt_unique_heap_ptr<__crt_locale_pointers,__crt_internal_free_policy>::detach()
FUNC 3b637 3 0 __crt_unique_heap_ptr<__crt_locale_data,__crt_internal_free_policy>::get() const
FUNC 3b63a 3 0 __crt_unique_heap_ptr<__crt_locale_pointers,__crt_internal_free_policy>::get() const
FUNC 3b63d 7 0 __crt_unique_heap_ptr<__crt_locale_data,__crt_internal_free_policy>::is_valid() const
FUNC 3b644 7 0 __crt_unique_heap_ptr<__crt_locale_pointers,__crt_internal_free_policy>::is_valid() const
FUNC 3b64b 12 0 __crt_unique_heap_ptr<__crt_locale_data,__crt_internal_free_policy>::release()
FUNC 3b661 12 0 __crt_unique_heap_ptr<__crt_locale_pointers,__crt_internal_free_policy>::release()
FUNC 3b677 60 0 __acrt_copy_locale_name(wchar_t const*)
FUNC 3b6ef b 0 __acrt_set_locale_changed()
FUNC 3b6fc 27 0 __acrt_uninitialize_locale()
FUNC 3b72c 17 0 __ascii_tolower(const int)
FUNC 3b748 17 0 __ascii_towlower(const int)
FUNC 3b764 70 0 __lc_lctowcs(wchar_t*, unsigned int, __crt_locale_strings const*)
FUNC 3b7f0 150 0 __lc_wcstolc(__crt_locale_strings*, wchar_t const*)
FUNC 3b994 62 0 _configthreadlocale(int)
FUNC 3ba0e 2f 0 _copytlocinfo_nolock(__crt_locale_data*, __crt_locale_data*)
FUNC 3ba48 64 0 _create_locale(int, char const*)
FUNC 3bac5 3c6 0 _expandlocale(wchar_t const*, wchar_t*, unsigned int, wchar_t*, unsigned int, unsigned int&)
FUNC 3bf7c c2 0 _free_locale(__crt_locale_pointers*)
FUNC 3c06e 9b 0 _get_current_locale()
FUNC 3c12f 107 0 _wcreate_locale(int, wchar_t const*)
FUNC 3c277 41 0 _wcscats(wchar_t*, unsigned int, int, <NoType>)
FUNC 3c2c8 83 0 _wsetlocale(int, wchar_t const*)
FUNC 3c36b 19b 0 _wsetlocale_get_all(__crt_locale_data*)
FUNC 3c56c 2f0 0 _wsetlocale_nolock(__crt_locale_data*, int, wchar_t const*)
FUNC 3c918 3c7 0 _wsetlocale_set_cat(__crt_locale_data*, int, wchar_t const*)
FUNC 3cdd0 26 0 categorize_delimiter(const wchar_t)
FUNC 3cdff 2f 0 get_default_code_page(wchar_t const* const)
FUNC 3ce39 1ea 0 parse_bcp47(__crt_locale_strings* const, wchar_t const* const)
FUNC 3d09d 3f 0 parse_bcp47_code_page(__crt_locale_strings* const, _bcp47_section const&)
FUNC 3d0eb 72 0 parse_bcp47_language(__crt_locale_strings* const, _bcp47_section const&)
FUNC 3d179 b9 0 parse_bcp47_region(__crt_locale_strings* const, _bcp47_section const&)
FUNC 3d260 70 0 parse_bcp47_script(__crt_locale_strings* const, _bcp47_section const&)
FUNC 3d2ec 3d 0 string_is_alpha(wchar_t const* const, const unsigned int)
FUNC 3d338 3a 0 string_is_digit(wchar_t const* const, const unsigned int)
FUNC 3d380 22 0 sync_legacy_variables_lk()
FUNC 3d3aa 24 0 __pctype_func()
FUNC 3d3d7 6 0 __pwctype_func()
FUNC 3d3dd 14 0 _iswctype_l(unsigned short, unsigned short, __crt_locale_pointers*)
FUNC 3d3f6 69 0 iswctype(unsigned short, unsigned short)
FUNC 3d479 33 0 _isctype(int, int)
FUNC 3d4b8 cb 0 _isctype_l(int, int, __crt_locale_pointers*)
FUNC 3d5b5 1e 0 _isleadbyte_fast_internal(const unsigned char, __crt_locale_pointers* const)
FUNC 3d5da 7d 0 __acrt_add_locale_ref(__crt_locale_data*)
FUNC 3d676 148 0 __acrt_free_locale(__crt_locale_data*)
FUNC 3d810 29 0 __acrt_locale_add_lc_time_reference(__crt_lc_time_data const*)
FUNC 3d843 31 0 __acrt_locale_free_lc_time_if_unreferenced(__crt_lc_time_data const*)
FUNC 3d880 29 0 __acrt_locale_release_lc_time_reference(__crt_lc_time_data const*)
FUNC 3d8b3 81 0 __acrt_release_locale_ref(__crt_locale_data*)
FUNC 3d954 81 0 __acrt_update_thread_locale_data()
FUNC 3d9f5 50 0 _updatetlocinfoEx_nolock(__crt_locale_data**, __crt_locale_data*)
FUNC 3da59 3 0 __crt_state_management::dual_state_global<long>::value()
FUNC 3da5c 7 0 _query_new_mode()
FUNC 3da63 2f 0 _set_new_mode(int)
FUNC 3daa0 7a 0 shortsort(char*, char*, const unsigned int, int (*)(void const*, void const*))
FUNC 3db40 39 0 swap(char*, char*, unsigned int)
FUNC 3db90 444 0 qsort(void*, unsigned int, unsigned int, int (*)(void const*, void const*))
FUNC 3e0e5 cb 0 common_tcsncpy_s<wchar_t>(wchar_t* const, const unsigned int, wchar_t const* const, const unsigned int)
FUNC 3e1e2 b 0 wcsncpy_s(wchar_t*, unsigned int, wchar_t const*, unsigned int)
FUNC 3e1ef 4e 0 wcspbrk(wchar_t const*, wchar_t const*)
FUNC 3e250 b3 0 common_tcsncpy_s<char>(char* const, const unsigned int, char const* const, const unsigned int)
FUNC 3e32f b 0 strncpy_s(char*, unsigned int, char const*, unsigned int)
FUNC 3e340 40 0 strpbrk(unsigned char*, unsigned char*)
FUNC 3e390 17 0 _mbsdec(unsigned char const*, unsigned char const*)
FUNC 3e3ac 8d 0 _mbsdec_l(unsigned char const*, unsigned char const*, __crt_locale_pointers*)
FUNC 3e45c 10 0 __crt_scoped_stack_ptr<wchar_t>::__crt_scoped_stack_ptr<wchar_t>(const __crt_scoped_stack_ptr_tag<wchar_t>)
FUNC 3e470 10 0 __crt_scoped_stack_ptr_tag<wchar_t>::__crt_scoped_stack_ptr_tag<wchar_t>(wchar_t* const)
FUNC 3e484 9 0 __crt_scoped_stack_ptr<wchar_t>::~__crt_scoped_stack_ptr<wchar_t>()
FUNC 3e48f 3 0 __crt_scoped_stack_ptr<wchar_t>::get() const
FUNC 3e492 13 0 _MallocaComputeSize(unsigned int)
FUNC 3e4a9 16 0 _MarkAllocaS(void*, unsigned int)
FUNC 3e4c4 103 0 __acrt_GetStringTypeA(__crt_locale_pointers*, unsigned long, char const*, int, unsigned short*, int, int)
FUNC 3e607 20 0 _freea_crt(void*)
FUNC 3e62f 7 0 __crt_scoped_stack_ptr<wchar_t>::operator bool() const
FUNC 3e636 1ea 0 __acrt_LCMapStringA_stat(__crt_locale_pointers*, wchar_t const*, unsigned long, char const*, int, char*, int, int, int)
FUNC 3e89a 49 0 __acrt_LCMapStringA(__crt_locale_pointers*, wchar_t const*, unsigned long, char const*, int, char*, int, int, int)
FUNC 3e8f5 f 0 initialize_multibyte()
FUNC 3e907 6d 0 _wcsnicoll(wchar_t const*, wchar_t const*, unsigned int)
FUNC 3e98f c0 0 _wcsnicoll_l(wchar_t const*, wchar_t const*, unsigned int, __crt_locale_pointers*)
FUNC 3ea7f 29 0 _strnicoll(char const*, char const*, unsigned int)
FUNC 3eab2 c8 0 _strnicoll_l(char const*, char const*, unsigned int, __crt_locale_pointers*)
FUNC 3ebac b2 0 __acrt_convert_wcs_mbs_cp<char,wchar_t,<lambda_62f6974d9771e494a5ea317cc32e971c>,__crt_win32_buffer_internal_dynamic_resizing>(char const* const, __crt_win32_buffer<wchar_t,__crt_win32_buffer_internal_dynamic_resizing>&, __acrt_mbs_to_wcs_cp::__l2::<lambda_62f6974d9771e494a5ea317cc32e971c> const&, const unsigned int)
FUNC 3ec8a 21 0 <lambda_62f6974d9771e494a5ea317cc32e971c>::operator()(const unsigned int, char const* const, wchar_t* const, const unsigned int) const
FUNC 3ecb3 95 0 __acrt_SetEnvironmentVariableA(char const*, char const*)
FUNC 3ed6d b 0 _msize(void*)
FUNC 3ed7a 33 0 _msize_base(void*)
FUNC 3edb9 69 0 _realloc_base(void*, unsigned int)
FUNC 3ee3c 37 0 GetTableIndexFromLcid(unsigned long)
FUNC 3ee80 50 0 GetTableIndexFromLocaleName(wchar_t const*)
FUNC 3eee4 aa 0 __acrt_DownlevelLCIDToLocaleName(unsigned long, wchar_t*, int)
FUNC 3efb8 2c 0 __acrt_DownlevelLocaleNameToLCID(wchar_t const*)
FUNC 3efef 12 0 __crt_internal_free_policy::operator()<__crt_lowio_handle_data>(__crt_lowio_handle_data const* const) const
FUNC 3f005 10 0 __crt_unique_heap_ptr<__crt_lowio_handle_data,__crt_internal_free_policy>::__crt_unique_heap_ptr<__crt_lowio_handle_data,__crt_internal_free_policy>(__crt_lowio_handle_data* const)
FUNC 3f019 12 0 __crt_unique_heap_ptr<__crt_lowio_handle_data,__crt_internal_free_policy>::~__crt_unique_heap_ptr<__crt_lowio_handle_data,__crt_internal_free_policy>()
FUNC 3f02f 7 0 __crt_unique_heap_ptr<__crt_lowio_handle_data,__crt_internal_free_policy>::operator bool() const
FUNC 3f036 6 0 __crt_unique_heap_ptr<__crt_lowio_handle_data,__crt_internal_free_policy>::detach()
FUNC 3f03c 3 0 __crt_unique_heap_ptr<__crt_lowio_handle_data,__crt_internal_free_policy>::get() const
FUNC 3f03f 7 0 __crt_unique_heap_ptr<__crt_lowio_handle_data,__crt_internal_free_policy>::is_valid() const
FUNC 3f046 12 0 __crt_unique_heap_ptr<__crt_lowio_handle_data,__crt_internal_free_policy>::release()
FUNC 3f05c 7b 0 __acrt_lowio_create_handle_array()
FUNC 3f0f5 35 0 __acrt_lowio_destroy_handle_array(__crt_lowio_handle_data*)
FUNC 3f137 9e 0 __acrt_lowio_ensure_fh_exists(int)
FUNC 3f1fc 23 0 __acrt_lowio_lock_fh(int)
FUNC 3f227 92 0 __acrt_lowio_set_os_handle(int, int)
FUNC 3f2dd 23 0 __acrt_lowio_unlock_fh(int)
FUNC 3f308 113 0 _alloc_osfhnd()
FUNC 3f45f 91 0 _free_osfhnd(int)
FUNC 3f514 6a 0 _get_osfhandle(int)
FUNC 3f598 116 0 _open_osfhandle(int, int)
FUNC 3f6f3 a2 0 __crt_seh_guarded_call<int>::operator()<<lambda_9e9de3de5fa147e2223d7db92bc10aa6>,<lambda_38ce7e780aa69e748d6df282ebc68efe> &,<lambda_8ca6da459f0f6780f1cff60fdc3d00e5> >(__acrt_lowio_lock_fh_and_call::__l2::<lambda_9e9de3de5fa147e2223d7db92bc10aa6>&&, _commit::__l2::<lambda_38ce7e780aa69e748d6df282ebc68efe>&, __acrt_lowio_lock_fh_and_call::__l2::<lambda_8ca6da459f0f6780f1cff60fdc3d00e5>&&)
FUNC 3f7bd 26 0 __acrt_lowio_lock_fh_and_call<<lambda_38ce7e780aa69e748d6df282ebc68efe> >(const int, _commit::__l2::<lambda_38ce7e780aa69e748d6df282ebc68efe>&&)
FUNC 3f7ec 10 0 <lambda_38ce7e780aa69e748d6df282ebc68efe>::<lambda_38ce7e780aa69e748d6df282ebc68efe>(int const&)
FUNC 3f800 12 0 <lambda_8ca6da459f0f6780f1cff60fdc3d00e5>::<lambda_8ca6da459f0f6780f1cff60fdc3d00e5>(int const&)
FUNC 3f816 12 0 <lambda_9e9de3de5fa147e2223d7db92bc10aa6>::<lambda_9e9de3de5fa147e2223d7db92bc10aa6>(int const&)
FUNC 3f82c 55 0 <lambda_38ce7e780aa69e748d6df282ebc68efe>::operator()() const
FUNC 3f896 9 0 <lambda_8ca6da459f0f6780f1cff60fdc3d00e5>::operator()() const
FUNC 3f8a1 9 0 <lambda_9e9de3de5fa147e2223d7db92bc10aa6>::operator()() const
FUNC 3f8ac 7d 0 _commit(int)
FUNC 3f948 4f 0 write_binary_nolock(const int, char const* const, const unsigned int)
FUNC 3f9aa 3aa 0 write_double_translated_ansi_nolock(const int, char const* const, const unsigned int)
FUNC 3fe3e 68 0 write_double_translated_unicode_nolock(char const* const, const unsigned int)
FUNC 3fec0 71 0 write_requires_double_translation_nolock(const int)
FUNC 3ff4d db 0 write_text_ansi_nolock(const int, char const* const, const unsigned int)
FUNC 4005e e9 0 write_text_utf16le_nolock(const int, char const* const, const unsigned int)
FUNC 40181 132 0 write_text_utf8_nolock(const int, char const* const, const unsigned int)
FUNC 402ff 11 0 _utf8_no_of_trailbytes(const unsigned char)
FUNC 40314 f2 0 _write(int, void const*, unsigned int)
FUNC 40442 1e2 0 _write_nolock(int, void const*, unsigned int)
FUNC 4069c 28 0 localeconv()
FUNC 406ce c 0 __crt_stdio_stream::is_in_use() const
FUNC 406dd ab 0 _fcloseall()
FUNC 407b2 c 0 __crt_stdio_stream::has_crt_buffer() const
FUNC 407c1 40 0 __acrt_stdio_free_buffer_nolock(_iobuf*)
FUNC 40811 56 0 _isatty(int)
FUNC 4087c 26 0 __iswcsym(unsigned short)
FUNC 408ab 26 0 __iswcsymf(unsigned short)
FUNC 408da 3a 0 _isleadbyte_l(int, __crt_locale_pointers*)
FUNC 40922 16 0 _iswalnum_l(unsigned short, __crt_locale_pointers*)
FUNC 4093d 16 0 _iswalpha_l(unsigned short, __crt_locale_pointers*)
FUNC 40958 1d 0 _iswblank_l(unsigned short, __crt_locale_pointers*)
FUNC 4097c 13 0 _iswcntrl_l(unsigned short, __crt_locale_pointers*)
FUNC 40993 26 0 _iswcsym_l(unsigned short, __crt_locale_pointers*)
FUNC 409c2 26 0 _iswcsymf_l(unsigned short, __crt_locale_pointers*)
FUNC 409f1 13 0 _iswdigit_l(unsigned short, __crt_locale_pointers*)
FUNC 40a08 16 0 _iswgraph_l(unsigned short, __crt_locale_pointers*)
FUNC 40a23 13 0 _iswlower_l(unsigned short, __crt_locale_pointers*)
FUNC 40a3a 16 0 _iswprint_l(unsigned short, __crt_locale_pointers*)
FUNC 40a55 13 0 _iswpunct_l(unsigned short, __crt_locale_pointers*)
FUNC 40a6c 13 0 _iswspace_l(unsigned short, __crt_locale_pointers*)
FUNC 40a83 13 0 _iswupper_l(unsigned short, __crt_locale_pointers*)
FUNC 40a9a 16 0 _iswxdigit_l(unsigned short, __crt_locale_pointers*)
FUNC 40ab5 13 0 isleadbyte(int)
FUNC 40acc 16 0 iswalnum(unsigned short)
FUNC 40ae7 16 0 iswalpha(unsigned short)
FUNC 40b02 14 0 iswascii(unsigned short)
FUNC 40b1b 1d 0 iswblank(unsigned short)
FUNC 40b3f 13 0 iswcntrl(unsigned short)
FUNC 40b56 13 0 iswdigit(unsigned short)
FUNC 40b6d 16 0 iswgraph(unsigned short)
FUNC 40b88 13 0 iswlower(unsigned short)
FUNC 40b9f 16 0 iswprint(unsigned short)
FUNC 40bba 13 0 iswpunct(unsigned short)
FUNC 40bd1 13 0 iswspace(unsigned short)
FUNC 40be8 13 0 iswupper(unsigned short)
FUNC 40bff 16 0 iswxdigit(unsigned short)
FUNC 40c1a 2c 0 <lambda_3d301b9e52f5099be73030e1f0bf487e>::operator()(char const*) const
FUNC 40c51 40 0 __crt_mbstring::__mbrtowc_utf8(wchar_t*, char const*, unsigned int, _Mbstatet*)
FUNC 40ca1 fb 0 __crt_mbstring::__mbsrtowcs_utf8(wchar_t*, char const**, unsigned int, _Mbstatet*)
FUNC 40dda 1ed 0 _mbrtowc_s_l(int*, wchar_t*, char const*, unsigned int, _Mbstatet*, __crt_locale_pointers*)
FUNC 41042 12a 0 _mbsrtowcs_helper(wchar_t*, char const**, unsigned int, _Mbstatet*)
FUNC 411b6 58 0 btowc(int)
FUNC 41224 32 0 mbrlen(char const*, unsigned int, _Mbstatet*)
FUNC 41262 51 0 mbrtowc(wchar_t*, char const*, unsigned int, _Mbstatet*)
FUNC 412c7 b 0 mbsrtowcs(wchar_t*, char const**, unsigned int, _Mbstatet*)
FUNC 412d4 a3 0 mbsrtowcs_s(unsigned int*, wchar_t*, unsigned int, char const**, unsigned int, _Mbstatet*)
FUNC 4139f 12 0 __crt_internal_free_policy::operator()<unsigned short>(unsigned short const* const) const
FUNC 413b5 12 0 __crt_internal_free_policy::operator()<long>(long const* const) const
FUNC 413cb 10 0 __crt_unique_heap_ptr<unsigned short,__crt_internal_free_policy>::__crt_unique_heap_ptr<unsigned short,__crt_internal_free_policy>(unsigned short* const)
FUNC 413df 10 0 __crt_unique_heap_ptr<long,__crt_internal_free_policy>::__crt_unique_heap_ptr<long,__crt_internal_free_policy>(long* const)
FUNC 413f3 12 0 __crt_unique_heap_ptr<unsigned short,__crt_internal_free_policy>::~__crt_unique_heap_ptr<unsigned short,__crt_internal_free_policy>()
FUNC 41409 12 0 __crt_unique_heap_ptr<long,__crt_internal_free_policy>::~__crt_unique_heap_ptr<long,__crt_internal_free_policy>()
FUNC 4141f 6 0 __crt_unique_heap_ptr<unsigned short,__crt_internal_free_policy>::detach()
FUNC 41425 6 0 __crt_unique_heap_ptr<long,__crt_internal_free_policy>::detach()
FUNC 4142b 12 0 __crt_unique_heap_ptr<unsigned short,__crt_internal_free_policy>::release()
FUNC 41441 12 0 __crt_unique_heap_ptr<long,__crt_internal_free_policy>::release()
FUNC 41457 25 0 ___lc_codepage_func()
FUNC 41485 25 0 ___lc_collate_cp_func()
FUNC 414b3 27 0 ___lc_locale_name_func()
FUNC 414e3 25 0 ___mb_cur_max_func()
FUNC 41511 19 0 ___mb_cur_max_l_func(__crt_locale_pointers*)
FUNC 41530 45e 0 __acrt_locale_initialize_ctype(__crt_locale_data*)
FUNC 41aa5 ab 0 __crt_mbstring::__c32rtomb_utf8(char*, char32_t, _Mbstatet*)
FUNC 41b7a 14 0 __crt_mbstring::reset_and_return(unsigned int, _Mbstatet*)
FUNC 41b93 1f 0 __crt_mbstring::return_illegal_sequence(_Mbstatet*)
FUNC 41bb9 b 0 c32rtomb(char*, char32_t, _Mbstatet*)
FUNC 41bc6 c0 0 __acrt_fp_strflt_to_string(char*, unsigned int, int, _strflt*)
FUNC 41cb6 11dc 0 convert_to_fos_high_precision<double>(const double, const unsigned int, int* const, char* const, const unsigned int)
FUNC 43310 31 0 __crt_strtox::big_integer::big_integer(__crt_strtox::big_integer const&)
FUNC 43350 9 0 __crt_strtox::big_integer::big_integer()
FUNC 4335b 2c 0 (anonymous namespace)::scoped_fp_state_reset::scoped_fp_state_reset()
FUNC 43392 e 0 (anonymous namespace)::scoped_fp_state_reset::~scoped_fp_state_reset()
FUNC 433b0 31 0 __crt_strtox::big_integer::operator=(__crt_strtox::big_integer const&)
FUNC 433f0 3b 0 __crt_strtox::operator==(__crt_strtox::big_integer const&, __crt_strtox::big_integer const&)
FUNC 43440 39 0 __crt_strtox::operator!=(__crt_strtox::big_integer const&, __crt_strtox::big_integer const&)
FUNC 43490 1b 0 __crt_strtox::add_carry(unsigned int&, const unsigned int, const unsigned int)
FUNC 434c0 24 0 __crt_strtox::add_multiply_carry(unsigned int&, const unsigned int, const unsigned int, const unsigned int)
FUNC 434f0 1e 0 __crt_strtox::bit_scan_reverse(const unsigned int)
FUNC 43520 1b 0 __crt_strtox::count_sequential_high_zeroes(const unsigned int)
FUNC 43550 498 0 __crt_strtox::divide(__crt_strtox::big_integer&, __crt_strtox::big_integer const&)
FUNC 43b10 10 0 __crt_strtox::is_zero(__crt_strtox::big_integer const&)
FUNC 43b30 20 0 __crt_strtox::make_big_integer(const unsigned long long)
FUNC 43b60 4c 0 __crt_strtox::make_big_integer_power_of_two(const unsigned int)
FUNC 43bc0 33d 0 __crt_strtox::multiply(__crt_strtox::big_integer&, __crt_strtox::big_integer const&)
FUNC 43fd0 c3 0 __crt_strtox::multiply(__crt_strtox::big_integer&, const unsigned int)
FUNC 440d0 17 0 __crt_strtox::multiply_64_32(const unsigned long long, const unsigned int)
FUNC 440f0 523 0 __crt_strtox::multiply_by_power_of_ten(__crt_strtox::big_integer&, const unsigned int)
FUNC 44760 3e 0 __crt_strtox::multiply_core(unsigned int* const, const unsigned int, const unsigned int)
FUNC 447b0 156 0 __crt_strtox::shift_left(__crt_strtox::big_integer&, const unsigned int)
FUNC 4495b 134a 0 __acrt_fltout(_CRT_DOUBLE, unsigned int, _strflt*, char*, unsigned int)
FUNC 46177 81 0 memcpy_s(void* const, const unsigned int, void const* const, const unsigned int)
FUNC 46218 115 0 common_flush_and_write_nolock<char>(const int, const __crt_stdio_stream)
FUNC 46372 119 0 common_flush_and_write_nolock<wchar_t>(const int, const __crt_stdio_stream)
FUNC 464d1 cc 0 write_buffer_nolock<char>(const char, const __crt_stdio_stream)
FUNC 465d0 ce 0 write_buffer_nolock<wchar_t>(const wchar_t, const __crt_stdio_stream)
FUNC 466d1 c 0 __crt_stdio_stream::has_big_buffer() const
FUNC 466e0 85 0 stream_is_at_end_of_file_nolock(const __crt_stdio_stream)
FUNC 46786 b 0 __acrt_stdio_flush_and_write_narrow_nolock(int, _iobuf*)
FUNC 46793 b 0 __acrt_stdio_flush_and_write_wide_nolock(int, _iobuf*)
FUNC 467a0 12 0 __crt_internal_free_policy::operator()<lconv>(lconv const* const) const
FUNC 467b6 10 0 __crt_unique_heap_ptr<lconv,__crt_internal_free_policy>::__crt_unique_heap_ptr<lconv,__crt_internal_free_policy>(lconv* const)
FUNC 467ca 12 0 __crt_unique_heap_ptr<lconv,__crt_internal_free_policy>::~__crt_unique_heap_ptr<lconv,__crt_internal_free_policy>()
FUNC 467e0 6 0 __crt_unique_heap_ptr<lconv,__crt_internal_free_policy>::detach()
FUNC 467e6 12 0 __crt_unique_heap_ptr<lconv,__crt_internal_free_policy>::release()
FUNC 467fc fe 0 __acrt_locale_free_monetary(lconv*)
FUNC 46939 3b7 0 __acrt_locale_initialize_monetary(__crt_locale_data*)
FUNC 46ddd 38 0 fix_grouping(char*)
FUNC 46e23 69 0 __acrt_locale_free_numeric(lconv*)
FUNC 46ea6 20f 0 __acrt_locale_initialize_numeric(__crt_locale_data*)
FUNC 47138 38 0 fix_grouping(char*)
FUNC 4717e 12 0 __crt_internal_free_policy::operator()<__crt_lc_time_data>(__crt_lc_time_data const* const) const
FUNC 47194 13 0 free_crt_array<char,2>(char*[2]&)
FUNC 471ab 13 0 free_crt_array<char,7>(char*[7]&)
FUNC 471c2 13 0 free_crt_array<char,12>(char*[12]&)
FUNC 471d9 13 0 free_crt_array<wchar_t,2>(wchar_t*[2]&)
FUNC 471f0 13 0 free_crt_array<wchar_t,7>(wchar_t*[7]&)
FUNC 47207 13 0 free_crt_array<wchar_t,12>(wchar_t*[12]&)
FUNC 4721e 10 0 __crt_unique_heap_ptr<__crt_lc_time_data,__crt_internal_free_policy>::__crt_unique_heap_ptr<__crt_lc_time_data,__crt_internal_free_policy>(__crt_lc_time_data* const)
FUNC 47232 12 0 __crt_unique_heap_ptr<__crt_lc_time_data,__crt_internal_free_policy>::~__crt_unique_heap_ptr<__crt_lc_time_data,__crt_internal_free_policy>()
FUNC 47248 7 0 __crt_unique_heap_ptr<__crt_lc_time_data,__crt_internal_free_policy>::operator bool() const
FUNC 4724f 6 0 __crt_unique_heap_ptr<__crt_lc_time_data,__crt_internal_free_policy>::detach()
FUNC 47255 38 0 free_crt_array_internal(void const** const, const unsigned int)
FUNC 4729b 3 0 __crt_unique_heap_ptr<__crt_lc_time_data,__crt_internal_free_policy>::get() const
FUNC 4729e 61 0 get_or_create_lc_time(__crt_locale_data* const)
FUNC 47317 27c 0 initialize_lc_time(__crt_lc_time_data* const, __crt_locale_data* const)
FUNC 47632 7 0 __crt_unique_heap_ptr<__crt_lc_time_data,__crt_internal_free_policy>::is_valid() const
FUNC 47639 12 0 __crt_unique_heap_ptr<__crt_lc_time_data,__crt_internal_free_policy>::release()
FUNC 4764f e4 0 __acrt_locale_free_time(__crt_lc_time_data*)
FUNC 4776c 7b 0 __acrt_locale_initialize_time(__crt_locale_data*)
FUNC 47805 72 0 common_tcscat_s<wchar_t>(wchar_t* const, const unsigned int, wchar_t const* const)
FUNC 47893 75 0 wcscat_s(wchar_t*, unsigned int, wchar_t const*)
FUNC 47925 e7 0 common_tcsncat_s<wchar_t>(wchar_t* const, const unsigned int, wchar_t const* const, const unsigned int)
FUNC 47a45 b 0 wcsncat_s(wchar_t*, unsigned int, wchar_t const*, unsigned int)
FUNC 47a52 59 0 wcscspn(wchar_t const*, wchar_t const*)
FUNC 47ac1 87 0 GetLocaleNameFromDefault(__crt_qualified_locale_data*)
FUNC 47b69 99 0 GetLocaleNameFromLangCountry(__crt_qualified_locale_data*)
FUNC 47c28 59 0 GetLocaleNameFromLanguage(__crt_qualified_locale_data*)
FUNC 47c97 34 0 GetPrimaryLen(wchar_t const*)
FUNC 47cd8 2e0 0 LangCountryEnumProcEx(wchar_t*, unsigned long, long)
FUNC 48070 bf 0 LanguageEnumProcEx(wchar_t*, unsigned long, long)
FUNC 4815e f6 0 ProcessCodePage(wchar_t const*, __crt_qualified_locale_data*)
FUNC 48291 4d 0 TestDefaultCountry(wchar_t const*)
FUNC 482f1 46 0 TestDefaultLanguage(wchar_t const*, int, __crt_qualified_locale_data*)
FUNC 48348 6d 0 TranslateName(__crt_locale_string_table const*, int, wchar_t const**)
FUNC 483d0 1fb 0 __acrt_get_qualified_locale(__crt_locale_strings const*, unsigned int*, __crt_locale_strings*)
FUNC 48649 a7 0 CountryEnumProc(wchar_t*)
FUNC 48719 4b 0 GetLcidFromCountry(__crt_qualified_locale_data_downlevel*)
FUNC 48776 1e 0 GetLcidFromDefault(__crt_qualified_locale_data_downlevel*)
FUNC 4879b 9b 0 GetLcidFromLangCountry(__crt_qualified_locale_data_downlevel*)
FUNC 4885c 5f 0 GetLcidFromLanguage(__crt_qualified_locale_data_downlevel*)
FUNC 488d2 2c 0 GetPrimaryLen(wchar_t const*)
FUNC 48909 253 0 LangCountryEnumProc(wchar_t*)
FUNC 48bf0 d5 0 LanguageEnumProc(wchar_t*)
FUNC 48cfa 51 0 LcidFromHexString(wchar_t const*)
FUNC 48d5f e1 0 ProcessCodePage(wchar_t const*, __crt_qualified_locale_data_downlevel*)
FUNC 48e78 25 0 TestDefaultCountry(unsigned long)
FUNC 48ea6 6e 0 TestDefaultLanguage(unsigned long, int, __crt_qualified_locale_data_downlevel*)
FUNC 48f2f 61 0 TranslateName(__crt_locale_string_table const*, int, wchar_t const**)
FUNC 48fa8 1f5 0 __acrt_get_qualified_locale_downlevel(__crt_locale_strings const*, unsigned int*, __crt_locale_strings*)
FUNC 4921a 19 0 __acrt_GetStringTypeW(unsigned long, wchar_t const*, int, unsigned short*)
FUNC 49239 1c 0 __strncnt(char const*, unsigned int)
FUNC 4925c 65 0 __acrt_CompareStringW(wchar_t const*, unsigned long, wchar_t const*, int, wchar_t const*, int)
FUNC 492da 4f 0 __ascii_wcsnicmp(wchar_t const*, wchar_t const*, unsigned int)
FUNC 4933c 2b 0 _towlower_fast_internal(const unsigned char, __crt_locale_pointers* const)
FUNC 49371 3f 0 _towlower_internal(const unsigned short, __crt_locale_pointers* const)
FUNC 493bf 4c 0 _wcsnicmp(wchar_t const*, wchar_t const*, unsigned int)
FUNC 4941e d3 0 _wcsnicmp_l(wchar_t const*, wchar_t const*, unsigned int, __crt_locale_pointers*)
FUNC 49525 6d 0 _strnicmp(char const*, char const*, unsigned int)
FUNC 495ad c9 0 _strnicmp_l(char const*, char const*, unsigned int, __crt_locale_pointers*)
FUNC 496a8 28b 0 InternalCompareStringA(__crt_locale_pointers*, wchar_t const*, unsigned long, char const*, int, char const*, int, int)
FUNC 499d5 46 0 __acrt_CompareStringA(__crt_locale_pointers*, wchar_t const*, unsigned long, char const*, int, char const*, int, int)
FUNC 49a2c 3 0 issue_debug_notification(wchar_t const* const)
FUNC 49a2f 20 0 should_write_error_to_console()
FUNC 49a57 7b 0 write_string_to_console(wchar_t const* const)
FUNC 49af0 115 0 __acrt_report_runtime_error(wchar_t const*)
FUNC 49c4a 6 0 _query_app_type()
FUNC 49c50 f 0 _set_app_type(_crt_app_type)
FUNC 49c62 f2 0 common_lseek<long>(const int, const long, const int)
FUNC 49d90 10c 0 common_lseek<__int64>(const int, const long long, const int)
FUNC 49edf 57 0 common_lseek_nolock<long>(const int, const long, const int)
FUNC 49f4b 7c 0 common_lseek_nolock<__int64>(const int, const long long, const int)
FUNC 49fe6 82 0 common_lseek_do_seek_nolock(void* const, const long, const int)
FUNC 4a088 3d 0 common_lseek_do_seek_nolock(void* const, const long long, const int)
FUNC 4a0d4 b 0 _lseek(int, long, int)
FUNC 4a0e1 b 0 _lseek_nolock(int, long, int)
FUNC 4a0ee 1b 0 _lseeki64(int, long long, int)
FUNC 4a10f 1b 0 _lseeki64_nolock(int, long long, int)
FUNC 4a130 68 0 __crt_seh_guarded_call<unsigned short>::operator()<<lambda_f828341fbe69b7c0d4c527b01f22877f>,<lambda_9e0b6ab72a5b3ae37ad997d08b519f50> &,<lambda_f01deac0a8d65d6e0411edf7e0af5775> >(__acrt_lock_and_call::__l2::<lambda_f828341fbe69b7c0d4c527b01f22877f>&&, _putwch::__l2::<lambda_9e0b6ab72a5b3ae37ad997d08b519f50>&, __acrt_lock_and_call::__l2::<lambda_f01deac0a8d65d6e0411edf7e0af5775>&&)
FUNC 4a1b2 26 0 __acrt_lock_and_call<<lambda_9e0b6ab72a5b3ae37ad997d08b519f50> >(const __acrt_lock_id, _putwch::__l2::<lambda_9e0b6ab72a5b3ae37ad997d08b519f50>&&)
FUNC 4a1e1 10 0 <lambda_9e0b6ab72a5b3ae37ad997d08b519f50>::<lambda_9e0b6ab72a5b3ae37ad997d08b519f50>(wchar_t const&)
FUNC 4a1f5 12 0 <lambda_f01deac0a8d65d6e0411edf7e0af5775>::<lambda_f01deac0a8d65d6e0411edf7e0af5775>(__acrt_lock_id const&)
FUNC 4a20b 12 0 <lambda_f828341fbe69b7c0d4c527b01f22877f>::<lambda_f828341fbe69b7c0d4c527b01f22877f>(__acrt_lock_id const&)
FUNC 4a221 d 0 <lambda_9e0b6ab72a5b3ae37ad997d08b519f50>::operator()() const
FUNC 4a231 9 0 <lambda_f01deac0a8d65d6e0411edf7e0af5775>::operator()() const
FUNC 4a23c 9 0 <lambda_f828341fbe69b7c0d4c527b01f22877f>::operator()() const
FUNC 4a247 2d 0 _putwch(wchar_t)
FUNC 4a27f 32 0 _putwch_nolock(wchar_t)
FUNC 4a2bd 161 0 translate_text_mode_nolock<char>(const int, char* const, const unsigned int)
FUNC 4a476 1d1 0 translate_text_mode_nolock<wchar_t>(const int, wchar_t* const, const unsigned int)
FUNC 4a6bb 23 0 store_lookahead(const int, const char)
FUNC 4a6e6 41 0 store_lookahead(const int, const wchar_t)
FUNC 4a737 157 0 translate_ansi_or_utf8_nolock(const int, char* const, const unsigned int, wchar_t* const, const unsigned int)
FUNC 4a8e3 7b 0 translate_utf16_from_console_nolock(const int, wchar_t* const, const unsigned int)
FUNC 4a97c 114 0 _read(int, void*, unsigned int)
FUNC 4aad5 3b0 0 _read_nolock(int, void*, unsigned int)
FUNC 4af71 77 0 _fclose_nolock(_iobuf*)
FUNC 4b005 84 0 fclose(_iobuf*)
FUNC 4b0aa 1a7 0 __crt_mbstring::__mbrtoc32_utf8(char32_t*, char const*, unsigned int, _Mbstatet*)
FUNC 4b2ba b 0 mbrtoc32(char32_t*, char const*, unsigned int, _Mbstatet*)
FUNC 4b2c7 df 0 InternalGetLocaleInfoA(__crt_locale_pointers* const, wchar_t const* const, const unsigned long, char* const, const int)
FUNC 4b3dd 1b0 0 __acrt_GetLocaleInfoA(__crt_locale_pointers*, int, wchar_t const*, unsigned long, void*)
FUNC 4b5f9 1d 0 fegetenv(fenv_t*)
FUNC 4b61d 4b 0 fesetenv(fenv_t const*)
FUNC 4b67a 4d 0 feholdexcept(fenv_t*)
FUNC 4b6e0 3b 0 _CIlog10()
FUNC 4b71b d5 0 _CIlog10_default()
FUNC 4b840 40 0 ceil()
FUNC 4b880 dd 0 _ceil_pentium4()
FUNC 4b9a4 59 0 __acrt_stdio_allocate_buffer_nolock(_iobuf*)
FUNC 4ba13 a0 0 common_xtox<unsigned long,char>(const unsigned long, char* const, const unsigned int, const unsigned int, const bool)
FUNC 4badb b3 0 common_xtox<unsigned long,wchar_t>(const unsigned long, wchar_t* const, const unsigned int, const unsigned int, const bool)
FUNC 4bbba c7 0 common_xtox<unsigned __int64,char>(const unsigned long long, char* const, const unsigned int, const unsigned int, const bool)
FUNC 4bcb2 dc 0 common_xtox<unsigned __int64,wchar_t>(const unsigned long long, wchar_t* const, const unsigned int, const unsigned int, const bool)
FUNC 4bdc5 70 0 common_xtox_s<unsigned long,char>(const unsigned long, char* const, const unsigned int, const unsigned int, const bool)
FUNC 4be51 72 0 common_xtox_s<unsigned long,wchar_t>(const unsigned long, wchar_t* const, const unsigned int, const unsigned int, const bool)
FUNC 4bedf 73 0 common_xtox_s<unsigned __int64,char>(const unsigned long long, char* const, const unsigned int, const unsigned int, const bool)
FUNC 4bf6e 75 0 common_xtox_s<unsigned __int64,wchar_t>(const unsigned long long, wchar_t* const, const unsigned int, const unsigned int, const bool)
FUNC 4c000 41 0 _i64toa(long long, char*, int)
FUNC 4c051 3f 0 _i64toa_s(long long, char*, unsigned int, int)
FUNC 4c09f 41 0 _i64tow(long long, wchar_t*, int)
FUNC 4c0f0 3f 0 _i64tow_s(long long, wchar_t*, unsigned int, int)
FUNC 4c13e 35 0 _itoa(int, char*, int)
FUNC 4c180 33 0 _itoa_s(int, char*, unsigned int, int)
FUNC 4c1bf 35 0 _itow(int, wchar_t*, int)
FUNC 4c201 33 0 _itow_s(int, wchar_t*, unsigned int, int)
FUNC 4c240 35 0 _ltoa(long, char*, int)
FUNC 4c282 33 0 _ltoa_s(long, char*, unsigned int, int)
FUNC 4c2c1 35 0 _ltow(long, wchar_t*, int)
FUNC 4c303 33 0 _ltow_s(long, wchar_t*, unsigned int, int)
FUNC 4c342 22 0 _ui64toa(unsigned long long, char*, int)
FUNC 4c36c 20 0 _ui64toa_s(unsigned long long, char*, unsigned int, int)
FUNC 4c394 22 0 _ui64tow(unsigned long long, wchar_t*, int)
FUNC 4c3be 20 0 _ui64tow_s(unsigned long long, wchar_t*, unsigned int, int)
FUNC 4c3e6 1f 0 _ultoa(unsigned long, char*, int)
FUNC 4c40c 1d 0 _ultoa_s(unsigned long, char*, unsigned int, int)
FUNC 4c430 1f 0 _ultow(unsigned long, wchar_t*, int)
FUNC 4c456 1d 0 _ultow_s(unsigned long, wchar_t*, unsigned int, int)
FUNC 4c47a 3d 0 __ascii_wcsicmp(wchar_t const*, wchar_t const*)
FUNC 4c4c6 49 0 _wcsicmp(wchar_t const*, wchar_t const*)
FUNC 4c521 b8 0 _wcsicmp_l(wchar_t const*, wchar_t const*, __crt_locale_pointers*)
FUNC 4c607 a2 0 _towlower_l(unsigned short, __crt_locale_pointers*)
FUNC 4c6d1 13 0 towlower(unsigned short)
FUNC 4c6f0 61 0 __ascii_strnicmp(unsigned char*, unsigned char*, unsigned long)
FUNC 4c769 3f 0 _set_error_mode(int)
FUNC 4c7b7 7d 0 common_show_message_box<char>(char const* const, char const* const, const unsigned int)
FUNC 4c853 7e 0 common_show_message_box<wchar_t>(wchar_t const* const, wchar_t const* const, const unsigned int)
FUNC 4c8f0 20 0 __crt_char_traits<char>::message_box<std::nullptr_t,char const * const &,char const * const &,unsigned long>(void*&&, char const* const&, char const* const&, unsigned long&&)
FUNC 4c918 20 0 __crt_char_traits<wchar_t>::message_box<std::nullptr_t,wchar_t const * const &,wchar_t const * const &,unsigned long>(void*&&, wchar_t const* const&, wchar_t const* const&, unsigned long&&)
FUNC 4c940 20 0 __crt_char_traits<char>::message_box<HWND__ *,char const * const &,char const * const &,unsigned int const &>(HWND__*&&, char const* const&, char const* const&, unsigned int const&)
FUNC 4c968 20 0 __crt_char_traits<wchar_t>::message_box<HWND__ *,wchar_t const * const &,wchar_t const * const &,unsigned int const &>(HWND__*&&, wchar_t const* const&, wchar_t const* const&, unsigned int const&)
FUNC 4c990 11 0 __crt_char_traits<char>::output_debug_string<char const * const &>(char const* const&)
FUNC 4c9a5 12 0 __crt_char_traits<wchar_t>::output_debug_string<wchar_t const * const &>(wchar_t const* const&)
FUNC 4c9bb b 0 __acrt_show_narrow_message_box(char const*, char const*, unsigned int)
FUNC 4c9c8 b 0 __acrt_show_wide_message_box(wchar_t const*, wchar_t const*, unsigned int)
FUNC 4c9d5 58 0 console_output_reopen_and_retry<<lambda_61c1b8a38cedca4df5fdc542e6ccae6d> >(__dcrt_write_console::__l2::<lambda_61c1b8a38cedca4df5fdc542e6ccae6d> const&)
FUNC 4ca43 22 0 <lambda_61c1b8a38cedca4df5fdc542e6ccae6d>::<lambda_61c1b8a38cedca4df5fdc542e6ccae6d>(void const* const&, unsigned long const&, unsigned long* const&)
FUNC 4ca6d 17 0 <lambda_61c1b8a38cedca4df5fdc542e6ccae6d>::operator()() const
FUNC 4ca89 1f 0 __dcrt_lowio_initialize_console_output()
FUNC 4caaf 1f 0 __dcrt_lowio_ensure_console_output_initialized()
FUNC 4cad5 17 0 __dcrt_terminate_console_output()
FUNC 4caf1 55 0 __dcrt_write_console(void const*, unsigned long, unsigned long*)
FUNC 4cb5b 8c 0 __crt_seh_guarded_call<int>::operator()<<lambda_218ce3db14220d0be481dae8ef3383b6>,<lambda_628dfdc04ba53c8bfc02c9951375f3f5> &,<lambda_57dc472bd5c9d5f3b2cbca59b8a843ae> >(__acrt_lowio_lock_fh_and_call::__l2::<lambda_218ce3db14220d0be481dae8ef3383b6>&&, _close::__l2::<lambda_628dfdc04ba53c8bfc02c9951375f3f5>&, __acrt_lowio_lock_fh_and_call::__l2::<lambda_57dc472bd5c9d5f3b2cbca59b8a843ae>&&)
FUNC 4cc0a 26 0 __acrt_lowio_lock_fh_and_call<<lambda_628dfdc04ba53c8bfc02c9951375f3f5> >(const int, _close::__l2::<lambda_628dfdc04ba53c8bfc02c9951375f3f5>&&)
FUNC 4cc39 12 0 <lambda_218ce3db14220d0be481dae8ef3383b6>::<lambda_218ce3db14220d0be481dae8ef3383b6>(int const&)
FUNC 4cc4f 12 0 <lambda_57dc472bd5c9d5f3b2cbca59b8a843ae>::<lambda_57dc472bd5c9d5f3b2cbca59b8a843ae>(int const&)
FUNC 4cc65 10 0 <lambda_628dfdc04ba53c8bfc02c9951375f3f5>::<lambda_628dfdc04ba53c8bfc02c9951375f3f5>(int const&)
FUNC 4cc79 9 0 <lambda_218ce3db14220d0be481dae8ef3383b6>::operator()() const
FUNC 4cc84 9 0 <lambda_57dc472bd5c9d5f3b2cbca59b8a843ae>::operator()() const
FUNC 4cc8f 39 0 <lambda_628dfdc04ba53c8bfc02c9951375f3f5>::operator()() const
FUNC 4ccd6 6a 0 close_os_handle_nolock(const int)
FUNC 4cd5a 8d 0 _close(int)
FUNC 4ce0a 9c 0 _close_nolock(int)
FUNC 4cecd 12 0 __crt_internal_free_policy::operator()<__crt_stdio_stream_data>(__crt_stdio_stream_data const* const) const
FUNC 4cee3 10 0 __crt_unique_heap_ptr<__crt_stdio_stream_data,__crt_internal_free_policy>::__crt_unique_heap_ptr<__crt_stdio_stream_data,__crt_internal_free_policy>(__crt_stdio_stream_data* const)
FUNC 4cef7 6 0 __crt_stdio_stream::__crt_stdio_stream()
FUNC 4cefd 12 0 __crt_unique_heap_ptr<__crt_stdio_stream_data,__crt_internal_free_policy>::~__crt_unique_heap_ptr<__crt_stdio_stream_data,__crt_internal_free_policy>()
FUNC 4cf13 69 0 __acrt_stdio_allocate_stream()
FUNC 4cf96 3b 0 __acrt_stdio_free_stream(__crt_stdio_stream)
FUNC 4cfdf a 0 __crt_stdio_stream::deallocate()
FUNC 4cfeb 6 0 __crt_unique_heap_ptr<__crt_stdio_stream_data,__crt_internal_free_policy>::detach()
FUNC 4cff1 c2 0 find_or_allocate_unused_stream_nolock()
FUNC 4d0e3 9 0 __crt_stdio_stream::lock() const
FUNC 4d0ee 12 0 __crt_unique_heap_ptr<__crt_stdio_stream_data,__crt_internal_free_policy>::release()
FUNC 4d104 20 0 __crt_stdio_stream::try_allocate()
FUNC 4d12c 9 0 __crt_stdio_stream::unlock() const
FUNC 4d137 12 0 __acrt_fenv_shift_bits<enum __acrt_fenv_abstract_control>(const __acrt_fenv_abstract_control, const __acrt_fenv_abstract_control, const unsigned int)
FUNC 4d14d 12 0 __acrt_fenv_shift_bits<enum __acrt_fenv_abstract_status>(const __acrt_fenv_abstract_status, const __acrt_fenv_abstract_status, const unsigned int)
FUNC 4d163 18 0 __acrt_fenv_translate_bit<enum __acrt_fenv_abstract_control,enum __acrt_fenv_machine_sse_control>(const __acrt_fenv_machine_sse_control, const __acrt_fenv_machine_sse_control, const __acrt_fenv_abstract_control, const __acrt_fenv_abstract_control)
FUNC 4d181 18 0 __acrt_fenv_translate_bit<enum __acrt_fenv_abstract_control,enum __acrt_fenv_machine_x87_control>(const __acrt_fenv_machine_x87_control, const __acrt_fenv_machine_x87_control, const __acrt_fenv_abstract_control, const __acrt_fenv_abstract_control)
FUNC 4d19f 15 0 __acrt_fenv_translate_bit<enum __acrt_fenv_abstract_status,enum __acrt_fenv_machine_sse_status>(const __acrt_fenv_machine_sse_status, const __acrt_fenv_machine_sse_status, const __acrt_fenv_abstract_status, const __acrt_fenv_abstract_status)
FUNC 4d1b9 15 0 __acrt_fenv_translate_bit<enum __acrt_fenv_abstract_status,enum __acrt_fenv_machine_x87_status>(const __acrt_fenv_machine_x87_status, const __acrt_fenv_machine_x87_status, const __acrt_fenv_abstract_status, const __acrt_fenv_abstract_status)
FUNC 4d1d3 17 0 __acrt_fenv_translate_bit<enum __acrt_fenv_machine_sse_control,enum __acrt_fenv_abstract_control>(const __acrt_fenv_abstract_control, const __acrt_fenv_abstract_control, const __acrt_fenv_machine_sse_control, const __acrt_fenv_machine_sse_control)
FUNC 4d1ef 15 0 __acrt_fenv_translate_bit<enum __acrt_fenv_machine_sse_status,enum __acrt_fenv_abstract_status>(const __acrt_fenv_abstract_status, const __acrt_fenv_abstract_status, const __acrt_fenv_machine_sse_status, const __acrt_fenv_machine_sse_status)
FUNC 4d209 17 0 __acrt_fenv_translate_bit<enum __acrt_fenv_machine_x87_control,enum __acrt_fenv_abstract_control>(const __acrt_fenv_abstract_control, const __acrt_fenv_abstract_control, const __acrt_fenv_machine_x87_control, const __acrt_fenv_machine_x87_control)
FUNC 4d225 15 0 __acrt_fenv_translate_bit<enum __acrt_fenv_machine_x87_status,enum __acrt_fenv_abstract_status>(const __acrt_fenv_abstract_status, const __acrt_fenv_abstract_status, const __acrt_fenv_machine_x87_status, const __acrt_fenv_machine_x87_status)
FUNC 4d23f 12 0 __acrt_fenv_unshift_bits<enum __acrt_fenv_abstract_control>(const __acrt_fenv_abstract_control, const __acrt_fenv_abstract_control, const unsigned int)
FUNC 4d255 12 0 __acrt_fenv_unshift_bits<enum __acrt_fenv_abstract_status>(const __acrt_fenv_abstract_status, const __acrt_fenv_abstract_status, const unsigned int)
FUNC 4d26b 4e 0 to_abstract_status<enum __acrt_fenv_machine_sse_status>(const __acrt_fenv_machine_sse_status)
FUNC 4d2cc 4e 0 to_abstract_status<enum __acrt_fenv_machine_x87_status>(const __acrt_fenv_machine_x87_status)
FUNC 4d32d 51 0 translate_control_exception_mask<enum __acrt_fenv_abstract_control,enum __acrt_fenv_machine_sse_control>(const __acrt_fenv_machine_sse_control)
FUNC 4d392 4e 0 translate_control_exception_mask<enum __acrt_fenv_abstract_control,enum __acrt_fenv_machine_x87_control>(const __acrt_fenv_machine_x87_control)
FUNC 4d3f3 60 0 translate_control_exception_mask<enum __acrt_fenv_machine_sse_control,enum __acrt_fenv_abstract_control>(const __acrt_fenv_abstract_control)
FUNC 4d46b 54 0 translate_control_exception_mask<enum __acrt_fenv_machine_x87_control,enum __acrt_fenv_abstract_control>(const __acrt_fenv_abstract_control)
FUNC 4d4d4 13 0 translate_control_infinity_control<enum __acrt_fenv_abstract_control,enum __acrt_fenv_machine_x87_control>(const __acrt_fenv_machine_x87_control)
FUNC 4d4eb 19 0 translate_control_infinity_control<enum __acrt_fenv_machine_x87_control,enum __acrt_fenv_abstract_control>(const __acrt_fenv_abstract_control)
FUNC 4d50a 28 0 translate_control_precision_control<enum __acrt_fenv_abstract_control,enum __acrt_fenv_machine_x87_control>(const __acrt_fenv_machine_x87_control)
FUNC 4d53c 28 0 translate_control_precision_control<enum __acrt_fenv_machine_x87_control,enum __acrt_fenv_abstract_control>(const __acrt_fenv_abstract_control)
FUNC 4d56e 3c 0 translate_control_rounding_control<enum __acrt_fenv_abstract_control,enum __acrt_fenv_machine_sse_control>(const __acrt_fenv_machine_sse_control)
FUNC 4d5b9 3c 0 translate_control_rounding_control<enum __acrt_fenv_abstract_control,enum __acrt_fenv_machine_x87_control>(const __acrt_fenv_machine_x87_control)
FUNC 4d604 3c 0 translate_control_rounding_control<enum __acrt_fenv_machine_sse_control,enum __acrt_fenv_abstract_control>(const __acrt_fenv_abstract_control)
FUNC 4d64f 3c 0 translate_control_rounding_control<enum __acrt_fenv_machine_x87_control,enum __acrt_fenv_abstract_control>(const __acrt_fenv_abstract_control)
FUNC 4d69a 4e 0 translate_status<enum __acrt_fenv_abstract_status,enum __acrt_fenv_machine_sse_status>(const __acrt_fenv_machine_sse_status)
FUNC 4d6fb 4e 0 translate_status<enum __acrt_fenv_abstract_status,enum __acrt_fenv_machine_x87_status>(const __acrt_fenv_machine_x87_status)
FUNC 4d75c 4e 0 translate_status<enum __acrt_fenv_machine_sse_status,enum __acrt_fenv_abstract_status>(const __acrt_fenv_abstract_status)
FUNC 4d7bd 4e 0 translate_status<enum __acrt_fenv_machine_x87_status,enum __acrt_fenv_abstract_status>(const __acrt_fenv_abstract_status)
FUNC 4d81e d 0 operator&(__acrt_fenv_abstract_control, __acrt_fenv_abstract_control)
FUNC 4d82e d 0 operator&(__acrt_fenv_abstract_status, __acrt_fenv_abstract_status)
FUNC 4d83e d 0 operator&(__acrt_fenv_machine_sse_control, __acrt_fenv_machine_sse_control)
FUNC 4d84e d 0 operator&(__acrt_fenv_machine_sse_status, __acrt_fenv_machine_sse_status)
FUNC 4d85e d 0 operator&(__acrt_fenv_machine_x87_control, __acrt_fenv_machine_x87_control)
FUNC 4d86e d 0 operator&(__acrt_fenv_machine_x87_status, __acrt_fenv_machine_x87_status)
FUNC 4d87e d 0 operator|(__acrt_fenv_abstract_control, __acrt_fenv_abstract_control)
FUNC 4d88e d 0 operator|(__acrt_fenv_abstract_status, __acrt_fenv_abstract_status)
FUNC 4d89e d 0 operator|(__acrt_fenv_machine_sse_control, __acrt_fenv_machine_sse_control)
FUNC 4d8ae d 0 operator|(__acrt_fenv_machine_x87_control, __acrt_fenv_machine_x87_control)
FUNC 4d8be f 0 operator|=(__acrt_fenv_abstract_control&, __acrt_fenv_abstract_control)
FUNC 4d8d0 f 0 operator|=(__acrt_fenv_abstract_status&, __acrt_fenv_abstract_status)
FUNC 4d8e2 11 0 operator|=(__acrt_fenv_machine_sse_control&, __acrt_fenv_machine_sse_control)
FUNC 4d8f7 f 0 operator|=(__acrt_fenv_machine_sse_status&, __acrt_fenv_machine_sse_status)
FUNC 4d909 11 0 operator|=(__acrt_fenv_machine_x87_control&, __acrt_fenv_machine_x87_control)
FUNC 4d91e f 0 operator|=(__acrt_fenv_machine_x87_status&, __acrt_fenv_machine_x87_status)
FUNC 4d930 1d 0 __acrt_fenv_shift_abstract_sse_control(const __acrt_fenv_abstract_control)
FUNC 4d954 10 0 __acrt_fenv_shift_abstract_sse_status(const __acrt_fenv_abstract_status)
FUNC 4d968 1d 0 __acrt_fenv_shift_abstract_x87_control(const __acrt_fenv_abstract_control)
FUNC 4d98c 10 0 __acrt_fenv_shift_abstract_x87_status(const __acrt_fenv_abstract_status)
FUNC 4d9a0 1f 0 __acrt_fenv_unshift_abstract_sse_control(const __acrt_fenv_abstract_control)
FUNC 4d9c6 10 0 __acrt_fenv_unshift_abstract_sse_status(const __acrt_fenv_abstract_status)
FUNC 4d9da 1f 0 __acrt_fenv_unshift_abstract_x87_control(const __acrt_fenv_abstract_control)
FUNC 4da00 10 0 __acrt_fenv_unshift_abstract_x87_status(const __acrt_fenv_abstract_status)
FUNC 4da14 21 0 get_machine_sse_control()
FUNC 4da3d 1f 0 get_machine_sse_status()
FUNC 4da63 24 0 get_machine_x87_control()
FUNC 4da90 18 0 get_machine_x87_status()
FUNC 4daae 2f 0 set_machine_sse_control(const __acrt_fenv_machine_sse_control)
FUNC 4dae8 2a 0 set_machine_sse_status(const __acrt_fenv_machine_sse_status)
FUNC 4db1c 2e 0 set_machine_x87_control(const __acrt_fenv_machine_x87_control)
FUNC 4db55 2c 0 set_machine_x87_status(const __acrt_fenv_machine_x87_status)
FUNC 4db8c bc 0 to_abstract_control(const __acrt_fenv_machine_sse_control)
FUNC 4dc77 b9 0 to_abstract_control(const __acrt_fenv_machine_x87_control)
FUNC 4dd5e cd 0 to_machine_sse_control(const __acrt_fenv_abstract_control)
FUNC 4de5e 50 0 to_machine_sse_status(const __acrt_fenv_abstract_status)
FUNC 4dec2 cb 0 to_machine_x87_control(const __acrt_fenv_abstract_control)
FUNC 4dfbf 50 0 to_machine_x87_status(const __acrt_fenv_abstract_status)
FUNC 4e023 3b 0 translate_control_denormal_control_from_sse(const __acrt_fenv_machine_sse_control)
FUNC 4e06c 38 0 translate_control_denormal_control_to_sse(const __acrt_fenv_abstract_control)
FUNC 4e0b2 36 0 __acrt_fenv_expand_round_control(__acrt_fenv_abstract_control)
FUNC 4e0f5 22 0 __acrt_fenv_get_common_round_control(__acrt_fenv_abstract_control)
FUNC 4e11f 80 0 __acrt_fenv_get_control()
FUNC 4e1bf 1a 0 __acrt_fenv_get_fp_status_word_from_exception_mask(__acrt_fenv_abstract_status)
FUNC 4e1df b8 0 __acrt_fenv_get_status()
FUNC 4e2c5 68 0 __acrt_fenv_set_control(__acrt_fenv_abstract_control)
FUNC 4e347 f7 0 __acrt_fenv_set_status(__acrt_fenv_abstract_status)
FUNC 4e47b aa 0 __abstract_cw_sse2(unsigned int)
FUNC 4e54f 43 0 __abstract_sw_sse2(unsigned int)
FUNC 4e5a2 56 0 __clearfp_sse2(<NoType>)
FUNC 4e60d 318 0 __control87_2(unsigned int, unsigned int, unsigned int*, unsigned int*)
FUNC 4e9eb 180 0 __control87_sse2(unsigned int, unsigned int)
FUNC 4ebcb c 0 __fpreset_sse2(<NoType>)
FUNC 4ebda a7 0 __hw_cw_sse2(unsigned int)
FUNC 4ecaa 41 0 __statusfp_sse2(<NoType>)
FUNC 4ecfb 9f 0 _abstract_cw(unsigned short)
FUNC 4edc1 43 0 _abstract_sw(unsigned short)
FUNC 4ee14 de 0 _clearfp(<NoType>)
FUNC 4ef29 301 0 _control87(unsigned int, unsigned int)
FUNC 4f2ea 1a 0 _controlfp(unsigned int, unsigned int)
FUNC 4f30a 32 0 _fpreset(<NoType>)
FUNC 4f348 9e 0 _hw_cw(unsigned int)
FUNC 4f40d 73 0 _set_controlfp(unsigned int, unsigned int)
FUNC 4f49c 9b 0 _statusfp(<NoType>)
FUNC 4f55d 63 0 _statusfp2(unsigned int*, unsigned int*)
FUNC 4f5d8 10 0 __acrt_initialize_sse2(<NoType>)
FUNC 4f5ec 21 0 _set_SSE2_enable(int)
FUNC 4f620 284 0 _CIlog10_pentium4()
FUNC 4f980 d 0 _fFEXP()
PUBLIC 4f9d7 0 _rtinfpopse
PUBLIC 4f9d9 0 _rtinfnpopse
PUBLIC 4f9e9 0 _fFLN
PUBLIC 4fa9e 0 _rtinfpop
PUBLIC 4faa0 0 _rtinfnpop
FUNC 4fab0 d 0 _rtforexpinf()
PUBLIC 4fabd 0 _ffexpm1
FUNC 4fbf0 75 0 _trandisp1()
FUNC 4fc65 9a 0 _trandisp2()
PUBLIC 4fcff 0 _rttospopde
PUBLIC 4fd04 0 _rttospop
FUNC 4fd10 2 0 _rtnospop()
FUNC 4fd20 1 0 _rttosnpop()
PUBLIC 4fd21 0 _rtnospopde
PUBLIC 4fd28 0 _rtzeropop
PUBLIC 4fd2a 0 _rtzeronpop
FUNC 4fd30 c 0 _rtzerospop()
PUBLIC 4fd3d 0 _rtonepop
FUNC 4fd40 5 0 _rtonenpop()
FUNC 4fd50 1d 0 _tosnan1()
FUNC 4fd80 2 0 _nosnan2()
FUNC 4fd90 28 0 _tosnan2()
FUNC 4fdc0 3f 0 _nan2()
FUNC 4fe00 2 0 _rtindfpop()
PUBLIC 4fe02 0 _rtindfnpop
PUBLIC 4fe13 0 _rttosnpopde
FUNC 4fe20 1d 0 _rtatan2inf()
PUBLIC 4fe3d 0 _rtchsifneg
FUNC 4fed9 15 0 __setfflag(const int)
FUNC 4ff00 15 0 _twoToTOS()
FUNC 4ff15 17 0 _load_CW()
FUNC 4ff2c 19 0 _convertTOStoQNaN()
FUNC 4ff45 43 0 _fload_withFB()
FUNC 4ff88 16 0 _checkTOS_withFB()
FUNC 4ff9e d 0 _fast_exit()
FUNC 4ffab 2a 0 _math_exit()
FUNC 4ffd5 14 0 _check_overflow_exit()
FUNC 4ffe9 a3 0 _check_range_exit()
FUNC 500f0 17 0 _startTwoArgErrorHandling(unsigned long, unsigned long, uint64_t, uint64_t)
FUNC 50107 3c 0 _startOneArgErrorHandling(unsigned long, unsigned long, uint64_t)
FUNC 50157 1f4 0 __libm_error_support(void*, void*, void*, error_types)
FUNC 503c8 27 0 __libm_setusermatherr(int (*)(_exception*))
FUNC 503f8 b5 0 _ceil_default(double)
FUNC 504da 3e 0 __acrt_LCMapStringW(wchar_t const*, unsigned long, wchar_t const*, int, wchar_t*, int)
FUNC 50527 6f 4 __acrt_OutputDebugStringA(char const*)
FUNC 505b1 5f 0 _controlfp_s(unsigned int*, unsigned int, unsigned int)
FUNC 50627 21 0 __clrfp_sse2(<NoType>)
FUNC 50650 3b 0 __ctrlfp_sse2(unsigned int, unsigned int)
FUNC 50699 1d 0 __fclrf_sse2()
FUNC 506bd 1c 0 __get_fpsr_sse2()
FUNC 506e0 80 0 __set_fpsr_sse2(unsigned int)
FUNC 50780 1b 0 __set_statfp_sse2(unsigned int)
FUNC 507a1 15 0 __statfp_sse2(<NoType>)
FUNC 507bb 11 0 _clrfp(<NoType>)
FUNC 507d0 2a 0 _ctrlfp(unsigned int, unsigned int)
FUNC 50804 59 0 _set_statfp(unsigned int)
FUNC 50873 10 0 _statfp(<NoType>)
FUNC 50887 68 0 _d_inttype(double)
FUNC 50909 12b 0 _powhlp(double, double, double*)
FUNC 50a7e 10a 0 _87except(int, _exception*, wchar_t*)
FUNC 50bca 14 0 _frnd(double)
FUNC 50be3 34 0 _errcode(unsigned int)
FUNC 50c24 ce 0 _except1(int, int, double, double, unsigned int)
FUNC 50d25 e2 0 _except2(int, int, double, double, double, unsigned int)
FUNC 50e3f 26 0 _get_fname(unsigned int)
FUNC 50e6e 1eb 0 _handle_exc(unsigned int, double*, unsigned int)
FUNC 510d3 d 0 _handle_qnan2(double, double)
FUNC 510e3 23 0 _raise_exc(_FPIEEE_RECORD*, unsigned int*, int, int, double*, double*)
FUNC 5110e 2f6 0 _raise_exc_ex(_FPIEEE_RECORD*, unsigned int*, int, int, void*, void*, int)
FUNC 514c1 23 0 _raise_excf(_FPIEEE_RECORD*, unsigned int*, int, int, float*, float*)
FUNC 514ec 2f 0 _set_errno_from_matherr(int)
FUNC 51526 a0 0 _umatherr(int, unsigned int, double, double, double, unsigned int)
FUNC 515ee 2f 0 _add_exp(double, int)
FUNC 51628 d2 0 _decomp(double, int*)
FUNC 5172e 18 0 _get_exp(double)
FUNC 5174c 27 0 _set_bexp(double, int)
FUNC 5177c 2d 0 _set_exp(double, int)
FUNC 517b4 5e 0 _sptype(double)
FUNC 51829 1a3 0 _mbstowcs_l_helper(wchar_t*, char const*, unsigned int, __crt_locale_pointers*)
FUNC 51a34 b 0 _mbstowcs_l(wchar_t*, char const*, unsigned int, __crt_locale_pointers*)
FUNC 51a41 e0 0 _mbstowcs_s_l(unsigned int*, wchar_t*, unsigned int, char const*, unsigned int, __crt_locale_pointers*)
FUNC 51b59 2a 0 mbstowcs(wchar_t*, char const*, unsigned int)
FUNC 51b8d 20 0 mbstowcs_s(unsigned int*, wchar_t*, unsigned int, char const*, unsigned int)
FUNC 51bb5 28 0 _chgsign(double)
FUNC 51be7 21 0 _chgsignf(float)
FUNC 51c10 23 0 _copysign(double, double)
FUNC 51c3b 1c 0 _copysignf(float, float)
FUNC 51c5e 1a 0 _finite(double)
FUNC 51c7e a4 0 _fpclass(double)
FUNC 51d4b 36 0 _isnan(double)
FUNC 51d8e cf 0 _logb(double)
FUNC 51e90 1f 0 _nextafter(double, double)
FUNC 51eb6 1a 0 _scalb(double, long)
FUNC 51ed6 1f2 0 ldexp(double, int)
FUNC 52144 1f 0 nextafter(double, double)
FUNC 5216a 159 0 nexttoward(double, double)
FUNC 52319 78 0 fperrraise_with(int, unsigned long)
FUNC 523af 106 0 _d_int(double*, short)
FUNC 524f6 64 0 _dtest(double*)
FUNC 52573 cd 0 _fd_int(float*, short)
FUNC 52673 4e 0 _fdtest(float*)
FUNC 526d4 21 0 _fperrraise(int)
FUNC 526fd b 0 _ld_int(double*, short)
FUNC 5270a b 0 _ldtest(double*)
FUNC 52717 f 0 operator&=(__acrt_fenv_abstract_status&, __acrt_fenv_abstract_status)
FUNC 52729 31 0 fegetexceptflag(unsigned long*, int)
FUNC 52766 c 0 operator~(__acrt_fenv_abstract_status)
FUNC 52775 59 0 fesetexceptflag(unsigned long const*, int)
FUNC 527e4 20 0 fetestexcept(int)
FUNC 52810 43 0 _FindPESection(unsigned char*, unsigned long)
FUNC 52870 ba 0 _IsNonwritableInCurrentImage(void const*)
FUNC 52960 33 0 _ValidateImageBase(unsigned char*)
FUNC 5299f 15 0 _EH_epilog3()
FUNC 529b9 11 0 _EH_epilog3_GS()
FUNC 529ce 11 0 _EH_epilog3_catch_GS()
FUNC 529e3 34 0 _EH_prolog3(unsigned long)
FUNC 52a24 37 0 _EH_prolog3_GS(unsigned long)
FUNC 52a68 37 0 _EH_prolog3_catch(unsigned long)
FUNC 52aac 3a 0 _EH_prolog3_catch_GS(unsigned long)
FUNC 52b00 95 0 _aulldvrm()
FUNC 52bba 7 0 type_info::~type_info()
FUNC 52bc1 23 0 type_info::`scalar deleting destructor'(unsigned int)
FUNC 52bf0 34 0 _allmul()
FUNC 52c40 df 0 _alldvrm()
FUNC 52d60 1f 0 _aullshr()
FUNC 52d90 2c 0 _alloca_probe_16()
FUNC 52dd0 2d 0 _chkstk()
FUNC 52e10 1f 0 _allshl()
FUNC 52e40 9 0 _ftol2_sse()
FUNC 52e49 13 0 _ftol2_pentium4()
FUNC 52e5c 1a 0 _ftol2_sse_excpt()
FUNC 52e80 75 0 _ftol2()
FUNC 52f22 21 0 _initialize_default_precision()
PUBLIC 52f4b 8 InterlockedPushEntrySList
PUBLIC 52f51 4 InterlockedFlushSList
PUBLIC 52f57 10 RtlUnwind
PUBLIC 52f5d 0 GetLastError
PUBLIC 52f63 4 SetLastError
PUBLIC 52f69 4 EnterCriticalSection
PUBLIC 52f6f 4 LeaveCriticalSection
PUBLIC 52f75 4 DeleteCriticalSection
PUBLIC 52f7b 8 InitializeCriticalSectionAndSpinCount
PUBLIC 52f81 0 TlsAlloc
PUBLIC 52f87 4 TlsGetValue
PUBLIC 52f8d 8 TlsSetValue
PUBLIC 52f93 4 TlsFree
PUBLIC 52f99 4 FreeLibrary
PUBLIC 52f9f 8 GetProcAddress
PUBLIC 52fa5 c LoadLibraryExW
PUBLIC 52fab 4 EncodePointer
PUBLIC 52fb1 10 RaiseException
PUBLIC 52fb7 4 ExitProcess
PUBLIC 52fbd c GetModuleHandleExW
PUBLIC 52fc3 c GetModuleFileNameW
PUBLIC 52fc9 0 GetCurrentThread
PUBLIC 52fcf c HeapFree
PUBLIC 52fd5 c HeapAlloc
PUBLIC 52fdb 4 FindClose
PUBLIC 52fe1 18 FindFirstFileExW
PUBLIC 52fe7 8 FindNextFileW
PUBLIC 52fed 4 IsValidCodePage
PUBLIC 52ff3 0 GetACP
PUBLIC 52ff9 0 GetOEMCP
PUBLIC 52fff 8 GetCPInfo
PUBLIC 53005 0 GetCommandLineA
PUBLIC 5300b 0 GetCommandLineW
PUBLIC 53011 18 MultiByteToWideChar
PUBLIC 53017 20 WideCharToMultiByte
PUBLIC 5301d 0 GetEnvironmentStringsW
PUBLIC 53023 4 FreeEnvironmentStringsW
PUBLIC 53029 8 SetEnvironmentVariableW
PUBLIC 5302f 18 GetDateFormatW
PUBLIC 53035 18 GetTimeFormatW
PUBLIC 5303b 18 CompareStringW
PUBLIC 53041 18 LCMapStringW
PUBLIC 53047 10 GetLocaleInfoW
PUBLIC 5304d 8 IsValidLocale
PUBLIC 53053 0 GetUserDefaultLCID
PUBLIC 53059 8 EnumSystemLocalesW
PUBLIC 5305f 0 GetProcessHeap
PUBLIC 53065 4 GetStdHandle
PUBLIC 5306b 4 GetFileType
PUBLIC 53071 8 SetConsoleCtrlHandler
PUBLIC 53077 10 GetStringTypeW
PUBLIC 5307d c HeapSize
PUBLIC 53083 10 HeapReAlloc
PUBLIC 53089 8 SetStdHandle
PUBLIC 5308f 4 FlushFileBuffers
PUBLIC 53095 14 WriteFile
PUBLIC 5309b 0 GetConsoleCP
PUBLIC 530a1 8 GetConsoleMode
PUBLIC 530a7 8 GetFileSizeEx
PUBLIC 530ad 14 SetFilePointerEx
PUBLIC 530b3 14 ReadFile
PUBLIC 530b9 14 ReadConsoleW
PUBLIC 530bf 4 OutputDebugStringW
PUBLIC 530c5 1c CreateFileW
PUBLIC 530cb 4 CloseHandle
PUBLIC 530d1 14 WriteConsoleW
PUBLIC 530d7 4 DecodePointer
FUNC 530e0 12b 0 strchr(unsigned char*, unsigned char)
FUNC 53255 c7 0 wcschr(wchar_t const*, wchar_t)
FUNC 53350 137 0 strrchr(unsigned char*, unsigned char)
FUNC 534d4 25 0 cmpBYTE(void const*, void const*)
FUNC 53502 65 0 cmpDWORD(void const*, void const*)
FUNC 53580 1c 0 cmpResult(int)
FUNC 535a3 4f 0 cmpWORD(void const*, void const*)
FUNC 53605 fa4 0 memcmp(void const*, void const*, unsigned int)
FUNC 54992 de0 0 unaligned_memcmp(unsigned char const*, unsigned char const*, unsigned int)
PUBLIC 55772 0 <unknown in basic-opt32.dll>
STACK WIN 4 6b20 b 0 0 4 0 0 0 1 $T0 .raSearch = $eip $T0 ^ = $esp $T0 4 + =
STACK WIN 4 6b30 1 0 0 8 0 0 0 1 $T0 .raSearch = $eip $T0 ^ = $esp $T0 4 + =
STACK WIN 4 6b40 1 0 0 c 0 0 0 1 $T0 .raSearch = $eip $T0 ^ = $esp $T0 4 + =
STACK WIN 4 6b50 1 0 0 10 0 0 0 1 $T0 .raSearch = $eip $T0 ^ = $esp $T0 4 + =
STACK WIN 4 6b60 41 1 0 28 0 0 0 1 $T0 .raSearch = $eip $T0 ^ = $esp $T0 4 + =
STACK WIN 4 6b61 40 0 0 28 4 0 0 1 $T0 .raSearch = $eip $T0 ^ = $esp $T0 4 + = $esi $T0 4 - ^ =
STACK WIN 4 6bc0 1 0 0 c 0 0 0 1 $T0 .raSearch = $eip $T0 ^ = $esp $T0 4 + =
STACK WIN 4 6bd0 3 0 0 4 0 0 0 1 $T0 .raSearch = $eip $T0 ^ = $esp $T0 4 + =
STACK WIN 4 6be0 3 0 0 4 0 0 0 1 $T0 .raSearch = $eip $T0 ^ = $esp $T0 4 + =
STACK WIN 4 6bf0 3 0 0 4 0 0 0 1 $T0 .raSearch = $eip $T0 ^ = $esp $T0 4 + =
STACK WIN 4 6c00 3 0 0 4 0 0 0 1 $T0 .raSearch = $eip $T0 ^ = $esp $T0 4 + =
STACK WIN 4 6c10 3 0 0 10 0 0 0 1 $T0 .raSearch = $eip $T0 ^ = $esp $T0 4 + =
STACK WIN 4 6c20 3 0 0 10 0 0 0 1 $T0 .raSearch = $eip $T0 ^ = $esp $T0 4 + =
STACK WIN 4 6c30 3 0 0 0 0 0 0 1 $T0 .raSearch = $eip $T0 ^ = $esp $T0 4 + =
STACK WIN 4 6c40 5 0 0 4 0 0 0 1 $T0 .raSearch = $eip $T0 ^ = $esp $T0 4 + =
STACK WIN 4 6c50 1 0 0 0 0 0 0 1 $T0 .raSearch = $eip $T0 ^ = $esp $T0 4 + =
STACK WIN 4 6c60 3 0 0 4 0 0 0 1 $T0 .raSearch = $eip $T0 ^ = $esp $T0 4 + =
STACK WIN 4 6c70 3 0 0 8 0 0 0 1 $T0 .raSearch = $eip $T0 ^ = $esp $T0 4 + =
STACK WIN 4 6c80 3 0 0 8 0 0 0 1 $T0 .raSearch = $eip $T0 ^ = $esp $T0 4 + =
STACK WIN 4 6c90 3 0 0 4 0 0 0 1 $T0 .raSearch = $eip $T0 ^ = $esp $T0 4 + =
STACK WIN 4 6ca0 5 0 0 8 0 0 0 1 $T0 .raSearch = $eip $T0 ^ = $esp $T0 4 + =
STACK WIN 4 6cb0 1 0 0 8 0 0 0 1 $T0 .raSearch = $eip $T0 ^ = $esp $T0 4 + =
STACK WIN 4 6cc0 7 0 0 c 0 0 0 1 $T0 .raSearch = $eip $T0 ^ = $esp $T0 4 + =
STACK WIN 4 93f0 e 3 0 8 0 0 0 1 $T0 $ebp = $eip $T0 4 + ^ = $ebp $T0 ^ = $esp $T0 8 + =
STACK WIN 4 9401 53 3 0 c 0 0 0 1 $T0 $ebp = $eip $T0 4 + ^ = $ebp $T0 ^ = $esp $T0 8 + =
STACK WIN 4 9468 10a c 0 8 10 20 0 1 $T0 $ebp = $eip $T0 4 + ^ = $ebp $T0 ^ = $esp $T0 8 + =  $20 $T0 36 - ^ =  $23 $T0 40 - ^ =  $24 $T0 44 - ^ =
STACK WIN 4 955d c 0 0 8 10 20 0 1 $T0 $ebp = $T2 $esp = $T1 .raSearchStart = $eip $T1 ^ = $ebp $T0 = $esp $T1 4 + =
STACK WIN 4 95b4 92 c 0 4 10 1c 0 1 $T0 $ebp = $eip $T0 4 + ^ = $ebp $T0 ^ = $esp $T0 8 + =  $20 $T0 32 - ^ =  $23 $T0 36 - ^ =  $24 $T0 40 - ^ =
STACK WIN 4 962f e 0 0 4 10 1c 0 1 $T0 $ebp = $T2 $esp = $T1 .raSearchStart = $eip $T1 ^ = $ebp $T0 = $esp $T1 4 + =
STACK WIN 4 966a 106 c 0 c 10 1c 0 1 $T0 $ebp = $eip $T0 4 + ^ = $ebp $T0 ^ = $esp $T0 8 + =  $20 $T0 32 - ^ =  $23 $T0 36 - ^ =  $24 $T0 40 - ^ =
STACK WIN 4 9730 1f 0 0 c 10 1c 0 1 $T0 $ebp = $T2 $esp = $T1 .raSearchStart = $eip $T1 ^ = $ebp $T0 = $esp $T1 4 + =
STACK WIN 4 97b1 2b 4 0 c 0 0 0 1 $T0 $ebp = $eip $T0 4 + ^ = $ebp $T0 ^ = $esp $T0 8 + =
STACK WIN 4 97b5 23 0 0 c 4 0 0 1 $T0 $ebp = $eip $T0 4 + ^ = $ebp $T0 ^ = $esp $T0 8 + =  $23 $T0 4 - ^ =
STACK WIN 4 97e6 9 3 0 c 0 0 0 1 $T0 $ebp = $eip $T0 4 + ^ = $ebp $T0 ^ = $esp $T0 8 + =
STACK WIN 4 97f1 23 3 0 c 0 0 0 1 $T0 $ebp = $eip $T0 4 + ^ = $ebp $T0 ^ = $esp $T0 8 + =
STACK WIN 4 981c 5 0 0 4 0 0 0 1 $T0 $ebp = $eip $T0 4 + ^ = $ebp $T0 ^ = $esp $T0 8 + =
STACK WIN 4 9821 4d 6 0 0 0 14 0 1 $T0 $ebp = $eip $T0 4 + ^ = $ebp $T0 ^ = $esp $T0 8 + =
STACK WIN 4 9881 4b 8 0 0 0 0 0 1 $T0 .raSearch = $eip $T0 ^ = $esp $T0 4 + =
STACK WIN 4 9888 43 1 0 0 4 0 0 1 $T0 .raSearch = $eip $T0 ^ = $esp $T0 4 + =  $23 $T0 4 - ^ =
STACK WIN 4 9889 3b 0 0 0 8 0 0 1 $T0 .raSearch = $eip $T0 ^ = $esp $T0 4 + =  $23 $T0 4 - ^ =  $24 $T0 8 - ^ =
STACK WIN 4 98de 6 0 0 c 0 0 0 1 $T0 .raSearch = $eip $T0 ^ = $esp $T0 4 + =
STACK WIN 4 98e4 c 0 0 0 0 0 0 1 $T0 .raSearch = $eip $T0 ^ = $esp $T0 4 + =
STACK WIN 4 98f3 c 0 0 0 0 0 0 1 $T0 .raSearch = $eip $T0 ^ = $esp $T0 4 + =
STACK WIN 4 9902 6 0 0 0 0 0 0 1 $T0 .raSearch = $eip $T0 ^ = $esp $T0 4 + =
STACK WIN 4 9908 6 0 0 0 0 0 0 1 $T0 .raSearch = $eip $T0 ^ = $esp $T0 4 + =
STACK WIN 4 990e 1d 0 0 0 0 0 0 1 $T0 .raSearch = $eip $T0 ^ = $esp $T0 4 + =
STACK WIN 4 9932 14 3 0 4 0 0 0 1 $T0 $ebp = $eip $T0 4 + ^ = $ebp $T0 ^ = $esp $T0 8 + =
STACK WIN 4 994b 1d 3 0 4 0 0 0 1 $T0 $ebp = $eip $T0 4 + ^ = $ebp $T0 ^ = $esp $T0 8 + =
STACK WIN 4 996f d 3 0 8 0 0 0 1 $T0 $ebp = $eip $T0 4 + ^ = $ebp $T0 ^ = $esp $T0 8 + =
STACK WIN 4 997f d 0 0 0 0 0 0 1 $T0 .raSearch = $eip $T0 ^ = $esp $T0 4 + =
STACK WIN 4 998f 44 7 0 8 0 0 0 1 $T0 $ebp = $eip $T0 4 + ^ = $ebp $T0 ^ = $esp $T0 8 + =
STACK WIN 4 9996 37 0 0 8 4 0 0 1 $T0 $ebp = $eip $T0 4 + ^ = $ebp $T0 ^ = $esp $T0 8 + =  $23 $T0 4 - ^ =
STACK WIN 4 99e4 5 0 0 0 0 0 0 1 $T0 .raSearch = $eip $T0 ^ = $esp $T0 4 + =
STACK WIN 4 99e9 34 3 0 4 0 0 0 1 $T0 $ebp = $eip $T0 4 + ^ = $ebp $T0 ^ = $esp $T0 8 + =
STACK WIN 4 9a2a 7 0 0 0 0 0 0 1 $T0 .raSearch = $eip $T0 ^ = $esp $T0 4 + =
STACK WIN 4 9a31 32 1 0 0 0 0 0 1 $T0 .raSearch = $eip $T0 ^ = $esp $T0 4 + =
STACK WIN 4 9a32 30 0 0 0 4 0 0 1 $T0 .raSearch = $eip $T0 ^ = $esp $T0 4 + =  $23 $T0 4 - ^ =
STACK WIN 4 9a6f 2b 0 0 0 0 0 0 1 $T0 .raSearch = $eip $T0 ^ = $esp $T0 4 + =
STACK WIN 4 9aa4 e 0 0 0 0 0 0 1 $T0 .raSearch = $eip $T0 ^ = $esp $T0 4 + =
STACK WIN 4 9ab5 1f 0 0 0 0 0 0 1 $T0 .raSearch = $eip $T0 ^ = $esp $T0 4 + =
STACK WIN 4 9adb d 0 0 0 0 0 0 1 $T0 .raSearch = $eip $T0 ^ = $esp $T0 4 + =
STACK WIN 4 9aeb 34 3 0 18 0 0 0 1 $T0 $ebp = $eip $T0 4 + ^ = $ebp $T0 ^ = $esp $T0 8 + =
STACK WIN 4 9b2c 23 0 0 0 0 0 0 1 $T0 .raSearch = $eip $T0 ^ = $esp $T0 4 + =
STACK WIN 4 9b57 d 0 0 0 0 0 0 1 $T0 .raSearch = $eip $T0 ^ = $esp $T0 4 + =
STACK WIN 4 9b67 39 3 0 4 0 0 0 1 $T0 $ebp = $eip $T0 4 + ^ = $ebp $T0 ^ = $esp $T0 8 + =
STACK WIN 4 9bae a5 6 0 4 0 c 0 1 $T0 $ebp = $eip $T0 4 + ^ = $ebp $T0 ^ = $esp $T0 8 + =
STACK WIN 4 9bc2 87 0 0 4 4 c 0 1 $T0 $ebp = $eip $T0 4 + ^ = $ebp $T0 ^ = $esp $T0 8 + =  $23 $T0 16 - ^ =
STACK WIN 4 9c06 39 0 0 4 8 c 0 1 $T0 $ebp = $eip $T0 4 + ^ = $ebp $T0 ^ = $esp $T0 8 + =  $23 $T0 16 - ^ =  $24 $T0 20 - ^ =
STACK WIN 4 9c7c 94 c 0 4 10 18 0 1 $T0 $ebp = $eip $T0 4 + ^ = $ebp $T0 ^ = $esp $T0 8 + =  $20 $T0 28 - ^ =  $23 $T0 32 - ^ =  $24 $T0 36 - ^ =
STACK WIN 4 9ce1 13 0 0 4 10 18 0 1 $T0 $ebp = $T2 $esp = $T1 .raSearchStart = $eip $T1 ^ = $ebp $T0 = $esp $T1 4 + =
STACK WIN 4 9d35 1d 3 0 4 0 0 0 1 $T0 $ebp = $eip $T0 4 + ^ = $ebp $T0 ^ = $esp $T0 8 + =
STACK WIN 4 9d59 28 3 0 8 0 0 0 1 $T0 $ebp = $eip $T0 4 + ^ = $ebp $T0 ^ = $esp $T0 8 + =
STACK WIN 4 9d8b 3b 3 0 4 0 0 0 1 $T0 $ebp = $eip $T0 4 + ^ = $ebp $T0 ^ = $esp $T0 8 + =
STACK WIN 4 9dd4 31 3 0 4 0 0 0 1 $T0 $ebp = $eip $T0 4 + ^ = $ebp $T0 ^ = $esp $T0 8 + =
STACK WIN 4 9e11 15 3 0 4 0 0 0 1 $T0 $ebp = $eip $T0 4 + ^ = $ebp $T0 ^ = $esp $T0 8 + =
STACK WIN 4 9e2b 6 0 0 0 0 0 0 1 $T0 .raSearch = $eip $T0 ^ = $esp $T0 4 + =
STACK WIN 4 9e31 11a a 0 4 4 324 0 1 $T0 $ebp = $eip $T0 4 + ^ = $ebp $T0 ^ = $esp $T0 8 + =  $20 $T0 808 - ^ =
STACK WIN 4 9f91 31 6 0 0 0 44 0 1 $T0 $ebp = $eip $T0 4 + ^ = $ebp $T0 ^ = $esp $T0 8 + =
STACK WIN 4 9fce 5 0 0 0 0 0 0 1 $T0 .raSearch = $eip $T0 ^ = $esp $T0 4 + =
STACK WIN 4 9fd3 3 0 0 0 0 0 0 1 $T0 .raSearch = $eip $T0 ^ = $esp $T0 4 + =
STACK WIN 4 9fd6 43 0 0 0 0 0 0 1 $T0 .raSearch = $eip $T0 ^ = $esp $T0 4 + =
STACK WIN 4 a029 c 0 0 0 0 0 0 1 $T0 .raSearch = $eip $T0 ^ = $esp $T0 4 + =
STACK WIN 4 a038 3 0 0 0 0 0 0 1 $T0 .raSearch = $eip $T0 ^ = $esp $T0 4 + =
STACK WIN 4 a03b 41 3 0 4 0 0 0 1 $T0 $ebp = $eip $T0 4 + ^ = $ebp $T0 ^ = $esp $T0 8 + =
STACK WIN 4 a08c 8 0 0 4 0 0 0 1 $T0 .raSearch = $eip $T0 ^ = $esp $T0 4 + =
STACK WIN 4 a096 2c 2 0 0 0 0 0 1 $T0 .raSearch = $eip $T0 ^ = $esp $T0 4 + =
STACK WIN 4 a097 2a 1 0 0 4 0 0 1 $T0 .raSearch = $eip $T0 ^ = $esp $T0 4 + =  $20 $T0 4 - ^ =
STACK WIN 4 a098 28 0 0 0 8 0 0 1 $T0 .raSearch = $eip $T0 ^ = $esp $T0 4 + =  $20 $T0 4 - ^ =  $23 $T0 8 - ^ =
STACK WIN 4 a0a7 18 0 0 0 c 0 0 1 $T0 .raSearch = $eip $T0 ^ = $esp $T0 4 + =  $20 $T0 4 - ^ =  $23 $T0 8 - ^ =  $24 $T0 12 - ^ =
STACK WIN 4 a0cd 2c 2 0 0 0 0 0 1 $T0 .raSearch = $eip $T0 ^ = $esp $T0 4 + =
STACK WIN 4 a0ce 2a 1 0 0 4 0 0 1 $T0 .raSearch = $eip $T0 ^ = $esp $T0 4 + =  $20 $T0 4 - ^ =
STACK WIN 4 a0cf 28 0 0 0 8 0 0 1 $T0 .raSearch = $eip $T0 ^ = $esp $T0 4 + =  $20 $T0 4 - ^ =  $23 $T0 8 - ^ =
STACK WIN 4 a0de 18 0 0 0 c 0 0 1 $T0 .raSearch = $eip $T0 ^ = $esp $T0 4 + =  $20 $T0 4 - ^ =  $23 $T0 8 - ^ =  $24 $T0 12 - ^ =
STACK WIN 4 a181 1 0 0 0 0 0 0 1 $T0 .raSearch = $eip $T0 ^ = $esp $T0 4 + =
STACK WIN 4 a182 a 3 0 4 0 0 0 1 $T0 $ebp = $eip $T0 4 + ^ = $ebp $T0 ^ = $esp $T0 8 + =
STACK WIN 4 a18e a 3 0 4 0 0 0 1 $T0 $ebp = $eip $T0 4 + ^ = $ebp $T0 ^ = $esp $T0 8 + =
STACK WIN 4 a19a 12 0 0 0 0 0 0 1 $T0 .raSearch = $eip $T0 ^ = $esp $T0 4 + =
STACK WIN 4 a1b0 197 e 0 0 0 24 0 1 $T0 $ebp = $eip $T0 4 + ^ = $ebp $T0 ^ = $esp $T0 8 + =
STACK WIN 4 a1be 187 0 0 0 4 24 0 1 $T0 $ebp = $eip $T0 4 + ^ = $ebp $T0 ^ = $esp $T0 8 + =  $20 $T0 40 - ^ =
STACK WIN 4 a1e6 ef 0 0 0 8 24 0 1 $T0 $ebp = $eip $T0 4 + ^ = $ebp $T0 ^ = $esp $T0 8 + =  $20 $T0 40 - ^ =  $23 $T0 44 - ^ =
STACK WIN 4 a1e7 ed 0 0 0 c 24 0 1 $T0 $ebp = $eip $T0 4 + ^ = $ebp $T0 ^ = $esp $T0 8 + =  $20 $T0 40 - ^ =  $23 $T0 44 - ^ =  $24 $T0 48 - ^ =
STACK WIN 4 a3ac 4 0 0 0 0 0 0 1 $T0 .raSearch = $eip $T0 ^ = $esp $T0 4 + =
STACK WIN 4 a3b0 c 0 0 0 0 0 0 1 $T0 .raSearch = $eip $T0 ^ = $esp $T0 4 + =
STACK WIN 4 a3bf 11 0 0 0 0 0 0 1 $T0 .raSearch = $eip $T0 ^ = $esp $T0 4 + =
STACK WIN 4 a3d4 28 3 0 4 0 0 0 1 $T0 $ebp = $eip $T0 4 + ^ = $ebp $T0 ^ = $esp $T0 8 + =
STACK WIN 4 a406 f9 9 0 0 0 324 0 1 $T0 $ebp = $eip $T0 4 + ^ = $ebp $T0 ^ = $esp $T0 8 + =
STACK WIN 4 a53d c 3 0 0 0 0 0 1 $T0 $ebp = $eip $T0 4 + ^ = $ebp $T0 ^ = $esp $T0 8 + =
STACK WIN 4 a54c ce 9 0 4 0 31c 0 1 $T0 $ebp = $eip $T0 4 + ^ = $ebp $T0 ^ = $esp $T0 8 + =
STACK WIN 4 a64d 114 9 0 c 0 320 0 1 $T0 $ebp = $eip $T0 4 + ^ = $ebp $T0 ^ = $esp $T0 8 + =
STACK WIN 4 a800 32 8 0 8 0 0 0 1 $T0 $ebp = $eip $T0 4 + ^ = $ebp $T0 ^ = $esp $T0 8 + =
STACK WIN 4 a804 28 4 0 8 4 0 0 1 $T0 $ebp = $eip $T0 4 + ^ = $ebp $T0 ^ = $esp $T0 8 + =  $23 $T0 4 - ^ =
STACK WIN 4 a808 23 0 0 8 8 0 0 1 $T0 $ebp = $eip $T0 4 + ^ = $ebp $T0 ^ = $esp $T0 8 + =  $23 $T0 4 - ^ =  $24 $T0 8 - ^ =
STACK WIN 4 a840 157 c 0 10 0 1c 0 1 $T0 $ebp = $eip $T0 4 + ^ = $ebp $T0 ^ = $esp $T0 8 + =
STACK WIN 4 a847 c8 5 0 10 4 1c 0 1 $T0 $ebp = $eip $T0 4 + ^ = $ebp $T0 ^ = $esp $T0 8 + =  $20 $T0 32 - ^ =
STACK WIN 4 a84b c3 1 0 10 8 1c 0 1 $T0 $ebp = $eip $T0 4 + ^ = $ebp $T0 ^ = $esp $T0 8 + =  $20 $T0 32 - ^ =  $23 $T0 36 - ^ =
STACK WIN 4 a84c c1 0 0 10 c 1c 0 1 $T0 $ebp = $eip $T0 4 + ^ = $ebp $T0 ^ = $esp $T0 8 + =  $20 $T0 32 - ^ =  $23 $T0 36 - ^ =  $24 $T0 40 - ^ =
STACK WIN 4 a9ec 5 0 0 4 0 0 0 1 $T0 $ebp = $eip $T0 4 + ^ = $ebp $T0 ^ = $esp $T0 8 + =
STACK WIN 4 a9f1 9 3 0 4 0 0 0 1 $T0 $ebp = $eip $T0 4 + ^ = $ebp $T0 ^ = $esp $T0 8 + =
STACK WIN 4 a9fc 10 3 0 4 0 0 0 1 $T0 $ebp = $eip $T0 4 + ^ = $ebp $T0 ^ = $esp $T0 8 + =
STACK WIN 4 aa10 10 3 0 4 0 0 0 1 $T0 $ebp = $eip $T0 4 + ^ = $ebp $T0 ^ = $esp $T0 8 + =
STACK WIN 4 aa24 12 3 0 c 0 0 0 1 $T0 $ebp = $eip $T0 4 + ^ = $ebp $T0 ^ = $esp $T0 8 + =
STACK WIN 4 aa3a a 3 0 4 0 0 0 1 $T0 $ebp = $eip $T0 4 + ^ = $ebp $T0 ^ = $esp $T0 8 + =
STACK WIN 4 aa46 e 3 0 4 0 0 0 1 $T0 $ebp = $eip $T0 4 + ^ = $ebp $T0 ^ = $esp $T0 8 + =
STACK WIN 4 aa57 e 3 0 4 0 0 0 1 $T0 $ebp = $eip $T0 4 + ^ = $ebp $T0 ^ = $esp $T0 8 + =
STACK WIN 4 aa68 10 3 0 0 0 0 0 1 $T0 .raSearch = $eip $T0 ^ = $esp $T0 4 + =
STACK WIN 4 aa69 e 2 0 0 4 0 0 1 $T0 .raSearch = $eip $T0 ^ = $esp $T0 4 + =  $23 $T0 4 - ^ =
STACK WIN 4 aa7c 10 3 0 0 0 0 0 1 $T0 .raSearch = $eip $T0 ^ = $esp $T0 4 + =
STACK WIN 4 aa7d e 2 0 0 4 0 0 1 $T0 .raSearch = $eip $T0 ^ = $esp $T0 4 + =  $23 $T0 4 - ^ =
STACK WIN 4 aa90 6 0 0 0 0 0 0 1 $T0 .raSearch = $eip $T0 ^ = $esp $T0 4 + =
STACK WIN 4 aa96 6 0 0 0 0 0 0 1 $T0 .raSearch = $eip $T0 ^ = $esp $T0 4 + =
STACK WIN 4 aa9c 7 0 0 0 0 0 0 1 $T0 .raSearch = $eip $T0 ^ = $esp $T0 4 + =
STACK WIN 4 aaa3 7 0 0 0 0 0 0 1 $T0 .raSearch = $eip $T0 ^ = $esp $T0 4 + =
STACK WIN 4 aaaa 10 3 0 4 0 0 0 1 $T0 $ebp = $eip $T0 4 + ^ = $ebp $T0 ^ = $esp $T0 8 + =
STACK WIN 4 aabe 10 3 0 4 0 0 0 1 $T0 $ebp = $eip $T0 4 + ^ = $ebp $T0 ^ = $esp $T0 8 + =
STACK WIN 4 aad2 a 3 0 4 0 0 0 1 $T0 $ebp = $eip $T0 4 + ^ = $ebp $T0 ^ = $esp $T0 8 + =
STACK WIN 4 aade 6 0 0 0 0 0 0 1 $T0 .raSearch = $eip $T0 ^ = $esp $T0 4 + =
STACK WIN 4 aae4 3 0 0 0 0 0 0 1 $T0 .raSearch = $eip $T0 ^ = $esp $T0 4 + =
STACK WIN 4 aae7 3 0 0 0 0 0 0 1 $T0 .raSearch = $eip $T0 ^ = $esp $T0 4 + =
STACK WIN 4 aaea 7 0 0 0 0 0 0 1 $T0 .raSearch = $eip $T0 ^ = $esp $T0 4 + =
STACK WIN 4 aaf1 7 0 0 0 0 0 0 1 $T0 .raSearch = $eip $T0 ^ = $esp $T0 4 + =
STACK WIN 4 aaf8 10 3 0 0 0 0 0 1 $T0 .raSearch = $eip $T0 ^ = $esp $T0 4 + =
STACK WIN 4 aaf9 e 2 0 0 4 0 0 1 $T0 .raSearch = $eip $T0 ^ = $esp $T0 4 + =  $23 $T0 4 - ^ =
STACK WIN 4 ab0c 10 3 0 0 0 0 0 1 $T0 .raSearch = $eip $T0 ^ = $esp $T0 4 + =
STACK WIN 4 ab0d e 2 0 0 4 0 0 1 $T0 .raSearch = $eip $T0 ^ = $esp $T0 4 + =  $23 $T0 4 - ^ =
STACK WIN 4 ab20 3c 3 0 8 0 0 0 1 $T0 $ebp = $eip $T0 4 + ^ = $ebp $T0 ^ = $esp $T0 8 + =
STACK WIN 4 ab6b 23 3 0 4 0 0 0 1 $T0 $ebp = $eip $T0 4 + ^ = $ebp $T0 ^ = $esp $T0 8 + =
STACK WIN 4 ab7c 10 0 0 4 4 0 0 1 $T0 $ebp = $eip $T0 4 + ^ = $ebp $T0 ^ = $esp $T0 8 + =  $23 $T0 4 - ^ =
STACK WIN 4 ab96 26 3 0 4 0 0 0 1 $T0 $ebp = $eip $T0 4 + ^ = $ebp $T0 ^ = $esp $T0 8 + =
STACK WIN 4 abc5 c3 9 0 8 0 c 0 1 $T0 $ebp = $eip $T0 4 + ^ = $ebp $T0 ^ = $esp $T0 8 + =
STACK WIN 4 abd9 ad 0 0 8 4 c 0 1 $T0 $ebp = $eip $T0 4 + ^ = $ebp $T0 ^ = $esp $T0 8 + =  $20 $T0 16 - ^ =
STACK WIN 4 abda a9 0 0 8 8 c 0 1 $T0 $ebp = $eip $T0 4 + ^ = $ebp $T0 ^ = $esp $T0 8 + =  $20 $T0 16 - ^ =  $23 $T0 20 - ^ =
STACK WIN 4 ac29 52 0 0 8 c c 0 1 $T0 $ebp = $eip $T0 4 + ^ = $ebp $T0 ^ = $esp $T0 8 + =  $20 $T0 16 - ^ =  $23 $T0 20 - ^ =  $24 $T0 24 - ^ =
STACK WIN 4 acb8 29 0 0 0 0 0 0 1 $T0 .raSearch = $eip $T0 ^ = $esp $T0 4 + =
STACK WIN 4 aceb b 0 0 0 0 0 0 1 $T0 .raSearch = $eip $T0 ^ = $esp $T0 4 + =
STACK WIN 4 acf8 b 0 0 0 0 0 0 1 $T0 .raSearch = $eip $T0 ^ = $esp $T0 4 + =
STACK WIN 4 ad05 1f 3 0 4 0 0 0 1 $T0 $ebp = $eip $T0 4 + ^ = $ebp $T0 ^ = $esp $T0 8 + =
STACK WIN 4 ad2b 8 0 0 0 0 0 0 1 $T0 .raSearch = $eip $T0 ^ = $esp $T0 4 + =
STACK WIN 4 ad35 1 0 0 0 0 0 0 1 $T0 .raSearch = $eip $T0 ^ = $esp $T0 4 + =
STACK WIN 0 ad40 15a 0 0 c 0 0 0 0 0
STACK WIN 0 aef0 90 3 0 c c 0 0 0 0
STACK WIN 0 af80 46 0 0 10 4 0 0 0 0
STACK WIN 0 aff0 17 4 0 0 10 0 0 0 1
STACK WIN 0 b008 19 0 0 0 0 0 0 0 0
STACK WIN 0 b040 17 1 0 8 4 0 0 0 0
STACK WIN 4 b0b0 b 3 0 4 0 0 0 1 $T0 $ebp = $eip $T0 4 + ^ = $ebp $T0 ^ = $esp $T0 8 + =
STACK WIN 4 b0bd 30 3 0 4 0 0 0 1 $T0 $ebp = $eip $T0 4 + ^ = $ebp $T0 ^ = $esp $T0 8 + =
STACK WIN 4 b0f9 2d 3 0 4 0 0 0 1 $T0 $ebp = $eip $T0 4 + ^ = $ebp $T0 ^ = $esp $T0 8 + =
STACK WIN 4 b131 39 3 0 8 0 0 0 1 $T0 $ebp = $eip $T0 4 + ^ = $ebp $T0 ^ = $esp $T0 8 + =
STACK WIN 4 b144 24 0 0 8 4 0 0 1 $T0 $ebp = $eip $T0 4 + ^ = $ebp $T0 ^ = $esp $T0 8 + =  $23 $T0 4 - ^ =
STACK WIN 4 b178 6 0 0 0 0 0 0 1 $T0 .raSearch = $eip $T0 ^ = $esp $T0 4 + =
STACK WIN 4 b17e b2 7 0 8 0 0 0 1 $T0 $ebp = $eip $T0 4 + ^ = $ebp $T0 ^ = $esp $T0 8 + =
STACK WIN 4 b182 aa 3 0 8 4 0 0 1 $T0 $ebp = $eip $T0 4 + ^ = $ebp $T0 ^ = $esp $T0 8 + =  $20 $T0 4 - ^ =
STACK WIN 4 b183 a8 2 0 8 8 0 0 1 $T0 $ebp = $eip $T0 4 + ^ = $ebp $T0 ^ = $esp $T0 8 + =  $20 $T0 4 - ^ =  $23 $T0 8 - ^ =
STACK WIN 4 b186 a2 0 0 8 c 0 0 1 $T0 $ebp = $eip $T0 4 + ^ = $ebp $T0 ^ = $esp $T0 8 + =  $20 $T0 4 - ^ =  $23 $T0 8 - ^ =  $24 $T0 12 - ^ =
STACK WIN 4 b25c 16 3 0 4 0 0 0 1 $T0 $ebp = $eip $T0 4 + ^ = $ebp $T0 ^ = $esp $T0 8 + =
STACK WIN 4 b277 25 6 0 4 0 0 0 1 $T0 $ebp = $eip $T0 4 + ^ = $ebp $T0 ^ = $esp $T0 8 + =
STACK WIN 4 b27b 1d 2 0 4 4 0 0 1 $T0 $ebp = $eip $T0 4 + ^ = $ebp $T0 ^ = $esp $T0 8 + =  $23 $T0 4 - ^ =
STACK WIN 4 b2a5 48 7 0 4 0 0 0 1 $T0 $ebp = $eip $T0 4 + ^ = $ebp $T0 ^ = $esp $T0 8 + =
STACK WIN 4 b2a9 40 3 0 4 4 0 0 1 $T0 $ebp = $eip $T0 4 + ^ = $ebp $T0 ^ = $esp $T0 8 + =  $20 $T0 4 - ^ =
STACK WIN 4 b2aa 3e 2 0 4 8 0 0 1 $T0 $ebp = $eip $T0 4 + ^ = $ebp $T0 ^ = $esp $T0 8 + =  $20 $T0 4 - ^ =  $23 $T0 8 - ^ =
STACK WIN 4 b2ff 33 6 0 4 0 0 0 1 $T0 $ebp = $eip $T0 4 + ^ = $ebp $T0 ^ = $esp $T0 8 + =
STACK WIN 4 b303 2b 2 0 4 4 0 0 1 $T0 $ebp = $eip $T0 4 + ^ = $ebp $T0 ^ = $esp $T0 8 + =  $23 $T0 4 - ^ =
STACK WIN 4 b33e 40 9 0 4 0 0 0 1 $T0 $ebp = $eip $T0 4 + ^ = $ebp $T0 ^ = $esp $T0 8 + =
STACK WIN 4 b345 35 2 0 4 4 0 0 1 $T0 $ebp = $eip $T0 4 + ^ = $ebp $T0 ^ = $esp $T0 8 + =  $23 $T0 4 - ^ =
STACK WIN 4 b38e a 0 0 0 0 0 0 1 $T0 .raSearch = $eip $T0 ^ = $esp $T0 4 + =
STACK WIN 4 b39a 8c 1a 0 8 0 2c 0 1 $T0 $ebp = $eip $T0 4 + ^ = $ebp $T0 ^ = $esp $T0 8 + =
STACK WIN 4 b3c0 5d 0 0 8 4 2c 0 1 $T0 $ebp = $eip $T0 4 + ^ = $ebp $T0 ^ = $esp $T0 8 + =  $23 $T0 48 - ^ =
STACK WIN 4 b3c4 58 0 0 8 8 2c 0 1 $T0 $ebp = $eip $T0 4 + ^ = $ebp $T0 ^ = $esp $T0 8 + =  $23 $T0 48 - ^ =  $24 $T0 52 - ^ =
STACK WIN 4 b3dc 1f 0 0 8 c 2c 0 1 $T0 $ebp = $eip $T0 4 + ^ = $ebp $T0 ^ = $esp $T0 8 + =  $23 $T0 48 - ^ =  $24 $T0 52 - ^ =  $20 $T0 56 - ^ =
STACK WIN 4 b449 66 1a 0 8 0 24 0 1 $T0 $ebp = $eip $T0 4 + ^ = $ebp $T0 ^ = $esp $T0 8 + =
STACK WIN 4 b45d 49 6 0 8 4 24 0 1 $T0 $ebp = $eip $T0 4 + ^ = $ebp $T0 ^ = $esp $T0 8 + =  $20 $T0 40 - ^ =
STACK WIN 4 b461 42 2 0 8 8 24 0 1 $T0 $ebp = $eip $T0 4 + ^ = $ebp $T0 ^ = $esp $T0 8 + =  $20 $T0 40 - ^ =  $23 $T0 44 - ^ =
STACK WIN 4 b468 3a 0 0 8 c 24 0 1 $T0 $ebp = $eip $T0 4 + ^ = $ebp $T0 ^ = $esp $T0 8 + =  $20 $T0 40 - ^ =  $23 $T0 44 - ^ =  $24 $T0 48 - ^ =
STACK WIN 4 b4c8 9 0 0 0 0 0 0 1 $T0 .raSearch = $eip $T0 ^ = $esp $T0 4 + =
STACK WIN 4 b4d3 6 0 0 0 0 0 0 1 $T0 .raSearch = $eip $T0 ^ = $esp $T0 4 + =
STACK WIN 4 b4d9 9 0 0 0 0 0 0 1 $T0 .raSearch = $eip $T0 ^ = $esp $T0 4 + =
STACK WIN 4 b4e4 4c 3 0 c 0 0 0 1 $T0 $ebp = $eip $T0 4 + ^ = $ebp $T0 ^ = $esp $T0 8 + =
STACK WIN 4 b543 15 3 0 4 0 0 0 1 $T0 $ebp = $eip $T0 4 + ^ = $ebp $T0 ^ = $esp $T0 8 + =
STACK WIN 4 b55d 28 3 0 4 0 0 0 1 $T0 $ebp = $eip $T0 4 + ^ = $ebp $T0 ^ = $esp $T0 8 + =
STACK WIN 4 b58f 1f 3 0 8 0 0 0 1 $T0 $ebp = $eip $T0 4 + ^ = $ebp $T0 ^ = $esp $T0 8 + =
STACK WIN 4 b5b5 59 7 0 8 0 0 0 1 $T0 $ebp = $eip $T0 4 + ^ = $ebp $T0 ^ = $esp $T0 8 + =
STACK WIN 4 b5b9 51 3 0 8 4 0 0 1 $T0 $ebp = $eip $T0 4 + ^ = $ebp $T0 ^ = $esp $T0 8 + =  $20 $T0 4 - ^ =
STACK WIN 4 b5ba 4f 2 0 8 8 0 0 1 $T0 $ebp = $eip $T0 4 + ^ = $ebp $T0 ^ = $esp $T0 8 + =  $20 $T0 4 - ^ =  $23 $T0 8 - ^ =
STACK WIN 4 b5bd 49 0 0 8 c 0 0 1 $T0 $ebp = $eip $T0 4 + ^ = $ebp $T0 ^ = $esp $T0 8 + =  $20 $T0 4 - ^ =  $23 $T0 8 - ^ =  $24 $T0 12 - ^ =
STACK WIN 4 b624 7 0 0 0 0 0 0 1 $T0 .raSearch = $eip $T0 ^ = $esp $T0 4 + =
STACK WIN 4 b62b 15 3 0 c 0 0 0 1 $T0 $ebp = $eip $T0 4 + ^ = $ebp $T0 ^ = $esp $T0 8 + =
STACK WIN 4 b645 16 3 0 4 0 0 0 1 $T0 $ebp = $eip $T0 4 + ^ = $ebp $T0 ^ = $esp $T0 8 + =
STACK WIN 4 b660 25 6 0 4 0 0 0 1 $T0 $ebp = $eip $T0 4 + ^ = $ebp $T0 ^ = $esp $T0 8 + =
STACK WIN 4 b664 1d 2 0 4 4 0 0 1 $T0 $ebp = $eip $T0 4 + ^ = $ebp $T0 ^ = $esp $T0 8 + =  $23 $T0 4 - ^ =
STACK WIN 4 b68e 42 6 0 4 0 0 0 1 $T0 $ebp = $eip $T0 4 + ^ = $ebp $T0 ^ = $esp $T0 8 + =
STACK WIN 4 b692 3a 2 0 4 4 0 0 1 $T0 $ebp = $eip $T0 4 + ^ = $ebp $T0 ^ = $esp $T0 8 + =  $23 $T0 4 - ^ =
STACK WIN 4 b695 34 0 0 4 8 0 0 1 $T0 $ebp = $eip $T0 4 + ^ = $ebp $T0 ^ = $esp $T0 8 + =  $23 $T0 4 - ^ =  $24 $T0 8 - ^ =
STACK WIN 4 b6e0 2b 6 0 4 0 0 0 1 $T0 $ebp = $eip $T0 4 + ^ = $ebp $T0 ^ = $esp $T0 8 + =
STACK WIN 4 b6e4 23 2 0 4 4 0 0 1 $T0 $ebp = $eip $T0 4 + ^ = $ebp $T0 ^ = $esp $T0 8 + =  $23 $T0 4 - ^ =
STACK WIN 4 b715 32 9 0 4 0 0 0 1 $T0 $ebp = $eip $T0 4 + ^ = $ebp $T0 ^ = $esp $T0 8 + =
STACK WIN 4 b71c 27 2 0 4 4 0 0 1 $T0 $ebp = $eip $T0 4 + ^ = $ebp $T0 ^ = $esp $T0 8 + =  $23 $T0 4 - ^ =
STACK WIN 4 b753 46 3 0 8 0 0 0 1 $T0 $ebp = $eip $T0 4 + ^ = $ebp $T0 ^ = $esp $T0 8 + =
STACK WIN 4 b7aa 22 5 0 c 0 8 0 1 $T0 $ebp = $eip $T0 4 + ^ = $ebp $T0 ^ = $esp $T0 8 + =
STACK WIN 4 b7d4 22 5 0 c 0 8 0 1 $T0 $ebp = $eip $T0 4 + ^ = $ebp $T0 ^ = $esp $T0 8 + =
STACK WIN 4 b7fe 22 5 0 c 0 8 0 1 $T0 $ebp = $eip $T0 4 + ^ = $ebp $T0 ^ = $esp $T0 8 + =
STACK WIN 4 b828 22 6 0 8 0 0 0 1 $T0 $ebp = $eip $T0 4 + ^ = $ebp $T0 ^ = $esp $T0 8 + =
STACK WIN 4 b82e 18 0 0 8 4 0 0 1 $T0 $ebp = $eip $T0 4 + ^ = $ebp $T0 ^ = $esp $T0 8 + =  $23 $T0 4 - ^ =
STACK WIN 4 b852 22 6 0 8 0 0 0 1 $T0 $ebp = $eip $T0 4 + ^ = $ebp $T0 ^ = $esp $T0 8 + =
STACK WIN 4 b858 18 0 0 8 4 0 0 1 $T0 $ebp = $eip $T0 4 + ^ = $ebp $T0 ^ = $esp $T0 8 + =  $23 $T0 4 - ^ =
STACK WIN 4 b87c 22 6 0 8 0 0 0 1 $T0 $ebp = $eip $T0 4 + ^ = $ebp $T0 ^ = $esp $T0 8 + =
STACK WIN 4 b882 18 0 0 8 4 0 0 1 $T0 $ebp = $eip $T0 4 + ^ = $ebp $T0 ^ = $esp $T0 8 + =  $23 $T0 4 - ^ =
STACK WIN 4 b8a6 22 6 0 8 0 0 0 1 $T0 $ebp = $eip $T0 4 + ^ = $ebp $T0 ^ = $esp $T0 8 + =
STACK WIN 4 b8ac 18 0 0 8 4 0 0 1 $T0 $ebp = $eip $T0 4 + ^ = $ebp $T0 ^ = $esp $T0 8 + =  $23 $T0 4 - ^ =
STACK WIN 4 b8d0 22 6 0 8 0 0 0 1 $T0 $ebp = $eip $T0 4 + ^ = $ebp $T0 ^ = $esp $T0 8 + =
STACK WIN 4 b8d6 18 0 0 8 4 0 0 1 $T0 $ebp = $eip $T0 4 + ^ = $ebp $T0 ^ = $esp $T0 8 + =  $23 $T0 4 - ^ =
STACK WIN 4 b8fa 41 6 0 4 0 0 0 1 $T0 $ebp = $eip $T0 4 + ^ = $ebp $T0 ^ = $esp $T0 8 + =
STACK WIN 4 b8fe 39 2 0 4 4 0 0 1 $T0 $ebp = $eip $T0 4 + ^ = $ebp $T0 ^ = $esp $T0 8 + =  $23 $T0 4 - ^ =
STACK WIN 4 b94b 50 6 0 4 0 0 0 1 $T0 $ebp = $eip $T0 4 + ^ = $ebp $T0 ^ = $esp $T0 8 + =
STACK WIN 4 b94f 48 2 0 4 4 0 0 1 $T0 $ebp = $eip $T0 4 + ^ = $ebp $T0 ^ = $esp $T0 8 + =  $23 $T0 4 - ^ =
STACK WIN 4 b958 3c 0 0 4 8 0 0 1 $T0 $ebp = $eip $T0 4 + ^ = $ebp $T0 ^ = $esp $T0 8 + =  $23 $T0 4 - ^ =  $20 $T0 8 - ^ =
STACK WIN 4 b9af 65 6 0 4 0 0 0 1 $T0 $ebp = $eip $T0 4 + ^ = $ebp $T0 ^ = $esp $T0 8 + =
STACK WIN 4 b9b3 5d 2 0 4 4 0 0 1 $T0 $ebp = $eip $T0 4 + ^ = $ebp $T0 ^ = $esp $T0 8 + =  $23 $T0 4 - ^ =
STACK WIN 4 b9bc 51 0 0 4 8 0 0 1 $T0 $ebp = $eip $T0 4 + ^ = $ebp $T0 ^ = $esp $T0 8 + =  $23 $T0 4 - ^ =  $24 $T0 8 - ^ =
STACK WIN 4 b9c4 48 0 0 4 c 0 0 1 $T0 $ebp = $eip $T0 4 + ^ = $ebp $T0 ^ = $esp $T0 8 + =  $23 $T0 4 - ^ =  $24 $T0 8 - ^ =  $20 $T0 12 - ^ =
STACK WIN 4 ba2d 61 6 0 4 0 0 0 1 $T0 $ebp = $eip $T0 4 + ^ = $ebp $T0 ^ = $esp $T0 8 + =
STACK WIN 4 ba31 59 2 0 4 4 0 0 1 $T0 $ebp = $eip $T0 4 + ^ = $ebp $T0 ^ = $esp $T0 8 + =  $20 $T0 4 - ^ =
STACK WIN 4 ba3a 4d 0 0 4 8 0 0 1 $T0 $ebp = $eip $T0 4 + ^ = $ebp $T0 ^ = $esp $T0 8 + =  $20 $T0 4 - ^ =  $24 $T0 8 - ^ =
STACK WIN 4 ba47 3f 0 0 4 c 0 0 1 $T0 $ebp = $eip $T0 4 + ^ = $ebp $T0 ^ = $esp $T0 8 + =  $20 $T0 4 - ^ =  $24 $T0 8 - ^ =  $23 $T0 12 - ^ =
STACK WIN 4 baa6 40 6 0 4 0 0 0 1 $T0 $ebp = $eip $T0 4 + ^ = $ebp $T0 ^ = $esp $T0 8 + =
STACK WIN 4 baaa 38 2 0 4 4 0 0 1 $T0 $ebp = $eip $T0 4 + ^ = $ebp $T0 ^ = $esp $T0 8 + =  $23 $T0 4 - ^ =
STACK WIN 4 baf6 4a 6 0 4 0 0 0 1 $T0 $ebp = $eip $T0 4 + ^ = $ebp $T0 ^ = $esp $T0 8 + =
STACK WIN 4 bafa 42 2 0 4 4 0 0 1 $T0 $ebp = $eip $T0 4 + ^ = $ebp $T0 ^ = $esp $T0 8 + =  $23 $T0 4 - ^ =
STACK WIN 4 bb02 37 0 0 4 8 0 0 1 $T0 $ebp = $eip $T0 4 + ^ = $ebp $T0 ^ = $esp $T0 8 + =  $23 $T0 4 - ^ =  $24 $T0 8 - ^ =
STACK WIN 4 bb52 1c 3 0 4 0 0 0 1 $T0 $ebp = $eip $T0 4 + ^ = $ebp $T0 ^ = $esp $T0 8 + =
STACK WIN 4 bb75 1d 3 0 8 0 0 0 1 $T0 $ebp = $eip $T0 4 + ^ = $ebp $T0 ^ = $esp $T0 8 + =
STACK WIN 4 bb99 38 3 0 0 0 0 0 1 $T0 .raSearch = $eip $T0 ^ = $esp $T0 4 + =
STACK WIN 4 bb9a 36 2 0 0 4 0 0 1 $T0 .raSearch = $eip $T0 ^ = $esp $T0 4 + =  $24 $T0 4 - ^ =
STACK WIN 4 bbad 22 0 0 0 8 0 0 1 $T0 .raSearch = $eip $T0 ^ = $esp $T0 4 + =  $24 $T0 4 - ^ =  $23 $T0 8 - ^ =
STACK WIN 4 bbdf 1f 3 0 4 0 0 0 1 $T0 $ebp = $eip $T0 4 + ^ = $ebp $T0 ^ = $esp $T0 8 + =
STACK WIN 4 bc05 46 a 0 4 0 0 0 1 $T0 $ebp = $eip $T0 4 + ^ = $ebp $T0 ^ = $esp $T0 8 + =
STACK WIN 4 bc09 3e 6 0 4 4 0 0 1 $T0 $ebp = $eip $T0 4 + ^ = $ebp $T0 ^ = $esp $T0 8 + =  $23 $T0 4 - ^ =
STACK WIN 4 bc0a 3c 5 0 4 8 0 0 1 $T0 $ebp = $eip $T0 4 + ^ = $ebp $T0 ^ = $esp $T0 8 + =  $23 $T0 4 - ^ =  $24 $T0 8 - ^ =
STACK WIN 4 bc5c cdd 17 0 8 0 90 0 1 $T0 $ebp = $eip $T0 4 + ^ = $ebp $T0 ^ = $esp $T0 8 + =
STACK WIN 4 bc71 cc6 2 0 8 4 90 0 1 $T0 $ebp = $eip $T0 4 + ^ = $ebp $T0 ^ = $esp $T0 8 + =  $20 $T0 148 - ^ =
STACK WIN 4 bc72 cc4 1 0 8 8 90 0 1 $T0 $ebp = $eip $T0 4 + ^ = $ebp $T0 ^ = $esp $T0 8 + =  $20 $T0 148 - ^ =  $23 $T0 152 - ^ =
STACK WIN 4 bc73 cc2 0 0 8 c 90 0 1 $T0 $ebp = $eip $T0 4 + ^ = $ebp $T0 ^ = $esp $T0 8 + =  $20 $T0 148 - ^ =  $23 $T0 152 - ^ =  $24 $T0 156 - ^ =
STACK WIN 4 cc70 e 0 0 0 0 0 0 1 $T0 .raSearch = $eip $T0 ^ = $esp $T0 4 + =
STACK WIN 4 cc81 e 0 0 0 0 0 0 1 $T0 .raSearch = $eip $T0 ^ = $esp $T0 4 + =
STACK WIN 4 cc92 e 0 0 0 0 0 0 1 $T0 .raSearch = $eip $T0 ^ = $esp $T0 4 + =
STACK WIN 4 cca3 e 0 0 0 0 0 0 1 $T0 .raSearch = $eip $T0 ^ = $esp $T0 4 + =
STACK WIN 4 ccb4 e 0 0 0 0 0 0 1 $T0 .raSearch = $eip $T0 ^ = $esp $T0 4 + =
STACK WIN 4 ccc5 e 0 0 0 0 0 0 1 $T0 .raSearch = $eip $T0 ^ = $esp $T0 4 + =
STACK WIN 4 ccd6 d 0 0 0 0 0 0 1 $T0 .raSearch = $eip $T0 ^ = $esp $T0 4 + =
STACK WIN 4 cce6 e 0 0 0 0 0 0 1 $T0 .raSearch = $eip $T0 ^ = $esp $T0 4 + =
STACK WIN 4 ccf7 b 0 0 0 0 0 0 1 $T0 .raSearch = $eip $T0 ^ = $esp $T0 4 + =
STACK WIN 4 cd04 b 0 0 0 0 0 0 1 $T0 .raSearch = $eip $T0 ^ = $esp $T0 4 + =
STACK WIN 4 cd11 86 6 0 8 0 0 0 1 $T0 $ebp = $eip $T0 4 + ^ = $ebp $T0 ^ = $esp $T0 8 + =
STACK WIN 4 cd15 7e 2 0 8 4 0 0 1 $T0 $ebp = $eip $T0 4 + ^ = $ebp $T0 ^ = $esp $T0 8 + =  $23 $T0 4 - ^ =
STACK WIN 4 cd18 7a 0 0 8 8 0 0 1 $T0 $ebp = $eip $T0 4 + ^ = $ebp $T0 ^ = $esp $T0 8 + =  $23 $T0 4 - ^ =  $24 $T0 8 - ^ =
STACK WIN 4 cd2a 67 0 0 8 c 0 0 1 $T0 $ebp = $eip $T0 4 + ^ = $ebp $T0 ^ = $esp $T0 8 + =  $23 $T0 4 - ^ =  $24 $T0 8 - ^ =  $20 $T0 12 - ^ =
STACK WIN 4 cdb8 e 0 0 0 0 0 0 1 $T0 .raSearch = $eip $T0 ^ = $esp $T0 4 + =
STACK WIN 4 cdc9 e 0 0 0 0 0 0 1 $T0 .raSearch = $eip $T0 ^ = $esp $T0 4 + =
STACK WIN 4 cdda 12 0 0 0 0 0 0 1 $T0 .raSearch = $eip $T0 ^ = $esp $T0 4 + =
STACK WIN 4 cdf0 e 0 0 0 0 0 0 1 $T0 .raSearch = $eip $T0 ^ = $esp $T0 4 + =
STACK WIN 4 ce01 b 0 0 0 0 0 0 1 $T0 .raSearch = $eip $T0 ^ = $esp $T0 4 + =
STACK WIN 4 ce0e b 0 0 0 0 0 0 1 $T0 .raSearch = $eip $T0 ^ = $esp $T0 4 + =
STACK WIN 4 ce1b f6 f 0 4 0 18 0 1 $T0 $ebp = $eip $T0 4 + ^ = $ebp $T0 ^ = $esp $T0 8 + =
STACK WIN 4 ce22 ed 8 0 4 4 18 0 1 $T0 $ebp = $eip $T0 4 + ^ = $ebp $T0 ^ = $esp $T0 8 + =  $20 $T0 28 - ^ =
STACK WIN 4 ce23 eb 7 0 4 8 18 0 1 $T0 $ebp = $eip $T0 4 + ^ = $ebp $T0 ^ = $esp $T0 8 + =  $20 $T0 28 - ^ =  $23 $T0 32 - ^ =
STACK WIN 4 ce2a e1 0 0 4 c 18 0 1 $T0 $ebp = $eip $T0 4 + ^ = $ebp $T0 ^ = $esp $T0 8 + =  $20 $T0 28 - ^ =  $23 $T0 32 - ^ =  $24 $T0 36 - ^ =
STACK WIN 4 cf4e ca 5 0 4 0 8 0 1 $T0 $ebp = $eip $T0 4 + ^ = $ebp $T0 ^ = $esp $T0 8 + =
STACK WIN 4 d04a 1b1 10 0 8 0 30 0 1 $T0 $ebp = $eip $T0 4 + ^ = $ebp $T0 ^ = $esp $T0 8 + =
STACK WIN 4 d059 1a0 1 0 8 4 30 0 1 $T0 $ebp = $eip $T0 4 + ^ = $ebp $T0 ^ = $esp $T0 8 + =  $23 $T0 52 - ^ =
STACK WIN 4 d05a 19e 0 0 8 8 30 0 1 $T0 $ebp = $eip $T0 4 + ^ = $ebp $T0 ^ = $esp $T0 8 + =  $23 $T0 52 - ^ =  $24 $T0 56 - ^ =
STACK WIN 4 d09e e7 0 0 8 c 30 0 1 $T0 $ebp = $eip $T0 4 + ^ = $ebp $T0 ^ = $esp $T0 8 + =  $23 $T0 52 - ^ =  $24 $T0 56 - ^ =  $20 $T0 60 - ^ =
STACK WIN 4 d267 98 6 0 4 0 10 0 1 $T0 $ebp = $eip $T0 4 + ^ = $ebp $T0 ^ = $esp $T0 8 + =
STACK WIN 4 d325 3df f 0 8 0 1c 0 1 $T0 $ebp = $eip $T0 4 + ^ = $ebp $T0 ^ = $esp $T0 8 + =
STACK WIN 4 d333 3a9 1 0 8 4 1c 0 1 $T0 $ebp = $eip $T0 4 + ^ = $ebp $T0 ^ = $esp $T0 8 + =  $20 $T0 32 - ^ =
STACK WIN 4 d334 3a7 0 0 8 8 1c 0 1 $T0 $ebp = $eip $T0 4 + ^ = $ebp $T0 ^ = $esp $T0 8 + =  $20 $T0 32 - ^ =  $23 $T0 36 - ^ =
STACK WIN 4 d7fb df c 0 8 0 c 0 1 $T0 $ebp = $eip $T0 4 + ^ = $ebp $T0 ^ = $esp $T0 8 + =
STACK WIN 4 d802 79 5 0 8 4 c 0 1 $T0 $ebp = $eip $T0 4 + ^ = $ebp $T0 ^ = $esp $T0 8 + =  $20 $T0 16 - ^ =
STACK WIN 4 d803 77 4 0 8 8 c 0 1 $T0 $ebp = $eip $T0 4 + ^ = $ebp $T0 ^ = $esp $T0 8 + =  $20 $T0 16 - ^ =  $23 $T0 20 - ^ =
STACK WIN 4 d807 72 0 0 8 c c 0 1 $T0 $ebp = $eip $T0 4 + ^ = $ebp $T0 ^ = $esp $T0 8 + =  $20 $T0 16 - ^ =  $23 $T0 20 - ^ =  $24 $T0 24 - ^ =
STACK WIN 4 d911 14 3 0 4 0 0 0 1 $T0 $ebp = $eip $T0 4 + ^ = $ebp $T0 ^ = $esp $T0 8 + =
STACK WIN 4 d92a d3 5 0 4 0 8 0 1 $T0 $ebp = $eip $T0 4 + ^ = $ebp $T0 ^ = $esp $T0 8 + =
STACK WIN 4 da31 5ea e 0 14 0 4c 0 1 $T0 $ebp = $eip $T0 4 + ^ = $ebp $T0 ^ = $esp $T0 8 + =
STACK WIN 4 da3d 5dc 2 0 14 4 4c 0 1 $T0 $ebp = $eip $T0 4 + ^ = $ebp $T0 ^ = $esp $T0 8 + =  $20 $T0 80 - ^ =
STACK WIN 4 da3e 5da 1 0 14 8 4c 0 1 $T0 $ebp = $eip $T0 4 + ^ = $ebp $T0 ^ = $esp $T0 8 + =  $20 $T0 80 - ^ =  $23 $T0 84 - ^ =
STACK WIN 4 da3f 5d8 0 0 14 c 4c 0 1 $T0 $ebp = $eip $T0 4 + ^ = $ebp $T0 ^ = $esp $T0 8 + =  $20 $T0 80 - ^ =  $23 $T0 84 - ^ =  $24 $T0 88 - ^ =
STACK WIN 4 e195 32 6 0 4 0 10 0 1 $T0 $ebp = $eip $T0 4 + ^ = $ebp $T0 ^ = $esp $T0 8 + =
STACK WIN 4 e1d3 c5 6 0 8 0 18 0 1 $T0 $ebp = $eip $T0 4 + ^ = $ebp $T0 ^ = $esp $T0 8 + =
STACK WIN 4 e2c9 242 c 0 4 10 2c 0 1 $T0 $ebp = $eip $T0 4 + ^ = $ebp $T0 ^ = $esp $T0 8 + =  $20 $T0 48 - ^ =  $23 $T0 52 - ^ =  $24 $T0 56 - ^ =
STACK WIN 4 e59b 11f 14 0 8 0 18 0 1 $T0 $ebp = $eip $T0 4 + ^ = $ebp $T0 ^ = $esp $T0 8 + =
STACK WIN 4 e5a8 110 7 0 8 4 18 0 1 $T0 $ebp = $eip $T0 4 + ^ = $ebp $T0 ^ = $esp $T0 8 + =  $20 $T0 28 - ^ =
STACK WIN 4 e5a9 10e 6 0 8 8 18 0 1 $T0 $ebp = $eip $T0 4 + ^ = $ebp $T0 ^ = $esp $T0 8 + =  $20 $T0 28 - ^ =  $23 $T0 32 - ^ =
STACK WIN 4 e5af 107 0 0 8 c 18 0 1 $T0 $ebp = $eip $T0 4 + ^ = $ebp $T0 ^ = $esp $T0 8 + =  $20 $T0 28 - ^ =  $23 $T0 32 - ^ =  $24 $T0 36 - ^ =
STACK WIN 4 e701 54 3 0 4 0 0 0 1 $T0 $ebp = $eip $T0 4 + ^ = $ebp $T0 ^ = $esp $T0 8 + =
STACK WIN 4 e76a 14 3 0 4 0 0 0 1 $T0 $ebp = $eip $T0 4 + ^ = $ebp $T0 ^ = $esp $T0 8 + =
STACK WIN 4 e783 118 14 0 4 0 20 0 1 $T0 $ebp = $eip $T0 4 + ^ = $ebp $T0 ^ = $esp $T0 8 + =
STACK WIN 4 e796 103 1 0 4 4 20 0 1 $T0 $ebp = $eip $T0 4 + ^ = $ebp $T0 ^ = $esp $T0 8 + =  $20 $T0 36 - ^ =
STACK WIN 4 e797 101 0 0 4 8 20 0 1 $T0 $ebp = $eip $T0 4 + ^ = $ebp $T0 ^ = $esp $T0 8 + =  $20 $T0 36 - ^ =  $24 $T0 40 - ^ =
STACK WIN 4 e7f8 30 0 0 4 c 20 0 1 $T0 $ebp = $eip $T0 4 + ^ = $ebp $T0 ^ = $esp $T0 8 + =  $20 $T0 36 - ^ =  $24 $T0 40 - ^ =  $23 $T0 44 - ^ =
STACK WIN 4 e8e1 11 3 0 4 0 0 0 1 $T0 $ebp = $eip $T0 4 + ^ = $ebp $T0 ^ = $esp $T0 8 + =
STACK WIN 4 e8f6 f0 6 0 4 0 18 0 1 $T0 $ebp = $eip $T0 4 + ^ = $ebp $T0 ^ = $esp $T0 8 + =
STACK WIN 4 ea22 1b7 1d 0 10 0 1c 0 1 $T0 $ebp = $eip $T0 4 + ^ = $ebp $T0 ^ = $esp $T0 8 + =
STACK WIN 4 ea30 1a7 f 0 10 4 1c 0 1 $T0 $ebp = $eip $T0 4 + ^ = $ebp $T0 ^ = $esp $T0 8 + =  $20 $T0 32 - ^ =
STACK WIN 4 ea37 19f 8 0 10 8 1c 0 1 $T0 $ebp = $eip $T0 4 + ^ = $ebp $T0 ^ = $esp $T0 8 + =  $20 $T0 32 - ^ =  $23 $T0 36 - ^ =
STACK WIN 4 ea3f 196 0 0 10 c 1c 0 1 $T0 $ebp = $eip $T0 4 + ^ = $ebp $T0 ^ = $esp $T0 8 + =  $20 $T0 32 - ^ =  $23 $T0 36 - ^ =  $24 $T0 40 - ^ =
STACK WIN 4 ec46 67 c 0 8 0 18 0 1 $T0 $ebp = $eip $T0 4 + ^ = $ebp $T0 ^ = $esp $T0 8 + =
STACK WIN 4 ec52 59 0 0 8 4 18 0 1 $T0 $ebp = $eip $T0 4 + ^ = $ebp $T0 ^ = $esp $T0 8 + =  $23 $T0 28 - ^ =
STACK WIN 4 ecc6 3d8 11 0 8 0 3c 0 1 $T0 $ebp = $eip $T0 4 + ^ = $ebp $T0 ^ = $esp $T0 8 + =
STACK WIN 4 ecd5 3c7 2 0 8 4 3c 0 1 $T0 $ebp = $eip $T0 4 + ^ = $ebp $T0 ^ = $esp $T0 8 + =  $20 $T0 64 - ^ =
STACK WIN 4 ecd6 3c5 1 0 8 8 3c 0 1 $T0 $ebp = $eip $T0 4 + ^ = $ebp $T0 ^ = $esp $T0 8 + =  $20 $T0 64 - ^ =  $23 $T0 68 - ^ =
STACK WIN 4 ecd7 3c3 0 0 8 c 3c 0 1 $T0 $ebp = $eip $T0 4 + ^ = $ebp $T0 ^ = $esp $T0 8 + =  $20 $T0 64 - ^ =  $23 $T0 68 - ^ =  $24 $T0 72 - ^ =
STACK WIN 4 f194 14 3 0 4 0 0 0 1 $T0 $ebp = $eip $T0 4 + ^ = $ebp $T0 ^ = $esp $T0 8 + =
STACK WIN 4 f1ad 20 1 0 0 0 0 0 1 $T0 .raSearch = $eip $T0 ^ = $esp $T0 4 + =
STACK WIN 4 f1ae 1e 0 0 0 4 0 0 1 $T0 .raSearch = $eip $T0 ^ = $esp $T0 4 + =  $24 $T0 4 - ^ =
STACK WIN 4 f1bb 10 0 0 0 8 0 0 1 $T0 .raSearch = $eip $T0 ^ = $esp $T0 4 + =  $24 $T0 4 - ^ =  $23 $T0 8 - ^ =
STACK WIN 4 f1d5 c 0 0 0 0 0 0 1 $T0 .raSearch = $eip $T0 ^ = $esp $T0 4 + =
STACK WIN 4 f1e4 4 0 0 0 0 0 0 1 $T0 .raSearch = $eip $T0 ^ = $esp $T0 4 + =
STACK WIN 4 f1e8 e 0 0 0 0 0 0 1 $T0 .raSearch = $eip $T0 ^ = $esp $T0 4 + =
STACK WIN 4 f1f9 35 3 0 0 0 0 0 1 $T0 .raSearch = $eip $T0 ^ = $esp $T0 4 + =
STACK WIN 4 f1fa 33 2 0 0 4 0 0 1 $T0 .raSearch = $eip $T0 ^ = $esp $T0 4 + =  $20 $T0 4 - ^ =
STACK WIN 4 f1fd 2f 0 0 0 8 0 0 1 $T0 .raSearch = $eip $T0 ^ = $esp $T0 4 + =  $20 $T0 4 - ^ =  $23 $T0 8 - ^ =
STACK WIN 4 f1fe 2d 0 0 0 c 0 0 1 $T0 .raSearch = $eip $T0 ^ = $esp $T0 4 + =  $20 $T0 4 - ^ =  $23 $T0 8 - ^ =  $24 $T0 12 - ^ =
STACK WIN 4 f23b 12 0 0 0 0 0 0 1 $T0 .raSearch = $eip $T0 ^ = $esp $T0 4 + =
STACK WIN 4 f251 3f a 0 4 0 18 0 1 $T0 $ebp = $eip $T0 4 + ^ = $ebp $T0 ^ = $esp $T0 8 + =
STACK WIN 4 f25b 33 0 0 4 4 18 0 1 $T0 $ebp = $eip $T0 4 + ^ = $ebp $T0 ^ = $esp $T0 8 + =  $23 $T0 28 - ^ =
STACK WIN 4 f29f 87 b 0 8 0 0 0 1 $T0 $ebp = $eip $T0 4 + ^ = $ebp $T0 ^ = $esp $T0 8 + =
STACK WIN 4 f2a3 7b 7 0 8 4 0 0 1 $T0 $ebp = $eip $T0 4 + ^ = $ebp $T0 ^ = $esp $T0 8 + =  $20 $T0 4 - ^ =
STACK WIN 4 f2a4 79 6 0 8 8 0 0 1 $T0 $ebp = $eip $T0 4 + ^ = $ebp $T0 ^ = $esp $T0 8 + =  $20 $T0 4 - ^ =  $23 $T0 8 - ^ =
STACK WIN 4 f2a5 77 5 0 8 c 0 0 1 $T0 $ebp = $eip $T0 4 + ^ = $ebp $T0 ^ = $esp $T0 8 + =  $20 $T0 4 - ^ =  $23 $T0 8 - ^ =  $24 $T0 12 - ^ =
STACK WIN 4 f347 45 3 0 4 0 0 0 1 $T0 $ebp = $eip $T0 4 + ^ = $ebp $T0 ^ = $esp $T0 8 + =
STACK WIN 4 f39d 61 0 0 0 0 0 0 1 $T0 .raSearch = $eip $T0 ^ = $esp $T0 4 + =
STACK WIN 4 f416 658 e 0 c 0 28 0 1 $T0 $ebp = $eip $T0 4 + ^ = $ebp $T0 ^ = $esp $T0 8 + =
STACK WIN 4 f422 9b 2 0 c 4 28 0 1 $T0 $ebp = $eip $T0 4 + ^ = $ebp $T0 ^ = $esp $T0 8 + =  $20 $T0 44 - ^ =
STACK WIN 4 f423 99 1 0 c 8 28 0 1 $T0 $ebp = $eip $T0 4 + ^ = $ebp $T0 ^ = $esp $T0 8 + =  $20 $T0 44 - ^ =  $23 $T0 48 - ^ =
STACK WIN 4 f424 97 0 0 c c 28 0 1 $T0 $ebp = $eip $T0 4 + ^ = $ebp $T0 ^ = $esp $T0 8 + =  $20 $T0 44 - ^ =  $23 $T0 48 - ^ =  $24 $T0 52 - ^ =
STACK WIN 4 fc04 1e 3 0 c 0 0 0 1 $T0 $ebp = $eip $T0 4 + ^ = $ebp $T0 ^ = $esp $T0 8 + =
STACK WIN 4 fc29 1e 3 0 c 0 0 0 1 $T0 $ebp = $eip $T0 4 + ^ = $ebp $T0 ^ = $esp $T0 8 + =
STACK WIN 4 fc4e 1e4 e 0 8 0 10 0 1 $T0 $ebp = $eip $T0 4 + ^ = $ebp $T0 ^ = $esp $T0 8 + =
STACK WIN 4 fc5b a9 1 0 8 4 10 0 1 $T0 $ebp = $eip $T0 4 + ^ = $ebp $T0 ^ = $esp $T0 8 + =  $23 $T0 20 - ^ =
STACK WIN 4 fc5c a7 0 0 8 8 10 0 1 $T0 $ebp = $eip $T0 4 + ^ = $ebp $T0 ^ = $esp $T0 8 + =  $23 $T0 20 - ^ =  $24 $T0 24 - ^ =
STACK WIN 4 feab 129 b 0 c 0 18 0 1 $T0 $ebp = $eip $T0 4 + ^ = $ebp $T0 ^ = $esp $T0 8 + =
STACK WIN 4 ff62 56 0 0 c 4 18 0 1 $T0 $ebp = $eip $T0 4 + ^ = $ebp $T0 ^ = $esp $T0 8 + =  $23 $T0 28 - ^ =
STACK WIN 4 1001e fa c 0 10 0 8 0 1 $T0 $ebp = $eip $T0 4 + ^ = $ebp $T0 ^ = $esp $T0 8 + =
STACK WIN 4 10029 ed 1 0 10 4 8 0 1 $T0 $ebp = $eip $T0 4 + ^ = $ebp $T0 ^ = $esp $T0 8 + =  $23 $T0 12 - ^ =
STACK WIN 4 1002a eb 0 0 10 8 8 0 1 $T0 $ebp = $eip $T0 4 + ^ = $ebp $T0 ^ = $esp $T0 8 + =  $23 $T0 12 - ^ =  $24 $T0 16 - ^ =
STACK WIN 4 100e7 25 0 0 10 c 8 0 1 $T0 $ebp = $eip $T0 4 + ^ = $ebp $T0 ^ = $esp $T0 8 + =  $23 $T0 12 - ^ =  $24 $T0 16 - ^ =  $20 $T0 20 - ^ =
STACK WIN 4 10156 1c 3 0 10 0 0 0 1 $T0 $ebp = $eip $T0 4 + ^ = $ebp $T0 ^ = $esp $T0 8 + =
STACK WIN 4 10179 f9 e 0 4 0 8 0 1 $T0 $ebp = $eip $T0 4 + ^ = $ebp $T0 ^ = $esp $T0 8 + =
STACK WIN 4 10185 eb 2 0 4 4 8 0 1 $T0 $ebp = $eip $T0 4 + ^ = $ebp $T0 ^ = $esp $T0 8 + =  $20 $T0 12 - ^ =
STACK WIN 4 10186 e9 1 0 4 8 8 0 1 $T0 $ebp = $eip $T0 4 + ^ = $ebp $T0 ^ = $esp $T0 8 + =  $20 $T0 12 - ^ =  $23 $T0 16 - ^ =
STACK WIN 4 10187 e5 0 0 4 c 8 0 1 $T0 $ebp = $eip $T0 4 + ^ = $ebp $T0 ^ = $esp $T0 8 + =  $20 $T0 12 - ^ =  $23 $T0 16 - ^ =  $24 $T0 20 - ^ =
STACK WIN 4 102b0 2f 3 0 8 0 0 0 1 $T0 $ebp = $eip $T0 4 + ^ = $ebp $T0 ^ = $esp $T0 8 + =
STACK WIN 4 102ea 394 c 0 4 0 f0 0 1 $T0 $ebp = $eip $T0 4 + ^ = $ebp $T0 ^ = $esp $T0 8 + =
STACK WIN 4 102f4 388 2 0 4 4 f0 0 1 $T0 $ebp = $eip $T0 4 + ^ = $ebp $T0 ^ = $esp $T0 8 + =  $20 $T0 244 - ^ =
STACK WIN 4 102f5 386 1 0 4 8 f0 0 1 $T0 $ebp = $eip $T0 4 + ^ = $ebp $T0 ^ = $esp $T0 8 + =  $20 $T0 244 - ^ =  $23 $T0 248 - ^ =
STACK WIN 4 102f6 384 0 0 4 c f0 0 1 $T0 $ebp = $eip $T0 4 + ^ = $ebp $T0 ^ = $esp $T0 8 + =  $20 $T0 244 - ^ =  $23 $T0 248 - ^ =  $24 $T0 252 - ^ =
STACK WIN 4 10763 d4 f 0 4 0 18 0 1 $T0 $ebp = $eip $T0 4 + ^ = $ebp $T0 ^ = $esp $T0 8 + =
STACK WIN 4 1076d c8 5 0 4 4 18 0 1 $T0 $ebp = $eip $T0 4 + ^ = $ebp $T0 ^ = $esp $T0 8 + =  $20 $T0 28 - ^ =
STACK WIN 4 1076e c6 4 0 4 8 18 0 1 $T0 $ebp = $eip $T0 4 + ^ = $ebp $T0 ^ = $esp $T0 8 + =  $20 $T0 28 - ^ =  $23 $T0 32 - ^ =
STACK WIN 4 10772 bf 0 0 4 c 18 0 1 $T0 $ebp = $eip $T0 4 + ^ = $ebp $T0 ^ = $esp $T0 8 + =  $20 $T0 28 - ^ =  $23 $T0 32 - ^ =  $24 $T0 36 - ^ =
STACK WIN 4 1086c 51 5 0 4 0 8 0 1 $T0 $ebp = $eip $T0 4 + ^ = $ebp $T0 ^ = $esp $T0 8 + =
STACK WIN 4 108d1 11 3 0 4 0 0 0 1 $T0 $ebp = $eip $T0 4 + ^ = $ebp $T0 ^ = $esp $T0 8 + =
STACK WIN 4 108e6 2d 4 0 8 0 0 0 1 $T0 $ebp = $eip $T0 4 + ^ = $ebp $T0 ^ = $esp $T0 8 + =
STACK WIN 4 108ea 25 0 0 8 4 0 0 1 $T0 $ebp = $eip $T0 4 + ^ = $ebp $T0 ^ = $esp $T0 8 + =  $24 $T0 4 - ^ =
STACK WIN 4 108f8 16 0 0 8 8 0 0 1 $T0 $ebp = $eip $T0 4 + ^ = $ebp $T0 ^ = $esp $T0 8 + =  $24 $T0 4 - ^ =  $23 $T0 8 - ^ =
STACK WIN 4 1091e 56 6 0 8 0 0 0 1 $T0 $ebp = $eip $T0 4 + ^ = $ebp $T0 ^ = $esp $T0 8 + =
STACK WIN 4 10922 4e 2 0 8 4 0 0 1 $T0 $ebp = $eip $T0 4 + ^ = $ebp $T0 ^ = $esp $T0 8 + =  $20 $T0 4 - ^ =
STACK WIN 4 10925 4a 0 0 8 8 0 0 1 $T0 $ebp = $eip $T0 4 + ^ = $ebp $T0 ^ = $esp $T0 8 + =  $20 $T0 4 - ^ =  $23 $T0 8 - ^ =
STACK WIN 4 10929 43 0 0 8 c 0 0 1 $T0 $ebp = $eip $T0 4 + ^ = $ebp $T0 ^ = $esp $T0 8 + =  $20 $T0 4 - ^ =  $23 $T0 8 - ^ =  $24 $T0 12 - ^ =
STACK WIN 4 10989 27 3 0 8 0 0 0 1 $T0 $ebp = $eip $T0 4 + ^ = $ebp $T0 ^ = $esp $T0 8 + =
STACK WIN 4 109b9 15 3 0 8 0 0 0 1 $T0 $ebp = $eip $T0 4 + ^ = $ebp $T0 ^ = $esp $T0 8 + =
STACK WIN 4 109d3 17 3 0 8 0 0 0 1 $T0 $ebp = $eip $T0 4 + ^ = $ebp $T0 ^ = $esp $T0 8 + =
STACK WIN 4 109ef 46 7 0 8 0 0 0 1 $T0 $ebp = $eip $T0 4 + ^ = $ebp $T0 ^ = $esp $T0 8 + =
STACK WIN 4 109f3 3e 3 0 8 4 0 0 1 $T0 $ebp = $eip $T0 4 + ^ = $ebp $T0 ^ = $esp $T0 8 + =  $20 $T0 4 - ^ =
STACK WIN 4 109f4 3c 2 0 8 8 0 0 1 $T0 $ebp = $eip $T0 4 + ^ = $ebp $T0 ^ = $esp $T0 8 + =  $20 $T0 4 - ^ =  $23 $T0 8 - ^ =
STACK WIN 4 109f7 38 0 0 8 c 0 0 1 $T0 $ebp = $eip $T0 4 + ^ = $ebp $T0 ^ = $esp $T0 8 + =  $20 $T0 4 - ^ =  $23 $T0 8 - ^ =  $24 $T0 12 - ^ =
STACK WIN 4 10a46 1b 3 0 8 0 0 0 1 $T0 $ebp = $eip $T0 4 + ^ = $ebp $T0 ^ = $esp $T0 8 + =
STACK WIN 4 10a67 b0 6 0 c 0 10 0 1 $T0 $ebp = $eip $T0 4 + ^ = $ebp $T0 ^ = $esp $T0 8 + =
STACK WIN 4 10b43 37 3 0 10 0 0 0 1 $T0 $ebp = $eip $T0 4 + ^ = $ebp $T0 ^ = $esp $T0 8 + =
STACK WIN 4 10b5c 19 0 0 10 4 0 0 1 $T0 $ebp = $eip $T0 4 + ^ = $ebp $T0 ^ = $esp $T0 8 + =  $20 $T0 4 - ^ =
STACK WIN 4 10b5d 17 0 0 10 8 0 0 1 $T0 $ebp = $eip $T0 4 + ^ = $ebp $T0 ^ = $esp $T0 8 + =  $20 $T0 4 - ^ =  $23 $T0 8 - ^ =
STACK WIN 4 10b5e 15 0 0 10 c 0 0 1 $T0 $ebp = $eip $T0 4 + ^ = $ebp $T0 ^ = $esp $T0 8 + =  $20 $T0 4 - ^ =  $23 $T0 8 - ^ =  $24 $T0 12 - ^ =
STACK WIN 4 10b87 48 3 0 4 0 0 0 1 $T0 $ebp = $eip $T0 4 + ^ = $ebp $T0 ^ = $esp $T0 8 + =
STACK WIN 4 10be1 29d 12 0 4 0 78 0 1 $T0 $ebp = $eip $T0 4 + ^ = $ebp $T0 ^ = $esp $T0 8 + =
STACK WIN 4 10bf2 285 1 0 4 4 78 0 1 $T0 $ebp = $eip $T0 4 + ^ = $ebp $T0 ^ = $esp $T0 8 + =  $20 $T0 124 - ^ =
STACK WIN 4 10bf3 27b 0 0 4 8 78 0 1 $T0 $ebp = $eip $T0 4 + ^ = $ebp $T0 ^ = $esp $T0 8 + =  $20 $T0 124 - ^ =  $24 $T0 128 - ^ =
STACK WIN 4 10c18 250 0 0 4 c 78 0 1 $T0 $ebp = $eip $T0 4 + ^ = $ebp $T0 ^ = $esp $T0 8 + =  $20 $T0 124 - ^ =  $24 $T0 128 - ^ =  $23 $T0 132 - ^ =
STACK WIN 4 10f25 332 21 0 4 0 94 0 1 $T0 $ebp = $eip $T0 4 + ^ = $ebp $T0 ^ = $esp $T0 8 + =
STACK WIN 4 10f3e 227 8 0 4 4 94 0 1 $T0 $ebp = $eip $T0 4 + ^ = $ebp $T0 ^ = $esp $T0 8 + =  $20 $T0 152 - ^ =
STACK WIN 4 10f42 220 4 0 4 8 94 0 1 $T0 $ebp = $eip $T0 4 + ^ = $ebp $T0 ^ = $esp $T0 8 + =  $20 $T0 152 - ^ =  $23 $T0 156 - ^ =
STACK WIN 4 10f46 21b 0 0 4 c 94 0 1 $T0 $ebp = $eip $T0 4 + ^ = $ebp $T0 ^ = $esp $T0 8 + =  $20 $T0 152 - ^ =  $23 $T0 156 - ^ =  $24 $T0 160 - ^ =
STACK WIN 4 11323 162 e 0 8 0 b0 0 1 $T0 $ebp = $eip $T0 4 + ^ = $ebp $T0 ^ = $esp $T0 8 + =
STACK WIN 4 11369 102 0 0 8 4 b0 0 1 $T0 $ebp = $eip $T0 4 + ^ = $ebp $T0 ^ = $esp $T0 8 + =  $20 $T0 180 - ^ =
STACK WIN 4 11377 f3 0 0 8 8 b0 0 1 $T0 $ebp = $eip $T0 4 + ^ = $ebp $T0 ^ = $esp $T0 8 + =  $20 $T0 180 - ^ =  $24 $T0 184 - ^ =
STACK WIN 4 113eb 34 0 0 8 c b0 0 1 $T0 $ebp = $eip $T0 4 + ^ = $ebp $T0 ^ = $esp $T0 8 + =  $20 $T0 180 - ^ =  $24 $T0 184 - ^ =  $23 $T0 188 - ^ =
STACK WIN 4 114dd 33 6 0 4 0 10 0 1 $T0 $ebp = $eip $T0 4 + ^ = $ebp $T0 ^ = $esp $T0 8 + =
STACK WIN 4 1151c 23 3 0 4 0 0 0 1 $T0 $ebp = $eip $T0 4 + ^ = $ebp $T0 ^ = $esp $T0 8 + =
STACK WIN 4 11547 328 9 0 0 0 0 0 1 $T0 .raSearch = $eip $T0 ^ = $esp $T0 4 + =
STACK WIN 4 1154e 2fb 2 0 0 4 0 0 1 $T0 .raSearch = $eip $T0 ^ = $esp $T0 4 + =  $20 $T0 4 - ^ =
STACK WIN 4 1154f 2f9 1 0 0 8 0 0 1 $T0 .raSearch = $eip $T0 ^ = $esp $T0 4 + =  $20 $T0 4 - ^ =  $23 $T0 8 - ^ =
STACK WIN 4 11550 2f7 0 0 0 c 0 0 1 $T0 .raSearch = $eip $T0 ^ = $esp $T0 4 + =  $20 $T0 4 - ^ =  $23 $T0 8 - ^ =  $24 $T0 12 - ^ =
STACK WIN 4 11939 c4 6 0 8 0 10 0 1 $T0 $ebp = $eip $T0 4 + ^ = $ebp $T0 ^ = $esp $T0 8 + =
STACK WIN 4 11995 64 0 0 8 4 10 0 1 $T0 $ebp = $eip $T0 4 + ^ = $ebp $T0 ^ = $esp $T0 8 + =  $23 $T0 20 - ^ =
STACK WIN 4 11999 5d 0 0 8 8 10 0 1 $T0 $ebp = $eip $T0 4 + ^ = $ebp $T0 ^ = $esp $T0 8 + =  $23 $T0 20 - ^ =  $24 $T0 24 - ^ =
STACK WIN 4 11a2e 47 3 0 4 0 0 0 1 $T0 $ebp = $eip $T0 4 + ^ = $ebp $T0 ^ = $esp $T0 8 + =
STACK WIN 4 11a86 15 3 0 8 0 0 0 1 $T0 $ebp = $eip $T0 4 + ^ = $ebp $T0 ^ = $esp $T0 8 + =
STACK WIN 4 11aa0 54 9 0 8 0 8 0 1 $T0 $ebp = $eip $T0 4 + ^ = $ebp $T0 ^ = $esp $T0 8 + =
STACK WIN 4 11aa9 49 0 0 8 4 8 0 1 $T0 $ebp = $eip $T0 4 + ^ = $ebp $T0 ^ = $esp $T0 8 + =  $23 $T0 12 - ^ =
STACK WIN 4 11b09 163 c 0 8 0 20 0 1 $T0 $ebp = $eip $T0 4 + ^ = $ebp $T0 ^ = $esp $T0 8 + =
STACK WIN 4 11b15 155 0 0 8 4 20 0 1 $T0 $ebp = $eip $T0 4 + ^ = $ebp $T0 ^ = $esp $T0 8 + =  $24 $T0 36 - ^ =
STACK WIN 4 11b7d 9b 0 0 8 8 20 0 1 $T0 $ebp = $eip $T0 4 + ^ = $ebp $T0 ^ = $esp $T0 8 + =  $24 $T0 36 - ^ =  $20 $T0 40 - ^ =
STACK WIN 4 11b7e 99 0 0 8 c 20 0 1 $T0 $ebp = $eip $T0 4 + ^ = $ebp $T0 ^ = $esp $T0 8 + =  $24 $T0 36 - ^ =  $20 $T0 40 - ^ =  $23 $T0 44 - ^ =
STACK WIN 4 11cc4 1ff 18 0 c 0 40 0 1 $T0 $ebp = $eip $T0 4 + ^ = $ebp $T0 ^ = $esp $T0 8 + =
STACK WIN 4 11cd5 1e7 7 0 c 4 40 0 1 $T0 $ebp = $eip $T0 4 + ^ = $ebp $T0 ^ = $esp $T0 8 + =  $23 $T0 68 - ^ =
STACK WIN 4 11cdc 1dd 0 0 c 8 40 0 1 $T0 $ebp = $eip $T0 4 + ^ = $ebp $T0 ^ = $esp $T0 8 + =  $23 $T0 68 - ^ =  $24 $T0 72 - ^ =
STACK WIN 4 11d5f 12f 0 0 c c 40 0 1 $T0 $ebp = $eip $T0 4 + ^ = $ebp $T0 ^ = $esp $T0 8 + =  $23 $T0 68 - ^ =  $24 $T0 72 - ^ =  $20 $T0 76 - ^ =
STACK WIN 4 11f42 b 0 0 0 0 0 0 1 $T0 .raSearch = $eip $T0 ^ = $esp $T0 4 + =
STACK WIN 4 11f4f a 0 0 0 0 0 0 1 $T0 .raSearch = $eip $T0 ^ = $esp $T0 4 + =
STACK WIN 4 11f5b a 0 0 0 0 0 0 1 $T0 .raSearch = $eip $T0 ^ = $esp $T0 4 + =
STACK WIN 4 11f67 8 0 0 0 0 0 0 1 $T0 .raSearch = $eip $T0 ^ = $esp $T0 4 + =
STACK WIN 4 11f71 9 0 0 0 0 0 0 1 $T0 .raSearch = $eip $T0 ^ = $esp $T0 4 + =
STACK WIN 4 11f7c a 0 0 0 0 0 0 1 $T0 .raSearch = $eip $T0 ^ = $esp $T0 4 + =
STACK WIN 4 11f88 a 0 0 0 0 0 0 1 $T0 .raSearch = $eip $T0 ^ = $esp $T0 4 + =
STACK WIN 4 11f94 a 0 0 0 0 0 0 1 $T0 .raSearch = $eip $T0 ^ = $esp $T0 4 + =
STACK WIN 4 11fa0 11 0 0 0 0 0 0 1 $T0 .raSearch = $eip $T0 ^ = $esp $T0 4 + =
STACK WIN 4 11fb5 11 0 0 0 0 0 0 1 $T0 .raSearch = $eip $T0 ^ = $esp $T0 4 + =
STACK WIN 4 11fca a 0 0 0 0 0 0 1 $T0 .raSearch = $eip $T0 ^ = $esp $T0 4 + =
STACK WIN 4 11fd6 a 0 0 0 0 0 0 1 $T0 .raSearch = $eip $T0 ^ = $esp $T0 4 + =
STACK WIN 4 11fe2 1f 1 0 0 0 0 0 1 $T0 .raSearch = $eip $T0 ^ = $esp $T0 4 + =
STACK WIN 4 11fe3 1d 0 0 0 4 0 0 1 $T0 .raSearch = $eip $T0 ^ = $esp $T0 4 + =  $24 $T0 4 - ^ =
STACK WIN 4 11ff0 f 0 0 0 8 0 0 1 $T0 .raSearch = $eip $T0 ^ = $esp $T0 4 + =  $24 $T0 4 - ^ =  $23 $T0 8 - ^ =
STACK WIN 4 12008 4 0 0 0 0 0 0 1 $T0 .raSearch = $eip $T0 ^ = $esp $T0 4 + =
STACK WIN 4 1200c 4 0 0 0 0 0 0 1 $T0 .raSearch = $eip $T0 ^ = $esp $T0 4 + =
STACK WIN 4 12010 e 0 0 0 0 0 0 1 $T0 .raSearch = $eip $T0 ^ = $esp $T0 4 + =
STACK WIN 4 12021 46 a 0 0 0 4 0 1 $T0 $ebp = $eip $T0 4 + ^ = $ebp $T0 ^ = $esp $T0 8 + =
STACK WIN 4 12030 32 0 0 0 4 4 0 1 $T0 $ebp = $eip $T0 4 + ^ = $ebp $T0 ^ = $esp $T0 8 + =  $20 $T0 8 - ^ =
STACK WIN 4 12034 2d 0 0 0 8 4 0 1 $T0 $ebp = $eip $T0 4 + ^ = $ebp $T0 ^ = $esp $T0 8 + =  $20 $T0 8 - ^ =  $23 $T0 12 - ^ =
STACK WIN 4 12035 2b 0 0 0 c 4 0 1 $T0 $ebp = $eip $T0 4 + ^ = $ebp $T0 ^ = $esp $T0 8 + =  $20 $T0 8 - ^ =  $23 $T0 12 - ^ =  $24 $T0 16 - ^ =
STACK WIN 4 12078 4 0 0 0 0 0 0 1 $T0 .raSearch = $eip $T0 ^ = $esp $T0 4 + =
STACK WIN 4 1207c 1c 3 0 4 0 0 0 1 $T0 $ebp = $eip $T0 4 + ^ = $ebp $T0 ^ = $esp $T0 8 + =
STACK WIN 4 1209f ee e 0 4 0 18 0 1 $T0 $ebp = $eip $T0 4 + ^ = $ebp $T0 ^ = $esp $T0 8 + =
STACK WIN 4 120ad de 0 0 4 4 18 0 1 $T0 $ebp = $eip $T0 4 + ^ = $ebp $T0 ^ = $esp $T0 8 + =  $24 $T0 28 - ^ =
STACK WIN 4 120d9 2f 0 0 4 8 18 0 1 $T0 $ebp = $eip $T0 4 + ^ = $ebp $T0 ^ = $esp $T0 8 + =  $24 $T0 28 - ^ =  $23 $T0 32 - ^ =
STACK WIN 4 121c8 8 0 0 0 0 0 0 1 $T0 .raSearch = $eip $T0 ^ = $esp $T0 4 + =
STACK WIN 4 121d2 8 0 0 0 0 0 0 1 $T0 .raSearch = $eip $T0 ^ = $esp $T0 4 + =
STACK WIN 4 121dc 8 0 0 0 0 0 0 1 $T0 .raSearch = $eip $T0 ^ = $esp $T0 4 + =
STACK WIN 4 121e6 8 0 0 0 0 0 0 1 $T0 .raSearch = $eip $T0 ^ = $esp $T0 4 + =
STACK WIN 4 121f0 d 0 0 0 0 0 0 1 $T0 .raSearch = $eip $T0 ^ = $esp $T0 4 + =
STACK WIN 4 12200 8 0 0 0 0 0 0 1 $T0 .raSearch = $eip $T0 ^ = $esp $T0 4 + =
STACK WIN 4 1220a a 0 0 0 0 0 0 1 $T0 .raSearch = $eip $T0 ^ = $esp $T0 4 + =
STACK WIN 4 12216 5 0 0 0 0 0 0 1 $T0 .raSearch = $eip $T0 ^ = $esp $T0 4 + =
STACK WIN 4 1221b 21 3 0 c 0 0 0 1 $T0 $ebp = $eip $T0 4 + ^ = $ebp $T0 ^ = $esp $T0 8 + =
STACK WIN 4 12229 11 0 0 c 4 0 0 1 $T0 $ebp = $eip $T0 4 + ^ = $ebp $T0 ^ = $esp $T0 8 + =  $23 $T0 4 - ^ =
STACK WIN 4 12244 15 3 0 4 0 0 0 1 $T0 $ebp = $eip $T0 4 + ^ = $ebp $T0 ^ = $esp $T0 8 + =
STACK WIN 4 1225e 31 3 0 c 0 0 0 1 $T0 $ebp = $eip $T0 4 + ^ = $ebp $T0 ^ = $esp $T0 8 + =
STACK WIN 4 12271 1c 0 0 c 4 0 0 1 $T0 $ebp = $eip $T0 4 + ^ = $ebp $T0 ^ = $esp $T0 8 + =  $20 $T0 4 - ^ =
STACK WIN 4 1229b 23 3 0 18 0 0 0 1 $T0 $ebp = $eip $T0 4 + ^ = $ebp $T0 ^ = $esp $T0 8 + =
STACK WIN 4 122c6 9f c 0 1c 10 74 0 1 $T0 $ebp = $eip $T0 4 + ^ = $ebp $T0 ^ = $esp $T0 8 + =  $20 $T0 120 - ^ =  $23 $T0 124 - ^ =  $24 $T0 128 - ^ =
STACK WIN 4 12358 c 0 0 1c 10 74 0 1 $T0 $ebp = $T2 $esp = $T1 .raSearchStart = $eip $T1 ^ = $ebp $T0 = $esp $T1 4 + =
STACK WIN 4 1238c 2d 3 0 14 0 0 0 1 $T0 $ebp = $eip $T0 4 + ^ = $ebp $T0 ^ = $esp $T0 8 + =
STACK WIN 4 123c4 1c 3 0 c 0 0 0 1 $T0 $ebp = $eip $T0 4 + ^ = $ebp $T0 ^ = $esp $T0 8 + =
STACK WIN 4 123e7 5c 9 0 18 0 58 0 1 $T0 $ebp = $eip $T0 4 + ^ = $ebp $T0 ^ = $esp $T0 8 + =
STACK WIN 4 123f7 4a 0 0 18 4 58 0 1 $T0 $ebp = $eip $T0 4 + ^ = $ebp $T0 ^ = $esp $T0 8 + =  $23 $T0 92 - ^ =
STACK WIN 4 1245a 10 3 0 4 0 0 0 1 $T0 $ebp = $eip $T0 4 + ^ = $ebp $T0 ^ = $esp $T0 8 + =
STACK WIN 4 1246e e 3 0 4 0 0 0 1 $T0 $ebp = $eip $T0 4 + ^ = $ebp $T0 ^ = $esp $T0 8 + =
STACK WIN 4 1247f f 3 0 0 0 0 0 1 $T0 .raSearch = $eip $T0 ^ = $esp $T0 4 + =
STACK WIN 4 12480 d 2 0 0 4 0 0 1 $T0 .raSearch = $eip $T0 ^ = $esp $T0 4 + =  $23 $T0 4 - ^ =
STACK WIN 4 12491 10 3 0 0 0 0 0 1 $T0 .raSearch = $eip $T0 ^ = $esp $T0 4 + =
STACK WIN 4 12492 e 2 0 0 4 0 0 1 $T0 .raSearch = $eip $T0 ^ = $esp $T0 4 + =  $23 $T0 4 - ^ =
STACK WIN 4 124a5 9 0 0 0 0 0 0 1 $T0 .raSearch = $eip $T0 ^ = $esp $T0 4 + =
STACK WIN 4 124b0 7 0 0 0 0 0 0 1 $T0 .raSearch = $eip $T0 ^ = $esp $T0 4 + =
STACK WIN 4 124b7 6 0 0 0 0 0 0 1 $T0 .raSearch = $eip $T0 ^ = $esp $T0 4 + =
STACK WIN 4 124bd 3 0 0 0 0 0 0 1 $T0 .raSearch = $eip $T0 ^ = $esp $T0 4 + =
STACK WIN 4 124c0 7 0 0 0 0 0 0 1 $T0 .raSearch = $eip $T0 ^ = $esp $T0 4 + =
STACK WIN 4 124c7 10 3 0 0 0 0 0 1 $T0 .raSearch = $eip $T0 ^ = $esp $T0 4 + =
STACK WIN 4 124c8 e 2 0 0 4 0 0 1 $T0 .raSearch = $eip $T0 ^ = $esp $T0 4 + =  $23 $T0 4 - ^ =
STACK WIN 4 124db 1a 3 0 4 0 0 0 1 $T0 $ebp = $eip $T0 4 + ^ = $ebp $T0 ^ = $esp $T0 8 + =
STACK WIN 4 124fb 1c 3 0 4 0 0 0 1 $T0 $ebp = $eip $T0 4 + ^ = $ebp $T0 ^ = $esp $T0 8 + =
STACK WIN 4 1251e 36 3 0 4 0 0 0 1 $T0 $ebp = $eip $T0 4 + ^ = $ebp $T0 ^ = $esp $T0 8 + =
STACK WIN 4 1252c 26 0 0 4 4 0 0 1 $T0 $ebp = $eip $T0 4 + ^ = $ebp $T0 ^ = $esp $T0 8 + =  $23 $T0 4 - ^ =
STACK WIN 4 12561 e 0 0 0 0 0 0 1 $T0 .raSearch = $eip $T0 ^ = $esp $T0 4 + =
STACK WIN 4 12572 92 0 0 0 0 0 0 1 $T0 .raSearch = $eip $T0 ^ = $esp $T0 4 + =
STACK WIN 4 1257f 84 0 0 0 4 0 0 1 $T0 .raSearch = $eip $T0 ^ = $esp $T0 4 + =  $20 $T0 4 - ^ =
STACK WIN 4 12580 80 0 0 0 8 0 0 1 $T0 .raSearch = $eip $T0 ^ = $esp $T0 4 + =  $20 $T0 4 - ^ =  $24 $T0 8 - ^ =
STACK WIN 4 125b7 41 0 0 0 c 0 0 1 $T0 .raSearch = $eip $T0 ^ = $esp $T0 4 + =  $20 $T0 4 - ^ =  $24 $T0 8 - ^ =  $23 $T0 12 - ^ =
STACK WIN 4 12628 37 0 0 0 0 0 0 1 $T0 .raSearch = $eip $T0 ^ = $esp $T0 4 + =
STACK WIN 4 12635 29 0 0 0 4 0 0 1 $T0 .raSearch = $eip $T0 ^ = $esp $T0 4 + =  $23 $T0 4 - ^ =
STACK WIN 4 12636 27 0 0 0 8 0 0 1 $T0 .raSearch = $eip $T0 ^ = $esp $T0 4 + =  $23 $T0 4 - ^ =  $24 $T0 8 - ^ =
STACK WIN 4 1266c 33 0 0 0 0 0 0 1 $T0 .raSearch = $eip $T0 ^ = $esp $T0 4 + =
STACK WIN 4 126ab 1b 0 0 0 0 0 0 1 $T0 .raSearch = $eip $T0 ^ = $esp $T0 4 + =
STACK WIN 4 126cc 3c 2 0 0 0 0 0 1 $T0 .raSearch = $eip $T0 ^ = $esp $T0 4 + =
STACK WIN 4 126cd 3a 1 0 0 4 0 0 1 $T0 .raSearch = $eip $T0 ^ = $esp $T0 4 + =  $23 $T0 4 - ^ =
STACK WIN 4 126ce 38 0 0 0 8 0 0 1 $T0 .raSearch = $eip $T0 ^ = $esp $T0 4 + =  $23 $T0 4 - ^ =  $24 $T0 8 - ^ =
STACK WIN 4 12717 15 3 0 4 0 0 0 1 $T0 $ebp = $eip $T0 4 + ^ = $ebp $T0 ^ = $esp $T0 8 + =
STACK WIN 4 12731 2f 1 0 0 0 0 0 1 $T0 .raSearch = $eip $T0 ^ = $esp $T0 4 + =
STACK WIN 4 12732 2d 0 0 0 4 0 0 1 $T0 .raSearch = $eip $T0 ^ = $esp $T0 4 + =  $23 $T0 4 - ^ =
STACK WIN 4 12740 1c 0 0 0 8 0 0 1 $T0 .raSearch = $eip $T0 ^ = $esp $T0 4 + =  $23 $T0 4 - ^ =  $24 $T0 8 - ^ =
STACK WIN 4 1276b 15 3 0 4 0 0 0 1 $T0 $ebp = $eip $T0 4 + ^ = $ebp $T0 ^ = $esp $T0 8 + =
STACK WIN 4 12785 6 0 0 0 0 0 0 1 $T0 .raSearch = $eip $T0 ^ = $esp $T0 4 + =
STACK WIN 4 1278b 14 3 0 4 0 0 0 1 $T0 $ebp = $eip $T0 4 + ^ = $ebp $T0 ^ = $esp $T0 8 + =
STACK WIN 4 127a4 1d 3 0 4 0 0 0 1 $T0 $ebp = $eip $T0 4 + ^ = $ebp $T0 ^ = $esp $T0 8 + =
STACK WIN 4 127c8 d 3 0 8 0 0 0 1 $T0 $ebp = $eip $T0 4 + ^ = $ebp $T0 ^ = $esp $T0 8 + =
STACK WIN 4 127d8 d 3 0 8 0 0 0 1 $T0 $ebp = $eip $T0 4 + ^ = $ebp $T0 ^ = $esp $T0 8 + =
STACK WIN 4 127e8 d 3 0 8 0 0 0 1 $T0 $ebp = $eip $T0 4 + ^ = $ebp $T0 ^ = $esp $T0 8 + =
STACK WIN 4 127f8 a 3 0 4 0 0 0 1 $T0 $ebp = $eip $T0 4 + ^ = $ebp $T0 ^ = $esp $T0 8 + =
STACK WIN 4 12804 a 3 0 4 0 0 0 1 $T0 $ebp = $eip $T0 4 + ^ = $ebp $T0 ^ = $esp $T0 8 + =
STACK WIN 4 12810 9 4 0 4 0 4 0 1 $T0 $ebp = $eip $T0 4 + ^ = $ebp $T0 ^ = $esp $T0 8 + =
STACK WIN 4 1281b 4 0 0 0 0 0 0 1 $T0 .raSearch = $eip $T0 ^ = $esp $T0 4 + =
STACK WIN 4 1281f 1a 0 0 0 0 0 0 1 $T0 .raSearch = $eip $T0 ^ = $esp $T0 4 + =
STACK WIN 4 1283f 1a 0 0 0 0 0 0 1 $T0 .raSearch = $eip $T0 ^ = $esp $T0 4 + =
STACK WIN 4 1285f 1a 0 0 0 0 0 0 1 $T0 .raSearch = $eip $T0 ^ = $esp $T0 4 + =
STACK WIN 4 1287f 1a 0 0 0 0 0 0 1 $T0 .raSearch = $eip $T0 ^ = $esp $T0 4 + =
STACK WIN 4 1289f 1a 0 0 0 0 0 0 1 $T0 .raSearch = $eip $T0 ^ = $esp $T0 4 + =
STACK WIN 4 128bf c4 7 0 8 0 4 0 1 $T0 $ebp = $eip $T0 4 + ^ = $ebp $T0 ^ = $esp $T0 8 + =
STACK WIN 4 128c4 b9 2 0 8 4 4 0 1 $T0 $ebp = $eip $T0 4 + ^ = $ebp $T0 ^ = $esp $T0 8 + =  $20 $T0 8 - ^ =
STACK WIN 4 128c5 b7 1 0 8 8 4 0 1 $T0 $ebp = $eip $T0 4 + ^ = $ebp $T0 ^ = $esp $T0 8 + =  $20 $T0 8 - ^ =  $23 $T0 12 - ^ =
STACK WIN 4 128c6 b5 0 0 8 c 4 0 1 $T0 $ebp = $eip $T0 4 + ^ = $ebp $T0 ^ = $esp $T0 8 + =  $20 $T0 8 - ^ =  $23 $T0 12 - ^ =  $24 $T0 16 - ^ =
STACK WIN 4 129b4 6f 7 0 10 0 0 0 1 $T0 $ebp = $eip $T0 4 + ^ = $ebp $T0 ^ = $esp $T0 8 + =
STACK WIN 4 129bb 66 0 0 10 4 0 0 1 $T0 $ebp = $eip $T0 4 + ^ = $ebp $T0 ^ = $esp $T0 8 + =  $24 $T0 4 - ^ =
STACK WIN 4 129e5 3b 0 0 10 8 0 0 1 $T0 $ebp = $eip $T0 4 + ^ = $ebp $T0 ^ = $esp $T0 8 + =  $24 $T0 4 - ^ =  $23 $T0 8 - ^ =
STACK WIN 4 12a3e 4f 7 0 4 0 0 0 1 $T0 $ebp = $eip $T0 4 + ^ = $ebp $T0 ^ = $esp $T0 8 + =
STACK WIN 4 12a45 46 0 0 4 4 0 0 1 $T0 $ebp = $eip $T0 4 + ^ = $ebp $T0 ^ = $esp $T0 8 + =  $24 $T0 4 - ^ =
STACK WIN 4 12a5e 2c 0 0 4 8 0 0 1 $T0 $ebp = $eip $T0 4 + ^ = $ebp $T0 ^ = $esp $T0 8 + =  $24 $T0 4 - ^ =  $23 $T0 8 - ^ =
STACK WIN 4 12aa0 22 3 0 c 0 0 0 1 $T0 $ebp = $eip $T0 4 + ^ = $ebp $T0 ^ = $esp $T0 8 + =
STACK WIN 4 12aca 61 3 0 4 0 0 0 1 $T0 $ebp = $eip $T0 4 + ^ = $ebp $T0 ^ = $esp $T0 8 + =
STACK WIN 4 12b43 3b 4 0 4 0 0 0 1 $T0 $ebp = $eip $T0 4 + ^ = $ebp $T0 ^ = $esp $T0 8 + =
STACK WIN 4 12b47 30 0 0 4 4 0 0 1 $T0 $ebp = $eip $T0 4 + ^ = $ebp $T0 ^ = $esp $T0 8 + =  $23 $T0 4 - ^ =
STACK WIN 4 12b8c 3b 4 0 4 0 0 0 1 $T0 $ebp = $eip $T0 4 + ^ = $ebp $T0 ^ = $esp $T0 8 + =
STACK WIN 4 12b90 35 0 0 4 4 0 0 1 $T0 $ebp = $eip $T0 4 + ^ = $ebp $T0 ^ = $esp $T0 8 + =  $23 $T0 4 - ^ =
STACK WIN 4 12bd5 3b 4 0 4 0 0 0 1 $T0 $ebp = $eip $T0 4 + ^ = $ebp $T0 ^ = $esp $T0 8 + =
STACK WIN 4 12bd9 35 0 0 4 4 0 0 1 $T0 $ebp = $eip $T0 4 + ^ = $ebp $T0 ^ = $esp $T0 8 + =  $23 $T0 4 - ^ =
STACK WIN 4 12c1e 3e 4 0 8 0 0 0 1 $T0 $ebp = $eip $T0 4 + ^ = $ebp $T0 ^ = $esp $T0 8 + =
STACK WIN 4 12c22 38 0 0 8 4 0 0 1 $T0 $ebp = $eip $T0 4 + ^ = $ebp $T0 ^ = $esp $T0 8 + =  $23 $T0 4 - ^ =
STACK WIN 4 12c6b 47 4 0 c 0 0 0 1 $T0 $ebp = $eip $T0 4 + ^ = $ebp $T0 ^ = $esp $T0 8 + =
STACK WIN 4 12c6f 41 0 0 c 4 0 0 1 $T0 $ebp = $eip $T0 4 + ^ = $ebp $T0 ^ = $esp $T0 8 + =  $23 $T0 4 - ^ =
STACK WIN 4 12cc3 29 f 0 0 0 0 0 1 $T0 .raSearch = $eip $T0 ^ = $esp $T0 4 + =
STACK WIN 4 12cd2 19 0 0 0 4 0 0 1 $T0 .raSearch = $eip $T0 ^ = $esp $T0 4 + =  $23 $T0 4 - ^ =
STACK WIN 4 12cf6 32 3 0 4 0 0 0 1 $T0 $ebp = $eip $T0 4 + ^ = $ebp $T0 ^ = $esp $T0 8 + =
STACK WIN 4 12d00 26 0 0 4 4 0 0 1 $T0 $ebp = $eip $T0 4 + ^ = $ebp $T0 ^ = $esp $T0 8 + =  $23 $T0 4 - ^ =
STACK WIN 4 12d34 6 0 0 0 0 0 0 1 $T0 .raSearch = $eip $T0 ^ = $esp $T0 4 + =
STACK WIN 4 12d3a 1d 3 0 4 0 0 0 1 $T0 $ebp = $eip $T0 4 + ^ = $ebp $T0 ^ = $esp $T0 8 + =
STACK WIN 4 12d5e b 0 0 0 0 0 0 1 $T0 .raSearch = $eip $T0 ^ = $esp $T0 4 + =
STACK WIN 0 12dd6 84 3 0 8 c 0 0 0 0
STACK WIN 0 12e5a 23 0 0 0 0 0 0 0 0
STACK WIN 0 12eab 3 0 0 0 0 0 0 0 0
STACK WIN 4 12efd 14 3 0 4 0 0 0 1 $T0 $ebp = $eip $T0 4 + ^ = $ebp $T0 ^ = $esp $T0 8 + =
STACK WIN 4 12f16 d 3 0 8 0 0 0 1 $T0 $ebp = $eip $T0 4 + ^ = $ebp $T0 ^ = $esp $T0 8 + =
STACK WIN 4 12f26 a 3 0 4 0 0 0 1 $T0 $ebp = $eip $T0 4 + ^ = $ebp $T0 ^ = $esp $T0 8 + =
STACK WIN 4 12f32 15 0 0 0 0 0 0 1 $T0 .raSearch = $eip $T0 ^ = $esp $T0 4 + =
STACK WIN 4 12f4c 1c 1 0 0 4 0 0 1 $T0 .raSearch = $eip $T0 ^ = $esp $T0 4 + =  $23 $T0 4 - ^ =
STACK WIN 4 12f6f 25 3 0 4 0 0 0 1 $T0 $ebp = $eip $T0 4 + ^ = $ebp $T0 ^ = $esp $T0 8 + =
STACK WIN 4 12f9d 24 3 0 8 0 0 0 1 $T0 $ebp = $eip $T0 4 + ^ = $ebp $T0 ^ = $esp $T0 8 + =
STACK WIN 4 12fca 8 3 0 4 0 0 0 1 $T0 $ebp = $eip $T0 4 + ^ = $ebp $T0 ^ = $esp $T0 8 + =
STACK WIN 4 12fd4 14 3 0 8 0 0 0 1 $T0 $ebp = $eip $T0 4 + ^ = $ebp $T0 ^ = $esp $T0 8 + =
STACK WIN 4 12fed 82 e 0 10 0 8 0 1 $T0 $ebp = $eip $T0 4 + ^ = $ebp $T0 ^ = $esp $T0 8 + =
STACK WIN 4 12ff3 74 8 0 10 4 8 0 1 $T0 $ebp = $eip $T0 4 + ^ = $ebp $T0 ^ = $esp $T0 8 + =  $20 $T0 12 - ^ =
STACK WIN 4 12ff7 64 4 0 10 8 8 0 1 $T0 $ebp = $eip $T0 4 + ^ = $ebp $T0 ^ = $esp $T0 8 + =  $20 $T0 12 - ^ =  $23 $T0 16 - ^ =
STACK WIN 4 12ffb 5f 0 0 10 c 8 0 1 $T0 $ebp = $eip $T0 4 + ^ = $ebp $T0 ^ = $esp $T0 8 + =  $20 $T0 12 - ^ =  $23 $T0 16 - ^ =  $24 $T0 20 - ^ =
STACK WIN 4 13069 6 0 0 10 c 8 0 1 $T0 $ebp = $eip $T0 4 + ^ = $ebp $T0 ^ = $esp $T0 8 + =  $20 $T0 12 - ^ =  $23 $T0 16 - ^ =  $24 $T0 20 - ^ =
STACK WIN 4 1308f 5e 6 0 14 0 18 0 1 $T0 $ebp = $eip $T0 4 + ^ = $ebp $T0 ^ = $esp $T0 8 + =
STACK WIN 4 13104 db 7 0 1c 4 38 0 1 $T0 $ebp = $eip $T0 4 + ^ = $ebp $T0 ^ = $esp $T0 8 + =  $20 $T0 60 - ^ =
STACK WIN 4 13215 30 5 0 8 4 4 0 1 $T0 $ebp = $eip $T0 4 + ^ = $ebp $T0 ^ = $esp $T0 8 + =  $20 $T0 8 - ^ =
STACK WIN 4 13251 53 8 0 8 c 8 0 1 $T0 $ebp = $eip $T0 4 + ^ = $ebp $T0 ^ = $esp $T0 8 + =  $20 $T0 12 - ^ =  $23 $T0 16 - ^ =  $24 $T0 20 - ^ =
STACK WIN 4 132b8 3 0 0 0 0 0 0 1 $T0 .raSearch = $eip $T0 ^ = $esp $T0 4 + =
STACK WIN 4 132bb 31 4 0 10 0 0 0 1 $T0 $ebp = $eip $T0 4 + ^ = $ebp $T0 ^ = $esp $T0 8 + =
STACK WIN 4 132bf 2b 0 0 10 4 0 0 1 $T0 $ebp = $eip $T0 4 + ^ = $ebp $T0 ^ = $esp $T0 8 + =  $23 $T0 4 - ^ =
STACK WIN 4 132f8 24 7 0 8 0 0 0 1 $T0 $ebp = $eip $T0 4 + ^ = $ebp $T0 ^ = $esp $T0 8 + =
STACK WIN 4 132ff 1b 0 0 8 4 0 0 1 $T0 $ebp = $eip $T0 4 + ^ = $ebp $T0 ^ = $esp $T0 8 + =  $23 $T0 4 - ^ =
STACK WIN 4 13325 45 4 0 4 0 0 0 1 $T0 $ebp = $eip $T0 4 + ^ = $ebp $T0 ^ = $esp $T0 8 + =
STACK WIN 4 13329 13 0 0 4 4 0 0 1 $T0 $ebp = $eip $T0 4 + ^ = $ebp $T0 ^ = $esp $T0 8 + =  $23 $T0 4 - ^ =
STACK WIN 4 1337b 9d 5 0 10 4 4 0 1 $T0 $ebp = $eip $T0 4 + ^ = $ebp $T0 ^ = $esp $T0 8 + =  $20 $T0 8 - ^ =
STACK WIN 4 1343f 36 0 0 10 0 0 0 1 $T0 .raSearch = $eip $T0 ^ = $esp $T0 4 + =
STACK WIN 4 13482 36 0 0 10 0 0 0 1 $T0 .raSearch = $eip $T0 ^ = $esp $T0 4 + =
STACK WIN 4 134c5 36 0 0 10 0 0 0 1 $T0 .raSearch = $eip $T0 ^ = $esp $T0 4 + =
STACK WIN 4 13508 25 4 0 4 0 0 0 1 $T0 $ebp = $eip $T0 4 + ^ = $ebp $T0 ^ = $esp $T0 8 + =
STACK WIN 4 1350c 1d 0 0 4 4 0 0 1 $T0 $ebp = $eip $T0 4 + ^ = $ebp $T0 ^ = $esp $T0 8 + =  $23 $T0 4 - ^ =
STACK WIN 0 13542 572 2 0 c 8 0 0 0 0
STACK WIN 4 13c11 13f c 0 10 10 20 0 1 $T0 $ebp = $eip $T0 4 + ^ = $ebp $T0 ^ = $esp $T0 8 + =  $20 $T0 36 - ^ =  $23 $T0 40 - ^ =  $24 $T0 44 - ^ =
STACK WIN 4 13d2f 4 0 0 10 10 20 0 1 $T0 $ebp = $T2 $esp = $T1 .raSearchStart = $eip $T1 ^ = $ebp $T0 = $esp $T1 4 + =
STACK WIN 4 13d9f 99 c 0 10 10 18 0 1 $T0 $ebp = $eip $T0 4 + ^ = $ebp $T0 ^ = $esp $T0 8 + =  $20 $T0 28 - ^ =  $23 $T0 32 - ^ =  $24 $T0 36 - ^ =
STACK WIN 4 13e2b 4 0 0 10 10 18 0 1 $T0 $ebp = $T2 $esp = $T1 .raSearchStart = $eip $T1 ^ = $ebp $T0 = $esp $T1 4 + =
STACK WIN 4 13e5e 80 d 0 2c 0 0 0 1 $T0 $ebp = $eip $T0 4 + ^ = $ebp $T0 ^ = $esp $T0 8 + =
STACK WIN 4 13e66 76 5 0 2c 4 0 0 1 $T0 $ebp = $eip $T0 4 + ^ = $ebp $T0 ^ = $esp $T0 8 + =  $20 $T0 4 - ^ =
STACK WIN 4 13e6a 71 1 0 2c 8 0 0 1 $T0 $ebp = $eip $T0 4 + ^ = $ebp $T0 ^ = $esp $T0 8 + =  $20 $T0 4 - ^ =  $23 $T0 8 - ^ =
STACK WIN 4 13e6b 6f 0 0 2c c 0 0 1 $T0 $ebp = $eip $T0 4 + ^ = $ebp $T0 ^ = $esp $T0 8 + =  $20 $T0 4 - ^ =  $23 $T0 8 - ^ =  $24 $T0 12 - ^ =
STACK WIN 4 13efe 38e 9 0 20 0 54 0 1 $T0 $ebp = $eip $T0 4 + ^ = $ebp $T0 ^ = $esp $T0 8 + =
STACK WIN 4 13f05 320 2 0 20 4 54 0 1 $T0 $ebp = $eip $T0 4 + ^ = $ebp $T0 ^ = $esp $T0 8 + =  $20 $T0 88 - ^ =
STACK WIN 4 13f06 31e 1 0 20 8 54 0 1 $T0 $ebp = $eip $T0 4 + ^ = $ebp $T0 ^ = $esp $T0 8 + =  $20 $T0 88 - ^ =  $23 $T0 92 - ^ =
STACK WIN 4 13f07 31c 0 0 20 c 54 0 1 $T0 $ebp = $eip $T0 4 + ^ = $ebp $T0 ^ = $esp $T0 8 + =  $20 $T0 88 - ^ =  $23 $T0 92 - ^ =  $24 $T0 96 - ^ =
STACK WIN 4 1436f 111 7 0 20 0 20 0 1 $T0 $ebp = $eip $T0 4 + ^ = $ebp $T0 ^ = $esp $T0 8 + =
STACK WIN 4 14376 60 0 0 20 4 20 0 1 $T0 $ebp = $eip $T0 4 + ^ = $ebp $T0 ^ = $esp $T0 8 + =  $24 $T0 36 - ^ =
STACK WIN 4 14382 53 0 0 20 8 20 0 1 $T0 $ebp = $eip $T0 4 + ^ = $ebp $T0 ^ = $esp $T0 8 + =  $24 $T0 36 - ^ =  $20 $T0 40 - ^ =
STACK WIN 4 14383 51 0 0 20 c 20 0 1 $T0 $ebp = $eip $T0 4 + ^ = $ebp $T0 ^ = $esp $T0 8 + =  $24 $T0 36 - ^ =  $20 $T0 40 - ^ =  $23 $T0 44 - ^ =
STACK WIN 4 144c4 8e 9 0 c 0 0 0 1 $T0 $ebp = $eip $T0 4 + ^ = $ebp $T0 ^ = $esp $T0 8 + =
STACK WIN 4 144cb 85 2 0 c 4 0 0 1 $T0 $ebp = $eip $T0 4 + ^ = $ebp $T0 ^ = $esp $T0 8 + =  $20 $T0 4 - ^ =
STACK WIN 4 144cc 83 1 0 c 8 0 0 1 $T0 $ebp = $eip $T0 4 + ^ = $ebp $T0 ^ = $esp $T0 8 + =  $20 $T0 4 - ^ =  $23 $T0 8 - ^ =
STACK WIN 4 144cd 81 0 0 c c 0 0 1 $T0 $ebp = $eip $T0 4 + ^ = $ebp $T0 ^ = $esp $T0 8 + =  $20 $T0 4 - ^ =  $23 $T0 8 - ^ =  $24 $T0 12 - ^ =
STACK WIN 4 14575 102 6 0 20 0 0 0 1 $T0 $ebp = $eip $T0 4 + ^ = $ebp $T0 ^ = $esp $T0 8 + =
STACK WIN 4 14579 fc 2 0 20 4 0 0 1 $T0 $ebp = $eip $T0 4 + ^ = $ebp $T0 ^ = $esp $T0 8 + =  $20 $T0 4 - ^ =
STACK WIN 4 1457a fa 1 0 20 8 0 0 1 $T0 $ebp = $eip $T0 4 + ^ = $ebp $T0 ^ = $esp $T0 8 + =  $20 $T0 4 - ^ =  $23 $T0 8 - ^ =
STACK WIN 4 1457b f8 0 0 20 c 0 0 1 $T0 $ebp = $eip $T0 4 + ^ = $ebp $T0 ^ = $esp $T0 8 + =  $20 $T0 4 - ^ =  $23 $T0 8 - ^ =  $24 $T0 12 - ^ =
STACK WIN 4 146b7 17 3 0 8 0 0 0 1 $T0 $ebp = $eip $T0 4 + ^ = $ebp $T0 ^ = $esp $T0 8 + =
STACK WIN 4 146d3 14 3 0 8 0 0 0 1 $T0 $ebp = $eip $T0 4 + ^ = $ebp $T0 ^ = $esp $T0 8 + =
STACK WIN 4 146ec 1b 9 0 4 0 0 0 1 $T0 $ebp = $eip $T0 4 + ^ = $ebp $T0 ^ = $esp $T0 8 + =
STACK WIN 4 146f0 13 5 0 4 4 0 0 1 $T0 $ebp = $eip $T0 4 + ^ = $ebp $T0 ^ = $esp $T0 8 + =  $23 $T0 4 - ^ =
STACK WIN 4 1470d 18 0 0 0 0 0 0 1 $T0 .raSearch = $eip $T0 ^ = $esp $T0 4 + =
STACK WIN 4 1472b 2c 6 0 4 0 0 0 1 $T0 $ebp = $eip $T0 4 + ^ = $ebp $T0 ^ = $esp $T0 8 + =
STACK WIN 4 1472f 24 2 0 4 4 0 0 1 $T0 $ebp = $eip $T0 4 + ^ = $ebp $T0 ^ = $esp $T0 8 + =  $23 $T0 4 - ^ =
STACK WIN 4 14762 1d 3 0 8 0 0 0 1 $T0 $ebp = $eip $T0 4 + ^ = $ebp $T0 ^ = $esp $T0 8 + =
STACK WIN 4 14786 14 3 0 8 0 0 0 1 $T0 $ebp = $eip $T0 4 + ^ = $ebp $T0 ^ = $esp $T0 8 + =
STACK WIN 4 1479f 11 0 0 0 0 0 0 1 $T0 .raSearch = $eip $T0 ^ = $esp $T0 4 + =
STACK WIN 4 147b4 11 0 0 0 0 0 0 1 $T0 .raSearch = $eip $T0 ^ = $esp $T0 4 + =
STACK WIN 4 147c9 13 3 0 4 0 0 0 1 $T0 $ebp = $eip $T0 4 + ^ = $ebp $T0 ^ = $esp $T0 8 + =
STACK WIN 4 147e0 1f 3 0 4 0 0 0 1 $T0 $ebp = $eip $T0 4 + ^ = $ebp $T0 ^ = $esp $T0 8 + =
STACK WIN 4 14806 13 3 0 4 0 0 0 1 $T0 $ebp = $eip $T0 4 + ^ = $ebp $T0 ^ = $esp $T0 8 + =
STACK WIN 4 1481d c 0 0 0 0 0 0 1 $T0 .raSearch = $eip $T0 ^ = $esp $T0 4 + =
STACK WIN 4 1482c c 0 0 0 0 0 0 1 $T0 .raSearch = $eip $T0 ^ = $esp $T0 4 + =
STACK WIN 4 1483b 6 0 0 0 0 0 0 1 $T0 .raSearch = $eip $T0 ^ = $esp $T0 4 + =
STACK WIN 4 14841 6 0 0 0 0 0 0 1 $T0 .raSearch = $eip $T0 ^ = $esp $T0 4 + =
STACK WIN 4 14847 13 3 0 4 0 0 0 1 $T0 $ebp = $eip $T0 4 + ^ = $ebp $T0 ^ = $esp $T0 8 + =
STACK WIN 4 1485e 2d 6 0 4 0 0 0 1 $T0 $ebp = $eip $T0 4 + ^ = $ebp $T0 ^ = $esp $T0 8 + =
STACK WIN 4 14862 25 2 0 4 4 0 0 1 $T0 $ebp = $eip $T0 4 + ^ = $ebp $T0 ^ = $esp $T0 8 + =  $23 $T0 4 - ^ =
STACK WIN 4 14896 2d 6 0 4 0 0 0 1 $T0 $ebp = $eip $T0 4 + ^ = $ebp $T0 ^ = $esp $T0 8 + =
STACK WIN 4 1489a 25 2 0 4 4 0 0 1 $T0 $ebp = $eip $T0 4 + ^ = $ebp $T0 ^ = $esp $T0 8 + =  $23 $T0 4 - ^ =
STACK WIN 4 148ce 5 0 0 10 0 0 0 1 $T0 $ebp = $eip $T0 4 + ^ = $ebp $T0 ^ = $esp $T0 8 + =
STACK WIN 4 148d3 9 3 0 10 0 0 0 1 $T0 $ebp = $eip $T0 4 + ^ = $ebp $T0 ^ = $esp $T0 8 + =
STACK WIN 4 148de 1c4 c 0 1c 10 4c 0 1 $T0 $ebp = $eip $T0 4 + ^ = $ebp $T0 ^ = $esp $T0 8 + =  $20 $T0 80 - ^ =  $23 $T0 84 - ^ =  $24 $T0 88 - ^ =
STACK WIN 4 1496a a 0 0 1c 10 4c 0 1 $T0 $ebp = $T2 $esp = $T1 .raSearchStart = $eip $T1 ^ = $ebp $T0 = $esp $T1 4 + =
STACK WIN 4 14a20 81 0 0 1c 10 4c 0 1 $T0 $ebp = $T2 $esp = $T1 .raSearchStart = $eip $T1 ^ = $ebp $T0 = $esp $T1 4 + =
STACK WIN 4 14b13 3a c 0 4 10 10 0 1 $T0 $ebp = $eip $T0 4 + ^ = $ebp $T0 ^ = $esp $T0 8 + =  $20 $T0 20 - ^ =  $23 $T0 24 - ^ =  $24 $T0 28 - ^ =
STACK WIN 4 14b5b 4a 3 0 4 0 0 0 1 $T0 $ebp = $eip $T0 4 + ^ = $ebp $T0 ^ = $esp $T0 8 + =
STACK WIN 4 14bb7 18 3 0 c 0 0 0 1 $T0 $ebp = $eip $T0 4 + ^ = $ebp $T0 ^ = $esp $T0 8 + =
STACK WIN 4 14bd5 e8 c 0 10 10 20 0 1 $T0 $ebp = $eip $T0 4 + ^ = $ebp $T0 ^ = $esp $T0 8 + =  $20 $T0 36 - ^ =  $23 $T0 40 - ^ =  $24 $T0 44 - ^ =
STACK WIN 4 14c57 a 0 0 10 10 20 0 1 $T0 $ebp = $T2 $esp = $T1 .raSearchStart = $eip $T1 ^ = $ebp $T0 = $esp $T1 4 + =
STACK WIN 4 14ca0 16 0 0 10 10 20 0 1 $T0 $ebp = $T2 $esp = $T1 .raSearchStart = $eip $T1 ^ = $ebp $T0 = $esp $T1 4 + =
STACK WIN 4 14cf7 b 3 0 8 0 0 0 1 $T0 $ebp = $eip $T0 4 + ^ = $ebp $T0 ^ = $esp $T0 8 + =
STACK WIN 4 14d04 9a c 0 8 0 18 0 1 $T0 $ebp = $eip $T0 4 + ^ = $ebp $T0 ^ = $esp $T0 8 + =
STACK WIN 4 14d0b 8b 5 0 8 4 18 0 1 $T0 $ebp = $eip $T0 4 + ^ = $ebp $T0 ^ = $esp $T0 8 + =  $20 $T0 28 - ^ =
STACK WIN 4 14d0c 87 4 0 8 8 18 0 1 $T0 $ebp = $eip $T0 4 + ^ = $ebp $T0 ^ = $esp $T0 8 + =  $20 $T0 28 - ^ =  $23 $T0 32 - ^ =
STACK WIN 4 14d10 82 0 0 8 c 18 0 1 $T0 $ebp = $eip $T0 4 + ^ = $ebp $T0 ^ = $esp $T0 8 + =  $20 $T0 28 - ^ =  $23 $T0 32 - ^ =  $24 $T0 36 - ^ =
STACK WIN 4 14dc4 39 6 0 4 0 0 0 1 $T0 $ebp = $eip $T0 4 + ^ = $ebp $T0 ^ = $esp $T0 8 + =
STACK WIN 4 14dc8 2f 2 0 4 4 0 0 1 $T0 $ebp = $eip $T0 4 + ^ = $ebp $T0 ^ = $esp $T0 8 + =  $20 $T0 4 - ^ =
STACK WIN 4 14dc9 2d 1 0 4 8 0 0 1 $T0 $ebp = $eip $T0 4 + ^ = $ebp $T0 ^ = $esp $T0 8 + =  $20 $T0 4 - ^ =  $23 $T0 8 - ^ =
STACK WIN 4 14dca 2b 0 0 4 c 0 0 1 $T0 $ebp = $eip $T0 4 + ^ = $ebp $T0 ^ = $esp $T0 8 + =  $20 $T0 4 - ^ =  $23 $T0 8 - ^ =  $24 $T0 12 - ^ =
STACK WIN 4 14e0b 9 3 0 c 0 0 0 1 $T0 $ebp = $eip $T0 4 + ^ = $ebp $T0 ^ = $esp $T0 8 + =
STACK WIN 4 14e16 10 3 0 c 0 0 0 1 $T0 $ebp = $eip $T0 4 + ^ = $ebp $T0 ^ = $esp $T0 8 + =
STACK WIN 4 14e2a 13 3 0 10 0 0 0 1 $T0 $ebp = $eip $T0 4 + ^ = $ebp $T0 ^ = $esp $T0 8 + =
STACK WIN 4 14e41 c 3 0 4 0 0 0 1 $T0 $ebp = $eip $T0 4 + ^ = $ebp $T0 ^ = $esp $T0 8 + =
STACK WIN 4 14e50 c 3 0 8 0 0 0 1 $T0 $ebp = $eip $T0 4 + ^ = $ebp $T0 ^ = $esp $T0 8 + =
STACK WIN 4 14e5f c 3 0 8 0 0 0 1 $T0 $ebp = $eip $T0 4 + ^ = $ebp $T0 ^ = $esp $T0 8 + =
STACK WIN 4 14e6e 10 3 0 4 0 0 0 1 $T0 $ebp = $eip $T0 4 + ^ = $ebp $T0 ^ = $esp $T0 8 + =
STACK WIN 4 14e82 11 3 0 4 0 0 0 1 $T0 $ebp = $eip $T0 4 + ^ = $ebp $T0 ^ = $esp $T0 8 + =
STACK WIN 4 14e97 b 3 0 4 0 0 0 1 $T0 $ebp = $eip $T0 4 + ^ = $ebp $T0 ^ = $esp $T0 8 + =
STACK WIN 4 14ea4 e 0 0 0 0 0 0 1 $T0 .raSearch = $eip $T0 ^ = $esp $T0 4 + =
STACK WIN 4 14eb5 f 3 0 4 0 0 0 1 $T0 $ebp = $eip $T0 4 + ^ = $ebp $T0 ^ = $esp $T0 8 + =
STACK WIN 4 14ec7 6 0 0 0 0 0 0 1 $T0 .raSearch = $eip $T0 ^ = $esp $T0 4 + =
STACK WIN 4 14ecd d 3 0 4 0 0 0 1 $T0 $ebp = $eip $T0 4 + ^ = $ebp $T0 ^ = $esp $T0 8 + =
STACK WIN 4 14edd 10 3 0 4 0 0 0 1 $T0 $ebp = $eip $T0 4 + ^ = $ebp $T0 ^ = $esp $T0 8 + =
STACK WIN 4 14ef1 d 0 0 0 0 0 0 1 $T0 .raSearch = $eip $T0 ^ = $esp $T0 4 + =
STACK WIN 4 14f01 5 0 0 10 0 0 0 1 $T0 $ebp = $eip $T0 4 + ^ = $ebp $T0 ^ = $esp $T0 8 + =
STACK WIN 4 14f06 9 3 0 10 0 0 0 1 $T0 $ebp = $eip $T0 4 + ^ = $ebp $T0 ^ = $esp $T0 8 + =
STACK WIN 4 14f11 9 3 0 c 0 0 0 1 $T0 $ebp = $eip $T0 4 + ^ = $ebp $T0 ^ = $esp $T0 8 + =
STACK WIN 4 14f1c e 3 0 4 0 0 0 1 $T0 $ebp = $eip $T0 4 + ^ = $ebp $T0 ^ = $esp $T0 8 + =
STACK WIN 0 14f30 4c 8 0 c 10 0 0 0 1
STACK WIN 4 14f8f 14 3 0 4 0 0 0 1 $T0 $ebp = $eip $T0 4 + ^ = $ebp $T0 ^ = $esp $T0 8 + =
STACK WIN 4 14fa8 12 0 0 0 0 0 0 1 $T0 .raSearch = $eip $T0 ^ = $esp $T0 4 + =
STACK WIN 4 14fbe 1e 3 0 4 0 0 0 1 $T0 $ebp = $eip $T0 4 + ^ = $ebp $T0 ^ = $esp $T0 8 + =
STACK WIN 4 14fe3 1d 1 0 0 4 0 0 1 $T0 .raSearch = $eip $T0 ^ = $esp $T0 4 + =  $23 $T0 4 - ^ =
STACK WIN 4 15007 1d 3 0 c 0 0 0 1 $T0 $ebp = $eip $T0 4 + ^ = $ebp $T0 ^ = $esp $T0 8 + =
STACK WIN 4 1502b e 3 0 c 0 0 0 1 $T0 $ebp = $eip $T0 4 + ^ = $ebp $T0 ^ = $esp $T0 8 + =
STACK WIN 4 1503c a0 c 0 8 10 18 0 1 $T0 $ebp = $eip $T0 4 + ^ = $ebp $T0 ^ = $esp $T0 8 + =  $20 $T0 28 - ^ =  $23 $T0 32 - ^ =  $24 $T0 36 - ^ =
STACK WIN 4 1509c 9 0 0 8 10 18 0 1 $T0 $ebp = $T2 $esp = $T1 .raSearchStart = $eip $T1 ^ = $ebp $T0 = $esp $T1 4 + =
STACK WIN 4 15104 d 3 0 8 0 0 0 1 $T0 $ebp = $eip $T0 4 + ^ = $ebp $T0 ^ = $esp $T0 8 + =
STACK WIN 4 15114 4 0 0 0 0 0 0 1 $T0 .raSearch = $eip $T0 ^ = $esp $T0 4 + =
STACK WIN 4 15118 26 3 0 4 0 0 0 1 $T0 $ebp = $eip $T0 4 + ^ = $ebp $T0 ^ = $esp $T0 8 + =
STACK WIN 4 15147 d 3 0 4 0 0 0 1 $T0 $ebp = $eip $T0 4 + ^ = $ebp $T0 ^ = $esp $T0 8 + =
STACK WIN 4 15157 25 a 0 8 0 0 0 1 $T0 $ebp = $eip $T0 4 + ^ = $ebp $T0 ^ = $esp $T0 8 + =
STACK WIN 4 15161 19 0 0 8 4 0 0 1 $T0 $ebp = $eip $T0 4 + ^ = $ebp $T0 ^ = $esp $T0 8 + =  $23 $T0 4 - ^ =
STACK WIN 4 15185 45 3 0 4 0 0 0 1 $T0 $ebp = $eip $T0 4 + ^ = $ebp $T0 ^ = $esp $T0 8 + =
STACK WIN 4 151db 4c 6 0 4 0 8 0 1 $T0 $ebp = $eip $T0 4 + ^ = $ebp $T0 ^ = $esp $T0 8 + =
STACK WIN 4 151e1 44 0 0 4 4 8 0 1 $T0 $ebp = $eip $T0 4 + ^ = $ebp $T0 ^ = $esp $T0 8 + =  $23 $T0 12 - ^ =
STACK WIN 4 1523a 9 0 0 0 0 0 0 1 $T0 .raSearch = $eip $T0 ^ = $esp $T0 4 + =
STACK WIN 4 15245 9 0 0 0 0 0 0 1 $T0 .raSearch = $eip $T0 ^ = $esp $T0 4 + =
STACK WIN 4 15250 9 0 0 0 0 0 0 1 $T0 .raSearch = $eip $T0 ^ = $esp $T0 4 + =
STACK WIN 4 1525b 5 0 0 0 0 0 0 1 $T0 .raSearch = $eip $T0 ^ = $esp $T0 4 + =
STACK WIN 4 15260 a4 3 0 8 0 0 0 1 $T0 $ebp = $eip $T0 4 + ^ = $ebp $T0 ^ = $esp $T0 8 + =
STACK WIN 4 152a5 52 0 0 8 4 0 0 1 $T0 $ebp = $eip $T0 4 + ^ = $ebp $T0 ^ = $esp $T0 8 + =  $20 $T0 4 - ^ =
STACK WIN 4 152a6 50 0 0 8 8 0 0 1 $T0 $ebp = $eip $T0 4 + ^ = $ebp $T0 ^ = $esp $T0 8 + =  $20 $T0 4 - ^ =  $23 $T0 8 - ^ =
STACK WIN 4 152a7 4e 0 0 8 c 0 0 1 $T0 $ebp = $eip $T0 4 + ^ = $ebp $T0 ^ = $esp $T0 8 + =  $20 $T0 4 - ^ =  $23 $T0 8 - ^ =  $24 $T0 12 - ^ =
STACK WIN 4 152f9 b 0 0 8 c 0 0 1 $T0 $ebp = $eip $T0 4 + ^ = $ebp $T0 ^ = $esp $T0 8 + =  $20 $T0 4 - ^ =  $23 $T0 8 - ^ =  $24 $T0 12 - ^ =
STACK WIN 4 1532d 10 3 0 4 0 0 0 1 $T0 $ebp = $eip $T0 4 + ^ = $ebp $T0 ^ = $esp $T0 8 + =
STACK WIN 4 15341 e 3 0 4 0 0 0 1 $T0 $ebp = $eip $T0 4 + ^ = $ebp $T0 ^ = $esp $T0 8 + =
STACK WIN 4 15352 10 3 0 0 0 0 0 1 $T0 .raSearch = $eip $T0 ^ = $esp $T0 4 + =
STACK WIN 4 15353 e 2 0 0 4 0 0 1 $T0 .raSearch = $eip $T0 ^ = $esp $T0 4 + =  $23 $T0 4 - ^ =
STACK WIN 4 15366 7 0 0 0 0 0 0 1 $T0 .raSearch = $eip $T0 ^ = $esp $T0 4 + =
STACK WIN 4 1536d 6 0 0 0 0 0 0 1 $T0 .raSearch = $eip $T0 ^ = $esp $T0 4 + =
STACK WIN 4 15373 3 0 0 0 0 0 0 1 $T0 .raSearch = $eip $T0 ^ = $esp $T0 4 + =
STACK WIN 4 15376 7 0 0 0 0 0 0 1 $T0 .raSearch = $eip $T0 ^ = $esp $T0 4 + =
STACK WIN 4 1537d 10 3 0 0 0 0 0 1 $T0 .raSearch = $eip $T0 ^ = $esp $T0 4 + =
STACK WIN 4 1537e e 2 0 0 4 0 0 1 $T0 .raSearch = $eip $T0 ^ = $esp $T0 4 + =  $23 $T0 4 - ^ =
STACK WIN 4 15391 63 4 0 8 0 0 0 1 $T0 $ebp = $eip $T0 4 + ^ = $ebp $T0 ^ = $esp $T0 8 + =
STACK WIN 4 15395 5d 0 0 8 4 0 0 1 $T0 $ebp = $eip $T0 4 + ^ = $ebp $T0 ^ = $esp $T0 8 + =  $24 $T0 4 - ^ =
STACK WIN 4 153b1 33 0 0 8 8 0 0 1 $T0 $ebp = $eip $T0 4 + ^ = $ebp $T0 ^ = $esp $T0 8 + =  $24 $T0 4 - ^ =  $20 $T0 8 - ^ =
STACK WIN 4 153b2 31 0 0 8 c 0 0 1 $T0 $ebp = $eip $T0 4 + ^ = $ebp $T0 ^ = $esp $T0 8 + =  $24 $T0 4 - ^ =  $20 $T0 8 - ^ =  $23 $T0 12 - ^ =
STACK WIN 4 1540c 1f 4 0 4 0 0 0 1 $T0 $ebp = $eip $T0 4 + ^ = $ebp $T0 ^ = $esp $T0 8 + =
STACK WIN 4 15410 19 0 0 4 4 0 0 1 $T0 $ebp = $eip $T0 4 + ^ = $ebp $T0 ^ = $esp $T0 8 + =  $23 $T0 4 - ^ =
STACK WIN 4 15432 6d c 0 8 0 20 0 1 $T0 $ebp = $eip $T0 4 + ^ = $ebp $T0 ^ = $esp $T0 8 + =
STACK WIN 4 15439 62 5 0 8 4 20 0 1 $T0 $ebp = $eip $T0 4 + ^ = $ebp $T0 ^ = $esp $T0 8 + =  $20 $T0 36 - ^ =
STACK WIN 4 1543d 5d 1 0 8 8 20 0 1 $T0 $ebp = $eip $T0 4 + ^ = $ebp $T0 ^ = $esp $T0 8 + =  $20 $T0 36 - ^ =  $23 $T0 40 - ^ =
STACK WIN 4 1543e 5b 0 0 8 c 20 0 1 $T0 $ebp = $eip $T0 4 + ^ = $ebp $T0 ^ = $esp $T0 8 + =  $20 $T0 36 - ^ =  $23 $T0 40 - ^ =  $24 $T0 44 - ^ =
STACK WIN 0 154c2 572 2 0 c 8 0 0 0 0
STACK WIN 4 15b91 16 5 0 4 0 0 0 1 $T0 $ebp = $eip $T0 4 + ^ = $ebp $T0 ^ = $esp $T0 8 + =
STACK WIN 4 15bac 1f 5 0 4 0 0 0 1 $T0 $ebp = $eip $T0 4 + ^ = $ebp $T0 ^ = $esp $T0 8 + =
STACK WIN 4 15bd2 11 5 0 8 0 0 0 1 $T0 $ebp = $eip $T0 4 + ^ = $ebp $T0 ^ = $esp $T0 8 + =
STACK WIN 4 15be7 3 0 0 0 0 0 0 1 $T0 .raSearch = $eip $T0 ^ = $esp $T0 4 + =
STACK WIN 4 15bea 3 0 0 0 0 0 0 1 $T0 .raSearch = $eip $T0 ^ = $esp $T0 4 + =
STACK WIN 4 15bed 3 0 0 0 0 0 0 1 $T0 .raSearch = $eip $T0 ^ = $esp $T0 4 + =
STACK WIN 4 15bf0 139 1a 0 c 4 328 0 1 $T0 $ebp = $eip $T0 4 + ^ = $ebp $T0 ^ = $esp $T0 8 + =  $24 $T0 812 - ^ =
STACK WIN 4 15d77 f 5 0 4 0 0 0 1 $T0 $ebp = $eip $T0 4 + ^ = $ebp $T0 ^ = $esp $T0 8 + =
STACK WIN 4 15d89 13 0 0 0 0 0 0 1 $T0 .raSearch = $eip $T0 ^ = $esp $T0 4 + =
STACK WIN 4 15da0 11 0 0 0 0 0 0 1 $T0 .raSearch = $eip $T0 ^ = $esp $T0 4 + =
STACK WIN 4 15db5 64 6 0 14 0 0 0 1 $T0 $ebp = $eip $T0 4 + ^ = $ebp $T0 ^ = $esp $T0 8 + =
STACK WIN 4 15dbb 30 0 0 14 4 0 0 1 $T0 $ebp = $eip $T0 4 + ^ = $ebp $T0 ^ = $esp $T0 8 + =  $23 $T0 4 - ^ =
STACK WIN 4 15e32 10 0 0 0 0 0 0 1 $T0 .raSearch = $eip $T0 ^ = $esp $T0 4 + =
STACK WIN 4 15e46 1d 3 0 0 4 0 0 1 $T0 .raSearch = $eip $T0 ^ = $esp $T0 4 + =  $23 $T0 4 - ^ =
STACK WIN 4 15e6a 34 0 0 14 0 0 0 1 $T0 .raSearch = $eip $T0 ^ = $esp $T0 4 + =
STACK WIN 4 15e7c 21 0 0 14 4 0 0 1 $T0 .raSearch = $eip $T0 ^ = $esp $T0 4 + =  $23 $T0 4 - ^ =
STACK WIN 4 15eab 30 d 0 4 0 0 0 1 $T0 $ebp = $eip $T0 4 + ^ = $ebp $T0 ^ = $esp $T0 8 + =
STACK WIN 4 15eb1 28 7 0 4 4 0 0 1 $T0 $ebp = $eip $T0 4 + ^ = $ebp $T0 ^ = $esp $T0 8 + =  $23 $T0 4 - ^ =
STACK WIN 4 15eb8 20 0 0 4 8 0 0 1 $T0 $ebp = $eip $T0 4 + ^ = $ebp $T0 ^ = $esp $T0 8 + =  $23 $T0 4 - ^ =  $24 $T0 8 - ^ =
STACK WIN 4 15ee7 1d 5 0 4 0 0 0 1 $T0 $ebp = $eip $T0 4 + ^ = $ebp $T0 ^ = $esp $T0 8 + =
STACK WIN 4 15f0b 45 14 0 8 0 4 0 1 $T0 $ebp = $eip $T0 4 + ^ = $ebp $T0 ^ = $esp $T0 8 + =
STACK WIN 4 15f15 39 a 0 8 4 4 0 1 $T0 $ebp = $eip $T0 4 + ^ = $ebp $T0 ^ = $esp $T0 8 + =  $20 $T0 8 - ^ =
STACK WIN 4 15f16 37 9 0 8 8 4 0 1 $T0 $ebp = $eip $T0 4 + ^ = $ebp $T0 ^ = $esp $T0 8 + =  $20 $T0 8 - ^ =  $23 $T0 12 - ^ =
STACK WIN 4 15f1f 2d 0 0 8 c 4 0 1 $T0 $ebp = $eip $T0 4 + ^ = $ebp $T0 ^ = $esp $T0 8 + =  $20 $T0 8 - ^ =  $23 $T0 12 - ^ =  $24 $T0 16 - ^ =
STACK WIN 4 15f61 2e a 0 8 0 0 0 1 $T0 $ebp = $eip $T0 4 + ^ = $ebp $T0 ^ = $esp $T0 8 + =
STACK WIN 4 15f67 26 4 0 8 4 0 0 1 $T0 $ebp = $eip $T0 4 + ^ = $ebp $T0 ^ = $esp $T0 8 + =  $23 $T0 4 - ^ =
STACK WIN 4 15f6b 21 0 0 8 8 0 0 1 $T0 $ebp = $eip $T0 4 + ^ = $ebp $T0 ^ = $esp $T0 8 + =  $23 $T0 4 - ^ =  $24 $T0 8 - ^ =
STACK WIN 4 15f9a 1b 6 0 4 0 4 0 1 $T0 $ebp = $eip $T0 4 + ^ = $ebp $T0 ^ = $esp $T0 8 + =
STACK WIN 4 15fbb 24 5 0 8 0 0 0 1 $T0 $ebp = $eip $T0 4 + ^ = $ebp $T0 ^ = $esp $T0 8 + =
STACK WIN 4 15fe8 20 5 0 8 0 0 0 1 $T0 $ebp = $eip $T0 4 + ^ = $ebp $T0 ^ = $esp $T0 8 + =
STACK WIN 4 16010 158 9 0 8 0 4 0 1 $T0 $ebp = $eip $T0 4 + ^ = $ebp $T0 ^ = $esp $T0 8 + =
STACK WIN 4 16017 14f 2 0 8 4 4 0 1 $T0 $ebp = $eip $T0 4 + ^ = $ebp $T0 ^ = $esp $T0 8 + =  $20 $T0 8 - ^ =
STACK WIN 4 16018 14d 1 0 8 8 4 0 1 $T0 $ebp = $eip $T0 4 + ^ = $ebp $T0 ^ = $esp $T0 8 + =  $20 $T0 8 - ^ =  $23 $T0 12 - ^ =
STACK WIN 4 16019 14b 0 0 8 c 4 0 1 $T0 $ebp = $eip $T0 4 + ^ = $ebp $T0 ^ = $esp $T0 8 + =  $20 $T0 8 - ^ =  $23 $T0 12 - ^ =  $24 $T0 16 - ^ =
STACK WIN 4 161be 6 0 0 0 0 0 0 1 $T0 .raSearch = $eip $T0 ^ = $esp $T0 4 + =
STACK WIN 4 161c4 4d c 0 c 10 18 0 1 $T0 $ebp = $eip $T0 4 + ^ = $ebp $T0 ^ = $esp $T0 8 + =  $20 $T0 28 - ^ =  $23 $T0 32 - ^ =  $24 $T0 36 - ^ =
STACK WIN 4 16205 b 0 0 c 10 18 0 1 $T0 $ebp = $T2 $esp = $T1 .raSearchStart = $eip $T1 ^ = $ebp $T0 = $esp $T1 4 + =
STACK WIN 4 16224 26 8 0 8 0 c 0 1 $T0 $ebp = $eip $T0 4 + ^ = $ebp $T0 ^ = $esp $T0 8 + =
STACK WIN 4 16253 16 5 0 4 0 0 0 1 $T0 $ebp = $eip $T0 4 + ^ = $ebp $T0 ^ = $esp $T0 8 + =
STACK WIN 4 1626e 1f 5 0 4 0 0 0 1 $T0 $ebp = $eip $T0 4 + ^ = $ebp $T0 ^ = $esp $T0 8 + =
STACK WIN 4 16294 13 5 0 8 0 0 0 1 $T0 $ebp = $eip $T0 4 + ^ = $ebp $T0 ^ = $esp $T0 8 + =
STACK WIN 4 162ab d 5 0 4 0 0 0 1 $T0 $ebp = $eip $T0 4 + ^ = $ebp $T0 ^ = $esp $T0 8 + =
STACK WIN 4 162bb 12 5 0 4 0 0 0 1 $T0 $ebp = $eip $T0 4 + ^ = $ebp $T0 ^ = $esp $T0 8 + =
STACK WIN 4 162d1 12 5 0 4 0 0 0 1 $T0 $ebp = $eip $T0 4 + ^ = $ebp $T0 ^ = $esp $T0 8 + =
STACK WIN 4 162e7 1c 5 0 c 0 0 0 1 $T0 $ebp = $eip $T0 4 + ^ = $ebp $T0 ^ = $esp $T0 8 + =
STACK WIN 4 1630a 10 5 0 4 0 0 0 1 $T0 $ebp = $eip $T0 4 + ^ = $ebp $T0 ^ = $esp $T0 8 + =
STACK WIN 4 1631e 17 5 0 0 0 0 0 1 $T0 .raSearch = $eip $T0 ^ = $esp $T0 4 + =
STACK WIN 4 16321 13 2 0 0 4 0 0 1 $T0 .raSearch = $eip $T0 ^ = $esp $T0 4 + =  $23 $T0 4 - ^ =
STACK WIN 4 1633a 9 0 0 0 0 0 0 1 $T0 .raSearch = $eip $T0 ^ = $esp $T0 4 + =
STACK WIN 4 16345 9 0 0 0 0 0 0 1 $T0 .raSearch = $eip $T0 ^ = $esp $T0 4 + =
STACK WIN 4 16350 da e 0 0 10 18 0 1 $T0 $ebp = $eip $T0 4 + ^ = $ebp $T0 ^ = $esp $T0 8 + =  $20 $T0 28 - ^ =  $23 $T0 32 - ^ =  $24 $T0 36 - ^ =
STACK WIN 4 16411 10 0 0 0 10 18 0 1 $T0 $ebp = $T2 $esp = $T1 .raSearchStart = $eip $T1 ^ = $ebp $T0 = $esp $T1 4 + =
STACK WIN 4 16460 4 0 0 0 0 0 0 1 $T0 .raSearch = $eip $T0 ^ = $esp $T0 4 + =
STACK WIN 4 16464 13 5 0 4 0 0 0 1 $T0 $ebp = $eip $T0 4 + ^ = $ebp $T0 ^ = $esp $T0 8 + =
STACK WIN 4 1647b 17 5 0 0 0 0 0 1 $T0 .raSearch = $eip $T0 ^ = $esp $T0 4 + =
STACK WIN 4 1647e 13 2 0 0 4 0 0 1 $T0 .raSearch = $eip $T0 ^ = $esp $T0 4 + =  $23 $T0 4 - ^ =
STACK WIN 4 16497 15 5 0 4 0 0 0 1 $T0 $ebp = $eip $T0 4 + ^ = $ebp $T0 ^ = $esp $T0 8 + =
STACK WIN 4 164b1 64 8 0 c 0 18 0 1 $T0 $ebp = $eip $T0 4 + ^ = $ebp $T0 ^ = $esp $T0 8 + =
STACK WIN 4 1652e 42 5 0 4 0 0 0 1 $T0 $ebp = $eip $T0 4 + ^ = $ebp $T0 ^ = $esp $T0 8 + =
STACK WIN 4 16580 3 0 0 0 0 0 0 1 $T0 .raSearch = $eip $T0 ^ = $esp $T0 4 + =
STACK WIN 4 16583 3 0 0 0 0 0 0 1 $T0 .raSearch = $eip $T0 ^ = $esp $T0 4 + =
STACK WIN 4 16586 3 0 0 0 0 0 0 1 $T0 .raSearch = $eip $T0 ^ = $esp $T0 4 + =
STACK WIN 4 16589 43 0 0 0 0 0 0 1 $T0 .raSearch = $eip $T0 ^ = $esp $T0 4 + =
STACK WIN 4 165dc 22 0 0 0 0 0 0 1 $T0 .raSearch = $eip $T0 ^ = $esp $T0 4 + =
STACK WIN 4 16606 53 6 0 4 0 4 0 1 $T0 $ebp = $eip $T0 4 + ^ = $ebp $T0 ^ = $esp $T0 8 + =
STACK WIN 4 16626 22 0 0 4 4 4 0 1 $T0 $ebp = $eip $T0 4 + ^ = $ebp $T0 ^ = $esp $T0 8 + =  $23 $T0 8 - ^ =
STACK WIN 4 1666d 16 5 0 4 0 0 0 1 $T0 $ebp = $eip $T0 4 + ^ = $ebp $T0 ^ = $esp $T0 8 + =
STACK WIN 4 16688 f 5 0 4 0 0 0 1 $T0 $ebp = $eip $T0 4 + ^ = $ebp $T0 ^ = $esp $T0 8 + =
STACK WIN 4 1669a f 0 0 0 0 0 0 1 $T0 .raSearch = $eip $T0 ^ = $esp $T0 4 + =
STACK WIN 4 166ac f 0 0 0 0 0 0 1 $T0 .raSearch = $eip $T0 ^ = $esp $T0 4 + =
STACK WIN 4 166be 16 5 0 4 0 0 0 1 $T0 $ebp = $eip $T0 4 + ^ = $ebp $T0 ^ = $esp $T0 8 + =
STACK WIN 4 166d9 7 0 0 0 0 0 0 1 $T0 .raSearch = $eip $T0 ^ = $esp $T0 4 + =
STACK WIN 4 166e0 26 5 0 4 0 0 0 1 $T0 $ebp = $eip $T0 4 + ^ = $ebp $T0 ^ = $esp $T0 8 + =
STACK WIN 4 1670f 16 5 0 4 0 0 0 1 $T0 $ebp = $eip $T0 4 + ^ = $ebp $T0 ^ = $esp $T0 8 + =
STACK WIN 4 1672a 16 5 0 4 0 0 0 1 $T0 $ebp = $eip $T0 4 + ^ = $ebp $T0 ^ = $esp $T0 8 + =
STACK WIN 4 16745 12 5 0 4 0 0 0 1 $T0 $ebp = $eip $T0 4 + ^ = $ebp $T0 ^ = $esp $T0 8 + =
STACK WIN 4 1675b 12 5 0 4 0 0 0 1 $T0 $ebp = $eip $T0 4 + ^ = $ebp $T0 ^ = $esp $T0 8 + =
STACK WIN 4 16771 12 5 0 4 0 0 0 1 $T0 $ebp = $eip $T0 4 + ^ = $ebp $T0 ^ = $esp $T0 8 + =
STACK WIN 4 16787 136 9 0 4 0 10 0 1 $T0 $ebp = $eip $T0 4 + ^ = $ebp $T0 ^ = $esp $T0 8 + =
STACK WIN 4 16790 12b 0 0 4 4 10 0 1 $T0 $ebp = $eip $T0 4 + ^ = $ebp $T0 ^ = $esp $T0 8 + =  $20 $T0 20 - ^ =
STACK WIN 4 1679f 11b 0 0 4 8 10 0 1 $T0 $ebp = $eip $T0 4 + ^ = $ebp $T0 ^ = $esp $T0 8 + =  $20 $T0 20 - ^ =  $23 $T0 24 - ^ =
STACK WIN 4 167c0 f9 0 0 4 c 10 0 1 $T0 $ebp = $eip $T0 4 + ^ = $ebp $T0 ^ = $esp $T0 8 + =  $20 $T0 20 - ^ =  $23 $T0 24 - ^ =  $24 $T0 28 - ^ =
STACK WIN 4 1690a 12f 9 0 4 0 10 0 1 $T0 $ebp = $eip $T0 4 + ^ = $ebp $T0 ^ = $esp $T0 8 + =
STACK WIN 4 16913 124 0 0 4 4 10 0 1 $T0 $ebp = $eip $T0 4 + ^ = $ebp $T0 ^ = $esp $T0 8 + =  $20 $T0 20 - ^ =
STACK WIN 4 16922 114 0 0 4 8 10 0 1 $T0 $ebp = $eip $T0 4 + ^ = $ebp $T0 ^ = $esp $T0 8 + =  $20 $T0 20 - ^ =  $23 $T0 24 - ^ =
STACK WIN 4 16943 f2 0 0 4 c 10 0 1 $T0 $ebp = $eip $T0 4 + ^ = $ebp $T0 ^ = $esp $T0 8 + =  $20 $T0 20 - ^ =  $23 $T0 24 - ^ =  $24 $T0 28 - ^ =
STACK WIN 4 16a84 1c 5 0 c 0 0 0 1 $T0 $ebp = $eip $T0 4 + ^ = $ebp $T0 ^ = $esp $T0 8 + =
STACK WIN 4 16aa7 1a 5 0 c 0 0 0 1 $T0 $ebp = $eip $T0 4 + ^ = $ebp $T0 ^ = $esp $T0 8 + =
STACK WIN 4 16ac7 177 12 0 14 0 4 0 1 $T0 $ebp = $eip $T0 4 + ^ = $ebp $T0 ^ = $esp $T0 8 + =
STACK WIN 4 16ad1 15f 8 0 14 4 4 0 1 $T0 $ebp = $eip $T0 4 + ^ = $ebp $T0 ^ = $esp $T0 8 + =  $20 $T0 8 - ^ =
STACK WIN 4 16ad5 15a 4 0 14 8 4 0 1 $T0 $ebp = $eip $T0 4 + ^ = $ebp $T0 ^ = $esp $T0 8 + =  $20 $T0 8 - ^ =  $23 $T0 12 - ^ =
STACK WIN 4 16ad9 155 0 0 14 c 4 0 1 $T0 $ebp = $eip $T0 4 + ^ = $ebp $T0 ^ = $esp $T0 8 + =  $20 $T0 8 - ^ =  $23 $T0 12 - ^ =  $24 $T0 16 - ^ =
STACK WIN 4 16c9b 195 16 0 14 0 10 0 1 $T0 $ebp = $eip $T0 4 + ^ = $ebp $T0 ^ = $esp $T0 8 + =
STACK WIN 4 16cad 17f 4 0 14 4 10 0 1 $T0 $ebp = $eip $T0 4 + ^ = $ebp $T0 ^ = $esp $T0 8 + =  $23 $T0 20 - ^ =
STACK WIN 4 16cb1 17a 0 0 14 8 10 0 1 $T0 $ebp = $eip $T0 4 + ^ = $ebp $T0 ^ = $esp $T0 8 + =  $23 $T0 20 - ^ =  $24 $T0 24 - ^ =
STACK WIN 4 16cca 156 0 0 14 c 10 0 1 $T0 $ebp = $eip $T0 4 + ^ = $ebp $T0 ^ = $esp $T0 8 + =  $23 $T0 20 - ^ =  $24 $T0 24 - ^ =  $20 $T0 28 - ^ =
STACK WIN 4 16e95 11 5 0 4 0 0 0 1 $T0 $ebp = $eip $T0 4 + ^ = $ebp $T0 ^ = $esp $T0 8 + =
STACK WIN 4 16eaa 11 5 0 4 0 0 0 1 $T0 $ebp = $eip $T0 4 + ^ = $ebp $T0 ^ = $esp $T0 8 + =
STACK WIN 4 16ebf 10 5 0 4 0 0 0 1 $T0 $ebp = $eip $T0 4 + ^ = $ebp $T0 ^ = $esp $T0 8 + =
STACK WIN 4 16ed3 10 5 0 4 0 0 0 1 $T0 $ebp = $eip $T0 4 + ^ = $ebp $T0 ^ = $esp $T0 8 + =
STACK WIN 4 16ee7 10 5 0 4 0 0 0 1 $T0 $ebp = $eip $T0 4 + ^ = $ebp $T0 ^ = $esp $T0 8 + =
STACK WIN 4 16efb 10 5 0 4 0 0 0 1 $T0 $ebp = $eip $T0 4 + ^ = $ebp $T0 ^ = $esp $T0 8 + =
STACK WIN 4 16f0f 10 5 0 4 0 0 0 1 $T0 $ebp = $eip $T0 4 + ^ = $ebp $T0 ^ = $esp $T0 8 + =
STACK WIN 4 16f23 12 5 0 0 0 0 0 1 $T0 .raSearch = $eip $T0 ^ = $esp $T0 4 + =
STACK WIN 4 16f26 e 2 0 0 4 0 0 1 $T0 .raSearch = $eip $T0 ^ = $esp $T0 4 + =  $23 $T0 4 - ^ =
STACK WIN 4 16f39 12 5 0 0 0 0 0 1 $T0 .raSearch = $eip $T0 ^ = $esp $T0 4 + =
STACK WIN 4 16f3c e 2 0 0 4 0 0 1 $T0 .raSearch = $eip $T0 ^ = $esp $T0 4 + =  $23 $T0 4 - ^ =
STACK WIN 4 16f4f 12 5 0 0 0 0 0 1 $T0 .raSearch = $eip $T0 ^ = $esp $T0 4 + =
STACK WIN 4 16f52 e 2 0 0 4 0 0 1 $T0 .raSearch = $eip $T0 ^ = $esp $T0 4 + =  $23 $T0 4 - ^ =
STACK WIN 4 16f65 7 0 0 0 0 0 0 1 $T0 .raSearch = $eip $T0 ^ = $esp $T0 4 + =
STACK WIN 4 16f6c 16 0 0 0 0 0 0 1 $T0 .raSearch = $eip $T0 ^ = $esp $T0 4 + =
STACK WIN 4 16f87 16 0 0 0 0 0 0 1 $T0 .raSearch = $eip $T0 ^ = $esp $T0 4 + =
STACK WIN 4 16fa2 6 0 0 0 0 0 0 1 $T0 .raSearch = $eip $T0 ^ = $esp $T0 4 + =
STACK WIN 4 16fa8 6 0 0 0 0 0 0 1 $T0 .raSearch = $eip $T0 ^ = $esp $T0 4 + =
STACK WIN 4 16fae 6 0 0 0 0 0 0 1 $T0 .raSearch = $eip $T0 ^ = $esp $T0 4 + =
STACK WIN 4 16fb4 5 0 0 4 0 0 0 1 $T0 .raSearch = $eip $T0 ^ = $esp $T0 4 + =
STACK WIN 4 16fb9 3 0 0 4 0 0 0 1 $T0 .raSearch = $eip $T0 ^ = $esp $T0 4 + =
STACK WIN 4 16fbc b 5 0 8 0 0 0 1 $T0 $ebp = $eip $T0 4 + ^ = $ebp $T0 ^ = $esp $T0 8 + =
STACK WIN 4 16fc9 b 5 0 8 0 0 0 1 $T0 $ebp = $eip $T0 4 + ^ = $ebp $T0 ^ = $esp $T0 8 + =
STACK WIN 4 16fd6 3 0 0 0 0 0 0 1 $T0 .raSearch = $eip $T0 ^ = $esp $T0 4 + =
STACK WIN 4 16fd9 3 0 0 0 0 0 0 1 $T0 .raSearch = $eip $T0 ^ = $esp $T0 4 + =
STACK WIN 4 16fdc 3 0 0 0 0 0 0 1 $T0 .raSearch = $eip $T0 ^ = $esp $T0 4 + =
STACK WIN 4 16fdf 3 0 0 0 0 0 0 1 $T0 .raSearch = $eip $T0 ^ = $esp $T0 4 + =
STACK WIN 4 16fe2 3 0 0 0 0 0 0 1 $T0 .raSearch = $eip $T0 ^ = $esp $T0 4 + =
STACK WIN 4 16fe5 6 0 0 4 0 0 0 1 $T0 .raSearch = $eip $T0 ^ = $esp $T0 4 + =
STACK WIN 4 16feb 6 0 0 4 0 0 0 1 $T0 .raSearch = $eip $T0 ^ = $esp $T0 4 + =
STACK WIN 4 16ff1 6 0 0 4 0 0 0 1 $T0 .raSearch = $eip $T0 ^ = $esp $T0 4 + =
STACK WIN 4 16ff7 6 0 0 4 0 0 0 1 $T0 .raSearch = $eip $T0 ^ = $esp $T0 4 + =
STACK WIN 4 16ffd 7 0 0 0 0 0 0 1 $T0 .raSearch = $eip $T0 ^ = $esp $T0 4 + =
STACK WIN 4 17004 12 5 0 0 0 0 0 1 $T0 .raSearch = $eip $T0 ^ = $esp $T0 4 + =
STACK WIN 4 17007 e 2 0 0 4 0 0 1 $T0 .raSearch = $eip $T0 ^ = $esp $T0 4 + =  $23 $T0 4 - ^ =
STACK WIN 4 1701a 12 5 0 0 0 0 0 1 $T0 .raSearch = $eip $T0 ^ = $esp $T0 4 + =
STACK WIN 4 1701d e 2 0 0 4 0 0 1 $T0 .raSearch = $eip $T0 ^ = $esp $T0 4 + =  $23 $T0 4 - ^ =
STACK WIN 4 17030 12 5 0 0 0 0 0 1 $T0 .raSearch = $eip $T0 ^ = $esp $T0 4 + =
STACK WIN 4 17033 e 2 0 0 4 0 0 1 $T0 .raSearch = $eip $T0 ^ = $esp $T0 4 + =  $23 $T0 4 - ^ =
STACK WIN 4 17046 17 5 0 4 0 0 0 1 $T0 $ebp = $eip $T0 4 + ^ = $ebp $T0 ^ = $esp $T0 8 + =
STACK WIN 4 17062 3 0 0 4 0 0 0 1 $T0 .raSearch = $eip $T0 ^ = $esp $T0 4 + =
STACK WIN 4 17065 4f 6 0 c 0 0 0 1 $T0 $ebp = $eip $T0 4 + ^ = $ebp $T0 ^ = $esp $T0 8 + =
STACK WIN 4 1706b 47 0 0 c 4 0 0 1 $T0 $ebp = $eip $T0 4 + ^ = $ebp $T0 ^ = $esp $T0 8 + =  $23 $T0 4 - ^ =
STACK WIN 4 170c7 b 5 0 4 0 0 0 1 $T0 $ebp = $eip $T0 4 + ^ = $ebp $T0 ^ = $esp $T0 8 + =
STACK WIN 4 170d4 b 5 0 4 0 0 0 1 $T0 $ebp = $eip $T0 4 + ^ = $ebp $T0 ^ = $esp $T0 8 + =
STACK WIN 4 170e1 f 5 0 4 0 0 0 1 $T0 $ebp = $eip $T0 4 + ^ = $ebp $T0 ^ = $esp $T0 8 + =
STACK WIN 4 170f3 f 5 0 4 0 0 0 1 $T0 $ebp = $eip $T0 4 + ^ = $ebp $T0 ^ = $esp $T0 8 + =
STACK WIN 4 17105 12 5 0 4 0 0 0 1 $T0 $ebp = $eip $T0 4 + ^ = $ebp $T0 ^ = $esp $T0 8 + =
STACK WIN 4 1711b 14 0 0 0 0 0 0 1 $T0 .raSearch = $eip $T0 ^ = $esp $T0 4 + =
STACK WIN 4 17134 14 0 0 0 0 0 0 1 $T0 .raSearch = $eip $T0 ^ = $esp $T0 4 + =
STACK WIN 4 1714d 2c 0 0 0 0 0 0 1 $T0 .raSearch = $eip $T0 ^ = $esp $T0 4 + =
STACK WIN 4 17184 2c 0 0 0 0 0 0 1 $T0 .raSearch = $eip $T0 ^ = $esp $T0 4 + =
STACK WIN 4 171bb 53 0 0 0 0 0 0 1 $T0 .raSearch = $eip $T0 ^ = $esp $T0 4 + =
STACK WIN 4 171c8 45 0 0 0 4 0 0 1 $T0 .raSearch = $eip $T0 ^ = $esp $T0 4 + =  $23 $T0 4 - ^ =
STACK WIN 4 171c9 43 0 0 0 8 0 0 1 $T0 .raSearch = $eip $T0 ^ = $esp $T0 4 + =  $23 $T0 4 - ^ =  $24 $T0 8 - ^ =
STACK WIN 4 17222 4e 0 0 0 0 0 0 1 $T0 .raSearch = $eip $T0 ^ = $esp $T0 4 + =
STACK WIN 4 1722f 40 0 0 0 4 0 0 1 $T0 .raSearch = $eip $T0 ^ = $esp $T0 4 + =  $23 $T0 4 - ^ =
STACK WIN 4 17230 3e 0 0 0 8 0 0 1 $T0 .raSearch = $eip $T0 ^ = $esp $T0 4 + =  $23 $T0 4 - ^ =  $24 $T0 8 - ^ =
STACK WIN 4 17283 34 6 0 4 0 0 0 1 $T0 $ebp = $eip $T0 4 + ^ = $ebp $T0 ^ = $esp $T0 8 + =
STACK WIN 4 17289 2c 0 0 4 4 0 0 1 $T0 $ebp = $eip $T0 4 + ^ = $ebp $T0 ^ = $esp $T0 8 + =  $23 $T0 4 - ^ =
STACK WIN 4 17295 1d 0 0 4 8 0 0 1 $T0 $ebp = $eip $T0 4 + ^ = $ebp $T0 ^ = $esp $T0 8 + =  $23 $T0 4 - ^ =  $24 $T0 8 - ^ =
STACK WIN 4 172c4 49 7 0 4 0 0 0 1 $T0 $ebp = $eip $T0 4 + ^ = $ebp $T0 ^ = $esp $T0 8 + =
STACK WIN 4 172ca 41 1 0 4 4 0 0 1 $T0 $ebp = $eip $T0 4 + ^ = $ebp $T0 ^ = $esp $T0 8 + =  $20 $T0 4 - ^ =
STACK WIN 4 172cb 3d 0 0 4 8 0 0 1 $T0 $ebp = $eip $T0 4 + ^ = $ebp $T0 ^ = $esp $T0 8 + =  $20 $T0 4 - ^ =  $23 $T0 8 - ^ =
STACK WIN 4 172db 2c 0 0 4 c 0 0 1 $T0 $ebp = $eip $T0 4 + ^ = $ebp $T0 ^ = $esp $T0 8 + =  $20 $T0 4 - ^ =  $23 $T0 8 - ^ =  $24 $T0 12 - ^ =
STACK WIN 4 1731f d0 f 0 4 0 8 0 1 $T0 $ebp = $eip $T0 4 + ^ = $ebp $T0 ^ = $esp $T0 8 + =
STACK WIN 4 17327 b9 7 0 4 4 8 0 1 $T0 $ebp = $eip $T0 4 + ^ = $ebp $T0 ^ = $esp $T0 8 + =  $20 $T0 12 - ^ =
STACK WIN 4 1732d b2 1 0 4 8 8 0 1 $T0 $ebp = $eip $T0 4 + ^ = $ebp $T0 ^ = $esp $T0 8 + =  $20 $T0 12 - ^ =  $23 $T0 16 - ^ =
STACK WIN 4 1732e b0 0 0 4 c 8 0 1 $T0 $ebp = $eip $T0 4 + ^ = $ebp $T0 ^ = $esp $T0 8 + =  $20 $T0 12 - ^ =  $23 $T0 16 - ^ =  $24 $T0 20 - ^ =
STACK WIN 4 17423 10d 15 0 4 0 c 0 1 $T0 $ebp = $eip $T0 4 + ^ = $ebp $T0 ^ = $esp $T0 8 + =
STACK WIN 4 1742c f5 c 0 4 4 c 0 1 $T0 $ebp = $eip $T0 4 + ^ = $ebp $T0 ^ = $esp $T0 8 + =  $20 $T0 16 - ^ =
STACK WIN 4 17437 e9 1 0 4 8 c 0 1 $T0 $ebp = $eip $T0 4 + ^ = $ebp $T0 ^ = $esp $T0 8 + =  $20 $T0 16 - ^ =  $23 $T0 20 - ^ =
STACK WIN 4 17438 e7 0 0 4 c c 0 1 $T0 $ebp = $eip $T0 4 + ^ = $ebp $T0 ^ = $esp $T0 8 + =  $20 $T0 16 - ^ =  $23 $T0 20 - ^ =  $24 $T0 24 - ^ =
STACK WIN 4 17573 2f 6 0 4 0 0 0 1 $T0 $ebp = $eip $T0 4 + ^ = $ebp $T0 ^ = $esp $T0 8 + =
STACK WIN 4 17579 27 0 0 4 4 0 0 1 $T0 $ebp = $eip $T0 4 + ^ = $ebp $T0 ^ = $esp $T0 8 + =  $23 $T0 4 - ^ =
STACK WIN 4 17583 1c 0 0 4 8 0 0 1 $T0 $ebp = $eip $T0 4 + ^ = $ebp $T0 ^ = $esp $T0 8 + =  $23 $T0 4 - ^ =  $24 $T0 8 - ^ =
STACK WIN 4 175ad 2f 6 0 4 0 0 0 1 $T0 $ebp = $eip $T0 4 + ^ = $ebp $T0 ^ = $esp $T0 8 + =
STACK WIN 4 175b3 27 0 0 4 4 0 0 1 $T0 $ebp = $eip $T0 4 + ^ = $ebp $T0 ^ = $esp $T0 8 + =  $23 $T0 4 - ^ =
STACK WIN 4 175bd 1c 0 0 4 8 0 0 1 $T0 $ebp = $eip $T0 4 + ^ = $ebp $T0 ^ = $esp $T0 8 + =  $23 $T0 4 - ^ =  $24 $T0 8 - ^ =
STACK WIN 4 175e7 5 0 0 0 0 0 0 1 $T0 .raSearch = $eip $T0 ^ = $esp $T0 4 + =
STACK WIN 4 175ec 5 0 0 0 0 0 0 1 $T0 .raSearch = $eip $T0 ^ = $esp $T0 4 + =
STACK WIN 4 175f1 83 5 0 0 0 0 0 1 $T0 .raSearch = $eip $T0 ^ = $esp $T0 4 + =
STACK WIN 4 175f4 7f 2 0 0 4 0 0 1 $T0 .raSearch = $eip $T0 ^ = $esp $T0 4 + =  $20 $T0 4 - ^ =
STACK WIN 4 175f5 7d 1 0 0 8 0 0 1 $T0 .raSearch = $eip $T0 ^ = $esp $T0 4 + =  $20 $T0 4 - ^ =  $23 $T0 8 - ^ =
STACK WIN 4 175f6 7b 0 0 0 c 0 0 1 $T0 .raSearch = $eip $T0 ^ = $esp $T0 4 + =  $20 $T0 4 - ^ =  $23 $T0 8 - ^ =  $24 $T0 12 - ^ =
STACK WIN 4 17694 7d 5 0 0 0 0 0 1 $T0 .raSearch = $eip $T0 ^ = $esp $T0 4 + =
STACK WIN 4 17697 79 2 0 0 4 0 0 1 $T0 .raSearch = $eip $T0 ^ = $esp $T0 4 + =  $20 $T0 4 - ^ =
STACK WIN 4 17698 77 1 0 0 8 0 0 1 $T0 .raSearch = $eip $T0 ^ = $esp $T0 4 + =  $20 $T0 4 - ^ =  $23 $T0 8 - ^ =
STACK WIN 4 17699 75 0 0 0 c 0 0 1 $T0 .raSearch = $eip $T0 ^ = $esp $T0 4 + =  $20 $T0 4 - ^ =  $23 $T0 8 - ^ =  $24 $T0 12 - ^ =
STACK WIN 4 17730 18 5 0 8 0 0 0 1 $T0 $ebp = $eip $T0 4 + ^ = $ebp $T0 ^ = $esp $T0 8 + =
STACK WIN 4 1774e 18 5 0 8 0 0 0 1 $T0 $ebp = $eip $T0 4 + ^ = $ebp $T0 ^ = $esp $T0 8 + =
STACK WIN 4 1776c 1e 5 0 c 0 0 0 1 $T0 $ebp = $eip $T0 4 + ^ = $ebp $T0 ^ = $esp $T0 8 + =
STACK WIN 4 17791 1e 5 0 c 0 0 0 1 $T0 $ebp = $eip $T0 4 + ^ = $ebp $T0 ^ = $esp $T0 8 + =
STACK WIN 4 177b6 18 5 0 4 0 0 0 1 $T0 $ebp = $eip $T0 4 + ^ = $ebp $T0 ^ = $esp $T0 8 + =
STACK WIN 4 177d4 1e 5 0 4 0 0 0 1 $T0 $ebp = $eip $T0 4 + ^ = $ebp $T0 ^ = $esp $T0 8 + =
STACK WIN 4 177f9 29 8 0 4 0 0 0 1 $T0 $ebp = $eip $T0 4 + ^ = $ebp $T0 ^ = $esp $T0 8 + =
STACK WIN 4 177ff 1f 2 0 4 4 0 0 1 $T0 $ebp = $eip $T0 4 + ^ = $ebp $T0 ^ = $esp $T0 8 + =  $23 $T0 4 - ^ =
STACK WIN 4 17802 1b 0 0 4 8 0 0 1 $T0 $ebp = $eip $T0 4 + ^ = $ebp $T0 ^ = $esp $T0 8 + =  $23 $T0 4 - ^ =  $24 $T0 8 - ^ =
STACK WIN 4 1782c 29 8 0 4 0 0 0 1 $T0 $ebp = $eip $T0 4 + ^ = $ebp $T0 ^ = $esp $T0 8 + =
STACK WIN 4 17832 1f 2 0 4 4 0 0 1 $T0 $ebp = $eip $T0 4 + ^ = $ebp $T0 ^ = $esp $T0 8 + =  $23 $T0 4 - ^ =
STACK WIN 4 17835 1b 0 0 4 8 0 0 1 $T0 $ebp = $eip $T0 4 + ^ = $ebp $T0 ^ = $esp $T0 8 + =  $23 $T0 4 - ^ =  $24 $T0 8 - ^ =
STACK WIN 4 1785f 1b 5 0 4 0 0 0 1 $T0 $ebp = $eip $T0 4 + ^ = $ebp $T0 ^ = $esp $T0 8 + =
STACK WIN 4 17880 1b 5 0 4 0 0 0 1 $T0 $ebp = $eip $T0 4 + ^ = $ebp $T0 ^ = $esp $T0 8 + =
STACK WIN 4 178a1 10 5 0 4 0 0 0 1 $T0 $ebp = $eip $T0 4 + ^ = $ebp $T0 ^ = $esp $T0 8 + =
STACK WIN 4 178b5 12 5 0 0 0 0 0 1 $T0 .raSearch = $eip $T0 ^ = $esp $T0 4 + =
STACK WIN 4 178b8 e 2 0 0 4 0 0 1 $T0 .raSearch = $eip $T0 ^ = $esp $T0 4 + =  $23 $T0 4 - ^ =
STACK WIN 4 178cb 7 0 0 0 0 0 0 1 $T0 .raSearch = $eip $T0 ^ = $esp $T0 4 + =
STACK WIN 4 178d2 7 0 0 0 0 0 0 1 $T0 .raSearch = $eip $T0 ^ = $esp $T0 4 + =
STACK WIN 4 178d9 7 0 0 0 0 0 0 1 $T0 .raSearch = $eip $T0 ^ = $esp $T0 4 + =
STACK WIN 4 178e0 1c 5 0 8 0 0 0 1 $T0 $ebp = $eip $T0 4 + ^ = $ebp $T0 ^ = $esp $T0 8 + =
STACK WIN 4 17903 1e 5 0 8 0 0 0 1 $T0 $ebp = $eip $T0 4 + ^ = $ebp $T0 ^ = $esp $T0 8 + =
STACK WIN 4 17928 1f 5 0 10 0 0 0 1 $T0 $ebp = $eip $T0 4 + ^ = $ebp $T0 ^ = $esp $T0 8 + =
STACK WIN 4 1794e 22 5 0 10 0 0 0 1 $T0 $ebp = $eip $T0 4 + ^ = $ebp $T0 ^ = $esp $T0 8 + =
STACK WIN 4 17978 6 0 0 0 0 0 0 1 $T0 .raSearch = $eip $T0 ^ = $esp $T0 4 + =
STACK WIN 4 1797e 6 0 0 0 0 0 0 1 $T0 .raSearch = $eip $T0 ^ = $esp $T0 4 + =
STACK WIN 4 17984 3 0 0 0 0 0 0 1 $T0 .raSearch = $eip $T0 ^ = $esp $T0 4 + =
STACK WIN 4 17987 6 0 0 4 0 0 0 1 $T0 .raSearch = $eip $T0 ^ = $esp $T0 4 + =
STACK WIN 4 1798d 6 0 0 4 0 0 0 1 $T0 .raSearch = $eip $T0 ^ = $esp $T0 4 + =
STACK WIN 4 17993 6 0 0 4 0 0 0 1 $T0 .raSearch = $eip $T0 ^ = $esp $T0 4 + =
STACK WIN 4 17999 6 0 0 4 0 0 0 1 $T0 .raSearch = $eip $T0 ^ = $esp $T0 4 + =
STACK WIN 4 1799f 6 0 0 4 0 0 0 1 $T0 .raSearch = $eip $T0 ^ = $esp $T0 4 + =
STACK WIN 4 179a5 6 0 0 4 0 0 0 1 $T0 .raSearch = $eip $T0 ^ = $esp $T0 4 + =
STACK WIN 4 179ab 26 d 0 4 0 0 0 1 $T0 $ebp = $eip $T0 4 + ^ = $ebp $T0 ^ = $esp $T0 8 + =
STACK WIN 4 179b8 15 0 0 4 4 0 0 1 $T0 $ebp = $eip $T0 4 + ^ = $ebp $T0 ^ = $esp $T0 8 + =  $23 $T0 4 - ^ =
STACK WIN 4 179da 26 d 0 4 0 0 0 1 $T0 $ebp = $eip $T0 4 + ^ = $ebp $T0 ^ = $esp $T0 8 + =
STACK WIN 4 179e7 15 0 0 4 4 0 0 1 $T0 $ebp = $eip $T0 4 + ^ = $ebp $T0 ^ = $esp $T0 8 + =  $23 $T0 4 - ^ =
STACK WIN 4 17a09 7 0 0 0 0 0 0 1 $T0 .raSearch = $eip $T0 ^ = $esp $T0 4 + =
STACK WIN 4 17a10 7 0 0 0 0 0 0 1 $T0 .raSearch = $eip $T0 ^ = $esp $T0 4 + =
STACK WIN 4 17a17 7 0 0 0 0 0 0 1 $T0 .raSearch = $eip $T0 ^ = $esp $T0 4 + =
STACK WIN 4 17a1e 5 0 0 4 0 0 0 1 $T0 .raSearch = $eip $T0 ^ = $esp $T0 4 + =
STACK WIN 4 17a23 3 0 0 4 0 0 0 1 $T0 .raSearch = $eip $T0 ^ = $esp $T0 4 + =
STACK WIN 4 17a26 12 5 0 0 0 0 0 1 $T0 .raSearch = $eip $T0 ^ = $esp $T0 4 + =
STACK WIN 4 17a29 e 2 0 0 4 0 0 1 $T0 .raSearch = $eip $T0 ^ = $esp $T0 4 + =  $23 $T0 4 - ^ =
STACK WIN 4 17a3c 3 0 0 0 0 0 0 1 $T0 .raSearch = $eip $T0 ^ = $esp $T0 4 + =
STACK WIN 4 17a3f 3 0 0 0 0 0 0 1 $T0 .raSearch = $eip $T0 ^ = $esp $T0 4 + =
STACK WIN 4 17a42 5 0 0 0 0 0 0 1 $T0 .raSearch = $eip $T0 ^ = $esp $T0 4 + =
STACK WIN 4 17a47 5 0 0 0 0 0 0 1 $T0 .raSearch = $eip $T0 ^ = $esp $T0 4 + =
STACK WIN 4 17a4c 37 0 0 0 0 0 0 1 $T0 .raSearch = $eip $T0 ^ = $esp $T0 4 + =
STACK WIN 4 17a90 6 0 0 0 0 0 0 1 $T0 .raSearch = $eip $T0 ^ = $esp $T0 4 + =
STACK WIN 4 17a96 6 0 0 0 0 0 0 1 $T0 .raSearch = $eip $T0 ^ = $esp $T0 4 + =
STACK WIN 4 17a9c 14 0 0 0 0 0 0 1 $T0 .raSearch = $eip $T0 ^ = $esp $T0 4 + =
STACK WIN 4 17ab5 14 0 0 0 0 0 0 1 $T0 .raSearch = $eip $T0 ^ = $esp $T0 4 + =
STACK WIN 4 17ace 5 0 0 0 0 0 0 1 $T0 .raSearch = $eip $T0 ^ = $esp $T0 4 + =
STACK WIN 4 17ad3 5 0 0 0 0 0 0 1 $T0 .raSearch = $eip $T0 ^ = $esp $T0 4 + =
STACK WIN 4 17ad8 22 5 0 18 0 0 0 1 $T0 $ebp = $eip $T0 4 + ^ = $ebp $T0 ^ = $esp $T0 8 + =
STACK WIN 4 17b02 6 0 0 0 0 0 0 1 $T0 .raSearch = $eip $T0 ^ = $esp $T0 4 + =
STACK WIN 4 17b08 12 5 0 4 0 0 0 1 $T0 $ebp = $eip $T0 4 + ^ = $ebp $T0 ^ = $esp $T0 8 + =
STACK WIN 4 17b1e 5b c 0 c 10 1c 0 1 $T0 $ebp = $eip $T0 4 + ^ = $ebp $T0 ^ = $esp $T0 8 + =  $20 $T0 32 - ^ =  $23 $T0 36 - ^ =  $24 $T0 40 - ^ =
STACK WIN 4 17b6a e 0 0 c 10 1c 0 1 $T0 $ebp = $T2 $esp = $T1 .raSearchStart = $eip $T1 ^ = $ebp $T0 = $esp $T1 4 + =
STACK WIN 4 17b8f 5b c 0 c 10 1c 0 1 $T0 $ebp = $eip $T0 4 + ^ = $ebp $T0 ^ = $esp $T0 8 + =  $20 $T0 32 - ^ =  $23 $T0 36 - ^ =  $24 $T0 40 - ^ =
STACK WIN 4 17bdb e 0 0 c 10 1c 0 1 $T0 $ebp = $T2 $esp = $T1 .raSearchStart = $eip $T1 ^ = $ebp $T0 = $esp $T1 4 + =
STACK WIN 4 17c00 26 8 0 8 0 c 0 1 $T0 $ebp = $eip $T0 4 + ^ = $ebp $T0 ^ = $esp $T0 8 + =
STACK WIN 4 17c2f 26 8 0 8 0 c 0 1 $T0 $ebp = $eip $T0 4 + ^ = $ebp $T0 ^ = $esp $T0 8 + =
STACK WIN 4 17c5e 1f 5 0 4 0 0 0 1 $T0 $ebp = $eip $T0 4 + ^ = $ebp $T0 ^ = $esp $T0 8 + =
STACK WIN 4 17c84 12 5 0 4 0 0 0 1 $T0 $ebp = $eip $T0 4 + ^ = $ebp $T0 ^ = $esp $T0 8 + =
STACK WIN 4 17c9a 12 5 0 4 0 0 0 1 $T0 $ebp = $eip $T0 4 + ^ = $ebp $T0 ^ = $esp $T0 8 + =
STACK WIN 4 17cb0 16 5 0 8 0 0 0 1 $T0 $ebp = $eip $T0 4 + ^ = $ebp $T0 ^ = $esp $T0 8 + =
STACK WIN 4 17ccb 12 5 0 4 0 0 0 1 $T0 $ebp = $eip $T0 4 + ^ = $ebp $T0 ^ = $esp $T0 8 + =
STACK WIN 4 17ce1 12 5 0 4 0 0 0 1 $T0 $ebp = $eip $T0 4 + ^ = $ebp $T0 ^ = $esp $T0 8 + =
STACK WIN 4 17cf7 10 5 0 4 0 0 0 1 $T0 $ebp = $eip $T0 4 + ^ = $ebp $T0 ^ = $esp $T0 8 + =
STACK WIN 4 17d0b 10 5 0 4 0 0 0 1 $T0 $ebp = $eip $T0 4 + ^ = $ebp $T0 ^ = $esp $T0 8 + =
STACK WIN 4 17d1f 12 5 0 0 0 0 0 1 $T0 .raSearch = $eip $T0 ^ = $esp $T0 4 + =
STACK WIN 4 17d22 e 2 0 0 4 0 0 1 $T0 .raSearch = $eip $T0 ^ = $esp $T0 4 + =  $23 $T0 4 - ^ =
STACK WIN 4 17d35 3 0 0 0 0 0 0 1 $T0 .raSearch = $eip $T0 ^ = $esp $T0 4 + =
STACK WIN 4 17d38 9 0 0 0 0 0 0 1 $T0 .raSearch = $eip $T0 ^ = $esp $T0 4 + =
STACK WIN 4 17d43 9 0 0 0 0 0 0 1 $T0 .raSearch = $eip $T0 ^ = $esp $T0 4 + =
STACK WIN 4 17d4e 129 d 0 0 0 c 0 1 $T0 $ebp = $eip $T0 4 + ^ = $ebp $T0 ^ = $esp $T0 8 + =
STACK WIN 4 17d5c 119 0 0 0 4 c 0 1 $T0 $ebp = $eip $T0 4 + ^ = $ebp $T0 ^ = $esp $T0 8 + =  $20 $T0 16 - ^ =
STACK WIN 4 17d5d 117 0 0 0 8 c 0 1 $T0 $ebp = $eip $T0 4 + ^ = $ebp $T0 ^ = $esp $T0 8 + =  $20 $T0 16 - ^ =  $23 $T0 20 - ^ =
STACK WIN 4 17d60 113 0 0 0 c c 0 1 $T0 $ebp = $eip $T0 4 + ^ = $ebp $T0 ^ = $esp $T0 8 + =  $20 $T0 16 - ^ =  $23 $T0 20 - ^ =  $24 $T0 24 - ^ =
STACK WIN 4 17ec1 9 0 0 0 0 0 0 1 $T0 .raSearch = $eip $T0 ^ = $esp $T0 4 + =
STACK WIN 4 17ecc 9 0 0 0 0 0 0 1 $T0 .raSearch = $eip $T0 ^ = $esp $T0 4 + =
STACK WIN 4 17ed7 da f 0 0 0 14 0 1 $T0 $ebp = $eip $T0 4 + ^ = $ebp $T0 ^ = $esp $T0 8 + =
STACK WIN 4 17ee0 cf 6 0 0 4 14 0 1 $T0 $ebp = $eip $T0 4 + ^ = $ebp $T0 ^ = $esp $T0 8 + =  $20 $T0 24 - ^ =
STACK WIN 4 17ee3 cb 3 0 0 8 14 0 1 $T0 $ebp = $eip $T0 4 + ^ = $ebp $T0 ^ = $esp $T0 8 + =  $20 $T0 24 - ^ =  $24 $T0 28 - ^ =
STACK WIN 4 17eff ae 0 0 0 c 14 0 1 $T0 $ebp = $eip $T0 4 + ^ = $ebp $T0 ^ = $esp $T0 8 + =  $20 $T0 24 - ^ =  $24 $T0 28 - ^ =  $23 $T0 32 - ^ =
STACK WIN 4 17fe7 6 0 0 0 0 0 0 1 $T0 .raSearch = $eip $T0 ^ = $esp $T0 4 + =
STACK WIN 4 17fed 12 5 0 0 0 0 0 1 $T0 .raSearch = $eip $T0 ^ = $esp $T0 4 + =
STACK WIN 4 17ff0 e 2 0 0 4 0 0 1 $T0 .raSearch = $eip $T0 ^ = $esp $T0 4 + =  $23 $T0 4 - ^ =
STACK WIN 4 18003 16 5 0 4 0 0 0 1 $T0 $ebp = $eip $T0 4 + ^ = $ebp $T0 ^ = $esp $T0 8 + =
STACK WIN 4 1801e 16 5 0 4 0 0 0 1 $T0 $ebp = $eip $T0 4 + ^ = $ebp $T0 ^ = $esp $T0 8 + =
STACK WIN 4 18039 2d 8 0 4 0 10 0 1 $T0 $ebp = $eip $T0 4 + ^ = $ebp $T0 ^ = $esp $T0 8 + =
STACK WIN 4 18071 29 5 0 4 0 0 0 1 $T0 $ebp = $eip $T0 4 + ^ = $ebp $T0 ^ = $esp $T0 8 + =
STACK WIN 4 180a4 33 8 0 8 0 14 0 1 $T0 $ebp = $eip $T0 4 + ^ = $ebp $T0 ^ = $esp $T0 8 + =
STACK WIN 4 180e3 3 0 0 4 0 0 0 1 $T0 .raSearch = $eip $T0 ^ = $esp $T0 4 + =
STACK WIN 4 180e6 d 0 0 0 0 0 0 1 $T0 .raSearch = $eip $T0 ^ = $esp $T0 4 + =
STACK WIN 4 180f6 1a 0 0 0 0 0 0 1 $T0 .raSearch = $eip $T0 ^ = $esp $T0 4 + =
STACK WIN 4 18116 3 0 0 4 0 0 0 1 $T0 .raSearch = $eip $T0 ^ = $esp $T0 4 + =
STACK WIN 4 18119 3 0 0 0 0 0 0 1 $T0 .raSearch = $eip $T0 ^ = $esp $T0 4 + =
STACK WIN 4 1811c 8 0 0 4 0 0 0 1 $T0 .raSearch = $eip $T0 ^ = $esp $T0 4 + =
STACK WIN 4 18126 3 0 0 0 0 0 0 1 $T0 .raSearch = $eip $T0 ^ = $esp $T0 4 + =
STACK WIN 4 18129 3 0 0 4 0 0 0 1 $T0 .raSearch = $eip $T0 ^ = $esp $T0 4 + =
STACK WIN 4 1812c 2e 3 0 0 0 0 0 1 $T0 .raSearch = $eip $T0 ^ = $esp $T0 4 + =
STACK WIN 4 1812f 2a 0 0 0 4 0 0 1 $T0 .raSearch = $eip $T0 ^ = $esp $T0 4 + =  $23 $T0 4 - ^ =
STACK WIN 4 18165 9 0 0 4 0 0 0 1 $T0 .raSearch = $eip $T0 ^ = $esp $T0 4 + =
STACK WIN 4 18170 17 6 0 4 0 4 0 1 $T0 $ebp = $eip $T0 4 + ^ = $ebp $T0 ^ = $esp $T0 8 + =
STACK WIN 4 1818c 50 3 0 4 0 0 0 1 $T0 .raSearch = $eip $T0 ^ = $esp $T0 4 + =
STACK WIN 4 1818f 4c 0 0 4 4 0 0 1 $T0 .raSearch = $eip $T0 ^ = $esp $T0 4 + =  $23 $T0 4 - ^ =
STACK WIN 4 181f0 24 8 0 4 0 0 0 1 $T0 $ebp = $eip $T0 4 + ^ = $ebp $T0 ^ = $esp $T0 8 + =
STACK WIN 4 181f6 1a 2 0 4 4 0 0 1 $T0 $ebp = $eip $T0 4 + ^ = $ebp $T0 ^ = $esp $T0 8 + =  $23 $T0 4 - ^ =
STACK WIN 4 181f9 16 0 0 4 8 0 0 1 $T0 $ebp = $eip $T0 4 + ^ = $ebp $T0 ^ = $esp $T0 8 + =  $23 $T0 4 - ^ =  $24 $T0 8 - ^ =
STACK WIN 4 1821d 2e 6 0 4 0 0 0 1 $T0 $ebp = $eip $T0 4 + ^ = $ebp $T0 ^ = $esp $T0 8 + =
STACK WIN 4 18223 24 0 0 4 4 0 0 1 $T0 $ebp = $eip $T0 4 + ^ = $ebp $T0 ^ = $esp $T0 8 + =  $23 $T0 4 - ^ =
STACK WIN 4 18232 14 0 0 4 8 0 0 1 $T0 $ebp = $eip $T0 4 + ^ = $ebp $T0 ^ = $esp $T0 8 + =  $23 $T0 4 - ^ =  $24 $T0 8 - ^ =
STACK WIN 4 18256 b 0 0 0 0 0 0 1 $T0 .raSearch = $eip $T0 ^ = $esp $T0 4 + =
STACK WIN 4 18263 26 d 0 4 0 0 0 1 $T0 $ebp = $eip $T0 4 + ^ = $ebp $T0 ^ = $esp $T0 8 + =
STACK WIN 4 18270 15 0 0 4 4 0 0 1 $T0 $ebp = $eip $T0 4 + ^ = $ebp $T0 ^ = $esp $T0 8 + =  $23 $T0 4 - ^ =
STACK WIN 4 18292 12 0 0 0 0 0 0 1 $T0 .raSearch = $eip $T0 ^ = $esp $T0 4 + =
STACK WIN 4 182a8 b 0 0 0 0 0 0 1 $T0 .raSearch = $eip $T0 ^ = $esp $T0 4 + =
STACK WIN 4 182b5 8 0 0 0 0 0 0 1 $T0 .raSearch = $eip $T0 ^ = $esp $T0 4 + =
STACK WIN 4 182bf 30 5 0 4 0 0 0 1 $T0 $ebp = $eip $T0 4 + ^ = $ebp $T0 ^ = $esp $T0 8 + =
STACK WIN 4 182fb 12 5 0 4 0 0 0 1 $T0 $ebp = $eip $T0 4 + ^ = $ebp $T0 ^ = $esp $T0 8 + =
STACK WIN 4 18311 16 5 0 4 0 0 0 1 $T0 $ebp = $eip $T0 4 + ^ = $ebp $T0 ^ = $esp $T0 8 + =
STACK WIN 4 1832c 12 0 0 0 0 0 0 1 $T0 .raSearch = $eip $T0 ^ = $esp $T0 4 + =
STACK WIN 4 18342 20 5 0 4 0 0 0 1 $T0 $ebp = $eip $T0 4 + ^ = $ebp $T0 ^ = $esp $T0 8 + =
STACK WIN 4 1836a 3c c 0 0 10 18 0 1 $T0 $ebp = $eip $T0 4 + ^ = $ebp $T0 ^ = $esp $T0 8 + =  $20 $T0 28 - ^ =  $23 $T0 32 - ^ =  $24 $T0 36 - ^ =
STACK WIN 4 18392 4 0 0 0 10 18 0 1 $T0 $ebp = $T2 $esp = $T1 .raSearchStart = $eip $T1 ^ = $ebp $T0 = $esp $T1 4 + =
STACK WIN 4 183b5 b 5 0 4 0 0 0 1 $T0 $ebp = $eip $T0 4 + ^ = $ebp $T0 ^ = $esp $T0 8 + =
STACK WIN 4 183c2 5a 9 0 c 0 0 0 1 $T0 $ebp = $eip $T0 4 + ^ = $ebp $T0 ^ = $esp $T0 8 + =
STACK WIN 4 183cb 27 0 0 c 4 0 0 1 $T0 $ebp = $eip $T0 4 + ^ = $ebp $T0 ^ = $esp $T0 8 + =  $23 $T0 4 - ^ =
STACK WIN 4 183f5 14 0 0 c 8 0 0 1 $T0 $ebp = $eip $T0 4 + ^ = $ebp $T0 ^ = $esp $T0 8 + =  $23 $T0 4 - ^ =  $24 $T0 8 - ^ =
STACK WIN 4 18432 5a 9 0 c 0 0 0 1 $T0 $ebp = $eip $T0 4 + ^ = $ebp $T0 ^ = $esp $T0 8 + =
STACK WIN 4 1843b 27 0 0 c 4 0 0 1 $T0 $ebp = $eip $T0 4 + ^ = $ebp $T0 ^ = $esp $T0 8 + =  $23 $T0 4 - ^ =
STACK WIN 4 18465 14 0 0 c 8 0 0 1 $T0 $ebp = $eip $T0 4 + ^ = $ebp $T0 ^ = $esp $T0 8 + =  $23 $T0 4 - ^ =  $24 $T0 8 - ^ =
STACK WIN 4 184a2 23 b 0 14 0 0 0 1 $T0 $ebp = $eip $T0 4 + ^ = $ebp $T0 ^ = $esp $T0 8 + =
STACK WIN 4 184a8 19 5 0 14 4 0 0 1 $T0 $ebp = $eip $T0 4 + ^ = $ebp $T0 ^ = $esp $T0 8 + =  $23 $T0 4 - ^ =
STACK WIN 4 184cd 48 b 0 14 0 0 0 1 $T0 $ebp = $eip $T0 4 + ^ = $ebp $T0 ^ = $esp $T0 8 + =
STACK WIN 4 184d3 3e 5 0 14 4 0 0 1 $T0 $ebp = $eip $T0 4 + ^ = $ebp $T0 ^ = $esp $T0 8 + =  $23 $T0 4 - ^ =
STACK WIN 4 18527 35 b 0 14 0 0 0 1 $T0 $ebp = $eip $T0 4 + ^ = $ebp $T0 ^ = $esp $T0 8 + =
STACK WIN 4 18530 28 2 0 14 4 0 0 1 $T0 $ebp = $eip $T0 4 + ^ = $ebp $T0 ^ = $esp $T0 8 + =  $23 $T0 4 - ^ =
STACK WIN 4 18569 23 b 0 14 0 0 0 1 $T0 $ebp = $eip $T0 4 + ^ = $ebp $T0 ^ = $esp $T0 8 + =
STACK WIN 4 1856f 19 5 0 14 4 0 0 1 $T0 $ebp = $eip $T0 4 + ^ = $ebp $T0 ^ = $esp $T0 8 + =  $23 $T0 4 - ^ =
STACK WIN 4 18594 48 b 0 14 0 0 0 1 $T0 $ebp = $eip $T0 4 + ^ = $ebp $T0 ^ = $esp $T0 8 + =
STACK WIN 4 1859a 3e 5 0 14 4 0 0 1 $T0 $ebp = $eip $T0 4 + ^ = $ebp $T0 ^ = $esp $T0 8 + =  $23 $T0 4 - ^ =
STACK WIN 4 185ee 35 b 0 14 0 0 0 1 $T0 $ebp = $eip $T0 4 + ^ = $ebp $T0 ^ = $esp $T0 8 + =
STACK WIN 4 185f7 28 2 0 14 4 0 0 1 $T0 $ebp = $eip $T0 4 + ^ = $ebp $T0 ^ = $esp $T0 8 + =  $23 $T0 4 - ^ =
STACK WIN 4 18630 23 b 0 14 0 0 0 1 $T0 $ebp = $eip $T0 4 + ^ = $ebp $T0 ^ = $esp $T0 8 + =
STACK WIN 4 18636 19 5 0 14 4 0 0 1 $T0 $ebp = $eip $T0 4 + ^ = $ebp $T0 ^ = $esp $T0 8 + =  $23 $T0 4 - ^ =
STACK WIN 4 1865b 48 b 0 14 0 0 0 1 $T0 $ebp = $eip $T0 4 + ^ = $ebp $T0 ^ = $esp $T0 8 + =
STACK WIN 4 18661 3e 5 0 14 4 0 0 1 $T0 $ebp = $eip $T0 4 + ^ = $ebp $T0 ^ = $esp $T0 8 + =  $23 $T0 4 - ^ =
STACK WIN 4 186b5 35 b 0 14 0 0 0 1 $T0 $ebp = $eip $T0 4 + ^ = $ebp $T0 ^ = $esp $T0 8 + =
STACK WIN 4 186be 28 2 0 14 4 0 0 1 $T0 $ebp = $eip $T0 4 + ^ = $ebp $T0 ^ = $esp $T0 8 + =  $23 $T0 4 - ^ =
STACK WIN 4 186f7 23 b 0 14 0 0 0 1 $T0 $ebp = $eip $T0 4 + ^ = $ebp $T0 ^ = $esp $T0 8 + =
STACK WIN 4 186fd 19 5 0 14 4 0 0 1 $T0 $ebp = $eip $T0 4 + ^ = $ebp $T0 ^ = $esp $T0 8 + =  $23 $T0 4 - ^ =
STACK WIN 4 18722 48 b 0 14 0 0 0 1 $T0 $ebp = $eip $T0 4 + ^ = $ebp $T0 ^ = $esp $T0 8 + =
STACK WIN 4 18728 3e 5 0 14 4 0 0 1 $T0 $ebp = $eip $T0 4 + ^ = $ebp $T0 ^ = $esp $T0 8 + =  $23 $T0 4 - ^ =
STACK WIN 4 1877c 35 b 0 14 0 0 0 1 $T0 $ebp = $eip $T0 4 + ^ = $ebp $T0 ^ = $esp $T0 8 + =
STACK WIN 4 18785 28 2 0 14 4 0 0 1 $T0 $ebp = $eip $T0 4 + ^ = $ebp $T0 ^ = $esp $T0 8 + =  $23 $T0 4 - ^ =
STACK WIN 4 187be 5b c 0 c 10 1c 0 1 $T0 $ebp = $eip $T0 4 + ^ = $ebp $T0 ^ = $esp $T0 8 + =  $20 $T0 32 - ^ =  $23 $T0 36 - ^ =  $24 $T0 40 - ^ =
STACK WIN 4 1880a e 0 0 c 10 1c 0 1 $T0 $ebp = $T2 $esp = $T1 .raSearchStart = $eip $T1 ^ = $ebp $T0 = $esp $T1 4 + =
STACK WIN 4 1882f 5b c 0 c 10 1c 0 1 $T0 $ebp = $eip $T0 4 + ^ = $ebp $T0 ^ = $esp $T0 8 + =  $20 $T0 32 - ^ =  $23 $T0 36 - ^ =  $24 $T0 40 - ^ =
STACK WIN 4 1887b e 0 0 c 10 1c 0 1 $T0 $ebp = $T2 $esp = $T1 .raSearchStart = $eip $T1 ^ = $ebp $T0 = $esp $T1 4 + =
STACK WIN 4 188a0 5b c 0 c 10 1c 0 1 $T0 $ebp = $eip $T0 4 + ^ = $ebp $T0 ^ = $esp $T0 8 + =  $20 $T0 32 - ^ =  $23 $T0 36 - ^ =  $24 $T0 40 - ^ =
STACK WIN 4 188ec e 0 0 c 10 1c 0 1 $T0 $ebp = $T2 $esp = $T1 .raSearchStart = $eip $T1 ^ = $ebp $T0 = $esp $T1 4 + =
STACK WIN 4 18911 5b c 0 c 10 1c 0 1 $T0 $ebp = $eip $T0 4 + ^ = $ebp $T0 ^ = $esp $T0 8 + =  $20 $T0 32 - ^ =  $23 $T0 36 - ^ =  $24 $T0 40 - ^ =
STACK WIN 4 1895d e 0 0 c 10 1c 0 1 $T0 $ebp = $T2 $esp = $T1 .raSearchStart = $eip $T1 ^ = $ebp $T0 = $esp $T1 4 + =
STACK WIN 4 18982 5b c 0 c 10 1c 0 1 $T0 $ebp = $eip $T0 4 + ^ = $ebp $T0 ^ = $esp $T0 8 + =  $20 $T0 32 - ^ =  $23 $T0 36 - ^ =  $24 $T0 40 - ^ =
STACK WIN 4 189ce e 0 0 c 10 1c 0 1 $T0 $ebp = $T2 $esp = $T1 .raSearchStart = $eip $T1 ^ = $ebp $T0 = $esp $T1 4 + =
STACK WIN 4 189f3 5b c 0 c 10 1c 0 1 $T0 $ebp = $eip $T0 4 + ^ = $ebp $T0 ^ = $esp $T0 8 + =  $20 $T0 32 - ^ =  $23 $T0 36 - ^ =  $24 $T0 40 - ^ =
STACK WIN 4 18a3f e 0 0 c 10 1c 0 1 $T0 $ebp = $T2 $esp = $T1 .raSearchStart = $eip $T1 ^ = $ebp $T0 = $esp $T1 4 + =
STACK WIN 4 18a64 26 8 0 8 0 c 0 1 $T0 $ebp = $eip $T0 4 + ^ = $ebp $T0 ^ = $esp $T0 8 + =
STACK WIN 4 18a93 26 8 0 8 0 c 0 1 $T0 $ebp = $eip $T0 4 + ^ = $ebp $T0 ^ = $esp $T0 8 + =
STACK WIN 4 18ac2 26 8 0 8 0 c 0 1 $T0 $ebp = $eip $T0 4 + ^ = $ebp $T0 ^ = $esp $T0 8 + =
STACK WIN 4 18af1 26 8 0 8 0 c 0 1 $T0 $ebp = $eip $T0 4 + ^ = $ebp $T0 ^ = $esp $T0 8 + =
STACK WIN 4 18b20 26 8 0 8 0 c 0 1 $T0 $ebp = $eip $T0 4 + ^ = $ebp $T0 ^ = $esp $T0 8 + =
STACK WIN 4 18b4f 26 8 0 8 0 c 0 1 $T0 $ebp = $eip $T0 4 + ^ = $ebp $T0 ^ = $esp $T0 8 + =
STACK WIN 4 18b7e 64 b 0 18 0 20 0 1 $T0 $ebp = $eip $T0 4 + ^ = $ebp $T0 ^ = $esp $T0 8 + =
STACK WIN 4 18bfb 64 b 0 18 0 20 0 1 $T0 $ebp = $eip $T0 4 + ^ = $ebp $T0 ^ = $esp $T0 8 + =
STACK WIN 4 18c78 64 b 0 18 0 20 0 1 $T0 $ebp = $eip $T0 4 + ^ = $ebp $T0 ^ = $esp $T0 8 + =
STACK WIN 4 18cf5 64 b 0 18 0 20 0 1 $T0 $ebp = $eip $T0 4 + ^ = $ebp $T0 ^ = $esp $T0 8 + =
STACK WIN 4 18d72 64 b 0 18 0 20 0 1 $T0 $ebp = $eip $T0 4 + ^ = $ebp $T0 ^ = $esp $T0 8 + =
STACK WIN 4 18def 64 b 0 18 0 20 0 1 $T0 $ebp = $eip $T0 4 + ^ = $ebp $T0 ^ = $esp $T0 8 + =
STACK WIN 4 18e6c e8 6 0 20 0 4 0 1 $T0 $ebp = $eip $T0 4 + ^ = $ebp $T0 ^ = $esp $T0 8 + =
STACK WIN 4 18e8e 8f 0 0 20 4 4 0 1 $T0 $ebp = $eip $T0 4 + ^ = $ebp $T0 ^ = $esp $T0 8 + =  $20 $T0 8 - ^ =
STACK WIN 4 18e92 8a 0 0 20 8 4 0 1 $T0 $ebp = $eip $T0 4 + ^ = $ebp $T0 ^ = $esp $T0 8 + =  $20 $T0 8 - ^ =  $23 $T0 12 - ^ =
STACK WIN 4 18e96 85 0 0 20 c 4 0 1 $T0 $ebp = $eip $T0 4 + ^ = $ebp $T0 ^ = $esp $T0 8 + =  $20 $T0 8 - ^ =  $23 $T0 12 - ^ =  $24 $T0 16 - ^ =
STACK WIN 4 18f8e ec 6 0 20 0 4 0 1 $T0 $ebp = $eip $T0 4 + ^ = $ebp $T0 ^ = $esp $T0 8 + =
STACK WIN 4 18fb0 91 0 0 20 4 4 0 1 $T0 $ebp = $eip $T0 4 + ^ = $ebp $T0 ^ = $esp $T0 8 + =  $20 $T0 8 - ^ =
STACK WIN 4 18fb4 8c 0 0 20 8 4 0 1 $T0 $ebp = $eip $T0 4 + ^ = $ebp $T0 ^ = $esp $T0 8 + =  $20 $T0 8 - ^ =  $23 $T0 12 - ^ =
STACK WIN 4 18fb8 87 0 0 20 c 4 0 1 $T0 $ebp = $eip $T0 4 + ^ = $ebp $T0 ^ = $esp $T0 8 + =  $20 $T0 8 - ^ =  $23 $T0 12 - ^ =  $24 $T0 16 - ^ =
STACK WIN 4 190b5 17e 1d 0 1c 0 484 0 1 $T0 $ebp = $eip $T0 4 + ^ = $ebp $T0 ^ = $esp $T0 8 + =
STACK WIN 4 190d2 13e 0 0 1c 4 484 0 1 $T0 $ebp = $eip $T0 4 + ^ = $ebp $T0 ^ = $esp $T0 8 + =  $20 $T0 1160 - ^ =
STACK WIN 4 190fe 12f 0 0 1c 8 484 0 1 $T0 $ebp = $eip $T0 4 + ^ = $ebp $T0 ^ = $esp $T0 8 + =  $20 $T0 1160 - ^ =  $23 $T0 1164 - ^ =
STACK WIN 4 190ff 108 0 0 1c c 484 0 1 $T0 $ebp = $eip $T0 4 + ^ = $ebp $T0 ^ = $esp $T0 8 + =  $20 $T0 1160 - ^ =  $23 $T0 1164 - ^ =  $24 $T0 1168 - ^ =
STACK WIN 4 19292 187 1d 0 1c 0 484 0 1 $T0 $ebp = $eip $T0 4 + ^ = $ebp $T0 ^ = $esp $T0 8 + =
STACK WIN 4 192af 144 0 0 1c 4 484 0 1 $T0 $ebp = $eip $T0 4 + ^ = $ebp $T0 ^ = $esp $T0 8 + =  $20 $T0 1160 - ^ =
STACK WIN 4 192db 135 0 0 1c 8 484 0 1 $T0 $ebp = $eip $T0 4 + ^ = $ebp $T0 ^ = $esp $T0 8 + =  $20 $T0 1160 - ^ =  $23 $T0 1164 - ^ =
STACK WIN 4 192dc 10e 0 0 1c c 484 0 1 $T0 $ebp = $eip $T0 4 + ^ = $ebp $T0 ^ = $esp $T0 8 + =  $20 $T0 1160 - ^ =  $23 $T0 1164 - ^ =  $24 $T0 1168 - ^ =
STACK WIN 4 1947a 1b0 1d 0 1c 0 af0 0 1 $T0 $ebp = $eip $T0 4 + ^ = $ebp $T0 ^ = $esp $T0 8 + =
STACK WIN 4 19493 174 4 0 1c 4 af0 0 1 $T0 $ebp = $eip $T0 4 + ^ = $ebp $T0 ^ = $esp $T0 8 + =  $20 $T0 2804 - ^ =
STACK WIN 4 19497 18d 0 0 1c 8 af0 0 1 $T0 $ebp = $eip $T0 4 + ^ = $ebp $T0 ^ = $esp $T0 8 + =  $20 $T0 2804 - ^ =  $23 $T0 2808 - ^ =
STACK WIN 4 194c5 12a 0 0 1c c af0 0 1 $T0 $ebp = $eip $T0 4 + ^ = $ebp $T0 ^ = $esp $T0 8 + =  $20 $T0 2804 - ^ =  $23 $T0 2808 - ^ =  $24 $T0 2812 - ^ =
STACK WIN 4 19696 1b9 1d 0 1c 0 af0 0 1 $T0 $ebp = $eip $T0 4 + ^ = $ebp $T0 ^ = $esp $T0 8 + =
STACK WIN 4 196af 17a 4 0 1c 4 af0 0 1 $T0 $ebp = $eip $T0 4 + ^ = $ebp $T0 ^ = $esp $T0 8 + =  $20 $T0 2804 - ^ =
STACK WIN 4 196b3 193 0 0 1c 8 af0 0 1 $T0 $ebp = $eip $T0 4 + ^ = $ebp $T0 ^ = $esp $T0 8 + =  $20 $T0 2804 - ^ =  $23 $T0 2808 - ^ =
STACK WIN 4 196e1 130 0 0 1c c af0 0 1 $T0 $ebp = $eip $T0 4 + ^ = $ebp $T0 ^ = $esp $T0 8 + =  $20 $T0 2804 - ^ =  $23 $T0 2808 - ^ =  $24 $T0 2812 - ^ =
STACK WIN 4 198bd 17e 1d 0 1c 0 484 0 1 $T0 $ebp = $eip $T0 4 + ^ = $ebp $T0 ^ = $esp $T0 8 + =
STACK WIN 4 198da 13e 0 0 1c 4 484 0 1 $T0 $ebp = $eip $T0 4 + ^ = $ebp $T0 ^ = $esp $T0 8 + =  $20 $T0 1160 - ^ =
STACK WIN 4 19906 12f 0 0 1c 8 484 0 1 $T0 $ebp = $eip $T0 4 + ^ = $ebp $T0 ^ = $esp $T0 8 + =  $20 $T0 1160 - ^ =  $23 $T0 1164 - ^ =
STACK WIN 4 19907 108 0 0 1c c 484 0 1 $T0 $ebp = $eip $T0 4 + ^ = $ebp $T0 ^ = $esp $T0 8 + =  $20 $T0 1160 - ^ =  $23 $T0 1164 - ^ =  $24 $T0 1168 - ^ =
STACK WIN 4 19a9a 187 1d 0 1c 0 484 0 1 $T0 $ebp = $eip $T0 4 + ^ = $ebp $T0 ^ = $esp $T0 8 + =
STACK WIN 4 19ab7 144 0 0 1c 4 484 0 1 $T0 $ebp = $eip $T0 4 + ^ = $ebp $T0 ^ = $esp $T0 8 + =  $20 $T0 1160 - ^ =
STACK WIN 4 19ae3 135 0 0 1c 8 484 0 1 $T0 $ebp = $eip $T0 4 + ^ = $ebp $T0 ^ = $esp $T0 8 + =  $20 $T0 1160 - ^ =  $23 $T0 1164 - ^ =
STACK WIN 4 19ae4 10e 0 0 1c c 484 0 1 $T0 $ebp = $eip $T0 4 + ^ = $ebp $T0 ^ = $esp $T0 8 + =  $20 $T0 1160 - ^ =  $23 $T0 1164 - ^ =  $24 $T0 1168 - ^ =
STACK WIN 4 19c82 78 5 0 1c 0 0 0 1 $T0 $ebp = $eip $T0 4 + ^ = $ebp $T0 ^ = $esp $T0 8 + =
STACK WIN 4 19ca3 55 0 0 1c 4 0 0 1 $T0 $ebp = $eip $T0 4 + ^ = $ebp $T0 ^ = $esp $T0 8 + =  $23 $T0 4 - ^ =
STACK WIN 4 19d18 7a 5 0 1c 0 0 0 1 $T0 $ebp = $eip $T0 4 + ^ = $ebp $T0 ^ = $esp $T0 8 + =
STACK WIN 4 19d39 57 0 0 1c 4 0 0 1 $T0 $ebp = $eip $T0 4 + ^ = $ebp $T0 ^ = $esp $T0 8 + =  $23 $T0 4 - ^ =
STACK WIN 4 19db0 18 0 0 0 0 0 0 1 $T0 .raSearch = $eip $T0 ^ = $esp $T0 4 + =
STACK WIN 4 19dce 19 0 0 0 0 0 0 1 $T0 .raSearch = $eip $T0 ^ = $esp $T0 4 + =
STACK WIN 4 19ded d 0 0 0 0 0 0 1 $T0 .raSearch = $eip $T0 ^ = $esp $T0 4 + =
STACK WIN 4 19dfd d 0 0 0 0 0 0 1 $T0 .raSearch = $eip $T0 ^ = $esp $T0 4 + =
STACK WIN 4 19e0d 7d d 0 4 0 4 0 1 $T0 $ebp = $eip $T0 4 + ^ = $ebp $T0 ^ = $esp $T0 8 + =
STACK WIN 4 19e14 72 6 0 4 4 4 0 1 $T0 $ebp = $eip $T0 4 + ^ = $ebp $T0 ^ = $esp $T0 8 + =  $23 $T0 8 - ^ =
STACK WIN 4 19e18 6d 2 0 4 8 4 0 1 $T0 $ebp = $eip $T0 4 + ^ = $ebp $T0 ^ = $esp $T0 8 + =  $23 $T0 8 - ^ =  $24 $T0 12 - ^ =
STACK WIN 4 19e32 52 0 0 4 c 4 0 1 $T0 $ebp = $eip $T0 4 + ^ = $ebp $T0 ^ = $esp $T0 8 + =  $23 $T0 8 - ^ =  $24 $T0 12 - ^ =  $20 $T0 16 - ^ =
STACK WIN 4 19ea9 7e d 0 4 0 4 0 1 $T0 $ebp = $eip $T0 4 + ^ = $ebp $T0 ^ = $esp $T0 8 + =
STACK WIN 4 19eb0 73 6 0 4 4 4 0 1 $T0 $ebp = $eip $T0 4 + ^ = $ebp $T0 ^ = $esp $T0 8 + =  $23 $T0 8 - ^ =
STACK WIN 4 19eb4 6e 2 0 4 8 4 0 1 $T0 $ebp = $eip $T0 4 + ^ = $ebp $T0 ^ = $esp $T0 8 + =  $23 $T0 8 - ^ =  $24 $T0 12 - ^ =
STACK WIN 4 19ece 53 0 0 4 c 4 0 1 $T0 $ebp = $eip $T0 4 + ^ = $ebp $T0 ^ = $esp $T0 8 + =  $23 $T0 8 - ^ =  $24 $T0 12 - ^ =  $20 $T0 16 - ^ =
STACK WIN 4 19f46 79 5 0 4 0 0 0 1 $T0 $ebp = $eip $T0 4 + ^ = $ebp $T0 ^ = $esp $T0 8 + =
STACK WIN 4 19fdd 79 5 0 4 0 0 0 1 $T0 $ebp = $eip $T0 4 + ^ = $ebp $T0 ^ = $esp $T0 8 + =
STACK WIN 4 1a074 79 5 0 4 0 0 0 1 $T0 $ebp = $eip $T0 4 + ^ = $ebp $T0 ^ = $esp $T0 8 + =
STACK WIN 4 1a10b 79 5 0 4 0 0 0 1 $T0 $ebp = $eip $T0 4 + ^ = $ebp $T0 ^ = $esp $T0 8 + =
STACK WIN 4 1a1a2 1f 5 0 4 0 0 0 1 $T0 $ebp = $eip $T0 4 + ^ = $ebp $T0 ^ = $esp $T0 8 + =
STACK WIN 4 1a1c8 1f 5 0 4 0 0 0 1 $T0 $ebp = $eip $T0 4 + ^ = $ebp $T0 ^ = $esp $T0 8 + =
STACK WIN 4 1a1ee 1f 5 0 4 0 0 0 1 $T0 $ebp = $eip $T0 4 + ^ = $ebp $T0 ^ = $esp $T0 8 + =
STACK WIN 4 1a214 1f 5 0 4 0 0 0 1 $T0 $ebp = $eip $T0 4 + ^ = $ebp $T0 ^ = $esp $T0 8 + =
STACK WIN 4 1a23a 79 5 0 4 0 0 0 1 $T0 $ebp = $eip $T0 4 + ^ = $ebp $T0 ^ = $esp $T0 8 + =
STACK WIN 4 1a2d1 79 5 0 4 0 0 0 1 $T0 $ebp = $eip $T0 4 + ^ = $ebp $T0 ^ = $esp $T0 8 + =
STACK WIN 4 1a368 79 5 0 4 0 0 0 1 $T0 $ebp = $eip $T0 4 + ^ = $ebp $T0 ^ = $esp $T0 8 + =
STACK WIN 4 1a3ff 79 5 0 4 0 0 0 1 $T0 $ebp = $eip $T0 4 + ^ = $ebp $T0 ^ = $esp $T0 8 + =
STACK WIN 4 1a496 1f 5 0 4 0 0 0 1 $T0 $ebp = $eip $T0 4 + ^ = $ebp $T0 ^ = $esp $T0 8 + =
STACK WIN 4 1a4bc 1f 5 0 4 0 0 0 1 $T0 $ebp = $eip $T0 4 + ^ = $ebp $T0 ^ = $esp $T0 8 + =
STACK WIN 4 1a4e2 1f 5 0 4 0 0 0 1 $T0 $ebp = $eip $T0 4 + ^ = $ebp $T0 ^ = $esp $T0 8 + =
STACK WIN 4 1a508 1f 5 0 4 0 0 0 1 $T0 $ebp = $eip $T0 4 + ^ = $ebp $T0 ^ = $esp $T0 8 + =
STACK WIN 4 1a52e 79 5 0 4 0 0 0 1 $T0 $ebp = $eip $T0 4 + ^ = $ebp $T0 ^ = $esp $T0 8 + =
STACK WIN 4 1a5c5 79 5 0 4 0 0 0 1 $T0 $ebp = $eip $T0 4 + ^ = $ebp $T0 ^ = $esp $T0 8 + =
STACK WIN 4 1a65c 79 5 0 4 0 0 0 1 $T0 $ebp = $eip $T0 4 + ^ = $ebp $T0 ^ = $esp $T0 8 + =
STACK WIN 4 1a6f3 79 5 0 4 0 0 0 1 $T0 $ebp = $eip $T0 4 + ^ = $ebp $T0 ^ = $esp $T0 8 + =
STACK WIN 4 1a78a 1f 5 0 4 0 0 0 1 $T0 $ebp = $eip $T0 4 + ^ = $ebp $T0 ^ = $esp $T0 8 + =
STACK WIN 4 1a7b0 1f 5 0 4 0 0 0 1 $T0 $ebp = $eip $T0 4 + ^ = $ebp $T0 ^ = $esp $T0 8 + =
STACK WIN 4 1a7d6 1f 5 0 4 0 0 0 1 $T0 $ebp = $eip $T0 4 + ^ = $ebp $T0 ^ = $esp $T0 8 + =
STACK WIN 4 1a7fc 1f 5 0 4 0 0 0 1 $T0 $ebp = $eip $T0 4 + ^ = $ebp $T0 ^ = $esp $T0 8 + =
STACK WIN 4 1a822 78 5 0 4 0 0 0 1 $T0 $ebp = $eip $T0 4 + ^ = $ebp $T0 ^ = $esp $T0 8 + =
STACK WIN 4 1a8b8 78 5 0 4 0 0 0 1 $T0 $ebp = $eip $T0 4 + ^ = $ebp $T0 ^ = $esp $T0 8 + =
STACK WIN 4 1a94e 1a 5 0 4 0 0 0 1 $T0 $ebp = $eip $T0 4 + ^ = $ebp $T0 ^ = $esp $T0 8 + =
