MODULE windows x86 94F6190AFB2346CD9408A1DA5A33CEA72 basic-opt32.pdb
INFO CODE_ID 5DDC1E9F6C000 basic-opt32.dll
FUNC 6b20 b 0 test1(int *)
FUNC 6b30 1 0 test2(int,unsigned int)
FUNC 6b40 1 0 test3(int,unsigned int,short)
FUNC 6b50 1 0 test4(int,unsigned int,unsigned short,double *)
FUNC 6b60 41 0 test5(int *,unsigned int,unsigned short,double const *,std::basic_string<char,std::char_traits<char>,std::allocator<char> >)
FUNC 6bc0 1 0 test6(double const * const,std::basic_string<char,std::char_traits<char>,std::allocator<char> > const &,std::basic_string<char,std::char_traits<char>,std::allocator<char> > &&)
FUNC 6bd0 3 0 test7(void (*)(int,unsigned int,unsigned short,double *))
FUNC 6be0 3 0 test8(int (*)(void (*)(int,unsigned int,unsigned short,double *)))
FUNC 6bf0 3 0 test9(int (*)(int (*)(void (*)(int,unsigned int,unsigned short,double *))))
FUNC 6c00 3 0 test10(char * &)
FUNC 6c10 3 0 test_array(char * const,int (* const)[34],std::basic_string<char,std::char_traits<char>,std::allocator<char> > (* const)[34][56],double * (* const)[34][56][78])
FUNC 6c20 3 0 test_array_empty_struct(Empty * const,Empty (* const)[34],Empty (* const)[34][56],Empty (* const)[34][56][78])
FUNC 6c30 3 0 A::A()
FUNC 6c40 5 0 A::A(A &&)
FUNC 6c50 1 0 A::~A()
FUNC 6c60 3 0 A::meth1(int)
FUNC 6c70 3 0 A::meth1(double)
FUNC 6c80 3 0 A::meth1(short,signed char)
FUNC 6c90 3 0 A::meth2(int)
FUNC 6ca0 5 0 A::meth2(double)
FUNC 6cb0 1 0 A::meth2(short,signed char)
FUNC 6cc0 7 0 A::meth4(A *,A::B &&)
FUNC 93f0 e 0 operator delete(void *,unsigned int)
FUNC 9401 53 0 dllmain_crt_dispatch
FUNC 9468 10a 0 dllmain_crt_process_attach
FUNC 95b4 92 0 dllmain_crt_process_detach
FUNC 966a 106 0 dllmain_dispatch
FUNC 97b1 2b 0 dllmain_raw
FUNC 97e6 9 c _CRT_INIT
FUNC 97f1 23 c _DllMainCRTStartup
FUNC 981c 5 0 operator delete(void *)
FUNC 9821 4d 0 __get_entropy
FUNC 9881 4b 0 __security_init_cookie
FUNC 98de 6 c DllMain
FUNC 98e4 c 0 __scrt_initialize_type_info()
FUNC 98f3 c 0 __scrt_uninitialize_type_info()
FUNC 9902 6 0 __local_stdio_printf_options
FUNC 9908 6 0 __local_stdio_scanf_options
FUNC 990e 1d 0 __scrt_initialize_default_local_stdio_options
FUNC 9932 14 0 __crt_fast_decode_pointer<void (**)(void)>(void (** const)(void))
FUNC 994b 1d 0 __crt_fast_encode_pointer<void (**)(void)>(void (** const)(void))
FUNC 996f d 0 __crt_rotate_pointer_value(unsigned int,int)
FUNC 997f d 0 __scrt_narrow_argv_policy::configure_argv()
FUNC 998f 44 0 find_pe_section
FUNC 99e4 5 0 __scrt_narrow_environment_policy::initialize_environment()
FUNC 99e9 34 0 is_potentially_valid_image_base
FUNC 9a2a 7 0 NtCurrentTeb
FUNC 9a31 32 0 __scrt_acquire_startup_lock
FUNC 9a6f 2b 0 __scrt_dllmain_after_initialize_c
FUNC 9aa4 e 0 __scrt_dllmain_before_initialize_c
FUNC 9ab5 1f 0 __scrt_dllmain_crt_thread_attach
FUNC 9adb d 0 __scrt_dllmain_crt_thread_detach
FUNC 9aeb 34 0 __scrt_dllmain_exception_filter
FUNC 9b2c 23 0 __scrt_dllmain_uninitialize_c
FUNC 9b57 d 0 __scrt_dllmain_uninitialize_critical
FUNC 9b67 39 0 __scrt_initialize_crt
FUNC 9bae a5 0 __scrt_initialize_onexit_tables
FUNC 9c7c 94 0 __scrt_is_nonwritable_in_current_image
FUNC 9d35 1d 0 __scrt_release_startup_lock
FUNC 9d59 28 0 __scrt_uninitialize_crt
FUNC 9d8b 3b 0 _onexit
FUNC 9dd4 31 0 at_quick_exit
FUNC 9e11 15 0 atexit
FUNC 9e2b 6 0 __scrt_get_dyn_tls_init_callback
FUNC 9e31 11a 0 __scrt_fastfail
FUNC 9f91 31 0 __scrt_get_show_window_mode
FUNC 9fce 5 0 __scrt_initialize_mta
FUNC 9fd3 3 0 __scrt_initialize_winrt
FUNC 9fd6 43 0 __scrt_is_managed_app
FUNC a029 c 0 __scrt_set_unhandled_exception_filter
FUNC a038 3 0 __scrt_stub_for_initialize_mta
FUNC a03b 41 4 __scrt_unhandled_exception_filter
FUNC a08c 8 4 _crt_debugger_hook
FUNC a096 2c 0 _RTC_Initialize
FUNC a0cd 2c 0 _RTC_Terminate
FUNC a110 46 0 _SEH_prolog4
FUNC a156 15 0 _SEH_epilog4
FUNC a181 1 0 _guard_check_icall_nop
FUNC a182 a 0 ReadNoFence
FUNC a18e a 0 ReadPointerNoFence
FUNC a19a 12 0 _guard_icall_checks_enforced
FUNC a1b0 197 0 __isa_available_init
FUNC a3ac 4 0 _get_startup_argv_mode
FUNC a3b0 c 0 __scrt_is_ucrt_dll_in_use
FUNC a3bf 11 0 __security_check_cookie
FUNC a3d4 28 0 __raise_securityfailure
FUNC a406 f9 0 __report_gsfailure
FUNC a53d c 0 __report_rangecheckfailure
FUNC a54c ce 0 __report_securityfailure
FUNC a64d 114 0 __report_securityfailureEx
PUBLIC a7a6 4 QueryPerformanceCounter
PUBLIC a7ac 0 GetCurrentProcessId
PUBLIC a7b2 0 GetCurrentThreadId
PUBLIC a7b8 4 GetSystemTimeAsFileTime
PUBLIC a7be 4 InitializeSListHead
PUBLIC a7c4 0 IsDebuggerPresent
PUBLIC a7ca 4 UnhandledExceptionFilter
PUBLIC a7d0 4 SetUnhandledExceptionFilter
PUBLIC a7d6 4 GetStartupInfoW
PUBLIC a7dc 4 IsProcessorFeaturePresent
PUBLIC a7e2 4 GetModuleHandleW
PUBLIC a7e8 0 GetCurrentProcess
PUBLIC a7ee 8 TerminateProcess
FUNC a800 32 0 ValidateLocalCookies
FUNC a840 157 0 _except_handler4
FUNC a9ec 5 0 <lambda_02a71323d951a238fa4826e9f186893b>::<lambda_invoker_cdecl>
FUNC a9f1 9 0 <lambda_cea3005bd909f0fdd45a57e92f4e3309>::<lambda_invoker_cdecl>
FUNC a9fc 10 0 __crt_internal_free_policy::operator()<char>(char const * const)
FUNC aa10 10 0 __crt_internal_free_policy::operator()<void>(void const * const)
FUNC aa24 12 0 __crt_interlocked_compare_exchange_pointer<char const ,char *,std::nullptr_t>(char const * const volatile *,char * const,std::nullptr_t)
FUNC aa3a a 0 __crt_interlocked_read_pointer<char const >(char const * const volatile *)
FUNC aa46 e 0 __crt_unique_heap_ptr<char,__crt_internal_free_policy>::__crt_unique_heap_ptr<char,__crt_internal_free_policy>(char * const)
FUNC aa57 e 0 __crt_unique_heap_ptr<void,__crt_internal_free_policy>::__crt_unique_heap_ptr<void,__crt_internal_free_policy>(void * const)
FUNC aa68 10 0 __crt_unique_heap_ptr<char,__crt_internal_free_policy>::~__crt_unique_heap_ptr<char,__crt_internal_free_policy>()
FUNC aa7c 10 0 __crt_unique_heap_ptr<void,__crt_internal_free_policy>::~__crt_unique_heap_ptr<void,__crt_internal_free_policy>()
FUNC aa90 6 0 <lambda_02a71323d951a238fa4826e9f186893b>::operator void (__cdecl*)(void * const)
FUNC aa96 6 0 <lambda_cea3005bd909f0fdd45a57e92f4e3309>::operator void * (__cdecl*)(unsigned int)
FUNC aa9c 7 0 __crt_unique_heap_ptr<char,__crt_internal_free_policy>::operator bool()
FUNC aaa3 7 0 __crt_unique_heap_ptr<void,__crt_internal_free_policy>::operator bool()
FUNC aaaa 10 0 <lambda_02a71323d951a238fa4826e9f186893b>::operator()
FUNC aabe 10 0 <lambda_cea3005bd909f0fdd45a57e92f4e3309>::operator()
FUNC aad2 a 0 __crt_interlocked_read_32(int const volatile *)
FUNC aade 6 0 __crt_unique_heap_ptr<void,__crt_internal_free_policy>::detach()
FUNC aae4 3 0 __crt_unique_heap_ptr<char,__crt_internal_free_policy>::get()
FUNC aae7 3 0 __crt_unique_heap_ptr<void,__crt_internal_free_policy>::get()
FUNC aaea 7 0 __crt_unique_heap_ptr<char,__crt_internal_free_policy>::is_valid()
FUNC aaf1 7 0 __crt_unique_heap_ptr<void,__crt_internal_free_policy>::is_valid()
FUNC aaf8 10 0 __crt_unique_heap_ptr<char,__crt_internal_free_policy>::release()
FUNC ab0c 10 0 __crt_unique_heap_ptr<void,__crt_internal_free_policy>::release()
FUNC ab20 3c 0 __std_type_info_compare
FUNC ab6b 23 0 __std_type_info_destroy_list
FUNC ab96 26 0 __std_type_info_hash
FUNC abc5 c3 0 __std_type_info_name
FUNC acb8 29 0 __vcrt_initialize
FUNC aceb b 0 __vcrt_thread_attach
FUNC acf8 b 0 __vcrt_thread_detach
FUNC ad05 1f 0 __vcrt_uninitialize
FUNC ad2b 8 0 __vcrt_uninitialize_critical
FUNC ad35 1 0 init_memcpy_functions
FUNC ad40 15a 0 memset
FUNC aef0 90 0 _local_unwind4
FUNC af80 46 0 _unwind_handler4
FUNC afc8 28 4 _seh_longjmp_unwind4
FUNC aff0 17 0 _EH4_CallFilterFunc
FUNC b008 19 0 _EH4_TransferToHandler
FUNC b024 1a 0 _EH4_GlobalUnwind2
FUNC b040 17 8 _EH4_LocalUnwind
FUNC b0b0 b 0 __except_get_jumpbuf_sp
FUNC b0bd 30 0 __except_validate_context_record
FUNC b0f9 2d 0 __except_validate_jump_buffer
FUNC b131 39 0 __except_validate_jump_buffer_common
FUNC b178 6 0 _HeapManager::Block::Block()
FUNC b17e b2 0 DName::DName(char const * &,char)
FUNC b25c 16 0 DName::DName(DName const &)
FUNC b277 25 0 DName::DName(char)
FUNC b2a5 48 0 DName::DName(DName *)
FUNC b2ff 33 0 DName::DName(char const *)
FUNC b33e 40 0 DName::DName(DNameStatus)
FUNC b38e a 0 DName::DName()
FUNC b39a 8c 0 DName::DName(__int64)
FUNC b449 66 0 DName::DName(unsigned __int64)
FUNC b4c8 9 0 DNameNode::DNameNode()
FUNC b4d3 6 0 Replicator::Replicator()
FUNC b4d9 9 0 `UnDecorator::getDecoratedName'::`2'::TrackRecursion::TrackRecursion
FUNC b4e4 4c 0 UnDecorator::UnDecorator(char const *,char * (*)(long),unsigned long)
FUNC b543 15 0 charNode::charNode(char)
FUNC b55d 28 0 pDNameNode::pDNameNode(DName *)
FUNC b58f 1f 0 pairNode::pairNode(DNameNode const *,DNameNode const *)
FUNC b5b5 59 0 pcharNode::pcharNode(char const *,int)
FUNC b624 7 0 `UnDecorator::getDecoratedName'::`2'::TrackRecursion::~TrackRecursion
FUNC b62b 15 0 operator new(unsigned int,_HeapManager &,int)
FUNC b645 16 0 DName::operator=(DName const &)
FUNC b660 25 0 DName::operator=(char)
FUNC b68e 42 0 DName::operator=(DName *)
FUNC b6e0 2b 0 DName::operator=(char const *)
FUNC b715 32 0 DName::operator=(DNameStatus)
FUNC b753 46 0 Replicator::operator[](int)
FUNC b7aa 22 0 operator+(char,DName const &)
FUNC b7d4 22 0 operator+(char const *,DName const &)
FUNC b7fe 22 0 operator+(DNameStatus,DName const &)
FUNC b828 22 0 DName::operator+(DName const &)
FUNC b852 22 0 DName::operator+(char)
FUNC b87c 22 0 DName::operator+(DName *)
FUNC b8a6 22 0 DName::operator+(char const *)
FUNC b8d0 22 0 DName::operator+(DNameStatus)
FUNC b8fa 41 0 DName::operator+=(DName const &)
FUNC b94b 50 0 DName::operator+=(char)
FUNC b9af 65 0 DName::operator+=(DName *)
FUNC ba2d 61 0 DName::operator+=(char const *)
FUNC baa6 40 0 DName::operator+=(DNameStatus)
FUNC baf6 4a 0 Replicator::operator+=(DName const &)
FUNC bb52 1c 0 DName::operator|=(DName const &)
FUNC bb75 1d 0 _HeapManager::Constructor(void * (*)(unsigned int),void (*)(void *))
FUNC bb99 38 0 _HeapManager::Destructor()
FUNC bbdf 1f 0 UnDecorator::UScore(Tokens)
FUNC bc05 46 0 DName::append(DNameNode const *)
FUNC bc5c cdd 0 UnDecorator::composeDeclaration(DName const &)
FUNC cc70 e 0 UnDecorator::doAccessSpecifiers()
FUNC cc81 e 0 UnDecorator::doAllocationLanguage()
FUNC cc92 e 0 UnDecorator::doAllocationModel()
FUNC cca3 e 0 UnDecorator::doEcsu()
FUNC ccb4 e 0 UnDecorator::doEllipsis()
FUNC ccc5 e 0 UnDecorator::doFunctionReturns()
FUNC ccd6 d 0 UnDecorator::doMSKeywords()
FUNC cce6 e 0 UnDecorator::doMemberTypes()
FUNC ccf7 b 0 UnDecorator::doNameOnly()
FUNC cd04 b 0 UnDecorator::doNoIdentCharCheck()
FUNC cd11 86 0 DName::doPchar(char const *,int)
FUNC cdb8 e 0 UnDecorator::doPtr64()
FUNC cdc9 e 0 UnDecorator::doRestrictionSpec()
FUNC cdda 12 0 UnDecorator::doThisTypes()
FUNC cdf0 e 0 UnDecorator::doThrowTypes()
FUNC ce01 b 0 UnDecorator::doTypeOnly()
FUNC ce0e b 0 UnDecorator::doUnderScore()
FUNC ce1b f6 0 UnDecorator::getArgumentList()
FUNC cf4e ca 0 UnDecorator::getArgumentTypes()
FUNC d04a 1b1 0 UnDecorator::getArrayType(DName const &)
FUNC d267 98 0 UnDecorator::getBasedType()
FUNC d325 3df 0 UnDecorator::getBasicDataType(DName const &)
FUNC d7fb df 0 UnDecorator::getCHPEName(char *,int)
FUNC d911 14 0 UnDecorator::getCallIndex()
FUNC d92a d3 0 UnDecorator::getCallingConvention()
FUNC da31 5ea 0 UnDecorator::getDataIndirectType(DName const &,char const *,DName const &,int)
FUNC e195 32 0 UnDecorator::getDataIndirectType()
FUNC e1d3 c5 0 UnDecorator::getDataType(DName *)
FUNC e2c9 242 0 UnDecorator::getDecoratedName()
FUNC e59b 11f 0 UnDecorator::getDimension(bool)
FUNC e701 54 0 UnDecorator::getDispatchTarget()
FUNC e76a 14 0 UnDecorator::getDisplacement()
FUNC e783 118 0 UnDecorator::getECSUDataType()
FUNC e8e1 11 0 UnDecorator::getECSUName()
FUNC e8f6 f0 0 UnDecorator::getEnumType()
FUNC ea22 1b7 0 UnDecorator::getExtendedDataIndirectType(char const * &,bool &,int)
FUNC ec46 67 0 UnDecorator::getExternalDataType(DName const &)
FUNC ecc6 3d8 0 UnDecorator::getFunctionIndirectType(DName const &)
FUNC f194 14 0 UnDecorator::getGuardNumber()
FUNC f1ad 20 0 DName::getLastChar()
FUNC f1d5 c 0 DNameStatusNode::getLastChar()
FUNC f1e4 4 0 charNode::getLastChar()
FUNC f1e8 e 0 pDNameNode::getLastChar()
FUNC f1f9 35 0 pairNode::getLastChar()
FUNC f23b 12 0 pcharNode::getLastChar()
FUNC f251 3f 0 UnDecorator::getLexicalFrame()
FUNC f29f 87 0 _HeapManager::getMemory(unsigned int,int)
FUNC f347 45 0 UnDecorator::getNoexcept()
FUNC f39d 61 0 UnDecorator::getNumberOfDimensions()
FUNC f416 658 0 UnDecorator::getOperatorName(bool,bool *)
FUNC fc04 1e 0 UnDecorator::getPointerType(DName const &,DName const &)
FUNC fc29 1e 0 UnDecorator::getPointerTypeArray(DName const &,DName const &)
FUNC fc4e 1e4 0 UnDecorator::getPrimaryDataType(DName const &)
FUNC feab 129 0 UnDecorator::getPtrRefDataType(DName const &,int)
FUNC 1001e fa 0 UnDecorator::getPtrRefType(DName const &,DName const &,char const *)
FUNC 10156 1c 0 UnDecorator::getReferenceType(DName const &,DName const &,char const *)
FUNC 10179 f9 0 UnDecorator::getRestrictionSpec()
FUNC 102b0 2f 0 UnDecorator::getReturnType(DName *)
FUNC 102ea 394 0 UnDecorator::getScope()
FUNC 10763 d4 0 UnDecorator::getScopedName()
FUNC 1086c 51 0 UnDecorator::getSignedDimension()
FUNC 108d1 11 0 UnDecorator::getStorageConvention()
FUNC 108e6 2d 0 DName::getString(char *,char *)
FUNC 1091e 56 0 DName::getString(char *,int)
FUNC 10989 27 0 DNameStatusNode::getString(char *,char *)
FUNC 109b9 15 0 charNode::getString(char *,char *)
FUNC 109d3 17 0 pDNameNode::getString(char *,char *)
FUNC 109ef 46 0 pairNode::getString(char *,char *)
FUNC 10a46 1b 0 pcharNode::getString(char *,char *)
FUNC 10a67 b0 0 UnDecorator::getStringEncoding(char const *,int)
FUNC 10b43 37 0 getStringHelper(char *,char const *,char const *,int)
FUNC 10b87 48 0 UnDecorator::getSymbolName()
FUNC 10be1 29d 0 UnDecorator::getTemplateArgumentList()
FUNC 10f25 332 0 UnDecorator::getTemplateConstant()
FUNC 11323 162 0 UnDecorator::getTemplateName(bool)
FUNC 114dd 33 0 UnDecorator::getThisType()
FUNC 1151c 23 0 UnDecorator::getThrowTypes()
FUNC 11547 328 0 UnDecorator::getTypeEncoding()
FUNC 11939 c4 0 UnDecorator::getUndecoratedName(char *,int)
FUNC 11a2e 47 0 UnDecorator::getVCallThunkType()
FUNC 11a86 15 0 UnDecorator::getVbTableType(DName const &)
FUNC 11aa0 54 0 UnDecorator::getVdispMapType(DName const &)
FUNC 11b09 163 0 UnDecorator::getVfTableType(DName const &)
FUNC 11cc4 1ff 0 UnDecorator::getZName(bool,bool)
FUNC 11f42 b 0 UnDecorator::haveTemplateParameters()
FUNC 11f4f a 0 DName::isArray()
FUNC 11f5b a 0 DName::isComArray()
FUNC 11f67 8 0 DName::isEmpty()
FUNC 11f71 9 0 Replicator::isFull()
FUNC 11f7c a 0 DName::isNoTE()
FUNC 11f88 a 0 DName::isPinPtr()
FUNC 11f94 a 0 DName::isPtrRef()
FUNC 11fa0 11 0 DName::isUDC()
FUNC 11fb5 11 0 DName::isUDTThunk()
FUNC 11fca a 0 DName::isVCallThunk()
FUNC 11fd6 a 0 DName::isValid()
FUNC 11fe2 1f 0 DName::length()
FUNC 12008 4 0 DNameStatusNode::length()
FUNC 1200c 4 0 charNode::length()
FUNC 12010 e 0 pDNameNode::length()
FUNC 12021 46 0 pairNode::length()
FUNC 12078 4 0 pcharNode::length()
FUNC 1207c 1c 0 DNameStatusNode::make(DNameStatus)
FUNC 1209f ee 0 UnDecorator::parseDecoratedName()
FUNC 121c8 8 0 DName::setIsArray()
FUNC 121d2 8 0 DName::setIsComArray()
FUNC 121dc 8 0 DName::setIsNoTE()
FUNC 121e6 8 0 DName::setIsPinPtr()
FUNC 121f0 d 0 DName::setIsUDC()
FUNC 12200 8 0 DName::setIsVCallThunk()
FUNC 1220a a 0 DName::setPtrRef()
FUNC 12216 5 0 DName::status()
FUNC 1221b 21 0 und_memcpy
FUNC 12244 15 0 und_strlen
FUNC 1225e 31 0 und_strncmp
FUNC 1229b 23 0 __unDName
FUNC 122c6 9f 0 __unDNameEx
FUNC 1238c 2d 0 _vsprintf_s_l
FUNC 123c4 1c 0 sprintf_s
FUNC 123e7 5c 0 unDNameGenerateCHPE
FUNC 1245a 10 0 __crt_internal_free_policy::operator()<__vcrt_ptd>(__vcrt_ptd const * const)
FUNC 1246e e 0 __crt_unique_heap_ptr<__vcrt_ptd,__crt_internal_free_policy>::__crt_unique_heap_ptr<__vcrt_ptd,__crt_internal_free_policy>(__vcrt_ptd * const)
FUNC 1247f f 0 `anonymous namespace'::scoped_get_last_error_reset::scoped_get_last_error_reset
FUNC 12491 10 0 __crt_unique_heap_ptr<__vcrt_ptd,__crt_internal_free_policy>::~__crt_unique_heap_ptr<__vcrt_ptd,__crt_internal_free_policy>()
FUNC 124a5 9 0 `anonymous namespace'::scoped_get_last_error_reset::~scoped_get_last_error_reset
FUNC 124b0 7 0 __crt_unique_heap_ptr<__vcrt_ptd,__crt_internal_free_policy>::operator bool()
FUNC 124b7 6 0 __crt_unique_heap_ptr<__vcrt_ptd,__crt_internal_free_policy>::detach()
FUNC 124bd 3 0 __crt_unique_heap_ptr<__vcrt_ptd,__crt_internal_free_policy>::get()
FUNC 124c0 7 0 __crt_unique_heap_ptr<__vcrt_ptd,__crt_internal_free_policy>::is_valid()
FUNC 124c7 10 0 __crt_unique_heap_ptr<__vcrt_ptd,__crt_internal_free_policy>::release()
FUNC 124db 1a 0 store_and_initialize_ptd
FUNC 124fb 1c 4 __vcrt_freefls
FUNC 1251e 36 0 __vcrt_freeptd
FUNC 12561 e 0 __vcrt_getptd
FUNC 12572 92 0 __vcrt_getptd_noexit
FUNC 12628 37 0 __vcrt_getptd_noinit
FUNC 1266c 33 0 __vcrt_initialize_ptd
FUNC 126ab 1b 0 __vcrt_uninitialize_ptd
FUNC 126cc 3c 0 __vcrt_initialize_locks
FUNC 12717 15 0 __vcrt_lock
FUNC 12731 2f 0 __vcrt_uninitialize_locks
FUNC 1276b 15 0 __vcrt_unlock
FUNC 12785 6 0 __crt_fast_encoded_nullptr_t::operator<void> void *()
FUNC 1278b 14 0 __crt_fast_decode_pointer<void *>(void * const)
FUNC 127a4 1d 0 __crt_fast_encode_pointer<void *>(void * const)
FUNC 127c8 d 0 __crt_interlocked_exchange_pointer<HINSTANCE__,HINSTANCE__ *>(HINSTANCE__ * const volatile *,HINSTANCE__ * const)
FUNC 127d8 d 0 __crt_interlocked_exchange_pointer<HINSTANCE__,void *>(HINSTANCE__ * const volatile *,void * const)
FUNC 127e8 d 0 __crt_interlocked_exchange_pointer<void,void *>(void * const volatile *,void * const)
FUNC 127f8 a 0 __crt_interlocked_read_pointer<HINSTANCE__>(HINSTANCE__ * const volatile *)
FUNC 12804 a 0 __crt_interlocked_read_pointer<void>(void * const volatile *)
FUNC 12810 9 0 __crt_fast_encode_pointer(std::nullptr_t)
FUNC 1281b 4 0 invalid_function_sentinel
FUNC 1281f 1a 0 try_get_FlsAlloc
FUNC 1283f 1a 0 try_get_FlsFree
FUNC 1285f 1a 0 try_get_FlsGetValue
FUNC 1287f 1a 0 try_get_FlsSetValue
FUNC 1289f 1a 0 try_get_InitializeCriticalSectionEx
FUNC 128bf c4 0 try_get_first_available_module
FUNC 129b4 6f 0 try_get_function
FUNC 12a3e 4f 0 try_get_module
FUNC 12aa0 22 0 try_get_proc_address_from_first_available_module
FUNC 12aca 61 0 try_load_library_from_system_directory
FUNC 12b43 3b 0 __vcrt_FlsAlloc
FUNC 12b8c 3b 0 __vcrt_FlsFree
FUNC 12bd5 3b 0 __vcrt_FlsGetValue
FUNC 12c1e 3e 0 __vcrt_FlsSetValue
FUNC 12c6b 47 0 __vcrt_InitializeCriticalSectionEx
FUNC 12cc3 29 0 __vcrt_initialize_winapi_thunks
FUNC 12cf6 32 0 __vcrt_uninitialize_winapi_thunks
FUNC 12d34 6 0 __crt_fast_encoded_nullptr_t::operator<void > void (*)(void)()
FUNC 12d3a 1d 0 __crt_fast_encode_pointer<void (*)(void)>(void (*const)(void))
FUNC 12d5e b 0 __vcrt_initialize_pure_virtual_call_handler
FUNC 12d70 21 0 _global_unwind2
FUNC 12d91 45 0 __unwind_handler
FUNC 12dd6 84 0 _local_unwind2
FUNC 12e5a 23 0 _abnormal_termination
FUNC 12e80 9 0 _NLG_Notify1
FUNC 12e8c 1f 0 _NLG_Notify
PUBLIC m 12ea3 0 _NLG_Dispatch
FUNC 12eab 3 0 _NLG_Call
PUBLIC 12ead 0 _NLG_Return2
FUNC 12efd 14 0 __crt_fast_decode_pointer<void (*)(void)>(void (*const)(void))
FUNC 12f16 d 0 __crt_interlocked_exchange_pointer<void ,void (*)(void)>(void (*const volatile *)(void),void (*const)(void))
FUNC 12f26 a 0 __crt_interlocked_read_pointer<void >(void (*const volatile *)(void))
FUNC 12f32 15 0 _get_purecall_handler
FUNC 12f4c 1c 0 _purecall
FUNC 12f6f 25 0 _set_purecall_handler
FUNC 12f9d 24 0 std::pair<__FrameHandler3::TryBlockMap::iterator,__FrameHandler3::TryBlockMap::iterator>::pair<__FrameHandler3::TryBlockMap::iterator,__FrameHandler3::TryBlockMap::iterator><__FrameHandler3::TryBlockMap::iterator &,__FrameHandler3::TryBlockMap::iterator &,0>(__FrameHandler3::TryBlockMap::iterator &,__FrameHandler3::TryBlockMap::iterator &)
FUNC 12fca 8 0 std::forward<__FrameHandler3::TryBlockMap::iterator &>(__FrameHandler3::TryBlockMap::iterator &)
FUNC 12fd4 14 0 __FrameHandler3::TryBlockMap::iterator::iterator(__FrameHandler3::TryBlockMap &,unsigned int)
FUNC 12fed 82 0 __FrameHandler3::GetRangeOfTrysToCheck(__FrameHandler3::TryBlockMap &,int,int)
FUNC 1308f 5e 0 _CallCatchBlock2(EHRegistrationNode *,_s_FuncInfo const *,void *,int,unsigned long)
FUNC 13104 db 0 _CallSETranslator(EHExceptionRecord *,EHRegistrationNode *,void *,void *,_s_FuncInfo const *,int,EHRegistrationNode *)
FUNC 13215 30 0 _JumpToContinuation(void *,EHRegistrationNode *)
FUNC 13251 53 0 _UnwindNestedFrames(EHRegistrationNode *,EHExceptionRecord *)
FUNC 132b8 3 0 __FrameHandler3::TryBlockMap::getFuncInfo()
FUNC 132bb 31 0 _CatchGuardHandler
FUNC 132f8 24 0 _CreateFrameInfo
FUNC 13325 45 0 _FindAndUnlinkFrame
FUNC 1337b 9d 0 _TranslatorGuardHandler
FUNC 1343f 36 10 __CxxFrameHandler
FUNC 13482 36 10 __CxxFrameHandler2
FUNC 134c5 36 10 __CxxFrameHandler3
FUNC 13508 25 4 __CxxLongjmpUnwind
FUNC 13540 574 0 memcpy
FUNC 13c11 13f 0 BuildCatchObjectHelperInternal<_s_HandlerType const >
FUNC 13d9f 99 0 BuildCatchObjectInternal<_s_HandlerType const >
FUNC 13e5e 80 0 CatchIt<__FrameHandler3>
FUNC 13efe 38e 0 FindHandler<__FrameHandler3>
FUNC 1436f 111 0 FindHandlerForForeignException<__FrameHandler3>
FUNC 144c4 8e 0 TypeMatchHelper<_s_HandlerType const >(_s_HandlerType const *,_s_CatchableType const *,_s_ThrowInfo const *)
FUNC 14575 102 0 __InternalCxxFrameHandler<__FrameHandler3>(EHExceptionRecord *,EHRegistrationNode *,_CONTEXT *,void *,_s_FuncInfo const *,int,EHRegistrationNode *,unsigned char)
FUNC 146b7 17 0 __FrameHandler3::HandlerMap::HandlerMap(_s_TryBlockMapEntry const *,void *)
FUNC 146d3 14 0 __FrameHandler3::TryBlockMap::TryBlockMap(_s_FuncInfo const *,void *)
FUNC 146ec 1b 0 std::bad_exception::bad_exception(std::bad_exception const &)
FUNC 1470d 18 0 std::bad_exception::bad_exception()
FUNC 1472b 2c 0 std::exception::exception(std::exception const &)
FUNC 14762 1d 0 std::exception::exception(char const * const,int)
FUNC 14786 14 0 __FrameHandler3::HandlerMap::iterator::iterator(__FrameHandler3::HandlerMap &,unsigned int)
FUNC 1479f 11 0 std::bad_exception::~bad_exception()
FUNC 147b4 11 0 std::exception::~exception()
FUNC 147c9 13 0 __FrameHandler3::HandlerMap::iterator::operator==(__FrameHandler3::HandlerMap::iterator const &)
FUNC 147e0 1f 0 type_info::operator==(type_info const &)
FUNC 14806 13 0 __FrameHandler3::HandlerMap::iterator::operator!=(__FrameHandler3::HandlerMap::iterator const &)
FUNC 1481d c 0 __FrameHandler3::HandlerMap::iterator::operator*()
FUNC 1482c c 0 __FrameHandler3::TryBlockMap::iterator::operator*()
FUNC 1483b 6 0 __FrameHandler3::HandlerMap::iterator::operator++()
FUNC 14841 6 0 __FrameHandler3::TryBlockMap::iterator::operator++()
FUNC 14847 13 0 __FrameHandler3::TryBlockMap::iterator::operator<(__FrameHandler3::TryBlockMap::iterator const &)
FUNC 1485e 2d 0 std::bad_exception::`scalar deleting destructor'(unsigned int)
FUNC 14896 2d 0 std::exception::`scalar deleting destructor'(unsigned int)
FUNC 148ce 5 0 __FrameHandler3::BuildCatchObject(EHExceptionRecord *,void *,_s_HandlerType const *,_s_CatchableType const *)
FUNC 148d3 9 0 __FrameHandler3::BuildCatchObjectHelper(EHExceptionRecord *,void *,_s_HandlerType const *,_s_CatchableType const *)
FUNC 148de 1c4 0 CallCatchBlock
FUNC 14b13 3a 0 CallUnexpected
FUNC 14b5b 4a 0 ExFilterRethrow
FUNC 14bb7 18 0 __FrameHandler3::FrameUnwindToEmptyState(EHRegistrationNode *,void *,_s_FuncInfo const *)
FUNC 14bd5 e8 0 __FrameHandler3::FrameUnwindToState(EHRegistrationNode *,void *,_s_FuncInfo const *,int)
FUNC 14cf7 b 0 __FrameHandler3::GetMaxState(void *,_s_FuncInfo const *)
FUNC 14d04 9a 0 IsInExceptionSpec
FUNC 14dc4 39 0 Is_bad_exception_allowed
FUNC 14e0b 9 0 __FrameHandler3::TypeMatch(_s_HandlerType const *,_s_CatchableType const *,_s_ThrowInfo const *)
FUNC 14e16 10 0 _CallMemberFunction1(void * const,void * const,void * const)
FUNC 14e2a 13 0 _CallMemberFunction2(void * const,void * const,void * const,int)
FUNC 14e41 c 0 _ValidateExecute(int (*)(void))
FUNC 14e50 c 0 _ValidateRead(void const *,unsigned int)
FUNC 14e5f c 0 _ValidateWrite(void *,unsigned int)
FUNC 14e6e 10 0 __FrameHandler3::HandlerMap::begin()
FUNC 14e82 11 0 __FrameHandler3::HandlerMap::end()
FUNC 14e97 b 0 __FrameHandler3::getESTypes(_s_FuncInfo const *)
FUNC 14ea4 e 0 __FrameHandler3::HandlerMap::getLastEntry()
FUNC 14eb5 f 0 __FrameHandler3::getMagicNum(_s_FuncInfo const *)
FUNC 14ec7 6 0 __FrameHandler3::TryBlockMap::getNumTryBlocks()
FUNC 14ecd d 0 __FrameHandler3::isEHs(_s_FuncInfo const *)
FUNC 14edd 10 0 __FrameHandler3::isNoExcept(_s_FuncInfo const *)
FUNC 14ef1 d 0 std::exception::what()
FUNC 14f01 5 0 __BuildCatchObject
FUNC 14f06 9 0 __BuildCatchObjectHelper
FUNC 14f11 9 0 __TypeMatch
FUNC 14f1c e 0 __vcrt_EncodePointer
FUNC 14f30 4c c _CallSettingFrame
PUBLIC 14f57 0 _NLG_Return
FUNC 14f8f 14 0 get_unexpected_or_default
FUNC 14fa8 12 0 _get_unexpected
FUNC 14fbe 1e 0 set_unexpected
FUNC 14fe3 1d 0 unexpected
FUNC 15007 1d 0 __FrameHandler3::GetCurrentState(EHRegistrationNode *,void *,_s_FuncInfo const *)
FUNC 1502b e 0 __FrameHandler3::SetState(EHRegistrationNode *,_s_FuncInfo const *,int)
FUNC 1503c a0 0 __DestructExceptionObject
FUNC 15104 d 0 _CallMemberFunction0(void * const,void * const)
FUNC 15114 4 0 type_info::raw_name()
FUNC 15118 26 0 _IsExceptionObjectToBeDestroyed
FUNC 15147 d 0 _SetWinRTOutOfMemoryExceptionCallback
FUNC 15157 25 0 __AdjustPointer
FUNC 15185 45 0 __FrameUnwindFilter
FUNC 151db 4c 0 __GetPlatformExceptionInfo
FUNC 1523a 9 0 __current_exception
FUNC 15245 9 0 __current_exception_context
FUNC 15250 9 0 __processing_throw
FUNC 1525b 5 0 __std_terminate
FUNC 15260 a4 0 _is_exception_typeof
FUNC 1532d 10 0 __crt_public_free_policy::operator()<char>(char const * const)
FUNC 15341 e 0 __crt_unique_heap_ptr<char,__crt_public_free_policy>::__crt_unique_heap_ptr<char,__crt_public_free_policy>(char * const)
FUNC 15352 10 0 __crt_unique_heap_ptr<char,__crt_public_free_policy>::~__crt_unique_heap_ptr<char,__crt_public_free_policy>()
FUNC 15366 7 0 __crt_unique_heap_ptr<char,__crt_public_free_policy>::operator bool()
FUNC 1536d 6 0 __crt_unique_heap_ptr<char,__crt_public_free_policy>::detach()
FUNC 15373 3 0 __crt_unique_heap_ptr<char,__crt_public_free_policy>::get()
FUNC 15376 7 0 __crt_unique_heap_ptr<char,__crt_public_free_policy>::is_valid()
FUNC 1537d 10 0 __crt_unique_heap_ptr<char,__crt_public_free_policy>::release()
FUNC 15391 63 0 __std_exception_copy
FUNC 1540c 1f 0 __std_exception_destroy
FUNC 15432 6d 8 _CxxThrowException
FUNC 154c0 574 0 memmove
FUNC 15b91 16 0 __crt_fast_decode_pointer<void (*)(wchar_t const *,wchar_t const *,wchar_t const *,unsigned int,unsigned int)>(void (*const)(wchar_t const *,wchar_t const *,wchar_t const *,unsigned int,unsigned int))
FUNC 15bac 1f 0 __crt_fast_encode_pointer<void (*)(wchar_t const *,wchar_t const *,wchar_t const *,unsigned int,unsigned int)>(void (*const)(wchar_t const *,wchar_t const *,wchar_t const *,unsigned int,unsigned int))
FUNC 15bd2 11 0 __crt_state_management::dual_state_global<void (*)(wchar_t const *,wchar_t const *,wchar_t const *,unsigned int,unsigned int)>::initialize_from_array<void (*[1])(wchar_t const *,wchar_t const *,wchar_t const *,unsigned int,unsigned int)>(void (*(&)[1])(wchar_t const *,wchar_t const *,wchar_t const *,unsigned int,unsigned int))
FUNC 15be7 3 0 __crt_state_management::dual_state_global<void (*)(wchar_t const *,wchar_t const *,wchar_t const *,unsigned int,unsigned int)>::dangerous_get_state_array()
FUNC 15bea 3 0 __crt_state_management::get_current_state_index()
FUNC 15bed 3 0 __crt_state_management::dual_state_global<void (*)(wchar_t const *,wchar_t const *,wchar_t const *,unsigned int,unsigned int)>::value()
FUNC 15bf0 139 0 __acrt_call_reportfault
FUNC 15d77 f 0 __acrt_initialize_invalid_parameter_handler
FUNC 15d89 13 0 _get_invalid_parameter_handler
FUNC 15da0 11 0 _get_thread_local_invalid_parameter_handler
FUNC 15db5 64 0 _invalid_parameter
FUNC 15e32 10 0 _invalid_parameter_noinfo
FUNC 15e46 1d 0 _invalid_parameter_noinfo_noreturn
FUNC 15e6a 34 14 _invoke_watson
FUNC 15eab 30 0 _set_invalid_parameter_handler
FUNC 15ee7 1d 0 _set_thread_local_invalid_parameter_handler
FUNC 15f0b 45 0 _initterm
FUNC 15f61 2e 0 _initterm_e
FUNC 15f9a 1b 0 free
FUNC 15fbb 24 0 xcptlookup
FUNC 15fe8 20 0 _seh_filter_dll
FUNC 16010 158 0 _seh_filter_exe
FUNC 161be 6 0 __crt_fast_encoded_nullptr_t::operator<void > void (*)(void *,unsigned long,void *)()
FUNC 161c4 4d 0 __crt_seh_guarded_call<void>::operator()<<lambda_03b1d95aef87969028cfba75ccab2455>,<lambda_6e4b09c48022b2350581041d5f6b0c4c> &,<lambda_22bdf7517842c4b3e53723af5aa32b9e> >
FUNC 16224 26 0 __acrt_lock_and_call<<lambda_6e4b09c48022b2350581041d5f6b0c4c> >
FUNC 16253 16 0 __crt_fast_decode_pointer<void (*)(void *,unsigned long,void *)>(void (*const)(void *,unsigned long,void *))
FUNC 1626e 1f 0 __crt_fast_encode_pointer<void (*)(void *,unsigned long,void *)>(void (*const)(void *,unsigned long,void *))
FUNC 16294 13 0 __crt_get_proc_address<void (*)(unsigned int)>(HINSTANCE__ * const,char const * const)
FUNC 162ab d 0 __crt_interlocked_read<long>(long const volatile *)
FUNC 162bb 12 0 <lambda_03b1d95aef87969028cfba75ccab2455>::<lambda_03b1d95aef87969028cfba75ccab2455>
FUNC 162d1 12 0 <lambda_22bdf7517842c4b3e53723af5aa32b9e>::<lambda_22bdf7517842c4b3e53723af5aa32b9e>
FUNC 162e7 1c 0 <lambda_6e4b09c48022b2350581041d5f6b0c4c>::<lambda_6e4b09c48022b2350581041d5f6b0c4c>
FUNC 1630a 10 0 __crt_unique_handle_t<__crt_hmodule_traits>::__crt_unique_handle_t<__crt_hmodule_traits>(HINSTANCE__ * const)
FUNC 1631e 17 0 __crt_unique_handle_t<__crt_hmodule_traits>::~__crt_unique_handle_t<__crt_hmodule_traits>()
FUNC 1633a 9 0 <lambda_03b1d95aef87969028cfba75ccab2455>::operator()
FUNC 16345 9 0 <lambda_22bdf7517842c4b3e53723af5aa32b9e>::operator()
FUNC 16350 da 0 <lambda_6e4b09c48022b2350581041d5f6b0c4c>::operator()
FUNC 16460 4 0 __acrt_select_exit_lock()
FUNC 16464 13 0 atexit_exception_filter
FUNC 1647b 17 0 __crt_unique_handle_t<__crt_hmodule_traits>::close()
FUNC 16497 15 0 __crt_hmodule_traits::close(HINSTANCE__ *)
FUNC 164b1 64 0 common_exit
FUNC 1652e 42 0 exit_or_terminate_process
FUNC 16580 3 0 __crt_unique_handle_t<__crt_hmodule_traits>::get()
FUNC 16583 3 0 __crt_unique_handle_t<__crt_hmodule_traits>::get_address_of()
FUNC 16586 3 0 __crt_hmodule_traits::get_invalid_value()
FUNC 16589 43 0 is_managed_app
FUNC 165dc 22 0 should_call_terminate_process
FUNC 16606 53 0 try_cor_exit_process
FUNC 1666d 16 0 _Exit
FUNC 16688 f 0 __acrt_initialize_thread_local_exit_callback
FUNC 1669a f 0 _c_exit
FUNC 166ac f 0 _cexit
FUNC 166be 16 0 _exit
FUNC 166d9 7 0 _is_c_termination_complete
FUNC 166e0 26 0 _register_thread_local_exe_atexit_callback
FUNC 1670f 16 0 exit
FUNC 1672a 16 0 quick_exit
FUNC 16745 12 0 __crt_internal_free_policy::operator()<unsigned char>(unsigned char const * const)
FUNC 1675b 12 0 __crt_internal_free_policy::operator()<char *>(char * const * const)
FUNC 16771 12 0 __crt_internal_free_policy::operator()<wchar_t *>(wchar_t * const * const)
FUNC 16787 136 0 common_configure_argv<char>
FUNC 1690a 12f 0 common_configure_argv<wchar_t>
FUNC 16a84 1c 0 __crt_char_traits<char>::get_module_file_name<std::nullptr_t,char (&)[261],int>(std::nullptr_t &&,char (&)[261],int &&)
FUNC 16aa7 1a 0 __crt_char_traits<wchar_t>::get_module_file_name<std::nullptr_t,wchar_t (&)[261],int>(std::nullptr_t &&,wchar_t (&)[261],int &&)
FUNC 16ac7 177 0 parse_command_line<char>
FUNC 16c9b 195 0 parse_command_line<wchar_t>
FUNC 16e95 11 0 __crt_char_traits<char>::set_program_name<char *>(char * &&)
FUNC 16eaa 11 0 __crt_char_traits<wchar_t>::set_program_name<wchar_t *>(wchar_t * &&)
FUNC 16ebf 10 0 <lambda_a36aafc41185bea294aaaa3896c79ecc>::<lambda_a36aafc41185bea294aaaa3896c79ecc>
FUNC 16ed3 10 0 <lambda_df1553121bfa390f1154bd84936f2730>::<lambda_df1553121bfa390f1154bd84936f2730>
FUNC 16ee7 10 0 __crt_unique_heap_ptr<unsigned char,__crt_internal_free_policy>::__crt_unique_heap_ptr<unsigned char,__crt_internal_free_policy>(unsigned char * const)
FUNC 16efb 10 0 __crt_unique_heap_ptr<char *,__crt_internal_free_policy>::__crt_unique_heap_ptr<char *,__crt_internal_free_policy>(char * * const)
FUNC 16f0f 10 0 __crt_unique_heap_ptr<wchar_t *,__crt_internal_free_policy>::__crt_unique_heap_ptr<wchar_t *,__crt_internal_free_policy>(wchar_t * * const)
FUNC 16f23 12 0 __crt_unique_heap_ptr<unsigned char,__crt_internal_free_policy>::~__crt_unique_heap_ptr<unsigned char,__crt_internal_free_policy>()
FUNC 16f39 12 0 __crt_unique_heap_ptr<char *,__crt_internal_free_policy>::~__crt_unique_heap_ptr<char *,__crt_internal_free_policy>()
FUNC 16f4f 12 0 __crt_unique_heap_ptr<wchar_t *,__crt_internal_free_policy>::~__crt_unique_heap_ptr<wchar_t *,__crt_internal_free_policy>()
FUNC 16f65 7 0 __crt_unique_heap_ptr<unsigned char,__crt_internal_free_policy>::operator bool()
FUNC 16f6c 16 0 <lambda_a36aafc41185bea294aaaa3896c79ecc>::operator()
FUNC 16f87 16 0 <lambda_df1553121bfa390f1154bd84936f2730>::operator()
FUNC 16fa2 6 0 __crt_unique_heap_ptr<unsigned char,__crt_internal_free_policy>::detach()
FUNC 16fa8 6 0 __crt_unique_heap_ptr<char *,__crt_internal_free_policy>::detach()
FUNC 16fae 6 0 __crt_unique_heap_ptr<wchar_t *,__crt_internal_free_policy>::detach()
FUNC 16fb4 5 4 do_locale_initialization
FUNC 16fb9 3 4 do_locale_initialization
FUNC 16fbc b 0 expand_argv_wildcards
FUNC 16fc9 b 0 expand_argv_wildcards
FUNC 16fd6 3 0 __crt_unique_heap_ptr<unsigned char,__crt_internal_free_policy>::get()
FUNC 16fd9 3 0 __crt_unique_heap_ptr<char *,__crt_internal_free_policy>::get()
FUNC 16fdc 3 0 __crt_unique_heap_ptr<wchar_t *,__crt_internal_free_policy>::get()
FUNC 16fdf 3 0 __crt_unique_heap_ptr<char *,__crt_internal_free_policy>::get_address_of()
FUNC 16fe2 3 0 __crt_unique_heap_ptr<wchar_t *,__crt_internal_free_policy>::get_address_of()
FUNC 16fe5 6 4 get_argv
FUNC 16feb 6 4 get_argv
FUNC 16ff1 6 4 get_command_line
FUNC 16ff7 6 4 get_command_line
FUNC 16ffd 7 0 __crt_unique_heap_ptr<unsigned char,__crt_internal_free_policy>::is_valid()
FUNC 17004 12 0 __crt_unique_heap_ptr<unsigned char,__crt_internal_free_policy>::release()
FUNC 1701a 12 0 __crt_unique_heap_ptr<char *,__crt_internal_free_policy>::release()
FUNC 17030 12 0 __crt_unique_heap_ptr<wchar_t *,__crt_internal_free_policy>::release()
FUNC 17046 17 0 should_copy_another_character
FUNC 17062 3 4 should_copy_another_character
FUNC 17065 4f 0 __acrt_allocate_buffer_for_argv
FUNC 170c7 b 0 _configure_narrow_argv
FUNC 170d4 b 0 _configure_wide_argv
FUNC 170e1 f 0 _set_pgmptr
FUNC 170f3 f 0 _set_wpgmptr
FUNC 17105 12 0 __crt_internal_free_policy::operator()<wchar_t>(wchar_t const * const)
FUNC 1711b 14 0 common_get_initial_environment<char>
FUNC 17134 14 0 common_get_initial_environment<wchar_t>
FUNC 1714d 2c 0 common_get_or_create_environment_nolock<char>
FUNC 17184 2c 0 common_get_or_create_environment_nolock<wchar_t>
FUNC 171bb 53 0 common_initialize_environment_nolock<char>
FUNC 17222 4e 0 common_initialize_environment_nolock<wchar_t>
FUNC 17283 34 0 count_variables_in_environment_block<char>
FUNC 172c4 49 0 count_variables_in_environment_block<wchar_t>
FUNC 1731f d0 0 create_environment<char>
FUNC 17423 10d 0 create_environment<wchar_t>
FUNC 17573 2f 0 free_environment<char>
FUNC 175ad 2f 0 free_environment<wchar_t>
FUNC 175e7 5 0 __crt_char_traits<char>::get_environment_from_os<>()
FUNC 175ec 5 0 __crt_char_traits<wchar_t>::get_environment_from_os<>()
FUNC 175f1 83 0 initialize_environment_by_cloning_nolock<char>
FUNC 17694 7d 0 initialize_environment_by_cloning_nolock<wchar_t>
FUNC 17730 18 0 __crt_char_traits<char>::set_variable_in_environment_nolock<char *,int>(char * &&,int &&)
FUNC 1774e 18 0 __crt_char_traits<wchar_t>::set_variable_in_environment_nolock<wchar_t *,int>(wchar_t * &&,int &&)
FUNC 1776c 1e 0 __crt_char_traits<char>::tcscpy_s<char *,unsigned int const &,char * &>(char * &&,unsigned int const &,char * &)
FUNC 17791 1e 0 __crt_char_traits<wchar_t>::tcscpy_s<wchar_t *,unsigned int const &,wchar_t * &>(wchar_t * &&,unsigned int const &,wchar_t * &)
FUNC 177b6 18 0 __crt_char_traits<char>::tcslen<char * &>(char * &)
FUNC 177d4 1e 0 __crt_char_traits<wchar_t>::tcslen<wchar_t * &>(wchar_t * &)
FUNC 177f9 29 0 __crt_state_management::dual_state_global<char * *>::uninitialize<void (&)(char * * &)>(void (&)(char * * &))
FUNC 1782c 29 0 __crt_state_management::dual_state_global<wchar_t * *>::uninitialize<void (&)(wchar_t * * &)>(void (&)(wchar_t * * &))
FUNC 1785f 1b 0 uninitialize_environment_internal<char>
FUNC 17880 1b 0 uninitialize_environment_internal<wchar_t>
FUNC 178a1 10 0 __crt_unique_heap_ptr<wchar_t,__crt_internal_free_policy>::__crt_unique_heap_ptr<wchar_t,__crt_internal_free_policy>(wchar_t * const)
FUNC 178b5 12 0 __crt_unique_heap_ptr<wchar_t,__crt_internal_free_policy>::~__crt_unique_heap_ptr<wchar_t,__crt_internal_free_policy>()
FUNC 178cb 7 0 __crt_unique_heap_ptr<char *,__crt_internal_free_policy>::operator bool()
FUNC 178d2 7 0 __crt_unique_heap_ptr<wchar_t *,__crt_internal_free_policy>::operator bool()
FUNC 178d9 7 0 __crt_unique_heap_ptr<wchar_t,__crt_internal_free_policy>::operator bool()
FUNC 178e0 1c 0 __crt_compute_required_transform_buffer_count(unsigned int,char const * const)
FUNC 17903 1e 0 __crt_compute_required_transform_buffer_count(unsigned int,wchar_t const * const)
FUNC 17928 1f 0 __crt_transform_string(unsigned int,char const * const,wchar_t * const,unsigned int)
FUNC 1794e 22 0 __crt_transform_string(unsigned int,wchar_t const * const,char * const,unsigned int)
FUNC 17978 6 0 __crt_unique_heap_ptr<char,__crt_internal_free_policy>::detach()
FUNC 1797e 6 0 __crt_unique_heap_ptr<wchar_t,__crt_internal_free_policy>::detach()
FUNC 17984 3 0 __crt_unique_heap_ptr<wchar_t,__crt_internal_free_policy>::get()
FUNC 17987 6 4 get_dual_state_environment_nolock
FUNC 1798d 6 4 get_dual_state_environment_nolock
FUNC 17993 6 4 get_environment_nolock
FUNC 17999 6 4 get_environment_nolock
FUNC 1799f 6 4 get_initial_environment
FUNC 179a5 6 4 get_initial_environment
FUNC 179ab 26 0 __crt_state_management::dual_state_global<char * *>::initialize(char * * const)
FUNC 179da 26 0 __crt_state_management::dual_state_global<wchar_t * *>::initialize(wchar_t * * const)
FUNC 17a09 7 0 __crt_unique_heap_ptr<char *,__crt_internal_free_policy>::is_valid()
FUNC 17a10 7 0 __crt_unique_heap_ptr<wchar_t *,__crt_internal_free_policy>::is_valid()
FUNC 17a17 7 0 __crt_unique_heap_ptr<wchar_t,__crt_internal_free_policy>::is_valid()
FUNC 17a1e 5 4 pre_initialize
FUNC 17a23 3 4 pre_initialize
FUNC 17a26 12 0 __crt_unique_heap_ptr<wchar_t,__crt_internal_free_policy>::release()
FUNC 17a3c 3 0 __crt_state_management::dual_state_global<char * *>::value()
FUNC 17a3f 3 0 __crt_state_management::dual_state_global<wchar_t * *>::value()
FUNC 17a42 5 0 __dcrt_get_or_create_narrow_environment_nolock
FUNC 17a47 5 0 __dcrt_get_or_create_wide_environment_nolock
FUNC 17a4c 37 0 __dcrt_uninitialize_environments_nolock
FUNC 17a90 6 0 __p__environ
FUNC 17a96 6 0 __p__wenviron
FUNC 17a9c 14 0 _get_initial_narrow_environment
FUNC 17ab5 14 0 _get_initial_wide_environment
FUNC 17ace 5 0 _initialize_narrow_environment
FUNC 17ad3 5 0 _initialize_wide_environment
FUNC 17ad8 22 0 _invoke_watson_if_error
FUNC 17b02 6 0 __crt_fast_encoded_nullptr_t::operator<void (*)(void)> void (**)(void)()
FUNC 17b08 12 0 __crt_internal_free_policy::operator()<void (*)(void)>(void (*const * const)(void))
FUNC 17b1e 5b 0 __crt_seh_guarded_call<int>::operator()<<lambda_69a2805e680e0e292e8ba93315fe43a8>,<lambda_f03950bc5685219e0bcd2087efbe011e> &,<lambda_03fcd07e894ec930e3f35da366ca99d6> >
FUNC 17b8f 5b 0 __crt_seh_guarded_call<int>::operator()<<lambda_8e746cf0007f6ed984d6f78af1fec997>,<lambda_22ebabd17bc4fa466a2aca6d8deb888d> &,<lambda_18ed0c0b38a6dc0daf1e7ac6d6adf05e> >
FUNC 17c00 26 0 __acrt_lock_and_call<<lambda_22ebabd17bc4fa466a2aca6d8deb888d> >
FUNC 17c2f 26 0 __acrt_lock_and_call<<lambda_f03950bc5685219e0bcd2087efbe011e> >
FUNC 17c5e 1f 0 __crt_fast_encode_pointer<int (*)(void)>(int (*const)(void))
FUNC 17c84 12 0 <lambda_03fcd07e894ec930e3f35da366ca99d6>::<lambda_03fcd07e894ec930e3f35da366ca99d6>
FUNC 17c9a 12 0 <lambda_18ed0c0b38a6dc0daf1e7ac6d6adf05e>::<lambda_18ed0c0b38a6dc0daf1e7ac6d6adf05e>
FUNC 17cb0 16 0 <lambda_22ebabd17bc4fa466a2aca6d8deb888d>::<lambda_22ebabd17bc4fa466a2aca6d8deb888d>
FUNC 17ccb 12 0 <lambda_69a2805e680e0e292e8ba93315fe43a8>::<lambda_69a2805e680e0e292e8ba93315fe43a8>
FUNC 17ce1 12 0 <lambda_8e746cf0007f6ed984d6f78af1fec997>::<lambda_8e746cf0007f6ed984d6f78af1fec997>
FUNC 17cf7 10 0 <lambda_f03950bc5685219e0bcd2087efbe011e>::<lambda_f03950bc5685219e0bcd2087efbe011e>
FUNC 17d0b 10 0 __crt_unique_heap_ptr<void (*)(void),__crt_internal_free_policy>::__crt_unique_heap_ptr<void (*)(void),__crt_internal_free_policy>(void (** const)(void))
FUNC 17d1f 12 0 __crt_unique_heap_ptr<void (*)(void),__crt_internal_free_policy>::~__crt_unique_heap_ptr<void (*)(void),__crt_internal_free_policy>()
FUNC 17d35 3 0 __crt_state_management::scoped_global_state_reset::~scoped_global_state_reset()
FUNC 17d38 9 0 <lambda_03fcd07e894ec930e3f35da366ca99d6>::operator()
FUNC 17d43 9 0 <lambda_18ed0c0b38a6dc0daf1e7ac6d6adf05e>::operator()
FUNC 17d4e 129 0 <lambda_22ebabd17bc4fa466a2aca6d8deb888d>::operator()
FUNC 17ec1 9 0 <lambda_69a2805e680e0e292e8ba93315fe43a8>::operator()
FUNC 17ecc 9 0 <lambda_8e746cf0007f6ed984d6f78af1fec997>::operator()
FUNC 17ed7 da 0 <lambda_f03950bc5685219e0bcd2087efbe011e>::operator()
FUNC 17fe7 6 0 __crt_unique_heap_ptr<void (*)(void),__crt_internal_free_policy>::detach()
FUNC 17fed 12 0 __crt_unique_heap_ptr<void (*)(void),__crt_internal_free_policy>::release()
FUNC 18003 16 0 _crt_at_quick_exit
FUNC 1801e 16 0 _crt_atexit
FUNC 18039 2d 0 _execute_onexit_table
FUNC 18071 29 0 _initialize_onexit_table
FUNC 180a4 33 0 _register_onexit_function
FUNC 180e3 3 4 report_memory_leaks
FUNC 180e6 d 0 initialize_global_variables
FUNC 180f6 1a 0 initialize_c
FUNC 18116 3 4 uninitialize_c
FUNC 18119 3 0 initialize_environment
FUNC 1811c 8 4 uninitialize_environment
FUNC 18126 3 0 initialize_global_state_isolation
FUNC 18129 3 4 uninitialize_global_state_isolation
FUNC 1812c 2e 0 initialize_pointers
FUNC 18165 9 4 uninitialize_vcruntime
FUNC 18170 17 0 uninitialize_allocated_memory
FUNC 1818c 50 4 uninitialize_allocated_io_buffers
FUNC 181f0 24 0 __crt_state_management::dual_state_global<__crt_multibyte_data *>::uninitialize<<lambda_af42a3ee9806e9a7305d451646e05244> >
FUNC 1821d 2e 0 <lambda_af42a3ee9806e9a7305d451646e05244>::operator()
FUNC 18256 b 0 __acrt_stdio_is_initialized()
FUNC 18263 26 0 __crt_state_management::dual_state_global<__crt_locale_data *>::initialize(__crt_locale_data * const)
FUNC 18292 12 0 __acrt_initialize
FUNC 182a8 b 0 __acrt_thread_attach
FUNC 182b5 8 0 __acrt_thread_detach
FUNC 182bf 30 0 __acrt_uninitialize
FUNC 182fb 12 0 __acrt_uninitialize_critical
FUNC 18311 16 0 get_terminate_or_default
FUNC 1832c 12 0 _get_terminate
FUNC 18342 20 0 set_terminate
FUNC 1836a 3c 0 terminate
FUNC 183b5 b 0 malloc
FUNC 183c2 5a 0 common_tcscpy_s<char>
FUNC 18432 5a 0 strcpy_s
FUNC 184a2 23 0 __crt_stdio_output::format_validation_base<char,__crt_stdio_output::stream_output_adapter<char> >::format_validation_base<char,__crt_stdio_output::stream_output_adapter<char> ><__crt_stdio_output::stream_output_adapter<char> const &,unsigned __int64 const &,char const * const &,__crt_locale_pointers * const &,char * const &>(__crt_stdio_output::stream_output_adapter<char> const &,unsigned __int64 const &,char const * const &,__crt_locale_pointers * const &,char * const &)
FUNC 184cd 48 0 __crt_stdio_output::positional_parameter_base<char,__crt_stdio_output::stream_output_adapter<char> >::positional_parameter_base<char,__crt_stdio_output::stream_output_adapter<char> ><__crt_stdio_output::stream_output_adapter<char> const &,unsigned __int64 const &,char const * const &,__crt_locale_pointers * const &,char * const &>(__crt_stdio_output::stream_output_adapter<char> const &,unsigned __int64 const &,char const * const &,__crt_locale_pointers * const &,char * const &)
FUNC 18527 35 0 __crt_stdio_output::standard_base<char,__crt_stdio_output::stream_output_adapter<char> >::standard_base<char,__crt_stdio_output::stream_output_adapter<char> ><__crt_stdio_output::stream_output_adapter<char> const &,unsigned __int64 const &,char const * const &,__crt_locale_pointers * const &,char * const &>(__crt_stdio_output::stream_output_adapter<char> const &,unsigned __int64 const &,char const * const &,__crt_locale_pointers * const &,char * const &)
FUNC 18569 23 0 __crt_stdio_output::format_validation_base<wchar_t,__crt_stdio_output::stream_output_adapter<wchar_t> >::format_validation_base<wchar_t,__crt_stdio_output::stream_output_adapter<wchar_t> ><__crt_stdio_output::stream_output_adapter<wchar_t> const &,unsigned __int64 const &,wchar_t const * const &,__crt_locale_pointers * const &,char * const &>(__crt_stdio_output::stream_output_adapter<wchar_t> const &,unsigned __int64 const &,wchar_t const * const &,__crt_locale_pointers * const &,char * const &)
FUNC 18594 48 0 __crt_stdio_output::positional_parameter_base<wchar_t,__crt_stdio_output::stream_output_adapter<wchar_t> >::positional_parameter_base<wchar_t,__crt_stdio_output::stream_output_adapter<wchar_t> ><__crt_stdio_output::stream_output_adapter<wchar_t> const &,unsigned __int64 const &,wchar_t const * const &,__crt_locale_pointers * const &,char * const &>(__crt_stdio_output::stream_output_adapter<wchar_t> const &,unsigned __int64 const &,wchar_t const * const &,__crt_locale_pointers * const &,char * const &)
FUNC 185ee 35 0 __crt_stdio_output::standard_base<wchar_t,__crt_stdio_output::stream_output_adapter<wchar_t> >::standard_base<wchar_t,__crt_stdio_output::stream_output_adapter<wchar_t> ><__crt_stdio_output::stream_output_adapter<wchar_t> const &,unsigned __int64 const &,wchar_t const * const &,__crt_locale_pointers * const &,char * const &>(__crt_stdio_output::stream_output_adapter<wchar_t> const &,unsigned __int64 const &,wchar_t const * const &,__crt_locale_pointers * const &,char * const &)
FUNC 18630 23 0 __crt_stdio_output::format_validation_base<char,__crt_stdio_output::string_output_adapter<char> >::format_validation_base<char,__crt_stdio_output::string_output_adapter<char> ><__crt_stdio_output::string_output_adapter<char> const &,unsigned __int64 const &,char const * const &,__crt_locale_pointers * const &,char * const &>(__crt_stdio_output::string_output_adapter<char> const &,unsigned __int64 const &,char const * const &,__crt_locale_pointers * const &,char * const &)
FUNC 1865b 48 0 __crt_stdio_output::positional_parameter_base<char,__crt_stdio_output::string_output_adapter<char> >::positional_parameter_base<char,__crt_stdio_output::string_output_adapter<char> ><__crt_stdio_output::string_output_adapter<char> const &,unsigned __int64 const &,char const * const &,__crt_locale_pointers * const &,char * const &>(__crt_stdio_output::string_output_adapter<char> const &,unsigned __int64 const &,char const * const &,__crt_locale_pointers * const &,char * const &)
FUNC 186b5 35 0 __crt_stdio_output::standard_base<char,__crt_stdio_output::string_output_adapter<char> >::standard_base<char,__crt_stdio_output::string_output_adapter<char> ><__crt_stdio_output::string_output_adapter<char> const &,unsigned __int64 const &,char const * const &,__crt_locale_pointers * const &,char * const &>(__crt_stdio_output::string_output_adapter<char> const &,unsigned __int64 const &,char const * const &,__crt_locale_pointers * const &,char * const &)
FUNC 186f7 23 0 __crt_stdio_output::format_validation_base<wchar_t,__crt_stdio_output::string_output_adapter<wchar_t> >::format_validation_base<wchar_t,__crt_stdio_output::string_output_adapter<wchar_t> ><__crt_stdio_output::string_output_adapter<wchar_t> const &,unsigned __int64 const &,wchar_t const * const &,__crt_locale_pointers * const &,char * const &>(__crt_stdio_output::string_output_adapter<wchar_t> const &,unsigned __int64 const &,wchar_t const * const &,__crt_locale_pointers * const &,char * const &)
FUNC 18722 48 0 __crt_stdio_output::positional_parameter_base<wchar_t,__crt_stdio_output::string_output_adapter<wchar_t> >::positional_parameter_base<wchar_t,__crt_stdio_output::string_output_adapter<wchar_t> ><__crt_stdio_output::string_output_adapter<wchar_t> const &,unsigned __int64 const &,wchar_t const * const &,__crt_locale_pointers * const &,char * const &>(__crt_stdio_output::string_output_adapter<wchar_t> const &,unsigned __int64 const &,wchar_t const * const &,__crt_locale_pointers * const &,char * const &)
FUNC 1877c 35 0 __crt_stdio_output::standard_base<wchar_t,__crt_stdio_output::string_output_adapter<wchar_t> >::standard_base<wchar_t,__crt_stdio_output::string_output_adapter<wchar_t> ><__crt_stdio_output::string_output_adapter<wchar_t> const &,unsigned __int64 const &,wchar_t const * const &,__crt_locale_pointers * const &,char * const &>(__crt_stdio_output::string_output_adapter<wchar_t> const &,unsigned __int64 const &,wchar_t const * const &,__crt_locale_pointers * const &,char * const &)
FUNC 187be 5b 0 __crt_seh_guarded_call<int>::operator()<<lambda_3cfd252a7c5e244e8f20fc56fe35ebe9>,<lambda_d7427dbf72509eba5fa970998bac2a27> &,<lambda_8f55a0afecd2292d47fde3ce68e72492> >
FUNC 1882f 5b 0 __crt_seh_guarded_call<int>::operator()<<lambda_5d912c5eb12d68f7685796d855ab8da6>,<lambda_81587a929b95143618da2bd798ca9df2> &,<lambda_bfd63e08e93a545639db6d324cf10d1a> >
FUNC 188a0 5b 0 __crt_seh_guarded_call<int>::operator()<<lambda_9b2bd5c6bb91c5c032542faa5c3cb611>,<lambda_be68057ced330f874c40fe9612235e36> &,<lambda_dbd837d1c0b7fc6e2d81c287c81c071b> >
FUNC 18911 5b 0 __crt_seh_guarded_call<int>::operator()<<lambda_ba8264b40644a42074cedf043e7aa388>,<lambda_9dc9bc4853282e051506c0cc602abcf3> &,<lambda_1c412e3457517a614fb7d0c137686c95> >
FUNC 18982 5b 0 __crt_seh_guarded_call<int>::operator()<<lambda_c29ee0499b841886b80d843682cc403a>,<lambda_0be4ab1c2a6918fda4e39227d83ea893> &,<lambda_5a3ed3da325c8ea037a470278c0f2d16> >
FUNC 189f3 5b 0 __crt_seh_guarded_call<int>::operator()<<lambda_cae121c7667f229345c68b3f32b19755>,<lambda_b09925f738b1434f525bf50d3162636f> &,<lambda_18d67e1eeb4dde13899af949c649d933> >
FUNC 18a64 26 0 __acrt_lock_stream_and_call<<lambda_0be4ab1c2a6918fda4e39227d83ea893> >
FUNC 18a93 26 0 __acrt_lock_stream_and_call<<lambda_81587a929b95143618da2bd798ca9df2> >
FUNC 18ac2 26 0 __acrt_lock_stream_and_call<<lambda_9dc9bc4853282e051506c0cc602abcf3> >
FUNC 18af1 26 0 __acrt_lock_stream_and_call<<lambda_b09925f738b1434f525bf50d3162636f> >
FUNC 18b20 26 0 __acrt_lock_stream_and_call<<lambda_be68057ced330f874c40fe9612235e36> >
FUNC 18b4f 26 0 __acrt_lock_stream_and_call<<lambda_d7427dbf72509eba5fa970998bac2a27> >
FUNC 18b7e 64 0 common_vfprintf<__crt_stdio_output::format_validation_base,char>
FUNC 18bfb 64 0 common_vfprintf<__crt_stdio_output::format_validation_base,wchar_t>
FUNC 18c78 64 0 common_vfprintf<__crt_stdio_output::positional_parameter_base,char>
FUNC 18cf5 64 0 common_vfprintf<__crt_stdio_output::positional_parameter_base,wchar_t>
FUNC 18d72 64 0 common_vfprintf<__crt_stdio_output::standard_base,char>
FUNC 18def 64 0 common_vfprintf<__crt_stdio_output::standard_base,wchar_t>
FUNC 18e6c e8 0 common_vsnprintf_s<char>
FUNC 18f8e ec 0 common_vsnprintf_s<wchar_t>
FUNC 190b5 17e 0 common_vsprintf<__crt_stdio_output::format_validation_base,char>
FUNC 19292 187 0 common_vsprintf<__crt_stdio_output::format_validation_base,wchar_t>
FUNC 1947a 1b0 0 common_vsprintf<__crt_stdio_output::positional_parameter_base,char>
FUNC 19696 1b9 0 common_vsprintf<__crt_stdio_output::positional_parameter_base,wchar_t>
FUNC 198bd 17e 0 common_vsprintf<__crt_stdio_output::standard_base,char>
FUNC 19a9a 187 0 common_vsprintf<__crt_stdio_output::standard_base,wchar_t>
FUNC 19c82 78 0 common_vsprintf_s<char>
FUNC 19d18 7a 0 common_vsprintf_s<wchar_t>
FUNC 19db0 18 0 __crt_stdio_output::formatting_buffer::count<char>()
FUNC 19dce 19 0 __crt_stdio_output::formatting_buffer::count<wchar_t>()
FUNC 19ded d 0 __crt_stdio_output::formatting_buffer::data<char>()
FUNC 19dfd d 0 __crt_stdio_output::formatting_buffer::data<wchar_t>()
FUNC 19e0d 7d 0 __crt_stdio_output::formatting_buffer::ensure_buffer_is_big_enough<char>(unsigned int)
FUNC 19ea9 7e 0 __crt_stdio_output::formatting_buffer::ensure_buffer_is_big_enough<wchar_t>(unsigned int)
FUNC 19f46 79 0 __crt_stdio_output::positional_parameter_base<char,__crt_stdio_output::stream_output_adapter<char> >::extract_argument_from_va_list<signed char,__int64>(__int64 &)
FUNC 19fdd 79 0 __crt_stdio_output::positional_parameter_base<char,__crt_stdio_output::string_output_adapter<char> >::extract_argument_from_va_list<signed char,__int64>(__int64 &)
FUNC 1a074 79 0 __crt_stdio_output::positional_parameter_base<wchar_t,__crt_stdio_output::stream_output_adapter<wchar_t> >::extract_argument_from_va_list<signed char,__int64>(__int64 &)
FUNC 1a10b 79 0 __crt_stdio_output::positional_parameter_base<wchar_t,__crt_stdio_output::string_output_adapter<wchar_t> >::extract_argument_from_va_list<signed char,__int64>(__int64 &)
FUNC 1a1a2 1f 0 __crt_stdio_output::standard_base<char,__crt_stdio_output::stream_output_adapter<char> >::extract_argument_from_va_list<signed char,__int64>(__int64 &)
FUNC 1a1c8 1f 0 __crt_stdio_output::standard_base<char,__crt_stdio_output::string_output_adapter<char> >::extract_argument_from_va_list<signed char,__int64>(__int64 &)
FUNC 1a1ee 1f 0 __crt_stdio_output::standard_base<wchar_t,__crt_stdio_output::stream_output_adapter<wchar_t> >::extract_argument_from_va_list<signed char,__int64>(__int64 &)
FUNC 1a214 1f 0 __crt_stdio_output::standard_base<wchar_t,__crt_stdio_output::string_output_adapter<wchar_t> >::extract_argument_from_va_list<signed char,__int64>(__int64 &)
FUNC 1a23a 79 0 __crt_stdio_output::positional_parameter_base<char,__crt_stdio_output::stream_output_adapter<char> >::extract_argument_from_va_list<unsigned char,__int64>(__int64 &)
FUNC 1a2d1 79 0 __crt_stdio_output::positional_parameter_base<char,__crt_stdio_output::string_output_adapter<char> >::extract_argument_from_va_list<unsigned char,__int64>(__int64 &)
FUNC 1a368 79 0 __crt_stdio_output::positional_parameter_base<wchar_t,__crt_stdio_output::stream_output_adapter<wchar_t> >::extract_argument_from_va_list<unsigned char,__int64>(__int64 &)
FUNC 1a3ff 79 0 __crt_stdio_output::positional_parameter_base<wchar_t,__crt_stdio_output::string_output_adapter<wchar_t> >::extract_argument_from_va_list<unsigned char,__int64>(__int64 &)
FUNC 1a496 1f 0 __crt_stdio_output::standard_base<char,__crt_stdio_output::stream_output_adapter<char> >::extract_argument_from_va_list<unsigned char,__int64>(__int64 &)
FUNC 1a4bc 1f 0 __crt_stdio_output::standard_base<char,__crt_stdio_output::string_output_adapter<char> >::extract_argument_from_va_list<unsigned char,__int64>(__int64 &)
FUNC 1a4e2 1f 0 __crt_stdio_output::standard_base<wchar_t,__crt_stdio_output::stream_output_adapter<wchar_t> >::extract_argument_from_va_list<unsigned char,__int64>(__int64 &)
FUNC 1a508 1f 0 __crt_stdio_output::standard_base<wchar_t,__crt_stdio_output::string_output_adapter<wchar_t> >::extract_argument_from_va_list<unsigned char,__int64>(__int64 &)
FUNC 1a52e 79 0 __crt_stdio_output::positional_parameter_base<char,__crt_stdio_output::stream_output_adapter<char> >::extract_argument_from_va_list<short,__int64>(__int64 &)
FUNC 1a5c5 79 0 __crt_stdio_output::positional_parameter_base<char,__crt_stdio_output::string_output_adapter<char> >::extract_argument_from_va_list<short,__int64>(__int64 &)
FUNC 1a65c 79 0 __crt_stdio_output::positional_parameter_base<wchar_t,__crt_stdio_output::stream_output_adapter<wchar_t> >::extract_argument_from_va_list<short,__int64>(__int64 &)
FUNC 1a6f3 79 0 __crt_stdio_output::positional_parameter_base<wchar_t,__crt_stdio_output::string_output_adapter<wchar_t> >::extract_argument_from_va_list<short,__int64>(__int64 &)
FUNC 1a78a 1f 0 __crt_stdio_output::standard_base<char,__crt_stdio_output::stream_output_adapter<char> >::extract_argument_from_va_list<short,__int64>(__int64 &)
FUNC 1a7b0 1f 0 __crt_stdio_output::standard_base<char,__crt_stdio_output::string_output_adapter<char> >::extract_argument_from_va_list<short,__int64>(__int64 &)
FUNC 1a7d6 1f 0 __crt_stdio_output::standard_base<wchar_t,__crt_stdio_output::stream_output_adapter<wchar_t> >::extract_argument_from_va_list<short,__int64>(__int64 &)
FUNC 1a7fc 1f 0 __crt_stdio_output::standard_base<wchar_t,__crt_stdio_output::string_output_adapter<wchar_t> >::extract_argument_from_va_list<short,__int64>(__int64 &)
FUNC 1a822 78 0 __crt_stdio_output::positional_parameter_base<char,__crt_stdio_output::stream_output_adapter<char> >::extract_argument_from_va_list<unsigned short,char>(char &)
FUNC 1a8b8 78 0 __crt_stdio_output::positional_parameter_base<char,__crt_stdio_output::string_output_adapter<char> >::extract_argument_from_va_list<unsigned short,char>(char &)
FUNC 1a94e 1a 0 __crt_stdio_output::standard_base<char,__crt_stdio_output::stream_output_adapter<char> >::extract_argument_from_va_list<unsigned short,char>(char &)
FUNC 1a96e 1a 0 __crt_stdio_output::standard_base<char,__crt_stdio_output::string_output_adapter<char> >::extract_argument_from_va_list<unsigned short,char>(char &)
FUNC 1a98e 79 0 __crt_stdio_output::positional_parameter_base<char,__crt_stdio_output::stream_output_adapter<char> >::extract_argument_from_va_list<unsigned short,__int64>(__int64 &)
FUNC 1aa25 79 0 __crt_stdio_output::positional_parameter_base<char,__crt_stdio_output::string_output_adapter<char> >::extract_argument_from_va_list<unsigned short,__int64>(__int64 &)
FUNC 1aabc 79 0 __crt_stdio_output::positional_parameter_base<wchar_t,__crt_stdio_output::stream_output_adapter<wchar_t> >::extract_argument_from_va_list<unsigned short,__int64>(__int64 &)
FUNC 1ab53 79 0 __crt_stdio_output::positional_parameter_base<wchar_t,__crt_stdio_output::string_output_adapter<wchar_t> >::extract_argument_from_va_list<unsigned short,__int64>(__int64 &)
FUNC 1abea 1f 0 __crt_stdio_output::standard_base<char,__crt_stdio_output::stream_output_adapter<char> >::extract_argument_from_va_list<unsigned short,__int64>(__int64 &)
FUNC 1ac10 1f 0 __crt_stdio_output::standard_base<char,__crt_stdio_output::string_output_adapter<char> >::extract_argument_from_va_list<unsigned short,__int64>(__int64 &)
FUNC 1ac36 1f 0 __crt_stdio_output::standard_base<wchar_t,__crt_stdio_output::stream_output_adapter<wchar_t> >::extract_argument_from_va_list<unsigned short,__int64>(__int64 &)
FUNC 1ac5c 1f 0 __crt_stdio_output::standard_base<wchar_t,__crt_stdio_output::string_output_adapter<wchar_t> >::extract_argument_from_va_list<unsigned short,__int64>(__int64 &)
FUNC 1ac82 77 0 __crt_stdio_output::positional_parameter_base<char,__crt_stdio_output::stream_output_adapter<char> >::extract_argument_from_va_list<int,__int64>(__int64 &)
FUNC 1ad16 77 0 __crt_stdio_output::positional_parameter_base<char,__crt_stdio_output::string_output_adapter<char> >::extract_argument_from_va_list<int,__int64>(__int64 &)
FUNC 1adaa 77 0 __crt_stdio_output::positional_parameter_base<wchar_t,__crt_stdio_output::stream_output_adapter<wchar_t> >::extract_argument_from_va_list<int,__int64>(__int64 &)
FUNC 1ae3e 77 0 __crt_stdio_output::positional_parameter_base<wchar_t,__crt_stdio_output::string_output_adapter<wchar_t> >::extract_argument_from_va_list<int,__int64>(__int64 &)
FUNC 1aed2 1e 0 __crt_stdio_output::standard_base<char,__crt_stdio_output::stream_output_adapter<char> >::extract_argument_from_va_list<int,__int64>(__int64 &)
FUNC 1aef7 1e 0 __crt_stdio_output::standard_base<char,__crt_stdio_output::string_output_adapter<char> >::extract_argument_from_va_list<int,__int64>(__int64 &)
FUNC 1af1c 1e 0 __crt_stdio_output::standard_base<wchar_t,__crt_stdio_output::stream_output_adapter<wchar_t> >::extract_argument_from_va_list<int,__int64>(__int64 &)
FUNC 1af41 1e 0 __crt_stdio_output::standard_base<wchar_t,__crt_stdio_output::string_output_adapter<wchar_t> >::extract_argument_from_va_list<int,__int64>(__int64 &)
FUNC 1af66 80 0 __crt_stdio_output::positional_parameter_base<char,__crt_stdio_output::stream_output_adapter<char> >::extract_argument_from_va_list<unsigned int,__int64>(__int64 &)
FUNC 1b006 80 0 __crt_stdio_output::positional_parameter_base<char,__crt_stdio_output::string_output_adapter<char> >::extract_argument_from_va_list<unsigned int,__int64>(__int64 &)
FUNC 1b0a6 80 0 __crt_stdio_output::positional_parameter_base<wchar_t,__crt_stdio_output::stream_output_adapter<wchar_t> >::extract_argument_from_va_list<unsigned int,__int64>(__int64 &)
FUNC 1b146 80 0 __crt_stdio_output::positional_parameter_base<wchar_t,__crt_stdio_output::string_output_adapter<wchar_t> >::extract_argument_from_va_list<unsigned int,__int64>(__int64 &)
FUNC 1b1e6 1e 0 __crt_stdio_output::standard_base<char,__crt_stdio_output::stream_output_adapter<char> >::extract_argument_from_va_list<unsigned int,__int64>(__int64 &)
FUNC 1b20b 1e 0 __crt_stdio_output::standard_base<char,__crt_stdio_output::string_output_adapter<char> >::extract_argument_from_va_list<unsigned int,__int64>(__int64 &)
FUNC 1b230 1e 0 __crt_stdio_output::standard_base<wchar_t,__crt_stdio_output::stream_output_adapter<wchar_t> >::extract_argument_from_va_list<unsigned int,__int64>(__int64 &)
FUNC 1b255 1e 0 __crt_stdio_output::standard_base<wchar_t,__crt_stdio_output::string_output_adapter<wchar_t> >::extract_argument_from_va_list<unsigned int,__int64>(__int64 &)
FUNC 1b27a 78 0 __crt_stdio_output::positional_parameter_base<char,__crt_stdio_output::stream_output_adapter<char> >::extract_argument_from_va_list<char *,char *>(char * &)
FUNC 1b310 78 0 __crt_stdio_output::positional_parameter_base<char,__crt_stdio_output::string_output_adapter<char> >::extract_argument_from_va_list<char *,char *>(char * &)
FUNC 1b3a6 78 0 __crt_stdio_output::positional_parameter_base<wchar_t,__crt_stdio_output::stream_output_adapter<wchar_t> >::extract_argument_from_va_list<char *,char *>(char * &)
FUNC 1b43c 78 0 __crt_stdio_output::positional_parameter_base<wchar_t,__crt_stdio_output::string_output_adapter<wchar_t> >::extract_argument_from_va_list<char *,char *>(char * &)
FUNC 1b4d2 1a 0 __crt_stdio_output::standard_base<char,__crt_stdio_output::stream_output_adapter<char> >::extract_argument_from_va_list<char *,char *>(char * &)
FUNC 1b4f2 1a 0 __crt_stdio_output::standard_base<char,__crt_stdio_output::string_output_adapter<char> >::extract_argument_from_va_list<char *,char *>(char * &)
FUNC 1b512 1a 0 __crt_stdio_output::standard_base<wchar_t,__crt_stdio_output::stream_output_adapter<wchar_t> >::extract_argument_from_va_list<char *,char *>(char * &)
FUNC 1b532 1a 0 __crt_stdio_output::standard_base<wchar_t,__crt_stdio_output::string_output_adapter<wchar_t> >::extract_argument_from_va_list<char *,char *>(char * &)
FUNC 1b552 1a 0 __crt_stdio_output::standard_base<char,__crt_stdio_output::stream_output_adapter<char> >::extract_argument_from_va_list<`__crt_stdio_output::output_processor<char,__crt_stdio_output::stream_output_adapter<char>,__crt_stdio_output::format_validation_base<char,__crt_stdio_output::stream_output_adapter<char> > >::type_case_Z'::`2'::ansi_string *,`__crt_stdio_output::output_processor<char,__crt_stdio_output::stream_output_adapter<char>,__crt_stdio_output::format_validation_base<char,__crt_stdio_output::stream_output_adapter<char> > >::type_case_Z'::`2'::ansi_string *>
FUNC 1b572 78 0 __crt_stdio_output::positional_parameter_base<char,__crt_stdio_output::stream_output_adapter<char> >::extract_argument_from_va_list<`__crt_stdio_output::output_processor<char,__crt_stdio_output::stream_output_adapter<char>,__crt_stdio_output::positional_parameter_base<char,__crt_stdio_output::stream_output_adapter<char> > >::type_case_Z'::`2'::ansi_string *,`__crt_stdio_output::output_processor<char,__crt_stdio_output::stream_output_adapter<char>,__crt_stdio_output::positional_parameter_base<char,__crt_stdio_output::stream_output_adapter<char> > >::type_case_Z'::`2'::ansi_string *>
FUNC 1b608 1a 0 __crt_stdio_output::standard_base<char,__crt_stdio_output::stream_output_adapter<char> >::extract_argument_from_va_list<`__crt_stdio_output::output_processor<char,__crt_stdio_output::stream_output_adapter<char>,__crt_stdio_output::positional_parameter_base<char,__crt_stdio_output::stream_output_adapter<char> > >::type_case_Z'::`2'::ansi_string *,`__crt_stdio_output::output_processor<char,__crt_stdio_output::stream_output_adapter<char>,__crt_stdio_output::positional_parameter_base<char,__crt_stdio_output::stream_output_adapter<char> > >::type_case_Z'::`2'::ansi_string *>
FUNC 1b628 1a 0 __crt_stdio_output::standard_base<char,__crt_stdio_output::stream_output_adapter<char> >::extract_argument_from_va_list<`__crt_stdio_output::output_processor<char,__crt_stdio_output::stream_output_adapter<char>,__crt_stdio_output::standard_base<char,__crt_stdio_output::stream_output_adapter<char> > >::type_case_Z'::`2'::ansi_string *,`__crt_stdio_output::output_processor<char,__crt_stdio_output::stream_output_adapter<char>,__crt_stdio_output::standard_base<char,__crt_stdio_output::stream_output_adapter<char> > >::type_case_Z'::`2'::ansi_string *>
FUNC 1b648 1a 0 __crt_stdio_output::standard_base<char,__crt_stdio_output::string_output_adapter<char> >::extract_argument_from_va_list<`__crt_stdio_output::output_processor<char,__crt_stdio_output::string_output_adapter<char>,__crt_stdio_output::format_validation_base<char,__crt_stdio_output::string_output_adapter<char> > >::type_case_Z'::`2'::ansi_string *,`__crt_stdio_output::output_processor<char,__crt_stdio_output::string_output_adapter<char>,__crt_stdio_output::format_validation_base<char,__crt_stdio_output::string_output_adapter<char> > >::type_case_Z'::`2'::ansi_string *>
FUNC 1b668 78 0 __crt_stdio_output::positional_parameter_base<char,__crt_stdio_output::string_output_adapter<char> >::extract_argument_from_va_list<`__crt_stdio_output::output_processor<char,__crt_stdio_output::string_output_adapter<char>,__crt_stdio_output::positional_parameter_base<char,__crt_stdio_output::string_output_adapter<char> > >::type_case_Z'::`2'::ansi_string *,`__crt_stdio_output::output_processor<char,__crt_stdio_output::string_output_adapter<char>,__crt_stdio_output::positional_parameter_base<char,__crt_stdio_output::string_output_adapter<char> > >::type_case_Z'::`2'::ansi_string *>
FUNC 1b6fe 1a 0 __crt_stdio_output::standard_base<char,__crt_stdio_output::string_output_adapter<char> >::extract_argument_from_va_list<`__crt_stdio_output::output_processor<char,__crt_stdio_output::string_output_adapter<char>,__crt_stdio_output::positional_parameter_base<char,__crt_stdio_output::string_output_adapter<char> > >::type_case_Z'::`2'::ansi_string *,`__crt_stdio_output::output_processor<char,__crt_stdio_output::string_output_adapter<char>,__crt_stdio_output::positional_parameter_base<char,__crt_stdio_output::string_output_adapter<char> > >::type_case_Z'::`2'::ansi_string *>
FUNC 1b71e 1a 0 __crt_stdio_output::standard_base<char,__crt_stdio_output::string_output_adapter<char> >::extract_argument_from_va_list<`__crt_stdio_output::output_processor<char,__crt_stdio_output::string_output_adapter<char>,__crt_stdio_output::standard_base<char,__crt_stdio_output::string_output_adapter<char> > >::type_case_Z'::`2'::ansi_string *,`__crt_stdio_output::output_processor<char,__crt_stdio_output::string_output_adapter<char>,__crt_stdio_output::standard_base<char,__crt_stdio_output::string_output_adapter<char> > >::type_case_Z'::`2'::ansi_string *>
FUNC 1b73e 1a 0 __crt_stdio_output::standard_base<wchar_t,__crt_stdio_output::stream_output_adapter<wchar_t> >::extract_argument_from_va_list<`__crt_stdio_output::output_processor<wchar_t,__crt_stdio_output::stream_output_adapter<wchar_t>,__crt_stdio_output::format_validation_base<wchar_t,__crt_stdio_output::stream_output_adapter<wchar_t> > >::type_case_Z'::`2'::ansi_string *,`__crt_stdio_output::output_processor<wchar_t,__crt_stdio_output::stream_output_adapter<wchar_t>,__crt_stdio_output::format_validation_base<wchar_t,__crt_stdio_output::stream_output_adapter<wchar_t> > >::type_case_Z'::`2'::ansi_string *>
FUNC 1b75e 78 0 __crt_stdio_output::positional_parameter_base<wchar_t,__crt_stdio_output::stream_output_adapter<wchar_t> >::extract_argument_from_va_list<`__crt_stdio_output::output_processor<wchar_t,__crt_stdio_output::stream_output_adapter<wchar_t>,__crt_stdio_output::positional_parameter_base<wchar_t,__crt_stdio_output::stream_output_adapter<wchar_t> > >::type_case_Z'::`2'::ansi_string *,`__crt_stdio_output::output_processor<wchar_t,__crt_stdio_output::stream_output_adapter<wchar_t>,__crt_stdio_output::positional_parameter_base<wchar_t,__crt_stdio_output::stream_output_adapter<wchar_t> > >::type_case_Z'::`2'::ansi_string *>
FUNC 1b7f4 1a 0 __crt_stdio_output::standard_base<wchar_t,__crt_stdio_output::stream_output_adapter<wchar_t> >::extract_argument_from_va_list<`__crt_stdio_output::output_processor<wchar_t,__crt_stdio_output::stream_output_adapter<wchar_t>,__crt_stdio_output::positional_parameter_base<wchar_t,__crt_stdio_output::stream_output_adapter<wchar_t> > >::type_case_Z'::`2'::ansi_string *,`__crt_stdio_output::output_processor<wchar_t,__crt_stdio_output::stream_output_adapter<wchar_t>,__crt_stdio_output::positional_parameter_base<wchar_t,__crt_stdio_output::stream_output_adapter<wchar_t> > >::type_case_Z'::`2'::ansi_string *>
FUNC 1b814 1a 0 __crt_stdio_output::standard_base<wchar_t,__crt_stdio_output::stream_output_adapter<wchar_t> >::extract_argument_from_va_list<`__crt_stdio_output::output_processor<wchar_t,__crt_stdio_output::stream_output_adapter<wchar_t>,__crt_stdio_output::standard_base<wchar_t,__crt_stdio_output::stream_output_adapter<wchar_t> > >::type_case_Z'::`2'::ansi_string *,`__crt_stdio_output::output_processor<wchar_t,__crt_stdio_output::stream_output_adapter<wchar_t>,__crt_stdio_output::standard_base<wchar_t,__crt_stdio_output::stream_output_adapter<wchar_t> > >::type_case_Z'::`2'::ansi_string *>
FUNC 1b834 1a 0 __crt_stdio_output::standard_base<wchar_t,__crt_stdio_output::string_output_adapter<wchar_t> >::extract_argument_from_va_list<`__crt_stdio_output::output_processor<wchar_t,__crt_stdio_output::string_output_adapter<wchar_t>,__crt_stdio_output::format_validation_base<wchar_t,__crt_stdio_output::string_output_adapter<wchar_t> > >::type_case_Z'::`2'::ansi_string *,`__crt_stdio_output::output_processor<wchar_t,__crt_stdio_output::string_output_adapter<wchar_t>,__crt_stdio_output::format_validation_base<wchar_t,__crt_stdio_output::string_output_adapter<wchar_t> > >::type_case_Z'::`2'::ansi_string *>
FUNC 1b854 78 0 __crt_stdio_output::positional_parameter_base<wchar_t,__crt_stdio_output::string_output_adapter<wchar_t> >::extract_argument_from_va_list<`__crt_stdio_output::output_processor<wchar_t,__crt_stdio_output::string_output_adapter<wchar_t>,__crt_stdio_output::positional_parameter_base<wchar_t,__crt_stdio_output::string_output_adapter<wchar_t> > >::type_case_Z'::`2'::ansi_string *,`__crt_stdio_output::output_processor<wchar_t,__crt_stdio_output::string_output_adapter<wchar_t>,__crt_stdio_output::positional_parameter_base<wchar_t,__crt_stdio_output::string_output_adapter<wchar_t> > >::type_case_Z'::`2'::ansi_string *>
FUNC 1b8ea 1a 0 __crt_stdio_output::standard_base<wchar_t,__crt_stdio_output::string_output_adapter<wchar_t> >::extract_argument_from_va_list<`__crt_stdio_output::output_processor<wchar_t,__crt_stdio_output::string_output_adapter<wchar_t>,__crt_stdio_output::positional_parameter_base<wchar_t,__crt_stdio_output::string_output_adapter<wchar_t> > >::type_case_Z'::`2'::ansi_string *,`__crt_stdio_output::output_processor<wchar_t,__crt_stdio_output::string_output_adapter<wchar_t>,__crt_stdio_output::positional_parameter_base<wchar_t,__crt_stdio_output::string_output_adapter<wchar_t> > >::type_case_Z'::`2'::ansi_string *>
FUNC 1b90a 1a 0 __crt_stdio_output::standard_base<wchar_t,__crt_stdio_output::string_output_adapter<wchar_t> >::extract_argument_from_va_list<`__crt_stdio_output::output_processor<wchar_t,__crt_stdio_output::string_output_adapter<wchar_t>,__crt_stdio_output::standard_base<wchar_t,__crt_stdio_output::string_output_adapter<wchar_t> > >::type_case_Z'::`2'::ansi_string *,`__crt_stdio_output::output_processor<wchar_t,__crt_stdio_output::string_output_adapter<wchar_t>,__crt_stdio_output::standard_base<wchar_t,__crt_stdio_output::string_output_adapter<wchar_t> > >::type_case_Z'::`2'::ansi_string *>
FUNC 1b92a 78 0 __crt_stdio_output::positional_parameter_base<char,__crt_stdio_output::stream_output_adapter<char> >::extract_argument_from_va_list<void *,void *>(void * &)
FUNC 1b9c0 78 0 __crt_stdio_output::positional_parameter_base<char,__crt_stdio_output::string_output_adapter<char> >::extract_argument_from_va_list<void *,void *>(void * &)
FUNC 1ba56 78 0 __crt_stdio_output::positional_parameter_base<wchar_t,__crt_stdio_output::stream_output_adapter<wchar_t> >::extract_argument_from_va_list<void *,void *>(void * &)
FUNC 1baec 78 0 __crt_stdio_output::positional_parameter_base<wchar_t,__crt_stdio_output::string_output_adapter<wchar_t> >::extract_argument_from_va_list<void *,void *>(void * &)
FUNC 1bb82 1a 0 __crt_stdio_output::standard_base<char,__crt_stdio_output::stream_output_adapter<char> >::extract_argument_from_va_list<void *,void *>(void * &)
FUNC 1bba2 1a 0 __crt_stdio_output::standard_base<char,__crt_stdio_output::string_output_adapter<char> >::extract_argument_from_va_list<void *,void *>(void * &)
FUNC 1bbc2 1a 0 __crt_stdio_output::standard_base<wchar_t,__crt_stdio_output::stream_output_adapter<wchar_t> >::extract_argument_from_va_list<void *,void *>(void * &)
FUNC 1bbe2 1a 0 __crt_stdio_output::standard_base<wchar_t,__crt_stdio_output::string_output_adapter<wchar_t> >::extract_argument_from_va_list<void *,void *>(void * &)
FUNC 1bc02 86 0 __crt_stdio_output::positional_parameter_base<char,__crt_stdio_output::stream_output_adapter<char> >::extract_argument_from_va_list<_CRT_DOUBLE,_CRT_DOUBLE>(_CRT_DOUBLE &)
FUNC 1bca9 86 0 __crt_stdio_output::positional_parameter_base<char,__crt_stdio_output::string_output_adapter<char> >::extract_argument_from_va_list<_CRT_DOUBLE,_CRT_DOUBLE>(_CRT_DOUBLE &)
FUNC 1bd50 86 0 __crt_stdio_output::positional_parameter_base<wchar_t,__crt_stdio_output::stream_output_adapter<wchar_t> >::extract_argument_from_va_list<_CRT_DOUBLE,_CRT_DOUBLE>(_CRT_DOUBLE &)
FUNC 1bdf7 86 0 __crt_stdio_output::positional_parameter_base<wchar_t,__crt_stdio_output::string_output_adapter<wchar_t> >::extract_argument_from_va_list<_CRT_DOUBLE,_CRT_DOUBLE>(_CRT_DOUBLE &)
FUNC 1be9e 20 0 __crt_stdio_output::standard_base<char,__crt_stdio_output::stream_output_adapter<char> >::extract_argument_from_va_list<_CRT_DOUBLE,_CRT_DOUBLE>(_CRT_DOUBLE &)
FUNC 1bec6 20 0 __crt_stdio_output::standard_base<char,__crt_stdio_output::string_output_adapter<char> >::extract_argument_from_va_list<_CRT_DOUBLE,_CRT_DOUBLE>(_CRT_DOUBLE &)
FUNC 1beee 20 0 __crt_stdio_output::standard_base<wchar_t,__crt_stdio_output::stream_output_adapter<wchar_t> >::extract_argument_from_va_list<_CRT_DOUBLE,_CRT_DOUBLE>(_CRT_DOUBLE &)
FUNC 1bf16 20 0 __crt_stdio_output::standard_base<wchar_t,__crt_stdio_output::string_output_adapter<wchar_t> >::extract_argument_from_va_list<_CRT_DOUBLE,_CRT_DOUBLE>(_CRT_DOUBLE &)
FUNC 1bf3e 86 0 __crt_stdio_output::positional_parameter_base<char,__crt_stdio_output::stream_output_adapter<char> >::extract_argument_from_va_list<__int64,__int64>(__int64 &)
FUNC 1bfe5 86 0 __crt_stdio_output::positional_parameter_base<char,__crt_stdio_output::string_output_adapter<char> >::extract_argument_from_va_list<__int64,__int64>(__int64 &)
FUNC 1c08c 86 0 __crt_stdio_output::positional_parameter_base<wchar_t,__crt_stdio_output::stream_output_adapter<wchar_t> >::extract_argument_from_va_list<__int64,__int64>(__int64 &)
FUNC 1c133 86 0 __crt_stdio_output::positional_parameter_base<wchar_t,__crt_stdio_output::string_output_adapter<wchar_t> >::extract_argument_from_va_list<__int64,__int64>(__int64 &)
FUNC 1c1da 20 0 __crt_stdio_output::standard_base<char,__crt_stdio_output::stream_output_adapter<char> >::extract_argument_from_va_list<__int64,__int64>(__int64 &)
FUNC 1c202 20 0 __crt_stdio_output::standard_base<char,__crt_stdio_output::string_output_adapter<char> >::extract_argument_from_va_list<__int64,__int64>(__int64 &)
FUNC 1c22a 20 0 __crt_stdio_output::standard_base<wchar_t,__crt_stdio_output::stream_output_adapter<wchar_t> >::extract_argument_from_va_list<__int64,__int64>(__int64 &)
FUNC 1c252 20 0 __crt_stdio_output::standard_base<wchar_t,__crt_stdio_output::string_output_adapter<wchar_t> >::extract_argument_from_va_list<__int64,__int64>(__int64 &)
FUNC 1c27a 86 0 __crt_stdio_output::positional_parameter_base<char,__crt_stdio_output::stream_output_adapter<char> >::extract_argument_from_va_list<unsigned __int64,__int64>(__int64 &)
FUNC 1c321 86 0 __crt_stdio_output::positional_parameter_base<char,__crt_stdio_output::string_output_adapter<char> >::extract_argument_from_va_list<unsigned __int64,__int64>(__int64 &)
FUNC 1c3c8 86 0 __crt_stdio_output::positional_parameter_base<wchar_t,__crt_stdio_output::stream_output_adapter<wchar_t> >::extract_argument_from_va_list<unsigned __int64,__int64>(__int64 &)
FUNC 1c46f 86 0 __crt_stdio_output::positional_parameter_base<wchar_t,__crt_stdio_output::string_output_adapter<wchar_t> >::extract_argument_from_va_list<unsigned __int64,__int64>(__int64 &)
FUNC 1c516 20 0 __crt_stdio_output::standard_base<char,__crt_stdio_output::stream_output_adapter<char> >::extract_argument_from_va_list<unsigned __int64,__int64>(__int64 &)
FUNC 1c53e 20 0 __crt_stdio_output::standard_base<char,__crt_stdio_output::string_output_adapter<char> >::extract_argument_from_va_list<unsigned __int64,__int64>(__int64 &)
FUNC 1c566 20 0 __crt_stdio_output::standard_base<wchar_t,__crt_stdio_output::stream_output_adapter<wchar_t> >::extract_argument_from_va_list<unsigned __int64,__int64>(__int64 &)
FUNC 1c58e 20 0 __crt_stdio_output::standard_base<wchar_t,__crt_stdio_output::string_output_adapter<wchar_t> >::extract_argument_from_va_list<unsigned __int64,__int64>(__int64 &)
FUNC 1c5b6 7c 0 __crt_stdio_output::positional_parameter_base<char,__crt_stdio_output::stream_output_adapter<char> >::extract_argument_from_va_list<wchar_t,wchar_t>(wchar_t &)
FUNC 1c651 7c 0 __crt_stdio_output::positional_parameter_base<char,__crt_stdio_output::string_output_adapter<char> >::extract_argument_from_va_list<wchar_t,wchar_t>(wchar_t &)
FUNC 1c6ec 7c 0 __crt_stdio_output::positional_parameter_base<wchar_t,__crt_stdio_output::stream_output_adapter<wchar_t> >::extract_argument_from_va_list<wchar_t,wchar_t>(wchar_t &)
FUNC 1c787 7c 0 __crt_stdio_output::positional_parameter_base<wchar_t,__crt_stdio_output::string_output_adapter<wchar_t> >::extract_argument_from_va_list<wchar_t,wchar_t>(wchar_t &)
FUNC 1c822 1c 0 __crt_stdio_output::standard_base<char,__crt_stdio_output::stream_output_adapter<char> >::extract_argument_from_va_list<wchar_t,wchar_t>(wchar_t &)
FUNC 1c845 1c 0 __crt_stdio_output::standard_base<char,__crt_stdio_output::string_output_adapter<char> >::extract_argument_from_va_list<wchar_t,wchar_t>(wchar_t &)
FUNC 1c868 1c 0 __crt_stdio_output::standard_base<wchar_t,__crt_stdio_output::stream_output_adapter<wchar_t> >::extract_argument_from_va_list<wchar_t,wchar_t>(wchar_t &)
FUNC 1c88b 1c 0 __crt_stdio_output::standard_base<wchar_t,__crt_stdio_output::string_output_adapter<wchar_t> >::extract_argument_from_va_list<wchar_t,wchar_t>(wchar_t &)
FUNC 1c8ae 4 4 __crt_stdio_output::positional_parameter_base<char,__crt_stdio_output::stream_output_adapter<char> >::get_parameter_type<char>(char *)
FUNC 1c8b2 4 4 __crt_stdio_output::positional_parameter_base<char,__crt_stdio_output::string_output_adapter<char> >::get_parameter_type<char>(char *)
FUNC 1c8b6 4 4 __crt_stdio_output::positional_parameter_base<wchar_t,__crt_stdio_output::stream_output_adapter<wchar_t> >::get_parameter_type<char>(char *)
FUNC 1c8ba 4 4 __crt_stdio_output::positional_parameter_base<wchar_t,__crt_stdio_output::string_output_adapter<wchar_t> >::get_parameter_type<char>(char *)
FUNC 1c8be 4 4 __crt_stdio_output::positional_parameter_base<char,__crt_stdio_output::stream_output_adapter<char> >::get_parameter_type<`__crt_stdio_output::output_processor<char,__crt_stdio_output::stream_output_adapter<char>,__crt_stdio_output::positional_parameter_base<char,__crt_stdio_output::stream_output_adapter<char> > >::type_case_Z'::`2'::ansi_string>
FUNC 1c8c2 4 4 __crt_stdio_output::positional_parameter_base<char,__crt_stdio_output::string_output_adapter<char> >::get_parameter_type<`__crt_stdio_output::output_processor<char,__crt_stdio_output::string_output_adapter<char>,__crt_stdio_output::positional_parameter_base<char,__crt_stdio_output::string_output_adapter<char> > >::type_case_Z'::`2'::ansi_string>
FUNC 1c8c6 4 4 __crt_stdio_output::positional_parameter_base<wchar_t,__crt_stdio_output::stream_output_adapter<wchar_t> >::get_parameter_type<`__crt_stdio_output::output_processor<wchar_t,__crt_stdio_output::stream_output_adapter<wchar_t>,__crt_stdio_output::positional_parameter_base<wchar_t,__crt_stdio_output::stream_output_adapter<wchar_t> > >::type_case_Z'::`2'::ansi_string>
FUNC 1c8ca 4 4 __crt_stdio_output::positional_parameter_base<wchar_t,__crt_stdio_output::string_output_adapter<wchar_t> >::get_parameter_type<`__crt_stdio_output::output_processor<wchar_t,__crt_stdio_output::string_output_adapter<wchar_t>,__crt_stdio_output::positional_parameter_base<wchar_t,__crt_stdio_output::string_output_adapter<wchar_t> > >::type_case_Z'::`2'::ansi_string>
FUNC 1c8ce 4 4 __crt_stdio_output::positional_parameter_base<char,__crt_stdio_output::stream_output_adapter<char> >::get_parameter_type<void>(void *)
FUNC 1c8d2 4 4 __crt_stdio_output::positional_parameter_base<char,__crt_stdio_output::string_output_adapter<char> >::get_parameter_type<void>(void *)
FUNC 1c8d6 4 4 __crt_stdio_output::positional_parameter_base<wchar_t,__crt_stdio_output::stream_output_adapter<wchar_t> >::get_parameter_type<void>(void *)
FUNC 1c8da 4 4 __crt_stdio_output::positional_parameter_base<wchar_t,__crt_stdio_output::string_output_adapter<wchar_t> >::get_parameter_type<void>(void *)
FUNC 1c8de 18 0 __crt_stdio_output::positional_parameter_base<char,__crt_stdio_output::stream_output_adapter<char> >::is_character_specifier<char>(char)
FUNC 1c8fc 18 0 __crt_stdio_output::positional_parameter_base<char,__crt_stdio_output::string_output_adapter<char> >::is_character_specifier<char>(char)
FUNC 1c91a 1b 0 __crt_stdio_output::positional_parameter_base<wchar_t,__crt_stdio_output::stream_output_adapter<wchar_t> >::is_character_specifier<wchar_t>(wchar_t)
FUNC 1c93b 1b 0 __crt_stdio_output::positional_parameter_base<wchar_t,__crt_stdio_output::string_output_adapter<wchar_t> >::is_character_specifier<wchar_t>(wchar_t)
FUNC 1c95c 2c 0 __crt_stdio_output::positional_parameter_base<char,__crt_stdio_output::stream_output_adapter<char> >::is_integral_specifier<char>(char)
FUNC 1c993 2c 0 __crt_stdio_output::positional_parameter_base<char,__crt_stdio_output::string_output_adapter<char> >::is_integral_specifier<char>(char)
FUNC 1c9ca 3b 0 __crt_stdio_output::positional_parameter_base<wchar_t,__crt_stdio_output::stream_output_adapter<wchar_t> >::is_integral_specifier<wchar_t>(wchar_t)
FUNC 1ca13 3b 0 __crt_stdio_output::positional_parameter_base<wchar_t,__crt_stdio_output::string_output_adapter<wchar_t> >::is_integral_specifier<wchar_t>(wchar_t)
FUNC 1ca5c e 0 __crt_stdio_output::positional_parameter_base<char,__crt_stdio_output::stream_output_adapter<char> >::is_pointer_specifier<char>(char)
FUNC 1ca6d e 0 __crt_stdio_output::positional_parameter_base<char,__crt_stdio_output::string_output_adapter<char> >::is_pointer_specifier<char>(char)
FUNC 1ca7e f 0 __crt_stdio_output::positional_parameter_base<wchar_t,__crt_stdio_output::stream_output_adapter<wchar_t> >::is_pointer_specifier<wchar_t>(wchar_t)
FUNC 1ca90 f 0 __crt_stdio_output::positional_parameter_base<wchar_t,__crt_stdio_output::string_output_adapter<wchar_t> >::is_pointer_specifier<wchar_t>(wchar_t)
FUNC 1caa2 18 0 __crt_stdio_output::positional_parameter_base<char,__crt_stdio_output::stream_output_adapter<char> >::is_string_specifier<char>(char)
FUNC 1cac0 18 0 __crt_stdio_output::positional_parameter_base<char,__crt_stdio_output::string_output_adapter<char> >::is_string_specifier<char>(char)
FUNC 1cade 1b 0 __crt_stdio_output::positional_parameter_base<wchar_t,__crt_stdio_output::stream_output_adapter<wchar_t> >::is_string_specifier<wchar_t>(wchar_t)
FUNC 1caff 1b 0 __crt_stdio_output::positional_parameter_base<wchar_t,__crt_stdio_output::string_output_adapter<wchar_t> >::is_string_specifier<wchar_t>(wchar_t)
FUNC 1cb20 31 0 __crt_stdio_output::is_wide_character_specifier<char>(unsigned __int64,char,__crt_stdio_output::length_modifier)
FUNC 1cb5d 4e 0 __crt_stdio_output::is_wide_character_specifier<wchar_t>(unsigned __int64,wchar_t,__crt_stdio_output::length_modifier)
FUNC 1cbbe c 0 __crt_stdio_output::peek_va_arg<signed char>(char *)
FUNC 1cbcd c 0 __crt_stdio_output::peek_va_arg<unsigned char>(char *)
FUNC 1cbdc d 0 __crt_stdio_output::peek_va_arg<short>(char *)
FUNC 1cbec d 0 __crt_stdio_output::peek_va_arg<unsigned short>(char *)
FUNC 1cbfc c 0 __crt_stdio_output::peek_va_arg<int>(char *)
FUNC 1cc0b c 0 __crt_stdio_output::peek_va_arg<unsigned int>(char *)
FUNC 1cc1a c 0 __crt_stdio_output::peek_va_arg<char *>(char *)
FUNC 1cc29 c 0 __crt_stdio_output::peek_va_arg<`__crt_stdio_output::output_processor<char,__crt_stdio_output::stream_output_adapter<char>,__crt_stdio_output::positional_parameter_base<char,__crt_stdio_output::stream_output_adapter<char> > >::type_case_Z'::`2'::ansi_string *>
FUNC 1cc38 c 0 __crt_stdio_output::peek_va_arg<`__crt_stdio_output::output_processor<char,__crt_stdio_output::string_output_adapter<char>,__crt_stdio_output::positional_parameter_base<char,__crt_stdio_output::string_output_adapter<char> > >::type_case_Z'::`2'::ansi_string *>
FUNC 1cc47 c 0 __crt_stdio_output::peek_va_arg<`__crt_stdio_output::output_processor<wchar_t,__crt_stdio_output::stream_output_adapter<wchar_t>,__crt_stdio_output::positional_parameter_base<wchar_t,__crt_stdio_output::stream_output_adapter<wchar_t> > >::type_case_Z'::`2'::ansi_string *>
FUNC 1cc56 c 0 __crt_stdio_output::peek_va_arg<`__crt_stdio_output::output_processor<wchar_t,__crt_stdio_output::string_output_adapter<wchar_t>,__crt_stdio_output::positional_parameter_base<wchar_t,__crt_stdio_output::string_output_adapter<wchar_t> > >::type_case_Z'::`2'::ansi_string *>
FUNC 1cc65 c 0 __crt_stdio_output::peek_va_arg<void *>(char *)
FUNC 1cc74 f 0 __crt_stdio_output::peek_va_arg<_CRT_DOUBLE>(char *)
FUNC 1cc86 f 0 __crt_stdio_output::peek_va_arg<__int64>(char *)
FUNC 1cc98 f 0 __crt_stdio_output::peek_va_arg<unsigned __int64>(char *)
FUNC 1ccaa d 0 __crt_stdio_output::peek_va_arg<wchar_t>(char *)
FUNC 1ccba 1a 0 __crt_char_traits<char>::puttc_nolock<char const &,_iobuf *>(char const &,_iobuf * &&)
FUNC 1ccda 1a 0 __crt_char_traits<wchar_t>::puttc_nolock<wchar_t const &,_iobuf *>(wchar_t const &,_iobuf * &&)
FUNC 1ccfa 12 0 __crt_stdio_output::read_va_arg<signed char>(char * &)
FUNC 1cd10 12 0 __crt_stdio_output::read_va_arg<unsigned char>(char * &)
FUNC 1cd26 13 0 __crt_stdio_output::read_va_arg<short>(char * &)
FUNC 1cd3d 13 0 __crt_stdio_output::read_va_arg<unsigned short>(char * &)
FUNC 1cd54 12 0 __crt_stdio_output::read_va_arg<int>(char * &)
FUNC 1cd6a 12 0 __crt_stdio_output::read_va_arg<unsigned int>(char * &)
FUNC 1cd80 12 0 __crt_stdio_output::read_va_arg<char *>(char * &)
FUNC 1cd96 12 0 __crt_stdio_output::read_va_arg<`__crt_stdio_output::output_processor<char,__crt_stdio_output::stream_output_adapter<char>,__crt_stdio_output::format_validation_base<char,__crt_stdio_output::stream_output_adapter<char> > >::type_case_Z'::`2'::ansi_string *>
FUNC 1cdac 12 0 __crt_stdio_output::read_va_arg<`__crt_stdio_output::output_processor<char,__crt_stdio_output::stream_output_adapter<char>,__crt_stdio_output::positional_parameter_base<char,__crt_stdio_output::stream_output_adapter<char> > >::type_case_Z'::`2'::ansi_string *>
FUNC 1cdc2 12 0 __crt_stdio_output::read_va_arg<`__crt_stdio_output::output_processor<char,__crt_stdio_output::stream_output_adapter<char>,__crt_stdio_output::standard_base<char,__crt_stdio_output::stream_output_adapter<char> > >::type_case_Z'::`2'::ansi_string *>
FUNC 1cdd8 12 0 __crt_stdio_output::read_va_arg<`__crt_stdio_output::output_processor<char,__crt_stdio_output::string_output_adapter<char>,__crt_stdio_output::format_validation_base<char,__crt_stdio_output::string_output_adapter<char> > >::type_case_Z'::`2'::ansi_string *>
FUNC 1cdee 12 0 __crt_stdio_output::read_va_arg<`__crt_stdio_output::output_processor<char,__crt_stdio_output::string_output_adapter<char>,__crt_stdio_output::positional_parameter_base<char,__crt_stdio_output::string_output_adapter<char> > >::type_case_Z'::`2'::ansi_string *>
FUNC 1ce04 12 0 __crt_stdio_output::read_va_arg<`__crt_stdio_output::output_processor<char,__crt_stdio_output::string_output_adapter<char>,__crt_stdio_output::standard_base<char,__crt_stdio_output::string_output_adapter<char> > >::type_case_Z'::`2'::ansi_string *>
FUNC 1ce1a 12 0 __crt_stdio_output::read_va_arg<`__crt_stdio_output::output_processor<wchar_t,__crt_stdio_output::stream_output_adapter<wchar_t>,__crt_stdio_output::format_validation_base<wchar_t,__crt_stdio_output::stream_output_adapter<wchar_t> > >::type_case_Z'::`2'::ansi_string *>
FUNC 1ce30 12 0 __crt_stdio_output::read_va_arg<`__crt_stdio_output::output_processor<wchar_t,__crt_stdio_output::stream_output_adapter<wchar_t>,__crt_stdio_output::positional_parameter_base<wchar_t,__crt_stdio_output::stream_output_adapter<wchar_t> > >::type_case_Z'::`2'::ansi_string *>
FUNC 1ce46 12 0 __crt_stdio_output::read_va_arg<`__crt_stdio_output::output_processor<wchar_t,__crt_stdio_output::stream_output_adapter<wchar_t>,__crt_stdio_output::standard_base<wchar_t,__crt_stdio_output::stream_output_adapter<wchar_t> > >::type_case_Z'::`2'::ansi_string *>
FUNC 1ce5c 12 0 __crt_stdio_output::read_va_arg<`__crt_stdio_output::output_processor<wchar_t,__crt_stdio_output::string_output_adapter<wchar_t>,__crt_stdio_output::format_validation_base<wchar_t,__crt_stdio_output::string_output_adapter<wchar_t> > >::type_case_Z'::`2'::ansi_string *>
FUNC 1ce72 12 0 __crt_stdio_output::read_va_arg<`__crt_stdio_output::output_processor<wchar_t,__crt_stdio_output::string_output_adapter<wchar_t>,__crt_stdio_output::positional_parameter_base<wchar_t,__crt_stdio_output::string_output_adapter<wchar_t> > >::type_case_Z'::`2'::ansi_string *>
FUNC 1ce88 12 0 __crt_stdio_output::read_va_arg<`__crt_stdio_output::output_processor<wchar_t,__crt_stdio_output::string_output_adapter<wchar_t>,__crt_stdio_output::standard_base<wchar_t,__crt_stdio_output::string_output_adapter<wchar_t> > >::type_case_Z'::`2'::ansi_string *>
FUNC 1ce9e 12 0 __crt_stdio_output::read_va_arg<void *>(char * &)
FUNC 1ceb4 16 0 __crt_stdio_output::read_va_arg<_CRT_DOUBLE>(char * &)
FUNC 1cecf 15 0 __crt_stdio_output::read_va_arg<__int64>(char * &)
FUNC 1cee9 15 0 __crt_stdio_output::read_va_arg<unsigned __int64>(char * &)
FUNC 1cf03 13 0 __crt_stdio_output::read_va_arg<wchar_t>(char * &)
FUNC 1cf1a 5 0 __crt_stdio_output::formatting_buffer::scratch_count<char>()
FUNC 1cf1f 1e 0 __crt_stdio_output::formatting_buffer::scratch_data<char>()
FUNC 1cf44 1e 0 __crt_char_traits<char>::tcstol<char const * &,char * *,int>(char const * &,char * * &&,int &&)
FUNC 1cf69 1e 0 __crt_char_traits<wchar_t>::tcstol<wchar_t const * &,wchar_t * *,int>(wchar_t const * &,wchar_t * * &&,int &&)
FUNC 1cf8e 1e 0 __crt_char_traits<char>::tcstol<char const *,char * *,int>(char const * &&,char * * &&,int &&)
FUNC 1cfb3 1e 0 __crt_char_traits<wchar_t>::tcstol<wchar_t const *,wchar_t * *,int>(wchar_t const * &&,wchar_t * * &&,int &&)
FUNC 1cfd8 73 0 __crt_stdio_output::output_processor<char,__crt_stdio_output::stream_output_adapter<char>,__crt_stdio_output::format_validation_base<char,__crt_stdio_output::stream_output_adapter<char> > >::type_case_integer_parse_into_buffer<unsigned int>(unsigned int,unsigned int,bool)
FUNC 1d067 73 0 __crt_stdio_output::output_processor<char,__crt_stdio_output::stream_output_adapter<char>,__crt_stdio_output::positional_parameter_base<char,__crt_stdio_output::stream_output_adapter<char> > >::type_case_integer_parse_into_buffer<unsigned int>(unsigned int,unsigned int,bool)
FUNC 1d0f6 73 0 __crt_stdio_output::output_processor<char,__crt_stdio_output::stream_output_adapter<char>,__crt_stdio_output::standard_base<char,__crt_stdio_output::stream_output_adapter<char> > >::type_case_integer_parse_into_buffer<unsigned int>(unsigned int,unsigned int,bool)
FUNC 1d185 73 0 __crt_stdio_output::output_processor<char,__crt_stdio_output::string_output_adapter<char>,__crt_stdio_output::format_validation_base<char,__crt_stdio_output::string_output_adapter<char> > >::type_case_integer_parse_into_buffer<unsigned int>(unsigned int,unsigned int,bool)
FUNC 1d214 73 0 __crt_stdio_output::output_processor<char,__crt_stdio_output::string_output_adapter<char>,__crt_stdio_output::positional_parameter_base<char,__crt_stdio_output::string_output_adapter<char> > >::type_case_integer_parse_into_buffer<unsigned int>(unsigned int,unsigned int,bool)
FUNC 1d2a3 73 0 __crt_stdio_output::output_processor<char,__crt_stdio_output::string_output_adapter<char>,__crt_stdio_output::standard_base<char,__crt_stdio_output::string_output_adapter<char> > >::type_case_integer_parse_into_buffer<unsigned int>(unsigned int,unsigned int,bool)
FUNC 1d332 87 0 __crt_stdio_output::output_processor<wchar_t,__crt_stdio_output::stream_output_adapter<wchar_t>,__crt_stdio_output::format_validation_base<wchar_t,__crt_stdio_output::stream_output_adapter<wchar_t> > >::type_case_integer_parse_into_buffer<unsigned int>(unsigned int,unsigned int,bool)
FUNC 1d3da 87 0 __crt_stdio_output::output_processor<wchar_t,__crt_stdio_output::stream_output_adapter<wchar_t>,__crt_stdio_output::positional_parameter_base<wchar_t,__crt_stdio_output::stream_output_adapter<wchar_t> > >::type_case_integer_parse_into_buffer<unsigned int>(unsigned int,unsigned int,bool)
FUNC 1d482 87 0 __crt_stdio_output::output_processor<wchar_t,__crt_stdio_output::stream_output_adapter<wchar_t>,__crt_stdio_output::standard_base<wchar_t,__crt_stdio_output::stream_output_adapter<wchar_t> > >::type_case_integer_parse_into_buffer<unsigned int>(unsigned int,unsigned int,bool)
FUNC 1d52a 87 0 __crt_stdio_output::output_processor<wchar_t,__crt_stdio_output::string_output_adapter<wchar_t>,__crt_stdio_output::format_validation_base<wchar_t,__crt_stdio_output::string_output_adapter<wchar_t> > >::type_case_integer_parse_into_buffer<unsigned int>(unsigned int,unsigned int,bool)
FUNC 1d5d2 87 0 __crt_stdio_output::output_processor<wchar_t,__crt_stdio_output::string_output_adapter<wchar_t>,__crt_stdio_output::positional_parameter_base<wchar_t,__crt_stdio_output::string_output_adapter<wchar_t> > >::type_case_integer_parse_into_buffer<unsigned int>(unsigned int,unsigned int,bool)
FUNC 1d67a 87 0 __crt_stdio_output::output_processor<wchar_t,__crt_stdio_output::string_output_adapter<wchar_t>,__crt_stdio_output::standard_base<wchar_t,__crt_stdio_output::string_output_adapter<wchar_t> > >::type_case_integer_parse_into_buffer<unsigned int>(unsigned int,unsigned int,bool)
FUNC 1d722 8e 0 __crt_stdio_output::output_processor<char,__crt_stdio_output::stream_output_adapter<char>,__crt_stdio_output::format_validation_base<char,__crt_stdio_output::stream_output_adapter<char> > >::type_case_integer_parse_into_buffer<unsigned __int64>(unsigned __int64,unsigned int,bool)
FUNC 1d7d3 8e 0 __crt_stdio_output::output_processor<char,__crt_stdio_output::stream_output_adapter<char>,__crt_stdio_output::positional_parameter_base<char,__crt_stdio_output::stream_output_adapter<char> > >::type_case_integer_parse_into_buffer<unsigned __int64>(unsigned __int64,unsigned int,bool)
FUNC 1d884 8e 0 __crt_stdio_output::output_processor<char,__crt_stdio_output::stream_output_adapter<char>,__crt_stdio_output::standard_base<char,__crt_stdio_output::stream_output_adapter<char> > >::type_case_integer_parse_into_buffer<unsigned __int64>(unsigned __int64,unsigned int,bool)
FUNC 1d935 8e 0 __crt_stdio_output::output_processor<char,__crt_stdio_output::string_output_adapter<char>,__crt_stdio_output::format_validation_base<char,__crt_stdio_output::string_output_adapter<char> > >::type_case_integer_parse_into_buffer<unsigned __int64>(unsigned __int64,unsigned int,bool)
FUNC 1d9e6 8e 0 __crt_stdio_output::output_processor<char,__crt_stdio_output::string_output_adapter<char>,__crt_stdio_output::positional_parameter_base<char,__crt_stdio_output::string_output_adapter<char> > >::type_case_integer_parse_into_buffer<unsigned __int64>(unsigned __int64,unsigned int,bool)
FUNC 1da97 8e 0 __crt_stdio_output::output_processor<char,__crt_stdio_output::string_output_adapter<char>,__crt_stdio_output::standard_base<char,__crt_stdio_output::string_output_adapter<char> > >::type_case_integer_parse_into_buffer<unsigned __int64>(unsigned __int64,unsigned int,bool)
FUNC 1db48 a2 0 __crt_stdio_output::output_processor<wchar_t,__crt_stdio_output::stream_output_adapter<wchar_t>,__crt_stdio_output::format_validation_base<wchar_t,__crt_stdio_output::stream_output_adapter<wchar_t> > >::type_case_integer_parse_into_buffer<unsigned __int64>(unsigned __int64,unsigned int,bool)
FUNC 1dc12 a2 0 __crt_stdio_output::output_processor<wchar_t,__crt_stdio_output::stream_output_adapter<wchar_t>,__crt_stdio_output::positional_parameter_base<wchar_t,__crt_stdio_output::stream_output_adapter<wchar_t> > >::type_case_integer_parse_into_buffer<unsigned __int64>(unsigned __int64,unsigned int,bool)
FUNC 1dcdc a2 0 __crt_stdio_output::output_processor<wchar_t,__crt_stdio_output::stream_output_adapter<wchar_t>,__crt_stdio_output::standard_base<wchar_t,__crt_stdio_output::stream_output_adapter<wchar_t> > >::type_case_integer_parse_into_buffer<unsigned __int64>(unsigned __int64,unsigned int,bool)
FUNC 1dda6 a2 0 __crt_stdio_output::output_processor<wchar_t,__crt_stdio_output::string_output_adapter<wchar_t>,__crt_stdio_output::format_validation_base<wchar_t,__crt_stdio_output::string_output_adapter<wchar_t> > >::type_case_integer_parse_into_buffer<unsigned __int64>(unsigned __int64,unsigned int,bool)
FUNC 1de70 a2 0 __crt_stdio_output::output_processor<wchar_t,__crt_stdio_output::string_output_adapter<wchar_t>,__crt_stdio_output::positional_parameter_base<wchar_t,__crt_stdio_output::string_output_adapter<wchar_t> > >::type_case_integer_parse_into_buffer<unsigned __int64>(unsigned __int64,unsigned int,bool)
FUNC 1df3a a2 0 __crt_stdio_output::output_processor<wchar_t,__crt_stdio_output::string_output_adapter<wchar_t>,__crt_stdio_output::standard_base<wchar_t,__crt_stdio_output::string_output_adapter<wchar_t> > >::type_case_integer_parse_into_buffer<unsigned __int64>(unsigned __int64,unsigned int,bool)
FUNC 1e004 3b 0 __crt_stdio_output::write_multiple_characters<__crt_stdio_output::stream_output_adapter<char>,char>(__crt_stdio_output::stream_output_adapter<char> const &,char,int,int * const)
FUNC 1e04d 40 0 __crt_stdio_output::write_multiple_characters<__crt_stdio_output::stream_output_adapter<wchar_t>,char>(__crt_stdio_output::stream_output_adapter<wchar_t> const &,char,int,int * const)
FUNC 1e09d 2c 0 __crt_stdio_output::write_multiple_characters<__crt_stdio_output::string_output_adapter<char>,char>(__crt_stdio_output::string_output_adapter<char> const &,char,int,int * const)
FUNC 1e0d4 31 0 __crt_stdio_output::write_multiple_characters<__crt_stdio_output::string_output_adapter<wchar_t>,char>(__crt_stdio_output::string_output_adapter<wchar_t> const &,char,int,int * const)
FUNC 1e111 28 0 <lambda_0be4ab1c2a6918fda4e39227d83ea893>::<lambda_0be4ab1c2a6918fda4e39227d83ea893>
FUNC 1e143 12 0 <lambda_18d67e1eeb4dde13899af949c649d933>::<lambda_18d67e1eeb4dde13899af949c649d933>
FUNC 1e159 12 0 <lambda_1c412e3457517a614fb7d0c137686c95>::<lambda_1c412e3457517a614fb7d0c137686c95>
FUNC 1e16f 12 0 <lambda_3cfd252a7c5e244e8f20fc56fe35ebe9>::<lambda_3cfd252a7c5e244e8f20fc56fe35ebe9>
FUNC 1e185 12 0 <lambda_5a3ed3da325c8ea037a470278c0f2d16>::<lambda_5a3ed3da325c8ea037a470278c0f2d16>
FUNC 1e19b 12 0 <lambda_5d912c5eb12d68f7685796d855ab8da6>::<lambda_5d912c5eb12d68f7685796d855ab8da6>
FUNC 1e1b1 28 0 <lambda_81587a929b95143618da2bd798ca9df2>::<lambda_81587a929b95143618da2bd798ca9df2>
FUNC 1e1e3 12 0 <lambda_8f55a0afecd2292d47fde3ce68e72492>::<lambda_8f55a0afecd2292d47fde3ce68e72492>
FUNC 1e1f9 12 0 <lambda_9b2bd5c6bb91c5c032542faa5c3cb611>::<lambda_9b2bd5c6bb91c5c032542faa5c3cb611>
FUNC 1e20f 28 0 <lambda_9dc9bc4853282e051506c0cc602abcf3>::<lambda_9dc9bc4853282e051506c0cc602abcf3>
FUNC 1e241 28 0 <lambda_b09925f738b1434f525bf50d3162636f>::<lambda_b09925f738b1434f525bf50d3162636f>
FUNC 1e273 12 0 <lambda_ba8264b40644a42074cedf043e7aa388>::<lambda_ba8264b40644a42074cedf043e7aa388>
FUNC 1e289 28 0 <lambda_be68057ced330f874c40fe9612235e36>::<lambda_be68057ced330f874c40fe9612235e36>
FUNC 1e2bb 12 0 <lambda_bfd63e08e93a545639db6d324cf10d1a>::<lambda_bfd63e08e93a545639db6d324cf10d1a>
FUNC 1e2d1 12 0 <lambda_c29ee0499b841886b80d843682cc403a>::<lambda_c29ee0499b841886b80d843682cc403a>
FUNC 1e2e7 12 0 <lambda_cae121c7667f229345c68b3f32b19755>::<lambda_cae121c7667f229345c68b3f32b19755>
FUNC 1e2fd 28 0 <lambda_d7427dbf72509eba5fa970998bac2a27>::<lambda_d7427dbf72509eba5fa970998bac2a27>
FUNC 1e32f 12 0 <lambda_dbd837d1c0b7fc6e2d81c287c81c071b>::<lambda_dbd837d1c0b7fc6e2d81c287c81c071b>
FUNC 1e345 45 0 __crt_stdio_output::common_data<char>::common_data<char>()
FUNC 1e39b 4a 0 __crt_stdio_output::common_data<wchar_t>::common_data<wchar_t>()
FUNC 1e3f7 3c 0 __crt_stdio_output::output_adapter_data<char,__crt_stdio_output::stream_output_adapter<char> >::output_adapter_data<char,__crt_stdio_output::stream_output_adapter<char> >(__crt_stdio_output::stream_output_adapter<char> const &,unsigned __int64,char const * const,__crt_locale_pointers * const,char * const)
FUNC 1e442 3c 0 __crt_stdio_output::output_adapter_data<char,__crt_stdio_output::string_output_adapter<char> >::output_adapter_data<char,__crt_stdio_output::string_output_adapter<char> >(__crt_stdio_output::string_output_adapter<char> const &,unsigned __int64,char const * const,__crt_locale_pointers * const,char * const)
FUNC 1e48d 3c 0 __crt_stdio_output::output_adapter_data<wchar_t,__crt_stdio_output::stream_output_adapter<wchar_t> >::output_adapter_data<wchar_t,__crt_stdio_output::stream_output_adapter<wchar_t> >(__crt_stdio_output::stream_output_adapter<wchar_t> const &,unsigned __int64,wchar_t const * const,__crt_locale_pointers * const,char * const)
FUNC 1e4d8 3c 0 __crt_stdio_output::output_adapter_data<wchar_t,__crt_stdio_output::string_output_adapter<wchar_t> >::output_adapter_data<wchar_t,__crt_stdio_output::string_output_adapter<wchar_t> >(__crt_stdio_output::string_output_adapter<wchar_t> const &,unsigned __int64,wchar_t const * const,__crt_locale_pointers * const,char * const)
FUNC 1e523 2d 0 __crt_stdio_output::output_processor<char,__crt_stdio_output::stream_output_adapter<char>,__crt_stdio_output::format_validation_base<char,__crt_stdio_output::stream_output_adapter<char> > >::output_processor<char,__crt_stdio_output::stream_output_adapter<char>,__crt_stdio_output::format_validation_base<char,__crt_stdio_output::stream_output_adapter<char> > >(__crt_stdio_output::stream_output_adapter<char> const &,unsigned __int64,char const * const,__crt_locale_pointers * const,char * const)
FUNC 1e55b 27 0 __crt_stdio_output::output_processor<char,__crt_stdio_output::stream_output_adapter<char>,__crt_stdio_output::positional_parameter_base<char,__crt_stdio_output::stream_output_adapter<char> > >::output_processor<char,__crt_stdio_output::stream_output_adapter<char>,__crt_stdio_output::positional_parameter_base<char,__crt_stdio_output::stream_output_adapter<char> > >(__crt_stdio_output::stream_output_adapter<char> const &,unsigned __int64,char const * const,__crt_locale_pointers * const,char * const)
FUNC 1e58b 2d 0 __crt_stdio_output::output_processor<char,__crt_stdio_output::stream_output_adapter<char>,__crt_stdio_output::standard_base<char,__crt_stdio_output::stream_output_adapter<char> > >::output_processor<char,__crt_stdio_output::stream_output_adapter<char>,__crt_stdio_output::standard_base<char,__crt_stdio_output::stream_output_adapter<char> > >(__crt_stdio_output::stream_output_adapter<char> const &,unsigned __int64,char const * const,__crt_locale_pointers * const,char * const)
FUNC 1e5c3 2d 0 __crt_stdio_output::output_processor<char,__crt_stdio_output::string_output_adapter<char>,__crt_stdio_output::format_validation_base<char,__crt_stdio_output::string_output_adapter<char> > >::output_processor<char,__crt_stdio_output::string_output_adapter<char>,__crt_stdio_output::format_validation_base<char,__crt_stdio_output::string_output_adapter<char> > >(__crt_stdio_output::string_output_adapter<char> const &,unsigned __int64,char const * const,__crt_locale_pointers * const,char * const)
FUNC 1e5fb 27 0 __crt_stdio_output::output_processor<char,__crt_stdio_output::string_output_adapter<char>,__crt_stdio_output::positional_parameter_base<char,__crt_stdio_output::string_output_adapter<char> > >::output_processor<char,__crt_stdio_output::string_output_adapter<char>,__crt_stdio_output::positional_parameter_base<char,__crt_stdio_output::string_output_adapter<char> > >(__crt_stdio_output::string_output_adapter<char> const &,unsigned __int64,char const * const,__crt_locale_pointers * const,char * const)
FUNC 1e62b 2d 0 __crt_stdio_output::output_processor<char,__crt_stdio_output::string_output_adapter<char>,__crt_stdio_output::standard_base<char,__crt_stdio_output::string_output_adapter<char> > >::output_processor<char,__crt_stdio_output::string_output_adapter<char>,__crt_stdio_output::standard_base<char,__crt_stdio_output::string_output_adapter<char> > >(__crt_stdio_output::string_output_adapter<char> const &,unsigned __int64,char const * const,__crt_locale_pointers * const,char * const)
FUNC 1e663 2d 0 __crt_stdio_output::output_processor<wchar_t,__crt_stdio_output::stream_output_adapter<wchar_t>,__crt_stdio_output::format_validation_base<wchar_t,__crt_stdio_output::stream_output_adapter<wchar_t> > >::output_processor<wchar_t,__crt_stdio_output::stream_output_adapter<wchar_t>,__crt_stdio_output::format_validation_base<wchar_t,__crt_stdio_output::stream_output_adapter<wchar_t> > >(__crt_stdio_output::stream_output_adapter<wchar_t> const &,unsigned __int64,wchar_t const * const,__crt_locale_pointers * const,char * const)
FUNC 1e69b 27 0 __crt_stdio_output::output_processor<wchar_t,__crt_stdio_output::stream_output_adapter<wchar_t>,__crt_stdio_output::positional_parameter_base<wchar_t,__crt_stdio_output::stream_output_adapter<wchar_t> > >::output_processor<wchar_t,__crt_stdio_output::stream_output_adapter<wchar_t>,__crt_stdio_output::positional_parameter_base<wchar_t,__crt_stdio_output::stream_output_adapter<wchar_t> > >(__crt_stdio_output::stream_output_adapter<wchar_t> const &,unsigned __int64,wchar_t const * const,__crt_locale_pointers * const,char * const)
FUNC 1e6cb 2d 0 __crt_stdio_output::output_processor<wchar_t,__crt_stdio_output::stream_output_adapter<wchar_t>,__crt_stdio_output::standard_base<wchar_t,__crt_stdio_output::stream_output_adapter<wchar_t> > >::output_processor<wchar_t,__crt_stdio_output::stream_output_adapter<wchar_t>,__crt_stdio_output::standard_base<wchar_t,__crt_stdio_output::stream_output_adapter<wchar_t> > >(__crt_stdio_output::stream_output_adapter<wchar_t> const &,unsigned __int64,wchar_t const * const,__crt_locale_pointers * const,char * const)
FUNC 1e703 2d 0 __crt_stdio_output::output_processor<wchar_t,__crt_stdio_output::string_output_adapter<wchar_t>,__crt_stdio_output::format_validation_base<wchar_t,__crt_stdio_output::string_output_adapter<wchar_t> > >::output_processor<wchar_t,__crt_stdio_output::string_output_adapter<wchar_t>,__crt_stdio_output::format_validation_base<wchar_t,__crt_stdio_output::string_output_adapter<wchar_t> > >(__crt_stdio_output::string_output_adapter<wchar_t> const &,unsigned __int64,wchar_t const * const,__crt_locale_pointers * const,char * const)
FUNC 1e73b 27 0 __crt_stdio_output::output_processor<wchar_t,__crt_stdio_output::string_output_adapter<wchar_t>,__crt_stdio_output::positional_parameter_base<wchar_t,__crt_stdio_output::string_output_adapter<wchar_t> > >::output_processor<wchar_t,__crt_stdio_output::string_output_adapter<wchar_t>,__crt_stdio_output::positional_parameter_base<wchar_t,__crt_stdio_output::string_output_adapter<wchar_t> > >(__crt_stdio_output::string_output_adapter<wchar_t> const &,unsigned __int64,wchar_t const * const,__crt_locale_pointers * const,char * const)
FUNC 1e76b 2d 0 __crt_stdio_output::output_processor<wchar_t,__crt_stdio_output::string_output_adapter<wchar_t>,__crt_stdio_output::standard_base<wchar_t,__crt_stdio_output::string_output_adapter<wchar_t> > >::output_processor<wchar_t,__crt_stdio_output::string_output_adapter<wchar_t>,__crt_stdio_output::standard_base<wchar_t,__crt_stdio_output::string_output_adapter<wchar_t> > >(__crt_stdio_output::string_output_adapter<wchar_t> const &,unsigned __int64,wchar_t const * const,__crt_locale_pointers * const,char * const)
FUNC 1e7a3 10 0 __crt_stdio_output::stream_output_adapter<char>::stream_output_adapter<char>(_iobuf * const)
FUNC 1e7b7 10 0 __crt_stdio_output::stream_output_adapter<wchar_t>::stream_output_adapter<wchar_t>(_iobuf * const)
FUNC 1e7cb 10 0 __crt_stdio_output::string_output_adapter<char>::string_output_adapter<char>(__crt_stdio_output::string_output_adapter_context<char> * const)
FUNC 1e7df 10 0 __crt_stdio_output::string_output_adapter<wchar_t>::string_output_adapter<wchar_t>(__crt_stdio_output::string_output_adapter_context<wchar_t> * const)
FUNC 1e7f3 83 0 _LocaleUpdate::_LocaleUpdate(__crt_locale_pointers * const)
FUNC 1e896 1e 0 __acrt_stdio_temporary_buffering_guard::__acrt_stdio_temporary_buffering_guard(_iobuf * const)
FUNC 1e8bb 6 0 __crt_deferred_errno_cache::__crt_deferred_errno_cache()
FUNC 1e8c1 18 0 __crt_errno_guard::__crt_errno_guard(int * const)
FUNC 1e8df 10 0 __crt_stdio_stream::__crt_stdio_stream(_iobuf * const)
FUNC 1e8f3 11 0 __crt_stdio_output::formatting_buffer::formatting_buffer()
FUNC 1e908 8 0 __crt_stdio_output::common_data<char>::~common_data<char>()
FUNC 1e912 8 0 __crt_stdio_output::common_data<wchar_t>::~common_data<wchar_t>()
FUNC 1e91c 8 0 __crt_stdio_output::format_validation_base<char,__crt_stdio_output::stream_output_adapter<char> >::~format_validation_base<char,__crt_stdio_output::stream_output_adapter<char> >()
FUNC 1e926 8 0 __crt_stdio_output::format_validation_base<char,__crt_stdio_output::string_output_adapter<char> >::~format_validation_base<char,__crt_stdio_output::string_output_adapter<char> >()
FUNC 1e930 8 0 __crt_stdio_output::format_validation_base<wchar_t,__crt_stdio_output::stream_output_adapter<wchar_t> >::~format_validation_base<wchar_t,__crt_stdio_output::stream_output_adapter<wchar_t> >()
FUNC 1e93a 8 0 __crt_stdio_output::format_validation_base<wchar_t,__crt_stdio_output::string_output_adapter<wchar_t> >::~format_validation_base<wchar_t,__crt_stdio_output::string_output_adapter<wchar_t> >()
FUNC 1e944 8 0 __crt_stdio_output::output_adapter_data<char,__crt_stdio_output::stream_output_adapter<char> >::~output_adapter_data<char,__crt_stdio_output::stream_output_adapter<char> >()
FUNC 1e94e 8 0 __crt_stdio_output::output_adapter_data<char,__crt_stdio_output::string_output_adapter<char> >::~output_adapter_data<char,__crt_stdio_output::string_output_adapter<char> >()
FUNC 1e958 8 0 __crt_stdio_output::output_adapter_data<wchar_t,__crt_stdio_output::stream_output_adapter<wchar_t> >::~output_adapter_data<wchar_t,__crt_stdio_output::stream_output_adapter<wchar_t> >()
FUNC 1e962 8 0 __crt_stdio_output::output_adapter_data<wchar_t,__crt_stdio_output::string_output_adapter<wchar_t> >::~output_adapter_data<wchar_t,__crt_stdio_output::string_output_adapter<wchar_t> >()
FUNC 1e96c 8 0 __crt_stdio_output::output_processor<char,__crt_stdio_output::stream_output_adapter<char>,__crt_stdio_output::format_validation_base<char,__crt_stdio_output::stream_output_adapter<char> > >::~output_processor<char,__crt_stdio_output::stream_output_adapter<char>,__crt_stdio_output::format_validation_base<char,__crt_stdio_output::stream_output_adapter<char> > >()
FUNC 1e976 8 0 __crt_stdio_output::output_processor<char,__crt_stdio_output::stream_output_adapter<char>,__crt_stdio_output::positional_parameter_base<char,__crt_stdio_output::stream_output_adapter<char> > >::~output_processor<char,__crt_stdio_output::stream_output_adapter<char>,__crt_stdio_output::positional_parameter_base<char,__crt_stdio_output::stream_output_adapter<char> > >()
FUNC 1e980 8 0 __crt_stdio_output::output_processor<char,__crt_stdio_output::stream_output_adapter<char>,__crt_stdio_output::standard_base<char,__crt_stdio_output::stream_output_adapter<char> > >::~output_processor<char,__crt_stdio_output::stream_output_adapter<char>,__crt_stdio_output::standard_base<char,__crt_stdio_output::stream_output_adapter<char> > >()
FUNC 1e98a 8 0 __crt_stdio_output::output_processor<char,__crt_stdio_output::string_output_adapter<char>,__crt_stdio_output::format_validation_base<char,__crt_stdio_output::string_output_adapter<char> > >::~output_processor<char,__crt_stdio_output::string_output_adapter<char>,__crt_stdio_output::format_validation_base<char,__crt_stdio_output::string_output_adapter<char> > >()
FUNC 1e994 8 0 __crt_stdio_output::output_processor<char,__crt_stdio_output::string_output_adapter<char>,__crt_stdio_output::positional_parameter_base<char,__crt_stdio_output::string_output_adapter<char> > >::~output_processor<char,__crt_stdio_output::string_output_adapter<char>,__crt_stdio_output::positional_parameter_base<char,__crt_stdio_output::string_output_adapter<char> > >()
FUNC 1e99e 8 0 __crt_stdio_output::output_processor<char,__crt_stdio_output::string_output_adapter<char>,__crt_stdio_output::standard_base<char,__crt_stdio_output::string_output_adapter<char> > >::~output_processor<char,__crt_stdio_output::string_output_adapter<char>,__crt_stdio_output::standard_base<char,__crt_stdio_output::string_output_adapter<char> > >()
FUNC 1e9a8 8 0 __crt_stdio_output::output_processor<wchar_t,__crt_stdio_output::stream_output_adapter<wchar_t>,__crt_stdio_output::format_validation_base<wchar_t,__crt_stdio_output::stream_output_adapter<wchar_t> > >::~output_processor<wchar_t,__crt_stdio_output::stream_output_adapter<wchar_t>,__crt_stdio_output::format_validation_base<wchar_t,__crt_stdio_output::stream_output_adapter<wchar_t> > >()
FUNC 1e9b2 8 0 __crt_stdio_output::output_processor<wchar_t,__crt_stdio_output::stream_output_adapter<wchar_t>,__crt_stdio_output::positional_parameter_base<wchar_t,__crt_stdio_output::stream_output_adapter<wchar_t> > >::~output_processor<wchar_t,__crt_stdio_output::stream_output_adapter<wchar_t>,__crt_stdio_output::positional_parameter_base<wchar_t,__crt_stdio_output::stream_output_adapter<wchar_t> > >()
FUNC 1e9bc 8 0 __crt_stdio_output::output_processor<wchar_t,__crt_stdio_output::stream_output_adapter<wchar_t>,__crt_stdio_output::standard_base<wchar_t,__crt_stdio_output::stream_output_adapter<wchar_t> > >::~output_processor<wchar_t,__crt_stdio_output::stream_output_adapter<wchar_t>,__crt_stdio_output::standard_base<wchar_t,__crt_stdio_output::stream_output_adapter<wchar_t> > >()
FUNC 1e9c6 8 0 __crt_stdio_output::output_processor<wchar_t,__crt_stdio_output::string_output_adapter<wchar_t>,__crt_stdio_output::format_validation_base<wchar_t,__crt_stdio_output::string_output_adapter<wchar_t> > >::~output_processor<wchar_t,__crt_stdio_output::string_output_adapter<wchar_t>,__crt_stdio_output::format_validation_base<wchar_t,__crt_stdio_output::string_output_adapter<wchar_t> > >()
FUNC 1e9d0 8 0 __crt_stdio_output::output_processor<wchar_t,__crt_stdio_output::string_output_adapter<wchar_t>,__crt_stdio_output::positional_parameter_base<wchar_t,__crt_stdio_output::string_output_adapter<wchar_t> > >::~output_processor<wchar_t,__crt_stdio_output::string_output_adapter<wchar_t>,__crt_stdio_output::positional_parameter_base<wchar_t,__crt_stdio_output::string_output_adapter<wchar_t> > >()
FUNC 1e9da 8 0 __crt_stdio_output::output_processor<wchar_t,__crt_stdio_output::string_output_adapter<wchar_t>,__crt_stdio_output::standard_base<wchar_t,__crt_stdio_output::string_output_adapter<wchar_t> > >::~output_processor<wchar_t,__crt_stdio_output::string_output_adapter<wchar_t>,__crt_stdio_output::standard_base<wchar_t,__crt_stdio_output::string_output_adapter<wchar_t> > >()
FUNC 1e9e4 8 0 __crt_stdio_output::positional_parameter_base<char,__crt_stdio_output::stream_output_adapter<char> >::~positional_parameter_base<char,__crt_stdio_output::stream_output_adapter<char> >()
FUNC 1e9ee 8 0 __crt_stdio_output::positional_parameter_base<char,__crt_stdio_output::string_output_adapter<char> >::~positional_parameter_base<char,__crt_stdio_output::string_output_adapter<char> >()
FUNC 1e9f8 8 0 __crt_stdio_output::positional_parameter_base<wchar_t,__crt_stdio_output::stream_output_adapter<wchar_t> >::~positional_parameter_base<wchar_t,__crt_stdio_output::stream_output_adapter<wchar_t> >()
FUNC 1ea02 8 0 __crt_stdio_output::positional_parameter_base<wchar_t,__crt_stdio_output::string_output_adapter<wchar_t> >::~positional_parameter_base<wchar_t,__crt_stdio_output::string_output_adapter<wchar_t> >()
FUNC 1ea0c 8 0 __crt_stdio_output::standard_base<char,__crt_stdio_output::stream_output_adapter<char> >::~standard_base<char,__crt_stdio_output::stream_output_adapter<char> >()
FUNC 1ea16 8 0 __crt_stdio_output::standard_base<char,__crt_stdio_output::string_output_adapter<char> >::~standard_base<char,__crt_stdio_output::string_output_adapter<char> >()
FUNC 1ea20 8 0 __crt_stdio_output::standard_base<wchar_t,__crt_stdio_output::stream_output_adapter<wchar_t> >::~standard_base<wchar_t,__crt_stdio_output::stream_output_adapter<wchar_t> >()
FUNC 1ea2a 8 0 __crt_stdio_output::standard_base<wchar_t,__crt_stdio_output::string_output_adapter<wchar_t> >::~standard_base<wchar_t,__crt_stdio_output::string_output_adapter<wchar_t> >()
FUNC 1ea34 10 0 _LocaleUpdate::~_LocaleUpdate()
FUNC 1ea48 f 0 __acrt_stdio_temporary_buffering_guard::~__acrt_stdio_temporary_buffering_guard()
FUNC 1ea5a 11 0 __crt_errno_guard::~__crt_errno_guard()
FUNC 1ea6f 1a 0 __crt_stdio_output::formatting_buffer::~formatting_buffer()
FUNC 1ea8f 24 0 __crt_unique_heap_ptr<char,__crt_internal_free_policy>::operator=(__crt_unique_heap_ptr<char,__crt_internal_free_policy> &&)
FUNC 1eabc 3 0 __crt_stdio_stream::operator->()
FUNC 1eabf bf 0 <lambda_0be4ab1c2a6918fda4e39227d83ea893>::operator()
FUNC 1ebad 9 0 <lambda_18d67e1eeb4dde13899af949c649d933>::operator()
FUNC 1ebb8 9 0 <lambda_1c412e3457517a614fb7d0c137686c95>::operator()
FUNC 1ebc3 9 0 <lambda_3cfd252a7c5e244e8f20fc56fe35ebe9>::operator()
FUNC 1ebce 9 0 <lambda_5a3ed3da325c8ea037a470278c0f2d16>::operator()
FUNC 1ebd9 9 0 <lambda_5d912c5eb12d68f7685796d855ab8da6>::operator()
FUNC 1ebe4 bf 0 <lambda_81587a929b95143618da2bd798ca9df2>::operator()
FUNC 1ecd2 9 0 <lambda_8f55a0afecd2292d47fde3ce68e72492>::operator()
FUNC 1ecdd 9 0 <lambda_9b2bd5c6bb91c5c032542faa5c3cb611>::operator()
FUNC 1ece8 f4 0 <lambda_9dc9bc4853282e051506c0cc602abcf3>::operator()
FUNC 1ee19 f4 0 <lambda_b09925f738b1434f525bf50d3162636f>::operator()
FUNC 1ef4a 9 0 <lambda_ba8264b40644a42074cedf043e7aa388>::operator()
FUNC 1ef55 bf 0 <lambda_be68057ced330f874c40fe9612235e36>::operator()
FUNC 1f043 9 0 <lambda_bfd63e08e93a545639db6d324cf10d1a>::operator()
FUNC 1f04e 9 0 <lambda_c29ee0499b841886b80d843682cc403a>::operator()
FUNC 1f059 9 0 <lambda_cae121c7667f229345c68b3f32b19755>::operator()
FUNC 1f064 bf 0 <lambda_d7427dbf72509eba5fa970998bac2a27>::operator()
FUNC 1f152 9 0 <lambda_dbd837d1c0b7fc6e2d81c287c81c071b>::operator()
FUNC 1f15d 4 0 _LocaleUpdate::GetLocaleT()
FUNC 1f161 14 0 __crt_stdio_output::output_processor<char,__crt_stdio_output::stream_output_adapter<char>,__crt_stdio_output::format_validation_base<char,__crt_stdio_output::stream_output_adapter<char> > >::adjust_hexit(int,bool)
FUNC 1f17a 14 0 __crt_stdio_output::output_processor<char,__crt_stdio_output::stream_output_adapter<char>,__crt_stdio_output::positional_parameter_base<char,__crt_stdio_output::stream_output_adapter<char> > >::adjust_hexit(int,bool)
FUNC 1f193 14 0 __crt_stdio_output::output_processor<char,__crt_stdio_output::stream_output_adapter<char>,__crt_stdio_output::standard_base<char,__crt_stdio_output::stream_output_adapter<char> > >::adjust_hexit(int,bool)
FUNC 1f1ac 14 0 __crt_stdio_output::output_processor<char,__crt_stdio_output::string_output_adapter<char>,__crt_stdio_output::format_validation_base<char,__crt_stdio_output::string_output_adapter<char> > >::adjust_hexit(int,bool)
FUNC 1f1c5 14 0 __crt_stdio_output::output_processor<char,__crt_stdio_output::string_output_adapter<char>,__crt_stdio_output::positional_parameter_base<char,__crt_stdio_output::string_output_adapter<char> > >::adjust_hexit(int,bool)
FUNC 1f1de 14 0 __crt_stdio_output::output_processor<char,__crt_stdio_output::string_output_adapter<char>,__crt_stdio_output::standard_base<char,__crt_stdio_output::string_output_adapter<char> > >::adjust_hexit(int,bool)
FUNC 1f1f7 14 0 __crt_stdio_output::output_processor<wchar_t,__crt_stdio_output::stream_output_adapter<wchar_t>,__crt_stdio_output::format_validation_base<wchar_t,__crt_stdio_output::stream_output_adapter<wchar_t> > >::adjust_hexit(int,bool)
FUNC 1f210 14 0 __crt_stdio_output::output_processor<wchar_t,__crt_stdio_output::stream_output_adapter<wchar_t>,__crt_stdio_output::positional_parameter_base<wchar_t,__crt_stdio_output::stream_output_adapter<wchar_t> > >::adjust_hexit(int,bool)
FUNC 1f229 14 0 __crt_stdio_output::output_processor<wchar_t,__crt_stdio_output::stream_output_adapter<wchar_t>,__crt_stdio_output::standard_base<wchar_t,__crt_stdio_output::stream_output_adapter<wchar_t> > >::adjust_hexit(int,bool)
FUNC 1f242 14 0 __crt_stdio_output::output_processor<wchar_t,__crt_stdio_output::string_output_adapter<wchar_t>,__crt_stdio_output::format_validation_base<wchar_t,__crt_stdio_output::string_output_adapter<wchar_t> > >::adjust_hexit(int,bool)
FUNC 1f25b 14 0 __crt_stdio_output::output_processor<wchar_t,__crt_stdio_output::string_output_adapter<wchar_t>,__crt_stdio_output::positional_parameter_base<wchar_t,__crt_stdio_output::string_output_adapter<wchar_t> > >::adjust_hexit(int,bool)
FUNC 1f274 14 0 __crt_stdio_output::output_processor<wchar_t,__crt_stdio_output::string_output_adapter<wchar_t>,__crt_stdio_output::standard_base<wchar_t,__crt_stdio_output::string_output_adapter<wchar_t> > >::adjust_hexit(int,bool)
FUNC 1f28d 4c 0 __crt_stdio_output::positional_parameter_base<char,__crt_stdio_output::stream_output_adapter<char> >::advance_to_next_pass()
FUNC 1f2ec 4c 0 __crt_stdio_output::positional_parameter_base<char,__crt_stdio_output::string_output_adapter<char> >::advance_to_next_pass()
FUNC 1f34b 4c 0 __crt_stdio_output::positional_parameter_base<wchar_t,__crt_stdio_output::stream_output_adapter<wchar_t> >::advance_to_next_pass()
FUNC 1f3aa 4c 0 __crt_stdio_output::positional_parameter_base<wchar_t,__crt_stdio_output::string_output_adapter<wchar_t> >::advance_to_next_pass()
FUNC 1f409 11 0 __crt_stdio_output::standard_base<char,__crt_stdio_output::stream_output_adapter<char> >::advance_to_next_pass()
FUNC 1f41e 11 0 __crt_stdio_output::standard_base<char,__crt_stdio_output::string_output_adapter<char> >::advance_to_next_pass()
FUNC 1f433 11 0 __crt_stdio_output::standard_base<wchar_t,__crt_stdio_output::stream_output_adapter<wchar_t> >::advance_to_next_pass()
FUNC 1f448 11 0 __crt_stdio_output::standard_base<wchar_t,__crt_stdio_output::string_output_adapter<wchar_t> >::advance_to_next_pass()
FUNC 1f45d 60 0 __crt_stdio_output::crop_zeroes(char *,__crt_locale_pointers * const)
FUNC 1f4d5 40 0 __crt_stdio_output::output_processor<char,__crt_stdio_output::stream_output_adapter<char>,__crt_stdio_output::format_validation_base<char,__crt_stdio_output::stream_output_adapter<char> > >::find_next_state(char,__crt_stdio_output::state)
FUNC 1f525 40 0 __crt_stdio_output::output_processor<char,__crt_stdio_output::stream_output_adapter<char>,__crt_stdio_output::positional_parameter_base<char,__crt_stdio_output::stream_output_adapter<char> > >::find_next_state(char,__crt_stdio_output::state)
FUNC 1f575 3d 0 __crt_stdio_output::output_processor<char,__crt_stdio_output::stream_output_adapter<char>,__crt_stdio_output::standard_base<char,__crt_stdio_output::stream_output_adapter<char> > >::find_next_state(char,__crt_stdio_output::state)
FUNC 1f5c1 40 0 __crt_stdio_output::output_processor<char,__crt_stdio_output::string_output_adapter<char>,__crt_stdio_output::format_validation_base<char,__crt_stdio_output::string_output_adapter<char> > >::find_next_state(char,__crt_stdio_output::state)
FUNC 1f611 40 0 __crt_stdio_output::output_processor<char,__crt_stdio_output::string_output_adapter<char>,__crt_stdio_output::positional_parameter_base<char,__crt_stdio_output::string_output_adapter<char> > >::find_next_state(char,__crt_stdio_output::state)
FUNC 1f661 3d 0 __crt_stdio_output::output_processor<char,__crt_stdio_output::string_output_adapter<char>,__crt_stdio_output::standard_base<char,__crt_stdio_output::string_output_adapter<char> > >::find_next_state(char,__crt_stdio_output::state)
FUNC 1f6ad 42 0 __crt_stdio_output::output_processor<wchar_t,__crt_stdio_output::stream_output_adapter<wchar_t>,__crt_stdio_output::format_validation_base<wchar_t,__crt_stdio_output::stream_output_adapter<wchar_t> > >::find_next_state(wchar_t,__crt_stdio_output::state)
FUNC 1f6ff 42 0 __crt_stdio_output::output_processor<wchar_t,__crt_stdio_output::stream_output_adapter<wchar_t>,__crt_stdio_output::positional_parameter_base<wchar_t,__crt_stdio_output::stream_output_adapter<wchar_t> > >::find_next_state(wchar_t,__crt_stdio_output::state)
FUNC 1f751 3f 0 __crt_stdio_output::output_processor<wchar_t,__crt_stdio_output::stream_output_adapter<wchar_t>,__crt_stdio_output::standard_base<wchar_t,__crt_stdio_output::stream_output_adapter<wchar_t> > >::find_next_state(wchar_t,__crt_stdio_output::state)
FUNC 1f79f 42 0 __crt_stdio_output::output_processor<wchar_t,__crt_stdio_output::string_output_adapter<wchar_t>,__crt_stdio_output::format_validation_base<wchar_t,__crt_stdio_output::string_output_adapter<wchar_t> > >::find_next_state(wchar_t,__crt_stdio_output::state)
FUNC 1f7f1 42 0 __crt_stdio_output::output_processor<wchar_t,__crt_stdio_output::string_output_adapter<wchar_t>,__crt_stdio_output::positional_parameter_base<wchar_t,__crt_stdio_output::string_output_adapter<wchar_t> > >::find_next_state(wchar_t,__crt_stdio_output::state)
FUNC 1f843 3f 0 __crt_stdio_output::output_processor<wchar_t,__crt_stdio_output::string_output_adapter<wchar_t>,__crt_stdio_output::standard_base<wchar_t,__crt_stdio_output::string_output_adapter<wchar_t> > >::find_next_state(wchar_t,__crt_stdio_output::state)
FUNC 1f891 5c 0 __crt_stdio_output::force_decimal_point(char *,__crt_locale_pointers * const)
FUNC 1f904 14 0 __crt_deferred_errno_cache::get()
FUNC 1f91d 7 0 __crt_stdio_stream::get_flags()
FUNC 1f924 4 4 __crt_stdio_output::positional_parameter_base<char,__crt_stdio_output::stream_output_adapter<char> >::get_parameter_type(short)
FUNC 1f928 4 4 __crt_stdio_output::positional_parameter_base<char,__crt_stdio_output::stream_output_adapter<char> >::get_parameter_type(unsigned short)
FUNC 1f92c 4 4 __crt_stdio_output::positional_parameter_base<char,__crt_stdio_output::stream_output_adapter<char> >::get_parameter_type(int)
FUNC 1f930 4 4 __crt_stdio_output::positional_parameter_base<char,__crt_stdio_output::stream_output_adapter<char> >::get_parameter_type(unsigned int)
FUNC 1f934 4 8 __crt_stdio_output::positional_parameter_base<char,__crt_stdio_output::stream_output_adapter<char> >::get_parameter_type(_CRT_DOUBLE)
FUNC 1f938 4 8 __crt_stdio_output::positional_parameter_base<char,__crt_stdio_output::stream_output_adapter<char> >::get_parameter_type(__int64)
FUNC 1f93c 4 8 __crt_stdio_output::positional_parameter_base<char,__crt_stdio_output::stream_output_adapter<char> >::get_parameter_type(unsigned __int64)
FUNC 1f940 4 4 __crt_stdio_output::positional_parameter_base<char,__crt_stdio_output::stream_output_adapter<char> >::get_parameter_type(wchar_t)
FUNC 1f944 4 4 __crt_stdio_output::positional_parameter_base<char,__crt_stdio_output::string_output_adapter<char> >::get_parameter_type(short)
FUNC 1f948 4 4 __crt_stdio_output::positional_parameter_base<char,__crt_stdio_output::string_output_adapter<char> >::get_parameter_type(unsigned short)
FUNC 1f94c 4 4 __crt_stdio_output::positional_parameter_base<char,__crt_stdio_output::string_output_adapter<char> >::get_parameter_type(int)
FUNC 1f950 4 4 __crt_stdio_output::positional_parameter_base<char,__crt_stdio_output::string_output_adapter<char> >::get_parameter_type(unsigned int)
FUNC 1f954 4 8 __crt_stdio_output::positional_parameter_base<char,__crt_stdio_output::string_output_adapter<char> >::get_parameter_type(_CRT_DOUBLE)
FUNC 1f958 4 8 __crt_stdio_output::positional_parameter_base<char,__crt_stdio_output::string_output_adapter<char> >::get_parameter_type(__int64)
FUNC 1f95c 4 8 __crt_stdio_output::positional_parameter_base<char,__crt_stdio_output::string_output_adapter<char> >::get_parameter_type(unsigned __int64)
FUNC 1f960 4 4 __crt_stdio_output::positional_parameter_base<char,__crt_stdio_output::string_output_adapter<char> >::get_parameter_type(wchar_t)
FUNC 1f964 4 4 __crt_stdio_output::positional_parameter_base<wchar_t,__crt_stdio_output::stream_output_adapter<wchar_t> >::get_parameter_type(short)
FUNC 1f968 4 4 __crt_stdio_output::positional_parameter_base<wchar_t,__crt_stdio_output::stream_output_adapter<wchar_t> >::get_parameter_type(unsigned short)
FUNC 1f96c 4 4 __crt_stdio_output::positional_parameter_base<wchar_t,__crt_stdio_output::stream_output_adapter<wchar_t> >::get_parameter_type(int)
FUNC 1f970 4 4 __crt_stdio_output::positional_parameter_base<wchar_t,__crt_stdio_output::stream_output_adapter<wchar_t> >::get_parameter_type(unsigned int)
FUNC 1f974 4 8 __crt_stdio_output::positional_parameter_base<wchar_t,__crt_stdio_output::stream_output_adapter<wchar_t> >::get_parameter_type(_CRT_DOUBLE)
FUNC 1f978 4 8 __crt_stdio_output::positional_parameter_base<wchar_t,__crt_stdio_output::stream_output_adapter<wchar_t> >::get_parameter_type(__int64)
FUNC 1f97c 4 8 __crt_stdio_output::positional_parameter_base<wchar_t,__crt_stdio_output::stream_output_adapter<wchar_t> >::get_parameter_type(unsigned __int64)
FUNC 1f980 4 4 __crt_stdio_output::positional_parameter_base<wchar_t,__crt_stdio_output::stream_output_adapter<wchar_t> >::get_parameter_type(wchar_t)
FUNC 1f984 4 4 __crt_stdio_output::positional_parameter_base<wchar_t,__crt_stdio_output::string_output_adapter<wchar_t> >::get_parameter_type(short)
FUNC 1f988 4 4 __crt_stdio_output::positional_parameter_base<wchar_t,__crt_stdio_output::string_output_adapter<wchar_t> >::get_parameter_type(unsigned short)
FUNC 1f98c 4 4 __crt_stdio_output::positional_parameter_base<wchar_t,__crt_stdio_output::string_output_adapter<wchar_t> >::get_parameter_type(int)
FUNC 1f990 4 4 __crt_stdio_output::positional_parameter_base<wchar_t,__crt_stdio_output::string_output_adapter<wchar_t> >::get_parameter_type(unsigned int)
FUNC 1f994 4 8 __crt_stdio_output::positional_parameter_base<wchar_t,__crt_stdio_output::string_output_adapter<wchar_t> >::get_parameter_type(_CRT_DOUBLE)
FUNC 1f998 4 8 __crt_stdio_output::positional_parameter_base<wchar_t,__crt_stdio_output::string_output_adapter<wchar_t> >::get_parameter_type(__int64)
FUNC 1f99c 4 8 __crt_stdio_output::positional_parameter_base<wchar_t,__crt_stdio_output::string_output_adapter<wchar_t> >::get_parameter_type(unsigned __int64)
FUNC 1f9a0 4 4 __crt_stdio_output::positional_parameter_base<wchar_t,__crt_stdio_output::string_output_adapter<wchar_t> >::get_parameter_type(wchar_t)
FUNC 1f9a4 12 0 __crt_stdio_output::output_processor<char,__crt_stdio_output::stream_output_adapter<char>,__crt_stdio_output::format_validation_base<char,__crt_stdio_output::stream_output_adapter<char> > >::has_flag(unsigned int)
FUNC 1f9ba 12 0 __crt_stdio_output::output_processor<char,__crt_stdio_output::stream_output_adapter<char>,__crt_stdio_output::positional_parameter_base<char,__crt_stdio_output::stream_output_adapter<char> > >::has_flag(unsigned int)
FUNC 1f9d0 12 0 __crt_stdio_output::output_processor<char,__crt_stdio_output::stream_output_adapter<char>,__crt_stdio_output::standard_base<char,__crt_stdio_output::stream_output_adapter<char> > >::has_flag(unsigned int)
FUNC 1f9e6 12 0 __crt_stdio_output::output_processor<char,__crt_stdio_output::string_output_adapter<char>,__crt_stdio_output::format_validation_base<char,__crt_stdio_output::string_output_adapter<char> > >::has_flag(unsigned int)
FUNC 1f9fc 12 0 __crt_stdio_output::output_processor<char,__crt_stdio_output::string_output_adapter<char>,__crt_stdio_output::positional_parameter_base<char,__crt_stdio_output::string_output_adapter<char> > >::has_flag(unsigned int)
FUNC 1fa12 12 0 __crt_stdio_output::output_processor<char,__crt_stdio_output::string_output_adapter<char>,__crt_stdio_output::standard_base<char,__crt_stdio_output::string_output_adapter<char> > >::has_flag(unsigned int)
FUNC 1fa28 12 0 __crt_stdio_output::output_processor<wchar_t,__crt_stdio_output::stream_output_adapter<wchar_t>,__crt_stdio_output::format_validation_base<wchar_t,__crt_stdio_output::stream_output_adapter<wchar_t> > >::has_flag(unsigned int)
FUNC 1fa3e 12 0 __crt_stdio_output::output_processor<wchar_t,__crt_stdio_output::stream_output_adapter<wchar_t>,__crt_stdio_output::positional_parameter_base<wchar_t,__crt_stdio_output::stream_output_adapter<wchar_t> > >::has_flag(unsigned int)
FUNC 1fa54 12 0 __crt_stdio_output::output_processor<wchar_t,__crt_stdio_output::stream_output_adapter<wchar_t>,__crt_stdio_output::standard_base<wchar_t,__crt_stdio_output::stream_output_adapter<wchar_t> > >::has_flag(unsigned int)
FUNC 1fa6a 12 0 __crt_stdio_output::output_processor<wchar_t,__crt_stdio_output::string_output_adapter<wchar_t>,__crt_stdio_output::format_validation_base<wchar_t,__crt_stdio_output::string_output_adapter<wchar_t> > >::has_flag(unsigned int)
FUNC 1fa80 12 0 __crt_stdio_output::output_processor<wchar_t,__crt_stdio_output::string_output_adapter<wchar_t>,__crt_stdio_output::positional_parameter_base<wchar_t,__crt_stdio_output::string_output_adapter<wchar_t> > >::has_flag(unsigned int)
FUNC 1fa96 12 0 __crt_stdio_output::output_processor<wchar_t,__crt_stdio_output::string_output_adapter<wchar_t>,__crt_stdio_output::standard_base<wchar_t,__crt_stdio_output::string_output_adapter<wchar_t> > >::has_flag(unsigned int)
FUNC 1faac 118 0 __crt_stdio_output::positional_parameter_base<char,__crt_stdio_output::stream_output_adapter<char> >::is_positional_parameter_reappearance_consistent(__crt_stdio_output::positional_parameter_base<char,__crt_stdio_output::stream_output_adapter<char> >::parameter_data const &,__crt_stdio_output::positional_parameter_base<char,__crt_stdio_output::stream_output_adapter<char> >::parameter_type,char,__crt_stdio_output::length_modifier)
FUNC 1fc0a 118 0 __crt_stdio_output::positional_parameter_base<char,__crt_stdio_output::string_output_adapter<char> >::is_positional_parameter_reappearance_consistent(__crt_stdio_output::positional_parameter_base<char,__crt_stdio_output::string_output_adapter<char> >::parameter_data const &,__crt_stdio_output::positional_parameter_base<char,__crt_stdio_output::string_output_adapter<char> >::parameter_type,char,__crt_stdio_output::length_modifier)
FUNC 1fd68 118 0 __crt_stdio_output::positional_parameter_base<wchar_t,__crt_stdio_output::stream_output_adapter<wchar_t> >::is_positional_parameter_reappearance_consistent(__crt_stdio_output::positional_parameter_base<wchar_t,__crt_stdio_output::stream_output_adapter<wchar_t> >::parameter_data const &,__crt_stdio_output::positional_parameter_base<wchar_t,__crt_stdio_output::stream_output_adapter<wchar_t> >::parameter_type,wchar_t,__crt_stdio_output::length_modifier)
FUNC 1fec6 118 0 __crt_stdio_output::positional_parameter_base<wchar_t,__crt_stdio_output::string_output_adapter<wchar_t> >::is_positional_parameter_reappearance_consistent(__crt_stdio_output::positional_parameter_base<wchar_t,__crt_stdio_output::string_output_adapter<wchar_t> >::parameter_data const &,__crt_stdio_output::positional_parameter_base<wchar_t,__crt_stdio_output::string_output_adapter<wchar_t> >::parameter_type,wchar_t,__crt_stdio_output::length_modifier)
FUNC 20024 c 0 __crt_stdio_stream::is_string_backed()
FUNC 20033 6 0 __crt_stdio_output::output_processor<char,__crt_stdio_output::stream_output_adapter<char>,__crt_stdio_output::format_validation_base<char,__crt_stdio_output::stream_output_adapter<char> > >::narrow_null_string()
FUNC 20039 6 0 __crt_stdio_output::output_processor<char,__crt_stdio_output::stream_output_adapter<char>,__crt_stdio_output::positional_parameter_base<char,__crt_stdio_output::stream_output_adapter<char> > >::narrow_null_string()
FUNC 2003f 6 0 __crt_stdio_output::output_processor<char,__crt_stdio_output::stream_output_adapter<char>,__crt_stdio_output::standard_base<char,__crt_stdio_output::stream_output_adapter<char> > >::narrow_null_string()
FUNC 20045 6 0 __crt_stdio_output::output_processor<char,__crt_stdio_output::string_output_adapter<char>,__crt_stdio_output::format_validation_base<char,__crt_stdio_output::string_output_adapter<char> > >::narrow_null_string()
FUNC 2004b 6 0 __crt_stdio_output::output_processor<char,__crt_stdio_output::string_output_adapter<char>,__crt_stdio_output::positional_parameter_base<char,__crt_stdio_output::string_output_adapter<char> > >::narrow_null_string()
FUNC 20051 6 0 __crt_stdio_output::output_processor<char,__crt_stdio_output::string_output_adapter<char>,__crt_stdio_output::standard_base<char,__crt_stdio_output::string_output_adapter<char> > >::narrow_null_string()
FUNC 20057 6 0 __crt_stdio_output::output_processor<wchar_t,__crt_stdio_output::stream_output_adapter<wchar_t>,__crt_stdio_output::format_validation_base<wchar_t,__crt_stdio_output::stream_output_adapter<wchar_t> > >::narrow_null_string()
FUNC 2005d 6 0 __crt_stdio_output::output_processor<wchar_t,__crt_stdio_output::stream_output_adapter<wchar_t>,__crt_stdio_output::positional_parameter_base<wchar_t,__crt_stdio_output::stream_output_adapter<wchar_t> > >::narrow_null_string()
FUNC 20063 6 0 __crt_stdio_output::output_processor<wchar_t,__crt_stdio_output::stream_output_adapter<wchar_t>,__crt_stdio_output::standard_base<wchar_t,__crt_stdio_output::stream_output_adapter<wchar_t> > >::narrow_null_string()
FUNC 20069 6 0 __crt_stdio_output::output_processor<wchar_t,__crt_stdio_output::string_output_adapter<wchar_t>,__crt_stdio_output::format_validation_base<wchar_t,__crt_stdio_output::string_output_adapter<wchar_t> > >::narrow_null_string()
FUNC 2006f 6 0 __crt_stdio_output::output_processor<wchar_t,__crt_stdio_output::string_output_adapter<wchar_t>,__crt_stdio_output::positional_parameter_base<wchar_t,__crt_stdio_output::string_output_adapter<wchar_t> > >::narrow_null_string()
FUNC 20075 6 0 __crt_stdio_output::output_processor<wchar_t,__crt_stdio_output::string_output_adapter<wchar_t>,__crt_stdio_output::standard_base<wchar_t,__crt_stdio_output::string_output_adapter<wchar_t> > >::narrow_null_string()
FUNC 2007b 74 0 __crt_stdio_output::output_processor<char,__crt_stdio_output::stream_output_adapter<char>,__crt_stdio_output::format_validation_base<char,__crt_stdio_output::stream_output_adapter<char> > >::parse_int_from_format_string(int * const)
FUNC 2010c 74 0 __crt_stdio_output::output_processor<char,__crt_stdio_output::stream_output_adapter<char>,__crt_stdio_output::positional_parameter_base<char,__crt_stdio_output::stream_output_adapter<char> > >::parse_int_from_format_string(int * const)
FUNC 2019d 74 0 __crt_stdio_output::output_processor<char,__crt_stdio_output::stream_output_adapter<char>,__crt_stdio_output::standard_base<char,__crt_stdio_output::stream_output_adapter<char> > >::parse_int_from_format_string(int * const)
FUNC 2022e 74 0 __crt_stdio_output::output_processor<char,__crt_stdio_output::string_output_adapter<char>,__crt_stdio_output::format_validation_base<char,__crt_stdio_output::string_output_adapter<char> > >::parse_int_from_format_string(int * const)
FUNC 202bf 74 0 __crt_stdio_output::output_processor<char,__crt_stdio_output::string_output_adapter<char>,__crt_stdio_output::positional_parameter_base<char,__crt_stdio_output::string_output_adapter<char> > >::parse_int_from_format_string(int * const)
FUNC 20350 74 0 __crt_stdio_output::output_processor<char,__crt_stdio_output::string_output_adapter<char>,__crt_stdio_output::standard_base<char,__crt_stdio_output::string_output_adapter<char> > >::parse_int_from_format_string(int * const)
FUNC 203e1 76 0 __crt_stdio_output::output_processor<wchar_t,__crt_stdio_output::stream_output_adapter<wchar_t>,__crt_stdio_output::format_validation_base<wchar_t,__crt_stdio_output::stream_output_adapter<wchar_t> > >::parse_int_from_format_string(int * const)
FUNC 20474 76 0 __crt_stdio_output::output_processor<wchar_t,__crt_stdio_output::stream_output_adapter<wchar_t>,__crt_stdio_output::positional_parameter_base<wchar_t,__crt_stdio_output::stream_output_adapter<wchar_t> > >::parse_int_from_format_string(int * const)
FUNC 20507 76 0 __crt_stdio_output::output_processor<wchar_t,__crt_stdio_output::stream_output_adapter<wchar_t>,__crt_stdio_output::standard_base<wchar_t,__crt_stdio_output::stream_output_adapter<wchar_t> > >::parse_int_from_format_string(int * const)
FUNC 2059a 76 0 __crt_stdio_output::output_processor<wchar_t,__crt_stdio_output::string_output_adapter<wchar_t>,__crt_stdio_output::format_validation_base<wchar_t,__crt_stdio_output::string_output_adapter<wchar_t> > >::parse_int_from_format_string(int * const)
FUNC 2062d 76 0 __crt_stdio_output::output_processor<wchar_t,__crt_stdio_output::string_output_adapter<wchar_t>,__crt_stdio_output::positional_parameter_base<wchar_t,__crt_stdio_output::string_output_adapter<wchar_t> > >::parse_int_from_format_string(int * const)
FUNC 206c0 76 0 __crt_stdio_output::output_processor<wchar_t,__crt_stdio_output::string_output_adapter<wchar_t>,__crt_stdio_output::standard_base<wchar_t,__crt_stdio_output::string_output_adapter<wchar_t> > >::parse_int_from_format_string(int * const)
FUNC 20753 124 0 __crt_stdio_output::output_processor<char,__crt_stdio_output::stream_output_adapter<char>,__crt_stdio_output::format_validation_base<char,__crt_stdio_output::stream_output_adapter<char> > >::process()
FUNC 208c0 130 0 __crt_stdio_output::output_processor<char,__crt_stdio_output::stream_output_adapter<char>,__crt_stdio_output::positional_parameter_base<char,__crt_stdio_output::stream_output_adapter<char> > >::process()
FUNC 20a3c 114 0 __crt_stdio_output::output_processor<char,__crt_stdio_output::stream_output_adapter<char>,__crt_stdio_output::standard_base<char,__crt_stdio_output::stream_output_adapter<char> > >::process()
FUNC 20b95 124 0 __crt_stdio_output::output_processor<char,__crt_stdio_output::string_output_adapter<char>,__crt_stdio_output::format_validation_base<char,__crt_stdio_output::string_output_adapter<char> > >::process()
FUNC 20d02 130 0 __crt_stdio_output::output_processor<char,__crt_stdio_output::string_output_adapter<char>,__crt_stdio_output::positional_parameter_base<char,__crt_stdio_output::string_output_adapter<char> > >::process()
FUNC 20e7e 114 0 __crt_stdio_output::output_processor<char,__crt_stdio_output::string_output_adapter<char>,__crt_stdio_output::standard_base<char,__crt_stdio_output::string_output_adapter<char> > >::process()
FUNC 20fd7 128 0 __crt_stdio_output::output_processor<wchar_t,__crt_stdio_output::stream_output_adapter<wchar_t>,__crt_stdio_output::format_validation_base<wchar_t,__crt_stdio_output::stream_output_adapter<wchar_t> > >::process()
FUNC 21149 134 0 __crt_stdio_output::output_processor<wchar_t,__crt_stdio_output::stream_output_adapter<wchar_t>,__crt_stdio_output::positional_parameter_base<wchar_t,__crt_stdio_output::stream_output_adapter<wchar_t> > >::process()
FUNC 212ca 11c 0 __crt_stdio_output::output_processor<wchar_t,__crt_stdio_output::stream_output_adapter<wchar_t>,__crt_stdio_output::standard_base<wchar_t,__crt_stdio_output::stream_output_adapter<wchar_t> > >::process()
FUNC 2142d 128 0 __crt_stdio_output::output_processor<wchar_t,__crt_stdio_output::string_output_adapter<wchar_t>,__crt_stdio_output::format_validation_base<wchar_t,__crt_stdio_output::string_output_adapter<wchar_t> > >::process()
FUNC 2159f 134 0 __crt_stdio_output::output_processor<wchar_t,__crt_stdio_output::string_output_adapter<wchar_t>,__crt_stdio_output::positional_parameter_base<wchar_t,__crt_stdio_output::string_output_adapter<wchar_t> > >::process()
FUNC 21720 11c 0 __crt_stdio_output::output_processor<wchar_t,__crt_stdio_output::string_output_adapter<wchar_t>,__crt_stdio_output::standard_base<wchar_t,__crt_stdio_output::string_output_adapter<wchar_t> > >::process()
FUNC 21883 3 0 __crt_stdio_stream::public_stream()
FUNC 21886 f 0 __crt_stdio_output::output_processor<char,__crt_stdio_output::stream_output_adapter<char>,__crt_stdio_output::format_validation_base<char,__crt_stdio_output::stream_output_adapter<char> > >::set_flag(unsigned int)
FUNC 21898 f 0 __crt_stdio_output::output_processor<char,__crt_stdio_output::stream_output_adapter<char>,__crt_stdio_output::positional_parameter_base<char,__crt_stdio_output::stream_output_adapter<char> > >::set_flag(unsigned int)
FUNC 218aa f 0 __crt_stdio_output::output_processor<char,__crt_stdio_output::stream_output_adapter<char>,__crt_stdio_output::standard_base<char,__crt_stdio_output::stream_output_adapter<char> > >::set_flag(unsigned int)
FUNC 218bc f 0 __crt_stdio_output::output_processor<char,__crt_stdio_output::string_output_adapter<char>,__crt_stdio_output::format_validation_base<char,__crt_stdio_output::string_output_adapter<char> > >::set_flag(unsigned int)
FUNC 218ce f 0 __crt_stdio_output::output_processor<char,__crt_stdio_output::string_output_adapter<char>,__crt_stdio_output::positional_parameter_base<char,__crt_stdio_output::string_output_adapter<char> > >::set_flag(unsigned int)
FUNC 218e0 f 0 __crt_stdio_output::output_processor<char,__crt_stdio_output::string_output_adapter<char>,__crt_stdio_output::standard_base<char,__crt_stdio_output::string_output_adapter<char> > >::set_flag(unsigned int)
FUNC 218f2 f 0 __crt_stdio_output::output_processor<wchar_t,__crt_stdio_output::stream_output_adapter<wchar_t>,__crt_stdio_output::format_validation_base<wchar_t,__crt_stdio_output::stream_output_adapter<wchar_t> > >::set_flag(unsigned int)
FUNC 21904 f 0 __crt_stdio_output::output_processor<wchar_t,__crt_stdio_output::stream_output_adapter<wchar_t>,__crt_stdio_output::positional_parameter_base<wchar_t,__crt_stdio_output::stream_output_adapter<wchar_t> > >::set_flag(unsigned int)
FUNC 21916 f 0 __crt_stdio_output::output_processor<wchar_t,__crt_stdio_output::stream_output_adapter<wchar_t>,__crt_stdio_output::standard_base<wchar_t,__crt_stdio_output::stream_output_adapter<wchar_t> > >::set_flag(unsigned int)
FUNC 21928 f 0 __crt_stdio_output::output_processor<wchar_t,__crt_stdio_output::string_output_adapter<wchar_t>,__crt_stdio_output::format_validation_base<wchar_t,__crt_stdio_output::string_output_adapter<wchar_t> > >::set_flag(unsigned int)
FUNC 2193a f 0 __crt_stdio_output::output_processor<wchar_t,__crt_stdio_output::string_output_adapter<wchar_t>,__crt_stdio_output::positional_parameter_base<wchar_t,__crt_stdio_output::string_output_adapter<wchar_t> > >::set_flag(unsigned int)
FUNC 2194c f 0 __crt_stdio_output::output_processor<wchar_t,__crt_stdio_output::string_output_adapter<wchar_t>,__crt_stdio_output::standard_base<wchar_t,__crt_stdio_output::string_output_adapter<wchar_t> > >::set_flag(unsigned int)
FUNC 2195e 16 0 __crt_stdio_output::positional_parameter_base<char,__crt_stdio_output::stream_output_adapter<char> >::should_format()
FUNC 21979 16 0 __crt_stdio_output::positional_parameter_base<char,__crt_stdio_output::string_output_adapter<char> >::should_format()
FUNC 21994 16 0 __crt_stdio_output::positional_parameter_base<wchar_t,__crt_stdio_output::stream_output_adapter<wchar_t> >::should_format()
FUNC 219af 16 0 __crt_stdio_output::positional_parameter_base<wchar_t,__crt_stdio_output::string_output_adapter<wchar_t> >::should_format()
FUNC 219ca 3 0 __crt_stdio_output::standard_base<char,__crt_stdio_output::stream_output_adapter<char> >::should_format()
FUNC 219cd 3 0 __crt_stdio_output::standard_base<char,__crt_stdio_output::string_output_adapter<char> >::should_format()
FUNC 219d0 3 0 __crt_stdio_output::standard_base<wchar_t,__crt_stdio_output::stream_output_adapter<wchar_t> >::should_format()
FUNC 219d3 3 0 __crt_stdio_output::standard_base<wchar_t,__crt_stdio_output::string_output_adapter<wchar_t> >::should_format()
FUNC 219d6 28 0 __crt_stdio_output::positional_parameter_base<char,__crt_stdio_output::stream_output_adapter<char> >::should_skip_normal_state_processing()
FUNC 21a08 28 0 __crt_stdio_output::positional_parameter_base<char,__crt_stdio_output::string_output_adapter<char> >::should_skip_normal_state_processing()
FUNC 21a3a 28 0 __crt_stdio_output::positional_parameter_base<wchar_t,__crt_stdio_output::stream_output_adapter<wchar_t> >::should_skip_normal_state_processing()
FUNC 21a6c 28 0 __crt_stdio_output::positional_parameter_base<wchar_t,__crt_stdio_output::string_output_adapter<wchar_t> >::should_skip_normal_state_processing()
FUNC 21a9e 3 0 __crt_stdio_output::standard_base<char,__crt_stdio_output::stream_output_adapter<char> >::should_skip_normal_state_processing()
FUNC 21aa1 3 0 __crt_stdio_output::standard_base<char,__crt_stdio_output::string_output_adapter<char> >::should_skip_normal_state_processing()
FUNC 21aa4 3 0 __crt_stdio_output::standard_base<wchar_t,__crt_stdio_output::stream_output_adapter<wchar_t> >::should_skip_normal_state_processing()
FUNC 21aa7 3 0 __crt_stdio_output::standard_base<wchar_t,__crt_stdio_output::string_output_adapter<wchar_t> >::should_skip_normal_state_processing()
FUNC 21aaa 17 0 __crt_stdio_output::positional_parameter_base<char,__crt_stdio_output::stream_output_adapter<char> >::should_skip_type_state_output()
FUNC 21ac6 17 0 __crt_stdio_output::positional_parameter_base<char,__crt_stdio_output::string_output_adapter<char> >::should_skip_type_state_output()
FUNC 21ae2 17 0 __crt_stdio_output::positional_parameter_base<wchar_t,__crt_stdio_output::stream_output_adapter<wchar_t> >::should_skip_type_state_output()
FUNC 21afe 17 0 __crt_stdio_output::positional_parameter_base<wchar_t,__crt_stdio_output::string_output_adapter<wchar_t> >::should_skip_type_state_output()
FUNC 21b1a 3 0 __crt_stdio_output::standard_base<char,__crt_stdio_output::stream_output_adapter<char> >::should_skip_type_state_output()
FUNC 21b1d 3 0 __crt_stdio_output::standard_base<char,__crt_stdio_output::string_output_adapter<char> >::should_skip_type_state_output()
FUNC 21b20 3 0 __crt_stdio_output::standard_base<wchar_t,__crt_stdio_output::stream_output_adapter<wchar_t> >::should_skip_type_state_output()
FUNC 21b23 3 0 __crt_stdio_output::standard_base<wchar_t,__crt_stdio_output::string_output_adapter<wchar_t> >::should_skip_type_state_output()
FUNC 21b26 7 0 __crt_stdio_output::output_processor<char,__crt_stdio_output::stream_output_adapter<char>,__crt_stdio_output::format_validation_base<char,__crt_stdio_output::stream_output_adapter<char> > >::state_case_dot()
FUNC 21b2d 7 0 __crt_stdio_output::output_processor<char,__crt_stdio_output::stream_output_adapter<char>,__crt_stdio_output::positional_parameter_base<char,__crt_stdio_output::stream_output_adapter<char> > >::state_case_dot()
FUNC 21b34 7 0 __crt_stdio_output::output_processor<char,__crt_stdio_output::stream_output_adapter<char>,__crt_stdio_output::standard_base<char,__crt_stdio_output::stream_output_adapter<char> > >::state_case_dot()
FUNC 21b3b 7 0 __crt_stdio_output::output_processor<char,__crt_stdio_output::string_output_adapter<char>,__crt_stdio_output::format_validation_base<char,__crt_stdio_output::string_output_adapter<char> > >::state_case_dot()
FUNC 21b42 7 0 __crt_stdio_output::output_processor<char,__crt_stdio_output::string_output_adapter<char>,__crt_stdio_output::positional_parameter_base<char,__crt_stdio_output::string_output_adapter<char> > >::state_case_dot()
FUNC 21b49 7 0 __crt_stdio_output::output_processor<char,__crt_stdio_output::string_output_adapter<char>,__crt_stdio_output::standard_base<char,__crt_stdio_output::string_output_adapter<char> > >::state_case_dot()
FUNC 21b50 7 0 __crt_stdio_output::output_processor<wchar_t,__crt_stdio_output::stream_output_adapter<wchar_t>,__crt_stdio_output::format_validation_base<wchar_t,__crt_stdio_output::stream_output_adapter<wchar_t> > >::state_case_dot()
FUNC 21b57 7 0 __crt_stdio_output::output_processor<wchar_t,__crt_stdio_output::stream_output_adapter<wchar_t>,__crt_stdio_output::positional_parameter_base<wchar_t,__crt_stdio_output::stream_output_adapter<wchar_t> > >::state_case_dot()
FUNC 21b5e 7 0 __crt_stdio_output::output_processor<wchar_t,__crt_stdio_output::stream_output_adapter<wchar_t>,__crt_stdio_output::standard_base<wchar_t,__crt_stdio_output::stream_output_adapter<wchar_t> > >::state_case_dot()
FUNC 21b65 7 0 __crt_stdio_output::output_processor<wchar_t,__crt_stdio_output::string_output_adapter<wchar_t>,__crt_stdio_output::format_validation_base<wchar_t,__crt_stdio_output::string_output_adapter<wchar_t> > >::state_case_dot()
FUNC 21b6c 7 0 __crt_stdio_output::output_processor<wchar_t,__crt_stdio_output::string_output_adapter<wchar_t>,__crt_stdio_output::positional_parameter_base<wchar_t,__crt_stdio_output::string_output_adapter<wchar_t> > >::state_case_dot()
FUNC 21b73 7 0 __crt_stdio_output::output_processor<wchar_t,__crt_stdio_output::string_output_adapter<wchar_t>,__crt_stdio_output::standard_base<wchar_t,__crt_stdio_output::string_output_adapter<wchar_t> > >::state_case_dot()
FUNC 21b7a 3d 0 __crt_stdio_output::output_processor<char,__crt_stdio_output::stream_output_adapter<char>,__crt_stdio_output::format_validation_base<char,__crt_stdio_output::stream_output_adapter<char> > >::state_case_flag()
FUNC 21bc6 3d 0 __crt_stdio_output::output_processor<char,__crt_stdio_output::stream_output_adapter<char>,__crt_stdio_output::positional_parameter_base<char,__crt_stdio_output::stream_output_adapter<char> > >::state_case_flag()
FUNC 21c12 3d 0 __crt_stdio_output::output_processor<char,__crt_stdio_output::stream_output_adapter<char>,__crt_stdio_output::standard_base<char,__crt_stdio_output::stream_output_adapter<char> > >::state_case_flag()
FUNC 21c5e 3d 0 __crt_stdio_output::output_processor<char,__crt_stdio_output::string_output_adapter<char>,__crt_stdio_output::format_validation_base<char,__crt_stdio_output::string_output_adapter<char> > >::state_case_flag()
FUNC 21caa 3d 0 __crt_stdio_output::output_processor<char,__crt_stdio_output::string_output_adapter<char>,__crt_stdio_output::positional_parameter_base<char,__crt_stdio_output::string_output_adapter<char> > >::state_case_flag()
FUNC 21cf6 3d 0 __crt_stdio_output::output_processor<char,__crt_stdio_output::string_output_adapter<char>,__crt_stdio_output::standard_base<char,__crt_stdio_output::string_output_adapter<char> > >::state_case_flag()
FUNC 21d42 3d 0 __crt_stdio_output::output_processor<wchar_t,__crt_stdio_output::stream_output_adapter<wchar_t>,__crt_stdio_output::format_validation_base<wchar_t,__crt_stdio_output::stream_output_adapter<wchar_t> > >::state_case_flag()
FUNC 21d8e 3d 0 __crt_stdio_output::output_processor<wchar_t,__crt_stdio_output::stream_output_adapter<wchar_t>,__crt_stdio_output::positional_parameter_base<wchar_t,__crt_stdio_output::stream_output_adapter<wchar_t> > >::state_case_flag()
FUNC 21dda 3d 0 __crt_stdio_output::output_processor<wchar_t,__crt_stdio_output::stream_output_adapter<wchar_t>,__crt_stdio_output::standard_base<wchar_t,__crt_stdio_output::stream_output_adapter<wchar_t> > >::state_case_flag()
FUNC 21e26 3d 0 __crt_stdio_output::output_processor<wchar_t,__crt_stdio_output::string_output_adapter<wchar_t>,__crt_stdio_output::format_validation_base<wchar_t,__crt_stdio_output::string_output_adapter<wchar_t> > >::state_case_flag()
FUNC 21e72 3d 0 __crt_stdio_output::output_processor<wchar_t,__crt_stdio_output::string_output_adapter<wchar_t>,__crt_stdio_output::positional_parameter_base<wchar_t,__crt_stdio_output::string_output_adapter<wchar_t> > >::state_case_flag()
FUNC 21ebe 3d 0 __crt_stdio_output::output_processor<wchar_t,__crt_stdio_output::string_output_adapter<wchar_t>,__crt_stdio_output::standard_base<wchar_t,__crt_stdio_output::string_output_adapter<wchar_t> > >::state_case_flag()
FUNC 21f0a 1f 0 __crt_stdio_output::output_processor<char,__crt_stdio_output::stream_output_adapter<char>,__crt_stdio_output::format_validation_base<char,__crt_stdio_output::stream_output_adapter<char> > >::state_case_normal()
FUNC 21f30 31 0 __crt_stdio_output::output_processor<char,__crt_stdio_output::stream_output_adapter<char>,__crt_stdio_output::positional_parameter_base<char,__crt_stdio_output::stream_output_adapter<char> > >::state_case_normal()
FUNC 21f6d 1f 0 __crt_stdio_output::output_processor<char,__crt_stdio_output::stream_output_adapter<char>,__crt_stdio_output::standard_base<char,__crt_stdio_output::stream_output_adapter<char> > >::state_case_normal()
FUNC 21f93 1f 0 __crt_stdio_output::output_processor<char,__crt_stdio_output::string_output_adapter<char>,__crt_stdio_output::format_validation_base<char,__crt_stdio_output::string_output_adapter<char> > >::state_case_normal()
FUNC 21fb9 31 0 __crt_stdio_output::output_processor<char,__crt_stdio_output::string_output_adapter<char>,__crt_stdio_output::positional_parameter_base<char,__crt_stdio_output::string_output_adapter<char> > >::state_case_normal()
FUNC 21ff6 1f 0 __crt_stdio_output::output_processor<char,__crt_stdio_output::string_output_adapter<char>,__crt_stdio_output::standard_base<char,__crt_stdio_output::string_output_adapter<char> > >::state_case_normal()
FUNC 2201c 1f 0 __crt_stdio_output::output_processor<wchar_t,__crt_stdio_output::stream_output_adapter<wchar_t>,__crt_stdio_output::format_validation_base<wchar_t,__crt_stdio_output::stream_output_adapter<wchar_t> > >::state_case_normal()
FUNC 22042 31 0 __crt_stdio_output::output_processor<wchar_t,__crt_stdio_output::stream_output_adapter<wchar_t>,__crt_stdio_output::positional_parameter_base<wchar_t,__crt_stdio_output::stream_output_adapter<wchar_t> > >::state_case_normal()
FUNC 2207f 1f 0 __crt_stdio_output::output_processor<wchar_t,__crt_stdio_output::stream_output_adapter<wchar_t>,__crt_stdio_output::standard_base<wchar_t,__crt_stdio_output::stream_output_adapter<wchar_t> > >::state_case_normal()
FUNC 220a5 1f 0 __crt_stdio_output::output_processor<wchar_t,__crt_stdio_output::string_output_adapter<wchar_t>,__crt_stdio_output::format_validation_base<wchar_t,__crt_stdio_output::string_output_adapter<wchar_t> > >::state_case_normal()
FUNC 220cb 31 0 __crt_stdio_output::output_processor<wchar_t,__crt_stdio_output::string_output_adapter<wchar_t>,__crt_stdio_output::positional_parameter_base<wchar_t,__crt_stdio_output::string_output_adapter<wchar_t> > >::state_case_normal()
FUNC 22108 1f 0 __crt_stdio_output::output_processor<wchar_t,__crt_stdio_output::string_output_adapter<wchar_t>,__crt_stdio_output::standard_base<wchar_t,__crt_stdio_output::string_output_adapter<wchar_t> > >::state_case_normal()
FUNC 2212e 3a 0 __crt_stdio_output::output_processor<char,__crt_stdio_output::stream_output_adapter<char>,__crt_stdio_output::format_validation_base<char,__crt_stdio_output::stream_output_adapter<char> > >::state_case_normal_common()
FUNC 22176 3a 0 __crt_stdio_output::output_processor<char,__crt_stdio_output::stream_output_adapter<char>,__crt_stdio_output::positional_parameter_base<char,__crt_stdio_output::stream_output_adapter<char> > >::state_case_normal_common()
FUNC 221be 3a 0 __crt_stdio_output::output_processor<char,__crt_stdio_output::stream_output_adapter<char>,__crt_stdio_output::standard_base<char,__crt_stdio_output::stream_output_adapter<char> > >::state_case_normal_common()
FUNC 22206 2a 0 __crt_stdio_output::output_processor<char,__crt_stdio_output::string_output_adapter<char>,__crt_stdio_output::format_validation_base<char,__crt_stdio_output::string_output_adapter<char> > >::state_case_normal_common()
FUNC 2223a 2a 0 __crt_stdio_output::output_processor<char,__crt_stdio_output::string_output_adapter<char>,__crt_stdio_output::positional_parameter_base<char,__crt_stdio_output::string_output_adapter<char> > >::state_case_normal_common()
FUNC 2226e 2a 0 __crt_stdio_output::output_processor<char,__crt_stdio_output::string_output_adapter<char>,__crt_stdio_output::standard_base<char,__crt_stdio_output::string_output_adapter<char> > >::state_case_normal_common()
FUNC 222a2 2a 0 __crt_stdio_output::output_processor<wchar_t,__crt_stdio_output::stream_output_adapter<wchar_t>,__crt_stdio_output::format_validation_base<wchar_t,__crt_stdio_output::stream_output_adapter<wchar_t> > >::state_case_normal_common()
FUNC 222d6 2a 0 __crt_stdio_output::output_processor<wchar_t,__crt_stdio_output::stream_output_adapter<wchar_t>,__crt_stdio_output::positional_parameter_base<wchar_t,__crt_stdio_output::stream_output_adapter<wchar_t> > >::state_case_normal_common()
FUNC 2230a 2a 0 __crt_stdio_output::output_processor<wchar_t,__crt_stdio_output::stream_output_adapter<wchar_t>,__crt_stdio_output::standard_base<wchar_t,__crt_stdio_output::stream_output_adapter<wchar_t> > >::state_case_normal_common()
FUNC 2233e 1b 0 __crt_stdio_output::output_processor<wchar_t,__crt_stdio_output::string_output_adapter<wchar_t>,__crt_stdio_output::format_validation_base<wchar_t,__crt_stdio_output::string_output_adapter<wchar_t> > >::state_case_normal_common()
FUNC 2235f 1b 0 __crt_stdio_output::output_processor<wchar_t,__crt_stdio_output::string_output_adapter<wchar_t>,__crt_stdio_output::positional_parameter_base<wchar_t,__crt_stdio_output::string_output_adapter<wchar_t> > >::state_case_normal_common()
FUNC 22380 1b 0 __crt_stdio_output::output_processor<wchar_t,__crt_stdio_output::string_output_adapter<wchar_t>,__crt_stdio_output::standard_base<wchar_t,__crt_stdio_output::string_output_adapter<wchar_t> > >::state_case_normal_common()
FUNC 223a1 6d 4 __crt_stdio_output::output_processor<char,__crt_stdio_output::stream_output_adapter<char>,__crt_stdio_output::format_validation_base<char,__crt_stdio_output::stream_output_adapter<char> > >::state_case_normal_tchar(char)
FUNC 22429 6d 4 __crt_stdio_output::output_processor<char,__crt_stdio_output::stream_output_adapter<char>,__crt_stdio_output::positional_parameter_base<char,__crt_stdio_output::stream_output_adapter<char> > >::state_case_normal_tchar(char)
FUNC 224b1 6d 4 __crt_stdio_output::output_processor<char,__crt_stdio_output::stream_output_adapter<char>,__crt_stdio_output::standard_base<char,__crt_stdio_output::stream_output_adapter<char> > >::state_case_normal_tchar(char)
FUNC 22539 64 4 __crt_stdio_output::output_processor<char,__crt_stdio_output::string_output_adapter<char>,__crt_stdio_output::format_validation_base<char,__crt_stdio_output::string_output_adapter<char> > >::state_case_normal_tchar(char)
FUNC 225b6 64 4 __crt_stdio_output::output_processor<char,__crt_stdio_output::string_output_adapter<char>,__crt_stdio_output::positional_parameter_base<char,__crt_stdio_output::string_output_adapter<char> > >::state_case_normal_tchar(char)
FUNC 22633 64 4 __crt_stdio_output::output_processor<char,__crt_stdio_output::string_output_adapter<char>,__crt_stdio_output::standard_base<char,__crt_stdio_output::string_output_adapter<char> > >::state_case_normal_tchar(char)
FUNC 226b0 9 4 __crt_stdio_output::output_processor<wchar_t,__crt_stdio_output::stream_output_adapter<wchar_t>,__crt_stdio_output::format_validation_base<wchar_t,__crt_stdio_output::stream_output_adapter<wchar_t> > >::state_case_normal_tchar(wchar_t)
FUNC 226bb 9 4 __crt_stdio_output::output_processor<wchar_t,__crt_stdio_output::stream_output_adapter<wchar_t>,__crt_stdio_output::positional_parameter_base<wchar_t,__crt_stdio_output::stream_output_adapter<wchar_t> > >::state_case_normal_tchar(wchar_t)
FUNC 226c6 9 4 __crt_stdio_output::output_processor<wchar_t,__crt_stdio_output::stream_output_adapter<wchar_t>,__crt_stdio_output::standard_base<wchar_t,__crt_stdio_output::stream_output_adapter<wchar_t> > >::state_case_normal_tchar(wchar_t)
FUNC 226d1 9 4 __crt_stdio_output::output_processor<wchar_t,__crt_stdio_output::string_output_adapter<wchar_t>,__crt_stdio_output::format_validation_base<wchar_t,__crt_stdio_output::string_output_adapter<wchar_t> > >::state_case_normal_tchar(wchar_t)
FUNC 226dc 9 4 __crt_stdio_output::output_processor<wchar_t,__crt_stdio_output::string_output_adapter<wchar_t>,__crt_stdio_output::positional_parameter_base<wchar_t,__crt_stdio_output::string_output_adapter<wchar_t> > >::state_case_normal_tchar(wchar_t)
FUNC 226e7 9 4 __crt_stdio_output::output_processor<wchar_t,__crt_stdio_output::string_output_adapter<wchar_t>,__crt_stdio_output::standard_base<wchar_t,__crt_stdio_output::string_output_adapter<wchar_t> > >::state_case_normal_tchar(wchar_t)
FUNC 226f2 18 0 __crt_stdio_output::output_processor<char,__crt_stdio_output::stream_output_adapter<char>,__crt_stdio_output::format_validation_base<char,__crt_stdio_output::stream_output_adapter<char> > >::state_case_percent()
FUNC 22710 18 0 __crt_stdio_output::output_processor<char,__crt_stdio_output::stream_output_adapter<char>,__crt_stdio_output::positional_parameter_base<char,__crt_stdio_output::stream_output_adapter<char> > >::state_case_percent()
FUNC 2272e 18 0 __crt_stdio_output::output_processor<char,__crt_stdio_output::stream_output_adapter<char>,__crt_stdio_output::standard_base<char,__crt_stdio_output::stream_output_adapter<char> > >::state_case_percent()
FUNC 2274c 18 0 __crt_stdio_output::output_processor<char,__crt_stdio_output::string_output_adapter<char>,__crt_stdio_output::format_validation_base<char,__crt_stdio_output::string_output_adapter<char> > >::state_case_percent()
FUNC 2276a 18 0 __crt_stdio_output::output_processor<char,__crt_stdio_output::string_output_adapter<char>,__crt_stdio_output::positional_parameter_base<char,__crt_stdio_output::string_output_adapter<char> > >::state_case_percent()
FUNC 22788 18 0 __crt_stdio_output::output_processor<char,__crt_stdio_output::string_output_adapter<char>,__crt_stdio_output::standard_base<char,__crt_stdio_output::string_output_adapter<char> > >::state_case_percent()
FUNC 227a6 18 0 __crt_stdio_output::output_processor<wchar_t,__crt_stdio_output::stream_output_adapter<wchar_t>,__crt_stdio_output::format_validation_base<wchar_t,__crt_stdio_output::stream_output_adapter<wchar_t> > >::state_case_percent()
FUNC 227c4 18 0 __crt_stdio_output::output_processor<wchar_t,__crt_stdio_output::stream_output_adapter<wchar_t>,__crt_stdio_output::positional_parameter_base<wchar_t,__crt_stdio_output::stream_output_adapter<wchar_t> > >::state_case_percent()
FUNC 227e2 18 0 __crt_stdio_output::output_processor<wchar_t,__crt_stdio_output::stream_output_adapter<wchar_t>,__crt_stdio_output::standard_base<wchar_t,__crt_stdio_output::stream_output_adapter<wchar_t> > >::state_case_percent()
FUNC 22800 18 0 __crt_stdio_output::output_processor<wchar_t,__crt_stdio_output::string_output_adapter<wchar_t>,__crt_stdio_output::format_validation_base<wchar_t,__crt_stdio_output::string_output_adapter<wchar_t> > >::state_case_percent()
FUNC 2281e 18 0 __crt_stdio_output::output_processor<wchar_t,__crt_stdio_output::string_output_adapter<wchar_t>,__crt_stdio_output::positional_parameter_base<wchar_t,__crt_stdio_output::string_output_adapter<wchar_t> > >::state_case_percent()
FUNC 2283c 18 0 __crt_stdio_output::output_processor<wchar_t,__crt_stdio_output::string_output_adapter<wchar_t>,__crt_stdio_output::standard_base<wchar_t,__crt_stdio_output::string_output_adapter<wchar_t> > >::state_case_percent()
FUNC 2285a 26 0 __crt_stdio_output::output_processor<char,__crt_stdio_output::stream_output_adapter<char>,__crt_stdio_output::format_validation_base<char,__crt_stdio_output::stream_output_adapter<char> > >::state_case_precision()
FUNC 22889 3a 0 __crt_stdio_output::output_processor<char,__crt_stdio_output::stream_output_adapter<char>,__crt_stdio_output::positional_parameter_base<char,__crt_stdio_output::stream_output_adapter<char> > >::state_case_precision()
FUNC 228d1 26 0 __crt_stdio_output::output_processor<char,__crt_stdio_output::stream_output_adapter<char>,__crt_stdio_output::standard_base<char,__crt_stdio_output::stream_output_adapter<char> > >::state_case_precision()
FUNC 22900 26 0 __crt_stdio_output::output_processor<char,__crt_stdio_output::string_output_adapter<char>,__crt_stdio_output::format_validation_base<char,__crt_stdio_output::string_output_adapter<char> > >::state_case_precision()
FUNC 2292f 3a 0 __crt_stdio_output::output_processor<char,__crt_stdio_output::string_output_adapter<char>,__crt_stdio_output::positional_parameter_base<char,__crt_stdio_output::string_output_adapter<char> > >::state_case_precision()
FUNC 22977 26 0 __crt_stdio_output::output_processor<char,__crt_stdio_output::string_output_adapter<char>,__crt_stdio_output::standard_base<char,__crt_stdio_output::string_output_adapter<char> > >::state_case_precision()
FUNC 229a6 27 0 __crt_stdio_output::output_processor<wchar_t,__crt_stdio_output::stream_output_adapter<wchar_t>,__crt_stdio_output::format_validation_base<wchar_t,__crt_stdio_output::stream_output_adapter<wchar_t> > >::state_case_precision()
FUNC 229d6 3b 0 __crt_stdio_output::output_processor<wchar_t,__crt_stdio_output::stream_output_adapter<wchar_t>,__crt_stdio_output::positional_parameter_base<wchar_t,__crt_stdio_output::stream_output_adapter<wchar_t> > >::state_case_precision()
FUNC 22a1f 27 0 __crt_stdio_output::output_processor<wchar_t,__crt_stdio_output::stream_output_adapter<wchar_t>,__crt_stdio_output::standard_base<wchar_t,__crt_stdio_output::stream_output_adapter<wchar_t> > >::state_case_precision()
FUNC 22a4f 27 0 __crt_stdio_output::output_processor<wchar_t,__crt_stdio_output::string_output_adapter<wchar_t>,__crt_stdio_output::format_validation_base<wchar_t,__crt_stdio_output::string_output_adapter<wchar_t> > >::state_case_precision()
FUNC 22a7f 3b 0 __crt_stdio_output::output_processor<wchar_t,__crt_stdio_output::string_output_adapter<wchar_t>,__crt_stdio_output::positional_parameter_base<wchar_t,__crt_stdio_output::string_output_adapter<wchar_t> > >::state_case_precision()
FUNC 22ac8 27 0 __crt_stdio_output::output_processor<wchar_t,__crt_stdio_output::string_output_adapter<wchar_t>,__crt_stdio_output::standard_base<wchar_t,__crt_stdio_output::string_output_adapter<wchar_t> > >::state_case_precision()
FUNC 22af8 14e 0 __crt_stdio_output::output_processor<char,__crt_stdio_output::stream_output_adapter<char>,__crt_stdio_output::format_validation_base<char,__crt_stdio_output::stream_output_adapter<char> > >::state_case_size()
FUNC 22c99 14e 0 __crt_stdio_output::output_processor<char,__crt_stdio_output::stream_output_adapter<char>,__crt_stdio_output::positional_parameter_base<char,__crt_stdio_output::stream_output_adapter<char> > >::state_case_size()
FUNC 22e3a 14e 0 __crt_stdio_output::output_processor<char,__crt_stdio_output::stream_output_adapter<char>,__crt_stdio_output::standard_base<char,__crt_stdio_output::stream_output_adapter<char> > >::state_case_size()
FUNC 22fdb 14e 0 __crt_stdio_output::output_processor<char,__crt_stdio_output::string_output_adapter<char>,__crt_stdio_output::format_validation_base<char,__crt_stdio_output::string_output_adapter<char> > >::state_case_size()
FUNC 2317c 14e 0 __crt_stdio_output::output_processor<char,__crt_stdio_output::string_output_adapter<char>,__crt_stdio_output::positional_parameter_base<char,__crt_stdio_output::string_output_adapter<char> > >::state_case_size()
FUNC 2331d 14e 0 __crt_stdio_output::output_processor<char,__crt_stdio_output::string_output_adapter<char>,__crt_stdio_output::standard_base<char,__crt_stdio_output::string_output_adapter<char> > >::state_case_size()
FUNC 234be 178 0 __crt_stdio_output::output_processor<wchar_t,__crt_stdio_output::stream_output_adapter<wchar_t>,__crt_stdio_output::format_validation_base<wchar_t,__crt_stdio_output::stream_output_adapter<wchar_t> > >::state_case_size()
FUNC 23694 178 0 __crt_stdio_output::output_processor<wchar_t,__crt_stdio_output::stream_output_adapter<wchar_t>,__crt_stdio_output::positional_parameter_base<wchar_t,__crt_stdio_output::stream_output_adapter<wchar_t> > >::state_case_size()
FUNC 2386a 178 0 __crt_stdio_output::output_processor<wchar_t,__crt_stdio_output::stream_output_adapter<wchar_t>,__crt_stdio_output::standard_base<wchar_t,__crt_stdio_output::stream_output_adapter<wchar_t> > >::state_case_size()
FUNC 23a40 178 0 __crt_stdio_output::output_processor<wchar_t,__crt_stdio_output::string_output_adapter<wchar_t>,__crt_stdio_output::format_validation_base<wchar_t,__crt_stdio_output::string_output_adapter<wchar_t> > >::state_case_size()
FUNC 23c16 178 0 __crt_stdio_output::output_processor<wchar_t,__crt_stdio_output::string_output_adapter<wchar_t>,__crt_stdio_output::positional_parameter_base<wchar_t,__crt_stdio_output::string_output_adapter<wchar_t> > >::state_case_size()
FUNC 23dec 178 0 __crt_stdio_output::output_processor<wchar_t,__crt_stdio_output::string_output_adapter<wchar_t>,__crt_stdio_output::standard_base<wchar_t,__crt_stdio_output::string_output_adapter<wchar_t> > >::state_case_size()
FUNC 23fc2 232 0 __crt_stdio_output::output_processor<char,__crt_stdio_output::stream_output_adapter<char>,__crt_stdio_output::format_validation_base<char,__crt_stdio_output::stream_output_adapter<char> > >::state_case_type()
FUNC 24280 241 0 __crt_stdio_output::output_processor<char,__crt_stdio_output::stream_output_adapter<char>,__crt_stdio_output::positional_parameter_base<char,__crt_stdio_output::stream_output_adapter<char> > >::state_case_type()
FUNC 24551 232 0 __crt_stdio_output::output_processor<char,__crt_stdio_output::stream_output_adapter<char>,__crt_stdio_output::standard_base<char,__crt_stdio_output::stream_output_adapter<char> > >::state_case_type()
FUNC 2480f 232 0 __crt_stdio_output::output_processor<char,__crt_stdio_output::string_output_adapter<char>,__crt_stdio_output::format_validation_base<char,__crt_stdio_output::string_output_adapter<char> > >::state_case_type()
FUNC 24acd 241 0 __crt_stdio_output::output_processor<char,__crt_stdio_output::string_output_adapter<char>,__crt_stdio_output::positional_parameter_base<char,__crt_stdio_output::string_output_adapter<char> > >::state_case_type()
FUNC 24d9e 232 0 __crt_stdio_output::output_processor<char,__crt_stdio_output::string_output_adapter<char>,__crt_stdio_output::standard_base<char,__crt_stdio_output::string_output_adapter<char> > >::state_case_type()
FUNC 2505c 265 0 __crt_stdio_output::output_processor<wchar_t,__crt_stdio_output::stream_output_adapter<wchar_t>,__crt_stdio_output::format_validation_base<wchar_t,__crt_stdio_output::stream_output_adapter<wchar_t> > >::state_case_type()
FUNC 2535a 274 0 __crt_stdio_output::output_processor<wchar_t,__crt_stdio_output::stream_output_adapter<wchar_t>,__crt_stdio_output::positional_parameter_base<wchar_t,__crt_stdio_output::stream_output_adapter<wchar_t> > >::state_case_type()
FUNC 2566b 265 0 __crt_stdio_output::output_processor<wchar_t,__crt_stdio_output::stream_output_adapter<wchar_t>,__crt_stdio_output::standard_base<wchar_t,__crt_stdio_output::stream_output_adapter<wchar_t> > >::state_case_type()
FUNC 25969 265 0 __crt_stdio_output::output_processor<wchar_t,__crt_stdio_output::string_output_adapter<wchar_t>,__crt_stdio_output::format_validation_base<wchar_t,__crt_stdio_output::string_output_adapter<wchar_t> > >::state_case_type()
FUNC 25c67 274 0 __crt_stdio_output::output_processor<wchar_t,__crt_stdio_output::string_output_adapter<wchar_t>,__crt_stdio_output::positional_parameter_base<wchar_t,__crt_stdio_output::string_output_adapter<wchar_t> > >::state_case_type()
FUNC 25f78 265 0 __crt_stdio_output::output_processor<wchar_t,__crt_stdio_output::string_output_adapter<wchar_t>,__crt_stdio_output::standard_base<wchar_t,__crt_stdio_output::string_output_adapter<wchar_t> > >::state_case_type()
FUNC 26276 2b 0 __crt_stdio_output::output_processor<char,__crt_stdio_output::stream_output_adapter<char>,__crt_stdio_output::format_validation_base<char,__crt_stdio_output::stream_output_adapter<char> > >::state_case_width()
FUNC 262ab 40 0 __crt_stdio_output::output_processor<char,__crt_stdio_output::stream_output_adapter<char>,__crt_stdio_output::positional_parameter_base<char,__crt_stdio_output::stream_output_adapter<char> > >::state_case_width()
FUNC 262fb 2b 0 __crt_stdio_output::output_processor<char,__crt_stdio_output::stream_output_adapter<char>,__crt_stdio_output::standard_base<char,__crt_stdio_output::stream_output_adapter<char> > >::state_case_width()
FUNC 26330 2b 0 __crt_stdio_output::output_processor<char,__crt_stdio_output::string_output_adapter<char>,__crt_stdio_output::format_validation_base<char,__crt_stdio_output::string_output_adapter<char> > >::state_case_width()
FUNC 26365 40 0 __crt_stdio_output::output_processor<char,__crt_stdio_output::string_output_adapter<char>,__crt_stdio_output::positional_parameter_base<char,__crt_stdio_output::string_output_adapter<char> > >::state_case_width()
FUNC 263b5 2b 0 __crt_stdio_output::output_processor<char,__crt_stdio_output::string_output_adapter<char>,__crt_stdio_output::standard_base<char,__crt_stdio_output::string_output_adapter<char> > >::state_case_width()
FUNC 263ea 2c 0 __crt_stdio_output::output_processor<wchar_t,__crt_stdio_output::stream_output_adapter<wchar_t>,__crt_stdio_output::format_validation_base<wchar_t,__crt_stdio_output::stream_output_adapter<wchar_t> > >::state_case_width()
FUNC 26421 41 0 __crt_stdio_output::output_processor<wchar_t,__crt_stdio_output::stream_output_adapter<wchar_t>,__crt_stdio_output::positional_parameter_base<wchar_t,__crt_stdio_output::stream_output_adapter<wchar_t> > >::state_case_width()
FUNC 26472 2c 0 __crt_stdio_output::output_processor<wchar_t,__crt_stdio_output::stream_output_adapter<wchar_t>,__crt_stdio_output::standard_base<wchar_t,__crt_stdio_output::stream_output_adapter<wchar_t> > >::state_case_width()
FUNC 264a9 2c 0 __crt_stdio_output::output_processor<wchar_t,__crt_stdio_output::string_output_adapter<wchar_t>,__crt_stdio_output::format_validation_base<wchar_t,__crt_stdio_output::string_output_adapter<wchar_t> > >::state_case_width()
FUNC 264e0 41 0 __crt_stdio_output::output_processor<wchar_t,__crt_stdio_output::string_output_adapter<wchar_t>,__crt_stdio_output::positional_parameter_base<wchar_t,__crt_stdio_output::string_output_adapter<wchar_t> > >::state_case_width()
FUNC 26531 2c 0 __crt_stdio_output::output_processor<wchar_t,__crt_stdio_output::string_output_adapter<wchar_t>,__crt_stdio_output::standard_base<wchar_t,__crt_stdio_output::string_output_adapter<wchar_t> > >::state_case_width()
FUNC 26568 4 0 __crt_stdio_output::format_validation_base<char,__crt_stdio_output::stream_output_adapter<char> >::state_count()
FUNC 2656c 4 0 __crt_stdio_output::format_validation_base<char,__crt_stdio_output::string_output_adapter<char> >::state_count()
FUNC 26570 4 0 __crt_stdio_output::format_validation_base<wchar_t,__crt_stdio_output::stream_output_adapter<wchar_t> >::state_count()
FUNC 26574 4 0 __crt_stdio_output::format_validation_base<wchar_t,__crt_stdio_output::string_output_adapter<wchar_t> >::state_count()
FUNC 26578 4 0 __crt_stdio_output::standard_base<char,__crt_stdio_output::stream_output_adapter<char> >::state_count()
FUNC 2657c 4 0 __crt_stdio_output::standard_base<char,__crt_stdio_output::string_output_adapter<char> >::state_count()
FUNC 26580 4 0 __crt_stdio_output::standard_base<wchar_t,__crt_stdio_output::stream_output_adapter<wchar_t> >::state_count()
FUNC 26584 4 0 __crt_stdio_output::standard_base<wchar_t,__crt_stdio_output::string_output_adapter<wchar_t> >::state_count()
FUNC 26588 6 0 __crt_stdio_output::format_validation_base<char,__crt_stdio_output::stream_output_adapter<char> >::state_transition_table()
FUNC 2658e 6 0 __crt_stdio_output::format_validation_base<char,__crt_stdio_output::string_output_adapter<char> >::state_transition_table()
FUNC 26594 6 0 __crt_stdio_output::format_validation_base<wchar_t,__crt_stdio_output::stream_output_adapter<wchar_t> >::state_transition_table()
FUNC 2659a 6 0 __crt_stdio_output::format_validation_base<wchar_t,__crt_stdio_output::string_output_adapter<wchar_t> >::state_transition_table()
FUNC 265a0 6 0 __crt_stdio_output::standard_base<char,__crt_stdio_output::stream_output_adapter<char> >::state_transition_table()
FUNC 265a6 6 0 __crt_stdio_output::standard_base<char,__crt_stdio_output::string_output_adapter<char> >::state_transition_table()
FUNC 265ac 6 0 __crt_stdio_output::standard_base<wchar_t,__crt_stdio_output::stream_output_adapter<wchar_t> >::state_transition_table()
FUNC 265b2 6 0 __crt_stdio_output::standard_base<wchar_t,__crt_stdio_output::string_output_adapter<wchar_t> >::state_transition_table()
FUNC 265b8 6 4 __crt_stdio_output::common_data<char>::tchar_string(char)
FUNC 265be 4 0 __crt_stdio_output::common_data<char>::tchar_string()
FUNC 265c2 4 0 __crt_stdio_output::common_data<wchar_t>::tchar_string()
FUNC 265c6 6 4 __crt_stdio_output::common_data<wchar_t>::tchar_string(wchar_t)
FUNC 265cc 54 0 __crt_stdio_output::to_integer_size(__crt_stdio_output::length_modifier)
FUNC 26635 a 0 __crt_stdio_output::output_processor<char,__crt_stdio_output::stream_output_adapter<char>,__crt_stdio_output::format_validation_base<char,__crt_stdio_output::stream_output_adapter<char> > >::type_case_X()
FUNC 26641 a 0 __crt_stdio_output::output_processor<char,__crt_stdio_output::stream_output_adapter<char>,__crt_stdio_output::positional_parameter_base<char,__crt_stdio_output::stream_output_adapter<char> > >::type_case_X()
FUNC 2664d a 0 __crt_stdio_output::output_processor<char,__crt_stdio_output::stream_output_adapter<char>,__crt_stdio_output::standard_base<char,__crt_stdio_output::stream_output_adapter<char> > >::type_case_X()
FUNC 26659 a 0 __crt_stdio_output::output_processor<char,__crt_stdio_output::string_output_adapter<char>,__crt_stdio_output::format_validation_base<char,__crt_stdio_output::string_output_adapter<char> > >::type_case_X()
FUNC 26665 a 0 __crt_stdio_output::output_processor<char,__crt_stdio_output::string_output_adapter<char>,__crt_stdio_output::positional_parameter_base<char,__crt_stdio_output::string_output_adapter<char> > >::type_case_X()
FUNC 26671 a 0 __crt_stdio_output::output_processor<char,__crt_stdio_output::string_output_adapter<char>,__crt_stdio_output::standard_base<char,__crt_stdio_output::string_output_adapter<char> > >::type_case_X()
FUNC 2667d a 0 __crt_stdio_output::output_processor<wchar_t,__crt_stdio_output::stream_output_adapter<wchar_t>,__crt_stdio_output::format_validation_base<wchar_t,__crt_stdio_output::stream_output_adapter<wchar_t> > >::type_case_X()
FUNC 26689 a 0 __crt_stdio_output::output_processor<wchar_t,__crt_stdio_output::stream_output_adapter<wchar_t>,__crt_stdio_output::positional_parameter_base<wchar_t,__crt_stdio_output::stream_output_adapter<wchar_t> > >::type_case_X()
FUNC 26695 a 0 __crt_stdio_output::output_processor<wchar_t,__crt_stdio_output::stream_output_adapter<wchar_t>,__crt_stdio_output::standard_base<wchar_t,__crt_stdio_output::stream_output_adapter<wchar_t> > >::type_case_X()
FUNC 266a1 a 0 __crt_stdio_output::output_processor<wchar_t,__crt_stdio_output::string_output_adapter<wchar_t>,__crt_stdio_output::format_validation_base<wchar_t,__crt_stdio_output::string_output_adapter<wchar_t> > >::type_case_X()
FUNC 266ad a 0 __crt_stdio_output::output_processor<wchar_t,__crt_stdio_output::string_output_adapter<wchar_t>,__crt_stdio_output::positional_parameter_base<wchar_t,__crt_stdio_output::string_output_adapter<wchar_t> > >::type_case_X()
FUNC 266b9 a 0 __crt_stdio_output::output_processor<wchar_t,__crt_stdio_output::string_output_adapter<wchar_t>,__crt_stdio_output::standard_base<wchar_t,__crt_stdio_output::string_output_adapter<wchar_t> > >::type_case_X()
FUNC 266c5 5a 0 __crt_stdio_output::output_processor<char,__crt_stdio_output::stream_output_adapter<char>,__crt_stdio_output::format_validation_base<char,__crt_stdio_output::stream_output_adapter<char> > >::type_case_Z()
FUNC 26735 d8 0 __crt_stdio_output::output_processor<char,__crt_stdio_output::stream_output_adapter<char>,__crt_stdio_output::positional_parameter_base<char,__crt_stdio_output::stream_output_adapter<char> > >::type_case_Z()
FUNC 26843 5a 0 __crt_stdio_output::output_processor<char,__crt_stdio_output::stream_output_adapter<char>,__crt_stdio_output::standard_base<char,__crt_stdio_output::stream_output_adapter<char> > >::type_case_Z()
FUNC 268b3 5a 0 __crt_stdio_output::output_processor<char,__crt_stdio_output::string_output_adapter<char>,__crt_stdio_output::format_validation_base<char,__crt_stdio_output::string_output_adapter<char> > >::type_case_Z()
FUNC 26923 d8 0 __crt_stdio_output::output_processor<char,__crt_stdio_output::string_output_adapter<char>,__crt_stdio_output::positional_parameter_base<char,__crt_stdio_output::string_output_adapter<char> > >::type_case_Z()
FUNC 26a31 5a 0 __crt_stdio_output::output_processor<char,__crt_stdio_output::string_output_adapter<char>,__crt_stdio_output::standard_base<char,__crt_stdio_output::string_output_adapter<char> > >::type_case_Z()
FUNC 26aa1 5a 0 __crt_stdio_output::output_processor<wchar_t,__crt_stdio_output::stream_output_adapter<wchar_t>,__crt_stdio_output::format_validation_base<wchar_t,__crt_stdio_output::stream_output_adapter<wchar_t> > >::type_case_Z()
FUNC 26b11 d8 0 __crt_stdio_output::output_processor<wchar_t,__crt_stdio_output::stream_output_adapter<wchar_t>,__crt_stdio_output::positional_parameter_base<wchar_t,__crt_stdio_output::stream_output_adapter<wchar_t> > >::type_case_Z()
FUNC 26c1f 5a 0 __crt_stdio_output::output_processor<wchar_t,__crt_stdio_output::stream_output_adapter<wchar_t>,__crt_stdio_output::standard_base<wchar_t,__crt_stdio_output::stream_output_adapter<wchar_t> > >::type_case_Z()
FUNC 26c8f 5a 0 __crt_stdio_output::output_processor<wchar_t,__crt_stdio_output::string_output_adapter<wchar_t>,__crt_stdio_output::format_validation_base<wchar_t,__crt_stdio_output::string_output_adapter<wchar_t> > >::type_case_Z()
FUNC 26cff d8 0 __crt_stdio_output::output_processor<wchar_t,__crt_stdio_output::string_output_adapter<wchar_t>,__crt_stdio_output::positional_parameter_base<wchar_t,__crt_stdio_output::string_output_adapter<wchar_t> > >::type_case_Z()
FUNC 26e0d 5a 0 __crt_stdio_output::output_processor<wchar_t,__crt_stdio_output::string_output_adapter<wchar_t>,__crt_stdio_output::standard_base<wchar_t,__crt_stdio_output::string_output_adapter<wchar_t> > >::type_case_Z()
FUNC 26e7d 14f 0 __crt_stdio_output::output_processor<char,__crt_stdio_output::stream_output_adapter<char>,__crt_stdio_output::format_validation_base<char,__crt_stdio_output::stream_output_adapter<char> > >::type_case_a()
FUNC 2701f 17b 0 __crt_stdio_output::output_processor<char,__crt_stdio_output::stream_output_adapter<char>,__crt_stdio_output::positional_parameter_base<char,__crt_stdio_output::stream_output_adapter<char> > >::type_case_a()
FUNC 271f8 14f 0 __crt_stdio_output::output_processor<char,__crt_stdio_output::stream_output_adapter<char>,__crt_stdio_output::standard_base<char,__crt_stdio_output::stream_output_adapter<char> > >::type_case_a()
FUNC 2739a 14f 0 __crt_stdio_output::output_processor<char,__crt_stdio_output::string_output_adapter<char>,__crt_stdio_output::format_validation_base<char,__crt_stdio_output::string_output_adapter<char> > >::type_case_a()
FUNC 2753c 17b 0 __crt_stdio_output::output_processor<char,__crt_stdio_output::string_output_adapter<char>,__crt_stdio_output::positional_parameter_base<char,__crt_stdio_output::string_output_adapter<char> > >::type_case_a()
FUNC 27715 14f 0 __crt_stdio_output::output_processor<char,__crt_stdio_output::string_output_adapter<char>,__crt_stdio_output::standard_base<char,__crt_stdio_output::string_output_adapter<char> > >::type_case_a()
FUNC 278b7 165 0 __crt_stdio_output::output_processor<wchar_t,__crt_stdio_output::stream_output_adapter<wchar_t>,__crt_stdio_output::format_validation_base<wchar_t,__crt_stdio_output::stream_output_adapter<wchar_t> > >::type_case_a()
FUNC 27a75 191 0 __crt_stdio_output::output_processor<wchar_t,__crt_stdio_output::stream_output_adapter<wchar_t>,__crt_stdio_output::positional_parameter_base<wchar_t,__crt_stdio_output::stream_output_adapter<wchar_t> > >::type_case_a()
FUNC 27c6a 165 0 __crt_stdio_output::output_processor<wchar_t,__crt_stdio_output::stream_output_adapter<wchar_t>,__crt_stdio_output::standard_base<wchar_t,__crt_stdio_output::stream_output_adapter<wchar_t> > >::type_case_a()
FUNC 27e28 165 0 __crt_stdio_output::output_processor<wchar_t,__crt_stdio_output::string_output_adapter<wchar_t>,__crt_stdio_output::format_validation_base<wchar_t,__crt_stdio_output::string_output_adapter<wchar_t> > >::type_case_a()
FUNC 27fe6 191 0 __crt_stdio_output::output_processor<wchar_t,__crt_stdio_output::string_output_adapter<wchar_t>,__crt_stdio_output::positional_parameter_base<wchar_t,__crt_stdio_output::string_output_adapter<wchar_t> > >::type_case_a()
FUNC 281db 165 0 __crt_stdio_output::output_processor<wchar_t,__crt_stdio_output::string_output_adapter<wchar_t>,__crt_stdio_output::standard_base<wchar_t,__crt_stdio_output::string_output_adapter<wchar_t> > >::type_case_a()
FUNC 28399 8 0 __crt_stdio_output::output_processor<char,__crt_stdio_output::stream_output_adapter<char>,__crt_stdio_output::format_validation_base<char,__crt_stdio_output::stream_output_adapter<char> > >::type_case_c()
FUNC 283a3 8 0 __crt_stdio_output::output_processor<char,__crt_stdio_output::stream_output_adapter<char>,__crt_stdio_output::positional_parameter_base<char,__crt_stdio_output::stream_output_adapter<char> > >::type_case_c()
FUNC 283ad 8 0 __crt_stdio_output::output_processor<char,__crt_stdio_output::stream_output_adapter<char>,__crt_stdio_output::standard_base<char,__crt_stdio_output::stream_output_adapter<char> > >::type_case_c()
FUNC 283b7 8 0 __crt_stdio_output::output_processor<char,__crt_stdio_output::string_output_adapter<char>,__crt_stdio_output::format_validation_base<char,__crt_stdio_output::string_output_adapter<char> > >::type_case_c()
FUNC 283c1 8 0 __crt_stdio_output::output_processor<char,__crt_stdio_output::string_output_adapter<char>,__crt_stdio_output::positional_parameter_base<char,__crt_stdio_output::string_output_adapter<char> > >::type_case_c()
FUNC 283cb 8 0 __crt_stdio_output::output_processor<char,__crt_stdio_output::string_output_adapter<char>,__crt_stdio_output::standard_base<char,__crt_stdio_output::string_output_adapter<char> > >::type_case_c()
FUNC 283d5 8 0 __crt_stdio_output::output_processor<wchar_t,__crt_stdio_output::stream_output_adapter<wchar_t>,__crt_stdio_output::format_validation_base<wchar_t,__crt_stdio_output::stream_output_adapter<wchar_t> > >::type_case_c()
FUNC 283df 8 0 __crt_stdio_output::output_processor<wchar_t,__crt_stdio_output::stream_output_adapter<wchar_t>,__crt_stdio_output::positional_parameter_base<wchar_t,__crt_stdio_output::stream_output_adapter<wchar_t> > >::type_case_c()
FUNC 283e9 8 0 __crt_stdio_output::output_processor<wchar_t,__crt_stdio_output::stream_output_adapter<wchar_t>,__crt_stdio_output::standard_base<wchar_t,__crt_stdio_output::stream_output_adapter<wchar_t> > >::type_case_c()
FUNC 283f3 8 0 __crt_stdio_output::output_processor<wchar_t,__crt_stdio_output::string_output_adapter<wchar_t>,__crt_stdio_output::format_validation_base<wchar_t,__crt_stdio_output::string_output_adapter<wchar_t> > >::type_case_c()
FUNC 283fd 8 0 __crt_stdio_output::output_processor<wchar_t,__crt_stdio_output::string_output_adapter<wchar_t>,__crt_stdio_output::positional_parameter_base<wchar_t,__crt_stdio_output::string_output_adapter<wchar_t> > >::type_case_c()
FUNC 28407 8 0 __crt_stdio_output::output_processor<wchar_t,__crt_stdio_output::string_output_adapter<wchar_t>,__crt_stdio_output::standard_base<wchar_t,__crt_stdio_output::string_output_adapter<wchar_t> > >::type_case_c()
FUNC 28411 90 4 __crt_stdio_output::output_processor<char,__crt_stdio_output::stream_output_adapter<char>,__crt_stdio_output::format_validation_base<char,__crt_stdio_output::stream_output_adapter<char> > >::type_case_c_tchar(char)
FUNC 284c5 be 0 __crt_stdio_output::output_processor<char,__crt_stdio_output::stream_output_adapter<char>,__crt_stdio_output::positional_parameter_base<char,__crt_stdio_output::stream_output_adapter<char> > >::type_case_c_tchar(char)
FUNC 285b2 90 4 __crt_stdio_output::output_processor<char,__crt_stdio_output::stream_output_adapter<char>,__crt_stdio_output::standard_base<char,__crt_stdio_output::stream_output_adapter<char> > >::type_case_c_tchar(char)
FUNC 28666 90 4 __crt_stdio_output::output_processor<char,__crt_stdio_output::string_output_adapter<char>,__crt_stdio_output::format_validation_base<char,__crt_stdio_output::string_output_adapter<char> > >::type_case_c_tchar(char)
FUNC 2871a be 0 __crt_stdio_output::output_processor<char,__crt_stdio_output::string_output_adapter<char>,__crt_stdio_output::positional_parameter_base<char,__crt_stdio_output::string_output_adapter<char> > >::type_case_c_tchar(char)
FUNC 28807 90 4 __crt_stdio_output::output_processor<char,__crt_stdio_output::string_output_adapter<char>,__crt_stdio_output::standard_base<char,__crt_stdio_output::string_output_adapter<char> > >::type_case_c_tchar(char)
FUNC 288bb 96 0 __crt_stdio_output::output_processor<wchar_t,__crt_stdio_output::stream_output_adapter<wchar_t>,__crt_stdio_output::format_validation_base<wchar_t,__crt_stdio_output::stream_output_adapter<wchar_t> > >::type_case_c_tchar(wchar_t)
FUNC 28976 ad 0 __crt_stdio_output::output_processor<wchar_t,__crt_stdio_output::stream_output_adapter<wchar_t>,__crt_stdio_output::positional_parameter_base<wchar_t,__crt_stdio_output::stream_output_adapter<wchar_t> > >::type_case_c_tchar(wchar_t)
FUNC 28a4e 96 0 __crt_stdio_output::output_processor<wchar_t,__crt_stdio_output::stream_output_adapter<wchar_t>,__crt_stdio_output::standard_base<wchar_t,__crt_stdio_output::stream_output_adapter<wchar_t> > >::type_case_c_tchar(wchar_t)
FUNC 28b09 96 0 __crt_stdio_output::output_processor<wchar_t,__crt_stdio_output::string_output_adapter<wchar_t>,__crt_stdio_output::format_validation_base<wchar_t,__crt_stdio_output::string_output_adapter<wchar_t> > >::type_case_c_tchar(wchar_t)
FUNC 28bc4 ad 0 __crt_stdio_output::output_processor<wchar_t,__crt_stdio_output::string_output_adapter<wchar_t>,__crt_stdio_output::positional_parameter_base<wchar_t,__crt_stdio_output::string_output_adapter<wchar_t> > >::type_case_c_tchar(wchar_t)
FUNC 28c9c 96 0 __crt_stdio_output::output_processor<wchar_t,__crt_stdio_output::string_output_adapter<wchar_t>,__crt_stdio_output::standard_base<wchar_t,__crt_stdio_output::string_output_adapter<wchar_t> > >::type_case_c_tchar(wchar_t)
FUNC 28d57 e 0 __crt_stdio_output::output_processor<char,__crt_stdio_output::stream_output_adapter<char>,__crt_stdio_output::format_validation_base<char,__crt_stdio_output::stream_output_adapter<char> > >::type_case_d()
FUNC 28d68 e 0 __crt_stdio_output::output_processor<char,__crt_stdio_output::stream_output_adapter<char>,__crt_stdio_output::positional_parameter_base<char,__crt_stdio_output::stream_output_adapter<char> > >::type_case_d()
FUNC 28d79 e 0 __crt_stdio_output::output_processor<char,__crt_stdio_output::stream_output_adapter<char>,__crt_stdio_output::standard_base<char,__crt_stdio_output::stream_output_adapter<char> > >::type_case_d()
FUNC 28d8a e 0 __crt_stdio_output::output_processor<char,__crt_stdio_output::string_output_adapter<char>,__crt_stdio_output::format_validation_base<char,__crt_stdio_output::string_output_adapter<char> > >::type_case_d()
FUNC 28d9b e 0 __crt_stdio_output::output_processor<char,__crt_stdio_output::string_output_adapter<char>,__crt_stdio_output::positional_parameter_base<char,__crt_stdio_output::string_output_adapter<char> > >::type_case_d()
FUNC 28dac e 0 __crt_stdio_output::output_processor<char,__crt_stdio_output::string_output_adapter<char>,__crt_stdio_output::standard_base<char,__crt_stdio_output::string_output_adapter<char> > >::type_case_d()
FUNC 28dbd e 0 __crt_stdio_output::output_processor<wchar_t,__crt_stdio_output::stream_output_adapter<wchar_t>,__crt_stdio_output::format_validation_base<wchar_t,__crt_stdio_output::stream_output_adapter<wchar_t> > >::type_case_d()
FUNC 28dce e 0 __crt_stdio_output::output_processor<wchar_t,__crt_stdio_output::stream_output_adapter<wchar_t>,__crt_stdio_output::positional_parameter_base<wchar_t,__crt_stdio_output::stream_output_adapter<wchar_t> > >::type_case_d()
FUNC 28ddf e 0 __crt_stdio_output::output_processor<wchar_t,__crt_stdio_output::stream_output_adapter<wchar_t>,__crt_stdio_output::standard_base<wchar_t,__crt_stdio_output::stream_output_adapter<wchar_t> > >::type_case_d()
FUNC 28df0 e 0 __crt_stdio_output::output_processor<wchar_t,__crt_stdio_output::string_output_adapter<wchar_t>,__crt_stdio_output::format_validation_base<wchar_t,__crt_stdio_output::string_output_adapter<wchar_t> > >::type_case_d()
FUNC 28e01 e 0 __crt_stdio_output::output_processor<wchar_t,__crt_stdio_output::string_output_adapter<wchar_t>,__crt_stdio_output::positional_parameter_base<wchar_t,__crt_stdio_output::string_output_adapter<wchar_t> > >::type_case_d()
FUNC 28e12 e 0 __crt_stdio_output::output_processor<wchar_t,__crt_stdio_output::string_output_adapter<wchar_t>,__crt_stdio_output::standard_base<wchar_t,__crt_stdio_output::string_output_adapter<wchar_t> > >::type_case_d()
FUNC 28e23 151 0 __crt_stdio_output::output_processor<char,__crt_stdio_output::stream_output_adapter<char>,__crt_stdio_output::format_validation_base<char,__crt_stdio_output::stream_output_adapter<char> > >::type_case_integer(unsigned int,bool)
FUNC 28fc8 181 0 __crt_stdio_output::output_processor<char,__crt_stdio_output::stream_output_adapter<char>,__crt_stdio_output::positional_parameter_base<char,__crt_stdio_output::stream_output_adapter<char> > >::type_case_integer(unsigned int,bool)
FUNC 291a9 151 0 __crt_stdio_output::output_processor<char,__crt_stdio_output::stream_output_adapter<char>,__crt_stdio_output::standard_base<char,__crt_stdio_output::stream_output_adapter<char> > >::type_case_integer(unsigned int,bool)
FUNC 2934e 151 0 __crt_stdio_output::output_processor<char,__crt_stdio_output::string_output_adapter<char>,__crt_stdio_output::format_validation_base<char,__crt_stdio_output::string_output_adapter<char> > >::type_case_integer(unsigned int,bool)
FUNC 294f3 181 0 __crt_stdio_output::output_processor<char,__crt_stdio_output::string_output_adapter<char>,__crt_stdio_output::positional_parameter_base<char,__crt_stdio_output::string_output_adapter<char> > >::type_case_integer(unsigned int,bool)
FUNC 296d4 151 0 __crt_stdio_output::output_processor<char,__crt_stdio_output::string_output_adapter<char>,__crt_stdio_output::standard_base<char,__crt_stdio_output::string_output_adapter<char> > >::type_case_integer(unsigned int,bool)
FUNC 29879 155 0 __crt_stdio_output::output_processor<wchar_t,__crt_stdio_output::stream_output_adapter<wchar_t>,__crt_stdio_output::format_validation_base<wchar_t,__crt_stdio_output::stream_output_adapter<wchar_t> > >::type_case_integer(unsigned int,bool)
FUNC 29a23 185 0 __crt_stdio_output::output_processor<wchar_t,__crt_stdio_output::stream_output_adapter<wchar_t>,__crt_stdio_output::positional_parameter_base<wchar_t,__crt_stdio_output::stream_output_adapter<wchar_t> > >::type_case_integer(unsigned int,bool)
FUNC 29c09 155 0 __crt_stdio_output::output_processor<wchar_t,__crt_stdio_output::stream_output_adapter<wchar_t>,__crt_stdio_output::standard_base<wchar_t,__crt_stdio_output::stream_output_adapter<wchar_t> > >::type_case_integer(unsigned int,bool)
FUNC 29db3 155 0 __crt_stdio_output::output_processor<wchar_t,__crt_stdio_output::string_output_adapter<wchar_t>,__crt_stdio_output::format_validation_base<wchar_t,__crt_stdio_output::string_output_adapter<wchar_t> > >::type_case_integer(unsigned int,bool)
FUNC 29f5d 185 0 __crt_stdio_output::output_processor<wchar_t,__crt_stdio_output::string_output_adapter<wchar_t>,__crt_stdio_output::positional_parameter_base<wchar_t,__crt_stdio_output::string_output_adapter<wchar_t> > >::type_case_integer(unsigned int,bool)
FUNC 2a143 155 0 __crt_stdio_output::output_processor<wchar_t,__crt_stdio_output::string_output_adapter<wchar_t>,__crt_stdio_output::standard_base<wchar_t,__crt_stdio_output::string_output_adapter<wchar_t> > >::type_case_integer(unsigned int,bool)
FUNC 2a2ed 74 0 __crt_stdio_output::output_processor<char,__crt_stdio_output::stream_output_adapter<char>,__crt_stdio_output::format_validation_base<char,__crt_stdio_output::stream_output_adapter<char> > >::type_case_n()
FUNC 2a37e 97 0 __crt_stdio_output::output_processor<char,__crt_stdio_output::stream_output_adapter<char>,__crt_stdio_output::positional_parameter_base<char,__crt_stdio_output::stream_output_adapter<char> > >::type_case_n()
FUNC 2a43a 74 0 __crt_stdio_output::output_processor<char,__crt_stdio_output::stream_output_adapter<char>,__crt_stdio_output::standard_base<char,__crt_stdio_output::stream_output_adapter<char> > >::type_case_n()
FUNC 2a4cb 74 0 __crt_stdio_output::output_processor<char,__crt_stdio_output::string_output_adapter<char>,__crt_stdio_output::format_validation_base<char,__crt_stdio_output::string_output_adapter<char> > >::type_case_n()
FUNC 2a55c 97 0 __crt_stdio_output::output_processor<char,__crt_stdio_output::string_output_adapter<char>,__crt_stdio_output::positional_parameter_base<char,__crt_stdio_output::string_output_adapter<char> > >::type_case_n()
FUNC 2a618 74 0 __crt_stdio_output::output_processor<char,__crt_stdio_output::string_output_adapter<char>,__crt_stdio_output::standard_base<char,__crt_stdio_output::string_output_adapter<char> > >::type_case_n()
FUNC 2a6a9 74 0 __crt_stdio_output::output_processor<wchar_t,__crt_stdio_output::stream_output_adapter<wchar_t>,__crt_stdio_output::format_validation_base<wchar_t,__crt_stdio_output::stream_output_adapter<wchar_t> > >::type_case_n()
FUNC 2a73a 97 0 __crt_stdio_output::output_processor<wchar_t,__crt_stdio_output::stream_output_adapter<wchar_t>,__crt_stdio_output::positional_parameter_base<wchar_t,__crt_stdio_output::stream_output_adapter<wchar_t> > >::type_case_n()
FUNC 2a7f6 74 0 __crt_stdio_output::output_processor<wchar_t,__crt_stdio_output::stream_output_adapter<wchar_t>,__crt_stdio_output::standard_base<wchar_t,__crt_stdio_output::stream_output_adapter<wchar_t> > >::type_case_n()
FUNC 2a887 74 0 __crt_stdio_output::output_processor<wchar_t,__crt_stdio_output::string_output_adapter<wchar_t>,__crt_stdio_output::format_validation_base<wchar_t,__crt_stdio_output::string_output_adapter<wchar_t> > >::type_case_n()
FUNC 2a918 97 0 __crt_stdio_output::output_processor<wchar_t,__crt_stdio_output::string_output_adapter<wchar_t>,__crt_stdio_output::positional_parameter_base<wchar_t,__crt_stdio_output::string_output_adapter<wchar_t> > >::type_case_n()
FUNC 2a9d4 74 0 __crt_stdio_output::output_processor<wchar_t,__crt_stdio_output::string_output_adapter<wchar_t>,__crt_stdio_output::standard_base<wchar_t,__crt_stdio_output::string_output_adapter<wchar_t> > >::type_case_n()
FUNC 2aa65 1f 0 __crt_stdio_output::output_processor<char,__crt_stdio_output::stream_output_adapter<char>,__crt_stdio_output::format_validation_base<char,__crt_stdio_output::stream_output_adapter<char> > >::type_case_o()
FUNC 2aa8b 1f 0 __crt_stdio_output::output_processor<char,__crt_stdio_output::stream_output_adapter<char>,__crt_stdio_output::positional_parameter_base<char,__crt_stdio_output::stream_output_adapter<char> > >::type_case_o()
FUNC 2aab1 1f 0 __crt_stdio_output::output_processor<char,__crt_stdio_output::stream_output_adapter<char>,__crt_stdio_output::standard_base<char,__crt_stdio_output::stream_output_adapter<char> > >::type_case_o()
FUNC 2aad7 1f 0 __crt_stdio_output::output_processor<char,__crt_stdio_output::string_output_adapter<char>,__crt_stdio_output::format_validation_base<char,__crt_stdio_output::string_output_adapter<char> > >::type_case_o()
FUNC 2aafd 1f 0 __crt_stdio_output::output_processor<char,__crt_stdio_output::string_output_adapter<char>,__crt_stdio_output::positional_parameter_base<char,__crt_stdio_output::string_output_adapter<char> > >::type_case_o()
FUNC 2ab23 1f 0 __crt_stdio_output::output_processor<char,__crt_stdio_output::string_output_adapter<char>,__crt_stdio_output::standard_base<char,__crt_stdio_output::string_output_adapter<char> > >::type_case_o()
FUNC 2ab49 1f 0 __crt_stdio_output::output_processor<wchar_t,__crt_stdio_output::stream_output_adapter<wchar_t>,__crt_stdio_output::format_validation_base<wchar_t,__crt_stdio_output::stream_output_adapter<wchar_t> > >::type_case_o()
FUNC 2ab6f 1f 0 __crt_stdio_output::output_processor<wchar_t,__crt_stdio_output::stream_output_adapter<wchar_t>,__crt_stdio_output::positional_parameter_base<wchar_t,__crt_stdio_output::stream_output_adapter<wchar_t> > >::type_case_o()
FUNC 2ab95 1f 0 __crt_stdio_output::output_processor<wchar_t,__crt_stdio_output::stream_output_adapter<wchar_t>,__crt_stdio_output::standard_base<wchar_t,__crt_stdio_output::stream_output_adapter<wchar_t> > >::type_case_o()
FUNC 2abbb 1f 0 __crt_stdio_output::output_processor<wchar_t,__crt_stdio_output::string_output_adapter<wchar_t>,__crt_stdio_output::format_validation_base<wchar_t,__crt_stdio_output::string_output_adapter<wchar_t> > >::type_case_o()
FUNC 2abe1 1f 0 __crt_stdio_output::output_processor<wchar_t,__crt_stdio_output::string_output_adapter<wchar_t>,__crt_stdio_output::positional_parameter_base<wchar_t,__crt_stdio_output::string_output_adapter<wchar_t> > >::type_case_o()
FUNC 2ac07 1f 0 __crt_stdio_output::output_processor<wchar_t,__crt_stdio_output::string_output_adapter<wchar_t>,__crt_stdio_output::standard_base<wchar_t,__crt_stdio_output::string_output_adapter<wchar_t> > >::type_case_o()
FUNC 2ac2d 18 0 __crt_stdio_output::output_processor<char,__crt_stdio_output::stream_output_adapter<char>,__crt_stdio_output::format_validation_base<char,__crt_stdio_output::stream_output_adapter<char> > >::type_case_p()
FUNC 2ac4b 18 0 __crt_stdio_output::output_processor<char,__crt_stdio_output::stream_output_adapter<char>,__crt_stdio_output::positional_parameter_base<char,__crt_stdio_output::stream_output_adapter<char> > >::type_case_p()
FUNC 2ac69 18 0 __crt_stdio_output::output_processor<char,__crt_stdio_output::stream_output_adapter<char>,__crt_stdio_output::standard_base<char,__crt_stdio_output::stream_output_adapter<char> > >::type_case_p()
FUNC 2ac87 18 0 __crt_stdio_output::output_processor<char,__crt_stdio_output::string_output_adapter<char>,__crt_stdio_output::format_validation_base<char,__crt_stdio_output::string_output_adapter<char> > >::type_case_p()
FUNC 2aca5 18 0 __crt_stdio_output::output_processor<char,__crt_stdio_output::string_output_adapter<char>,__crt_stdio_output::positional_parameter_base<char,__crt_stdio_output::string_output_adapter<char> > >::type_case_p()
FUNC 2acc3 18 0 __crt_stdio_output::output_processor<char,__crt_stdio_output::string_output_adapter<char>,__crt_stdio_output::standard_base<char,__crt_stdio_output::string_output_adapter<char> > >::type_case_p()
FUNC 2ace1 18 0 __crt_stdio_output::output_processor<wchar_t,__crt_stdio_output::stream_output_adapter<wchar_t>,__crt_stdio_output::format_validation_base<wchar_t,__crt_stdio_output::stream_output_adapter<wchar_t> > >::type_case_p()
FUNC 2acff 18 0 __crt_stdio_output::output_processor<wchar_t,__crt_stdio_output::stream_output_adapter<wchar_t>,__crt_stdio_output::positional_parameter_base<wchar_t,__crt_stdio_output::stream_output_adapter<wchar_t> > >::type_case_p()
FUNC 2ad1d 18 0 __crt_stdio_output::output_processor<wchar_t,__crt_stdio_output::stream_output_adapter<wchar_t>,__crt_stdio_output::standard_base<wchar_t,__crt_stdio_output::stream_output_adapter<wchar_t> > >::type_case_p()
FUNC 2ad3b 18 0 __crt_stdio_output::output_processor<wchar_t,__crt_stdio_output::string_output_adapter<wchar_t>,__crt_stdio_output::format_validation_base<wchar_t,__crt_stdio_output::string_output_adapter<wchar_t> > >::type_case_p()
FUNC 2ad59 18 0 __crt_stdio_output::output_processor<wchar_t,__crt_stdio_output::string_output_adapter<wchar_t>,__crt_stdio_output::positional_parameter_base<wchar_t,__crt_stdio_output::string_output_adapter<wchar_t> > >::type_case_p()
FUNC 2ad77 18 0 __crt_stdio_output::output_processor<wchar_t,__crt_stdio_output::string_output_adapter<wchar_t>,__crt_stdio_output::standard_base<wchar_t,__crt_stdio_output::string_output_adapter<wchar_t> > >::type_case_p()
FUNC 2ad95 71 0 __crt_stdio_output::output_processor<char,__crt_stdio_output::stream_output_adapter<char>,__crt_stdio_output::format_validation_base<char,__crt_stdio_output::stream_output_adapter<char> > >::type_case_s()
FUNC 2ae22 7e 0 __crt_stdio_output::output_processor<char,__crt_stdio_output::stream_output_adapter<char>,__crt_stdio_output::positional_parameter_base<char,__crt_stdio_output::stream_output_adapter<char> > >::type_case_s()
FUNC 2aebf 71 0 __crt_stdio_output::output_processor<char,__crt_stdio_output::stream_output_adapter<char>,__crt_stdio_output::standard_base<char,__crt_stdio_output::stream_output_adapter<char> > >::type_case_s()
FUNC 2af4c 71 0 __crt_stdio_output::output_processor<char,__crt_stdio_output::string_output_adapter<char>,__crt_stdio_output::format_validation_base<char,__crt_stdio_output::string_output_adapter<char> > >::type_case_s()
FUNC 2afd9 7e 0 __crt_stdio_output::output_processor<char,__crt_stdio_output::string_output_adapter<char>,__crt_stdio_output::positional_parameter_base<char,__crt_stdio_output::string_output_adapter<char> > >::type_case_s()
FUNC 2b076 71 0 __crt_stdio_output::output_processor<char,__crt_stdio_output::string_output_adapter<char>,__crt_stdio_output::standard_base<char,__crt_stdio_output::string_output_adapter<char> > >::type_case_s()
FUNC 2b103 73 0 __crt_stdio_output::output_processor<wchar_t,__crt_stdio_output::stream_output_adapter<wchar_t>,__crt_stdio_output::format_validation_base<wchar_t,__crt_stdio_output::stream_output_adapter<wchar_t> > >::type_case_s()
FUNC 2b192 80 0 __crt_stdio_output::output_processor<wchar_t,__crt_stdio_output::stream_output_adapter<wchar_t>,__crt_stdio_output::positional_parameter_base<wchar_t,__crt_stdio_output::stream_output_adapter<wchar_t> > >::type_case_s()
FUNC 2b232 73 0 __crt_stdio_output::output_processor<wchar_t,__crt_stdio_output::stream_output_adapter<wchar_t>,__crt_stdio_output::standard_base<wchar_t,__crt_stdio_output::stream_output_adapter<wchar_t> > >::type_case_s()
FUNC 2b2c1 73 0 __crt_stdio_output::output_processor<wchar_t,__crt_stdio_output::string_output_adapter<wchar_t>,__crt_stdio_output::format_validation_base<wchar_t,__crt_stdio_output::string_output_adapter<wchar_t> > >::type_case_s()
FUNC 2b350 80 0 __crt_stdio_output::output_processor<wchar_t,__crt_stdio_output::string_output_adapter<wchar_t>,__crt_stdio_output::positional_parameter_base<wchar_t,__crt_stdio_output::string_output_adapter<wchar_t> > >::type_case_s()
FUNC 2b3f0 73 0 __crt_stdio_output::output_processor<wchar_t,__crt_stdio_output::string_output_adapter<wchar_t>,__crt_stdio_output::standard_base<wchar_t,__crt_stdio_output::string_output_adapter<wchar_t> > >::type_case_s()
FUNC 2b47f 16 0 __crt_stdio_output::output_processor<char,__crt_stdio_output::stream_output_adapter<char>,__crt_stdio_output::format_validation_base<char,__crt_stdio_output::stream_output_adapter<char> > >::type_case_s_compute_narrow_string_length(int,char)
FUNC 2b49a 16 0 __crt_stdio_output::output_processor<char,__crt_stdio_output::stream_output_adapter<char>,__crt_stdio_output::positional_parameter_base<char,__crt_stdio_output::stream_output_adapter<char> > >::type_case_s_compute_narrow_string_length(int,char)
FUNC 2b4b5 16 0 __crt_stdio_output::output_processor<char,__crt_stdio_output::stream_output_adapter<char>,__crt_stdio_output::standard_base<char,__crt_stdio_output::stream_output_adapter<char> > >::type_case_s_compute_narrow_string_length(int,char)
FUNC 2b4d0 16 0 __crt_stdio_output::output_processor<char,__crt_stdio_output::string_output_adapter<char>,__crt_stdio_output::format_validation_base<char,__crt_stdio_output::string_output_adapter<char> > >::type_case_s_compute_narrow_string_length(int,char)
FUNC 2b4eb 16 0 __crt_stdio_output::output_processor<char,__crt_stdio_output::string_output_adapter<char>,__crt_stdio_output::positional_parameter_base<char,__crt_stdio_output::string_output_adapter<char> > >::type_case_s_compute_narrow_string_length(int,char)
FUNC 2b506 16 0 __crt_stdio_output::output_processor<char,__crt_stdio_output::string_output_adapter<char>,__crt_stdio_output::standard_base<char,__crt_stdio_output::string_output_adapter<char> > >::type_case_s_compute_narrow_string_length(int,char)
FUNC 2b521 47 0 __crt_stdio_output::output_processor<wchar_t,__crt_stdio_output::stream_output_adapter<wchar_t>,__crt_stdio_output::format_validation_base<wchar_t,__crt_stdio_output::stream_output_adapter<wchar_t> > >::type_case_s_compute_narrow_string_length(int,wchar_t)
FUNC 2b579 47 0 __crt_stdio_output::output_processor<wchar_t,__crt_stdio_output::stream_output_adapter<wchar_t>,__crt_stdio_output::positional_parameter_base<wchar_t,__crt_stdio_output::stream_output_adapter<wchar_t> > >::type_case_s_compute_narrow_string_length(int,wchar_t)
FUNC 2b5d1 47 0 __crt_stdio_output::output_processor<wchar_t,__crt_stdio_output::stream_output_adapter<wchar_t>,__crt_stdio_output::standard_base<wchar_t,__crt_stdio_output::stream_output_adapter<wchar_t> > >::type_case_s_compute_narrow_string_length(int,wchar_t)
FUNC 2b629 47 0 __crt_stdio_output::output_processor<wchar_t,__crt_stdio_output::string_output_adapter<wchar_t>,__crt_stdio_output::format_validation_base<wchar_t,__crt_stdio_output::string_output_adapter<wchar_t> > >::type_case_s_compute_narrow_string_length(int,wchar_t)
FUNC 2b681 47 0 __crt_stdio_output::output_processor<wchar_t,__crt_stdio_output::string_output_adapter<wchar_t>,__crt_stdio_output::positional_parameter_base<wchar_t,__crt_stdio_output::string_output_adapter<wchar_t> > >::type_case_s_compute_narrow_string_length(int,wchar_t)
FUNC 2b6d9 47 0 __crt_stdio_output::output_processor<wchar_t,__crt_stdio_output::string_output_adapter<wchar_t>,__crt_stdio_output::standard_base<wchar_t,__crt_stdio_output::string_output_adapter<wchar_t> > >::type_case_s_compute_narrow_string_length(int,wchar_t)
FUNC 2b731 a 0 __crt_stdio_output::output_processor<char,__crt_stdio_output::stream_output_adapter<char>,__crt_stdio_output::format_validation_base<char,__crt_stdio_output::stream_output_adapter<char> > >::type_case_u()
FUNC 2b73d a 0 __crt_stdio_output::output_processor<char,__crt_stdio_output::stream_output_adapter<char>,__crt_stdio_output::positional_parameter_base<char,__crt_stdio_output::stream_output_adapter<char> > >::type_case_u()
FUNC 2b749 a 0 __crt_stdio_output::output_processor<char,__crt_stdio_output::stream_output_adapter<char>,__crt_stdio_output::standard_base<char,__crt_stdio_output::stream_output_adapter<char> > >::type_case_u()
FUNC 2b755 a 0 __crt_stdio_output::output_processor<char,__crt_stdio_output::string_output_adapter<char>,__crt_stdio_output::format_validation_base<char,__crt_stdio_output::string_output_adapter<char> > >::type_case_u()
FUNC 2b761 a 0 __crt_stdio_output::output_processor<char,__crt_stdio_output::string_output_adapter<char>,__crt_stdio_output::positional_parameter_base<char,__crt_stdio_output::string_output_adapter<char> > >::type_case_u()
FUNC 2b76d a 0 __crt_stdio_output::output_processor<char,__crt_stdio_output::string_output_adapter<char>,__crt_stdio_output::standard_base<char,__crt_stdio_output::string_output_adapter<char> > >::type_case_u()
FUNC 2b779 a 0 __crt_stdio_output::output_processor<wchar_t,__crt_stdio_output::stream_output_adapter<wchar_t>,__crt_stdio_output::format_validation_base<wchar_t,__crt_stdio_output::stream_output_adapter<wchar_t> > >::type_case_u()
FUNC 2b785 a 0 __crt_stdio_output::output_processor<wchar_t,__crt_stdio_output::stream_output_adapter<wchar_t>,__crt_stdio_output::positional_parameter_base<wchar_t,__crt_stdio_output::stream_output_adapter<wchar_t> > >::type_case_u()
FUNC 2b791 a 0 __crt_stdio_output::output_processor<wchar_t,__crt_stdio_output::stream_output_adapter<wchar_t>,__crt_stdio_output::standard_base<wchar_t,__crt_stdio_output::stream_output_adapter<wchar_t> > >::type_case_u()
FUNC 2b79d a 0 __crt_stdio_output::output_processor<wchar_t,__crt_stdio_output::string_output_adapter<wchar_t>,__crt_stdio_output::format_validation_base<wchar_t,__crt_stdio_output::string_output_adapter<wchar_t> > >::type_case_u()
FUNC 2b7a9 a 0 __crt_stdio_output::output_processor<wchar_t,__crt_stdio_output::string_output_adapter<wchar_t>,__crt_stdio_output::positional_parameter_base<wchar_t,__crt_stdio_output::string_output_adapter<wchar_t> > >::type_case_u()
FUNC 2b7b5 a 0 __crt_stdio_output::output_processor<wchar_t,__crt_stdio_output::string_output_adapter<wchar_t>,__crt_stdio_output::standard_base<wchar_t,__crt_stdio_output::string_output_adapter<wchar_t> > >::type_case_u()
FUNC 2b7c1 a 0 __crt_stdio_output::output_processor<char,__crt_stdio_output::stream_output_adapter<char>,__crt_stdio_output::format_validation_base<char,__crt_stdio_output::stream_output_adapter<char> > >::type_case_x()
FUNC 2b7cd a 0 __crt_stdio_output::output_processor<char,__crt_stdio_output::stream_output_adapter<char>,__crt_stdio_output::positional_parameter_base<char,__crt_stdio_output::stream_output_adapter<char> > >::type_case_x()
FUNC 2b7d9 a 0 __crt_stdio_output::output_processor<char,__crt_stdio_output::stream_output_adapter<char>,__crt_stdio_output::standard_base<char,__crt_stdio_output::stream_output_adapter<char> > >::type_case_x()
FUNC 2b7e5 a 0 __crt_stdio_output::output_processor<char,__crt_stdio_output::string_output_adapter<char>,__crt_stdio_output::format_validation_base<char,__crt_stdio_output::string_output_adapter<char> > >::type_case_x()
FUNC 2b7f1 a 0 __crt_stdio_output::output_processor<char,__crt_stdio_output::string_output_adapter<char>,__crt_stdio_output::positional_parameter_base<char,__crt_stdio_output::string_output_adapter<char> > >::type_case_x()
FUNC 2b7fd a 0 __crt_stdio_output::output_processor<char,__crt_stdio_output::string_output_adapter<char>,__crt_stdio_output::standard_base<char,__crt_stdio_output::string_output_adapter<char> > >::type_case_x()
FUNC 2b809 a 0 __crt_stdio_output::output_processor<wchar_t,__crt_stdio_output::stream_output_adapter<wchar_t>,__crt_stdio_output::format_validation_base<wchar_t,__crt_stdio_output::stream_output_adapter<wchar_t> > >::type_case_x()
FUNC 2b815 a 0 __crt_stdio_output::output_processor<wchar_t,__crt_stdio_output::stream_output_adapter<wchar_t>,__crt_stdio_output::positional_parameter_base<wchar_t,__crt_stdio_output::stream_output_adapter<wchar_t> > >::type_case_x()
FUNC 2b821 a 0 __crt_stdio_output::output_processor<wchar_t,__crt_stdio_output::stream_output_adapter<wchar_t>,__crt_stdio_output::standard_base<wchar_t,__crt_stdio_output::stream_output_adapter<wchar_t> > >::type_case_x()
FUNC 2b82d a 0 __crt_stdio_output::output_processor<wchar_t,__crt_stdio_output::string_output_adapter<wchar_t>,__crt_stdio_output::format_validation_base<wchar_t,__crt_stdio_output::string_output_adapter<wchar_t> > >::type_case_x()
FUNC 2b839 a 0 __crt_stdio_output::output_processor<wchar_t,__crt_stdio_output::string_output_adapter<wchar_t>,__crt_stdio_output::positional_parameter_base<wchar_t,__crt_stdio_output::string_output_adapter<wchar_t> > >::type_case_x()
FUNC 2b845 a 0 __crt_stdio_output::output_processor<wchar_t,__crt_stdio_output::string_output_adapter<wchar_t>,__crt_stdio_output::standard_base<wchar_t,__crt_stdio_output::string_output_adapter<wchar_t> > >::type_case_x()
FUNC 2b851 11 0 __crt_stdio_output::output_processor<char,__crt_stdio_output::stream_output_adapter<char>,__crt_stdio_output::format_validation_base<char,__crt_stdio_output::stream_output_adapter<char> > >::unset_flag(unsigned int)
FUNC 2b866 11 0 __crt_stdio_output::output_processor<char,__crt_stdio_output::stream_output_adapter<char>,__crt_stdio_output::positional_parameter_base<char,__crt_stdio_output::stream_output_adapter<char> > >::unset_flag(unsigned int)
FUNC 2b87b 11 0 __crt_stdio_output::output_processor<char,__crt_stdio_output::stream_output_adapter<char>,__crt_stdio_output::standard_base<char,__crt_stdio_output::stream_output_adapter<char> > >::unset_flag(unsigned int)
FUNC 2b890 11 0 __crt_stdio_output::output_processor<char,__crt_stdio_output::string_output_adapter<char>,__crt_stdio_output::format_validation_base<char,__crt_stdio_output::string_output_adapter<char> > >::unset_flag(unsigned int)
FUNC 2b8a5 11 0 __crt_stdio_output::output_processor<char,__crt_stdio_output::string_output_adapter<char>,__crt_stdio_output::positional_parameter_base<char,__crt_stdio_output::string_output_adapter<char> > >::unset_flag(unsigned int)
FUNC 2b8ba 11 0 __crt_stdio_output::output_processor<char,__crt_stdio_output::string_output_adapter<char>,__crt_stdio_output::standard_base<char,__crt_stdio_output::string_output_adapter<char> > >::unset_flag(unsigned int)
FUNC 2b8cf 11 0 __crt_stdio_output::output_processor<wchar_t,__crt_stdio_output::stream_output_adapter<wchar_t>,__crt_stdio_output::format_validation_base<wchar_t,__crt_stdio_output::stream_output_adapter<wchar_t> > >::unset_flag(unsigned int)
FUNC 2b8e4 11 0 __crt_stdio_output::output_processor<wchar_t,__crt_stdio_output::stream_output_adapter<wchar_t>,__crt_stdio_output::positional_parameter_base<wchar_t,__crt_stdio_output::stream_output_adapter<wchar_t> > >::unset_flag(unsigned int)
FUNC 2b8f9 11 0 __crt_stdio_output::output_processor<wchar_t,__crt_stdio_output::stream_output_adapter<wchar_t>,__crt_stdio_output::standard_base<wchar_t,__crt_stdio_output::stream_output_adapter<wchar_t> > >::unset_flag(unsigned int)
FUNC 2b90e 11 0 __crt_stdio_output::output_processor<wchar_t,__crt_stdio_output::string_output_adapter<wchar_t>,__crt_stdio_output::format_validation_base<wchar_t,__crt_stdio_output::string_output_adapter<wchar_t> > >::unset_flag(unsigned int)
FUNC 2b923 11 0 __crt_stdio_output::output_processor<wchar_t,__crt_stdio_output::string_output_adapter<wchar_t>,__crt_stdio_output::positional_parameter_base<wchar_t,__crt_stdio_output::string_output_adapter<wchar_t> > >::unset_flag(unsigned int)
FUNC 2b938 11 0 __crt_stdio_output::output_processor<wchar_t,__crt_stdio_output::string_output_adapter<wchar_t>,__crt_stdio_output::standard_base<wchar_t,__crt_stdio_output::string_output_adapter<wchar_t> > >::unset_flag(unsigned int)
FUNC 2b94d b4 0 __crt_stdio_output::positional_parameter_base<char,__crt_stdio_output::stream_output_adapter<char> >::update_field_width()
FUNC 2ba2e b4 0 __crt_stdio_output::positional_parameter_base<char,__crt_stdio_output::string_output_adapter<char> >::update_field_width()
FUNC 2bb0f b5 0 __crt_stdio_output::positional_parameter_base<wchar_t,__crt_stdio_output::stream_output_adapter<wchar_t> >::update_field_width()
FUNC 2bbf1 b5 0 __crt_stdio_output::positional_parameter_base<wchar_t,__crt_stdio_output::string_output_adapter<wchar_t> >::update_field_width()
FUNC 2bcd3 10 0 __crt_stdio_output::standard_base<char,__crt_stdio_output::stream_output_adapter<char> >::update_field_width()
FUNC 2bce7 10 0 __crt_stdio_output::standard_base<char,__crt_stdio_output::string_output_adapter<char> >::update_field_width()
FUNC 2bcfb 10 0 __crt_stdio_output::standard_base<wchar_t,__crt_stdio_output::stream_output_adapter<wchar_t> >::update_field_width()
FUNC 2bd0f 10 0 __crt_stdio_output::standard_base<wchar_t,__crt_stdio_output::string_output_adapter<wchar_t> >::update_field_width()
FUNC 2bd23 b4 0 __crt_stdio_output::positional_parameter_base<char,__crt_stdio_output::stream_output_adapter<char> >::update_precision()
FUNC 2be04 b4 0 __crt_stdio_output::positional_parameter_base<char,__crt_stdio_output::string_output_adapter<char> >::update_precision()
FUNC 2bee5 b5 0 __crt_stdio_output::positional_parameter_base<wchar_t,__crt_stdio_output::stream_output_adapter<wchar_t> >::update_precision()
FUNC 2bfc7 b5 0 __crt_stdio_output::positional_parameter_base<wchar_t,__crt_stdio_output::string_output_adapter<wchar_t> >::update_precision()
FUNC 2c0a9 10 0 __crt_stdio_output::standard_base<char,__crt_stdio_output::stream_output_adapter<char> >::update_precision()
FUNC 2c0bd 10 0 __crt_stdio_output::standard_base<char,__crt_stdio_output::string_output_adapter<char> >::update_precision()
FUNC 2c0d1 10 0 __crt_stdio_output::standard_base<wchar_t,__crt_stdio_output::stream_output_adapter<wchar_t> >::update_precision()
FUNC 2c0e5 10 0 __crt_stdio_output::standard_base<wchar_t,__crt_stdio_output::string_output_adapter<wchar_t> >::update_precision()
FUNC 2c0f9 7 0 __crt_stdio_stream::valid()
FUNC 2c100 21 0 __crt_stdio_output::stream_output_adapter<char>::validate()
FUNC 2c129 1b 0 __crt_stdio_output::stream_output_adapter<wchar_t>::validate()
FUNC 2c14a 1b 0 __crt_stdio_output::string_output_adapter<char>::validate()
FUNC 2c16b 1b 0 __crt_stdio_output::string_output_adapter<wchar_t>::validate()
FUNC 2c18c 4b 0 __crt_stdio_output::positional_parameter_base<char,__crt_stdio_output::stream_output_adapter<char> >::validate_and_store_parameter_data(__crt_stdio_output::positional_parameter_base<char,__crt_stdio_output::stream_output_adapter<char> >::parameter_data &,__crt_stdio_output::positional_parameter_base<char,__crt_stdio_output::stream_output_adapter<char> >::parameter_type,char,__crt_stdio_output::length_modifier)
FUNC 2c1e9 4b 0 __crt_stdio_output::positional_parameter_base<char,__crt_stdio_output::string_output_adapter<char> >::validate_and_store_parameter_data(__crt_stdio_output::positional_parameter_base<char,__crt_stdio_output::string_output_adapter<char> >::parameter_data &,__crt_stdio_output::positional_parameter_base<char,__crt_stdio_output::string_output_adapter<char> >::parameter_type,char,__crt_stdio_output::length_modifier)
FUNC 2c246 4d 0 __crt_stdio_output::positional_parameter_base<wchar_t,__crt_stdio_output::stream_output_adapter<wchar_t> >::validate_and_store_parameter_data(__crt_stdio_output::positional_parameter_base<wchar_t,__crt_stdio_output::stream_output_adapter<wchar_t> >::parameter_data &,__crt_stdio_output::positional_parameter_base<wchar_t,__crt_stdio_output::stream_output_adapter<wchar_t> >::parameter_type,wchar_t,__crt_stdio_output::length_modifier)
FUNC 2c2a6 4d 0 __crt_stdio_output::positional_parameter_base<wchar_t,__crt_stdio_output::string_output_adapter<wchar_t> >::validate_and_store_parameter_data(__crt_stdio_output::positional_parameter_base<wchar_t,__crt_stdio_output::string_output_adapter<wchar_t> >::parameter_data &,__crt_stdio_output::positional_parameter_base<wchar_t,__crt_stdio_output::string_output_adapter<wchar_t> >::parameter_type,wchar_t,__crt_stdio_output::length_modifier)
FUNC 2c306 f8 0 __crt_stdio_output::positional_parameter_base<char,__crt_stdio_output::stream_output_adapter<char> >::validate_and_update_state_at_beginning_of_format_character()
FUNC 2c43c f8 0 __crt_stdio_output::positional_parameter_base<char,__crt_stdio_output::string_output_adapter<char> >::validate_and_update_state_at_beginning_of_format_character()
FUNC 2c572 101 0 __crt_stdio_output::positional_parameter_base<wchar_t,__crt_stdio_output::stream_output_adapter<wchar_t> >::validate_and_update_state_at_beginning_of_format_character()
FUNC 2c6b3 101 0 __crt_stdio_output::positional_parameter_base<wchar_t,__crt_stdio_output::string_output_adapter<wchar_t> >::validate_and_update_state_at_beginning_of_format_character()
FUNC 2c7f4 3 0 __crt_stdio_output::standard_base<char,__crt_stdio_output::stream_output_adapter<char> >::validate_and_update_state_at_beginning_of_format_character()
FUNC 2c7f7 3 0 __crt_stdio_output::standard_base<char,__crt_stdio_output::string_output_adapter<char> >::validate_and_update_state_at_beginning_of_format_character()
FUNC 2c7fa 3 0 __crt_stdio_output::standard_base<wchar_t,__crt_stdio_output::stream_output_adapter<wchar_t> >::validate_and_update_state_at_beginning_of_format_character()
FUNC 2c7fd 3 0 __crt_stdio_output::standard_base<wchar_t,__crt_stdio_output::string_output_adapter<wchar_t> >::validate_and_update_state_at_beginning_of_format_character()
FUNC 2c800 22 0 __crt_stdio_output::format_validation_base<char,__crt_stdio_output::stream_output_adapter<char> >::validate_and_update_state_at_end_of_format_string()
FUNC 2c82a 22 0 __crt_stdio_output::format_validation_base<char,__crt_stdio_output::string_output_adapter<char> >::validate_and_update_state_at_end_of_format_string()
FUNC 2c854 22 0 __crt_stdio_output::format_validation_base<wchar_t,__crt_stdio_output::stream_output_adapter<wchar_t> >::validate_and_update_state_at_end_of_format_string()
FUNC 2c87e 22 0 __crt_stdio_output::format_validation_base<wchar_t,__crt_stdio_output::string_output_adapter<wchar_t> >::validate_and_update_state_at_end_of_format_string()
FUNC 2c8a8 90 0 __crt_stdio_output::positional_parameter_base<char,__crt_stdio_output::stream_output_adapter<char> >::validate_and_update_state_at_end_of_format_string()
FUNC 2c95c 90 0 __crt_stdio_output::positional_parameter_base<char,__crt_stdio_output::string_output_adapter<char> >::validate_and_update_state_at_end_of_format_string()
FUNC 2ca10 90 0 __crt_stdio_output::positional_parameter_base<wchar_t,__crt_stdio_output::stream_output_adapter<wchar_t> >::validate_and_update_state_at_end_of_format_string()
FUNC 2cac4 90 0 __crt_stdio_output::positional_parameter_base<wchar_t,__crt_stdio_output::string_output_adapter<wchar_t> >::validate_and_update_state_at_end_of_format_string()
FUNC 2cb78 3 0 __crt_stdio_output::standard_base<char,__crt_stdio_output::stream_output_adapter<char> >::validate_and_update_state_at_end_of_format_string()
FUNC 2cb7b 3 0 __crt_stdio_output::standard_base<char,__crt_stdio_output::string_output_adapter<char> >::validate_and_update_state_at_end_of_format_string()
FUNC 2cb7e 3 0 __crt_stdio_output::standard_base<wchar_t,__crt_stdio_output::stream_output_adapter<wchar_t> >::validate_and_update_state_at_end_of_format_string()
FUNC 2cb81 3 0 __crt_stdio_output::standard_base<wchar_t,__crt_stdio_output::string_output_adapter<wchar_t> >::validate_and_update_state_at_end_of_format_string()
FUNC 2cb84 4f 0 __crt_stdio_output::positional_parameter_base<char,__crt_stdio_output::stream_output_adapter<char> >::validate_state_for_type_case_a()
FUNC 2cbe6 4f 0 __crt_stdio_output::positional_parameter_base<char,__crt_stdio_output::string_output_adapter<char> >::validate_state_for_type_case_a()
FUNC 2cc48 4f 0 __crt_stdio_output::positional_parameter_base<wchar_t,__crt_stdio_output::stream_output_adapter<wchar_t> >::validate_state_for_type_case_a()
FUNC 2ccaa 4f 0 __crt_stdio_output::positional_parameter_base<wchar_t,__crt_stdio_output::string_output_adapter<wchar_t> >::validate_state_for_type_case_a()
FUNC 2cd0c 3 0 __crt_stdio_output::standard_base<char,__crt_stdio_output::stream_output_adapter<char> >::validate_state_for_type_case_a()
FUNC 2cd0f 3 0 __crt_stdio_output::standard_base<char,__crt_stdio_output::string_output_adapter<char> >::validate_state_for_type_case_a()
FUNC 2cd12 3 0 __crt_stdio_output::standard_base<wchar_t,__crt_stdio_output::stream_output_adapter<wchar_t> >::validate_state_for_type_case_a()
FUNC 2cd15 3 0 __crt_stdio_output::standard_base<wchar_t,__crt_stdio_output::string_output_adapter<wchar_t> >::validate_state_for_type_case_a()
FUNC 2cd18 87 0 __acrt_stdio_char_traits<char>::validate_stream_is_ansi_if_required(_iobuf * const)
FUNC 2cdc0 3 4 __acrt_stdio_char_traits<wchar_t>::validate_stream_is_ansi_if_required(_iobuf * const)
FUNC 2cdc3 6 0 __crt_stdio_output::output_processor<char,__crt_stdio_output::stream_output_adapter<char>,__crt_stdio_output::format_validation_base<char,__crt_stdio_output::stream_output_adapter<char> > >::wide_null_string()
FUNC 2cdc9 6 0 __crt_stdio_output::output_processor<char,__crt_stdio_output::stream_output_adapter<char>,__crt_stdio_output::positional_parameter_base<char,__crt_stdio_output::stream_output_adapter<char> > >::wide_null_string()
FUNC 2cdcf 6 0 __crt_stdio_output::output_processor<char,__crt_stdio_output::stream_output_adapter<char>,__crt_stdio_output::standard_base<char,__crt_stdio_output::stream_output_adapter<char> > >::wide_null_string()
FUNC 2cdd5 6 0 __crt_stdio_output::output_processor<char,__crt_stdio_output::string_output_adapter<char>,__crt_stdio_output::format_validation_base<char,__crt_stdio_output::string_output_adapter<char> > >::wide_null_string()
FUNC 2cddb 6 0 __crt_stdio_output::output_processor<char,__crt_stdio_output::string_output_adapter<char>,__crt_stdio_output::positional_parameter_base<char,__crt_stdio_output::string_output_adapter<char> > >::wide_null_string()
FUNC 2cde1 6 0 __crt_stdio_output::output_processor<char,__crt_stdio_output::string_output_adapter<char>,__crt_stdio_output::standard_base<char,__crt_stdio_output::string_output_adapter<char> > >::wide_null_string()
FUNC 2cde7 6 0 __crt_stdio_output::output_processor<wchar_t,__crt_stdio_output::stream_output_adapter<wchar_t>,__crt_stdio_output::format_validation_base<wchar_t,__crt_stdio_output::stream_output_adapter<wchar_t> > >::wide_null_string()
FUNC 2cded 6 0 __crt_stdio_output::output_processor<wchar_t,__crt_stdio_output::stream_output_adapter<wchar_t>,__crt_stdio_output::positional_parameter_base<wchar_t,__crt_stdio_output::stream_output_adapter<wchar_t> > >::wide_null_string()
FUNC 2cdf3 6 0 __crt_stdio_output::output_processor<wchar_t,__crt_stdio_output::stream_output_adapter<wchar_t>,__crt_stdio_output::standard_base<wchar_t,__crt_stdio_output::stream_output_adapter<wchar_t> > >::wide_null_string()
FUNC 2cdf9 6 0 __crt_stdio_output::output_processor<wchar_t,__crt_stdio_output::string_output_adapter<wchar_t>,__crt_stdio_output::format_validation_base<wchar_t,__crt_stdio_output::string_output_adapter<wchar_t> > >::wide_null_string()
FUNC 2cdff 6 0 __crt_stdio_output::output_processor<wchar_t,__crt_stdio_output::string_output_adapter<wchar_t>,__crt_stdio_output::positional_parameter_base<wchar_t,__crt_stdio_output::string_output_adapter<wchar_t> > >::wide_null_string()
FUNC 2ce05 6 0 __crt_stdio_output::output_processor<wchar_t,__crt_stdio_output::string_output_adapter<wchar_t>,__crt_stdio_output::standard_base<wchar_t,__crt_stdio_output::string_output_adapter<wchar_t> > >::wide_null_string()
FUNC 2ce0b 1f 0 __crt_stdio_output::output_adapter_common<char,__crt_stdio_output::stream_output_adapter<char> >::write_character(char,int * const)
FUNC 2ce31 1f 0 __crt_stdio_output::output_adapter_common<wchar_t,__crt_stdio_output::stream_output_adapter<wchar_t> >::write_character(wchar_t,int * const)
FUNC 2ce57 42 0 __crt_stdio_output::string_output_adapter<char>::write_character(char,int * const)
FUNC 2cea9 45 0 __crt_stdio_output::string_output_adapter<wchar_t>::write_character(wchar_t,int * const)
FUNC 2ceff 36 0 __crt_stdio_output::stream_output_adapter<char>::write_character_without_count_update(char)
FUNC 2cf42 39 0 __crt_stdio_output::stream_output_adapter<wchar_t>::write_character_without_count_update(wchar_t)
FUNC 2cf89 a7 0 __crt_stdio_output::output_processor<char,__crt_stdio_output::stream_output_adapter<char>,__crt_stdio_output::format_validation_base<char,__crt_stdio_output::stream_output_adapter<char> > >::write_stored_string_tchar(char)
FUNC 2d059 a7 0 __crt_stdio_output::output_processor<char,__crt_stdio_output::stream_output_adapter<char>,__crt_stdio_output::positional_parameter_base<char,__crt_stdio_output::stream_output_adapter<char> > >::write_stored_string_tchar(char)
FUNC 2d129 a7 0 __crt_stdio_output::output_processor<char,__crt_stdio_output::stream_output_adapter<char>,__crt_stdio_output::standard_base<char,__crt_stdio_output::stream_output_adapter<char> > >::write_stored_string_tchar(char)
FUNC 2d1f9 a7 0 __crt_stdio_output::output_processor<char,__crt_stdio_output::string_output_adapter<char>,__crt_stdio_output::format_validation_base<char,__crt_stdio_output::string_output_adapter<char> > >::write_stored_string_tchar(char)
FUNC 2d2c9 a7 0 __crt_stdio_output::output_processor<char,__crt_stdio_output::string_output_adapter<char>,__crt_stdio_output::positional_parameter_base<char,__crt_stdio_output::string_output_adapter<char> > >::write_stored_string_tchar(char)
FUNC 2d399 a7 0 __crt_stdio_output::output_processor<char,__crt_stdio_output::string_output_adapter<char>,__crt_stdio_output::standard_base<char,__crt_stdio_output::string_output_adapter<char> > >::write_stored_string_tchar(char)
FUNC 2d469 93 0 __crt_stdio_output::output_processor<wchar_t,__crt_stdio_output::stream_output_adapter<wchar_t>,__crt_stdio_output::format_validation_base<wchar_t,__crt_stdio_output::stream_output_adapter<wchar_t> > >::write_stored_string_tchar(wchar_t)
FUNC 2d520 93 0 __crt_stdio_output::output_processor<wchar_t,__crt_stdio_output::stream_output_adapter<wchar_t>,__crt_stdio_output::positional_parameter_base<wchar_t,__crt_stdio_output::stream_output_adapter<wchar_t> > >::write_stored_string_tchar(wchar_t)
FUNC 2d5d7 93 0 __crt_stdio_output::output_processor<wchar_t,__crt_stdio_output::stream_output_adapter<wchar_t>,__crt_stdio_output::standard_base<wchar_t,__crt_stdio_output::stream_output_adapter<wchar_t> > >::write_stored_string_tchar(wchar_t)
FUNC 2d68e 93 0 __crt_stdio_output::output_processor<wchar_t,__crt_stdio_output::string_output_adapter<wchar_t>,__crt_stdio_output::format_validation_base<wchar_t,__crt_stdio_output::string_output_adapter<wchar_t> > >::write_stored_string_tchar(wchar_t)
FUNC 2d745 93 0 __crt_stdio_output::output_processor<wchar_t,__crt_stdio_output::string_output_adapter<wchar_t>,__crt_stdio_output::positional_parameter_base<wchar_t,__crt_stdio_output::string_output_adapter<wchar_t> > >::write_stored_string_tchar(wchar_t)
FUNC 2d7fc 93 0 __crt_stdio_output::output_processor<wchar_t,__crt_stdio_output::string_output_adapter<wchar_t>,__crt_stdio_output::standard_base<wchar_t,__crt_stdio_output::string_output_adapter<wchar_t> > >::write_stored_string_tchar(wchar_t)
FUNC 2d8b3 2c 0 __crt_stdio_output::stream_output_adapter<char>::write_string(char const * const,int,int * const,__crt_deferred_errno_cache &)
FUNC 2d8ea 2c 0 __crt_stdio_output::stream_output_adapter<wchar_t>::write_string(wchar_t const * const,int,int * const,__crt_deferred_errno_cache &)
FUNC 2d921 67 0 __crt_stdio_output::string_output_adapter<char>::write_string(char const * const,int,int * const,__crt_deferred_errno_cache &)
FUNC 2d9a1 71 0 __crt_stdio_output::string_output_adapter<wchar_t>::write_string(wchar_t const * const,int,int * const,__crt_deferred_errno_cache &)
FUNC 2da2e 9e 0 __crt_stdio_output::output_adapter_common<char,__crt_stdio_output::stream_output_adapter<char> >::write_string_impl(char const * const,int,int * const,__crt_deferred_errno_cache &)
FUNC 2daf3 a1 0 __crt_stdio_output::output_adapter_common<wchar_t,__crt_stdio_output::stream_output_adapter<wchar_t> >::write_string_impl(wchar_t const * const,int,int * const,__crt_deferred_errno_cache &)
FUNC 2dbbc 1e 0 __acrt_isleadbyte_l_noupdate
FUNC 2dbe1 b 0 __acrt_locale_changed
FUNC 2dbee 22 0 __acrt_locale_get_ctype_array_value
FUNC 2dc18 83 0 __stdio_common_vfprintf
FUNC 2dcbb 83 0 __stdio_common_vfprintf_p
FUNC 2dd5e 83 0 __stdio_common_vfprintf_s
FUNC 2de01 83 0 __stdio_common_vfwprintf
FUNC 2dea4 83 0 __stdio_common_vfwprintf_p
FUNC 2df47 83 0 __stdio_common_vfwprintf_s
FUNC 2dfea 27 0 __stdio_common_vsnprintf_s
FUNC 2e01a 27 0 __stdio_common_vsnwprintf_s
FUNC 2e04a 24 0 __stdio_common_vsprintf
FUNC 2e077 24 0 __stdio_common_vsprintf_p
FUNC 2e0a4 24 0 __stdio_common_vsprintf_s
FUNC 2e0d1 24 0 __stdio_common_vswprintf
FUNC 2e0fe 24 0 __stdio_common_vswprintf_p
FUNC 2e12b 24 0 __stdio_common_vswprintf_s
FUNC 2e158 1a 0 _ctype_fast_check_internal
FUNC 2e178 1a 0 _isdigit_fast_internal
FUNC 2e198 19 0 _tolower_fast_internal
FUNC 2e1b7 31 0 __crt_strtox::is_overflow_condition<unsigned long>(unsigned int,unsigned long)
FUNC 2e1f4 41 0 __crt_strtox::is_overflow_condition<unsigned __int64>(unsigned int,unsigned __int64)
FUNC 2e245 1b 0 __crt_strtox::make_c_string_character_source<char,std::nullptr_t>(char const * const,std::nullptr_t)
FUNC 2e266 1b 0 __crt_strtox::make_c_string_character_source<wchar_t,std::nullptr_t>(wchar_t const * const,std::nullptr_t)
FUNC 2e287 225 0 __crt_strtox::parse_integer<unsigned long,__crt_strtox::c_string_character_source<char> >(__crt_locale_pointers * const,__crt_strtox::c_string_character_source<char>,int,bool)
FUNC 2e535 608 0 __crt_strtox::parse_integer<unsigned long,__crt_strtox::c_string_character_source<wchar_t> >(__crt_locale_pointers * const,__crt_strtox::c_string_character_source<wchar_t>,int,bool)
FUNC 2ecbf 2a6 0 __crt_strtox::parse_integer<unsigned __int64,__crt_strtox::c_string_character_source<char> >(__crt_locale_pointers * const,__crt_strtox::c_string_character_source<char>,int,bool)
FUNC 2f00e 6d1 0 __crt_strtox::parse_integer<unsigned __int64,__crt_strtox::c_string_character_source<wchar_t> >(__crt_locale_pointers * const,__crt_strtox::c_string_character_source<wchar_t>,int,bool)
FUNC 2f893 2b 0 __crt_strtox::parse_integer_from_string<long,char,std::nullptr_t>(char const * const,std::nullptr_t,int,__crt_locale_pointers * const)
FUNC 2f8c8 2b 0 __crt_strtox::parse_integer_from_string<long,wchar_t,std::nullptr_t>(wchar_t const * const,std::nullptr_t,int,__crt_locale_pointers * const)
FUNC 2f8fd 2b 0 __crt_strtox::parse_integer_from_string<__int64,char,std::nullptr_t>(char const * const,std::nullptr_t,int,__crt_locale_pointers * const)
FUNC 2f932 2b 0 __crt_strtox::parse_integer_from_string<__int64,wchar_t,std::nullptr_t>(wchar_t const * const,std::nullptr_t,int,__crt_locale_pointers * const)
FUNC 2f967 1c 0 __crt_strtox::c_string_character_source<char>::c_string_character_source<char>(char const * const,char const * * const)
FUNC 2f98a 1c 0 __crt_strtox::c_string_character_source<wchar_t>::c_string_character_source<wchar_t>(wchar_t const * const,wchar_t const * * const)
FUNC 2f9ad c 0 __crt_strtox::c_string_character_source<char>::~c_string_character_source<char>()
FUNC 2f9bc c 0 __crt_strtox::c_string_character_source<wchar_t>::~c_string_character_source<wchar_t>()
FUNC 2f9cb 8 0 __crt_strtox::c_string_character_source<char>::get()
FUNC 2f9d5 b 0 __crt_strtox::c_string_character_source<wchar_t>::get()
FUNC 2f9e2 1e 0 __crt_strtox::is_space(char,__crt_locale_pointers * const)
FUNC 2fa07 18 0 __crt_strtox::is_space(wchar_t,__crt_locale_pointers *)
FUNC 2fa25 6 4 __crt_strtox::maximum_signed_value(unsigned long)
FUNC 2fa2b 9 8 __crt_strtox::maximum_signed_value(unsigned __int64)
FUNC 2fa36 6 4 __crt_strtox::minimum_signed_value(unsigned long)
FUNC 2fa3c 8 8 __crt_strtox::minimum_signed_value(unsigned __int64)
FUNC 2fa46 3a 0 __crt_strtox::parse_digit(char)
FUNC 2fa8e 1df 0 __crt_strtox::parse_digit(wchar_t)
FUNC 2fce4 10 0 __crt_strtox::c_string_character_source<char>::restore_state(char const * const)
FUNC 2fcf8 10 0 __crt_strtox::c_string_character_source<wchar_t>::restore_state(wchar_t const * const)
FUNC 2fd0c 3 0 __crt_strtox::c_string_character_source<char>::save_state()
FUNC 2fd0f 3 0 __crt_strtox::c_string_character_source<wchar_t>::save_state()
FUNC 2fd12 29 0 __crt_strtox::c_string_character_source<char>::unget(char)
FUNC 2fd45 2e 0 __crt_strtox::c_string_character_source<wchar_t>::unget(wchar_t)
FUNC 2fd7e 1b 0 __crt_strtox::c_string_character_source<char>::validate()
FUNC 2fd9f 1b 0 __crt_strtox::c_string_character_source<wchar_t>::validate()
FUNC 2fdc0 1a1 0 __crt_strtox::wide_character_to_digit(wchar_t)
FUNC 2ffc9 c 0 __acrt_get_locale_data_prefix
FUNC 2ffd8 23 0 __ascii_iswalpha
FUNC 30003 17 0 __ascii_toupper
FUNC 3001f 17 0 __ascii_towupper
FUNC 3003b 23 0 _atoi64
FUNC 30066 24 0 _atoi64_l
FUNC 30093 24 0 _atoi_l
FUNC 300c0 24 0 _atol_l
FUNC 300ed 24 0 _atoll_l
FUNC 3011a 28 0 _chvalidchk_l
FUNC 3014c 54 0 _ischartype_l
FUNC 301b5 23 0 _wtoi
FUNC 301e0 23 0 _wtoi64
FUNC 3020b 24 0 _wtoi64_l
FUNC 30238 24 0 _wtoi_l
FUNC 30265 23 0 _wtol
FUNC 30290 24 0 _wtol_l
FUNC 302bd 23 0 _wtoll
FUNC 302e8 24 0 _wtoll_l
FUNC 30315 23 0 atoi
FUNC 30340 23 0 atol
FUNC 3036b 23 0 atoll
FUNC 303a0 78 0 strncmp
FUNC 30436 21 0 _set_abort_behavior
FUNC 3045f 44 0 abort
FUNC 304b4 b 0 calloc
FUNC 304c1 3a 0 wcsncmp
FUNC 30509 12 0 __crt_internal_free_policy::operator()<__acrt_ptd>(__acrt_ptd const * const)
FUNC 3051f 52 0 __crt_seh_guarded_call<void>::operator()<<lambda_15ade71b0218206bbe3333a0c9b79046>,<lambda_da44e0f8b0f19ba52fefafb335991732> &,<lambda_207f2d024fc103971653565357d6cd41> >
FUNC 30585 6b 0 __crt_seh_guarded_call<void>::operator()<<lambda_38edbb1296d33220d7e4dd0ed76b244a>,<lambda_5ce1d447e08cb34b2473517608e21441> &,<lambda_fb385d3da700c9147fc39e65dd577a8c> >
FUNC 3060a 55 0 __crt_seh_guarded_call<void>::operator()<<lambda_6affb1475c98b40b75cdec977db92e3c>,<lambda_b8d4b9c228a6ecc3f80208dbb4b4a104> &,<lambda_608742c3c92a14382c1684fc64f96c88> >
FUNC 30674 5a 0 __crt_seh_guarded_call<void>::operator()<<lambda_a7e850c220f1c8d1e6efeecdedd162c6>,<lambda_46720907175c18b6c9d2717bc0d2d362> &,<lambda_9048902d66e8d99359bc9897bbb930a8> >
FUNC 306e4 26 0 __acrt_lock_and_call<<lambda_46720907175c18b6c9d2717bc0d2d362> >
FUNC 30713 26 0 __acrt_lock_and_call<<lambda_5ce1d447e08cb34b2473517608e21441> >
FUNC 30742 26 0 __acrt_lock_and_call<<lambda_b8d4b9c228a6ecc3f80208dbb4b4a104> >
FUNC 30771 26 0 __acrt_lock_and_call<<lambda_da44e0f8b0f19ba52fefafb335991732> >
FUNC 307a0 12 0 <lambda_15ade71b0218206bbe3333a0c9b79046>::<lambda_15ade71b0218206bbe3333a0c9b79046>
FUNC 307b6 12 0 <lambda_207f2d024fc103971653565357d6cd41>::<lambda_207f2d024fc103971653565357d6cd41>
FUNC 307cc 12 0 <lambda_38edbb1296d33220d7e4dd0ed76b244a>::<lambda_38edbb1296d33220d7e4dd0ed76b244a>
FUNC 307e2 16 0 <lambda_46720907175c18b6c9d2717bc0d2d362>::<lambda_46720907175c18b6c9d2717bc0d2d362>
FUNC 307fd 10 0 <lambda_5ce1d447e08cb34b2473517608e21441>::<lambda_5ce1d447e08cb34b2473517608e21441>
FUNC 30811 12 0 <lambda_608742c3c92a14382c1684fc64f96c88>::<lambda_608742c3c92a14382c1684fc64f96c88>
FUNC 30827 12 0 <lambda_6affb1475c98b40b75cdec977db92e3c>::<lambda_6affb1475c98b40b75cdec977db92e3c>
FUNC 3083d 12 0 <lambda_9048902d66e8d99359bc9897bbb930a8>::<lambda_9048902d66e8d99359bc9897bbb930a8>
FUNC 30853 12 0 <lambda_a7e850c220f1c8d1e6efeecdedd162c6>::<lambda_a7e850c220f1c8d1e6efeecdedd162c6>
FUNC 30869 10 0 <lambda_b8d4b9c228a6ecc3f80208dbb4b4a104>::<lambda_b8d4b9c228a6ecc3f80208dbb4b4a104>
FUNC 3087d 10 0 <lambda_da44e0f8b0f19ba52fefafb335991732>::<lambda_da44e0f8b0f19ba52fefafb335991732>
FUNC 30891 12 0 <lambda_fb385d3da700c9147fc39e65dd577a8c>::<lambda_fb385d3da700c9147fc39e65dd577a8c>
FUNC 308a7 10 0 __crt_unique_heap_ptr<__acrt_ptd,__crt_internal_free_policy>::__crt_unique_heap_ptr<__acrt_ptd,__crt_internal_free_policy>(__acrt_ptd * const)
FUNC 308bb 11 0 __crt_scoped_get_last_error_reset::__crt_scoped_get_last_error_reset()
FUNC 308d0 12 0 __crt_unique_heap_ptr<__acrt_ptd,__crt_internal_free_policy>::~__crt_unique_heap_ptr<__acrt_ptd,__crt_internal_free_policy>()
FUNC 308e6 9 0 __crt_scoped_get_last_error_reset::~__crt_scoped_get_last_error_reset()
FUNC 308f1 7 0 __crt_unique_heap_ptr<__acrt_ptd,__crt_internal_free_policy>::operator bool()
FUNC 308f8 9 0 <lambda_15ade71b0218206bbe3333a0c9b79046>::operator()
FUNC 30903 9 0 <lambda_207f2d024fc103971653565357d6cd41>::operator()
FUNC 3090e 9 0 <lambda_38edbb1296d33220d7e4dd0ed76b244a>::operator()
FUNC 30919 13 0 <lambda_46720907175c18b6c9d2717bc0d2d362>::operator()
FUNC 30930 24 0 <lambda_5ce1d447e08cb34b2473517608e21441>::operator()
FUNC 3095d 9 0 <lambda_608742c3c92a14382c1684fc64f96c88>::operator()
FUNC 30968 9 0 <lambda_6affb1475c98b40b75cdec977db92e3c>::operator()
FUNC 30973 9 0 <lambda_9048902d66e8d99359bc9897bbb930a8>::operator()
FUNC 3097e 9 0 <lambda_a7e850c220f1c8d1e6efeecdedd162c6>::operator()
FUNC 30989 e 0 <lambda_b8d4b9c228a6ecc3f80208dbb4b4a104>::operator()
FUNC 3099a b 0 <lambda_da44e0f8b0f19ba52fefafb335991732>::operator()
FUNC 309a7 9 0 <lambda_fb385d3da700c9147fc39e65dd577a8c>::operator()
FUNC 309b2 99 0 construct_ptd
FUNC 30a71 16 0 construct_ptd_array
FUNC 30a8c 3 0 __crt_state_management::dual_state_global<__crt_locale_data *>::dangerous_get_state_array()
FUNC 30a8f 21 0 destroy_fls
FUNC 30ab8 cd 0 destroy_ptd
FUNC 30bb8 5 0 destroy_ptd_array
FUNC 30bbd 6 0 __crt_unique_heap_ptr<__acrt_ptd,__crt_internal_free_policy>::detach()
FUNC 30bc3 3 0 __crt_unique_heap_ptr<__acrt_ptd,__crt_internal_free_policy>::get()
FUNC 30bc6 3 4 __crt_state_management::get_current_state_index(__crt_scoped_get_last_error_reset const &)
FUNC 30bc9 81 0 internal_get_ptd_head
FUNC 30c6a b1 0 internal_getptd_noexit
FUNC 30d47 7 0 __crt_unique_heap_ptr<__acrt_ptd,__crt_internal_free_policy>::is_valid()
FUNC 30d4e 12 0 __crt_unique_heap_ptr<__acrt_ptd,__crt_internal_free_policy>::release()
FUNC 30d64 4b 0 replace_current_thread_locale_nolock
FUNC 30dc1 17 0 try_get_ptd_head
FUNC 30ddd 3 0 __crt_state_management::dual_state_global<__crt_locale_data *>::value()
FUNC 30de0 2c 0 __acrt_freeptd
FUNC 30e17 bd 0 __acrt_getptd
FUNC 30f03 9a 0 __acrt_getptd_head
FUNC 30fc3 b5 0 __acrt_getptd_noexit
FUNC 310a5 2c 0 __acrt_initialize_ptd
FUNC 310dc 1a 4 __acrt_uninitialize_ptd
FUNC 310fc 6 0 __threadhandle
FUNC 31102 6 0 __threadid
FUNC 31108 6 4 select_heap
FUNC 3110e 3a 0 _free_base
FUNC 31156 41 0 __acrt_initialize_locks
FUNC 311a7 17 0 __acrt_lock
FUNC 311c3 31 4 __acrt_uninitialize_locks
FUNC 31200 17 0 __acrt_unlock
FUNC 3121c e 0 _lock_locales
FUNC 3122d 9 0 _unlock_locales
FUNC 31238 43 0 get_cached_win_policy<`__acrt_get_begin_thread_init_policy'::`2'::begin_thread_init_policy_properties>
FUNC 3128b 43 0 get_cached_win_policy<`__acrt_get_developer_information_policy'::`2'::developer_information_policy_properties>
FUNC 312de 5b 0 get_cached_win_policy<`__acrt_get_windowing_model_policy'::`2'::windowing_model_policy_properties>
FUNC 3134f 2f 0 get_win_policy<`__acrt_get_process_end_policy'::`2'::process_end_policy_properties>
FUNC 31389 f 0 `__acrt_get_begin_thread_init_policy'::`2'::begin_thread_init_policy_properties::appmodel_get_policy
FUNC 3139b f 0 `__acrt_get_developer_information_policy'::`2'::developer_information_policy_properties::appmodel_get_policy
FUNC 313ad f 0 `__acrt_get_process_end_policy'::`2'::process_end_policy_properties::appmodel_get_policy
FUNC 313bf f 0 `__acrt_get_windowing_model_policy'::`2'::windowing_model_policy_properties::appmodel_get_policy
FUNC 313d1 11 0 `__acrt_get_begin_thread_init_policy'::`2'::begin_thread_init_policy_properties::appmodel_policy_to_policy_type
FUNC 313e6 11 0 `__acrt_get_developer_information_policy'::`2'::developer_information_policy_properties::appmodel_policy_to_policy_type
FUNC 313fb 10 0 `__acrt_get_process_end_policy'::`2'::process_end_policy_properties::appmodel_policy_to_policy_type
FUNC 3140f 29 0 `__acrt_get_windowing_model_policy'::`2'::windowing_model_policy_properties::appmodel_policy_to_policy_type
FUNC 31442 44 0 __acrt_get_begin_thread_init_policy
FUNC 31497 44 0 __acrt_get_developer_information_policy
FUNC 314ec 31 0 __acrt_get_process_end_policy
FUNC 31529 5c 0 __acrt_get_windowing_model_policy
FUNC 3159c 43 0 __acrt_errno_from_os_error
FUNC 315ef 23 0 __acrt_errno_map_os_error
FUNC 3161a 13 0 __doserrno
FUNC 31631 13 0 _errno
FUNC 31648 25 0 _get_doserrno
FUNC 31676 25 0 _get_errno
FUNC 316a4 21 0 _set_doserrno
FUNC 316cd 21 0 _set_errno
FUNC 316f6 5d 0 _calloc_base
FUNC 3176a 18 0 <lambda_838c7f62c73c983481e27c09e84b0b5d>::<lambda_invoker_cdecl>
FUNC 31788 18 0 <lambda_d388dc2bcbe6079ffc891eec49d9b3b2>::<lambda_invoker_cdecl>
FUNC 317a6 b2 0 __acrt_convert_wcs_mbs_cp<char,wchar_t,<lambda_62f6974d9771e494a5ea317cc32e971c>,__crt_win32_buffer_internal_dynamic_resizing>
FUNC 31884 cf 0 __acrt_convert_wcs_mbs_cp<wchar_t,char,<lambda_28bda7af82a03b66c1cb3803a755f95d>,__crt_win32_buffer_internal_dynamic_resizing>
FUNC 31986 1d 0 __acrt_mbs_to_wcs_cp<__crt_win32_buffer_internal_dynamic_resizing>(char const * const,__crt_win32_buffer<wchar_t,__crt_win32_buffer_internal_dynamic_resizing> &,unsigned int)
FUNC 319aa 1d 0 __acrt_wcs_to_mbs_cp<__crt_win32_buffer_internal_dynamic_resizing>(wchar_t const * const,__crt_win32_buffer<char,__crt_win32_buffer_internal_dynamic_resizing> &,unsigned int)
FUNC 319ce 1ef 0 common_expand_argv_wildcards<char>
FUNC 31c38 228 0 common_expand_argv_wildcards<wchar_t>
FUNC 31eea b1 0 copy_and_add_argument_to_buffer<char>
FUNC 31fc7 b4 0 copy_and_add_argument_to_buffer<wchar_t>
FUNC 320a8 257 0 expand_argument_wildcards<char>
FUNC 32394 172 0 expand_argument_wildcards<wchar_t>
FUNC 32562 18 0 __crt_char_traits<char>::tcslen<char const * const &>(char const * const &)
FUNC 32580 1e 0 __crt_char_traits<wchar_t>::tcslen<wchar_t const * const &>(wchar_t const * const &)
FUNC 325a5 23 0 __crt_char_traits<char>::tcsncpy_s<char * &,unsigned int,char * &,unsigned int const &>(char * &,unsigned int &&,char * &,unsigned int const &)
FUNC 325d0 23 0 __crt_char_traits<wchar_t>::tcsncpy_s<wchar_t * &,unsigned int,wchar_t * &,unsigned int const &>(wchar_t * &,unsigned int &&,wchar_t * &,unsigned int const &)
FUNC 325fb 23 0 __crt_char_traits<char>::tcsncpy_s<char *,unsigned int const &,char const * const &,unsigned int const &>(char * &&,unsigned int const &,char const * const &,unsigned int const &)
FUNC 32626 23 0 __crt_char_traits<char>::tcsncpy_s<char *,unsigned int,char const * const &,unsigned int const &>(char * &&,unsigned int &&,char const * const &,unsigned int const &)
FUNC 32651 23 0 __crt_char_traits<wchar_t>::tcsncpy_s<wchar_t *,unsigned int const &,wchar_t const * const &,unsigned int const &>(wchar_t * &&,unsigned int const &,wchar_t const * const &,unsigned int const &)
FUNC 3267c 23 0 __crt_char_traits<wchar_t>::tcsncpy_s<wchar_t *,unsigned int,wchar_t const * const &,unsigned int const &>(wchar_t * &&,unsigned int &&,wchar_t const * const &,unsigned int const &)
FUNC 326a7 16 0 __crt_char_traits<char>::tcspbrk<char * &,char const (&)[3]>(char * &,char const (&)[3])
FUNC 326c2 16 0 __crt_char_traits<wchar_t>::tcspbrk<wchar_t * &,wchar_t const (&)[3]>(wchar_t * &,wchar_t const (&)[3])
FUNC 326dd 10 0 __crt_unique_handle_t<__crt_findfile_traits>::__crt_unique_handle_t<__crt_findfile_traits>(void * const)
FUNC 326f1 16 0 __crt_win32_buffer<char,__crt_win32_buffer_internal_dynamic_resizing>::__crt_win32_buffer<char,__crt_win32_buffer_internal_dynamic_resizing>()
FUNC 3270c 16 0 __crt_win32_buffer<wchar_t,__crt_win32_buffer_internal_dynamic_resizing>::__crt_win32_buffer<wchar_t,__crt_win32_buffer_internal_dynamic_resizing>()
FUNC 32727 d 0 `anonymous namespace'::argument_list<char>::argument_list<char>
FUNC 32737 d 0 `anonymous namespace'::argument_list<wchar_t>::argument_list<wchar_t>
FUNC 32747 17 0 __crt_unique_handle_t<__crt_findfile_traits>::~__crt_unique_handle_t<__crt_findfile_traits>()
FUNC 32763 5 0 __crt_win32_buffer<char,__crt_win32_buffer_internal_dynamic_resizing>::~__crt_win32_buffer<char,__crt_win32_buffer_internal_dynamic_resizing>()
FUNC 32768 5 0 __crt_win32_buffer<wchar_t,__crt_win32_buffer_internal_dynamic_resizing>::~__crt_win32_buffer<wchar_t,__crt_win32_buffer_internal_dynamic_resizing>()
FUNC 3276d 29 0 `anonymous namespace'::argument_list<char>::~argument_list<char>
FUNC 327a0 29 0 `anonymous namespace'::argument_list<wchar_t>::~argument_list<wchar_t>
FUNC 327d3 6 0 <lambda_838c7f62c73c983481e27c09e84b0b5d>::operator int (__cdecl*)(void const *,void const *)
FUNC 327d9 6 0 <lambda_d388dc2bcbe6079ffc891eec49d9b3b2>::operator int (__cdecl*)(void const *,void const *)
FUNC 327df 24 0 <lambda_28bda7af82a03b66c1cb3803a755f95d>::operator()
FUNC 3280c 1e 0 <lambda_594f614a8947934b886943aa86a6498d>::operator()
FUNC 32831 21 0 <lambda_62f6974d9771e494a5ea317cc32e971c>::operator()
FUNC 3285a 1a 0 <lambda_838c7f62c73c983481e27c09e84b0b5d>::operator()
FUNC 3287a 1a 0 <lambda_d388dc2bcbe6079ffc891eec49d9b3b2>::operator()
FUNC 3289a 24 0 <lambda_d734a73e0f649ebd9d9b0eca0b8ca86a>::operator()
FUNC 328c7 3f 0 __acrt_get_utf8_acp_compatibility_codepage()
FUNC 32915 1a 0 __crt_win32_buffer<char,__crt_win32_buffer_internal_dynamic_resizing>::_deallocate()
FUNC 32935 1a 0 __crt_win32_buffer<wchar_t,__crt_win32_buffer_internal_dynamic_resizing>::_deallocate()
FUNC 32955 3c 0 __crt_win32_buffer<char,__crt_win32_buffer_internal_dynamic_resizing>::allocate(unsigned int)
FUNC 329a0 3f 0 __crt_win32_buffer<wchar_t,__crt_win32_buffer_internal_dynamic_resizing>::allocate(unsigned int)
FUNC 329ee 1f 0 __crt_win32_buffer_internal_dynamic_resizing::allocate(void * * const,unsigned int,__crt_win32_buffer_empty_debug_info const &)
FUNC 32a14 35 0 `anonymous namespace'::argument_list<char>::append
FUNC 32a56 35 0 `anonymous namespace'::argument_list<wchar_t>::append
FUNC 32a98 3 0 `anonymous namespace'::argument_list<char>::begin
FUNC 32a9b 3 0 `anonymous namespace'::argument_list<wchar_t>::begin
FUNC 32a9e 4 0 __crt_win32_buffer<char,__crt_win32_buffer_internal_dynamic_resizing>::capacity()
FUNC 32aa2 4 0 __crt_win32_buffer<wchar_t,__crt_win32_buffer_internal_dynamic_resizing>::capacity()
FUNC 32aa6 17 0 __crt_unique_handle_t<__crt_findfile_traits>::close()
FUNC 32ac2 15 0 __crt_findfile_traits::close(void *)
FUNC 32adc 4 0 __crt_win32_buffer<char,__crt_win32_buffer_internal_dynamic_resizing>::data()
FUNC 32ae0 4 0 __crt_win32_buffer<wchar_t,__crt_win32_buffer_internal_dynamic_resizing>::data()
FUNC 32ae4 10 0 __crt_win32_buffer_internal_dynamic_resizing::deallocate(void * const,__crt_win32_buffer_empty_debug_info const &)
FUNC 32af8 3 0 __crt_win32_buffer<char,__crt_win32_buffer_internal_dynamic_resizing>::debug_info()
FUNC 32afb 3 0 __crt_win32_buffer<wchar_t,__crt_win32_buffer_internal_dynamic_resizing>::debug_info()
FUNC 32afe 4 0 `anonymous namespace'::argument_list<char>::end
FUNC 32b02 4 0 `anonymous namespace'::argument_list<wchar_t>::end
FUNC 32b06 87 0 `anonymous namespace'::argument_list<char>::expand_if_necessary
FUNC 32bae 87 0 `anonymous namespace'::argument_list<wchar_t>::expand_if_necessary
FUNC 32c56 3 0 __crt_unique_handle_t<__crt_findfile_traits>::get()
FUNC 32c59 29 0 get_file_name
FUNC 32c8c a 0 get_file_name
FUNC 32c98 4 0 __crt_findfile_traits::get_invalid_value()
FUNC 32c9c a 0 get_wide
FUNC 32ca8 29 0 get_wide
FUNC 32cdb b 0 previous_character
FUNC 32ce8 d 0 previous_character
FUNC 32cf8 17 0 __crt_win32_buffer<char,__crt_win32_buffer_internal_dynamic_resizing>::set_to_nullptr()
FUNC 32d14 17 0 __crt_win32_buffer<wchar_t,__crt_win32_buffer_internal_dynamic_resizing>::set_to_nullptr()
FUNC 32d30 f 0 __crt_win32_buffer<char,__crt_win32_buffer_internal_dynamic_resizing>::size(unsigned int)
FUNC 32d42 f 0 __crt_win32_buffer<wchar_t,__crt_win32_buffer_internal_dynamic_resizing>::size(unsigned int)
FUNC 32d54 9 0 `anonymous namespace'::argument_list<char>::size
FUNC 32d5f 9 0 `anonymous namespace'::argument_list<wchar_t>::size
FUNC 32d6a b 0 strpbrk(char * const,char const * const)
FUNC 32d77 b 0 wcspbrk(wchar_t *,wchar_t const *)
FUNC 32d84 b 0 __acrt_expand_narrow_argv_wildcards
FUNC 32d91 b 0 __acrt_expand_wide_argv_wildcards
FUNC 32d9e c7 0 __acrt_convert_wcs_mbs_cp<wchar_t,char,<lambda_0fec1a7b3f42a53036604e18c2d5e07e>,__crt_win32_buffer_no_resizing>
FUNC 32e96 1d 0 __acrt_wcs_to_mbs_cp<__crt_win32_buffer_no_resizing>(wchar_t const * const,__crt_win32_buffer<char,__crt_win32_buffer_no_resizing> &,unsigned int)
FUNC 32eba 24 0 __crt_win32_buffer<char,__crt_win32_buffer_no_resizing>::__crt_win32_buffer<char,__crt_win32_buffer_no_resizing>(char * const,unsigned int)
FUNC 32ee7 b 0 __crt_win32_buffer<char,__crt_win32_buffer_no_resizing>::~__crt_win32_buffer<char,__crt_win32_buffer_no_resizing>()
FUNC 32ef4 24 0 <lambda_0fec1a7b3f42a53036604e18c2d5e07e>::operator()
FUNC 32f21 b 0 __crt_win32_buffer<char,__crt_win32_buffer_no_resizing>::_deallocate()
FUNC 32f2e 27 4 __crt_win32_buffer<char,__crt_win32_buffer_no_resizing>::allocate(unsigned int)
FUNC 32f5e d c __crt_win32_buffer_no_resizing::allocate(void * * const,unsigned int,__crt_win32_buffer_empty_debug_info const &)
FUNC 32f6e 4 0 __crt_win32_buffer<char,__crt_win32_buffer_no_resizing>::capacity()
FUNC 32f72 4 0 __crt_win32_buffer<char,__crt_win32_buffer_no_resizing>::data()
FUNC 32f76 3 8 __crt_win32_buffer_no_resizing::deallocate(void * const,__crt_win32_buffer_empty_debug_info const &)
FUNC 32f79 3 0 __crt_win32_buffer<char,__crt_win32_buffer_no_resizing>::debug_info()
FUNC 32f7c 14 0 __crt_win32_buffer<char,__crt_win32_buffer_no_resizing>::set_to_nullptr()
FUNC 32f95 f 0 __crt_win32_buffer<char,__crt_win32_buffer_no_resizing>::size(unsigned int)
FUNC 32fa7 4 0 __crt_win32_buffer<char,__crt_win32_buffer_no_resizing>::size()
FUNC 32fab a1 0 __acrt_GetModuleFileNameA
FUNC 33074 12 0 __crt_internal_free_policy::operator()<__crt_multibyte_data>(__crt_multibyte_data const * const)
FUNC 3308a 4d 0 __crt_seh_guarded_call<void>::operator()<<lambda_ceb1ee4838e85a9d631eb091e2fbe199>,<lambda_ae742caa10f662c28703da3d2ea5e57e> &,<lambda_cd08b5d6af4937fe54fc07d0c9bf6b37> >
FUNC 330ea 26 0 __acrt_lock_and_call<<lambda_ae742caa10f662c28703da3d2ea5e57e> >
FUNC 33119 f 0 __crt_state_management::dual_state_global<unsigned char *>::initialize_from_array<unsigned char [1][256]>(unsigned char (&)[1][256])
FUNC 3312b f 0 __crt_state_management::dual_state_global<unsigned char *>::initialize_from_array<unsigned char [1][257]>(unsigned char (&)[1][257])
FUNC 3313d 16 0 <lambda_ae742caa10f662c28703da3d2ea5e57e>::<lambda_ae742caa10f662c28703da3d2ea5e57e>
FUNC 33158 12 0 <lambda_cd08b5d6af4937fe54fc07d0c9bf6b37>::<lambda_cd08b5d6af4937fe54fc07d0c9bf6b37>
FUNC 3316e 12 0 <lambda_ceb1ee4838e85a9d631eb091e2fbe199>::<lambda_ceb1ee4838e85a9d631eb091e2fbe199>
FUNC 33184 10 0 __crt_unique_heap_ptr<__crt_multibyte_data,__crt_internal_free_policy>::__crt_unique_heap_ptr<__crt_multibyte_data,__crt_internal_free_policy>(__crt_multibyte_data * const)
FUNC 33198 12 0 __crt_unique_heap_ptr<__crt_multibyte_data,__crt_internal_free_policy>::~__crt_unique_heap_ptr<__crt_multibyte_data,__crt_internal_free_policy>()
FUNC 331ae 7 0 __crt_unique_heap_ptr<__crt_multibyte_data,__crt_internal_free_policy>::operator bool()
FUNC 331b5 83 0 <lambda_ae742caa10f662c28703da3d2ea5e57e>::operator()
FUNC 33258 9 0 <lambda_cd08b5d6af4937fe54fc07d0c9bf6b37>::operator()
FUNC 33263 9 0 <lambda_ceb1ee4838e85a9d631eb091e2fbe199>::operator()
FUNC 3326e 3e 0 CPtoLocaleName
FUNC 332bb 3 0 __crt_state_management::dual_state_global<unsigned char *>::dangerous_get_state_array()
FUNC 332be 3 0 __crt_state_management::dual_state_global<__crt_multibyte_data *>::dangerous_get_state_array()
FUNC 332c1 6 0 __crt_unique_heap_ptr<__crt_multibyte_data,__crt_internal_free_policy>::detach()
FUNC 332c7 3 0 __crt_unique_heap_ptr<__crt_multibyte_data,__crt_internal_free_policy>::get()
FUNC 332ca 71 0 getSystemCP
FUNC 33357 26 0 __crt_state_management::dual_state_global<__crt_multibyte_data *>::initialize(__crt_multibyte_data * const)
FUNC 33386 7 0 __crt_unique_heap_ptr<__crt_multibyte_data,__crt_internal_free_policy>::is_valid()
FUNC 3338d 12 0 __crt_unique_heap_ptr<__crt_multibyte_data,__crt_internal_free_policy>::release()
FUNC 333a3 65 0 setSBCS
FUNC 33421 181 0 setSBUpLow
FUNC 33602 119 0 setmbcp_internal
FUNC 33761 a0 0 update_thread_multibyte_data_internal
FUNC 33829 3 0 __crt_state_management::dual_state_global<unsigned char *>::value()
FUNC 3382c 3 0 __crt_state_management::dual_state_global<__crt_multibyte_data *>::value()
FUNC 3382f 48 0 __acrt_initialize_multibyte
FUNC 33889 13 0 __acrt_update_thread_multibyte_data
FUNC 338a0 6 0 __p__mbcasemap
FUNC 338a6 6 0 __p__mbctype
FUNC 338ac 34 0 _getmbcp
FUNC 338ed 1f 0 _setmbcp
FUNC 33913 1f3 0 _setmbcp_nolock
FUNC 33b82 81 0 memcpy_s
FUNC 33c23 57 0 x_ismbbtype_l
FUNC 33c8f 1b 0 _ismbbalnum
FUNC 33cb0 1c 0 _ismbbalnum_l
FUNC 33cd3 1b 0 _ismbbalpha
FUNC 33cf4 1c 0 _ismbbalpha_l
FUNC 33d17 23 0 _ismbbblank
FUNC 33d42 24 0 _ismbbblank_l
FUNC 33d6f 1b 0 _ismbbgraph
FUNC 33d90 1c 0 _ismbbgraph_l
FUNC 33db3 18 0 _ismbbkalnum
FUNC 33dd1 19 0 _ismbbkalnum_l
FUNC 33df0 13 0 _ismbbkana
FUNC 33e07 4f 0 _ismbbkana_l
FUNC 33e69 18 0 _ismbbkprint
FUNC 33e87 19 0 _ismbbkprint_l
FUNC 33ea6 18 0 _ismbbkpunct
FUNC 33ec4 19 0 _ismbbkpunct_l
FUNC 33ee3 18 0 _ismbblead
FUNC 33f01 19 0 _ismbblead_l
FUNC 33f20 1b 0 _ismbbprint
FUNC 33f41 1c 0 _ismbbprint_l
FUNC 33f64 18 0 _ismbbpunct
FUNC 33f82 19 0 _ismbbpunct_l
FUNC 33fa1 18 0 _ismbbtrail
FUNC 33fbf 19 0 _ismbbtrail_l
FUNC 33fde 19 0 __acrt_initialize_command_line
FUNC 33ffd 3 4 __acrt_uninitialize_command_line
FUNC 34000 6 0 __p___argc
FUNC 34006 6 0 __p___argv
FUNC 3400c 6 0 __p___wargv
FUNC 34012 6 0 __p__acmdln
FUNC 34018 6 0 __p__pgmptr
FUNC 3401e 6 0 __p__wcmdln
FUNC 34024 6 0 __p__wpgmptr
FUNC 3402a 31 0 _get_pgmptr
FUNC 34067 31 0 _get_wpgmptr
FUNC 340a4 60 0 common_tcscpy_s<wchar_t>
FUNC 3411c 64 0 wcscpy_s
FUNC 34199 68 0 filter_mbtowcs_flags
FUNC 3421b 7c 0 __acrt_MultiByteToWideChar
FUNC 342b6 65 0 filter_wcstomb_flags
FUNC 34334 ad 0 __acrt_WideCharToMultiByte
FUNC 3440c 10 0 __crt_unique_handle_t<`anonymous namespace'::environment_strings_traits>::__crt_unique_handle_t<`anonymous namespace'::environment_strings_traits>
FUNC 34420 17 0 __crt_unique_handle_t<`anonymous namespace'::environment_strings_traits>::~__crt_unique_handle_t<`anonymous namespace'::environment_strings_traits>
FUNC 3443c 7 0 __crt_unique_handle_t<`anonymous namespace'::environment_strings_traits>::operator bool
FUNC 34443 17 0 __crt_unique_handle_t<`anonymous namespace'::environment_strings_traits>::close
FUNC 3445f 12 0 `anonymous namespace'::environment_strings_traits::close
FUNC 34475 37 0 find_end_of_double_null_terminated_sequence
FUNC 344b9 3 0 __crt_unique_handle_t<`anonymous namespace'::environment_strings_traits>::get
FUNC 344bc 3 0 `anonymous namespace'::environment_strings_traits::get_invalid_value
FUNC 344bf 7 0 __crt_unique_handle_t<`anonymous namespace'::environment_strings_traits>::is_valid
FUNC 344c6 84 0 __dcrt_get_narrow_environment_from_os
FUNC 3456b 50 0 __dcrt_get_wide_environment_from_os
FUNC 345cf 23e 0 common_set_variable_in_environment_nolock<char>
FUNC 3489c 253 0 common_set_variable_in_environment_nolock<wchar_t>
FUNC 34b83 b0 0 copy_environment<char>
FUNC 34c5f be 0 copy_environment<wchar_t>
FUNC 34d4c 1a 0 ensure_current_environment_is_not_initial_environment_nolock<char>
FUNC 34d6c 1a 0 ensure_current_environment_is_not_initial_environment_nolock<wchar_t>
FUNC 34d8c 55 0 find_in_environment_nolock<char>
FUNC 34df6 58 0 find_in_environment_nolock<wchar_t>
FUNC 34e64 5 0 __crt_char_traits<char>::get_or_create_environment_nolock<>()
FUNC 34e69 5 0 __crt_char_traits<wchar_t>::get_or_create_environment_nolock<>()
FUNC 34e6e 18 0 __crt_char_traits<char>::set_environment_variable<char * const &,char * const>(char * const &,char * const &&)
FUNC 34e8c 17 0 __crt_char_traits<wchar_t>::set_environment_variable<wchar_t * const &,wchar_t * const>(wchar_t * const &,wchar_t * const &&)
FUNC 34ea8 1a 0 __crt_char_traits<char>::tcschr<char * const &,char>(char * const &,char &&)
FUNC 34ec8 1e 0 __crt_char_traits<wchar_t>::tcschr<wchar_t * const &,char>(wchar_t * const &,char &&)
FUNC 34eed 1e 0 __crt_char_traits<char>::tcscpy_s<char * &,unsigned int const &,char * &>(char * &,unsigned int const &,char * &)
FUNC 34f12 1e 0 __crt_char_traits<wchar_t>::tcscpy_s<wchar_t * &,unsigned int const &,wchar_t * &>(wchar_t * &,unsigned int const &,wchar_t * &)
FUNC 34f37 1e 0 __crt_char_traits<char>::tcscpy_s<char * const &,unsigned int const &,char * const &>(char * const &,unsigned int const &,char * const &)
FUNC 34f5c 1e 0 __crt_char_traits<wchar_t>::tcscpy_s<wchar_t * const &,unsigned int const &,wchar_t * const &>(wchar_t * const &,unsigned int const &,wchar_t * const &)
FUNC 34f81 18 0 __crt_char_traits<char>::tcslen<char * const &>(char * const &)
FUNC 34f9f 1e 0 __crt_char_traits<wchar_t>::tcslen<wchar_t * const &>(wchar_t * const &)
FUNC 34fc4 1e 0 __crt_char_traits<char>::tcsnicoll<char const * const &,char * &,unsigned int const &>(char const * const &,char * &,unsigned int const &)
FUNC 34fe9 1e 0 __crt_char_traits<wchar_t>::tcsnicoll<wchar_t const * const &,wchar_t * &,unsigned int const &>(wchar_t const * const &,wchar_t * &,unsigned int const &)
FUNC 3500e 6 4 get_environment
FUNC 35014 6 4 get_environment
FUNC 3501a 6 4 get_initial_environment
FUNC 35020 6 4 get_initial_environment
FUNC 35026 6 4 get_other_environment
FUNC 3502c 6 4 get_other_environment
FUNC 35032 b 0 strchr(char * const,int)
FUNC 3503f b 0 wcschr(wchar_t *,wchar_t)
FUNC 3504c b 0 __dcrt_set_variable_in_narrow_environment_nolock
FUNC 35059 b 0 __dcrt_set_variable_in_wide_environment_nolock
FUNC 35066 b 0 _recalloc
FUNC 35073 6d 0 _recalloc_base
FUNC 350fb d 0 <lambda_29d3c280b90b41c2ae070ffca879996a>::<lambda_invoker_stdcall>
FUNC 3510b 6 0 __crt_fast_encoded_nullptr_t::operator<int > int (*)(wchar_t *,unsigned long,long)()
FUNC 35111 7c 0 __crt_seh_guarded_call<int>::operator()<<lambda_6b4b7855443974f2b4b77000ea21c99c>,<lambda_8f7d3b162ab39427f4fa9995c67a7986> &,<lambda_cc9a5ba8a5d8428b9634eab82665e5dc> >
FUNC 351ac 26 0 __acrt_lock_and_call<<lambda_8f7d3b162ab39427f4fa9995c67a7986> >
FUNC 351db 16 0 __crt_fast_decode_pointer<int (*)(wchar_t *,unsigned long,long)>(int (*const)(wchar_t *,unsigned long,long))
FUNC 351f6 1f 0 __crt_fast_encode_pointer<int (*)(wchar_t *,unsigned long,long)>(int (*const)(wchar_t *,unsigned long,long))
FUNC 3521c 12 0 <lambda_6b4b7855443974f2b4b77000ea21c99c>::<lambda_6b4b7855443974f2b4b77000ea21c99c>
FUNC 35232 10 0 <lambda_8f7d3b162ab39427f4fa9995c67a7986>::<lambda_8f7d3b162ab39427f4fa9995c67a7986>
FUNC 35246 12 0 <lambda_cc9a5ba8a5d8428b9634eab82665e5dc>::<lambda_cc9a5ba8a5d8428b9634eab82665e5dc>
FUNC 3525c 6 0 <lambda_29d3c280b90b41c2ae070ffca879996a>::operator int (__stdcall*)(wchar_t *)
FUNC 35262 2f 0 <lambda_29d3c280b90b41c2ae070ffca879996a>::operator()
FUNC 3529c 9 0 <lambda_6b4b7855443974f2b4b77000ea21c99c>::operator()
FUNC 352a7 29 0 <lambda_8f7d3b162ab39427f4fa9995c67a7986>::operator()
FUNC 352da 9 0 <lambda_cc9a5ba8a5d8428b9634eab82665e5dc>::operator()
FUNC 352e5 2e 0 enum_system_locales_ex_nolock
FUNC 3531e 4 0 invalid_function_sentinel
FUNC 35322 1a 0 try_get_AppPolicyGetProcessTerminationMethod
FUNC 35342 1a 0 try_get_AppPolicyGetShowDeveloperDiagnostic
FUNC 35362 1a 0 try_get_AppPolicyGetThreadInitializationType
FUNC 35382 1a 0 try_get_AppPolicyGetWindowingModel
FUNC 353a2 1a 0 try_get_AreFileApisANSI
FUNC 353c2 1a 0 try_get_CompareStringEx
FUNC 353e2 1a 0 try_get_EnumSystemLocalesEx
FUNC 35402 1a 0 try_get_FlsAlloc
FUNC 35422 1a 0 try_get_FlsFree
FUNC 35442 1a 0 try_get_FlsGetValue
FUNC 35462 1a 0 try_get_FlsSetValue
FUNC 35482 1a 0 try_get_GetActiveWindow
FUNC 354a2 1a 0 try_get_GetDateFormatEx
FUNC 354c2 1a 0 try_get_GetEnabledXStateFeatures
FUNC 354e2 1a 0 try_get_GetLastActivePopup
FUNC 35502 1a 0 try_get_GetLocaleInfoEx
FUNC 35522 1a 0 try_get_GetProcessWindowStation
FUNC 35542 1a 0 try_get_GetSystemTimePreciseAsFileTime
FUNC 35562 1a 0 try_get_GetTimeFormatEx
FUNC 35582 1a 0 try_get_GetUserDefaultLocaleName
FUNC 355a2 1a 0 try_get_GetUserObjectInformationW
FUNC 355c2 1a 0 try_get_GetXStateFeaturesMask
FUNC 355e2 1a 0 try_get_InitializeCriticalSectionEx
FUNC 35602 1a 0 try_get_IsValidLocaleName
FUNC 35622 1a 0 try_get_LCIDToLocaleName
FUNC 35642 1a 0 try_get_LCMapStringEx
FUNC 35662 1a 0 try_get_LocaleNameToLCID
FUNC 35682 1a 0 try_get_LocateXStateFeature
FUNC 356a2 1a 0 try_get_MessageBoxA
FUNC 356c2 1a 0 try_get_MessageBoxW
FUNC 356e2 1a 0 try_get_RoInitialize
FUNC 35702 1a 0 try_get_RoUninitialize
FUNC 35722 1a 0 try_get_SetThreadStackGuarantee
FUNC 35742 1a 0 try_get_SystemFunction036
FUNC 35762 c7 0 try_get_first_available_module
FUNC 3585a 83 0 try_get_function
FUNC 358fd 52 0 try_get_module
FUNC 35963 24 0 try_get_proc_address_from_first_available_module
FUNC 35990 63 0 try_load_library_from_system_directory
FUNC 35a0b 4 0 GetCurrentThreadEffectiveToken
FUNC 35a0f 40 4 __acrt_AppPolicyGetProcessTerminationMethodInternal
FUNC 35a5f 40 4 __acrt_AppPolicyGetShowDeveloperDiagnosticInternal
FUNC 35aaf 40 4 __acrt_AppPolicyGetThreadInitializationTypeInternal
FUNC 35aff 40 4 __acrt_AppPolicyGetWindowingModelInternal
FUNC 35b4f 1f 0 __acrt_AreFileApisANSI
FUNC 35b75 5d 24 __acrt_CompareStringEx
FUNC 35be9 54 10 __acrt_EnumSystemLocalesEx
FUNC 35c52 3f 4 __acrt_FlsAlloc
FUNC 35ca0 3f 4 __acrt_FlsFree
FUNC 35cee 3f 4 __acrt_FlsGetValue
FUNC 35d3c 42 8 __acrt_FlsSetValue
FUNC 35d8e 57 1c __acrt_GetDateFormatEx
FUNC 35dfa 34 0 __acrt_GetEnabledXStateFeatures
FUNC 35e3b 3f 10 __acrt_GetLocaleInfoEx
FUNC 35e89 3f 4 __acrt_GetSystemTimePreciseAsFileTime
FUNC 35ed7 45 18 __acrt_GetTimeFormatEx
FUNC 35f2d 3c 8 __acrt_GetUserDefaultLocaleName
FUNC 35f78 40 8 __acrt_GetXStateFeaturesMask
FUNC 35fc8 4b c __acrt_InitializeCriticalSectionEx
FUNC 36025 38 4 __acrt_IsValidLocaleName
FUNC 3606b 3f 10 __acrt_LCIDToLocaleName
FUNC 360b9 5d 24 __acrt_LCMapStringEx
FUNC 3612d 31 8 __acrt_LocaleNameToLCID
FUNC 3616a 2f c __acrt_LocateXStateFeature
FUNC 361a4 32 10 __acrt_MessageBoxA
FUNC 361e2 32 10 __acrt_MessageBoxW
FUNC 36220 3b 4 __acrt_RoInitialize
FUNC 36269 2e 0 __acrt_RoUninitialize
FUNC 362a2 40 8 __acrt_RtlGenRandom
FUNC 362f2 3b 4 __acrt_SetThreadStackGuarantee
FUNC 3633b 27 0 __acrt_can_show_message_box
FUNC 3636b b 0 __acrt_can_use_vista_locale_apis
FUNC 36378 b 0 __acrt_can_use_xstate_apis
FUNC 36385 37 0 __acrt_eagerly_load_locale_apis
FUNC 363c9 68 0 __acrt_get_parent_window
FUNC 3644b 2b 0 __acrt_initialize_winapi_thunks
FUNC 36480 9f 0 __acrt_is_interactive
FUNC 36546 36 0 __acrt_uninitialize_winapi_thunks
FUNC 36589 6 0 __acrt_getheap
FUNC 3658f 11 0 __acrt_initialize_heap
FUNC 365a4 a 4 __acrt_uninitialize_heap
FUNC 365b0 6 0 _get_heap_handle
FUNC 365b6 22 0 get_std_handle_id
FUNC 365e0 b6 0 initialize_inherited_file_handles_nolock
FUNC 366c3 b4 0 initialize_stdio_handles_nolock
FUNC 367a4 60 0 __acrt_initialize_lowio
FUNC 3681c 2c 4 __acrt_uninitialize_lowio
FUNC 36853 68 0 __acrt_execute_initializers
FUNC 368d5 31 0 __acrt_execute_uninitializers
FUNC 36912 6 0 __crt_fast_encoded_nullptr_t::operator<int > int (*)(unsigned int)()
FUNC 36918 16 0 __crt_fast_decode_pointer<int (*)(unsigned int)>(int (*const)(unsigned int))
FUNC 36933 1f 0 __crt_fast_encode_pointer<int (*)(unsigned int)>(int (*const)(unsigned int))
FUNC 36959 d 4 _set_new_handler(int)
FUNC 36969 26 0 __crt_state_management::dual_state_global<int (*)(unsigned int)>::initialize(int (*const)(unsigned int))
FUNC 36998 3 0 __crt_state_management::dual_state_global<int (*)(unsigned int)>::value()
FUNC 3699b f 0 __acrt_initialize_new_handler
FUNC 369ad 2d 0 _callnewh
FUNC 369e5 5c 0 _query_new_handler
FUNC 36a58 6a 0 _set_new_handler
FUNC 36adc 6 0 __crt_fast_encoded_nullptr_t::operator<void > void (*)(int)()
FUNC 36ae2 64 0 __crt_seh_guarded_call<void (__cdecl*)(int)>::operator()<<lambda_cbab9ec6f41b0180b23cc171c22676b0>,<lambda_44731a7d0e6d81c3e6aa82d741081786> &,<lambda_4b292cb8dd18144e164572427af410ab> >
FUNC 36b5f 26 0 __acrt_lock_and_call<<lambda_44731a7d0e6d81c3e6aa82d741081786> >
FUNC 36b8e 16 0 __crt_fast_decode_pointer<void (*)(int)>(void (*const)(int))
FUNC 36ba9 1f 0 __crt_fast_encode_pointer<void (*)(int)>(void (*const)(int))
FUNC 36bcf 12 0 <lambda_4b292cb8dd18144e164572427af410ab>::<lambda_4b292cb8dd18144e164572427af410ab>
FUNC 36be5 12 0 <lambda_cbab9ec6f41b0180b23cc171c22676b0>::<lambda_cbab9ec6f41b0180b23cc171c22676b0>
FUNC 36bfb 13 0 <lambda_44731a7d0e6d81c3e6aa82d741081786>::operator()
FUNC 36c12 9 0 <lambda_4b292cb8dd18144e164572427af410ab>::operator()
FUNC 36c1d 9 0 <lambda_cbab9ec6f41b0180b23cc171c22676b0>::operator()
FUNC 36c28 aa 0 ctrlevent_capture
FUNC 36cfc 42 0 get_global_action_nolock
FUNC 36d4e 26 0 __crt_state_management::dual_state_global<void (*)(int)>::initialize(void (*const)(int))
FUNC 36d7d 1a 0 is_console_signal
FUNC 36d9d 1a 0 is_unsupported_signal
FUNC 36dbd 28 0 siglookup
FUNC 36def 31 0 signal_failed
FUNC 36e2c 3 0 __crt_state_management::dual_state_global<void (*)(int)>::value()
FUNC 36e2f 27 0 __acrt_get_sigabrt_handler
FUNC 36e5f 1e 0 __acrt_initialize_signal_handlers
FUNC 36e84 9 0 __fpecode
FUNC 36e8f 9 0 __pxcptinfoptrs
FUNC 36e9a 1fb 0 raise
FUNC 37113 1bf 0 signal
FUNC 37341 16 0 __crt_fast_decode_pointer<int (*)(_exception *)>(int (*const)(_exception *))
FUNC 3735c 1f 0 __crt_fast_encode_pointer<int (*)(_exception *)>(int (*const)(_exception *))
FUNC 37382 26 0 __crt_state_management::dual_state_global<int (*)(_exception *)>::initialize(int (*const)(_exception *))
FUNC 373b1 3 0 __crt_state_management::dual_state_global<int (*)(_exception *)>::value()
FUNC 373b4 18 0 __acrt_has_user_matherr
FUNC 373d2 f 0 __acrt_initialize_user_matherr
FUNC 373e4 32 0 __acrt_invoke_user_matherr
FUNC 37422 15 0 __setusermatherr
FUNC 3743c 8c 0 __crt_seh_guarded_call<void>::operator()<<lambda_2866be3712abc81a800a822484c830d8>,<lambda_39ca0ed439415581b5b15c265174cece> &,<lambda_2b24c74d71094a6cd0cb82e44167d71b> >
FUNC 374eb ac 0 __crt_seh_guarded_call<void>::operator()<<lambda_2cc53f568c5a2bb6f192f930a45d44ea>,<lambda_ab61a845afdef5b7c387490eaf3616ee> &,<lambda_c2ffc0b7726aa6be21d5f0026187e748> >
FUNC 375c2 60 0 __crt_seh_guarded_call<int>::operator()<<lambda_6d20deecaf4856105ebacbad442d1079>,<lambda_9a32fed5bf61b6b509b2d3f6003082a1> &,<lambda_63ea2239ed67c638ddbae41947fdf875> >
FUNC 3763a 26 0 __acrt_lock_and_call<<lambda_ab61a845afdef5b7c387490eaf3616ee> >
FUNC 37669 26 0 __acrt_lock_stream_and_call<<lambda_39ca0ed439415581b5b15c265174cece> >
FUNC 37698 26 0 __acrt_lock_stream_and_call<<lambda_9a32fed5bf61b6b509b2d3f6003082a1> >
FUNC 376c7 12 0 <lambda_2866be3712abc81a800a822484c830d8>::<lambda_2866be3712abc81a800a822484c830d8>
FUNC 376dd 12 0 <lambda_2b24c74d71094a6cd0cb82e44167d71b>::<lambda_2b24c74d71094a6cd0cb82e44167d71b>
FUNC 376f3 12 0 <lambda_2cc53f568c5a2bb6f192f930a45d44ea>::<lambda_2cc53f568c5a2bb6f192f930a45d44ea>
FUNC 37709 22 0 <lambda_39ca0ed439415581b5b15c265174cece>::<lambda_39ca0ed439415581b5b15c265174cece>
FUNC 37733 12 0 <lambda_63ea2239ed67c638ddbae41947fdf875>::<lambda_63ea2239ed67c638ddbae41947fdf875>
FUNC 37749 12 0 <lambda_6d20deecaf4856105ebacbad442d1079>::<lambda_6d20deecaf4856105ebacbad442d1079>
FUNC 3775f 10 0 <lambda_9a32fed5bf61b6b509b2d3f6003082a1>::<lambda_9a32fed5bf61b6b509b2d3f6003082a1>
FUNC 37773 1c 0 <lambda_ab61a845afdef5b7c387490eaf3616ee>::<lambda_ab61a845afdef5b7c387490eaf3616ee>
FUNC 37796 12 0 <lambda_c2ffc0b7726aa6be21d5f0026187e748>::<lambda_c2ffc0b7726aa6be21d5f0026187e748>
FUNC 377ac 10 0 __crt_stdio_stream::__crt_stdio_stream(__crt_stdio_stream_data * const)
FUNC 377c0 9 0 <lambda_2866be3712abc81a800a822484c830d8>::operator()
FUNC 377cb 9 0 <lambda_2b24c74d71094a6cd0cb82e44167d71b>::operator()
FUNC 377d6 9 0 <lambda_2cc53f568c5a2bb6f192f930a45d44ea>::operator()
FUNC 377e1 4b 0 <lambda_39ca0ed439415581b5b15c265174cece>::operator()
FUNC 3783e 9 0 <lambda_63ea2239ed67c638ddbae41947fdf875>::operator()
FUNC 37849 9 0 <lambda_6d20deecaf4856105ebacbad442d1079>::operator()
FUNC 37854 b 0 <lambda_9a32fed5bf61b6b509b2d3f6003082a1>::operator()
FUNC 37861 88 0 <lambda_ab61a845afdef5b7c387490eaf3616ee>::operator()
FUNC 3790b 9 0 <lambda_c2ffc0b7726aa6be21d5f0026187e748>::operator()
FUNC 37916 16 0 __acrt_stdio_reset_buffer(__crt_stdio_stream)
FUNC 37931 4d 0 common_flush_all
FUNC 37991 33 0 common_flush_all_should_try_to_flush_stream
FUNC 379d0 18 0 __crt_stdio_stream::has_all_of(long)
FUNC 379ee f 0 is_stream_allocated
FUNC 37a00 1c 0 is_stream_flushable
FUNC 37a23 25 0 is_stream_flushable_or_commitable
FUNC 37a51 24 0 __crt_stdio_stream::set_flags(long)
FUNC 37a7e 29 0 __crt_stdio_stream::unset_flags(long)
FUNC 37ab1 65 0 __acrt_stdio_flush_nolock
FUNC 37b2f 48 0 _fflush_nolock
FUNC 37b89 9 0 _flushall
FUNC 37b94 55 0 fflush
FUNC 37bfe 25 0 __p___mb_cur_max
FUNC 37c2c 12 0 __crt_internal_free_policy::operator()<__crt_stdio_stream_data *>(__crt_stdio_stream_data * const * const)
FUNC 37c42 10 0 __crt_unique_heap_ptr<__crt_stdio_stream_data *,__crt_internal_free_policy>::__crt_unique_heap_ptr<__crt_stdio_stream_data *,__crt_internal_free_policy>(__crt_stdio_stream_data * * const)
FUNC 37c56 12 0 __crt_unique_heap_ptr<__crt_stdio_stream_data *,__crt_internal_free_policy>::~__crt_unique_heap_ptr<__crt_stdio_stream_data *,__crt_internal_free_policy>()
FUNC 37c6c 6 0 __crt_unique_heap_ptr<__crt_stdio_stream_data *,__crt_internal_free_policy>::detach()
FUNC 37c72 12 0 __crt_unique_heap_ptr<__crt_stdio_stream_data *,__crt_internal_free_policy>::release()
FUNC 37c88 c8 0 __acrt_initialize_stdio
FUNC 37d82 10 0 __acrt_iob_func
FUNC 37d96 4c 0 __acrt_uninitialize_stdio
FUNC 37df5 46 0 _get_stream_buffer_pointers
FUNC 37e4c 14 0 _lock_file
FUNC 37e65 14 0 _unlock_file
FUNC 37e7e f 0 __crt_stdio_stream::has_any_buffer()
FUNC 37e90 15 0 __crt_stdio_stream::has_any_of(long)
FUNC 37eaa c 0 __crt_stdio_stream::has_temporary_buffer()
FUNC 37eb9 b3 0 __acrt_stdio_begin_temporary_buffering_nolock
FUNC 37f98 3a 0 __acrt_stdio_end_temporary_buffering_nolock
FUNC 37fe0 4e 0 _malloc_base
FUNC 38041 1b 0 __crt_strtox::make_c_string_character_source<char,char * *>(char const * const,char * * const)
FUNC 38062 1b 0 __crt_strtox::make_c_string_character_source<wchar_t,wchar_t * *>(wchar_t const * const,wchar_t * * const)
FUNC 38083 2b 0 __crt_strtox::parse_integer_from_string<long,char,char * *>(char const * const,char * * const,int,__crt_locale_pointers * const)
FUNC 380b8 2b 0 __crt_strtox::parse_integer_from_string<long,wchar_t,wchar_t * *>(wchar_t const * const,wchar_t * * const,int,__crt_locale_pointers * const)
FUNC 380ed 2b 0 __crt_strtox::parse_integer_from_string<unsigned long,char,char * *>(char const * const,char * * const,int,__crt_locale_pointers * const)
FUNC 38122 2b 0 __crt_strtox::parse_integer_from_string<unsigned long,wchar_t,wchar_t * *>(wchar_t const * const,wchar_t * * const,int,__crt_locale_pointers * const)
FUNC 38157 2b 0 __crt_strtox::parse_integer_from_string<__int64,char,char * *>(char const * const,char * * const,int,__crt_locale_pointers * const)
FUNC 3818c 2b 0 __crt_strtox::parse_integer_from_string<__int64,wchar_t,wchar_t * *>(wchar_t const * const,wchar_t * * const,int,__crt_locale_pointers * const)
FUNC 381c1 2b 0 __crt_strtox::parse_integer_from_string<unsigned __int64,char,char * *>(char const * const,char * * const,int,__crt_locale_pointers * const)
FUNC 381f6 2b 0 __crt_strtox::parse_integer_from_string<unsigned __int64,wchar_t,wchar_t * *>(wchar_t const * const,wchar_t * * const,int,__crt_locale_pointers * const)
FUNC 3822b 2a 0 _strtoi64
FUNC 3825f 2b 0 _strtoi64_l
FUNC 38294 2b 0 _strtoimax_l
FUNC 382c9 2b 0 _strtol_l
FUNC 382fe 2b 0 _strtoll_l
FUNC 38333 2a 0 _strtoui64
FUNC 38367 2b 0 _strtoui64_l
FUNC 3839c 2b 0 _strtoul_l
FUNC 383d1 2b 0 _strtoull_l
FUNC 38406 2b 0 _strtoumax_l
FUNC 3843b 2a 0 _wcstoi64
FUNC 3846f 2b 0 _wcstoi64_l
FUNC 384a4 2b 0 _wcstoimax_l
FUNC 384d9 2b 0 _wcstol_l
FUNC 3850e 2b 0 _wcstoll_l
FUNC 38543 2a 0 _wcstoui64
FUNC 38577 2b 0 _wcstoui64_l
FUNC 385ac 2b 0 _wcstoul_l
FUNC 385e1 2b 0 _wcstoull_l
FUNC 38616 2b 0 _wcstoumax_l
FUNC 3864b 2a 0 strtoimax
FUNC 3867f 2a 0 strtol
FUNC 386b3 2a 0 strtoll
FUNC 386e7 2a 0 strtoul
FUNC 3871b 2a 0 strtoull
FUNC 3874f 2a 0 strtoumax
FUNC 38783 2a 0 wcstoimax
FUNC 387b7 2a 0 wcstol
FUNC 387eb 2a 0 wcstoll
FUNC 3881f 2a 0 wcstoul
FUNC 38853 2a 0 wcstoull
FUNC 38887 2a 0 wcstoumax
FUNC 388bb 142 0 _mbtowc_l
FUNC 38a4d 1a 0 mbtowc
FUNC 38a6d 51 0 _wctomb_l
FUNC 38ad2 15b 0 _wctomb_s_l
FUNC 38c83 32 0 wctomb
FUNC 38cc1 1d 0 wctomb_s
FUNC 38ce5 136 8 common_strnlen<1,unsigned short>
FUNC 38e68 11e 8 common_strnlen<0,unsigned char>
FUNC 38fcd 1a9 8 common_strnlen<0,unsigned short>
FUNC 391e0 1a 0 common_strnlen_c<1,unsigned short>
FUNC 39200 21 0 common_strnlen_c<0,unsigned char>
FUNC 39229 27 0 common_strnlen_c<0,unsigned short>
FUNC 39259 8c 8 common_strnlen_simd<1,1,unsigned short>
FUNC 39308 8b 8 common_strnlen_simd<1,0,unsigned short>
FUNC 393b5 7a 8 common_strnlen_simd<0,1,unsigned char>
FUNC 3944d c0 8 common_strnlen_simd<0,1,unsigned short>
FUNC 3953d 79 8 common_strnlen_simd<0,0,unsigned char>
FUNC 395d4 bf 8 common_strnlen_simd<0,0,unsigned short>
FUNC 396c2 3 8 last_reached<1>
FUNC 396c5 10 0 last_reached<0>
FUNC 396d9 4 0 __crt_simd_cleanup_guard<1>::~__crt_simd_cleanup_guard<1>()
FUNC 396dd 3 0 __crt_simd_cleanup_guard<0>::~__crt_simd_cleanup_guard<0>()
FUNC 396e0 5 0 __crt_simd_traits<1,unsigned char>::compare_equals(__m256i,__m256i)
FUNC 396e5 5 0 __crt_simd_traits<1,unsigned short>::compare_equals(__m256i,__m256i)
FUNC 396ea 5 0 __crt_simd_traits<0,unsigned char>::compare_equals(__m128i,__m128i)
FUNC 396ef 5 0 __crt_simd_traits<0,unsigned short>::compare_equals(__m128i,__m128i)
FUNC 396f4 5 0 __crt_simd_pack_traits<1>::compute_byte_mask(__m256i)
FUNC 396f9 5 0 __crt_simd_pack_traits<0>::compute_byte_mask(__m128i)
FUNC 396fe 5 0 __crt_simd_pack_traits<1>::get_zero_pack()
FUNC 39703 4 0 __crt_simd_pack_traits<0>::get_zero_pack()
FUNC 39707 122 8 strnlen
FUNC 39871 128 4 wcslen
FUNC 399e3 1b0 8 wcsnlen
FUNC 39bff 2d 0 __acrt_update_locale_info
FUNC 39c37 2d 0 __acrt_update_multibyte_info
FUNC 39c6f 62 0 __acrt_fp_classify(double const &)
FUNC 39ce9 19 0 __acrt_fp_is_negative(double const &)
FUNC 39d08 319 0 fp_format_a
FUNC 3a0e7 a2 0 fp_format_e
FUNC 3a1b1 148 0 fp_format_e_internal
FUNC 3a34b 8b 0 fp_format_f
FUNC 3a3f8 d1 0 fp_format_f_internal
FUNC 3a4fd c1 0 fp_format_g
FUNC 3a5ee 95 0 fp_format_nan_or_infinity
FUNC 3a6a8 34 0 shift_bytes
FUNC 3a6e9 b 0 strrchr(char * const,int)
FUNC 3a6f6 13b 0 __acrt_fp_format
FUNC 3a87f 30 0 fputwc_binary_nolock
FUNC 3a8bb 129 0 _fputwc_nolock
FUNC 3aa2e 1a 0 _fputwchar
FUNC 3aa4e b 0 _putwc_nolock
FUNC 3aa5b 7e 0 fputwc
FUNC 3aaf8 b 0 putwc
FUNC 3ab05 b 0 putwchar
FUNC 3ab12 7 0 __crt_stdio_stream::lowio_handle()
FUNC 3ab19 27 0 _fileno
FUNC 3ab49 29 0 _fputc_nolock
FUNC 3ab7c 1a 0 _fputchar
FUNC 3ab9c b 0 _putc_nolock
FUNC 3aba9 10a 0 fputc
FUNC 3acf5 b 0 putc
FUNC 3ad02 b 0 putchar
FUNC 3ad0f 15 0 _get_printf_count_output
FUNC 3ad29 2a 0 _set_printf_count_output
FUNC 3ad5d 3 4 no_op_initialize
FUNC 3ad60 12 0 __crt_internal_free_policy::operator()<__crt_locale_data>(__crt_locale_data const * const)
FUNC 3ad76 12 0 __crt_internal_free_policy::operator()<__crt_locale_pointers>(__crt_locale_pointers const * const)
FUNC 3ad8c 45 0 __crt_seh_guarded_call<void>::operator()<<lambda_135d2772fca65dc1248eeaa1b56e886a>,<lambda_2a444430fde8c29194d880d93eed5e8f> &,<lambda_8dff2cf36a5417162780cd64fa2883ef> &>
FUNC 3ade2 4d 0 __crt_seh_guarded_call<void>::operator()<<lambda_4fdada1b837b2abbf20876fac97688ad>,<lambda_b57350f2640456a0859d250846f69caf> &,<lambda_eed5e4f92b5b7d55fa22c48c484aaa54> >
FUNC 3ae42 52 0 __crt_seh_guarded_call<void>::operator()<<lambda_6673f7c4c09a5d469d0c27ae364621ce>,<lambda_ebab98244f73a74f49db879bf13fa982> &,<lambda_be20789b7a146653eab82509ec35b419> >
FUNC 3aea8 54 0 __crt_seh_guarded_call<void>::operator()<<lambda_82aef432098b982f9ede325b418aa67a>,<lambda_862e9a3f04921db6ca1ce3faa2bf3edf> &,<lambda_ffabc152e504b53d7492b9889b10c020> >
FUNC 3af11 6e 0 __crt_seh_guarded_call<void>::operator()<<lambda_e5124f882df8998aaf41531e079ba474>,<lambda_3e16ef9562a7dcce91392c22ab16ea36> &,<lambda_e25ca0880e6ef98be67edffd8c599615> >
FUNC 3af9a 26 0 __acrt_lock_and_call<<lambda_3e16ef9562a7dcce91392c22ab16ea36> >
FUNC 3afc9 26 0 __acrt_lock_and_call<<lambda_862e9a3f04921db6ca1ce3faa2bf3edf> >
FUNC 3aff8 26 0 __acrt_lock_and_call<<lambda_b57350f2640456a0859d250846f69caf> >
FUNC 3b027 26 0 __acrt_lock_and_call<<lambda_ebab98244f73a74f49db879bf13fa982> >
FUNC 3b056 1a 0 __crt_call_and_cleanup<<lambda_2a444430fde8c29194d880d93eed5e8f>,<lambda_8dff2cf36a5417162780cd64fa2883ef> >
FUNC 3b076 2f 4 __crt_state_management::dual_state_global<__crt_locale_data *>::uninitialize<<lambda_88ce03f932007f29bf8b8056cbaba4f3> >
FUNC 3b0b0 28 0 <lambda_2a444430fde8c29194d880d93eed5e8f>::<lambda_2a444430fde8c29194d880d93eed5e8f>
FUNC 3b0e2 12 0 <lambda_4fdada1b837b2abbf20876fac97688ad>::<lambda_4fdada1b837b2abbf20876fac97688ad>
FUNC 3b0f8 12 0 <lambda_6673f7c4c09a5d469d0c27ae364621ce>::<lambda_6673f7c4c09a5d469d0c27ae364621ce>
FUNC 3b10e 12 0 <lambda_82aef432098b982f9ede325b418aa67a>::<lambda_82aef432098b982f9ede325b418aa67a>
FUNC 3b124 10 0 <lambda_862e9a3f04921db6ca1ce3faa2bf3edf>::<lambda_862e9a3f04921db6ca1ce3faa2bf3edf>
FUNC 3b138 10 0 <lambda_8dff2cf36a5417162780cd64fa2883ef>::<lambda_8dff2cf36a5417162780cd64fa2883ef>
FUNC 3b14c 28 0 <lambda_b57350f2640456a0859d250846f69caf>::<lambda_b57350f2640456a0859d250846f69caf>
FUNC 3b17e 12 0 <lambda_be20789b7a146653eab82509ec35b419>::<lambda_be20789b7a146653eab82509ec35b419>
FUNC 3b194 12 0 <lambda_e25ca0880e6ef98be67edffd8c599615>::<lambda_e25ca0880e6ef98be67edffd8c599615>
FUNC 3b1aa 12 0 <lambda_e5124f882df8998aaf41531e079ba474>::<lambda_e5124f882df8998aaf41531e079ba474>
FUNC 3b1c0 10 0 <lambda_ebab98244f73a74f49db879bf13fa982>::<lambda_ebab98244f73a74f49db879bf13fa982>
FUNC 3b1d4 12 0 <lambda_eed5e4f92b5b7d55fa22c48c484aaa54>::<lambda_eed5e4f92b5b7d55fa22c48c484aaa54>
FUNC 3b1ea 12 0 <lambda_ffabc152e504b53d7492b9889b10c020>::<lambda_ffabc152e504b53d7492b9889b10c020>
FUNC 3b200 10 0 __crt_unique_heap_ptr<__crt_locale_data,__crt_internal_free_policy>::__crt_unique_heap_ptr<__crt_locale_data,__crt_internal_free_policy>(__crt_locale_data * const)
FUNC 3b214 10 0 __crt_unique_heap_ptr<__crt_locale_pointers,__crt_internal_free_policy>::__crt_unique_heap_ptr<__crt_locale_pointers,__crt_internal_free_policy>(__crt_locale_pointers * const)
FUNC 3b228 4a 0 _expandlocale_locale_name_cache::_expandlocale_locale_name_cache(wchar_t * const,unsigned int,__crt_qualified_locale_data * const)
FUNC 3b284 12 0 __crt_unique_heap_ptr<__crt_locale_data,__crt_internal_free_policy>::~__crt_unique_heap_ptr<__crt_locale_data,__crt_internal_free_policy>()
FUNC 3b29a 12 0 __crt_unique_heap_ptr<__crt_locale_pointers,__crt_internal_free_policy>::~__crt_unique_heap_ptr<__crt_locale_pointers,__crt_internal_free_policy>()
FUNC 3b2b0 30 0 _expandlocale_locale_name_cache::~_expandlocale_locale_name_cache()
FUNC 3b2ec 7 0 __crt_unique_heap_ptr<__crt_locale_data,__crt_internal_free_policy>::operator bool()
FUNC 3b2f3 7 0 __crt_unique_heap_ptr<__crt_locale_pointers,__crt_internal_free_policy>::operator bool()
FUNC 3b2fa 3 0 <lambda_135d2772fca65dc1248eeaa1b56e886a>::operator()
FUNC 3b2fd 6a 0 <lambda_2a444430fde8c29194d880d93eed5e8f>::operator()
FUNC 3b381 20 0 <lambda_3e16ef9562a7dcce91392c22ab16ea36>::operator()
FUNC 3b3a9 9 0 <lambda_4fdada1b837b2abbf20876fac97688ad>::operator()
FUNC 3b3b4 9 0 <lambda_6673f7c4c09a5d469d0c27ae364621ce>::operator()
FUNC 3b3bf 9 0 <lambda_82aef432098b982f9ede325b418aa67a>::operator()
FUNC 3b3ca d 0 <lambda_862e9a3f04921db6ca1ce3faa2bf3edf>::operator()
FUNC 3b3da 22 0 <lambda_88ce03f932007f29bf8b8056cbaba4f3>::operator()
FUNC 3b404 c 0 <lambda_8dff2cf36a5417162780cd64fa2883ef>::operator()
FUNC 3b413 fe 0 <lambda_b57350f2640456a0859d250846f69caf>::operator()
FUNC 3b550 9 0 <lambda_be20789b7a146653eab82509ec35b419>::operator()
FUNC 3b55b 9 0 <lambda_e25ca0880e6ef98be67edffd8c599615>::operator()
FUNC 3b566 9 0 <lambda_e5124f882df8998aaf41531e079ba474>::operator()
FUNC 3b571 b 0 <lambda_ebab98244f73a74f49db879bf13fa982>::operator()
FUNC 3b57e 9 0 <lambda_eed5e4f92b5b7d55fa22c48c484aaa54>::operator()
FUNC 3b589 9 0 <lambda_ffabc152e504b53d7492b9889b10c020>::operator()
FUNC 3b594 44 0 _expandlocale_locale_name_cache::commit_locale_name(wchar_t const * const,unsigned int)
FUNC 3b5e9 35 0 _expandlocale_locale_name_cache::commit_locale_name_cache_already_updated(wchar_t const * const,unsigned int)
FUNC 3b62b 6 0 __crt_unique_heap_ptr<__crt_locale_data,__crt_internal_free_policy>::detach()
FUNC 3b631 6 0 __crt_unique_heap_ptr<__crt_locale_pointers,__crt_internal_free_policy>::detach()
FUNC 3b637 3 0 __crt_unique_heap_ptr<__crt_locale_data,__crt_internal_free_policy>::get()
FUNC 3b63a 3 0 __crt_unique_heap_ptr<__crt_locale_pointers,__crt_internal_free_policy>::get()
FUNC 3b63d 7 0 __crt_unique_heap_ptr<__crt_locale_data,__crt_internal_free_policy>::is_valid()
FUNC 3b644 7 0 __crt_unique_heap_ptr<__crt_locale_pointers,__crt_internal_free_policy>::is_valid()
FUNC 3b64b 12 0 __crt_unique_heap_ptr<__crt_locale_data,__crt_internal_free_policy>::release()
FUNC 3b661 12 0 __crt_unique_heap_ptr<__crt_locale_pointers,__crt_internal_free_policy>::release()
FUNC 3b677 60 0 __acrt_copy_locale_name
FUNC 3b6ef b 0 __acrt_set_locale_changed
FUNC 3b6fc 27 0 __acrt_uninitialize_locale
FUNC 3b72c 17 0 __ascii_tolower
FUNC 3b748 17 0 __ascii_towlower
FUNC 3b764 70 0 __lc_lctowcs
FUNC 3b7f0 150 0 __lc_wcstolc
FUNC 3b994 62 0 _configthreadlocale
FUNC 3ba0e 2f 0 _copytlocinfo_nolock
FUNC 3ba48 64 0 _create_locale
FUNC 3bac5 3c6 0 _expandlocale
FUNC 3bf7c c2 0 _free_locale
FUNC 3c06e 9b 0 _get_current_locale
FUNC 3c12f 107 0 _wcreate_locale
FUNC 3c277 41 0 _wcscats
FUNC 3c2c8 83 0 _wsetlocale
FUNC 3c36b 19b 0 _wsetlocale_get_all
FUNC 3c56c 2f0 0 _wsetlocale_nolock
FUNC 3c918 3c7 0 _wsetlocale_set_cat
FUNC 3cdd0 26 0 categorize_delimiter
FUNC 3cdff 2f 0 get_default_code_page
FUNC 3ce39 1ea 0 parse_bcp47
FUNC 3d09d 3f 0 parse_bcp47_code_page
FUNC 3d0eb 72 0 parse_bcp47_language
FUNC 3d179 b9 0 parse_bcp47_region
FUNC 3d260 70 0 parse_bcp47_script
FUNC 3d2ec 3d 0 string_is_alpha
FUNC 3d338 3a 0 string_is_digit
FUNC 3d380 22 0 sync_legacy_variables_lk
FUNC 3d3aa 24 0 __pctype_func
FUNC 3d3d7 6 0 __pwctype_func
FUNC 3d3dd 14 0 _iswctype_l
FUNC 3d3f6 69 0 iswctype
FUNC 3d479 33 0 _isctype
FUNC 3d4b8 cb 0 _isctype_l
FUNC 3d5b5 1e 0 _isleadbyte_fast_internal
FUNC 3d5da 7d 0 __acrt_add_locale_ref
FUNC 3d676 148 0 __acrt_free_locale
FUNC 3d810 29 0 __acrt_locale_add_lc_time_reference
FUNC 3d843 31 0 __acrt_locale_free_lc_time_if_unreferenced
FUNC 3d880 29 0 __acrt_locale_release_lc_time_reference
FUNC 3d8b3 81 0 __acrt_release_locale_ref
FUNC 3d954 81 0 __acrt_update_thread_locale_data
FUNC 3d9f5 50 0 _updatetlocinfoEx_nolock
FUNC 3da59 3 0 __crt_state_management::dual_state_global<long>::value()
FUNC 3da5c 7 0 _query_new_mode
FUNC 3da63 2f 0 _set_new_mode
FUNC 3daa0 7a 0 shortsort
FUNC 3db40 39 0 swap
FUNC 3db90 444 0 qsort
FUNC 3e0e5 cb 0 common_tcsncpy_s<wchar_t>
FUNC 3e1e2 b 0 wcsncpy_s
FUNC 3e1ef 4e 0 wcspbrk
FUNC 3e250 b3 0 common_tcsncpy_s<char>
FUNC 3e32f b 0 strncpy_s
FUNC 3e340 40 0 strpbrk
FUNC 3e390 17 0 _mbsdec
FUNC 3e3ac 8d 0 _mbsdec_l
FUNC 3e45c 10 0 __crt_scoped_stack_ptr<wchar_t>::__crt_scoped_stack_ptr<wchar_t>(__crt_scoped_stack_ptr_tag<wchar_t>)
FUNC 3e470 10 0 __crt_scoped_stack_ptr_tag<wchar_t>::__crt_scoped_stack_ptr_tag<wchar_t>(wchar_t * const)
FUNC 3e484 9 0 __crt_scoped_stack_ptr<wchar_t>::~__crt_scoped_stack_ptr<wchar_t>()
FUNC 3e48f 3 0 __crt_scoped_stack_ptr<wchar_t>::get()
FUNC 3e492 13 0 _MallocaComputeSize
FUNC 3e4a9 16 0 _MarkAllocaS
FUNC 3e4c4 103 0 __acrt_GetStringTypeA
FUNC 3e607 20 0 _freea_crt
FUNC 3e62f 7 0 __crt_scoped_stack_ptr<wchar_t>::operator bool()
FUNC 3e636 1ea 0 __acrt_LCMapStringA_stat
FUNC 3e89a 49 0 __acrt_LCMapStringA
FUNC 3e8f5 f 0 initialize_multibyte
FUNC 3e907 6d 0 _wcsnicoll
FUNC 3e98f c0 0 _wcsnicoll_l
FUNC 3ea7f 29 0 _strnicoll
FUNC 3eab2 c8 0 _strnicoll_l
FUNC 3ebac b2 0 __acrt_convert_wcs_mbs_cp<char,wchar_t,<lambda_62f6974d9771e494a5ea317cc32e971c>,__crt_win32_buffer_internal_dynamic_resizing>
FUNC 3ec8a 21 0 <lambda_62f6974d9771e494a5ea317cc32e971c>::operator()
FUNC 3ecb3 95 0 __acrt_SetEnvironmentVariableA
FUNC 3ed6d b 0 _msize
FUNC 3ed7a 33 0 _msize_base
FUNC 3edb9 69 0 _realloc_base
FUNC 3ee3c 37 0 GetTableIndexFromLcid
FUNC 3ee80 50 0 GetTableIndexFromLocaleName
FUNC 3eee4 aa 0 __acrt_DownlevelLCIDToLocaleName
FUNC 3efb8 2c 0 __acrt_DownlevelLocaleNameToLCID
FUNC 3efef 12 0 __crt_internal_free_policy::operator()<__crt_lowio_handle_data>(__crt_lowio_handle_data const * const)
FUNC 3f005 10 0 __crt_unique_heap_ptr<__crt_lowio_handle_data,__crt_internal_free_policy>::__crt_unique_heap_ptr<__crt_lowio_handle_data,__crt_internal_free_policy>(__crt_lowio_handle_data * const)
FUNC 3f019 12 0 __crt_unique_heap_ptr<__crt_lowio_handle_data,__crt_internal_free_policy>::~__crt_unique_heap_ptr<__crt_lowio_handle_data,__crt_internal_free_policy>()
FUNC 3f02f 7 0 __crt_unique_heap_ptr<__crt_lowio_handle_data,__crt_internal_free_policy>::operator bool()
FUNC 3f036 6 0 __crt_unique_heap_ptr<__crt_lowio_handle_data,__crt_internal_free_policy>::detach()
FUNC 3f03c 3 0 __crt_unique_heap_ptr<__crt_lowio_handle_data,__crt_internal_free_policy>::get()
FUNC 3f03f 7 0 __crt_unique_heap_ptr<__crt_lowio_handle_data,__crt_internal_free_policy>::is_valid()
FUNC 3f046 12 0 __crt_unique_heap_ptr<__crt_lowio_handle_data,__crt_internal_free_policy>::release()
FUNC 3f05c 7b 0 __acrt_lowio_create_handle_array
FUNC 3f0f5 35 0 __acrt_lowio_destroy_handle_array
FUNC 3f137 9e 0 __acrt_lowio_ensure_fh_exists
FUNC 3f1fc 23 0 __acrt_lowio_lock_fh
FUNC 3f227 92 0 __acrt_lowio_set_os_handle
FUNC 3f2dd 23 0 __acrt_lowio_unlock_fh
FUNC 3f308 113 0 _alloc_osfhnd
FUNC 3f45f 91 0 _free_osfhnd
FUNC 3f514 6a 0 _get_osfhandle
FUNC 3f598 116 0 _open_osfhandle
FUNC 3f6f3 a2 0 __crt_seh_guarded_call<int>::operator()<<lambda_9e9de3de5fa147e2223d7db92bc10aa6>,<lambda_38ce7e780aa69e748d6df282ebc68efe> &,<lambda_8ca6da459f0f6780f1cff60fdc3d00e5> >
FUNC 3f7bd 26 0 __acrt_lowio_lock_fh_and_call<<lambda_38ce7e780aa69e748d6df282ebc68efe> >
FUNC 3f7ec 10 0 <lambda_38ce7e780aa69e748d6df282ebc68efe>::<lambda_38ce7e780aa69e748d6df282ebc68efe>
FUNC 3f800 12 0 <lambda_8ca6da459f0f6780f1cff60fdc3d00e5>::<lambda_8ca6da459f0f6780f1cff60fdc3d00e5>
FUNC 3f816 12 0 <lambda_9e9de3de5fa147e2223d7db92bc10aa6>::<lambda_9e9de3de5fa147e2223d7db92bc10aa6>
FUNC 3f82c 55 0 <lambda_38ce7e780aa69e748d6df282ebc68efe>::operator()
FUNC 3f896 9 0 <lambda_8ca6da459f0f6780f1cff60fdc3d00e5>::operator()
FUNC 3f8a1 9 0 <lambda_9e9de3de5fa147e2223d7db92bc10aa6>::operator()
FUNC 3f8ac 7d 0 _commit
FUNC 3f948 4f 0 write_binary_nolock
FUNC 3f9aa 3aa 0 write_double_translated_ansi_nolock
FUNC 3fe3e 68 0 write_double_translated_unicode_nolock
FUNC 3fec0 71 0 write_requires_double_translation_nolock
FUNC 3ff4d db 0 write_text_ansi_nolock
FUNC 4005e e9 0 write_text_utf16le_nolock
FUNC 40181 132 0 write_text_utf8_nolock
FUNC 402ff 11 0 _utf8_no_of_trailbytes
FUNC 40314 f2 0 _write
FUNC 40442 1e2 0 _write_nolock
FUNC 4069c 28 0 localeconv
FUNC 406ce c 0 __crt_stdio_stream::is_in_use()
FUNC 406dd ab 0 _fcloseall
FUNC 407b2 c 0 __crt_stdio_stream::has_crt_buffer()
FUNC 407c1 40 0 __acrt_stdio_free_buffer_nolock
FUNC 40811 56 0 _isatty
FUNC 4087c 26 0 __iswcsym
FUNC 408ab 26 0 __iswcsymf
FUNC 408da 3a 0 _isleadbyte_l
FUNC 40922 16 0 _iswalnum_l
FUNC 4093d 16 0 _iswalpha_l
FUNC 40958 1d 0 _iswblank_l
FUNC 4097c 13 0 _iswcntrl_l
FUNC 40993 26 0 _iswcsym_l
FUNC 409c2 26 0 _iswcsymf_l
FUNC 409f1 13 0 _iswdigit_l
FUNC 40a08 16 0 _iswgraph_l
FUNC 40a23 13 0 _iswlower_l
FUNC 40a3a 16 0 _iswprint_l
FUNC 40a55 13 0 _iswpunct_l
FUNC 40a6c 13 0 _iswspace_l
FUNC 40a83 13 0 _iswupper_l
FUNC 40a9a 16 0 _iswxdigit_l
FUNC 40ab5 13 0 isleadbyte
FUNC 40acc 16 0 iswalnum
FUNC 40ae7 16 0 iswalpha
FUNC 40b02 14 0 iswascii
FUNC 40b1b 1d 0 iswblank
FUNC 40b3f 13 0 iswcntrl
FUNC 40b56 13 0 iswdigit
FUNC 40b6d 16 0 iswgraph
FUNC 40b88 13 0 iswlower
FUNC 40b9f 16 0 iswprint
FUNC 40bba 13 0 iswpunct
FUNC 40bd1 13 0 iswspace
FUNC 40be8 13 0 iswupper
FUNC 40bff 16 0 iswxdigit
FUNC 40c1a 2c 0 <lambda_3d301b9e52f5099be73030e1f0bf487e>::operator()
FUNC 40c51 40 0 __crt_mbstring::__mbrtowc_utf8(wchar_t *,char const *,unsigned int,_Mbstatet *)
FUNC 40ca1 fb 0 __crt_mbstring::__mbsrtowcs_utf8(wchar_t *,char const * *,unsigned int,_Mbstatet *)
FUNC 40dda 1ed 0 _mbrtowc_s_l
FUNC 41042 12a 0 _mbsrtowcs_helper
FUNC 411b6 58 0 btowc
FUNC 41224 32 0 mbrlen
FUNC 41262 51 0 mbrtowc
FUNC 412c7 b 0 mbsrtowcs
FUNC 412d4 a3 0 mbsrtowcs_s
FUNC 4139f 12 0 __crt_internal_free_policy::operator()<unsigned short>(unsigned short const * const)
FUNC 413b5 12 0 __crt_internal_free_policy::operator()<long>(long const * const)
FUNC 413cb 10 0 __crt_unique_heap_ptr<unsigned short,__crt_internal_free_policy>::__crt_unique_heap_ptr<unsigned short,__crt_internal_free_policy>(unsigned short * const)
FUNC 413df 10 0 __crt_unique_heap_ptr<long,__crt_internal_free_policy>::__crt_unique_heap_ptr<long,__crt_internal_free_policy>(long * const)
FUNC 413f3 12 0 __crt_unique_heap_ptr<unsigned short,__crt_internal_free_policy>::~__crt_unique_heap_ptr<unsigned short,__crt_internal_free_policy>()
FUNC 41409 12 0 __crt_unique_heap_ptr<long,__crt_internal_free_policy>::~__crt_unique_heap_ptr<long,__crt_internal_free_policy>()
FUNC 4141f 6 0 __crt_unique_heap_ptr<unsigned short,__crt_internal_free_policy>::detach()
FUNC 41425 6 0 __crt_unique_heap_ptr<long,__crt_internal_free_policy>::detach()
FUNC 4142b 12 0 __crt_unique_heap_ptr<unsigned short,__crt_internal_free_policy>::release()
FUNC 41441 12 0 __crt_unique_heap_ptr<long,__crt_internal_free_policy>::release()
FUNC 41457 25 0 ___lc_codepage_func
FUNC 41485 25 0 ___lc_collate_cp_func
FUNC 414b3 27 0 ___lc_locale_name_func
FUNC 414e3 25 0 ___mb_cur_max_func
FUNC 41511 19 0 ___mb_cur_max_l_func
FUNC 41530 45e 0 __acrt_locale_initialize_ctype
FUNC 41aa5 ab 0 __crt_mbstring::__c32rtomb_utf8(char *,char32_t,_Mbstatet *)
FUNC 41b7a 14 0 __crt_mbstring::reset_and_return(unsigned int,_Mbstatet *)
FUNC 41b93 1f 0 __crt_mbstring::return_illegal_sequence(_Mbstatet *)
FUNC 41bb9 b 0 c32rtomb
FUNC 41bc6 c0 0 __acrt_fp_strflt_to_string
FUNC 41cb6 11dc 0 convert_to_fos_high_precision<double>
FUNC 43310 31 0 __crt_strtox::big_integer::big_integer(__crt_strtox::big_integer const &)
FUNC 43350 9 0 __crt_strtox::big_integer::big_integer()
FUNC 4335b 2c 0 `anonymous namespace'::scoped_fp_state_reset::scoped_fp_state_reset
FUNC 43392 e 0 `anonymous namespace'::scoped_fp_state_reset::~scoped_fp_state_reset
FUNC 433b0 31 0 __crt_strtox::big_integer::operator=(__crt_strtox::big_integer const &)
FUNC 433f0 3b 0 __crt_strtox::operator==(__crt_strtox::big_integer const &,__crt_strtox::big_integer const &)
FUNC 43440 39 0 __crt_strtox::operator!=(__crt_strtox::big_integer const &,__crt_strtox::big_integer const &)
FUNC 43490 1b 0 __crt_strtox::add_carry(unsigned int &,unsigned int,unsigned int)
FUNC 434c0 24 0 __crt_strtox::add_multiply_carry(unsigned int &,unsigned int,unsigned int,unsigned int)
FUNC 434f0 1e 0 __crt_strtox::bit_scan_reverse(unsigned int)
FUNC 43520 1b 0 __crt_strtox::count_sequential_high_zeroes(unsigned int)
FUNC 43550 498 0 __crt_strtox::divide(__crt_strtox::big_integer &,__crt_strtox::big_integer const &)
FUNC 43b10 10 0 __crt_strtox::is_zero(__crt_strtox::big_integer const &)
FUNC 43b30 20 0 __crt_strtox::make_big_integer(unsigned __int64)
FUNC 43b60 4c 0 __crt_strtox::make_big_integer_power_of_two(unsigned int)
FUNC 43bc0 33d 0 __crt_strtox::multiply(__crt_strtox::big_integer &,__crt_strtox::big_integer const &)
FUNC 43fd0 c3 0 __crt_strtox::multiply(__crt_strtox::big_integer &,unsigned int)
FUNC 440d0 17 0 __crt_strtox::multiply_64_32(unsigned __int64,unsigned int)
FUNC 440f0 523 0 __crt_strtox::multiply_by_power_of_ten(__crt_strtox::big_integer &,unsigned int)
FUNC 44760 3e 0 __crt_strtox::multiply_core(unsigned int * const,unsigned int,unsigned int)
FUNC 447b0 156 0 __crt_strtox::shift_left(__crt_strtox::big_integer &,unsigned int)
FUNC 4495b 134a 0 __acrt_fltout
FUNC 46177 81 0 memcpy_s
FUNC 46218 115 0 common_flush_and_write_nolock<char>
FUNC 46372 119 0 common_flush_and_write_nolock<wchar_t>
FUNC 464d1 cc 0 write_buffer_nolock<char>
FUNC 465d0 ce 0 write_buffer_nolock<wchar_t>
FUNC 466d1 c 0 __crt_stdio_stream::has_big_buffer()
FUNC 466e0 85 0 stream_is_at_end_of_file_nolock
FUNC 46786 b 0 __acrt_stdio_flush_and_write_narrow_nolock
FUNC 46793 b 0 __acrt_stdio_flush_and_write_wide_nolock
FUNC 467a0 12 0 __crt_internal_free_policy::operator()<lconv>(lconv const * const)
FUNC 467b6 10 0 __crt_unique_heap_ptr<lconv,__crt_internal_free_policy>::__crt_unique_heap_ptr<lconv,__crt_internal_free_policy>(lconv * const)
FUNC 467ca 12 0 __crt_unique_heap_ptr<lconv,__crt_internal_free_policy>::~__crt_unique_heap_ptr<lconv,__crt_internal_free_policy>()
FUNC 467e0 6 0 __crt_unique_heap_ptr<lconv,__crt_internal_free_policy>::detach()
FUNC 467e6 12 0 __crt_unique_heap_ptr<lconv,__crt_internal_free_policy>::release()
FUNC 467fc fe 0 __acrt_locale_free_monetary
FUNC 46939 3b7 0 __acrt_locale_initialize_monetary
FUNC 46ddd 38 0 fix_grouping
FUNC 46e23 69 0 __acrt_locale_free_numeric
FUNC 46ea6 20f 0 __acrt_locale_initialize_numeric
FUNC 47138 38 0 fix_grouping
FUNC 4717e 12 0 __crt_internal_free_policy::operator()<__crt_lc_time_data>(__crt_lc_time_data const * const)
FUNC 47194 13 0 free_crt_array<char,2>
FUNC 471ab 13 0 free_crt_array<char,7>
FUNC 471c2 13 0 free_crt_array<char,12>
FUNC 471d9 13 0 free_crt_array<wchar_t,2>
FUNC 471f0 13 0 free_crt_array<wchar_t,7>
FUNC 47207 13 0 free_crt_array<wchar_t,12>
FUNC 4721e 10 0 __crt_unique_heap_ptr<__crt_lc_time_data,__crt_internal_free_policy>::__crt_unique_heap_ptr<__crt_lc_time_data,__crt_internal_free_policy>(__crt_lc_time_data * const)
FUNC 47232 12 0 __crt_unique_heap_ptr<__crt_lc_time_data,__crt_internal_free_policy>::~__crt_unique_heap_ptr<__crt_lc_time_data,__crt_internal_free_policy>()
FUNC 47248 7 0 __crt_unique_heap_ptr<__crt_lc_time_data,__crt_internal_free_policy>::operator bool()
FUNC 4724f 6 0 __crt_unique_heap_ptr<__crt_lc_time_data,__crt_internal_free_policy>::detach()
FUNC 47255 38 0 free_crt_array_internal
FUNC 4729b 3 0 __crt_unique_heap_ptr<__crt_lc_time_data,__crt_internal_free_policy>::get()
FUNC 4729e 61 0 get_or_create_lc_time
FUNC 47317 27c 0 initialize_lc_time
FUNC 47632 7 0 __crt_unique_heap_ptr<__crt_lc_time_data,__crt_internal_free_policy>::is_valid()
FUNC 47639 12 0 __crt_unique_heap_ptr<__crt_lc_time_data,__crt_internal_free_policy>::release()
FUNC 4764f e4 0 __acrt_locale_free_time
FUNC 4776c 7b 0 __acrt_locale_initialize_time
FUNC 47805 72 0 common_tcscat_s<wchar_t>
FUNC 47893 75 0 wcscat_s
FUNC 47925 e7 0 common_tcsncat_s<wchar_t>
FUNC 47a45 b 0 wcsncat_s
FUNC 47a52 59 0 wcscspn
FUNC 47ac1 87 0 GetLocaleNameFromDefault
FUNC 47b69 99 0 GetLocaleNameFromLangCountry
FUNC 47c28 59 0 GetLocaleNameFromLanguage
FUNC 47c97 34 0 GetPrimaryLen
FUNC 47cd8 2e0 0 LangCountryEnumProcEx
FUNC 48070 bf 0 LanguageEnumProcEx
FUNC 4815e f6 0 ProcessCodePage
FUNC 48291 4d 0 TestDefaultCountry
FUNC 482f1 46 0 TestDefaultLanguage
FUNC 48348 6d 0 TranslateName
FUNC 483d0 1fb 0 __acrt_get_qualified_locale
FUNC 48649 a7 0 CountryEnumProc
FUNC 48719 4b 0 GetLcidFromCountry
FUNC 48776 1e 0 GetLcidFromDefault
FUNC 4879b 9b 0 GetLcidFromLangCountry
FUNC 4885c 5f 0 GetLcidFromLanguage
FUNC 488d2 2c 0 GetPrimaryLen
FUNC 48909 253 0 LangCountryEnumProc
FUNC 48bf0 d5 0 LanguageEnumProc
FUNC 48cfa 51 0 LcidFromHexString
FUNC 48d5f e1 0 ProcessCodePage
FUNC 48e78 25 0 TestDefaultCountry
FUNC 48ea6 6e 0 TestDefaultLanguage
FUNC 48f2f 61 0 TranslateName
FUNC 48fa8 1f5 0 __acrt_get_qualified_locale_downlevel
FUNC 4921a 19 0 __acrt_GetStringTypeW
FUNC 49239 1c 0 __strncnt
FUNC 4925c 65 0 __acrt_CompareStringW
FUNC 492da 4f 0 __ascii_wcsnicmp
FUNC 4933c 2b 0 _towlower_fast_internal
FUNC 49371 3f 0 _towlower_internal
FUNC 493bf 4c 0 _wcsnicmp
FUNC 4941e d3 0 _wcsnicmp_l
FUNC 49525 6d 0 _strnicmp
FUNC 495ad c9 0 _strnicmp_l
FUNC 496a8 28b 0 InternalCompareStringA
FUNC 499d5 46 0 __acrt_CompareStringA
FUNC 49a2c 3 4 issue_debug_notification
FUNC 49a2f 20 0 should_write_error_to_console
FUNC 49a57 7b 0 write_string_to_console
FUNC 49af0 115 0 __acrt_report_runtime_error
FUNC 49c4a 6 0 _query_app_type
FUNC 49c50 f 0 _set_app_type
FUNC 49c62 f2 0 common_lseek<long>
FUNC 49d90 10c 0 common_lseek<__int64>
FUNC 49edf 57 0 common_lseek_nolock<long>
FUNC 49f4b 7c 0 common_lseek_nolock<__int64>
FUNC 49fe6 82 0 common_lseek_do_seek_nolock
FUNC 4a088 3d 0 common_lseek_do_seek_nolock
FUNC 4a0d4 b 0 _lseek
FUNC 4a0e1 b 0 _lseek_nolock
FUNC 4a0ee 1b 0 _lseeki64
FUNC 4a10f 1b 0 _lseeki64_nolock
FUNC 4a130 68 0 __crt_seh_guarded_call<unsigned short>::operator()<<lambda_f828341fbe69b7c0d4c527b01f22877f>,<lambda_9e0b6ab72a5b3ae37ad997d08b519f50> &,<lambda_f01deac0a8d65d6e0411edf7e0af5775> >
FUNC 4a1b2 26 0 __acrt_lock_and_call<<lambda_9e0b6ab72a5b3ae37ad997d08b519f50> >
FUNC 4a1e1 10 0 <lambda_9e0b6ab72a5b3ae37ad997d08b519f50>::<lambda_9e0b6ab72a5b3ae37ad997d08b519f50>
FUNC 4a1f5 12 0 <lambda_f01deac0a8d65d6e0411edf7e0af5775>::<lambda_f01deac0a8d65d6e0411edf7e0af5775>
FUNC 4a20b 12 0 <lambda_f828341fbe69b7c0d4c527b01f22877f>::<lambda_f828341fbe69b7c0d4c527b01f22877f>
FUNC 4a221 d 0 <lambda_9e0b6ab72a5b3ae37ad997d08b519f50>::operator()
FUNC 4a231 9 0 <lambda_f01deac0a8d65d6e0411edf7e0af5775>::operator()
FUNC 4a23c 9 0 <lambda_f828341fbe69b7c0d4c527b01f22877f>::operator()
FUNC 4a247 2d 0 _putwch
FUNC 4a27f 32 0 _putwch_nolock
FUNC 4a2bd 161 0 translate_text_mode_nolock<char>
FUNC 4a476 1d1 0 translate_text_mode_nolock<wchar_t>
FUNC 4a6bb 23 0 store_lookahead
FUNC 4a6e6 41 0 store_lookahead
FUNC 4a737 157 0 translate_ansi_or_utf8_nolock
FUNC 4a8e3 7b 0 translate_utf16_from_console_nolock
FUNC 4a97c 114 0 _read
FUNC 4aad5 3b0 0 _read_nolock
FUNC 4af71 77 0 _fclose_nolock
FUNC 4b005 84 0 fclose
FUNC 4b0aa 1a7 0 __crt_mbstring::__mbrtoc32_utf8(char32_t *,char const *,unsigned int,_Mbstatet *)
FUNC 4b2ba b 0 mbrtoc32
FUNC 4b2c7 df 0 InternalGetLocaleInfoA
FUNC 4b3dd 1b0 0 __acrt_GetLocaleInfoA
FUNC 4b5f9 1d 0 fegetenv
FUNC 4b61d 4b 0 fesetenv
FUNC 4b67a 4d 0 feholdexcept
FUNC 4b6e0 3b 0 _CIlog10
FUNC 4b71b d5 0 _CIlog10_default
PUBLIC 4b72f 0 _log10_default
FUNC 4b840 40 0 ceil
FUNC 4b880 dd 0 _ceil_pentium4
FUNC 4b9a4 59 0 __acrt_stdio_allocate_buffer_nolock
FUNC 4ba13 a0 0 common_xtox<unsigned long,char>
FUNC 4badb b3 0 common_xtox<unsigned long,wchar_t>
FUNC 4bbba c7 0 common_xtox<unsigned __int64,char>
FUNC 4bcb2 dc 0 common_xtox<unsigned __int64,wchar_t>
FUNC 4bdc5 70 0 common_xtox_s<unsigned long,char>
FUNC 4be51 72 0 common_xtox_s<unsigned long,wchar_t>
FUNC 4bedf 73 0 common_xtox_s<unsigned __int64,char>
FUNC 4bf6e 75 0 common_xtox_s<unsigned __int64,wchar_t>
FUNC 4c000 41 0 _i64toa
FUNC 4c051 3f 0 _i64toa_s
FUNC 4c09f 41 0 _i64tow
FUNC 4c0f0 3f 0 _i64tow_s
FUNC 4c13e 35 0 _itoa
FUNC 4c180 33 0 _itoa_s
FUNC 4c1bf 35 0 _itow
FUNC 4c201 33 0 _itow_s
FUNC 4c240 35 0 _ltoa
FUNC 4c282 33 0 _ltoa_s
FUNC 4c2c1 35 0 _ltow
FUNC 4c303 33 0 _ltow_s
FUNC 4c342 22 0 _ui64toa
FUNC 4c36c 20 0 _ui64toa_s
FUNC 4c394 22 0 _ui64tow
FUNC 4c3be 20 0 _ui64tow_s
FUNC 4c3e6 1f 0 _ultoa
FUNC 4c40c 1d 0 _ultoa_s
FUNC 4c430 1f 0 _ultow
FUNC 4c456 1d 0 _ultow_s
FUNC 4c47a 3d 0 __ascii_wcsicmp
FUNC 4c4c6 49 0 _wcsicmp
FUNC 4c521 b8 0 _wcsicmp_l
FUNC 4c607 a2 0 _towlower_l
FUNC 4c6d1 13 0 towlower
FUNC 4c6f0 61 0 __ascii_strnicmp
FUNC 4c769 3f 0 _set_error_mode
FUNC 4c7b7 7d 0 common_show_message_box<char>
FUNC 4c853 7e 0 common_show_message_box<wchar_t>
FUNC 4c8f0 20 0 __crt_char_traits<char>::message_box<std::nullptr_t,char const * const &,char const * const &,unsigned long>(std::nullptr_t &&,char const * const &,char const * const &,unsigned long &&)
FUNC 4c918 20 0 __crt_char_traits<wchar_t>::message_box<std::nullptr_t,wchar_t const * const &,wchar_t const * const &,unsigned long>(std::nullptr_t &&,wchar_t const * const &,wchar_t const * const &,unsigned long &&)
FUNC 4c940 20 0 __crt_char_traits<char>::message_box<HWND__ *,char const * const &,char const * const &,unsigned int const &>(HWND__ * &&,char const * const &,char const * const &,unsigned int const &)
FUNC 4c968 20 0 __crt_char_traits<wchar_t>::message_box<HWND__ *,wchar_t const * const &,wchar_t const * const &,unsigned int const &>(HWND__ * &&,wchar_t const * const &,wchar_t const * const &,unsigned int const &)
FUNC 4c990 11 0 __crt_char_traits<char>::output_debug_string<char const * const &>(char const * const &)
FUNC 4c9a5 12 0 __crt_char_traits<wchar_t>::output_debug_string<wchar_t const * const &>(wchar_t const * const &)
FUNC 4c9bb b 0 __acrt_show_narrow_message_box
FUNC 4c9c8 b 0 __acrt_show_wide_message_box
FUNC 4c9d5 58 0 console_output_reopen_and_retry<<lambda_61c1b8a38cedca4df5fdc542e6ccae6d> >
FUNC 4ca43 22 0 <lambda_61c1b8a38cedca4df5fdc542e6ccae6d>::<lambda_61c1b8a38cedca4df5fdc542e6ccae6d>
FUNC 4ca6d 17 0 <lambda_61c1b8a38cedca4df5fdc542e6ccae6d>::operator()
FUNC 4ca89 1f 0 __dcrt_lowio_initialize_console_output
FUNC 4caaf 1f 0 __dcrt_lowio_ensure_console_output_initialized
FUNC 4cad5 17 0 __dcrt_terminate_console_output
FUNC 4caf1 55 0 __dcrt_write_console
FUNC 4cb5b 8c 0 __crt_seh_guarded_call<int>::operator()<<lambda_218ce3db14220d0be481dae8ef3383b6>,<lambda_628dfdc04ba53c8bfc02c9951375f3f5> &,<lambda_57dc472bd5c9d5f3b2cbca59b8a843ae> >
FUNC 4cc0a 26 0 __acrt_lowio_lock_fh_and_call<<lambda_628dfdc04ba53c8bfc02c9951375f3f5> >
FUNC 4cc39 12 0 <lambda_218ce3db14220d0be481dae8ef3383b6>::<lambda_218ce3db14220d0be481dae8ef3383b6>
FUNC 4cc4f 12 0 <lambda_57dc472bd5c9d5f3b2cbca59b8a843ae>::<lambda_57dc472bd5c9d5f3b2cbca59b8a843ae>
FUNC 4cc65 10 0 <lambda_628dfdc04ba53c8bfc02c9951375f3f5>::<lambda_628dfdc04ba53c8bfc02c9951375f3f5>
FUNC 4cc79 9 0 <lambda_218ce3db14220d0be481dae8ef3383b6>::operator()
FUNC 4cc84 9 0 <lambda_57dc472bd5c9d5f3b2cbca59b8a843ae>::operator()
FUNC 4cc8f 39 0 <lambda_628dfdc04ba53c8bfc02c9951375f3f5>::operator()
FUNC 4ccd6 6a 0 close_os_handle_nolock
FUNC 4cd5a 8d 0 _close
FUNC 4ce0a 9c 0 _close_nolock
FUNC 4cecd 12 0 __crt_internal_free_policy::operator()<__crt_stdio_stream_data>(__crt_stdio_stream_data const * const)
FUNC 4cee3 10 0 __crt_unique_heap_ptr<__crt_stdio_stream_data,__crt_internal_free_policy>::__crt_unique_heap_ptr<__crt_stdio_stream_data,__crt_internal_free_policy>(__crt_stdio_stream_data * const)
FUNC 4cef7 6 0 __crt_stdio_stream::__crt_stdio_stream()
FUNC 4cefd 12 0 __crt_unique_heap_ptr<__crt_stdio_stream_data,__crt_internal_free_policy>::~__crt_unique_heap_ptr<__crt_stdio_stream_data,__crt_internal_free_policy>()
FUNC 4cf13 69 0 __acrt_stdio_allocate_stream()
FUNC 4cf96 3b 0 __acrt_stdio_free_stream(__crt_stdio_stream)
FUNC 4cfdf a 0 __crt_stdio_stream::deallocate()
FUNC 4cfeb 6 0 __crt_unique_heap_ptr<__crt_stdio_stream_data,__crt_internal_free_policy>::detach()
FUNC 4cff1 c2 0 find_or_allocate_unused_stream_nolock
FUNC 4d0e3 9 0 __crt_stdio_stream::lock()
FUNC 4d0ee 12 0 __crt_unique_heap_ptr<__crt_stdio_stream_data,__crt_internal_free_policy>::release()
FUNC 4d104 20 0 __crt_stdio_stream::try_allocate()
FUNC 4d12c 9 0 __crt_stdio_stream::unlock()
FUNC 4d137 12 0 __acrt_fenv_shift_bits<__acrt_fenv_abstract_control>(__acrt_fenv_abstract_control,__acrt_fenv_abstract_control,unsigned int)
FUNC 4d14d 12 0 __acrt_fenv_shift_bits<__acrt_fenv_abstract_status>(__acrt_fenv_abstract_status,__acrt_fenv_abstract_status,unsigned int)
FUNC 4d163 18 0 __acrt_fenv_translate_bit<__acrt_fenv_abstract_control,__acrt_fenv_machine_sse_control>(__acrt_fenv_machine_sse_control,__acrt_fenv_machine_sse_control,__acrt_fenv_abstract_control,__acrt_fenv_abstract_control)
FUNC 4d181 18 0 __acrt_fenv_translate_bit<__acrt_fenv_abstract_control,__acrt_fenv_machine_x87_control>(__acrt_fenv_machine_x87_control,__acrt_fenv_machine_x87_control,__acrt_fenv_abstract_control,__acrt_fenv_abstract_control)
FUNC 4d19f 15 0 __acrt_fenv_translate_bit<__acrt_fenv_abstract_status,__acrt_fenv_machine_sse_status>(__acrt_fenv_machine_sse_status,__acrt_fenv_machine_sse_status,__acrt_fenv_abstract_status,__acrt_fenv_abstract_status)
FUNC 4d1b9 15 0 __acrt_fenv_translate_bit<__acrt_fenv_abstract_status,__acrt_fenv_machine_x87_status>(__acrt_fenv_machine_x87_status,__acrt_fenv_machine_x87_status,__acrt_fenv_abstract_status,__acrt_fenv_abstract_status)
FUNC 4d1d3 17 0 __acrt_fenv_translate_bit<__acrt_fenv_machine_sse_control,__acrt_fenv_abstract_control>(__acrt_fenv_abstract_control,__acrt_fenv_abstract_control,__acrt_fenv_machine_sse_control,__acrt_fenv_machine_sse_control)
FUNC 4d1ef 15 0 __acrt_fenv_translate_bit<__acrt_fenv_machine_sse_status,__acrt_fenv_abstract_status>(__acrt_fenv_abstract_status,__acrt_fenv_abstract_status,__acrt_fenv_machine_sse_status,__acrt_fenv_machine_sse_status)
FUNC 4d209 17 0 __acrt_fenv_translate_bit<__acrt_fenv_machine_x87_control,__acrt_fenv_abstract_control>(__acrt_fenv_abstract_control,__acrt_fenv_abstract_control,__acrt_fenv_machine_x87_control,__acrt_fenv_machine_x87_control)
FUNC 4d225 15 0 __acrt_fenv_translate_bit<__acrt_fenv_machine_x87_status,__acrt_fenv_abstract_status>(__acrt_fenv_abstract_status,__acrt_fenv_abstract_status,__acrt_fenv_machine_x87_status,__acrt_fenv_machine_x87_status)
FUNC 4d23f 12 0 __acrt_fenv_unshift_bits<__acrt_fenv_abstract_control>(__acrt_fenv_abstract_control,__acrt_fenv_abstract_control,unsigned int)
FUNC 4d255 12 0 __acrt_fenv_unshift_bits<__acrt_fenv_abstract_status>(__acrt_fenv_abstract_status,__acrt_fenv_abstract_status,unsigned int)
FUNC 4d26b 4e 0 to_abstract_status<enum __acrt_fenv_machine_sse_status>
FUNC 4d2cc 4e 0 to_abstract_status<enum __acrt_fenv_machine_x87_status>
FUNC 4d32d 51 0 translate_control_exception_mask<enum __acrt_fenv_abstract_control,enum __acrt_fenv_machine_sse_control>
FUNC 4d392 4e 0 translate_control_exception_mask<enum __acrt_fenv_abstract_control,enum __acrt_fenv_machine_x87_control>
FUNC 4d3f3 60 0 translate_control_exception_mask<enum __acrt_fenv_machine_sse_control,enum __acrt_fenv_abstract_control>
FUNC 4d46b 54 0 translate_control_exception_mask<enum __acrt_fenv_machine_x87_control,enum __acrt_fenv_abstract_control>
FUNC 4d4d4 13 0 translate_control_infinity_control<enum __acrt_fenv_abstract_control,enum __acrt_fenv_machine_x87_control>
FUNC 4d4eb 19 0 translate_control_infinity_control<enum __acrt_fenv_machine_x87_control,enum __acrt_fenv_abstract_control>
FUNC 4d50a 28 0 translate_control_precision_control<enum __acrt_fenv_abstract_control,enum __acrt_fenv_machine_x87_control>
FUNC 4d53c 28 0 translate_control_precision_control<enum __acrt_fenv_machine_x87_control,enum __acrt_fenv_abstract_control>
FUNC 4d56e 3c 0 translate_control_rounding_control<enum __acrt_fenv_abstract_control,enum __acrt_fenv_machine_sse_control>
FUNC 4d5b9 3c 0 translate_control_rounding_control<enum __acrt_fenv_abstract_control,enum __acrt_fenv_machine_x87_control>
FUNC 4d604 3c 0 translate_control_rounding_control<enum __acrt_fenv_machine_sse_control,enum __acrt_fenv_abstract_control>
FUNC 4d64f 3c 0 translate_control_rounding_control<enum __acrt_fenv_machine_x87_control,enum __acrt_fenv_abstract_control>
FUNC 4d69a 4e 0 translate_status<enum __acrt_fenv_abstract_status,enum __acrt_fenv_machine_sse_status>
FUNC 4d6fb 4e 0 translate_status<enum __acrt_fenv_abstract_status,enum __acrt_fenv_machine_x87_status>
FUNC 4d75c 4e 0 translate_status<enum __acrt_fenv_machine_sse_status,enum __acrt_fenv_abstract_status>
FUNC 4d7bd 4e 0 translate_status<enum __acrt_fenv_machine_x87_status,enum __acrt_fenv_abstract_status>
FUNC 4d81e d 0 operator&(__acrt_fenv_abstract_control,__acrt_fenv_abstract_control)
FUNC 4d82e d 0 operator&(__acrt_fenv_abstract_status,__acrt_fenv_abstract_status)
FUNC 4d83e d 0 operator&(__acrt_fenv_machine_sse_control,__acrt_fenv_machine_sse_control)
FUNC 4d84e d 0 operator&(__acrt_fenv_machine_sse_status,__acrt_fenv_machine_sse_status)
FUNC 4d85e d 0 operator&(__acrt_fenv_machine_x87_control,__acrt_fenv_machine_x87_control)
FUNC 4d86e d 0 operator&(__acrt_fenv_machine_x87_status,__acrt_fenv_machine_x87_status)
FUNC 4d87e d 0 operator|(__acrt_fenv_abstract_control,__acrt_fenv_abstract_control)
FUNC 4d88e d 0 operator|(__acrt_fenv_abstract_status,__acrt_fenv_abstract_status)
FUNC 4d89e d 0 operator|(__acrt_fenv_machine_sse_control,__acrt_fenv_machine_sse_control)
FUNC 4d8ae d 0 operator|(__acrt_fenv_machine_x87_control,__acrt_fenv_machine_x87_control)
FUNC 4d8be f 0 operator|=(__acrt_fenv_abstract_control &,__acrt_fenv_abstract_control)
FUNC 4d8d0 f 0 operator|=(__acrt_fenv_abstract_status &,__acrt_fenv_abstract_status)
FUNC 4d8e2 11 0 operator|=(__acrt_fenv_machine_sse_control &,__acrt_fenv_machine_sse_control)
FUNC 4d8f7 f 0 operator|=(__acrt_fenv_machine_sse_status &,__acrt_fenv_machine_sse_status)
FUNC 4d909 11 0 operator|=(__acrt_fenv_machine_x87_control &,__acrt_fenv_machine_x87_control)
FUNC 4d91e f 0 operator|=(__acrt_fenv_machine_x87_status &,__acrt_fenv_machine_x87_status)
FUNC 4d930 1d 0 __acrt_fenv_shift_abstract_sse_control(__acrt_fenv_abstract_control)
FUNC 4d954 10 0 __acrt_fenv_shift_abstract_sse_status(__acrt_fenv_abstract_status)
FUNC 4d968 1d 0 __acrt_fenv_shift_abstract_x87_control(__acrt_fenv_abstract_control)
FUNC 4d98c 10 0 __acrt_fenv_shift_abstract_x87_status(__acrt_fenv_abstract_status)
FUNC 4d9a0 1f 0 __acrt_fenv_unshift_abstract_sse_control(__acrt_fenv_abstract_control)
FUNC 4d9c6 10 0 __acrt_fenv_unshift_abstract_sse_status(__acrt_fenv_abstract_status)
FUNC 4d9da 1f 0 __acrt_fenv_unshift_abstract_x87_control(__acrt_fenv_abstract_control)
FUNC 4da00 10 0 __acrt_fenv_unshift_abstract_x87_status(__acrt_fenv_abstract_status)
FUNC 4da14 21 0 get_machine_sse_control
FUNC 4da3d 1f 0 get_machine_sse_status
FUNC 4da63 24 0 get_machine_x87_control
FUNC 4da90 18 0 get_machine_x87_status
FUNC 4daae 2f 0 set_machine_sse_control
FUNC 4dae8 2a 0 set_machine_sse_status
FUNC 4db1c 2e 0 set_machine_x87_control
FUNC 4db55 2c 0 set_machine_x87_status
FUNC 4db8c bc 0 to_abstract_control
FUNC 4dc77 b9 0 to_abstract_control
FUNC 4dd5e cd 0 to_machine_sse_control
FUNC 4de5e 50 0 to_machine_sse_status
FUNC 4dec2 cb 0 to_machine_x87_control
FUNC 4dfbf 50 0 to_machine_x87_status
FUNC 4e023 3b 0 translate_control_denormal_control_from_sse
FUNC 4e06c 38 0 translate_control_denormal_control_to_sse
FUNC 4e0b2 36 0 __acrt_fenv_expand_round_control
FUNC 4e0f5 22 0 __acrt_fenv_get_common_round_control
FUNC 4e11f 80 0 __acrt_fenv_get_control
FUNC 4e1bf 1a 0 __acrt_fenv_get_fp_status_word_from_exception_mask
FUNC 4e1df b8 0 __acrt_fenv_get_status
FUNC 4e2c5 68 0 __acrt_fenv_set_control
FUNC 4e347 f7 0 __acrt_fenv_set_status
FUNC 4e47b aa 0 __abstract_cw_sse2
FUNC 4e54f 43 0 __abstract_sw_sse2
FUNC 4e5a2 56 0 __clearfp_sse2
FUNC 4e60d 318 0 __control87_2
FUNC 4e9eb 180 0 __control87_sse2
FUNC 4ebcb c 0 __fpreset_sse2
FUNC 4ebda a7 0 __hw_cw_sse2
FUNC 4ecaa 41 0 __statusfp_sse2
FUNC 4ecfb 9f 0 _abstract_cw
FUNC 4edc1 43 0 _abstract_sw
FUNC 4ee14 de 0 _clearfp
FUNC 4ef29 301 0 _control87
FUNC 4f2ea 1a 0 _controlfp
FUNC 4f30a 32 0 _fpreset
FUNC 4f348 9e 0 _hw_cw
FUNC 4f40d 73 0 _set_controlfp
FUNC 4f49c 9b 0 _statusfp
FUNC 4f55d 63 0 _statusfp2
FUNC 4f5d8 10 0 __acrt_initialize_sse2
FUNC 4f5ec 21 0 _set_SSE2_enable
FUNC 4f620 284 0 _CIlog10_pentium4
PUBLIC 4f638 0 _log10_pentium4
FUNC 4f980 d 0 _fFEXP
PUBLIC 4f9d7 0 _rtinfpopse
PUBLIC 4f9d9 0 _rtinfnpopse
PUBLIC 4f9e9 0 _fFLN
PUBLIC 4fa9e 0 _rtinfpop
PUBLIC 4faa0 0 _rtinfnpop
FUNC 4fab0 d 0 _rtforexpinf
PUBLIC 4fabd 0 _ffexpm1
FUNC 4fbf0 75 0 _trandisp1
FUNC 4fc65 9a 0 _trandisp2
PUBLIC 4fcff 0 _rttospopde
PUBLIC 4fd04 0 _rttospop
FUNC 4fd10 2 0 _rtnospop
FUNC 4fd20 1 0 _rttosnpop
PUBLIC 4fd21 0 _rtnospopde
PUBLIC 4fd28 0 _rtzeropop
PUBLIC 4fd2a 0 _rtzeronpop
FUNC 4fd30 c 0 _rtzerospop
PUBLIC 4fd3d 0 _rtonepop
FUNC 4fd40 5 0 _rtonenpop
FUNC 4fd50 1d 0 _tosnan1
FUNC 4fd80 2 0 _nosnan2
FUNC 4fd90 28 0 _tosnan2
FUNC 4fdc0 3f 0 _nan2
FUNC 4fe00 2 0 _rtindfpop
PUBLIC 4fe02 0 _rtindfnpop
PUBLIC 4fe13 0 _rttosnpopde
FUNC 4fe20 1d 0 _rtatan2inf
PUBLIC 4fe3d 0 _rtchsifneg
FUNC 4fed9 15 0 __setfflag
FUNC 4ff00 15 0 _twoToTOS
FUNC 4ff15 17 0 _load_CW
FUNC 4ff2c 19 0 _convertTOStoQNaN
FUNC 4ff45 43 0 _fload_withFB
FUNC 4ff88 16 0 _checkTOS_withFB
FUNC 4ff9e d 0 _fast_exit
FUNC 4ffab 2a 0 _math_exit
FUNC 4ffd5 14 0 _check_overflow_exit
FUNC 4ffe9 a3 0 _check_range_exit
FUNC 500f0 17 0 _startTwoArgErrorHandling
FUNC 50107 3c 0 _startOneArgErrorHandling
FUNC 50157 1f4 0 __libm_error_support
FUNC 503c8 27 0 __libm_setusermatherr
FUNC 503f8 b5 0 _ceil_default
FUNC 504da 3e 0 __acrt_LCMapStringW
FUNC 50527 6f 4 __acrt_OutputDebugStringA
FUNC 505b1 5f 0 _controlfp_s
FUNC 50627 21 0 __clrfp_sse2
FUNC 50650 3b 0 __ctrlfp_sse2
FUNC 50699 1d 0 __fclrf_sse2
FUNC 506bd 1c 0 __get_fpsr_sse2
FUNC 506e0 80 0 __set_fpsr_sse2
FUNC 50780 1b 0 __set_statfp_sse2
FUNC 507a1 15 0 __statfp_sse2
FUNC 507bb 11 0 _clrfp
FUNC 507d0 2a 0 _ctrlfp
FUNC 50804 59 0 _set_statfp
FUNC 50873 10 0 _statfp
FUNC 50887 68 0 _d_inttype
FUNC 50909 12b 0 _powhlp
FUNC 50a7e 10a 0 _87except
FUNC 50bca 14 0 _frnd
FUNC 50be3 34 0 _errcode
FUNC 50c24 ce 0 _except1
FUNC 50d25 e2 0 _except2
FUNC 50e3f 26 0 _get_fname
FUNC 50e6e 1eb 0 _handle_exc
FUNC 510d3 d 0 _handle_qnan2
FUNC 510e3 23 0 _raise_exc
FUNC 5110e 2f6 0 _raise_exc_ex
FUNC 514c1 23 0 _raise_excf
FUNC 514ec 2f 0 _set_errno_from_matherr
FUNC 51526 a0 0 _umatherr
FUNC 515ee 2f 0 _add_exp
FUNC 51628 d2 0 _decomp
FUNC 5172e 18 0 _get_exp
FUNC 5174c 27 0 _set_bexp
FUNC 5177c 2d 0 _set_exp
FUNC 517b4 5e 0 _sptype
FUNC 51829 1a3 0 _mbstowcs_l_helper
FUNC 51a34 b 0 _mbstowcs_l
FUNC 51a41 e0 0 _mbstowcs_s_l
FUNC 51b59 2a 0 mbstowcs
FUNC 51b8d 20 0 mbstowcs_s
FUNC 51bb5 28 0 _chgsign
FUNC 51be7 21 0 _chgsignf
FUNC 51c10 23 0 _copysign
FUNC 51c3b 1c 0 _copysignf
FUNC 51c5e 1a 0 _finite
FUNC 51c7e a4 0 _fpclass
FUNC 51d4b 36 0 _isnan
FUNC 51d8e cf 0 _logb
FUNC 51e90 1f 0 _nextafter
FUNC 51eb6 1a 0 _scalb
FUNC 51ed6 1f2 0 ldexp
FUNC 52144 1f 0 nextafter
FUNC 5216a 159 0 nexttoward
FUNC 52319 78 0 fperrraise_with
FUNC 523af 106 0 _d_int
FUNC 524f6 64 0 _dtest
FUNC 52573 cd 0 _fd_int
FUNC 52673 4e 0 _fdtest
FUNC 526d4 21 0 _fperrraise
FUNC 526fd b 0 _ld_int
FUNC 5270a b 0 _ldtest
FUNC 52717 f 0 operator&=(__acrt_fenv_abstract_status &,__acrt_fenv_abstract_status)
FUNC 52729 31 0 fegetexceptflag
FUNC 52766 c 0 operator~(__acrt_fenv_abstract_status)
FUNC 52775 59 0 fesetexceptflag
FUNC 527e4 20 0 fetestexcept
FUNC 52810 43 0 _FindPESection
FUNC 52870 ba 0 _IsNonwritableInCurrentImage
FUNC 52960 33 0 _ValidateImageBase
FUNC 5299f 15 0 _EH_epilog3
FUNC 529b9 11 0 _EH_epilog3_GS
FUNC 529ce 11 0 _EH_epilog3_catch_GS
FUNC 529e3 34 4 _EH_prolog3
FUNC 52a24 37 4 _EH_prolog3_GS
FUNC 52a68 37 4 _EH_prolog3_catch
FUNC 52aac 3a 4 _EH_prolog3_catch_GS
FUNC 52b00 95 0 _aulldvrm
FUNC 52bba 7 0 type_info::~type_info()
FUNC 52bc1 23 0 type_info::`scalar deleting destructor'(unsigned int)
FUNC 52bf0 34 0 _allmul
FUNC 52c40 df 0 _alldvrm
FUNC 52d60 1f 0 _aullshr
FUNC 52d90 2c 0 _alloca_probe_16
PUBLIC 52da6 0 _alloca_probe_8
FUNC 52dd0 2d 0 _chkstk
FUNC 52e10 1f 0 _allshl
FUNC 52e40 9 0 _ftol2_sse
FUNC 52e49 13 0 _ftol2_pentium4
FUNC 52e5c 1a 0 _ftol2_sse_excpt
FUNC 52e80 75 0 _ftol2
FUNC 52f22 21 0 _initialize_default_precision
PUBLIC 52f4b 8 InterlockedPushEntrySList
PUBLIC 52f51 4 InterlockedFlushSList
PUBLIC 52f57 10 RtlUnwind
PUBLIC 52f5d 0 GetLastError
PUBLIC 52f63 4 SetLastError
PUBLIC 52f69 4 EnterCriticalSection
PUBLIC 52f6f 4 LeaveCriticalSection
PUBLIC 52f75 4 DeleteCriticalSection
PUBLIC 52f7b 8 InitializeCriticalSectionAndSpinCount
PUBLIC 52f81 0 TlsAlloc
PUBLIC 52f87 4 TlsGetValue
PUBLIC 52f8d 8 TlsSetValue
PUBLIC 52f93 4 TlsFree
PUBLIC 52f99 4 FreeLibrary
PUBLIC 52f9f 8 GetProcAddress
PUBLIC 52fa5 c LoadLibraryExW
PUBLIC 52fab 4 EncodePointer
PUBLIC 52fb1 10 RaiseException
PUBLIC 52fb7 4 ExitProcess
PUBLIC 52fbd c GetModuleHandleExW
PUBLIC 52fc3 c GetModuleFileNameW
PUBLIC 52fc9 0 GetCurrentThread
PUBLIC 52fcf c HeapFree
PUBLIC 52fd5 c HeapAlloc
PUBLIC 52fdb 4 FindClose
PUBLIC 52fe1 18 FindFirstFileExW
PUBLIC 52fe7 8 FindNextFileW
PUBLIC 52fed 4 IsValidCodePage
PUBLIC 52ff3 0 GetACP
PUBLIC 52ff9 0 GetOEMCP
PUBLIC 52fff 8 GetCPInfo
PUBLIC 53005 0 GetCommandLineA
PUBLIC 5300b 0 GetCommandLineW
PUBLIC 53011 18 MultiByteToWideChar
PUBLIC 53017 20 WideCharToMultiByte
PUBLIC 5301d 0 GetEnvironmentStringsW
PUBLIC 53023 4 FreeEnvironmentStringsW
PUBLIC 53029 8 SetEnvironmentVariableW
PUBLIC 5302f 18 GetDateFormatW
PUBLIC 53035 18 GetTimeFormatW
PUBLIC 5303b 18 CompareStringW
PUBLIC 53041 18 LCMapStringW
PUBLIC 53047 10 GetLocaleInfoW
PUBLIC 5304d 8 IsValidLocale
PUBLIC 53053 0 GetUserDefaultLCID
PUBLIC 53059 8 EnumSystemLocalesW
PUBLIC 5305f 0 GetProcessHeap
PUBLIC 53065 4 GetStdHandle
PUBLIC 5306b 4 GetFileType
PUBLIC 53071 8 SetConsoleCtrlHandler
PUBLIC 53077 10 GetStringTypeW
PUBLIC 5307d c HeapSize
PUBLIC 53083 10 HeapReAlloc
PUBLIC 53089 8 SetStdHandle
PUBLIC 5308f 4 FlushFileBuffers
PUBLIC 53095 14 WriteFile
PUBLIC 5309b 0 GetConsoleCP
PUBLIC 530a1 8 GetConsoleMode
PUBLIC 530a7 8 GetFileSizeEx
PUBLIC 530ad 14 SetFilePointerEx
PUBLIC 530b3 14 ReadFile
PUBLIC 530b9 14 ReadConsoleW
PUBLIC 530bf 4 OutputDebugStringW
PUBLIC 530c5 1c CreateFileW
PUBLIC 530cb 4 CloseHandle
PUBLIC 530d1 14 WriteConsoleW
PUBLIC 530d7 4 DecodePointer
FUNC 530e0 12b 0 strchr
PUBLIC 5314e 0 __from_strstr_to_strchr
FUNC 53255 c7 0 wcschr
FUNC 53350 137 0 strrchr
FUNC 534d4 25 0 cmpBYTE
FUNC 53502 65 0 cmpDWORD
FUNC 53580 1c 0 cmpResult
FUNC 535a3 4f 0 cmpWORD
FUNC 53605 fa4 0 memcmp
FUNC 54992 de0 0 unaligned_memcmp
STACK WIN 4 6b20 b 0 0 4 0 0 0 1 $T0 .raSearch = $eip $T0 ^ = $esp $T0 4 + = 
STACK WIN 4 6b30 1 0 0 8 0 0 0 1 $T0 .raSearch = $eip $T0 ^ = $esp $T0 4 + = 
STACK WIN 4 6b40 1 0 0 c 0 0 0 1 $T0 .raSearch = $eip $T0 ^ = $esp $T0 4 + = 
STACK WIN 4 6b50 1 0 0 10 0 0 0 1 $T0 .raSearch = $eip $T0 ^ = $esp $T0 4 + = 
STACK WIN 4 6b60 41 1 0 28 0 0 0 1 $T0 .raSearch = $eip $T0 ^ = $esp $T0 4 + = 
STACK WIN 4 6b61 40 0 0 28 4 0 0 1 $T0 .raSearch = $eip $T0 ^ = $esp $T0 4 + = $esi $T0 4 - ^ = 
STACK WIN 4 6bc0 1 0 0 c 0 0 0 1 $T0 .raSearch = $eip $T0 ^ = $esp $T0 4 + = 
STACK WIN 4 6bd0 3 0 0 4 0 0 0 1 $T0 .raSearch = $eip $T0 ^ = $esp $T0 4 + = 
STACK WIN 4 6be0 3 0 0 4 0 0 0 1 $T0 .raSearch = $eip $T0 ^ = $esp $T0 4 + = 
STACK WIN 4 6bf0 3 0 0 4 0 0 0 1 $T0 .raSearch = $eip $T0 ^ = $esp $T0 4 + = 
STACK WIN 4 6c00 3 0 0 4 0 0 0 1 $T0 .raSearch = $eip $T0 ^ = $esp $T0 4 + = 
STACK WIN 4 6c10 3 0 0 10 0 0 0 1 $T0 .raSearch = $eip $T0 ^ = $esp $T0 4 + = 
STACK WIN 4 6c20 3 0 0 10 0 0 0 1 $T0 .raSearch = $eip $T0 ^ = $esp $T0 4 + = 
STACK WIN 4 6c30 3 0 0 0 0 0 0 1 $T0 .raSearch = $eip $T0 ^ = $esp $T0 4 + = 
STACK WIN 4 6c40 5 0 0 4 0 0 0 1 $T0 .raSearch = $eip $T0 ^ = $esp $T0 4 + = 
STACK WIN 4 6c50 1 0 0 0 0 0 0 1 $T0 .raSearch = $eip $T0 ^ = $esp $T0 4 + = 
STACK WIN 4 6c60 3 0 0 4 0 0 0 1 $T0 .raSearch = $eip $T0 ^ = $esp $T0 4 + = 
STACK WIN 4 6c70 3 0 0 8 0 0 0 1 $T0 .raSearch = $eip $T0 ^ = $esp $T0 4 + = 
STACK WIN 4 6c80 3 0 0 8 0 0 0 1 $T0 .raSearch = $eip $T0 ^ = $esp $T0 4 + = 
STACK WIN 4 6c90 3 0 0 4 0 0 0 1 $T0 .raSearch = $eip $T0 ^ = $esp $T0 4 + = 
STACK WIN 4 6ca0 5 0 0 8 0 0 0 1 $T0 .raSearch = $eip $T0 ^ = $esp $T0 4 + = 
STACK WIN 4 6cb0 1 0 0 8 0 0 0 1 $T0 .raSearch = $eip $T0 ^ = $esp $T0 4 + = 
STACK WIN 4 6cc0 7 0 0 c 0 0 0 1 $T0 .raSearch = $eip $T0 ^ = $esp $T0 4 + = 
STACK WIN 4 93f0 e 3 0 8 0 0 0 1 $T0 $ebp = $eip $T0 4 + ^ = $ebp $T0 ^ = $esp $T0 8 + = 
STACK WIN 4 9401 53 3 0 c 0 0 0 1 $T0 $ebp = $eip $T0 4 + ^ = $ebp $T0 ^ = $esp $T0 8 + = 
STACK WIN 4 9468 10a c 0 8 10 20 0 1 $T0 $ebp = $eip $T0 4 + ^ = $ebp $T0 ^ = $esp $T0 8 + =  $20 $T0 36 - ^ =  $23 $T0 40 - ^ =  $24 $T0 44 - ^ = 
STACK WIN 4 955d c 0 0 8 10 20 0 1 $T0 $ebp = $T2 $esp = $T1 .raSearchStart = $eip $T1 ^ = $ebp $T0 = $esp $T1 4 + = 
STACK WIN 4 95b4 92 c 0 4 10 1c 0 1 $T0 $ebp = $eip $T0 4 + ^ = $ebp $T0 ^ = $esp $T0 8 + =  $20 $T0 32 - ^ =  $23 $T0 36 - ^ =  $24 $T0 40 - ^ = 
STACK WIN 4 962f e 0 0 4 10 1c 0 1 $T0 $ebp = $T2 $esp = $T1 .raSearchStart = $eip $T1 ^ = $ebp $T0 = $esp $T1 4 + = 
STACK WIN 4 966a 106 c 0 c 10 1c 0 1 $T0 $ebp = $eip $T0 4 + ^ = $ebp $T0 ^ = $esp $T0 8 + =  $20 $T0 32 - ^ =  $23 $T0 36 - ^ =  $24 $T0 40 - ^ = 
STACK WIN 4 9730 1f 0 0 c 10 1c 0 1 $T0 $ebp = $T2 $esp = $T1 .raSearchStart = $eip $T1 ^ = $ebp $T0 = $esp $T1 4 + = 
STACK WIN 4 97b1 2b 4 0 c 0 0 0 1 $T0 $ebp = $eip $T0 4 + ^ = $ebp $T0 ^ = $esp $T0 8 + = 
STACK WIN 4 97b5 23 0 0 c 4 0 0 1 $T0 $ebp = $eip $T0 4 + ^ = $ebp $T0 ^ = $esp $T0 8 + =  $23 $T0 4 - ^ = 
STACK WIN 4 97e6 9 3 0 c 0 0 0 1 $T0 $ebp = $eip $T0 4 + ^ = $ebp $T0 ^ = $esp $T0 8 + = 
STACK WIN 4 97f1 23 3 0 c 0 0 0 1 $T0 $ebp = $eip $T0 4 + ^ = $ebp $T0 ^ = $esp $T0 8 + = 
STACK WIN 4 981c 5 0 0 4 0 0 0 1 $T0 $ebp = $eip $T0 4 + ^ = $ebp $T0 ^ = $esp $T0 8 + = 
STACK WIN 4 9821 4d 6 0 0 0 14 0 1 $T0 $ebp = $eip $T0 4 + ^ = $ebp $T0 ^ = $esp $T0 8 + = 
STACK WIN 4 9881 4b 8 0 0 0 0 0 1 $T0 .raSearch = $eip $T0 ^ = $esp $T0 4 + = 
STACK WIN 4 9888 43 1 0 0 4 0 0 1 $T0 .raSearch = $eip $T0 ^ = $esp $T0 4 + =  $23 $T0 4 - ^ = 
STACK WIN 4 9889 3b 0 0 0 8 0 0 1 $T0 .raSearch = $eip $T0 ^ = $esp $T0 4 + =  $23 $T0 4 - ^ =  $24 $T0 8 - ^ = 
STACK WIN 4 98de 6 0 0 c 0 0 0 1 $T0 .raSearch = $eip $T0 ^ = $esp $T0 4 + = 
STACK WIN 4 98e4 c 0 0 0 0 0 0 1 $T0 .raSearch = $eip $T0 ^ = $esp $T0 4 + = 
STACK WIN 4 98f3 c 0 0 0 0 0 0 1 $T0 .raSearch = $eip $T0 ^ = $esp $T0 4 + = 
STACK WIN 4 9902 6 0 0 0 0 0 0 1 $T0 .raSearch = $eip $T0 ^ = $esp $T0 4 + = 
STACK WIN 4 9908 6 0 0 0 0 0 0 1 $T0 .raSearch = $eip $T0 ^ = $esp $T0 4 + = 
STACK WIN 4 990e 1d 0 0 0 0 0 0 1 $T0 .raSearch = $eip $T0 ^ = $esp $T0 4 + = 
STACK WIN 4 9932 14 3 0 4 0 0 0 1 $T0 $ebp = $eip $T0 4 + ^ = $ebp $T0 ^ = $esp $T0 8 + = 
STACK WIN 4 994b 1d 3 0 4 0 0 0 1 $T0 $ebp = $eip $T0 4 + ^ = $ebp $T0 ^ = $esp $T0 8 + = 
STACK WIN 4 996f d 3 0 8 0 0 0 1 $T0 $ebp = $eip $T0 4 + ^ = $ebp $T0 ^ = $esp $T0 8 + = 
STACK WIN 4 997f d 0 0 0 0 0 0 1 $T0 .raSearch = $eip $T0 ^ = $esp $T0 4 + = 
STACK WIN 4 998f 44 7 0 8 0 0 0 1 $T0 $ebp = $eip $T0 4 + ^ = $ebp $T0 ^ = $esp $T0 8 + = 
STACK WIN 4 9996 37 0 0 8 4 0 0 1 $T0 $ebp = $eip $T0 4 + ^ = $ebp $T0 ^ = $esp $T0 8 + =  $23 $T0 4 - ^ = 
STACK WIN 4 99e4 5 0 0 0 0 0 0 1 $T0 .raSearch = $eip $T0 ^ = $esp $T0 4 + = 
STACK WIN 4 99e9 34 3 0 4 0 0 0 1 $T0 $ebp = $eip $T0 4 + ^ = $ebp $T0 ^ = $esp $T0 8 + = 
STACK WIN 4 9a2a 7 0 0 0 0 0 0 1 $T0 .raSearch = $eip $T0 ^ = $esp $T0 4 + = 
STACK WIN 4 9a31 32 1 0 0 0 0 0 1 $T0 .raSearch = $eip $T0 ^ = $esp $T0 4 + = 
STACK WIN 4 9a32 30 0 0 0 4 0 0 1 $T0 .raSearch = $eip $T0 ^ = $esp $T0 4 + =  $23 $T0 4 - ^ = 
STACK WIN 4 9a6f 2b 0 0 0 0 0 0 1 $T0 .raSearch = $eip $T0 ^ = $esp $T0 4 + = 
STACK WIN 4 9aa4 e 0 0 0 0 0 0 1 $T0 .raSearch = $eip $T0 ^ = $esp $T0 4 + = 
STACK WIN 4 9ab5 1f 0 0 0 0 0 0 1 $T0 .raSearch = $eip $T0 ^ = $esp $T0 4 + = 
STACK WIN 4 9adb d 0 0 0 0 0 0 1 $T0 .raSearch = $eip $T0 ^ = $esp $T0 4 + = 
STACK WIN 4 9aeb 34 3 0 18 0 0 0 1 $T0 $ebp = $eip $T0 4 + ^ = $ebp $T0 ^ = $esp $T0 8 + = 
STACK WIN 4 9b2c 23 0 0 0 0 0 0 1 $T0 .raSearch = $eip $T0 ^ = $esp $T0 4 + = 
STACK WIN 4 9b57 d 0 0 0 0 0 0 1 $T0 .raSearch = $eip $T0 ^ = $esp $T0 4 + = 
STACK WIN 4 9b67 39 3 0 4 0 0 0 1 $T0 $ebp = $eip $T0 4 + ^ = $ebp $T0 ^ = $esp $T0 8 + = 
STACK WIN 4 9bae a5 6 0 4 0 c 0 1 $T0 $ebp = $eip $T0 4 + ^ = $ebp $T0 ^ = $esp $T0 8 + = 
STACK WIN 4 9bc2 87 0 0 4 4 c 0 1 $T0 $ebp = $eip $T0 4 + ^ = $ebp $T0 ^ = $esp $T0 8 + =  $23 $T0 16 - ^ = 
STACK WIN 4 9c06 39 0 0 4 8 c 0 1 $T0 $ebp = $eip $T0 4 + ^ = $ebp $T0 ^ = $esp $T0 8 + =  $23 $T0 16 - ^ =  $24 $T0 20 - ^ = 
STACK WIN 4 9c7c 94 c 0 4 10 18 0 1 $T0 $ebp = $eip $T0 4 + ^ = $ebp $T0 ^ = $esp $T0 8 + =  $20 $T0 28 - ^ =  $23 $T0 32 - ^ =  $24 $T0 36 - ^ = 
STACK WIN 4 9ce1 13 0 0 4 10 18 0 1 $T0 $ebp = $T2 $esp = $T1 .raSearchStart = $eip $T1 ^ = $ebp $T0 = $esp $T1 4 + = 
STACK WIN 4 9d35 1d 3 0 4 0 0 0 1 $T0 $ebp = $eip $T0 4 + ^ = $ebp $T0 ^ = $esp $T0 8 + = 
STACK WIN 4 9d59 28 3 0 8 0 0 0 1 $T0 $ebp = $eip $T0 4 + ^ = $ebp $T0 ^ = $esp $T0 8 + = 
STACK WIN 4 9d8b 3b 3 0 4 0 0 0 1 $T0 $ebp = $eip $T0 4 + ^ = $ebp $T0 ^ = $esp $T0 8 + = 
STACK WIN 4 9dd4 31 3 0 4 0 0 0 1 $T0 $ebp = $eip $T0 4 + ^ = $ebp $T0 ^ = $esp $T0 8 + = 
STACK WIN 4 9e11 15 3 0 4 0 0 0 1 $T0 $ebp = $eip $T0 4 + ^ = $ebp $T0 ^ = $esp $T0 8 + = 
STACK WIN 4 9e2b 6 0 0 0 0 0 0 1 $T0 .raSearch = $eip $T0 ^ = $esp $T0 4 + = 
STACK WIN 4 9e31 11a a 0 4 4 324 0 1 $T0 $ebp = $eip $T0 4 + ^ = $ebp $T0 ^ = $esp $T0 8 + =  $20 $T0 808 - ^ = 
STACK WIN 4 9f91 31 6 0 0 0 44 0 1 $T0 $ebp = $eip $T0 4 + ^ = $ebp $T0 ^ = $esp $T0 8 + = 
STACK WIN 4 9fce 5 0 0 0 0 0 0 1 $T0 .raSearch = $eip $T0 ^ = $esp $T0 4 + = 
STACK WIN 4 9fd3 3 0 0 0 0 0 0 1 $T0 .raSearch = $eip $T0 ^ = $esp $T0 4 + = 
STACK WIN 4 9fd6 43 0 0 0 0 0 0 1 $T0 .raSearch = $eip $T0 ^ = $esp $T0 4 + = 
STACK WIN 4 a029 c 0 0 0 0 0 0 1 $T0 .raSearch = $eip $T0 ^ = $esp $T0 4 + = 
STACK WIN 4 a038 3 0 0 0 0 0 0 1 $T0 .raSearch = $eip $T0 ^ = $esp $T0 4 + = 
STACK WIN 4 a03b 41 3 0 4 0 0 0 1 $T0 $ebp = $eip $T0 4 + ^ = $ebp $T0 ^ = $esp $T0 8 + = 
STACK WIN 4 a08c 8 0 0 4 0 0 0 1 $T0 .raSearch = $eip $T0 ^ = $esp $T0 4 + = 
STACK WIN 4 a096 2c 2 0 0 0 0 0 1 $T0 .raSearch = $eip $T0 ^ = $esp $T0 4 + = 
STACK WIN 4 a097 2a 1 0 0 4 0 0 1 $T0 .raSearch = $eip $T0 ^ = $esp $T0 4 + =  $20 $T0 4 - ^ = 
STACK WIN 4 a098 28 0 0 0 8 0 0 1 $T0 .raSearch = $eip $T0 ^ = $esp $T0 4 + =  $20 $T0 4 - ^ =  $23 $T0 8 - ^ = 
STACK WIN 4 a0a7 18 0 0 0 c 0 0 1 $T0 .raSearch = $eip $T0 ^ = $esp $T0 4 + =  $20 $T0 4 - ^ =  $23 $T0 8 - ^ =  $24 $T0 12 - ^ = 
STACK WIN 4 a0cd 2c 2 0 0 0 0 0 1 $T0 .raSearch = $eip $T0 ^ = $esp $T0 4 + = 
STACK WIN 4 a0ce 2a 1 0 0 4 0 0 1 $T0 .raSearch = $eip $T0 ^ = $esp $T0 4 + =  $20 $T0 4 - ^ = 
STACK WIN 4 a0cf 28 0 0 0 8 0 0 1 $T0 .raSearch = $eip $T0 ^ = $esp $T0 4 + =  $20 $T0 4 - ^ =  $23 $T0 8 - ^ = 
STACK WIN 4 a0de 18 0 0 0 c 0 0 1 $T0 .raSearch = $eip $T0 ^ = $esp $T0 4 + =  $20 $T0 4 - ^ =  $23 $T0 8 - ^ =  $24 $T0 12 - ^ = 
STACK WIN 4 a181 1 0 0 0 0 0 0 1 $T0 .raSearch = $eip $T0 ^ = $esp $T0 4 + = 
STACK WIN 4 a182 a 3 0 4 0 0 0 1 $T0 $ebp = $eip $T0 4 + ^ = $ebp $T0 ^ = $esp $T0 8 + = 
STACK WIN 4 a18e a 3 0 4 0 0 0 1 $T0 $ebp = $eip $T0 4 + ^ = $ebp $T0 ^ = $esp $T0 8 + = 
STACK WIN 4 a19a 12 0 0 0 0 0 0 1 $T0 .raSearch = $eip $T0 ^ = $esp $T0 4 + = 
STACK WIN 4 a1b0 197 e 0 0 0 24 0 1 $T0 $ebp = $eip $T0 4 + ^ = $ebp $T0 ^ = $esp $T0 8 + = 
STACK WIN 4 a1be 187 0 0 0 4 24 0 1 $T0 $ebp = $eip $T0 4 + ^ = $ebp $T0 ^ = $esp $T0 8 + =  $20 $T0 40 - ^ = 
STACK WIN 4 a1e6 ef 0 0 0 8 24 0 1 $T0 $ebp = $eip $T0 4 + ^ = $ebp $T0 ^ = $esp $T0 8 + =  $20 $T0 40 - ^ =  $23 $T0 44 - ^ = 
STACK WIN 4 a1e7 ed 0 0 0 c 24 0 1 $T0 $ebp = $eip $T0 4 + ^ = $ebp $T0 ^ = $esp $T0 8 + =  $20 $T0 40 - ^ =  $23 $T0 44 - ^ =  $24 $T0 48 - ^ = 
STACK WIN 4 a3ac 4 0 0 0 0 0 0 1 $T0 .raSearch = $eip $T0 ^ = $esp $T0 4 + = 
STACK WIN 4 a3b0 c 0 0 0 0 0 0 1 $T0 .raSearch = $eip $T0 ^ = $esp $T0 4 + = 
STACK WIN 4 a3bf 11 0 0 0 0 0 0 1 $T0 .raSearch = $eip $T0 ^ = $esp $T0 4 + = 
STACK WIN 4 a3d4 28 3 0 4 0 0 0 1 $T0 $ebp = $eip $T0 4 + ^ = $ebp $T0 ^ = $esp $T0 8 + = 
STACK WIN 4 a406 f9 9 0 0 0 324 0 1 $T0 $ebp = $eip $T0 4 + ^ = $ebp $T0 ^ = $esp $T0 8 + = 
STACK WIN 4 a53d c 3 0 0 0 0 0 1 $T0 $ebp = $eip $T0 4 + ^ = $ebp $T0 ^ = $esp $T0 8 + = 
STACK WIN 4 a54c ce 9 0 4 0 31c 0 1 $T0 $ebp = $eip $T0 4 + ^ = $ebp $T0 ^ = $esp $T0 8 + = 
STACK WIN 4 a64d 114 9 0 c 0 320 0 1 $T0 $ebp = $eip $T0 4 + ^ = $ebp $T0 ^ = $esp $T0 8 + = 
STACK WIN 4 a800 32 8 0 8 0 0 0 1 $T0 $ebp = $eip $T0 4 + ^ = $ebp $T0 ^ = $esp $T0 8 + = 
STACK WIN 4 a804 28 4 0 8 4 0 0 1 $T0 $ebp = $eip $T0 4 + ^ = $ebp $T0 ^ = $esp $T0 8 + =  $23 $T0 4 - ^ = 
STACK WIN 4 a808 23 0 0 8 8 0 0 1 $T0 $ebp = $eip $T0 4 + ^ = $ebp $T0 ^ = $esp $T0 8 + =  $23 $T0 4 - ^ =  $24 $T0 8 - ^ = 
STACK WIN 4 a840 157 c 0 10 0 1c 0 1 $T0 $ebp = $eip $T0 4 + ^ = $ebp $T0 ^ = $esp $T0 8 + = 
STACK WIN 4 a847 c8 5 0 10 4 1c 0 1 $T0 $ebp = $eip $T0 4 + ^ = $ebp $T0 ^ = $esp $T0 8 + =  $20 $T0 32 - ^ = 
STACK WIN 4 a84b c3 1 0 10 8 1c 0 1 $T0 $ebp = $eip $T0 4 + ^ = $ebp $T0 ^ = $esp $T0 8 + =  $20 $T0 32 - ^ =  $23 $T0 36 - ^ = 
STACK WIN 4 a84c c1 0 0 10 c 1c 0 1 $T0 $ebp = $eip $T0 4 + ^ = $ebp $T0 ^ = $esp $T0 8 + =  $20 $T0 32 - ^ =  $23 $T0 36 - ^ =  $24 $T0 40 - ^ = 
STACK WIN 4 a9ec 5 0 0 4 0 0 0 1 $T0 $ebp = $eip $T0 4 + ^ = $ebp $T0 ^ = $esp $T0 8 + = 
STACK WIN 4 a9f1 9 3 0 4 0 0 0 1 $T0 $ebp = $eip $T0 4 + ^ = $ebp $T0 ^ = $esp $T0 8 + = 
STACK WIN 4 a9fc 10 3 0 4 0 0 0 1 $T0 $ebp = $eip $T0 4 + ^ = $ebp $T0 ^ = $esp $T0 8 + = 
STACK WIN 4 aa10 10 3 0 4 0 0 0 1 $T0 $ebp = $eip $T0 4 + ^ = $ebp $T0 ^ = $esp $T0 8 + = 
STACK WIN 4 aa24 12 3 0 c 0 0 0 1 $T0 $ebp = $eip $T0 4 + ^ = $ebp $T0 ^ = $esp $T0 8 + = 
STACK WIN 4 aa3a a 3 0 4 0 0 0 1 $T0 $ebp = $eip $T0 4 + ^ = $ebp $T0 ^ = $esp $T0 8 + = 
STACK WIN 4 aa46 e 3 0 4 0 0 0 1 $T0 $ebp = $eip $T0 4 + ^ = $ebp $T0 ^ = $esp $T0 8 + = 
STACK WIN 4 aa57 e 3 0 4 0 0 0 1 $T0 $ebp = $eip $T0 4 + ^ = $ebp $T0 ^ = $esp $T0 8 + = 
STACK WIN 4 aa68 10 3 0 0 0 0 0 1 $T0 .raSearch = $eip $T0 ^ = $esp $T0 4 + = 
STACK WIN 4 aa69 e 2 0 0 4 0 0 1 $T0 .raSearch = $eip $T0 ^ = $esp $T0 4 + =  $23 $T0 4 - ^ = 
STACK WIN 4 aa7c 10 3 0 0 0 0 0 1 $T0 .raSearch = $eip $T0 ^ = $esp $T0 4 + = 
STACK WIN 4 aa7d e 2 0 0 4 0 0 1 $T0 .raSearch = $eip $T0 ^ = $esp $T0 4 + =  $23 $T0 4 - ^ = 
STACK WIN 4 aa90 6 0 0 0 0 0 0 1 $T0 .raSearch = $eip $T0 ^ = $esp $T0 4 + = 
STACK WIN 4 aa96 6 0 0 0 0 0 0 1 $T0 .raSearch = $eip $T0 ^ = $esp $T0 4 + = 
STACK WIN 4 aa9c 7 0 0 0 0 0 0 1 $T0 .raSearch = $eip $T0 ^ = $esp $T0 4 + = 
STACK WIN 4 aaa3 7 0 0 0 0 0 0 1 $T0 .raSearch = $eip $T0 ^ = $esp $T0 4 + = 
STACK WIN 4 aaaa 10 3 0 4 0 0 0 1 $T0 $ebp = $eip $T0 4 + ^ = $ebp $T0 ^ = $esp $T0 8 + = 
STACK WIN 4 aabe 10 3 0 4 0 0 0 1 $T0 $ebp = $eip $T0 4 + ^ = $ebp $T0 ^ = $esp $T0 8 + = 
STACK WIN 4 aad2 a 3 0 4 0 0 0 1 $T0 $ebp = $eip $T0 4 + ^ = $ebp $T0 ^ = $esp $T0 8 + = 
STACK WIN 4 aade 6 0 0 0 0 0 0 1 $T0 .raSearch = $eip $T0 ^ = $esp $T0 4 + = 
STACK WIN 4 aae4 3 0 0 0 0 0 0 1 $T0 .raSearch = $eip $T0 ^ = $esp $T0 4 + = 
STACK WIN 4 aae7 3 0 0 0 0 0 0 1 $T0 .raSearch = $eip $T0 ^ = $esp $T0 4 + = 
STACK WIN 4 aaea 7 0 0 0 0 0 0 1 $T0 .raSearch = $eip $T0 ^ = $esp $T0 4 + = 
STACK WIN 4 aaf1 7 0 0 0 0 0 0 1 $T0 .raSearch = $eip $T0 ^ = $esp $T0 4 + = 
STACK WIN 4 aaf8 10 3 0 0 0 0 0 1 $T0 .raSearch = $eip $T0 ^ = $esp $T0 4 + = 
STACK WIN 4 aaf9 e 2 0 0 4 0 0 1 $T0 .raSearch = $eip $T0 ^ = $esp $T0 4 + =  $23 $T0 4 - ^ = 
STACK WIN 4 ab0c 10 3 0 0 0 0 0 1 $T0 .raSearch = $eip $T0 ^ = $esp $T0 4 + = 
STACK WIN 4 ab0d e 2 0 0 4 0 0 1 $T0 .raSearch = $eip $T0 ^ = $esp $T0 4 + =  $23 $T0 4 - ^ = 
STACK WIN 4 ab20 3c 3 0 8 0 0 0 1 $T0 $ebp = $eip $T0 4 + ^ = $ebp $T0 ^ = $esp $T0 8 + = 
STACK WIN 4 ab6b 23 3 0 4 0 0 0 1 $T0 $ebp = $eip $T0 4 + ^ = $ebp $T0 ^ = $esp $T0 8 + = 
STACK WIN 4 ab7c 10 0 0 4 4 0 0 1 $T0 $ebp = $eip $T0 4 + ^ = $ebp $T0 ^ = $esp $T0 8 + =  $23 $T0 4 - ^ = 
STACK WIN 4 ab96 26 3 0 4 0 0 0 1 $T0 $ebp = $eip $T0 4 + ^ = $ebp $T0 ^ = $esp $T0 8 + = 
STACK WIN 4 abc5 c3 9 0 8 0 c 0 1 $T0 $ebp = $eip $T0 4 + ^ = $ebp $T0 ^ = $esp $T0 8 + = 
STACK WIN 4 abd9 ad 0 0 8 4 c 0 1 $T0 $ebp = $eip $T0 4 + ^ = $ebp $T0 ^ = $esp $T0 8 + =  $20 $T0 16 - ^ = 
STACK WIN 4 abda a9 0 0 8 8 c 0 1 $T0 $ebp = $eip $T0 4 + ^ = $ebp $T0 ^ = $esp $T0 8 + =  $20 $T0 16 - ^ =  $23 $T0 20 - ^ = 
STACK WIN 4 ac29 52 0 0 8 c c 0 1 $T0 $ebp = $eip $T0 4 + ^ = $ebp $T0 ^ = $esp $T0 8 + =  $20 $T0 16 - ^ =  $23 $T0 20 - ^ =  $24 $T0 24 - ^ = 
STACK WIN 4 acb8 29 0 0 0 0 0 0 1 $T0 .raSearch = $eip $T0 ^ = $esp $T0 4 + = 
STACK WIN 4 aceb b 0 0 0 0 0 0 1 $T0 .raSearch = $eip $T0 ^ = $esp $T0 4 + = 
STACK WIN 4 acf8 b 0 0 0 0 0 0 1 $T0 .raSearch = $eip $T0 ^ = $esp $T0 4 + = 
STACK WIN 4 ad05 1f 3 0 4 0 0 0 1 $T0 $ebp = $eip $T0 4 + ^ = $ebp $T0 ^ = $esp $T0 8 + = 
STACK WIN 4 ad2b 8 0 0 0 0 0 0 1 $T0 .raSearch = $eip $T0 ^ = $esp $T0 4 + = 
STACK WIN 4 ad35 1 0 0 0 0 0 0 1 $T0 .raSearch = $eip $T0 ^ = $esp $T0 4 + = 
STACK WIN 4 b0b0 b 3 0 4 0 0 0 1 $T0 $ebp = $eip $T0 4 + ^ = $ebp $T0 ^ = $esp $T0 8 + = 
STACK WIN 4 b0bd 30 3 0 4 0 0 0 1 $T0 $ebp = $eip $T0 4 + ^ = $ebp $T0 ^ = $esp $T0 8 + = 
STACK WIN 4 b0f9 2d 3 0 4 0 0 0 1 $T0 $ebp = $eip $T0 4 + ^ = $ebp $T0 ^ = $esp $T0 8 + = 
STACK WIN 4 b131 39 3 0 8 0 0 0 1 $T0 $ebp = $eip $T0 4 + ^ = $ebp $T0 ^ = $esp $T0 8 + = 
STACK WIN 4 b144 24 0 0 8 4 0 0 1 $T0 $ebp = $eip $T0 4 + ^ = $ebp $T0 ^ = $esp $T0 8 + =  $23 $T0 4 - ^ = 
STACK WIN 4 b178 6 0 0 0 0 0 0 1 $T0 .raSearch = $eip $T0 ^ = $esp $T0 4 + = 
STACK WIN 4 b17e b2 7 0 8 0 0 0 1 $T0 $ebp = $eip $T0 4 + ^ = $ebp $T0 ^ = $esp $T0 8 + = 
STACK WIN 4 b182 aa 3 0 8 4 0 0 1 $T0 $ebp = $eip $T0 4 + ^ = $ebp $T0 ^ = $esp $T0 8 + =  $20 $T0 4 - ^ = 
STACK WIN 4 b183 a8 2 0 8 8 0 0 1 $T0 $ebp = $eip $T0 4 + ^ = $ebp $T0 ^ = $esp $T0 8 + =  $20 $T0 4 - ^ =  $23 $T0 8 - ^ = 
STACK WIN 4 b186 a2 0 0 8 c 0 0 1 $T0 $ebp = $eip $T0 4 + ^ = $ebp $T0 ^ = $esp $T0 8 + =  $20 $T0 4 - ^ =  $23 $T0 8 - ^ =  $24 $T0 12 - ^ = 
STACK WIN 4 b25c 16 3 0 4 0 0 0 1 $T0 $ebp = $eip $T0 4 + ^ = $ebp $T0 ^ = $esp $T0 8 + = 
STACK WIN 4 b277 25 6 0 4 0 0 0 1 $T0 $ebp = $eip $T0 4 + ^ = $ebp $T0 ^ = $esp $T0 8 + = 
STACK WIN 4 b27b 1d 2 0 4 4 0 0 1 $T0 $ebp = $eip $T0 4 + ^ = $ebp $T0 ^ = $esp $T0 8 + =  $23 $T0 4 - ^ = 
STACK WIN 4 b2a5 48 7 0 4 0 0 0 1 $T0 $ebp = $eip $T0 4 + ^ = $ebp $T0 ^ = $esp $T0 8 + = 
STACK WIN 4 b2a9 40 3 0 4 4 0 0 1 $T0 $ebp = $eip $T0 4 + ^ = $ebp $T0 ^ = $esp $T0 8 + =  $20 $T0 4 - ^ = 
STACK WIN 4 b2aa 3e 2 0 4 8 0 0 1 $T0 $ebp = $eip $T0 4 + ^ = $ebp $T0 ^ = $esp $T0 8 + =  $20 $T0 4 - ^ =  $23 $T0 8 - ^ = 
STACK WIN 4 b2ff 33 6 0 4 0 0 0 1 $T0 $ebp = $eip $T0 4 + ^ = $ebp $T0 ^ = $esp $T0 8 + = 
STACK WIN 4 b303 2b 2 0 4 4 0 0 1 $T0 $ebp = $eip $T0 4 + ^ = $ebp $T0 ^ = $esp $T0 8 + =  $23 $T0 4 - ^ = 
STACK WIN 4 b33e 40 9 0 4 0 0 0 1 $T0 $ebp = $eip $T0 4 + ^ = $ebp $T0 ^ = $esp $T0 8 + = 
STACK WIN 4 b345 35 2 0 4 4 0 0 1 $T0 $ebp = $eip $T0 4 + ^ = $ebp $T0 ^ = $esp $T0 8 + =  $23 $T0 4 - ^ = 
STACK WIN 4 b38e a 0 0 0 0 0 0 1 $T0 .raSearch = $eip $T0 ^ = $esp $T0 4 + = 
STACK WIN 4 b39a 8c 1a 0 8 0 2c 0 1 $T0 $ebp = $eip $T0 4 + ^ = $ebp $T0 ^ = $esp $T0 8 + = 
STACK WIN 4 b3c0 5d 0 0 8 4 2c 0 1 $T0 $ebp = $eip $T0 4 + ^ = $ebp $T0 ^ = $esp $T0 8 + =  $23 $T0 48 - ^ = 
STACK WIN 4 b3c4 58 0 0 8 8 2c 0 1 $T0 $ebp = $eip $T0 4 + ^ = $ebp $T0 ^ = $esp $T0 8 + =  $23 $T0 48 - ^ =  $24 $T0 52 - ^ = 
STACK WIN 4 b3dc 1f 0 0 8 c 2c 0 1 $T0 $ebp = $eip $T0 4 + ^ = $ebp $T0 ^ = $esp $T0 8 + =  $23 $T0 48 - ^ =  $24 $T0 52 - ^ =  $20 $T0 56 - ^ = 
STACK WIN 4 b449 66 1a 0 8 0 24 0 1 $T0 $ebp = $eip $T0 4 + ^ = $ebp $T0 ^ = $esp $T0 8 + = 
STACK WIN 4 b45d 49 6 0 8 4 24 0 1 $T0 $ebp = $eip $T0 4 + ^ = $ebp $T0 ^ = $esp $T0 8 + =  $20 $T0 40 - ^ = 
STACK WIN 4 b461 42 2 0 8 8 24 0 1 $T0 $ebp = $eip $T0 4 + ^ = $ebp $T0 ^ = $esp $T0 8 + =  $20 $T0 40 - ^ =  $23 $T0 44 - ^ = 
STACK WIN 4 b468 3a 0 0 8 c 24 0 1 $T0 $ebp = $eip $T0 4 + ^ = $ebp $T0 ^ = $esp $T0 8 + =  $20 $T0 40 - ^ =  $23 $T0 44 - ^ =  $24 $T0 48 - ^ = 
STACK WIN 4 b4c8 9 0 0 0 0 0 0 1 $T0 .raSearch = $eip $T0 ^ = $esp $T0 4 + = 
STACK WIN 4 b4d3 6 0 0 0 0 0 0 1 $T0 .raSearch = $eip $T0 ^ = $esp $T0 4 + = 
STACK WIN 4 b4d9 9 0 0 0 0 0 0 1 $T0 .raSearch = $eip $T0 ^ = $esp $T0 4 + = 
STACK WIN 4 b4e4 4c 3 0 c 0 0 0 1 $T0 $ebp = $eip $T0 4 + ^ = $ebp $T0 ^ = $esp $T0 8 + = 
STACK WIN 4 b543 15 3 0 4 0 0 0 1 $T0 $ebp = $eip $T0 4 + ^ = $ebp $T0 ^ = $esp $T0 8 + = 
STACK WIN 4 b55d 28 3 0 4 0 0 0 1 $T0 $ebp = $eip $T0 4 + ^ = $ebp $T0 ^ = $esp $T0 8 + = 
STACK WIN 4 b58f 1f 3 0 8 0 0 0 1 $T0 $ebp = $eip $T0 4 + ^ = $ebp $T0 ^ = $esp $T0 8 + = 
STACK WIN 4 b5b5 59 7 0 8 0 0 0 1 $T0 $ebp = $eip $T0 4 + ^ = $ebp $T0 ^ = $esp $T0 8 + = 
STACK WIN 4 b5b9 51 3 0 8 4 0 0 1 $T0 $ebp = $eip $T0 4 + ^ = $ebp $T0 ^ = $esp $T0 8 + =  $20 $T0 4 - ^ = 
STACK WIN 4 b5ba 4f 2 0 8 8 0 0 1 $T0 $ebp = $eip $T0 4 + ^ = $ebp $T0 ^ = $esp $T0 8 + =  $20 $T0 4 - ^ =  $23 $T0 8 - ^ = 
STACK WIN 4 b5bd 49 0 0 8 c 0 0 1 $T0 $ebp = $eip $T0 4 + ^ = $ebp $T0 ^ = $esp $T0 8 + =  $20 $T0 4 - ^ =  $23 $T0 8 - ^ =  $24 $T0 12 - ^ = 
STACK WIN 4 b624 7 0 0 0 0 0 0 1 $T0 .raSearch = $eip $T0 ^ = $esp $T0 4 + = 
STACK WIN 4 b62b 15 3 0 c 0 0 0 1 $T0 $ebp = $eip $T0 4 + ^ = $ebp $T0 ^ = $esp $T0 8 + = 
STACK WIN 4 b645 16 3 0 4 0 0 0 1 $T0 $ebp = $eip $T0 4 + ^ = $ebp $T0 ^ = $esp $T0 8 + = 
STACK WIN 4 b660 25 6 0 4 0 0 0 1 $T0 $ebp = $eip $T0 4 + ^ = $ebp $T0 ^ = $esp $T0 8 + = 
STACK WIN 4 b664 1d 2 0 4 4 0 0 1 $T0 $ebp = $eip $T0 4 + ^ = $ebp $T0 ^ = $esp $T0 8 + =  $23 $T0 4 - ^ = 
STACK WIN 4 b68e 42 6 0 4 0 0 0 1 $T0 $ebp = $eip $T0 4 + ^ = $ebp $T0 ^ = $esp $T0 8 + = 
STACK WIN 4 b692 3a 2 0 4 4 0 0 1 $T0 $ebp = $eip $T0 4 + ^ = $ebp $T0 ^ = $esp $T0 8 + =  $23 $T0 4 - ^ = 
STACK WIN 4 b695 34 0 0 4 8 0 0 1 $T0 $ebp = $eip $T0 4 + ^ = $ebp $T0 ^ = $esp $T0 8 + =  $23 $T0 4 - ^ =  $24 $T0 8 - ^ = 
STACK WIN 4 b6e0 2b 6 0 4 0 0 0 1 $T0 $ebp = $eip $T0 4 + ^ = $ebp $T0 ^ = $esp $T0 8 + = 
STACK WIN 4 b6e4 23 2 0 4 4 0 0 1 $T0 $ebp = $eip $T0 4 + ^ = $ebp $T0 ^ = $esp $T0 8 + =  $23 $T0 4 - ^ = 
STACK WIN 4 b715 32 9 0 4 0 0 0 1 $T0 $ebp = $eip $T0 4 + ^ = $ebp $T0 ^ = $esp $T0 8 + = 
STACK WIN 4 b71c 27 2 0 4 4 0 0 1 $T0 $ebp = $eip $T0 4 + ^ = $ebp $T0 ^ = $esp $T0 8 + =  $23 $T0 4 - ^ = 
STACK WIN 4 b753 46 3 0 8 0 0 0 1 $T0 $ebp = $eip $T0 4 + ^ = $ebp $T0 ^ = $esp $T0 8 + = 
STACK WIN 4 b7aa 22 5 0 c 0 8 0 1 $T0 $ebp = $eip $T0 4 + ^ = $ebp $T0 ^ = $esp $T0 8 + = 
STACK WIN 4 b7d4 22 5 0 c 0 8 0 1 $T0 $ebp = $eip $T0 4 + ^ = $ebp $T0 ^ = $esp $T0 8 + = 
STACK WIN 4 b7fe 22 5 0 c 0 8 0 1 $T0 $ebp = $eip $T0 4 + ^ = $ebp $T0 ^ = $esp $T0 8 + = 
STACK WIN 4 b828 22 6 0 8 0 0 0 1 $T0 $ebp = $eip $T0 4 + ^ = $ebp $T0 ^ = $esp $T0 8 + = 
STACK WIN 4 b82e 18 0 0 8 4 0 0 1 $T0 $ebp = $eip $T0 4 + ^ = $ebp $T0 ^ = $esp $T0 8 + =  $23 $T0 4 - ^ = 
STACK WIN 4 b852 22 6 0 8 0 0 0 1 $T0 $ebp = $eip $T0 4 + ^ = $ebp $T0 ^ = $esp $T0 8 + = 
STACK WIN 4 b858 18 0 0 8 4 0 0 1 $T0 $ebp = $eip $T0 4 + ^ = $ebp $T0 ^ = $esp $T0 8 + =  $23 $T0 4 - ^ = 
STACK WIN 4 b87c 22 6 0 8 0 0 0 1 $T0 $ebp = $eip $T0 4 + ^ = $ebp $T0 ^ = $esp $T0 8 + = 
STACK WIN 4 b882 18 0 0 8 4 0 0 1 $T0 $ebp = $eip $T0 4 + ^ = $ebp $T0 ^ = $esp $T0 8 + =  $23 $T0 4 - ^ = 
STACK WIN 4 b8a6 22 6 0 8 0 0 0 1 $T0 $ebp = $eip $T0 4 + ^ = $ebp $T0 ^ = $esp $T0 8 + = 
STACK WIN 4 b8ac 18 0 0 8 4 0 0 1 $T0 $ebp = $eip $T0 4 + ^ = $ebp $T0 ^ = $esp $T0 8 + =  $23 $T0 4 - ^ = 
STACK WIN 4 b8d0 22 6 0 8 0 0 0 1 $T0 $ebp = $eip $T0 4 + ^ = $ebp $T0 ^ = $esp $T0 8 + = 
STACK WIN 4 b8d6 18 0 0 8 4 0 0 1 $T0 $ebp = $eip $T0 4 + ^ = $ebp $T0 ^ = $esp $T0 8 + =  $23 $T0 4 - ^ = 
STACK WIN 4 b8fa 41 6 0 4 0 0 0 1 $T0 $ebp = $eip $T0 4 + ^ = $ebp $T0 ^ = $esp $T0 8 + = 
STACK WIN 4 b8fe 39 2 0 4 4 0 0 1 $T0 $ebp = $eip $T0 4 + ^ = $ebp $T0 ^ = $esp $T0 8 + =  $23 $T0 4 - ^ = 
STACK WIN 4 b94b 50 6 0 4 0 0 0 1 $T0 $ebp = $eip $T0 4 + ^ = $ebp $T0 ^ = $esp $T0 8 + = 
STACK WIN 4 b94f 48 2 0 4 4 0 0 1 $T0 $ebp = $eip $T0 4 + ^ = $ebp $T0 ^ = $esp $T0 8 + =  $23 $T0 4 - ^ = 
STACK WIN 4 b958 3c 0 0 4 8 0 0 1 $T0 $ebp = $eip $T0 4 + ^ = $ebp $T0 ^ = $esp $T0 8 + =  $23 $T0 4 - ^ =  $20 $T0 8 - ^ = 
STACK WIN 4 b9af 65 6 0 4 0 0 0 1 $T0 $ebp = $eip $T0 4 + ^ = $ebp $T0 ^ = $esp $T0 8 + = 
STACK WIN 4 b9b3 5d 2 0 4 4 0 0 1 $T0 $ebp = $eip $T0 4 + ^ = $ebp $T0 ^ = $esp $T0 8 + =  $23 $T0 4 - ^ = 
STACK WIN 4 b9bc 51 0 0 4 8 0 0 1 $T0 $ebp = $eip $T0 4 + ^ = $ebp $T0 ^ = $esp $T0 8 + =  $23 $T0 4 - ^ =  $24 $T0 8 - ^ = 
STACK WIN 4 b9c4 48 0 0 4 c 0 0 1 $T0 $ebp = $eip $T0 4 + ^ = $ebp $T0 ^ = $esp $T0 8 + =  $23 $T0 4 - ^ =  $24 $T0 8 - ^ =  $20 $T0 12 - ^ = 
STACK WIN 4 ba2d 61 6 0 4 0 0 0 1 $T0 $ebp = $eip $T0 4 + ^ = $ebp $T0 ^ = $esp $T0 8 + = 
STACK WIN 4 ba31 59 2 0 4 4 0 0 1 $T0 $ebp = $eip $T0 4 + ^ = $ebp $T0 ^ = $esp $T0 8 + =  $20 $T0 4 - ^ = 
STACK WIN 4 ba3a 4d 0 0 4 8 0 0 1 $T0 $ebp = $eip $T0 4 + ^ = $ebp $T0 ^ = $esp $T0 8 + =  $20 $T0 4 - ^ =  $24 $T0 8 - ^ = 
STACK WIN 4 ba47 3f 0 0 4 c 0 0 1 $T0 $ebp = $eip $T0 4 + ^ = $ebp $T0 ^ = $esp $T0 8 + =  $20 $T0 4 - ^ =  $24 $T0 8 - ^ =  $23 $T0 12 - ^ = 
STACK WIN 4 baa6 40 6 0 4 0 0 0 1 $T0 $ebp = $eip $T0 4 + ^ = $ebp $T0 ^ = $esp $T0 8 + = 
STACK WIN 4 baaa 38 2 0 4 4 0 0 1 $T0 $ebp = $eip $T0 4 + ^ = $ebp $T0 ^ = $esp $T0 8 + =  $23 $T0 4 - ^ = 
STACK WIN 4 baf6 4a 6 0 4 0 0 0 1 $T0 $ebp = $eip $T0 4 + ^ = $ebp $T0 ^ = $esp $T0 8 + = 
STACK WIN 4 bafa 42 2 0 4 4 0 0 1 $T0 $ebp = $eip $T0 4 + ^ = $ebp $T0 ^ = $esp $T0 8 + =  $23 $T0 4 - ^ = 
STACK WIN 4 bb02 37 0 0 4 8 0 0 1 $T0 $ebp = $eip $T0 4 + ^ = $ebp $T0 ^ = $esp $T0 8 + =  $23 $T0 4 - ^ =  $24 $T0 8 - ^ = 
STACK WIN 4 bb52 1c 3 0 4 0 0 0 1 $T0 $ebp = $eip $T0 4 + ^ = $ebp $T0 ^ = $esp $T0 8 + = 
STACK WIN 4 bb75 1d 3 0 8 0 0 0 1 $T0 $ebp = $eip $T0 4 + ^ = $ebp $T0 ^ = $esp $T0 8 + = 
STACK WIN 4 bb99 38 3 0 0 0 0 0 1 $T0 .raSearch = $eip $T0 ^ = $esp $T0 4 + = 
STACK WIN 4 bb9a 36 2 0 0 4 0 0 1 $T0 .raSearch = $eip $T0 ^ = $esp $T0 4 + =  $24 $T0 4 - ^ = 
STACK WIN 4 bbad 22 0 0 0 8 0 0 1 $T0 .raSearch = $eip $T0 ^ = $esp $T0 4 + =  $24 $T0 4 - ^ =  $23 $T0 8 - ^ = 
STACK WIN 4 bbdf 1f 3 0 4 0 0 0 1 $T0 $ebp = $eip $T0 4 + ^ = $ebp $T0 ^ = $esp $T0 8 + = 
STACK WIN 4 bc05 46 a 0 4 0 0 0 1 $T0 $ebp = $eip $T0 4 + ^ = $ebp $T0 ^ = $esp $T0 8 + = 
STACK WIN 4 bc09 3e 6 0 4 4 0 0 1 $T0 $ebp = $eip $T0 4 + ^ = $ebp $T0 ^ = $esp $T0 8 + =  $23 $T0 4 - ^ = 
STACK WIN 4 bc0a 3c 5 0 4 8 0 0 1 $T0 $ebp = $eip $T0 4 + ^ = $ebp $T0 ^ = $esp $T0 8 + =  $23 $T0 4 - ^ =  $24 $T0 8 - ^ = 
STACK WIN 4 bc5c cdd 17 0 8 0 90 0 1 $T0 $ebp = $eip $T0 4 + ^ = $ebp $T0 ^ = $esp $T0 8 + = 
STACK WIN 4 bc71 cc6 2 0 8 4 90 0 1 $T0 $ebp = $eip $T0 4 + ^ = $ebp $T0 ^ = $esp $T0 8 + =  $20 $T0 148 - ^ = 
STACK WIN 4 bc72 cc4 1 0 8 8 90 0 1 $T0 $ebp = $eip $T0 4 + ^ = $ebp $T0 ^ = $esp $T0 8 + =  $20 $T0 148 - ^ =  $23 $T0 152 - ^ = 
STACK WIN 4 bc73 cc2 0 0 8 c 90 0 1 $T0 $ebp = $eip $T0 4 + ^ = $ebp $T0 ^ = $esp $T0 8 + =  $20 $T0 148 - ^ =  $23 $T0 152 - ^ =  $24 $T0 156 - ^ = 
STACK WIN 4 cc70 e 0 0 0 0 0 0 1 $T0 .raSearch = $eip $T0 ^ = $esp $T0 4 + = 
STACK WIN 4 cc81 e 0 0 0 0 0 0 1 $T0 .raSearch = $eip $T0 ^ = $esp $T0 4 + = 
STACK WIN 4 cc92 e 0 0 0 0 0 0 1 $T0 .raSearch = $eip $T0 ^ = $esp $T0 4 + = 
STACK WIN 4 cca3 e 0 0 0 0 0 0 1 $T0 .raSearch = $eip $T0 ^ = $esp $T0 4 + = 
STACK WIN 4 ccb4 e 0 0 0 0 0 0 1 $T0 .raSearch = $eip $T0 ^ = $esp $T0 4 + = 
STACK WIN 4 ccc5 e 0 0 0 0 0 0 1 $T0 .raSearch = $eip $T0 ^ = $esp $T0 4 + = 
STACK WIN 4 ccd6 d 0 0 0 0 0 0 1 $T0 .raSearch = $eip $T0 ^ = $esp $T0 4 + = 
STACK WIN 4 cce6 e 0 0 0 0 0 0 1 $T0 .raSearch = $eip $T0 ^ = $esp $T0 4 + = 
STACK WIN 4 ccf7 b 0 0 0 0 0 0 1 $T0 .raSearch = $eip $T0 ^ = $esp $T0 4 + = 
STACK WIN 4 cd04 b 0 0 0 0 0 0 1 $T0 .raSearch = $eip $T0 ^ = $esp $T0 4 + = 
STACK WIN 4 cd11 86 6 0 8 0 0 0 1 $T0 $ebp = $eip $T0 4 + ^ = $ebp $T0 ^ = $esp $T0 8 + = 
STACK WIN 4 cd15 7e 2 0 8 4 0 0 1 $T0 $ebp = $eip $T0 4 + ^ = $ebp $T0 ^ = $esp $T0 8 + =  $23 $T0 4 - ^ = 
STACK WIN 4 cd18 7a 0 0 8 8 0 0 1 $T0 $ebp = $eip $T0 4 + ^ = $ebp $T0 ^ = $esp $T0 8 + =  $23 $T0 4 - ^ =  $24 $T0 8 - ^ = 
STACK WIN 4 cd2a 67 0 0 8 c 0 0 1 $T0 $ebp = $eip $T0 4 + ^ = $ebp $T0 ^ = $esp $T0 8 + =  $23 $T0 4 - ^ =  $24 $T0 8 - ^ =  $20 $T0 12 - ^ = 
STACK WIN 4 cdb8 e 0 0 0 0 0 0 1 $T0 .raSearch = $eip $T0 ^ = $esp $T0 4 + = 
STACK WIN 4 cdc9 e 0 0 0 0 0 0 1 $T0 .raSearch = $eip $T0 ^ = $esp $T0 4 + = 
STACK WIN 4 cdda 12 0 0 0 0 0 0 1 $T0 .raSearch = $eip $T0 ^ = $esp $T0 4 + = 
STACK WIN 4 cdf0 e 0 0 0 0 0 0 1 $T0 .raSearch = $eip $T0 ^ = $esp $T0 4 + = 
STACK WIN 4 ce01 b 0 0 0 0 0 0 1 $T0 .raSearch = $eip $T0 ^ = $esp $T0 4 + = 
STACK WIN 4 ce0e b 0 0 0 0 0 0 1 $T0 .raSearch = $eip $T0 ^ = $esp $T0 4 + = 
STACK WIN 4 ce1b f6 f 0 4 0 18 0 1 $T0 $ebp = $eip $T0 4 + ^ = $ebp $T0 ^ = $esp $T0 8 + = 
STACK WIN 4 ce22 ed 8 0 4 4 18 0 1 $T0 $ebp = $eip $T0 4 + ^ = $ebp $T0 ^ = $esp $T0 8 + =  $20 $T0 28 - ^ = 
STACK WIN 4 ce23 eb 7 0 4 8 18 0 1 $T0 $ebp = $eip $T0 4 + ^ = $ebp $T0 ^ = $esp $T0 8 + =  $20 $T0 28 - ^ =  $23 $T0 32 - ^ = 
STACK WIN 4 ce2a e1 0 0 4 c 18 0 1 $T0 $ebp = $eip $T0 4 + ^ = $ebp $T0 ^ = $esp $T0 8 + =  $20 $T0 28 - ^ =  $23 $T0 32 - ^ =  $24 $T0 36 - ^ = 
STACK WIN 4 cf4e ca 5 0 4 0 8 0 1 $T0 $ebp = $eip $T0 4 + ^ = $ebp $T0 ^ = $esp $T0 8 + = 
STACK WIN 4 d04a 1b1 10 0 8 0 30 0 1 $T0 $ebp = $eip $T0 4 + ^ = $ebp $T0 ^ = $esp $T0 8 + = 
STACK WIN 4 d059 1a0 1 0 8 4 30 0 1 $T0 $ebp = $eip $T0 4 + ^ = $ebp $T0 ^ = $esp $T0 8 + =  $23 $T0 52 - ^ = 
STACK WIN 4 d05a 19e 0 0 8 8 30 0 1 $T0 $ebp = $eip $T0 4 + ^ = $ebp $T0 ^ = $esp $T0 8 + =  $23 $T0 52 - ^ =  $24 $T0 56 - ^ = 
STACK WIN 4 d09e e7 0 0 8 c 30 0 1 $T0 $ebp = $eip $T0 4 + ^ = $ebp $T0 ^ = $esp $T0 8 + =  $23 $T0 52 - ^ =  $24 $T0 56 - ^ =  $20 $T0 60 - ^ = 
STACK WIN 4 d267 98 6 0 4 0 10 0 1 $T0 $ebp = $eip $T0 4 + ^ = $ebp $T0 ^ = $esp $T0 8 + = 
STACK WIN 4 d325 3df f 0 8 0 1c 0 1 $T0 $ebp = $eip $T0 4 + ^ = $ebp $T0 ^ = $esp $T0 8 + = 
STACK WIN 4 d333 3a9 1 0 8 4 1c 0 1 $T0 $ebp = $eip $T0 4 + ^ = $ebp $T0 ^ = $esp $T0 8 + =  $20 $T0 32 - ^ = 
STACK WIN 4 d334 3a7 0 0 8 8 1c 0 1 $T0 $ebp = $eip $T0 4 + ^ = $ebp $T0 ^ = $esp $T0 8 + =  $20 $T0 32 - ^ =  $23 $T0 36 - ^ = 
STACK WIN 4 d7fb df c 0 8 0 c 0 1 $T0 $ebp = $eip $T0 4 + ^ = $ebp $T0 ^ = $esp $T0 8 + = 
STACK WIN 4 d802 79 5 0 8 4 c 0 1 $T0 $ebp = $eip $T0 4 + ^ = $ebp $T0 ^ = $esp $T0 8 + =  $20 $T0 16 - ^ = 
STACK WIN 4 d803 77 4 0 8 8 c 0 1 $T0 $ebp = $eip $T0 4 + ^ = $ebp $T0 ^ = $esp $T0 8 + =  $20 $T0 16 - ^ =  $23 $T0 20 - ^ = 
STACK WIN 4 d807 72 0 0 8 c c 0 1 $T0 $ebp = $eip $T0 4 + ^ = $ebp $T0 ^ = $esp $T0 8 + =  $20 $T0 16 - ^ =  $23 $T0 20 - ^ =  $24 $T0 24 - ^ = 
STACK WIN 4 d911 14 3 0 4 0 0 0 1 $T0 $ebp = $eip $T0 4 + ^ = $ebp $T0 ^ = $esp $T0 8 + = 
STACK WIN 4 d92a d3 5 0 4 0 8 0 1 $T0 $ebp = $eip $T0 4 + ^ = $ebp $T0 ^ = $esp $T0 8 + = 
STACK WIN 4 da31 5ea e 0 14 0 4c 0 1 $T0 $ebp = $eip $T0 4 + ^ = $ebp $T0 ^ = $esp $T0 8 + = 
STACK WIN 4 da3d 5dc 2 0 14 4 4c 0 1 $T0 $ebp = $eip $T0 4 + ^ = $ebp $T0 ^ = $esp $T0 8 + =  $20 $T0 80 - ^ = 
STACK WIN 4 da3e 5da 1 0 14 8 4c 0 1 $T0 $ebp = $eip $T0 4 + ^ = $ebp $T0 ^ = $esp $T0 8 + =  $20 $T0 80 - ^ =  $23 $T0 84 - ^ = 
STACK WIN 4 da3f 5d8 0 0 14 c 4c 0 1 $T0 $ebp = $eip $T0 4 + ^ = $ebp $T0 ^ = $esp $T0 8 + =  $20 $T0 80 - ^ =  $23 $T0 84 - ^ =  $24 $T0 88 - ^ = 
STACK WIN 4 e195 32 6 0 4 0 10 0 1 $T0 $ebp = $eip $T0 4 + ^ = $ebp $T0 ^ = $esp $T0 8 + = 
STACK WIN 4 e1d3 c5 6 0 8 0 18 0 1 $T0 $ebp = $eip $T0 4 + ^ = $ebp $T0 ^ = $esp $T0 8 + = 
STACK WIN 4 e2c9 242 c 0 4 10 2c 0 1 $T0 $ebp = $eip $T0 4 + ^ = $ebp $T0 ^ = $esp $T0 8 + =  $20 $T0 48 - ^ =  $23 $T0 52 - ^ =  $24 $T0 56 - ^ = 
STACK WIN 4 e59b 11f 14 0 8 0 18 0 1 $T0 $ebp = $eip $T0 4 + ^ = $ebp $T0 ^ = $esp $T0 8 + = 
STACK WIN 4 e5a8 110 7 0 8 4 18 0 1 $T0 $ebp = $eip $T0 4 + ^ = $ebp $T0 ^ = $esp $T0 8 + =  $20 $T0 28 - ^ = 
STACK WIN 4 e5a9 10e 6 0 8 8 18 0 1 $T0 $ebp = $eip $T0 4 + ^ = $ebp $T0 ^ = $esp $T0 8 + =  $20 $T0 28 - ^ =  $23 $T0 32 - ^ = 
STACK WIN 4 e5af 107 0 0 8 c 18 0 1 $T0 $ebp = $eip $T0 4 + ^ = $ebp $T0 ^ = $esp $T0 8 + =  $20 $T0 28 - ^ =  $23 $T0 32 - ^ =  $24 $T0 36 - ^ = 
STACK WIN 4 e701 54 3 0 4 0 0 0 1 $T0 $ebp = $eip $T0 4 + ^ = $ebp $T0 ^ = $esp $T0 8 + = 
STACK WIN 4 e76a 14 3 0 4 0 0 0 1 $T0 $ebp = $eip $T0 4 + ^ = $ebp $T0 ^ = $esp $T0 8 + = 
STACK WIN 4 e783 118 14 0 4 0 20 0 1 $T0 $ebp = $eip $T0 4 + ^ = $ebp $T0 ^ = $esp $T0 8 + = 
STACK WIN 4 e796 103 1 0 4 4 20 0 1 $T0 $ebp = $eip $T0 4 + ^ = $ebp $T0 ^ = $esp $T0 8 + =  $20 $T0 36 - ^ = 
STACK WIN 4 e797 101 0 0 4 8 20 0 1 $T0 $ebp = $eip $T0 4 + ^ = $ebp $T0 ^ = $esp $T0 8 + =  $20 $T0 36 - ^ =  $24 $T0 40 - ^ = 
STACK WIN 4 e7f8 30 0 0 4 c 20 0 1 $T0 $ebp = $eip $T0 4 + ^ = $ebp $T0 ^ = $esp $T0 8 + =  $20 $T0 36 - ^ =  $24 $T0 40 - ^ =  $23 $T0 44 - ^ = 
STACK WIN 4 e8e1 11 3 0 4 0 0 0 1 $T0 $ebp = $eip $T0 4 + ^ = $ebp $T0 ^ = $esp $T0 8 + = 
STACK WIN 4 e8f6 f0 6 0 4 0 18 0 1 $T0 $ebp = $eip $T0 4 + ^ = $ebp $T0 ^ = $esp $T0 8 + = 
STACK WIN 4 ea22 1b7 1d 0 10 0 1c 0 1 $T0 $ebp = $eip $T0 4 + ^ = $ebp $T0 ^ = $esp $T0 8 + = 
STACK WIN 4 ea30 1a7 f 0 10 4 1c 0 1 $T0 $ebp = $eip $T0 4 + ^ = $ebp $T0 ^ = $esp $T0 8 + =  $20 $T0 32 - ^ = 
STACK WIN 4 ea37 19f 8 0 10 8 1c 0 1 $T0 $ebp = $eip $T0 4 + ^ = $ebp $T0 ^ = $esp $T0 8 + =  $20 $T0 32 - ^ =  $23 $T0 36 - ^ = 
STACK WIN 4 ea3f 196 0 0 10 c 1c 0 1 $T0 $ebp = $eip $T0 4 + ^ = $ebp $T0 ^ = $esp $T0 8 + =  $20 $T0 32 - ^ =  $23 $T0 36 - ^ =  $24 $T0 40 - ^ = 
STACK WIN 4 ec46 67 c 0 8 0 18 0 1 $T0 $ebp = $eip $T0 4 + ^ = $ebp $T0 ^ = $esp $T0 8 + = 
STACK WIN 4 ec52 59 0 0 8 4 18 0 1 $T0 $ebp = $eip $T0 4 + ^ = $ebp $T0 ^ = $esp $T0 8 + =  $23 $T0 28 - ^ = 
STACK WIN 4 ecc6 3d8 11 0 8 0 3c 0 1 $T0 $ebp = $eip $T0 4 + ^ = $ebp $T0 ^ = $esp $T0 8 + = 
STACK WIN 4 ecd5 3c7 2 0 8 4 3c 0 1 $T0 $ebp = $eip $T0 4 + ^ = $ebp $T0 ^ = $esp $T0 8 + =  $20 $T0 64 - ^ = 
STACK WIN 4 ecd6 3c5 1 0 8 8 3c 0 1 $T0 $ebp = $eip $T0 4 + ^ = $ebp $T0 ^ = $esp $T0 8 + =  $20 $T0 64 - ^ =  $23 $T0 68 - ^ = 
STACK WIN 4 ecd7 3c3 0 0 8 c 3c 0 1 $T0 $ebp = $eip $T0 4 + ^ = $ebp $T0 ^ = $esp $T0 8 + =  $20 $T0 64 - ^ =  $23 $T0 68 - ^ =  $24 $T0 72 - ^ = 
STACK WIN 4 f194 14 3 0 4 0 0 0 1 $T0 $ebp = $eip $T0 4 + ^ = $ebp $T0 ^ = $esp $T0 8 + = 
STACK WIN 4 f1ad 20 1 0 0 0 0 0 1 $T0 .raSearch = $eip $T0 ^ = $esp $T0 4 + = 
STACK WIN 4 f1ae 1e 0 0 0 4 0 0 1 $T0 .raSearch = $eip $T0 ^ = $esp $T0 4 + =  $24 $T0 4 - ^ = 
STACK WIN 4 f1bb 10 0 0 0 8 0 0 1 $T0 .raSearch = $eip $T0 ^ = $esp $T0 4 + =  $24 $T0 4 - ^ =  $23 $T0 8 - ^ = 
STACK WIN 4 f1d5 c 0 0 0 0 0 0 1 $T0 .raSearch = $eip $T0 ^ = $esp $T0 4 + = 
STACK WIN 4 f1e4 4 0 0 0 0 0 0 1 $T0 .raSearch = $eip $T0 ^ = $esp $T0 4 + = 
STACK WIN 4 f1e8 e 0 0 0 0 0 0 1 $T0 .raSearch = $eip $T0 ^ = $esp $T0 4 + = 
STACK WIN 4 f1f9 35 3 0 0 0 0 0 1 $T0 .raSearch = $eip $T0 ^ = $esp $T0 4 + = 
STACK WIN 4 f1fa 33 2 0 0 4 0 0 1 $T0 .raSearch = $eip $T0 ^ = $esp $T0 4 + =  $20 $T0 4 - ^ = 
STACK WIN 4 f1fd 2f 0 0 0 8 0 0 1 $T0 .raSearch = $eip $T0 ^ = $esp $T0 4 + =  $20 $T0 4 - ^ =  $23 $T0 8 - ^ = 
STACK WIN 4 f1fe 2d 0 0 0 c 0 0 1 $T0 .raSearch = $eip $T0 ^ = $esp $T0 4 + =  $20 $T0 4 - ^ =  $23 $T0 8 - ^ =  $24 $T0 12 - ^ = 
STACK WIN 4 f23b 12 0 0 0 0 0 0 1 $T0 .raSearch = $eip $T0 ^ = $esp $T0 4 + = 
STACK WIN 4 f251 3f a 0 4 0 18 0 1 $T0 $ebp = $eip $T0 4 + ^ = $ebp $T0 ^ = $esp $T0 8 + = 
STACK WIN 4 f25b 33 0 0 4 4 18 0 1 $T0 $ebp = $eip $T0 4 + ^ = $ebp $T0 ^ = $esp $T0 8 + =  $23 $T0 28 - ^ = 
STACK WIN 4 f29f 87 b 0 8 0 0 0 1 $T0 $ebp = $eip $T0 4 + ^ = $ebp $T0 ^ = $esp $T0 8 + = 
STACK WIN 4 f2a3 7b 7 0 8 4 0 0 1 $T0 $ebp = $eip $T0 4 + ^ = $ebp $T0 ^ = $esp $T0 8 + =  $20 $T0 4 - ^ = 
STACK WIN 4 f2a4 79 6 0 8 8 0 0 1 $T0 $ebp = $eip $T0 4 + ^ = $ebp $T0 ^ = $esp $T0 8 + =  $20 $T0 4 - ^ =  $23 $T0 8 - ^ = 
STACK WIN 4 f2a5 77 5 0 8 c 0 0 1 $T0 $ebp = $eip $T0 4 + ^ = $ebp $T0 ^ = $esp $T0 8 + =  $20 $T0 4 - ^ =  $23 $T0 8 - ^ =  $24 $T0 12 - ^ = 
STACK WIN 4 f347 45 3 0 4 0 0 0 1 $T0 $ebp = $eip $T0 4 + ^ = $ebp $T0 ^ = $esp $T0 8 + = 
STACK WIN 4 f39d 61 0 0 0 0 0 0 1 $T0 .raSearch = $eip $T0 ^ = $esp $T0 4 + = 
STACK WIN 4 f416 658 e 0 c 0 28 0 1 $T0 $ebp = $eip $T0 4 + ^ = $ebp $T0 ^ = $esp $T0 8 + = 
STACK WIN 4 f422 9b 2 0 c 4 28 0 1 $T0 $ebp = $eip $T0 4 + ^ = $ebp $T0 ^ = $esp $T0 8 + =  $20 $T0 44 - ^ = 
STACK WIN 4 f423 99 1 0 c 8 28 0 1 $T0 $ebp = $eip $T0 4 + ^ = $ebp $T0 ^ = $esp $T0 8 + =  $20 $T0 44 - ^ =  $23 $T0 48 - ^ = 
STACK WIN 4 f424 97 0 0 c c 28 0 1 $T0 $ebp = $eip $T0 4 + ^ = $ebp $T0 ^ = $esp $T0 8 + =  $20 $T0 44 - ^ =  $23 $T0 48 - ^ =  $24 $T0 52 - ^ = 
STACK WIN 4 fc04 1e 3 0 c 0 0 0 1 $T0 $ebp = $eip $T0 4 + ^ = $ebp $T0 ^ = $esp $T0 8 + = 
STACK WIN 4 fc29 1e 3 0 c 0 0 0 1 $T0 $ebp = $eip $T0 4 + ^ = $ebp $T0 ^ = $esp $T0 8 + = 
STACK WIN 4 fc4e 1e4 e 0 8 0 10 0 1 $T0 $ebp = $eip $T0 4 + ^ = $ebp $T0 ^ = $esp $T0 8 + = 
STACK WIN 4 fc5b a9 1 0 8 4 10 0 1 $T0 $ebp = $eip $T0 4 + ^ = $ebp $T0 ^ = $esp $T0 8 + =  $23 $T0 20 - ^ = 
STACK WIN 4 fc5c a7 0 0 8 8 10 0 1 $T0 $ebp = $eip $T0 4 + ^ = $ebp $T0 ^ = $esp $T0 8 + =  $23 $T0 20 - ^ =  $24 $T0 24 - ^ = 
STACK WIN 4 feab 129 b 0 c 0 18 0 1 $T0 $ebp = $eip $T0 4 + ^ = $ebp $T0 ^ = $esp $T0 8 + = 
STACK WIN 4 ff62 56 0 0 c 4 18 0 1 $T0 $ebp = $eip $T0 4 + ^ = $ebp $T0 ^ = $esp $T0 8 + =  $23 $T0 28 - ^ = 
STACK WIN 4 1001e fa c 0 10 0 8 0 1 $T0 $ebp = $eip $T0 4 + ^ = $ebp $T0 ^ = $esp $T0 8 + = 
STACK WIN 4 10029 ed 1 0 10 4 8 0 1 $T0 $ebp = $eip $T0 4 + ^ = $ebp $T0 ^ = $esp $T0 8 + =  $23 $T0 12 - ^ = 
STACK WIN 4 1002a eb 0 0 10 8 8 0 1 $T0 $ebp = $eip $T0 4 + ^ = $ebp $T0 ^ = $esp $T0 8 + =  $23 $T0 12 - ^ =  $24 $T0 16 - ^ = 
STACK WIN 4 100e7 25 0 0 10 c 8 0 1 $T0 $ebp = $eip $T0 4 + ^ = $ebp $T0 ^ = $esp $T0 8 + =  $23 $T0 12 - ^ =  $24 $T0 16 - ^ =  $20 $T0 20 - ^ = 
STACK WIN 4 10156 1c 3 0 10 0 0 0 1 $T0 $ebp = $eip $T0 4 + ^ = $ebp $T0 ^ = $esp $T0 8 + = 
STACK WIN 4 10179 f9 e 0 4 0 8 0 1 $T0 $ebp = $eip $T0 4 + ^ = $ebp $T0 ^ = $esp $T0 8 + = 
STACK WIN 4 10185 eb 2 0 4 4 8 0 1 $T0 $ebp = $eip $T0 4 + ^ = $ebp $T0 ^ = $esp $T0 8 + =  $20 $T0 12 - ^ = 
STACK WIN 4 10186 e9 1 0 4 8 8 0 1 $T0 $ebp = $eip $T0 4 + ^ = $ebp $T0 ^ = $esp $T0 8 + =  $20 $T0 12 - ^ =  $23 $T0 16 - ^ = 
STACK WIN 4 10187 e5 0 0 4 c 8 0 1 $T0 $ebp = $eip $T0 4 + ^ = $ebp $T0 ^ = $esp $T0 8 + =  $20 $T0 12 - ^ =  $23 $T0 16 - ^ =  $24 $T0 20 - ^ = 
STACK WIN 4 102b0 2f 3 0 8 0 0 0 1 $T0 $ebp = $eip $T0 4 + ^ = $ebp $T0 ^ = $esp $T0 8 + = 
STACK WIN 4 102ea 394 c 0 4 0 f0 0 1 $T0 $ebp = $eip $T0 4 + ^ = $ebp $T0 ^ = $esp $T0 8 + = 
STACK WIN 4 102f4 388 2 0 4 4 f0 0 1 $T0 $ebp = $eip $T0 4 + ^ = $ebp $T0 ^ = $esp $T0 8 + =  $20 $T0 244 - ^ = 
STACK WIN 4 102f5 386 1 0 4 8 f0 0 1 $T0 $ebp = $eip $T0 4 + ^ = $ebp $T0 ^ = $esp $T0 8 + =  $20 $T0 244 - ^ =  $23 $T0 248 - ^ = 
STACK WIN 4 102f6 384 0 0 4 c f0 0 1 $T0 $ebp = $eip $T0 4 + ^ = $ebp $T0 ^ = $esp $T0 8 + =  $20 $T0 244 - ^ =  $23 $T0 248 - ^ =  $24 $T0 252 - ^ = 
STACK WIN 4 10763 d4 f 0 4 0 18 0 1 $T0 $ebp = $eip $T0 4 + ^ = $ebp $T0 ^ = $esp $T0 8 + = 
STACK WIN 4 1076d c8 5 0 4 4 18 0 1 $T0 $ebp = $eip $T0 4 + ^ = $ebp $T0 ^ = $esp $T0 8 + =  $20 $T0 28 - ^ = 
STACK WIN 4 1076e c6 4 0 4 8 18 0 1 $T0 $ebp = $eip $T0 4 + ^ = $ebp $T0 ^ = $esp $T0 8 + =  $20 $T0 28 - ^ =  $23 $T0 32 - ^ = 
STACK WIN 4 10772 bf 0 0 4 c 18 0 1 $T0 $ebp = $eip $T0 4 + ^ = $ebp $T0 ^ = $esp $T0 8 + =  $20 $T0 28 - ^ =  $23 $T0 32 - ^ =  $24 $T0 36 - ^ = 
STACK WIN 4 1086c 51 5 0 4 0 8 0 1 $T0 $ebp = $eip $T0 4 + ^ = $ebp $T0 ^ = $esp $T0 8 + = 
STACK WIN 4 108d1 11 3 0 4 0 0 0 1 $T0 $ebp = $eip $T0 4 + ^ = $ebp $T0 ^ = $esp $T0 8 + = 
STACK WIN 4 108e6 2d 4 0 8 0 0 0 1 $T0 $ebp = $eip $T0 4 + ^ = $ebp $T0 ^ = $esp $T0 8 + = 
STACK WIN 4 108ea 25 0 0 8 4 0 0 1 $T0 $ebp = $eip $T0 4 + ^ = $ebp $T0 ^ = $esp $T0 8 + =  $24 $T0 4 - ^ = 
STACK WIN 4 108f8 16 0 0 8 8 0 0 1 $T0 $ebp = $eip $T0 4 + ^ = $ebp $T0 ^ = $esp $T0 8 + =  $24 $T0 4 - ^ =  $23 $T0 8 - ^ = 
STACK WIN 4 1091e 56 6 0 8 0 0 0 1 $T0 $ebp = $eip $T0 4 + ^ = $ebp $T0 ^ = $esp $T0 8 + = 
STACK WIN 4 10922 4e 2 0 8 4 0 0 1 $T0 $ebp = $eip $T0 4 + ^ = $ebp $T0 ^ = $esp $T0 8 + =  $20 $T0 4 - ^ = 
STACK WIN 4 10925 4a 0 0 8 8 0 0 1 $T0 $ebp = $eip $T0 4 + ^ = $ebp $T0 ^ = $esp $T0 8 + =  $20 $T0 4 - ^ =  $23 $T0 8 - ^ = 
STACK WIN 4 10929 43 0 0 8 c 0 0 1 $T0 $ebp = $eip $T0 4 + ^ = $ebp $T0 ^ = $esp $T0 8 + =  $20 $T0 4 - ^ =  $23 $T0 8 - ^ =  $24 $T0 12 - ^ = 
STACK WIN 4 10989 27 3 0 8 0 0 0 1 $T0 $ebp = $eip $T0 4 + ^ = $ebp $T0 ^ = $esp $T0 8 + = 
STACK WIN 4 109b9 15 3 0 8 0 0 0 1 $T0 $ebp = $eip $T0 4 + ^ = $ebp $T0 ^ = $esp $T0 8 + = 
STACK WIN 4 109d3 17 3 0 8 0 0 0 1 $T0 $ebp = $eip $T0 4 + ^ = $ebp $T0 ^ = $esp $T0 8 + = 
STACK WIN 4 109ef 46 7 0 8 0 0 0 1 $T0 $ebp = $eip $T0 4 + ^ = $ebp $T0 ^ = $esp $T0 8 + = 
STACK WIN 4 109f3 3e 3 0 8 4 0 0 1 $T0 $ebp = $eip $T0 4 + ^ = $ebp $T0 ^ = $esp $T0 8 + =  $20 $T0 4 - ^ = 
STACK WIN 4 109f4 3c 2 0 8 8 0 0 1 $T0 $ebp = $eip $T0 4 + ^ = $ebp $T0 ^ = $esp $T0 8 + =  $20 $T0 4 - ^ =  $23 $T0 8 - ^ = 
STACK WIN 4 109f7 38 0 0 8 c 0 0 1 $T0 $ebp = $eip $T0 4 + ^ = $ebp $T0 ^ = $esp $T0 8 + =  $20 $T0 4 - ^ =  $23 $T0 8 - ^ =  $24 $T0 12 - ^ = 
STACK WIN 4 10a46 1b 3 0 8 0 0 0 1 $T0 $ebp = $eip $T0 4 + ^ = $ebp $T0 ^ = $esp $T0 8 + = 
STACK WIN 4 10a67 b0 6 0 c 0 10 0 1 $T0 $ebp = $eip $T0 4 + ^ = $ebp $T0 ^ = $esp $T0 8 + = 
STACK WIN 4 10b43 37 3 0 10 0 0 0 1 $T0 $ebp = $eip $T0 4 + ^ = $ebp $T0 ^ = $esp $T0 8 + = 
STACK WIN 4 10b5c 19 0 0 10 4 0 0 1 $T0 $ebp = $eip $T0 4 + ^ = $ebp $T0 ^ = $esp $T0 8 + =  $20 $T0 4 - ^ = 
STACK WIN 4 10b5d 17 0 0 10 8 0 0 1 $T0 $ebp = $eip $T0 4 + ^ = $ebp $T0 ^ = $esp $T0 8 + =  $20 $T0 4 - ^ =  $23 $T0 8 - ^ = 
STACK WIN 4 10b5e 15 0 0 10 c 0 0 1 $T0 $ebp = $eip $T0 4 + ^ = $ebp $T0 ^ = $esp $T0 8 + =  $20 $T0 4 - ^ =  $23 $T0 8 - ^ =  $24 $T0 12 - ^ = 
STACK WIN 4 10b87 48 3 0 4 0 0 0 1 $T0 $ebp = $eip $T0 4 + ^ = $ebp $T0 ^ = $esp $T0 8 + = 
STACK WIN 4 10be1 29d 12 0 4 0 78 0 1 $T0 $ebp = $eip $T0 4 + ^ = $ebp $T0 ^ = $esp $T0 8 + = 
STACK WIN 4 10bf2 285 1 0 4 4 78 0 1 $T0 $ebp = $eip $T0 4 + ^ = $ebp $T0 ^ = $esp $T0 8 + =  $20 $T0 124 - ^ = 
STACK WIN 4 10bf3 27b 0 0 4 8 78 0 1 $T0 $ebp = $eip $T0 4 + ^ = $ebp $T0 ^ = $esp $T0 8 + =  $20 $T0 124 - ^ =  $24 $T0 128 - ^ = 
STACK WIN 4 10c18 250 0 0 4 c 78 0 1 $T0 $ebp = $eip $T0 4 + ^ = $ebp $T0 ^ = $esp $T0 8 + =  $20 $T0 124 - ^ =  $24 $T0 128 - ^ =  $23 $T0 132 - ^ = 
STACK WIN 4 10f25 332 21 0 4 0 94 0 1 $T0 $ebp = $eip $T0 4 + ^ = $ebp $T0 ^ = $esp $T0 8 + = 
STACK WIN 4 10f3e 227 8 0 4 4 94 0 1 $T0 $ebp = $eip $T0 4 + ^ = $ebp $T0 ^ = $esp $T0 8 + =  $20 $T0 152 - ^ = 
STACK WIN 4 10f42 220 4 0 4 8 94 0 1 $T0 $ebp = $eip $T0 4 + ^ = $ebp $T0 ^ = $esp $T0 8 + =  $20 $T0 152 - ^ =  $23 $T0 156 - ^ = 
STACK WIN 4 10f46 21b 0 0 4 c 94 0 1 $T0 $ebp = $eip $T0 4 + ^ = $ebp $T0 ^ = $esp $T0 8 + =  $20 $T0 152 - ^ =  $23 $T0 156 - ^ =  $24 $T0 160 - ^ = 
STACK WIN 4 11323 162 e 0 8 0 b0 0 1 $T0 $ebp = $eip $T0 4 + ^ = $ebp $T0 ^ = $esp $T0 8 + = 
STACK WIN 4 11369 102 0 0 8 4 b0 0 1 $T0 $ebp = $eip $T0 4 + ^ = $ebp $T0 ^ = $esp $T0 8 + =  $20 $T0 180 - ^ = 
STACK WIN 4 11377 f3 0 0 8 8 b0 0 1 $T0 $ebp = $eip $T0 4 + ^ = $ebp $T0 ^ = $esp $T0 8 + =  $20 $T0 180 - ^ =  $24 $T0 184 - ^ = 
STACK WIN 4 113eb 34 0 0 8 c b0 0 1 $T0 $ebp = $eip $T0 4 + ^ = $ebp $T0 ^ = $esp $T0 8 + =  $20 $T0 180 - ^ =  $24 $T0 184 - ^ =  $23 $T0 188 - ^ = 
STACK WIN 4 114dd 33 6 0 4 0 10 0 1 $T0 $ebp = $eip $T0 4 + ^ = $ebp $T0 ^ = $esp $T0 8 + = 
STACK WIN 4 1151c 23 3 0 4 0 0 0 1 $T0 $ebp = $eip $T0 4 + ^ = $ebp $T0 ^ = $esp $T0 8 + = 
STACK WIN 4 11547 328 9 0 0 0 0 0 1 $T0 .raSearch = $eip $T0 ^ = $esp $T0 4 + = 
STACK WIN 4 1154e 2fb 2 0 0 4 0 0 1 $T0 .raSearch = $eip $T0 ^ = $esp $T0 4 + =  $20 $T0 4 - ^ = 
STACK WIN 4 1154f 2f9 1 0 0 8 0 0 1 $T0 .raSearch = $eip $T0 ^ = $esp $T0 4 + =  $20 $T0 4 - ^ =  $23 $T0 8 - ^ = 
STACK WIN 4 11550 2f7 0 0 0 c 0 0 1 $T0 .raSearch = $eip $T0 ^ = $esp $T0 4 + =  $20 $T0 4 - ^ =  $23 $T0 8 - ^ =  $24 $T0 12 - ^ = 
STACK WIN 4 11939 c4 6 0 8 0 10 0 1 $T0 $ebp = $eip $T0 4 + ^ = $ebp $T0 ^ = $esp $T0 8 + = 
STACK WIN 4 11995 64 0 0 8 4 10 0 1 $T0 $ebp = $eip $T0 4 + ^ = $ebp $T0 ^ = $esp $T0 8 + =  $23 $T0 20 - ^ = 
STACK WIN 4 11999 5d 0 0 8 8 10 0 1 $T0 $ebp = $eip $T0 4 + ^ = $ebp $T0 ^ = $esp $T0 8 + =  $23 $T0 20 - ^ =  $24 $T0 24 - ^ = 
STACK WIN 4 11a2e 47 3 0 4 0 0 0 1 $T0 $ebp = $eip $T0 4 + ^ = $ebp $T0 ^ = $esp $T0 8 + = 
STACK WIN 4 11a86 15 3 0 8 0 0 0 1 $T0 $ebp = $eip $T0 4 + ^ = $ebp $T0 ^ = $esp $T0 8 + = 
STACK WIN 4 11aa0 54 9 0 8 0 8 0 1 $T0 $ebp = $eip $T0 4 + ^ = $ebp $T0 ^ = $esp $T0 8 + = 
STACK WIN 4 11aa9 49 0 0 8 4 8 0 1 $T0 $ebp = $eip $T0 4 + ^ = $ebp $T0 ^ = $esp $T0 8 + =  $23 $T0 12 - ^ = 
STACK WIN 4 11b09 163 c 0 8 0 20 0 1 $T0 $ebp = $eip $T0 4 + ^ = $ebp $T0 ^ = $esp $T0 8 + = 
STACK WIN 4 11b15 155 0 0 8 4 20 0 1 $T0 $ebp = $eip $T0 4 + ^ = $ebp $T0 ^ = $esp $T0 8 + =  $24 $T0 36 - ^ = 
STACK WIN 4 11b7d 9b 0 0 8 8 20 0 1 $T0 $ebp = $eip $T0 4 + ^ = $ebp $T0 ^ = $esp $T0 8 + =  $24 $T0 36 - ^ =  $20 $T0 40 - ^ = 
STACK WIN 4 11b7e 99 0 0 8 c 20 0 1 $T0 $ebp = $eip $T0 4 + ^ = $ebp $T0 ^ = $esp $T0 8 + =  $24 $T0 36 - ^ =  $20 $T0 40 - ^ =  $23 $T0 44 - ^ = 
STACK WIN 4 11cc4 1ff 18 0 c 0 40 0 1 $T0 $ebp = $eip $T0 4 + ^ = $ebp $T0 ^ = $esp $T0 8 + = 
STACK WIN 4 11cd5 1e7 7 0 c 4 40 0 1 $T0 $ebp = $eip $T0 4 + ^ = $ebp $T0 ^ = $esp $T0 8 + =  $23 $T0 68 - ^ = 
STACK WIN 4 11cdc 1dd 0 0 c 8 40 0 1 $T0 $ebp = $eip $T0 4 + ^ = $ebp $T0 ^ = $esp $T0 8 + =  $23 $T0 68 - ^ =  $24 $T0 72 - ^ = 
STACK WIN 4 11d5f 12f 0 0 c c 40 0 1 $T0 $ebp = $eip $T0 4 + ^ = $ebp $T0 ^ = $esp $T0 8 + =  $23 $T0 68 - ^ =  $24 $T0 72 - ^ =  $20 $T0 76 - ^ = 
STACK WIN 4 11f42 b 0 0 0 0 0 0 1 $T0 .raSearch = $eip $T0 ^ = $esp $T0 4 + = 
STACK WIN 4 11f4f a 0 0 0 0 0 0 1 $T0 .raSearch = $eip $T0 ^ = $esp $T0 4 + = 
STACK WIN 4 11f5b a 0 0 0 0 0 0 1 $T0 .raSearch = $eip $T0 ^ = $esp $T0 4 + = 
STACK WIN 4 11f67 8 0 0 0 0 0 0 1 $T0 .raSearch = $eip $T0 ^ = $esp $T0 4 + = 
STACK WIN 4 11f71 9 0 0 0 0 0 0 1 $T0 .raSearch = $eip $T0 ^ = $esp $T0 4 + = 
STACK WIN 4 11f7c a 0 0 0 0 0 0 1 $T0 .raSearch = $eip $T0 ^ = $esp $T0 4 + = 
STACK WIN 4 11f88 a 0 0 0 0 0 0 1 $T0 .raSearch = $eip $T0 ^ = $esp $T0 4 + = 
STACK WIN 4 11f94 a 0 0 0 0 0 0 1 $T0 .raSearch = $eip $T0 ^ = $esp $T0 4 + = 
STACK WIN 4 11fa0 11 0 0 0 0 0 0 1 $T0 .raSearch = $eip $T0 ^ = $esp $T0 4 + = 
STACK WIN 4 11fb5 11 0 0 0 0 0 0 1 $T0 .raSearch = $eip $T0 ^ = $esp $T0 4 + = 
STACK WIN 4 11fca a 0 0 0 0 0 0 1 $T0 .raSearch = $eip $T0 ^ = $esp $T0 4 + = 
STACK WIN 4 11fd6 a 0 0 0 0 0 0 1 $T0 .raSearch = $eip $T0 ^ = $esp $T0 4 + = 
STACK WIN 4 11fe2 1f 1 0 0 0 0 0 1 $T0 .raSearch = $eip $T0 ^ = $esp $T0 4 + = 
STACK WIN 4 11fe3 1d 0 0 0 4 0 0 1 $T0 .raSearch = $eip $T0 ^ = $esp $T0 4 + =  $24 $T0 4 - ^ = 
STACK WIN 4 11ff0 f 0 0 0 8 0 0 1 $T0 .raSearch = $eip $T0 ^ = $esp $T0 4 + =  $24 $T0 4 - ^ =  $23 $T0 8 - ^ = 
STACK WIN 4 12008 4 0 0 0 0 0 0 1 $T0 .raSearch = $eip $T0 ^ = $esp $T0 4 + = 
STACK WIN 4 1200c 4 0 0 0 0 0 0 1 $T0 .raSearch = $eip $T0 ^ = $esp $T0 4 + = 
STACK WIN 4 12010 e 0 0 0 0 0 0 1 $T0 .raSearch = $eip $T0 ^ = $esp $T0 4 + = 
STACK WIN 4 12021 46 a 0 0 0 4 0 1 $T0 $ebp = $eip $T0 4 + ^ = $ebp $T0 ^ = $esp $T0 8 + = 
STACK WIN 4 12030 32 0 0 0 4 4 0 1 $T0 $ebp = $eip $T0 4 + ^ = $ebp $T0 ^ = $esp $T0 8 + =  $20 $T0 8 - ^ = 
STACK WIN 4 12034 2d 0 0 0 8 4 0 1 $T0 $ebp = $eip $T0 4 + ^ = $ebp $T0 ^ = $esp $T0 8 + =  $20 $T0 8 - ^ =  $23 $T0 12 - ^ = 
STACK WIN 4 12035 2b 0 0 0 c 4 0 1 $T0 $ebp = $eip $T0 4 + ^ = $ebp $T0 ^ = $esp $T0 8 + =  $20 $T0 8 - ^ =  $23 $T0 12 - ^ =  $24 $T0 16 - ^ = 
STACK WIN 4 12078 4 0 0 0 0 0 0 1 $T0 .raSearch = $eip $T0 ^ = $esp $T0 4 + = 
STACK WIN 4 1207c 1c 3 0 4 0 0 0 1 $T0 $ebp = $eip $T0 4 + ^ = $ebp $T0 ^ = $esp $T0 8 + = 
STACK WIN 4 1209f ee e 0 4 0 18 0 1 $T0 $ebp = $eip $T0 4 + ^ = $ebp $T0 ^ = $esp $T0 8 + = 
STACK WIN 4 120ad de 0 0 4 4 18 0 1 $T0 $ebp = $eip $T0 4 + ^ = $ebp $T0 ^ = $esp $T0 8 + =  $24 $T0 28 - ^ = 
STACK WIN 4 120d9 2f 0 0 4 8 18 0 1 $T0 $ebp = $eip $T0 4 + ^ = $ebp $T0 ^ = $esp $T0 8 + =  $24 $T0 28 - ^ =  $23 $T0 32 - ^ = 
STACK WIN 4 121c8 8 0 0 0 0 0 0 1 $T0 .raSearch = $eip $T0 ^ = $esp $T0 4 + = 
STACK WIN 4 121d2 8 0 0 0 0 0 0 1 $T0 .raSearch = $eip $T0 ^ = $esp $T0 4 + = 
STACK WIN 4 121dc 8 0 0 0 0 0 0 1 $T0 .raSearch = $eip $T0 ^ = $esp $T0 4 + = 
STACK WIN 4 121e6 8 0 0 0 0 0 0 1 $T0 .raSearch = $eip $T0 ^ = $esp $T0 4 + = 
STACK WIN 4 121f0 d 0 0 0 0 0 0 1 $T0 .raSearch = $eip $T0 ^ = $esp $T0 4 + = 
STACK WIN 4 12200 8 0 0 0 0 0 0 1 $T0 .raSearch = $eip $T0 ^ = $esp $T0 4 + = 
STACK WIN 4 1220a a 0 0 0 0 0 0 1 $T0 .raSearch = $eip $T0 ^ = $esp $T0 4 + = 
STACK WIN 4 12216 5 0 0 0 0 0 0 1 $T0 .raSearch = $eip $T0 ^ = $esp $T0 4 + = 
STACK WIN 4 1221b 21 3 0 c 0 0 0 1 $T0 $ebp = $eip $T0 4 + ^ = $ebp $T0 ^ = $esp $T0 8 + = 
STACK WIN 4 12229 11 0 0 c 4 0 0 1 $T0 $ebp = $eip $T0 4 + ^ = $ebp $T0 ^ = $esp $T0 8 + =  $23 $T0 4 - ^ = 
STACK WIN 4 12244 15 3 0 4 0 0 0 1 $T0 $ebp = $eip $T0 4 + ^ = $ebp $T0 ^ = $esp $T0 8 + = 
STACK WIN 4 1225e 31 3 0 c 0 0 0 1 $T0 $ebp = $eip $T0 4 + ^ = $ebp $T0 ^ = $esp $T0 8 + = 
STACK WIN 4 12271 1c 0 0 c 4 0 0 1 $T0 $ebp = $eip $T0 4 + ^ = $ebp $T0 ^ = $esp $T0 8 + =  $20 $T0 4 - ^ = 
STACK WIN 4 1229b 23 3 0 18 0 0 0 1 $T0 $ebp = $eip $T0 4 + ^ = $ebp $T0 ^ = $esp $T0 8 + = 
STACK WIN 4 122c6 9f c 0 1c 10 74 0 1 $T0 $ebp = $eip $T0 4 + ^ = $ebp $T0 ^ = $esp $T0 8 + =  $20 $T0 120 - ^ =  $23 $T0 124 - ^ =  $24 $T0 128 - ^ = 
STACK WIN 4 12358 c 0 0 1c 10 74 0 1 $T0 $ebp = $T2 $esp = $T1 .raSearchStart = $eip $T1 ^ = $ebp $T0 = $esp $T1 4 + = 
STACK WIN 4 1238c 2d 3 0 14 0 0 0 1 $T0 $ebp = $eip $T0 4 + ^ = $ebp $T0 ^ = $esp $T0 8 + = 
STACK WIN 4 123c4 1c 3 0 c 0 0 0 1 $T0 $ebp = $eip $T0 4 + ^ = $ebp $T0 ^ = $esp $T0 8 + = 
STACK WIN 4 123e7 5c 9 0 18 0 58 0 1 $T0 $ebp = $eip $T0 4 + ^ = $ebp $T0 ^ = $esp $T0 8 + = 
STACK WIN 4 123f7 4a 0 0 18 4 58 0 1 $T0 $ebp = $eip $T0 4 + ^ = $ebp $T0 ^ = $esp $T0 8 + =  $23 $T0 92 - ^ = 
STACK WIN 4 1245a 10 3 0 4 0 0 0 1 $T0 $ebp = $eip $T0 4 + ^ = $ebp $T0 ^ = $esp $T0 8 + = 
STACK WIN 4 1246e e 3 0 4 0 0 0 1 $T0 $ebp = $eip $T0 4 + ^ = $ebp $T0 ^ = $esp $T0 8 + = 
STACK WIN 4 1247f f 3 0 0 0 0 0 1 $T0 .raSearch = $eip $T0 ^ = $esp $T0 4 + = 
STACK WIN 4 12480 d 2 0 0 4 0 0 1 $T0 .raSearch = $eip $T0 ^ = $esp $T0 4 + =  $23 $T0 4 - ^ = 
STACK WIN 4 12491 10 3 0 0 0 0 0 1 $T0 .raSearch = $eip $T0 ^ = $esp $T0 4 + = 
STACK WIN 4 12492 e 2 0 0 4 0 0 1 $T0 .raSearch = $eip $T0 ^ = $esp $T0 4 + =  $23 $T0 4 - ^ = 
STACK WIN 4 124a5 9 0 0 0 0 0 0 1 $T0 .raSearch = $eip $T0 ^ = $esp $T0 4 + = 
STACK WIN 4 124b0 7 0 0 0 0 0 0 1 $T0 .raSearch = $eip $T0 ^ = $esp $T0 4 + = 
STACK WIN 4 124b7 6 0 0 0 0 0 0 1 $T0 .raSearch = $eip $T0 ^ = $esp $T0 4 + = 
STACK WIN 4 124bd 3 0 0 0 0 0 0 1 $T0 .raSearch = $eip $T0 ^ = $esp $T0 4 + = 
STACK WIN 4 124c0 7 0 0 0 0 0 0 1 $T0 .raSearch = $eip $T0 ^ = $esp $T0 4 + = 
STACK WIN 4 124c7 10 3 0 0 0 0 0 1 $T0 .raSearch = $eip $T0 ^ = $esp $T0 4 + = 
STACK WIN 4 124c8 e 2 0 0 4 0 0 1 $T0 .raSearch = $eip $T0 ^ = $esp $T0 4 + =  $23 $T0 4 - ^ = 
STACK WIN 4 124db 1a 3 0 4 0 0 0 1 $T0 $ebp = $eip $T0 4 + ^ = $ebp $T0 ^ = $esp $T0 8 + = 
STACK WIN 4 124fb 1c 3 0 4 0 0 0 1 $T0 $ebp = $eip $T0 4 + ^ = $ebp $T0 ^ = $esp $T0 8 + = 
STACK WIN 4 1251e 36 3 0 4 0 0 0 1 $T0 $ebp = $eip $T0 4 + ^ = $ebp $T0 ^ = $esp $T0 8 + = 
STACK WIN 4 1252c 26 0 0 4 4 0 0 1 $T0 $ebp = $eip $T0 4 + ^ = $ebp $T0 ^ = $esp $T0 8 + =  $23 $T0 4 - ^ = 
STACK WIN 4 12561 e 0 0 0 0 0 0 1 $T0 .raSearch = $eip $T0 ^ = $esp $T0 4 + = 
STACK WIN 4 12572 92 0 0 0 0 0 0 1 $T0 .raSearch = $eip $T0 ^ = $esp $T0 4 + = 
STACK WIN 4 1257f 84 0 0 0 4 0 0 1 $T0 .raSearch = $eip $T0 ^ = $esp $T0 4 + =  $20 $T0 4 - ^ = 
STACK WIN 4 12580 80 0 0 0 8 0 0 1 $T0 .raSearch = $eip $T0 ^ = $esp $T0 4 + =  $20 $T0 4 - ^ =  $24 $T0 8 - ^ = 
STACK WIN 4 125b7 41 0 0 0 c 0 0 1 $T0 .raSearch = $eip $T0 ^ = $esp $T0 4 + =  $20 $T0 4 - ^ =  $24 $T0 8 - ^ =  $23 $T0 12 - ^ = 
STACK WIN 4 12628 37 0 0 0 0 0 0 1 $T0 .raSearch = $eip $T0 ^ = $esp $T0 4 + = 
STACK WIN 4 12635 29 0 0 0 4 0 0 1 $T0 .raSearch = $eip $T0 ^ = $esp $T0 4 + =  $23 $T0 4 - ^ = 
STACK WIN 4 12636 27 0 0 0 8 0 0 1 $T0 .raSearch = $eip $T0 ^ = $esp $T0 4 + =  $23 $T0 4 - ^ =  $24 $T0 8 - ^ = 
STACK WIN 4 1266c 33 0 0 0 0 0 0 1 $T0 .raSearch = $eip $T0 ^ = $esp $T0 4 + = 
STACK WIN 4 126ab 1b 0 0 0 0 0 0 1 $T0 .raSearch = $eip $T0 ^ = $esp $T0 4 + = 
STACK WIN 4 126cc 3c 2 0 0 0 0 0 1 $T0 .raSearch = $eip $T0 ^ = $esp $T0 4 + = 
STACK WIN 4 126cd 3a 1 0 0 4 0 0 1 $T0 .raSearch = $eip $T0 ^ = $esp $T0 4 + =  $23 $T0 4 - ^ = 
STACK WIN 4 126ce 38 0 0 0 8 0 0 1 $T0 .raSearch = $eip $T0 ^ = $esp $T0 4 + =  $23 $T0 4 - ^ =  $24 $T0 8 - ^ = 
STACK WIN 4 12717 15 3 0 4 0 0 0 1 $T0 $ebp = $eip $T0 4 + ^ = $ebp $T0 ^ = $esp $T0 8 + = 
STACK WIN 4 12731 2f 1 0 0 0 0 0 1 $T0 .raSearch = $eip $T0 ^ = $esp $T0 4 + = 
STACK WIN 4 12732 2d 0 0 0 4 0 0 1 $T0 .raSearch = $eip $T0 ^ = $esp $T0 4 + =  $23 $T0 4 - ^ = 
STACK WIN 4 12740 1c 0 0 0 8 0 0 1 $T0 .raSearch = $eip $T0 ^ = $esp $T0 4 + =  $23 $T0 4 - ^ =  $24 $T0 8 - ^ = 
STACK WIN 4 1276b 15 3 0 4 0 0 0 1 $T0 $ebp = $eip $T0 4 + ^ = $ebp $T0 ^ = $esp $T0 8 + = 
STACK WIN 4 12785 6 0 0 0 0 0 0 1 $T0 .raSearch = $eip $T0 ^ = $esp $T0 4 + = 
STACK WIN 4 1278b 14 3 0 4 0 0 0 1 $T0 $ebp = $eip $T0 4 + ^ = $ebp $T0 ^ = $esp $T0 8 + = 
STACK WIN 4 127a4 1d 3 0 4 0 0 0 1 $T0 $ebp = $eip $T0 4 + ^ = $ebp $T0 ^ = $esp $T0 8 + = 
STACK WIN 4 127c8 d 3 0 8 0 0 0 1 $T0 $ebp = $eip $T0 4 + ^ = $ebp $T0 ^ = $esp $T0 8 + = 
STACK WIN 4 127d8 d 3 0 8 0 0 0 1 $T0 $ebp = $eip $T0 4 + ^ = $ebp $T0 ^ = $esp $T0 8 + = 
STACK WIN 4 127e8 d 3 0 8 0 0 0 1 $T0 $ebp = $eip $T0 4 + ^ = $ebp $T0 ^ = $esp $T0 8 + = 
STACK WIN 4 127f8 a 3 0 4 0 0 0 1 $T0 $ebp = $eip $T0 4 + ^ = $ebp $T0 ^ = $esp $T0 8 + = 
STACK WIN 4 12804 a 3 0 4 0 0 0 1 $T0 $ebp = $eip $T0 4 + ^ = $ebp $T0 ^ = $esp $T0 8 + = 
STACK WIN 4 12810 9 4 0 4 0 4 0 1 $T0 $ebp = $eip $T0 4 + ^ = $ebp $T0 ^ = $esp $T0 8 + = 
STACK WIN 4 1281b 4 0 0 0 0 0 0 1 $T0 .raSearch = $eip $T0 ^ = $esp $T0 4 + = 
STACK WIN 4 1281f 1a 0 0 0 0 0 0 1 $T0 .raSearch = $eip $T0 ^ = $esp $T0 4 + = 
STACK WIN 4 1283f 1a 0 0 0 0 0 0 1 $T0 .raSearch = $eip $T0 ^ = $esp $T0 4 + = 
STACK WIN 4 1285f 1a 0 0 0 0 0 0 1 $T0 .raSearch = $eip $T0 ^ = $esp $T0 4 + = 
STACK WIN 4 1287f 1a 0 0 0 0 0 0 1 $T0 .raSearch = $eip $T0 ^ = $esp $T0 4 + = 
STACK WIN 4 1289f 1a 0 0 0 0 0 0 1 $T0 .raSearch = $eip $T0 ^ = $esp $T0 4 + = 
STACK WIN 4 128bf c4 7 0 8 0 4 0 1 $T0 $ebp = $eip $T0 4 + ^ = $ebp $T0 ^ = $esp $T0 8 + = 
STACK WIN 4 128c4 b9 2 0 8 4 4 0 1 $T0 $ebp = $eip $T0 4 + ^ = $ebp $T0 ^ = $esp $T0 8 + =  $20 $T0 8 - ^ = 
STACK WIN 4 128c5 b7 1 0 8 8 4 0 1 $T0 $ebp = $eip $T0 4 + ^ = $ebp $T0 ^ = $esp $T0 8 + =  $20 $T0 8 - ^ =  $23 $T0 12 - ^ = 
STACK WIN 4 128c6 b5 0 0 8 c 4 0 1 $T0 $ebp = $eip $T0 4 + ^ = $ebp $T0 ^ = $esp $T0 8 + =  $20 $T0 8 - ^ =  $23 $T0 12 - ^ =  $24 $T0 16 - ^ = 
STACK WIN 4 129b4 6f 7 0 10 0 0 0 1 $T0 $ebp = $eip $T0 4 + ^ = $ebp $T0 ^ = $esp $T0 8 + = 
STACK WIN 4 129bb 66 0 0 10 4 0 0 1 $T0 $ebp = $eip $T0 4 + ^ = $ebp $T0 ^ = $esp $T0 8 + =  $24 $T0 4 - ^ = 
STACK WIN 4 129e5 3b 0 0 10 8 0 0 1 $T0 $ebp = $eip $T0 4 + ^ = $ebp $T0 ^ = $esp $T0 8 + =  $24 $T0 4 - ^ =  $23 $T0 8 - ^ = 
STACK WIN 4 12a3e 4f 7 0 4 0 0 0 1 $T0 $ebp = $eip $T0 4 + ^ = $ebp $T0 ^ = $esp $T0 8 + = 
STACK WIN 4 12a45 46 0 0 4 4 0 0 1 $T0 $ebp = $eip $T0 4 + ^ = $ebp $T0 ^ = $esp $T0 8 + =  $24 $T0 4 - ^ = 
STACK WIN 4 12a5e 2c 0 0 4 8 0 0 1 $T0 $ebp = $eip $T0 4 + ^ = $ebp $T0 ^ = $esp $T0 8 + =  $24 $T0 4 - ^ =  $23 $T0 8 - ^ = 
STACK WIN 4 12aa0 22 3 0 c 0 0 0 1 $T0 $ebp = $eip $T0 4 + ^ = $ebp $T0 ^ = $esp $T0 8 + = 
STACK WIN 4 12aca 61 3 0 4 0 0 0 1 $T0 $ebp = $eip $T0 4 + ^ = $ebp $T0 ^ = $esp $T0 8 + = 
STACK WIN 4 12b43 3b 4 0 4 0 0 0 1 $T0 $ebp = $eip $T0 4 + ^ = $ebp $T0 ^ = $esp $T0 8 + = 
STACK WIN 4 12b47 30 0 0 4 4 0 0 1 $T0 $ebp = $eip $T0 4 + ^ = $ebp $T0 ^ = $esp $T0 8 + =  $23 $T0 4 - ^ = 
STACK WIN 4 12b8c 3b 4 0 4 0 0 0 1 $T0 $ebp = $eip $T0 4 + ^ = $ebp $T0 ^ = $esp $T0 8 + = 
STACK WIN 4 12b90 35 0 0 4 4 0 0 1 $T0 $ebp = $eip $T0 4 + ^ = $ebp $T0 ^ = $esp $T0 8 + =  $23 $T0 4 - ^ = 
STACK WIN 4 12bd5 3b 4 0 4 0 0 0 1 $T0 $ebp = $eip $T0 4 + ^ = $ebp $T0 ^ = $esp $T0 8 + = 
STACK WIN 4 12bd9 35 0 0 4 4 0 0 1 $T0 $ebp = $eip $T0 4 + ^ = $ebp $T0 ^ = $esp $T0 8 + =  $23 $T0 4 - ^ = 
STACK WIN 4 12c1e 3e 4 0 8 0 0 0 1 $T0 $ebp = $eip $T0 4 + ^ = $ebp $T0 ^ = $esp $T0 8 + = 
STACK WIN 4 12c22 38 0 0 8 4 0 0 1 $T0 $ebp = $eip $T0 4 + ^ = $ebp $T0 ^ = $esp $T0 8 + =  $23 $T0 4 - ^ = 
STACK WIN 4 12c6b 47 4 0 c 0 0 0 1 $T0 $ebp = $eip $T0 4 + ^ = $ebp $T0 ^ = $esp $T0 8 + = 
STACK WIN 4 12c6f 41 0 0 c 4 0 0 1 $T0 $ebp = $eip $T0 4 + ^ = $ebp $T0 ^ = $esp $T0 8 + =  $23 $T0 4 - ^ = 
STACK WIN 4 12cc3 29 f 0 0 0 0 0 1 $T0 .raSearch = $eip $T0 ^ = $esp $T0 4 + = 
STACK WIN 4 12cd2 19 0 0 0 4 0 0 1 $T0 .raSearch = $eip $T0 ^ = $esp $T0 4 + =  $23 $T0 4 - ^ = 
STACK WIN 4 12cf6 32 3 0 4 0 0 0 1 $T0 $ebp = $eip $T0 4 + ^ = $ebp $T0 ^ = $esp $T0 8 + = 
STACK WIN 4 12d00 26 0 0 4 4 0 0 1 $T0 $ebp = $eip $T0 4 + ^ = $ebp $T0 ^ = $esp $T0 8 + =  $23 $T0 4 - ^ = 
STACK WIN 4 12d34 6 0 0 0 0 0 0 1 $T0 .raSearch = $eip $T0 ^ = $esp $T0 4 + = 
STACK WIN 4 12d3a 1d 3 0 4 0 0 0 1 $T0 $ebp = $eip $T0 4 + ^ = $ebp $T0 ^ = $esp $T0 8 + = 
STACK WIN 4 12d5e b 0 0 0 0 0 0 1 $T0 .raSearch = $eip $T0 ^ = $esp $T0 4 + = 
STACK WIN 4 12efd 14 3 0 4 0 0 0 1 $T0 $ebp = $eip $T0 4 + ^ = $ebp $T0 ^ = $esp $T0 8 + = 
STACK WIN 4 12f16 d 3 0 8 0 0 0 1 $T0 $ebp = $eip $T0 4 + ^ = $ebp $T0 ^ = $esp $T0 8 + = 
STACK WIN 4 12f26 a 3 0 4 0 0 0 1 $T0 $ebp = $eip $T0 4 + ^ = $ebp $T0 ^ = $esp $T0 8 + = 
STACK WIN 4 12f32 15 0 0 0 0 0 0 1 $T0 .raSearch = $eip $T0 ^ = $esp $T0 4 + = 
STACK WIN 4 12f4c 1c 1 0 0 4 0 0 1 $T0 .raSearch = $eip $T0 ^ = $esp $T0 4 + =  $23 $T0 4 - ^ = 
STACK WIN 4 12f6f 25 3 0 4 0 0 0 1 $T0 $ebp = $eip $T0 4 + ^ = $ebp $T0 ^ = $esp $T0 8 + = 
STACK WIN 4 12f9d 24 3 0 8 0 0 0 1 $T0 $ebp = $eip $T0 4 + ^ = $ebp $T0 ^ = $esp $T0 8 + = 
STACK WIN 4 12fca 8 3 0 4 0 0 0 1 $T0 $ebp = $eip $T0 4 + ^ = $ebp $T0 ^ = $esp $T0 8 + = 
STACK WIN 4 12fd4 14 3 0 8 0 0 0 1 $T0 $ebp = $eip $T0 4 + ^ = $ebp $T0 ^ = $esp $T0 8 + = 
STACK WIN 4 12fed 82 e 0 10 0 8 0 1 $T0 $ebp = $eip $T0 4 + ^ = $ebp $T0 ^ = $esp $T0 8 + = 
STACK WIN 4 12ff3 74 8 0 10 4 8 0 1 $T0 $ebp = $eip $T0 4 + ^ = $ebp $T0 ^ = $esp $T0 8 + =  $20 $T0 12 - ^ = 
STACK WIN 4 12ff7 64 4 0 10 8 8 0 1 $T0 $ebp = $eip $T0 4 + ^ = $ebp $T0 ^ = $esp $T0 8 + =  $20 $T0 12 - ^ =  $23 $T0 16 - ^ = 
STACK WIN 4 12ffb 5f 0 0 10 c 8 0 1 $T0 $ebp = $eip $T0 4 + ^ = $ebp $T0 ^ = $esp $T0 8 + =  $20 $T0 12 - ^ =  $23 $T0 16 - ^ =  $24 $T0 20 - ^ = 
STACK WIN 4 13069 6 0 0 10 c 8 0 1 $T0 $ebp = $eip $T0 4 + ^ = $ebp $T0 ^ = $esp $T0 8 + =  $20 $T0 12 - ^ =  $23 $T0 16 - ^ =  $24 $T0 20 - ^ = 
STACK WIN 4 1308f 5e 6 0 14 0 18 0 1 $T0 $ebp = $eip $T0 4 + ^ = $ebp $T0 ^ = $esp $T0 8 + = 
STACK WIN 4 13104 db 7 0 1c 4 38 0 1 $T0 $ebp = $eip $T0 4 + ^ = $ebp $T0 ^ = $esp $T0 8 + =  $20 $T0 60 - ^ = 
STACK WIN 4 13215 30 5 0 8 4 4 0 1 $T0 $ebp = $eip $T0 4 + ^ = $ebp $T0 ^ = $esp $T0 8 + =  $20 $T0 8 - ^ = 
STACK WIN 4 13251 53 8 0 8 c 8 0 1 $T0 $ebp = $eip $T0 4 + ^ = $ebp $T0 ^ = $esp $T0 8 + =  $20 $T0 12 - ^ =  $23 $T0 16 - ^ =  $24 $T0 20 - ^ = 
STACK WIN 4 132b8 3 0 0 0 0 0 0 1 $T0 .raSearch = $eip $T0 ^ = $esp $T0 4 + = 
STACK WIN 4 132bb 31 4 0 10 0 0 0 1 $T0 $ebp = $eip $T0 4 + ^ = $ebp $T0 ^ = $esp $T0 8 + = 
STACK WIN 4 132bf 2b 0 0 10 4 0 0 1 $T0 $ebp = $eip $T0 4 + ^ = $ebp $T0 ^ = $esp $T0 8 + =  $23 $T0 4 - ^ = 
STACK WIN 4 132f8 24 7 0 8 0 0 0 1 $T0 $ebp = $eip $T0 4 + ^ = $ebp $T0 ^ = $esp $T0 8 + = 
STACK WIN 4 132ff 1b 0 0 8 4 0 0 1 $T0 $ebp = $eip $T0 4 + ^ = $ebp $T0 ^ = $esp $T0 8 + =  $23 $T0 4 - ^ = 
STACK WIN 4 13325 45 4 0 4 0 0 0 1 $T0 $ebp = $eip $T0 4 + ^ = $ebp $T0 ^ = $esp $T0 8 + = 
STACK WIN 4 13329 13 0 0 4 4 0 0 1 $T0 $ebp = $eip $T0 4 + ^ = $ebp $T0 ^ = $esp $T0 8 + =  $23 $T0 4 - ^ = 
STACK WIN 4 1337b 9d 5 0 10 4 4 0 1 $T0 $ebp = $eip $T0 4 + ^ = $ebp $T0 ^ = $esp $T0 8 + =  $20 $T0 8 - ^ = 
STACK WIN 4 1343f 36 0 0 10 0 0 0 1 $T0 .raSearch = $eip $T0 ^ = $esp $T0 4 + = 
STACK WIN 4 13482 36 0 0 10 0 0 0 1 $T0 .raSearch = $eip $T0 ^ = $esp $T0 4 + = 
STACK WIN 4 134c5 36 0 0 10 0 0 0 1 $T0 .raSearch = $eip $T0 ^ = $esp $T0 4 + = 
STACK WIN 4 13508 25 4 0 4 0 0 0 1 $T0 $ebp = $eip $T0 4 + ^ = $ebp $T0 ^ = $esp $T0 8 + = 
STACK WIN 4 1350c 1d 0 0 4 4 0 0 1 $T0 $ebp = $eip $T0 4 + ^ = $ebp $T0 ^ = $esp $T0 8 + =  $23 $T0 4 - ^ = 
STACK WIN 4 13c11 13f c 0 10 10 20 0 1 $T0 $ebp = $eip $T0 4 + ^ = $ebp $T0 ^ = $esp $T0 8 + =  $20 $T0 36 - ^ =  $23 $T0 40 - ^ =  $24 $T0 44 - ^ = 
STACK WIN 4 13d2f 4 0 0 10 10 20 0 1 $T0 $ebp = $T2 $esp = $T1 .raSearchStart = $eip $T1 ^ = $ebp $T0 = $esp $T1 4 + = 
STACK WIN 4 13d9f 99 c 0 10 10 18 0 1 $T0 $ebp = $eip $T0 4 + ^ = $ebp $T0 ^ = $esp $T0 8 + =  $20 $T0 28 - ^ =  $23 $T0 32 - ^ =  $24 $T0 36 - ^ = 
STACK WIN 4 13e2b 4 0 0 10 10 18 0 1 $T0 $ebp = $T2 $esp = $T1 .raSearchStart = $eip $T1 ^ = $ebp $T0 = $esp $T1 4 + = 
STACK WIN 4 13e5e 80 d 0 2c 0 0 0 1 $T0 $ebp = $eip $T0 4 + ^ = $ebp $T0 ^ = $esp $T0 8 + = 
STACK WIN 4 13e66 76 5 0 2c 4 0 0 1 $T0 $ebp = $eip $T0 4 + ^ = $ebp $T0 ^ = $esp $T0 8 + =  $20 $T0 4 - ^ = 
STACK WIN 4 13e6a 71 1 0 2c 8 0 0 1 $T0 $ebp = $eip $T0 4 + ^ = $ebp $T0 ^ = $esp $T0 8 + =  $20 $T0 4 - ^ =  $23 $T0 8 - ^ = 
STACK WIN 4 13e6b 6f 0 0 2c c 0 0 1 $T0 $ebp = $eip $T0 4 + ^ = $ebp $T0 ^ = $esp $T0 8 + =  $20 $T0 4 - ^ =  $23 $T0 8 - ^ =  $24 $T0 12 - ^ = 
STACK WIN 4 13efe 38e 9 0 20 0 54 0 1 $T0 $ebp = $eip $T0 4 + ^ = $ebp $T0 ^ = $esp $T0 8 + = 
STACK WIN 4 13f05 320 2 0 20 4 54 0 1 $T0 $ebp = $eip $T0 4 + ^ = $ebp $T0 ^ = $esp $T0 8 + =  $20 $T0 88 - ^ = 
STACK WIN 4 13f06 31e 1 0 20 8 54 0 1 $T0 $ebp = $eip $T0 4 + ^ = $ebp $T0 ^ = $esp $T0 8 + =  $20 $T0 88 - ^ =  $23 $T0 92 - ^ = 
STACK WIN 4 13f07 31c 0 0 20 c 54 0 1 $T0 $ebp = $eip $T0 4 + ^ = $ebp $T0 ^ = $esp $T0 8 + =  $20 $T0 88 - ^ =  $23 $T0 92 - ^ =  $24 $T0 96 - ^ = 
STACK WIN 4 1436f 111 7 0 20 0 20 0 1 $T0 $ebp = $eip $T0 4 + ^ = $ebp $T0 ^ = $esp $T0 8 + = 
STACK WIN 4 14376 60 0 0 20 4 20 0 1 $T0 $ebp = $eip $T0 4 + ^ = $ebp $T0 ^ = $esp $T0 8 + =  $24 $T0 36 - ^ = 
STACK WIN 4 14382 53 0 0 20 8 20 0 1 $T0 $ebp = $eip $T0 4 + ^ = $ebp $T0 ^ = $esp $T0 8 + =  $24 $T0 36 - ^ =  $20 $T0 40 - ^ = 
STACK WIN 4 14383 51 0 0 20 c 20 0 1 $T0 $ebp = $eip $T0 4 + ^ = $ebp $T0 ^ = $esp $T0 8 + =  $24 $T0 36 - ^ =  $20 $T0 40 - ^ =  $23 $T0 44 - ^ = 
STACK WIN 4 144c4 8e 9 0 c 0 0 0 1 $T0 $ebp = $eip $T0 4 + ^ = $ebp $T0 ^ = $esp $T0 8 + = 
STACK WIN 4 144cb 85 2 0 c 4 0 0 1 $T0 $ebp = $eip $T0 4 + ^ = $ebp $T0 ^ = $esp $T0 8 + =  $20 $T0 4 - ^ = 
STACK WIN 4 144cc 83 1 0 c 8 0 0 1 $T0 $ebp = $eip $T0 4 + ^ = $ebp $T0 ^ = $esp $T0 8 + =  $20 $T0 4 - ^ =  $23 $T0 8 - ^ = 
STACK WIN 4 144cd 81 0 0 c c 0 0 1 $T0 $ebp = $eip $T0 4 + ^ = $ebp $T0 ^ = $esp $T0 8 + =  $20 $T0 4 - ^ =  $23 $T0 8 - ^ =  $24 $T0 12 - ^ = 
STACK WIN 4 14575 102 6 0 20 0 0 0 1 $T0 $ebp = $eip $T0 4 + ^ = $ebp $T0 ^ = $esp $T0 8 + = 
STACK WIN 4 14579 fc 2 0 20 4 0 0 1 $T0 $ebp = $eip $T0 4 + ^ = $ebp $T0 ^ = $esp $T0 8 + =  $20 $T0 4 - ^ = 
STACK WIN 4 1457a fa 1 0 20 8 0 0 1 $T0 $ebp = $eip $T0 4 + ^ = $ebp $T0 ^ = $esp $T0 8 + =  $20 $T0 4 - ^ =  $23 $T0 8 - ^ = 
STACK WIN 4 1457b f8 0 0 20 c 0 0 1 $T0 $ebp = $eip $T0 4 + ^ = $ebp $T0 ^ = $esp $T0 8 + =  $20 $T0 4 - ^ =  $23 $T0 8 - ^ =  $24 $T0 12 - ^ = 
STACK WIN 4 146b7 17 3 0 8 0 0 0 1 $T0 $ebp = $eip $T0 4 + ^ = $ebp $T0 ^ = $esp $T0 8 + = 
STACK WIN 4 146d3 14 3 0 8 0 0 0 1 $T0 $ebp = $eip $T0 4 + ^ = $ebp $T0 ^ = $esp $T0 8 + = 
STACK WIN 4 146ec 1b 9 0 4 0 0 0 1 $T0 $ebp = $eip $T0 4 + ^ = $ebp $T0 ^ = $esp $T0 8 + = 
STACK WIN 4 146f0 13 5 0 4 4 0 0 1 $T0 $ebp = $eip $T0 4 + ^ = $ebp $T0 ^ = $esp $T0 8 + =  $23 $T0 4 - ^ = 
STACK WIN 4 1470d 18 0 0 0 0 0 0 1 $T0 .raSearch = $eip $T0 ^ = $esp $T0 4 + = 
STACK WIN 4 1472b 2c 6 0 4 0 0 0 1 $T0 $ebp = $eip $T0 4 + ^ = $ebp $T0 ^ = $esp $T0 8 + = 
STACK WIN 4 1472f 24 2 0 4 4 0 0 1 $T0 $ebp = $eip $T0 4 + ^ = $ebp $T0 ^ = $esp $T0 8 + =  $23 $T0 4 - ^ = 
STACK WIN 4 14762 1d 3 0 8 0 0 0 1 $T0 $ebp = $eip $T0 4 + ^ = $ebp $T0 ^ = $esp $T0 8 + = 
STACK WIN 4 14786 14 3 0 8 0 0 0 1 $T0 $ebp = $eip $T0 4 + ^ = $ebp $T0 ^ = $esp $T0 8 + = 
STACK WIN 4 1479f 11 0 0 0 0 0 0 1 $T0 .raSearch = $eip $T0 ^ = $esp $T0 4 + = 
STACK WIN 4 147b4 11 0 0 0 0 0 0 1 $T0 .raSearch = $eip $T0 ^ = $esp $T0 4 + = 
STACK WIN 4 147c9 13 3 0 4 0 0 0 1 $T0 $ebp = $eip $T0 4 + ^ = $ebp $T0 ^ = $esp $T0 8 + = 
STACK WIN 4 147e0 1f 3 0 4 0 0 0 1 $T0 $ebp = $eip $T0 4 + ^ = $ebp $T0 ^ = $esp $T0 8 + = 
STACK WIN 4 14806 13 3 0 4 0 0 0 1 $T0 $ebp = $eip $T0 4 + ^ = $ebp $T0 ^ = $esp $T0 8 + = 
STACK WIN 4 1481d c 0 0 0 0 0 0 1 $T0 .raSearch = $eip $T0 ^ = $esp $T0 4 + = 
STACK WIN 4 1482c c 0 0 0 0 0 0 1 $T0 .raSearch = $eip $T0 ^ = $esp $T0 4 + = 
STACK WIN 4 1483b 6 0 0 0 0 0 0 1 $T0 .raSearch = $eip $T0 ^ = $esp $T0 4 + = 
STACK WIN 4 14841 6 0 0 0 0 0 0 1 $T0 .raSearch = $eip $T0 ^ = $esp $T0 4 + = 
STACK WIN 4 14847 13 3 0 4 0 0 0 1 $T0 $ebp = $eip $T0 4 + ^ = $ebp $T0 ^ = $esp $T0 8 + = 
STACK WIN 4 1485e 2d 6 0 4 0 0 0 1 $T0 $ebp = $eip $T0 4 + ^ = $ebp $T0 ^ = $esp $T0 8 + = 
STACK WIN 4 14862 25 2 0 4 4 0 0 1 $T0 $ebp = $eip $T0 4 + ^ = $ebp $T0 ^ = $esp $T0 8 + =  $23 $T0 4 - ^ = 
STACK WIN 4 14896 2d 6 0 4 0 0 0 1 $T0 $ebp = $eip $T0 4 + ^ = $ebp $T0 ^ = $esp $T0 8 + = 
STACK WIN 4 1489a 25 2 0 4 4 0 0 1 $T0 $ebp = $eip $T0 4 + ^ = $ebp $T0 ^ = $esp $T0 8 + =  $23 $T0 4 - ^ = 
STACK WIN 4 148ce 5 0 0 10 0 0 0 1 $T0 $ebp = $eip $T0 4 + ^ = $ebp $T0 ^ = $esp $T0 8 + = 
STACK WIN 4 148d3 9 3 0 10 0 0 0 1 $T0 $ebp = $eip $T0 4 + ^ = $ebp $T0 ^ = $esp $T0 8 + = 
STACK WIN 4 148de 1c4 c 0 1c 10 4c 0 1 $T0 $ebp = $eip $T0 4 + ^ = $ebp $T0 ^ = $esp $T0 8 + =  $20 $T0 80 - ^ =  $23 $T0 84 - ^ =  $24 $T0 88 - ^ = 
STACK WIN 4 1496a a 0 0 1c 10 4c 0 1 $T0 $ebp = $T2 $esp = $T1 .raSearchStart = $eip $T1 ^ = $ebp $T0 = $esp $T1 4 + = 
STACK WIN 4 14a20 81 0 0 1c 10 4c 0 1 $T0 $ebp = $T2 $esp = $T1 .raSearchStart = $eip $T1 ^ = $ebp $T0 = $esp $T1 4 + = 
STACK WIN 4 14b13 3a c 0 4 10 10 0 1 $T0 $ebp = $eip $T0 4 + ^ = $ebp $T0 ^ = $esp $T0 8 + =  $20 $T0 20 - ^ =  $23 $T0 24 - ^ =  $24 $T0 28 - ^ = 
STACK WIN 4 14b5b 4a 3 0 4 0 0 0 1 $T0 $ebp = $eip $T0 4 + ^ = $ebp $T0 ^ = $esp $T0 8 + = 
STACK WIN 4 14bb7 18 3 0 c 0 0 0 1 $T0 $ebp = $eip $T0 4 + ^ = $ebp $T0 ^ = $esp $T0 8 + = 
STACK WIN 4 14bd5 e8 c 0 10 10 20 0 1 $T0 $ebp = $eip $T0 4 + ^ = $ebp $T0 ^ = $esp $T0 8 + =  $20 $T0 36 - ^ =  $23 $T0 40 - ^ =  $24 $T0 44 - ^ = 
STACK WIN 4 14c57 a 0 0 10 10 20 0 1 $T0 $ebp = $T2 $esp = $T1 .raSearchStart = $eip $T1 ^ = $ebp $T0 = $esp $T1 4 + = 
STACK WIN 4 14ca0 16 0 0 10 10 20 0 1 $T0 $ebp = $T2 $esp = $T1 .raSearchStart = $eip $T1 ^ = $ebp $T0 = $esp $T1 4 + = 
STACK WIN 4 14cf7 b 3 0 8 0 0 0 1 $T0 $ebp = $eip $T0 4 + ^ = $ebp $T0 ^ = $esp $T0 8 + = 
STACK WIN 4 14d04 9a c 0 8 0 18 0 1 $T0 $ebp = $eip $T0 4 + ^ = $ebp $T0 ^ = $esp $T0 8 + = 
STACK WIN 4 14d0b 8b 5 0 8 4 18 0 1 $T0 $ebp = $eip $T0 4 + ^ = $ebp $T0 ^ = $esp $T0 8 + =  $20 $T0 28 - ^ = 
STACK WIN 4 14d0c 87 4 0 8 8 18 0 1 $T0 $ebp = $eip $T0 4 + ^ = $ebp $T0 ^ = $esp $T0 8 + =  $20 $T0 28 - ^ =  $23 $T0 32 - ^ = 
STACK WIN 4 14d10 82 0 0 8 c 18 0 1 $T0 $ebp = $eip $T0 4 + ^ = $ebp $T0 ^ = $esp $T0 8 + =  $20 $T0 28 - ^ =  $23 $T0 32 - ^ =  $24 $T0 36 - ^ = 
STACK WIN 4 14dc4 39 6 0 4 0 0 0 1 $T0 $ebp = $eip $T0 4 + ^ = $ebp $T0 ^ = $esp $T0 8 + = 
STACK WIN 4 14dc8 2f 2 0 4 4 0 0 1 $T0 $ebp = $eip $T0 4 + ^ = $ebp $T0 ^ = $esp $T0 8 + =  $20 $T0 4 - ^ = 
STACK WIN 4 14dc9 2d 1 0 4 8 0 0 1 $T0 $ebp = $eip $T0 4 + ^ = $ebp $T0 ^ = $esp $T0 8 + =  $20 $T0 4 - ^ =  $23 $T0 8 - ^ = 
STACK WIN 4 14dca 2b 0 0 4 c 0 0 1 $T0 $ebp = $eip $T0 4 + ^ = $ebp $T0 ^ = $esp $T0 8 + =  $20 $T0 4 - ^ =  $23 $T0 8 - ^ =  $24 $T0 12 - ^ = 
STACK WIN 4 14e0b 9 3 0 c 0 0 0 1 $T0 $ebp = $eip $T0 4 + ^ = $ebp $T0 ^ = $esp $T0 8 + = 
STACK WIN 4 14e16 10 3 0 c 0 0 0 1 $T0 $ebp = $eip $T0 4 + ^ = $ebp $T0 ^ = $esp $T0 8 + = 
STACK WIN 4 14e2a 13 3 0 10 0 0 0 1 $T0 $ebp = $eip $T0 4 + ^ = $ebp $T0 ^ = $esp $T0 8 + = 
STACK WIN 4 14e41 c 3 0 4 0 0 0 1 $T0 $ebp = $eip $T0 4 + ^ = $ebp $T0 ^ = $esp $T0 8 + = 
STACK WIN 4 14e50 c 3 0 8 0 0 0 1 $T0 $ebp = $eip $T0 4 + ^ = $ebp $T0 ^ = $esp $T0 8 + = 
STACK WIN 4 14e5f c 3 0 8 0 0 0 1 $T0 $ebp = $eip $T0 4 + ^ = $ebp $T0 ^ = $esp $T0 8 + = 
STACK WIN 4 14e6e 10 3 0 4 0 0 0 1 $T0 $ebp = $eip $T0 4 + ^ = $ebp $T0 ^ = $esp $T0 8 + = 
STACK WIN 4 14e82 11 3 0 4 0 0 0 1 $T0 $ebp = $eip $T0 4 + ^ = $ebp $T0 ^ = $esp $T0 8 + = 
STACK WIN 4 14e97 b 3 0 4 0 0 0 1 $T0 $ebp = $eip $T0 4 + ^ = $ebp $T0 ^ = $esp $T0 8 + = 
STACK WIN 4 14ea4 e 0 0 0 0 0 0 1 $T0 .raSearch = $eip $T0 ^ = $esp $T0 4 + = 
STACK WIN 4 14eb5 f 3 0 4 0 0 0 1 $T0 $ebp = $eip $T0 4 + ^ = $ebp $T0 ^ = $esp $T0 8 + = 
STACK WIN 4 14ec7 6 0 0 0 0 0 0 1 $T0 .raSearch = $eip $T0 ^ = $esp $T0 4 + = 
STACK WIN 4 14ecd d 3 0 4 0 0 0 1 $T0 $ebp = $eip $T0 4 + ^ = $ebp $T0 ^ = $esp $T0 8 + = 
STACK WIN 4 14edd 10 3 0 4 0 0 0 1 $T0 $ebp = $eip $T0 4 + ^ = $ebp $T0 ^ = $esp $T0 8 + = 
STACK WIN 4 14ef1 d 0 0 0 0 0 0 1 $T0 .raSearch = $eip $T0 ^ = $esp $T0 4 + = 
STACK WIN 4 14f01 5 0 0 10 0 0 0 1 $T0 $ebp = $eip $T0 4 + ^ = $ebp $T0 ^ = $esp $T0 8 + = 
STACK WIN 4 14f06 9 3 0 10 0 0 0 1 $T0 $ebp = $eip $T0 4 + ^ = $ebp $T0 ^ = $esp $T0 8 + = 
STACK WIN 4 14f11 9 3 0 c 0 0 0 1 $T0 $ebp = $eip $T0 4 + ^ = $ebp $T0 ^ = $esp $T0 8 + = 
STACK WIN 4 14f1c e 3 0 4 0 0 0 1 $T0 $ebp = $eip $T0 4 + ^ = $ebp $T0 ^ = $esp $T0 8 + = 
STACK WIN 4 14f8f 14 3 0 4 0 0 0 1 $T0 $ebp = $eip $T0 4 + ^ = $ebp $T0 ^ = $esp $T0 8 + = 
STACK WIN 4 14fa8 12 0 0 0 0 0 0 1 $T0 .raSearch = $eip $T0 ^ = $esp $T0 4 + = 
STACK WIN 4 14fbe 1e 3 0 4 0 0 0 1 $T0 $ebp = $eip $T0 4 + ^ = $ebp $T0 ^ = $esp $T0 8 + = 
STACK WIN 4 14fe3 1d 1 0 0 4 0 0 1 $T0 .raSearch = $eip $T0 ^ = $esp $T0 4 + =  $23 $T0 4 - ^ = 
STACK WIN 4 15007 1d 3 0 c 0 0 0 1 $T0 $ebp = $eip $T0 4 + ^ = $ebp $T0 ^ = $esp $T0 8 + = 
STACK WIN 4 1502b e 3 0 c 0 0 0 1 $T0 $ebp = $eip $T0 4 + ^ = $ebp $T0 ^ = $esp $T0 8 + = 
STACK WIN 4 1503c a0 c 0 8 10 18 0 1 $T0 $ebp = $eip $T0 4 + ^ = $ebp $T0 ^ = $esp $T0 8 + =  $20 $T0 28 - ^ =  $23 $T0 32 - ^ =  $24 $T0 36 - ^ = 
STACK WIN 4 1509c 9 0 0 8 10 18 0 1 $T0 $ebp = $T2 $esp = $T1 .raSearchStart = $eip $T1 ^ = $ebp $T0 = $esp $T1 4 + = 
STACK WIN 4 15104 d 3 0 8 0 0 0 1 $T0 $ebp = $eip $T0 4 + ^ = $ebp $T0 ^ = $esp $T0 8 + = 
STACK WIN 4 15114 4 0 0 0 0 0 0 1 $T0 .raSearch = $eip $T0 ^ = $esp $T0 4 + = 
STACK WIN 4 15118 26 3 0 4 0 0 0 1 $T0 $ebp = $eip $T0 4 + ^ = $ebp $T0 ^ = $esp $T0 8 + = 
STACK WIN 4 15147 d 3 0 4 0 0 0 1 $T0 $ebp = $eip $T0 4 + ^ = $ebp $T0 ^ = $esp $T0 8 + = 
STACK WIN 4 15157 25 a 0 8 0 0 0 1 $T0 $ebp = $eip $T0 4 + ^ = $ebp $T0 ^ = $esp $T0 8 + = 
STACK WIN 4 15161 19 0 0 8 4 0 0 1 $T0 $ebp = $eip $T0 4 + ^ = $ebp $T0 ^ = $esp $T0 8 + =  $23 $T0 4 - ^ = 
STACK WIN 4 15185 45 3 0 4 0 0 0 1 $T0 $ebp = $eip $T0 4 + ^ = $ebp $T0 ^ = $esp $T0 8 + = 
STACK WIN 4 151db 4c 6 0 4 0 8 0 1 $T0 $ebp = $eip $T0 4 + ^ = $ebp $T0 ^ = $esp $T0 8 + = 
STACK WIN 4 151e1 44 0 0 4 4 8 0 1 $T0 $ebp = $eip $T0 4 + ^ = $ebp $T0 ^ = $esp $T0 8 + =  $23 $T0 12 - ^ = 
STACK WIN 4 1523a 9 0 0 0 0 0 0 1 $T0 .raSearch = $eip $T0 ^ = $esp $T0 4 + = 
STACK WIN 4 15245 9 0 0 0 0 0 0 1 $T0 .raSearch = $eip $T0 ^ = $esp $T0 4 + = 
STACK WIN 4 15250 9 0 0 0 0 0 0 1 $T0 .raSearch = $eip $T0 ^ = $esp $T0 4 + = 
STACK WIN 4 1525b 5 0 0 0 0 0 0 1 $T0 .raSearch = $eip $T0 ^ = $esp $T0 4 + = 
STACK WIN 4 15260 a4 3 0 8 0 0 0 1 $T0 $ebp = $eip $T0 4 + ^ = $ebp $T0 ^ = $esp $T0 8 + = 
STACK WIN 4 152a5 52 0 0 8 4 0 0 1 $T0 $ebp = $eip $T0 4 + ^ = $ebp $T0 ^ = $esp $T0 8 + =  $20 $T0 4 - ^ = 
STACK WIN 4 152a6 50 0 0 8 8 0 0 1 $T0 $ebp = $eip $T0 4 + ^ = $ebp $T0 ^ = $esp $T0 8 + =  $20 $T0 4 - ^ =  $23 $T0 8 - ^ = 
STACK WIN 4 152a7 4e 0 0 8 c 0 0 1 $T0 $ebp = $eip $T0 4 + ^ = $ebp $T0 ^ = $esp $T0 8 + =  $20 $T0 4 - ^ =  $23 $T0 8 - ^ =  $24 $T0 12 - ^ = 
STACK WIN 4 152f9 b 0 0 8 c 0 0 1 $T0 $ebp = $eip $T0 4 + ^ = $ebp $T0 ^ = $esp $T0 8 + =  $20 $T0 4 - ^ =  $23 $T0 8 - ^ =  $24 $T0 12 - ^ = 
STACK WIN 4 1532d 10 3 0 4 0 0 0 1 $T0 $ebp = $eip $T0 4 + ^ = $ebp $T0 ^ = $esp $T0 8 + = 
STACK WIN 4 15341 e 3 0 4 0 0 0 1 $T0 $ebp = $eip $T0 4 + ^ = $ebp $T0 ^ = $esp $T0 8 + = 
STACK WIN 4 15352 10 3 0 0 0 0 0 1 $T0 .raSearch = $eip $T0 ^ = $esp $T0 4 + = 
STACK WIN 4 15353 e 2 0 0 4 0 0 1 $T0 .raSearch = $eip $T0 ^ = $esp $T0 4 + =  $23 $T0 4 - ^ = 
STACK WIN 4 15366 7 0 0 0 0 0 0 1 $T0 .raSearch = $eip $T0 ^ = $esp $T0 4 + = 
STACK WIN 4 1536d 6 0 0 0 0 0 0 1 $T0 .raSearch = $eip $T0 ^ = $esp $T0 4 + = 
STACK WIN 4 15373 3 0 0 0 0 0 0 1 $T0 .raSearch = $eip $T0 ^ = $esp $T0 4 + = 
STACK WIN 4 15376 7 0 0 0 0 0 0 1 $T0 .raSearch = $eip $T0 ^ = $esp $T0 4 + = 
STACK WIN 4 1537d 10 3 0 0 0 0 0 1 $T0 .raSearch = $eip $T0 ^ = $esp $T0 4 + = 
STACK WIN 4 1537e e 2 0 0 4 0 0 1 $T0 .raSearch = $eip $T0 ^ = $esp $T0 4 + =  $23 $T0 4 - ^ = 
STACK WIN 4 15391 63 4 0 8 0 0 0 1 $T0 $ebp = $eip $T0 4 + ^ = $ebp $T0 ^ = $esp $T0 8 + = 
STACK WIN 4 15395 5d 0 0 8 4 0 0 1 $T0 $ebp = $eip $T0 4 + ^ = $ebp $T0 ^ = $esp $T0 8 + =  $24 $T0 4 - ^ = 
STACK WIN 4 153b1 33 0 0 8 8 0 0 1 $T0 $ebp = $eip $T0 4 + ^ = $ebp $T0 ^ = $esp $T0 8 + =  $24 $T0 4 - ^ =  $20 $T0 8 - ^ = 
STACK WIN 4 153b2 31 0 0 8 c 0 0 1 $T0 $ebp = $eip $T0 4 + ^ = $ebp $T0 ^ = $esp $T0 8 + =  $24 $T0 4 - ^ =  $20 $T0 8 - ^ =  $23 $T0 12 - ^ = 
STACK WIN 4 1540c 1f 4 0 4 0 0 0 1 $T0 $ebp = $eip $T0 4 + ^ = $ebp $T0 ^ = $esp $T0 8 + = 
STACK WIN 4 15410 19 0 0 4 4 0 0 1 $T0 $ebp = $eip $T0 4 + ^ = $ebp $T0 ^ = $esp $T0 8 + =  $23 $T0 4 - ^ = 
STACK WIN 4 15432 6d c 0 8 0 20 0 1 $T0 $ebp = $eip $T0 4 + ^ = $ebp $T0 ^ = $esp $T0 8 + = 
STACK WIN 4 15439 62 5 0 8 4 20 0 1 $T0 $ebp = $eip $T0 4 + ^ = $ebp $T0 ^ = $esp $T0 8 + =  $20 $T0 36 - ^ = 
STACK WIN 4 1543d 5d 1 0 8 8 20 0 1 $T0 $ebp = $eip $T0 4 + ^ = $ebp $T0 ^ = $esp $T0 8 + =  $20 $T0 36 - ^ =  $23 $T0 40 - ^ = 
STACK WIN 4 1543e 5b 0 0 8 c 20 0 1 $T0 $ebp = $eip $T0 4 + ^ = $ebp $T0 ^ = $esp $T0 8 + =  $20 $T0 36 - ^ =  $23 $T0 40 - ^ =  $24 $T0 44 - ^ = 
STACK WIN 4 15b91 16 5 0 4 0 0 0 1 $T0 $ebp = $eip $T0 4 + ^ = $ebp $T0 ^ = $esp $T0 8 + = 
STACK WIN 4 15bac 1f 5 0 4 0 0 0 1 $T0 $ebp = $eip $T0 4 + ^ = $ebp $T0 ^ = $esp $T0 8 + = 
STACK WIN 4 15bd2 11 5 0 8 0 0 0 1 $T0 $ebp = $eip $T0 4 + ^ = $ebp $T0 ^ = $esp $T0 8 + = 
STACK WIN 4 15be7 3 0 0 0 0 0 0 1 $T0 .raSearch = $eip $T0 ^ = $esp $T0 4 + = 
STACK WIN 4 15bea 3 0 0 0 0 0 0 1 $T0 .raSearch = $eip $T0 ^ = $esp $T0 4 + = 
STACK WIN 4 15bed 3 0 0 0 0 0 0 1 $T0 .raSearch = $eip $T0 ^ = $esp $T0 4 + = 
STACK WIN 4 15bf0 139 1a 0 c 4 328 0 1 $T0 $ebp = $eip $T0 4 + ^ = $ebp $T0 ^ = $esp $T0 8 + =  $24 $T0 812 - ^ = 
STACK WIN 4 15d77 f 5 0 4 0 0 0 1 $T0 $ebp = $eip $T0 4 + ^ = $ebp $T0 ^ = $esp $T0 8 + = 
STACK WIN 4 15d89 13 0 0 0 0 0 0 1 $T0 .raSearch = $eip $T0 ^ = $esp $T0 4 + = 
STACK WIN 4 15da0 11 0 0 0 0 0 0 1 $T0 .raSearch = $eip $T0 ^ = $esp $T0 4 + = 
STACK WIN 4 15db5 64 6 0 14 0 0 0 1 $T0 $ebp = $eip $T0 4 + ^ = $ebp $T0 ^ = $esp $T0 8 + = 
STACK WIN 4 15dbb 30 0 0 14 4 0 0 1 $T0 $ebp = $eip $T0 4 + ^ = $ebp $T0 ^ = $esp $T0 8 + =  $23 $T0 4 - ^ = 
STACK WIN 4 15e32 10 0 0 0 0 0 0 1 $T0 .raSearch = $eip $T0 ^ = $esp $T0 4 + = 
STACK WIN 4 15e46 1d 3 0 0 4 0 0 1 $T0 .raSearch = $eip $T0 ^ = $esp $T0 4 + =  $23 $T0 4 - ^ = 
STACK WIN 4 15e6a 34 0 0 14 0 0 0 1 $T0 .raSearch = $eip $T0 ^ = $esp $T0 4 + = 
STACK WIN 4 15e7c 21 0 0 14 4 0 0 1 $T0 .raSearch = $eip $T0 ^ = $esp $T0 4 + =  $23 $T0 4 - ^ = 
STACK WIN 4 15eab 30 d 0 4 0 0 0 1 $T0 $ebp = $eip $T0 4 + ^ = $ebp $T0 ^ = $esp $T0 8 + = 
STACK WIN 4 15eb1 28 7 0 4 4 0 0 1 $T0 $ebp = $eip $T0 4 + ^ = $ebp $T0 ^ = $esp $T0 8 + =  $23 $T0 4 - ^ = 
STACK WIN 4 15eb8 20 0 0 4 8 0 0 1 $T0 $ebp = $eip $T0 4 + ^ = $ebp $T0 ^ = $esp $T0 8 + =  $23 $T0 4 - ^ =  $24 $T0 8 - ^ = 
STACK WIN 4 15ee7 1d 5 0 4 0 0 0 1 $T0 $ebp = $eip $T0 4 + ^ = $ebp $T0 ^ = $esp $T0 8 + = 
STACK WIN 4 15f0b 45 14 0 8 0 4 0 1 $T0 $ebp = $eip $T0 4 + ^ = $ebp $T0 ^ = $esp $T0 8 + = 
STACK WIN 4 15f15 39 a 0 8 4 4 0 1 $T0 $ebp = $eip $T0 4 + ^ = $ebp $T0 ^ = $esp $T0 8 + =  $20 $T0 8 - ^ = 
STACK WIN 4 15f16 37 9 0 8 8 4 0 1 $T0 $ebp = $eip $T0 4 + ^ = $ebp $T0 ^ = $esp $T0 8 + =  $20 $T0 8 - ^ =  $23 $T0 12 - ^ = 
STACK WIN 4 15f1f 2d 0 0 8 c 4 0 1 $T0 $ebp = $eip $T0 4 + ^ = $ebp $T0 ^ = $esp $T0 8 + =  $20 $T0 8 - ^ =  $23 $T0 12 - ^ =  $24 $T0 16 - ^ = 
STACK WIN 4 15f61 2e a 0 8 0 0 0 1 $T0 $ebp = $eip $T0 4 + ^ = $ebp $T0 ^ = $esp $T0 8 + = 
STACK WIN 4 15f67 26 4 0 8 4 0 0 1 $T0 $ebp = $eip $T0 4 + ^ = $ebp $T0 ^ = $esp $T0 8 + =  $23 $T0 4 - ^ = 
STACK WIN 4 15f6b 21 0 0 8 8 0 0 1 $T0 $ebp = $eip $T0 4 + ^ = $ebp $T0 ^ = $esp $T0 8 + =  $23 $T0 4 - ^ =  $24 $T0 8 - ^ = 
STACK WIN 4 15f9a 1b 6 0 4 0 4 0 1 $T0 $ebp = $eip $T0 4 + ^ = $ebp $T0 ^ = $esp $T0 8 + = 
STACK WIN 4 15fbb 24 5 0 8 0 0 0 1 $T0 $ebp = $eip $T0 4 + ^ = $ebp $T0 ^ = $esp $T0 8 + = 
STACK WIN 4 15fe8 20 5 0 8 0 0 0 1 $T0 $ebp = $eip $T0 4 + ^ = $ebp $T0 ^ = $esp $T0 8 + = 
STACK WIN 4 16010 158 9 0 8 0 4 0 1 $T0 $ebp = $eip $T0 4 + ^ = $ebp $T0 ^ = $esp $T0 8 + = 
STACK WIN 4 16017 14f 2 0 8 4 4 0 1 $T0 $ebp = $eip $T0 4 + ^ = $ebp $T0 ^ = $esp $T0 8 + =  $20 $T0 8 - ^ = 
STACK WIN 4 16018 14d 1 0 8 8 4 0 1 $T0 $ebp = $eip $T0 4 + ^ = $ebp $T0 ^ = $esp $T0 8 + =  $20 $T0 8 - ^ =  $23 $T0 12 - ^ = 
STACK WIN 4 16019 14b 0 0 8 c 4 0 1 $T0 $ebp = $eip $T0 4 + ^ = $ebp $T0 ^ = $esp $T0 8 + =  $20 $T0 8 - ^ =  $23 $T0 12 - ^ =  $24 $T0 16 - ^ = 
STACK WIN 4 161be 6 0 0 0 0 0 0 1 $T0 .raSearch = $eip $T0 ^ = $esp $T0 4 + = 
STACK WIN 4 161c4 4d c 0 c 10 18 0 1 $T0 $ebp = $eip $T0 4 + ^ = $ebp $T0 ^ = $esp $T0 8 + =  $20 $T0 28 - ^ =  $23 $T0 32 - ^ =  $24 $T0 36 - ^ = 
STACK WIN 4 16205 b 0 0 c 10 18 0 1 $T0 $ebp = $T2 $esp = $T1 .raSearchStart = $eip $T1 ^ = $ebp $T0 = $esp $T1 4 + = 
STACK WIN 4 16224 26 8 0 8 0 c 0 1 $T0 $ebp = $eip $T0 4 + ^ = $ebp $T0 ^ = $esp $T0 8 + = 
STACK WIN 4 16253 16 5 0 4 0 0 0 1 $T0 $ebp = $eip $T0 4 + ^ = $ebp $T0 ^ = $esp $T0 8 + = 
STACK WIN 4 1626e 1f 5 0 4 0 0 0 1 $T0 $ebp = $eip $T0 4 + ^ = $ebp $T0 ^ = $esp $T0 8 + = 
STACK WIN 4 16294 13 5 0 8 0 0 0 1 $T0 $ebp = $eip $T0 4 + ^ = $ebp $T0 ^ = $esp $T0 8 + = 
STACK WIN 4 162ab d 5 0 4 0 0 0 1 $T0 $ebp = $eip $T0 4 + ^ = $ebp $T0 ^ = $esp $T0 8 + = 
STACK WIN 4 162bb 12 5 0 4 0 0 0 1 $T0 $ebp = $eip $T0 4 + ^ = $ebp $T0 ^ = $esp $T0 8 + = 
STACK WIN 4 162d1 12 5 0 4 0 0 0 1 $T0 $ebp = $eip $T0 4 + ^ = $ebp $T0 ^ = $esp $T0 8 + = 
STACK WIN 4 162e7 1c 5 0 c 0 0 0 1 $T0 $ebp = $eip $T0 4 + ^ = $ebp $T0 ^ = $esp $T0 8 + = 
STACK WIN 4 1630a 10 5 0 4 0 0 0 1 $T0 $ebp = $eip $T0 4 + ^ = $ebp $T0 ^ = $esp $T0 8 + = 
STACK WIN 4 1631e 17 5 0 0 0 0 0 1 $T0 .raSearch = $eip $T0 ^ = $esp $T0 4 + = 
STACK WIN 4 16321 13 2 0 0 4 0 0 1 $T0 .raSearch = $eip $T0 ^ = $esp $T0 4 + =  $23 $T0 4 - ^ = 
STACK WIN 4 1633a 9 0 0 0 0 0 0 1 $T0 .raSearch = $eip $T0 ^ = $esp $T0 4 + = 
STACK WIN 4 16345 9 0 0 0 0 0 0 1 $T0 .raSearch = $eip $T0 ^ = $esp $T0 4 + = 
STACK WIN 4 16350 da e 0 0 10 18 0 1 $T0 $ebp = $eip $T0 4 + ^ = $ebp $T0 ^ = $esp $T0 8 + =  $20 $T0 28 - ^ =  $23 $T0 32 - ^ =  $24 $T0 36 - ^ = 
STACK WIN 4 16411 10 0 0 0 10 18 0 1 $T0 $ebp = $T2 $esp = $T1 .raSearchStart = $eip $T1 ^ = $ebp $T0 = $esp $T1 4 + = 
STACK WIN 4 16460 4 0 0 0 0 0 0 1 $T0 .raSearch = $eip $T0 ^ = $esp $T0 4 + = 
STACK WIN 4 16464 13 5 0 4 0 0 0 1 $T0 $ebp = $eip $T0 4 + ^ = $ebp $T0 ^ = $esp $T0 8 + = 
STACK WIN 4 1647b 17 5 0 0 0 0 0 1 $T0 .raSearch = $eip $T0 ^ = $esp $T0 4 + = 
STACK WIN 4 1647e 13 2 0 0 4 0 0 1 $T0 .raSearch = $eip $T0 ^ = $esp $T0 4 + =  $23 $T0 4 - ^ = 
STACK WIN 4 16497 15 5 0 4 0 0 0 1 $T0 $ebp = $eip $T0 4 + ^ = $ebp $T0 ^ = $esp $T0 8 + = 
STACK WIN 4 164b1 64 8 0 c 0 18 0 1 $T0 $ebp = $eip $T0 4 + ^ = $ebp $T0 ^ = $esp $T0 8 + = 
STACK WIN 4 1652e 42 5 0 4 0 0 0 1 $T0 $ebp = $eip $T0 4 + ^ = $ebp $T0 ^ = $esp $T0 8 + = 
STACK WIN 4 16580 3 0 0 0 0 0 0 1 $T0 .raSearch = $eip $T0 ^ = $esp $T0 4 + = 
STACK WIN 4 16583 3 0 0 0 0 0 0 1 $T0 .raSearch = $eip $T0 ^ = $esp $T0 4 + = 
STACK WIN 4 16586 3 0 0 0 0 0 0 1 $T0 .raSearch = $eip $T0 ^ = $esp $T0 4 + = 
STACK WIN 4 16589 43 0 0 0 0 0 0 1 $T0 .raSearch = $eip $T0 ^ = $esp $T0 4 + = 
STACK WIN 4 165dc 22 0 0 0 0 0 0 1 $T0 .raSearch = $eip $T0 ^ = $esp $T0 4 + = 
STACK WIN 4 16606 53 6 0 4 0 4 0 1 $T0 $ebp = $eip $T0 4 + ^ = $ebp $T0 ^ = $esp $T0 8 + = 
STACK WIN 4 16626 22 0 0 4 4 4 0 1 $T0 $ebp = $eip $T0 4 + ^ = $ebp $T0 ^ = $esp $T0 8 + =  $23 $T0 8 - ^ = 
STACK WIN 4 1666d 16 5 0 4 0 0 0 1 $T0 $ebp = $eip $T0 4 + ^ = $ebp $T0 ^ = $esp $T0 8 + = 
STACK WIN 4 16688 f 5 0 4 0 0 0 1 $T0 $ebp = $eip $T0 4 + ^ = $ebp $T0 ^ = $esp $T0 8 + = 
STACK WIN 4 1669a f 0 0 0 0 0 0 1 $T0 .raSearch = $eip $T0 ^ = $esp $T0 4 + = 
STACK WIN 4 166ac f 0 0 0 0 0 0 1 $T0 .raSearch = $eip $T0 ^ = $esp $T0 4 + = 
STACK WIN 4 166be 16 5 0 4 0 0 0 1 $T0 $ebp = $eip $T0 4 + ^ = $ebp $T0 ^ = $esp $T0 8 + = 
STACK WIN 4 166d9 7 0 0 0 0 0 0 1 $T0 .raSearch = $eip $T0 ^ = $esp $T0 4 + = 
STACK WIN 4 166e0 26 5 0 4 0 0 0 1 $T0 $ebp = $eip $T0 4 + ^ = $ebp $T0 ^ = $esp $T0 8 + = 
STACK WIN 4 1670f 16 5 0 4 0 0 0 1 $T0 $ebp = $eip $T0 4 + ^ = $ebp $T0 ^ = $esp $T0 8 + = 
STACK WIN 4 1672a 16 5 0 4 0 0 0 1 $T0 $ebp = $eip $T0 4 + ^ = $ebp $T0 ^ = $esp $T0 8 + = 
STACK WIN 4 16745 12 5 0 4 0 0 0 1 $T0 $ebp = $eip $T0 4 + ^ = $ebp $T0 ^ = $esp $T0 8 + = 
STACK WIN 4 1675b 12 5 0 4 0 0 0 1 $T0 $ebp = $eip $T0 4 + ^ = $ebp $T0 ^ = $esp $T0 8 + = 
STACK WIN 4 16771 12 5 0 4 0 0 0 1 $T0 $ebp = $eip $T0 4 + ^ = $ebp $T0 ^ = $esp $T0 8 + = 
STACK WIN 4 16787 136 9 0 4 0 10 0 1 $T0 $ebp = $eip $T0 4 + ^ = $ebp $T0 ^ = $esp $T0 8 + = 
STACK WIN 4 16790 12b 0 0 4 4 10 0 1 $T0 $ebp = $eip $T0 4 + ^ = $ebp $T0 ^ = $esp $T0 8 + =  $20 $T0 20 - ^ = 
STACK WIN 4 1679f 11b 0 0 4 8 10 0 1 $T0 $ebp = $eip $T0 4 + ^ = $ebp $T0 ^ = $esp $T0 8 + =  $20 $T0 20 - ^ =  $23 $T0 24 - ^ = 
STACK WIN 4 167c0 f9 0 0 4 c 10 0 1 $T0 $ebp = $eip $T0 4 + ^ = $ebp $T0 ^ = $esp $T0 8 + =  $20 $T0 20 - ^ =  $23 $T0 24 - ^ =  $24 $T0 28 - ^ = 
STACK WIN 4 1690a 12f 9 0 4 0 10 0 1 $T0 $ebp = $eip $T0 4 + ^ = $ebp $T0 ^ = $esp $T0 8 + = 
STACK WIN 4 16913 124 0 0 4 4 10 0 1 $T0 $ebp = $eip $T0 4 + ^ = $ebp $T0 ^ = $esp $T0 8 + =  $20 $T0 20 - ^ = 
STACK WIN 4 16922 114 0 0 4 8 10 0 1 $T0 $ebp = $eip $T0 4 + ^ = $ebp $T0 ^ = $esp $T0 8 + =  $20 $T0 20 - ^ =  $23 $T0 24 - ^ = 
STACK WIN 4 16943 f2 0 0 4 c 10 0 1 $T0 $ebp = $eip $T0 4 + ^ = $ebp $T0 ^ = $esp $T0 8 + =  $20 $T0 20 - ^ =  $23 $T0 24 - ^ =  $24 $T0 28 - ^ = 
STACK WIN 4 16a84 1c 5 0 c 0 0 0 1 $T0 $ebp = $eip $T0 4 + ^ = $ebp $T0 ^ = $esp $T0 8 + = 
STACK WIN 4 16aa7 1a 5 0 c 0 0 0 1 $T0 $ebp = $eip $T0 4 + ^ = $ebp $T0 ^ = $esp $T0 8 + = 
STACK WIN 4 16ac7 177 12 0 14 0 4 0 1 $T0 $ebp = $eip $T0 4 + ^ = $ebp $T0 ^ = $esp $T0 8 + = 
STACK WIN 4 16ad1 15f 8 0 14 4 4 0 1 $T0 $ebp = $eip $T0 4 + ^ = $ebp $T0 ^ = $esp $T0 8 + =  $20 $T0 8 - ^ = 
STACK WIN 4 16ad5 15a 4 0 14 8 4 0 1 $T0 $ebp = $eip $T0 4 + ^ = $ebp $T0 ^ = $esp $T0 8 + =  $20 $T0 8 - ^ =  $23 $T0 12 - ^ = 
STACK WIN 4 16ad9 155 0 0 14 c 4 0 1 $T0 $ebp = $eip $T0 4 + ^ = $ebp $T0 ^ = $esp $T0 8 + =  $20 $T0 8 - ^ =  $23 $T0 12 - ^ =  $24 $T0 16 - ^ = 
STACK WIN 4 16c9b 195 16 0 14 0 10 0 1 $T0 $ebp = $eip $T0 4 + ^ = $ebp $T0 ^ = $esp $T0 8 + = 
STACK WIN 4 16cad 17f 4 0 14 4 10 0 1 $T0 $ebp = $eip $T0 4 + ^ = $ebp $T0 ^ = $esp $T0 8 + =  $23 $T0 20 - ^ = 
STACK WIN 4 16cb1 17a 0 0 14 8 10 0 1 $T0 $ebp = $eip $T0 4 + ^ = $ebp $T0 ^ = $esp $T0 8 + =  $23 $T0 20 - ^ =  $24 $T0 24 - ^ = 
STACK WIN 4 16cca 156 0 0 14 c 10 0 1 $T0 $ebp = $eip $T0 4 + ^ = $ebp $T0 ^ = $esp $T0 8 + =  $23 $T0 20 - ^ =  $24 $T0 24 - ^ =  $20 $T0 28 - ^ = 
STACK WIN 4 16e95 11 5 0 4 0 0 0 1 $T0 $ebp = $eip $T0 4 + ^ = $ebp $T0 ^ = $esp $T0 8 + = 
STACK WIN 4 16eaa 11 5 0 4 0 0 0 1 $T0 $ebp = $eip $T0 4 + ^ = $ebp $T0 ^ = $esp $T0 8 + = 
STACK WIN 4 16ebf 10 5 0 4 0 0 0 1 $T0 $ebp = $eip $T0 4 + ^ = $ebp $T0 ^ = $esp $T0 8 + = 
STACK WIN 4 16ed3 10 5 0 4 0 0 0 1 $T0 $ebp = $eip $T0 4 + ^ = $ebp $T0 ^ = $esp $T0 8 + = 
STACK WIN 4 16ee7 10 5 0 4 0 0 0 1 $T0 $ebp = $eip $T0 4 + ^ = $ebp $T0 ^ = $esp $T0 8 + = 
STACK WIN 4 16efb 10 5 0 4 0 0 0 1 $T0 $ebp = $eip $T0 4 + ^ = $ebp $T0 ^ = $esp $T0 8 + = 
STACK WIN 4 16f0f 10 5 0 4 0 0 0 1 $T0 $ebp = $eip $T0 4 + ^ = $ebp $T0 ^ = $esp $T0 8 + = 
STACK WIN 4 16f23 12 5 0 0 0 0 0 1 $T0 .raSearch = $eip $T0 ^ = $esp $T0 4 + = 
STACK WIN 4 16f26 e 2 0 0 4 0 0 1 $T0 .raSearch = $eip $T0 ^ = $esp $T0 4 + =  $23 $T0 4 - ^ = 
STACK WIN 4 16f39 12 5 0 0 0 0 0 1 $T0 .raSearch = $eip $T0 ^ = $esp $T0 4 + = 
STACK WIN 4 16f3c e 2 0 0 4 0 0 1 $T0 .raSearch = $eip $T0 ^ = $esp $T0 4 + =  $23 $T0 4 - ^ = 
STACK WIN 4 16f4f 12 5 0 0 0 0 0 1 $T0 .raSearch = $eip $T0 ^ = $esp $T0 4 + = 
STACK WIN 4 16f52 e 2 0 0 4 0 0 1 $T0 .raSearch = $eip $T0 ^ = $esp $T0 4 + =  $23 $T0 4 - ^ = 
STACK WIN 4 16f65 7 0 0 0 0 0 0 1 $T0 .raSearch = $eip $T0 ^ = $esp $T0 4 + = 
STACK WIN 4 16f6c 16 0 0 0 0 0 0 1 $T0 .raSearch = $eip $T0 ^ = $esp $T0 4 + = 
STACK WIN 4 16f87 16 0 0 0 0 0 0 1 $T0 .raSearch = $eip $T0 ^ = $esp $T0 4 + = 
STACK WIN 4 16fa2 6 0 0 0 0 0 0 1 $T0 .raSearch = $eip $T0 ^ = $esp $T0 4 + = 
STACK WIN 4 16fa8 6 0 0 0 0 0 0 1 $T0 .raSearch = $eip $T0 ^ = $esp $T0 4 + = 
STACK WIN 4 16fae 6 0 0 0 0 0 0 1 $T0 .raSearch = $eip $T0 ^ = $esp $T0 4 + = 
STACK WIN 4 16fb4 5 0 0 4 0 0 0 1 $T0 .raSearch = $eip $T0 ^ = $esp $T0 4 + = 
STACK WIN 4 16fb9 3 0 0 4 0 0 0 1 $T0 .raSearch = $eip $T0 ^ = $esp $T0 4 + = 
STACK WIN 4 16fbc b 5 0 8 0 0 0 1 $T0 $ebp = $eip $T0 4 + ^ = $ebp $T0 ^ = $esp $T0 8 + = 
STACK WIN 4 16fc9 b 5 0 8 0 0 0 1 $T0 $ebp = $eip $T0 4 + ^ = $ebp $T0 ^ = $esp $T0 8 + = 
STACK WIN 4 16fd6 3 0 0 0 0 0 0 1 $T0 .raSearch = $eip $T0 ^ = $esp $T0 4 + = 
STACK WIN 4 16fd9 3 0 0 0 0 0 0 1 $T0 .raSearch = $eip $T0 ^ = $esp $T0 4 + = 
STACK WIN 4 16fdc 3 0 0 0 0 0 0 1 $T0 .raSearch = $eip $T0 ^ = $esp $T0 4 + = 
STACK WIN 4 16fdf 3 0 0 0 0 0 0 1 $T0 .raSearch = $eip $T0 ^ = $esp $T0 4 + = 
STACK WIN 4 16fe2 3 0 0 0 0 0 0 1 $T0 .raSearch = $eip $T0 ^ = $esp $T0 4 + = 
STACK WIN 4 16fe5 6 0 0 4 0 0 0 1 $T0 .raSearch = $eip $T0 ^ = $esp $T0 4 + = 
STACK WIN 4 16feb 6 0 0 4 0 0 0 1 $T0 .raSearch = $eip $T0 ^ = $esp $T0 4 + = 
STACK WIN 4 16ff1 6 0 0 4 0 0 0 1 $T0 .raSearch = $eip $T0 ^ = $esp $T0 4 + = 
STACK WIN 4 16ff7 6 0 0 4 0 0 0 1 $T0 .raSearch = $eip $T0 ^ = $esp $T0 4 + = 
STACK WIN 4 16ffd 7 0 0 0 0 0 0 1 $T0 .raSearch = $eip $T0 ^ = $esp $T0 4 + = 
STACK WIN 4 17004 12 5 0 0 0 0 0 1 $T0 .raSearch = $eip $T0 ^ = $esp $T0 4 + = 
STACK WIN 4 17007 e 2 0 0 4 0 0 1 $T0 .raSearch = $eip $T0 ^ = $esp $T0 4 + =  $23 $T0 4 - ^ = 
STACK WIN 4 1701a 12 5 0 0 0 0 0 1 $T0 .raSearch = $eip $T0 ^ = $esp $T0 4 + = 
STACK WIN 4 1701d e 2 0 0 4 0 0 1 $T0 .raSearch = $eip $T0 ^ = $esp $T0 4 + =  $23 $T0 4 - ^ = 
STACK WIN 4 17030 12 5 0 0 0 0 0 1 $T0 .raSearch = $eip $T0 ^ = $esp $T0 4 + = 
STACK WIN 4 17033 e 2 0 0 4 0 0 1 $T0 .raSearch = $eip $T0 ^ = $esp $T0 4 + =  $23 $T0 4 - ^ = 
STACK WIN 4 17046 17 5 0 4 0 0 0 1 $T0 $ebp = $eip $T0 4 + ^ = $ebp $T0 ^ = $esp $T0 8 + = 
STACK WIN 4 17062 3 0 0 4 0 0 0 1 $T0 .raSearch = $eip $T0 ^ = $esp $T0 4 + = 
STACK WIN 4 17065 4f 6 0 c 0 0 0 1 $T0 $ebp = $eip $T0 4 + ^ = $ebp $T0 ^ = $esp $T0 8 + = 
STACK WIN 4 1706b 47 0 0 c 4 0 0 1 $T0 $ebp = $eip $T0 4 + ^ = $ebp $T0 ^ = $esp $T0 8 + =  $23 $T0 4 - ^ = 
STACK WIN 4 170c7 b 5 0 4 0 0 0 1 $T0 $ebp = $eip $T0 4 + ^ = $ebp $T0 ^ = $esp $T0 8 + = 
STACK WIN 4 170d4 b 5 0 4 0 0 0 1 $T0 $ebp = $eip $T0 4 + ^ = $ebp $T0 ^ = $esp $T0 8 + = 
STACK WIN 4 170e1 f 5 0 4 0 0 0 1 $T0 $ebp = $eip $T0 4 + ^ = $ebp $T0 ^ = $esp $T0 8 + = 
STACK WIN 4 170f3 f 5 0 4 0 0 0 1 $T0 $ebp = $eip $T0 4 + ^ = $ebp $T0 ^ = $esp $T0 8 + = 
STACK WIN 4 17105 12 5 0 4 0 0 0 1 $T0 $ebp = $eip $T0 4 + ^ = $ebp $T0 ^ = $esp $T0 8 + = 
STACK WIN 4 1711b 14 0 0 0 0 0 0 1 $T0 .raSearch = $eip $T0 ^ = $esp $T0 4 + = 
STACK WIN 4 17134 14 0 0 0 0 0 0 1 $T0 .raSearch = $eip $T0 ^ = $esp $T0 4 + = 
STACK WIN 4 1714d 2c 0 0 0 0 0 0 1 $T0 .raSearch = $eip $T0 ^ = $esp $T0 4 + = 
STACK WIN 4 17184 2c 0 0 0 0 0 0 1 $T0 .raSearch = $eip $T0 ^ = $esp $T0 4 + = 
STACK WIN 4 171bb 53 0 0 0 0 0 0 1 $T0 .raSearch = $eip $T0 ^ = $esp $T0 4 + = 
STACK WIN 4 171c8 45 0 0 0 4 0 0 1 $T0 .raSearch = $eip $T0 ^ = $esp $T0 4 + =  $23 $T0 4 - ^ = 
STACK WIN 4 171c9 43 0 0 0 8 0 0 1 $T0 .raSearch = $eip $T0 ^ = $esp $T0 4 + =  $23 $T0 4 - ^ =  $24 $T0 8 - ^ = 
STACK WIN 4 17222 4e 0 0 0 0 0 0 1 $T0 .raSearch = $eip $T0 ^ = $esp $T0 4 + = 
STACK WIN 4 1722f 40 0 0 0 4 0 0 1 $T0 .raSearch = $eip $T0 ^ = $esp $T0 4 + =  $23 $T0 4 - ^ = 
STACK WIN 4 17230 3e 0 0 0 8 0 0 1 $T0 .raSearch = $eip $T0 ^ = $esp $T0 4 + =  $23 $T0 4 - ^ =  $24 $T0 8 - ^ = 
STACK WIN 4 17283 34 6 0 4 0 0 0 1 $T0 $ebp = $eip $T0 4 + ^ = $ebp $T0 ^ = $esp $T0 8 + = 
STACK WIN 4 17289 2c 0 0 4 4 0 0 1 $T0 $ebp = $eip $T0 4 + ^ = $ebp $T0 ^ = $esp $T0 8 + =  $23 $T0 4 - ^ = 
STACK WIN 4 17295 1d 0 0 4 8 0 0 1 $T0 $ebp = $eip $T0 4 + ^ = $ebp $T0 ^ = $esp $T0 8 + =  $23 $T0 4 - ^ =  $24 $T0 8 - ^ = 
STACK WIN 4 172c4 49 7 0 4 0 0 0 1 $T0 $ebp = $eip $T0 4 + ^ = $ebp $T0 ^ = $esp $T0 8 + = 
STACK WIN 4 172ca 41 1 0 4 4 0 0 1 $T0 $ebp = $eip $T0 4 + ^ = $ebp $T0 ^ = $esp $T0 8 + =  $20 $T0 4 - ^ = 
STACK WIN 4 172cb 3d 0 0 4 8 0 0 1 $T0 $ebp = $eip $T0 4 + ^ = $ebp $T0 ^ = $esp $T0 8 + =  $20 $T0 4 - ^ =  $23 $T0 8 - ^ = 
STACK WIN 4 172db 2c 0 0 4 c 0 0 1 $T0 $ebp = $eip $T0 4 + ^ = $ebp $T0 ^ = $esp $T0 8 + =  $20 $T0 4 - ^ =  $23 $T0 8 - ^ =  $24 $T0 12 - ^ = 
STACK WIN 4 1731f d0 f 0 4 0 8 0 1 $T0 $ebp = $eip $T0 4 + ^ = $ebp $T0 ^ = $esp $T0 8 + = 
STACK WIN 4 17327 b9 7 0 4 4 8 0 1 $T0 $ebp = $eip $T0 4 + ^ = $ebp $T0 ^ = $esp $T0 8 + =  $20 $T0 12 - ^ = 
STACK WIN 4 1732d b2 1 0 4 8 8 0 1 $T0 $ebp = $eip $T0 4 + ^ = $ebp $T0 ^ = $esp $T0 8 + =  $20 $T0 12 - ^ =  $23 $T0 16 - ^ = 
STACK WIN 4 1732e b0 0 0 4 c 8 0 1 $T0 $ebp = $eip $T0 4 + ^ = $ebp $T0 ^ = $esp $T0 8 + =  $20 $T0 12 - ^ =  $23 $T0 16 - ^ =  $24 $T0 20 - ^ = 
STACK WIN 4 17423 10d 15 0 4 0 c 0 1 $T0 $ebp = $eip $T0 4 + ^ = $ebp $T0 ^ = $esp $T0 8 + = 
STACK WIN 4 1742c f5 c 0 4 4 c 0 1 $T0 $ebp = $eip $T0 4 + ^ = $ebp $T0 ^ = $esp $T0 8 + =  $20 $T0 16 - ^ = 
STACK WIN 4 17437 e9 1 0 4 8 c 0 1 $T0 $ebp = $eip $T0 4 + ^ = $ebp $T0 ^ = $esp $T0 8 + =  $20 $T0 16 - ^ =  $23 $T0 20 - ^ = 
STACK WIN 4 17438 e7 0 0 4 c c 0 1 $T0 $ebp = $eip $T0 4 + ^ = $ebp $T0 ^ = $esp $T0 8 + =  $20 $T0 16 - ^ =  $23 $T0 20 - ^ =  $24 $T0 24 - ^ = 
STACK WIN 4 17573 2f 6 0 4 0 0 0 1 $T0 $ebp = $eip $T0 4 + ^ = $ebp $T0 ^ = $esp $T0 8 + = 
STACK WIN 4 17579 27 0 0 4 4 0 0 1 $T0 $ebp = $eip $T0 4 + ^ = $ebp $T0 ^ = $esp $T0 8 + =  $23 $T0 4 - ^ = 
STACK WIN 4 17583 1c 0 0 4 8 0 0 1 $T0 $ebp = $eip $T0 4 + ^ = $ebp $T0 ^ = $esp $T0 8 + =  $23 $T0 4 - ^ =  $24 $T0 8 - ^ = 
STACK WIN 4 175ad 2f 6 0 4 0 0 0 1 $T0 $ebp = $eip $T0 4 + ^ = $ebp $T0 ^ = $esp $T0 8 + = 
STACK WIN 4 175b3 27 0 0 4 4 0 0 1 $T0 $ebp = $eip $T0 4 + ^ = $ebp $T0 ^ = $esp $T0 8 + =  $23 $T0 4 - ^ = 
STACK WIN 4 175bd 1c 0 0 4 8 0 0 1 $T0 $ebp = $eip $T0 4 + ^ = $ebp $T0 ^ = $esp $T0 8 + =  $23 $T0 4 - ^ =  $24 $T0 8 - ^ = 
STACK WIN 4 175e7 5 0 0 0 0 0 0 1 $T0 .raSearch = $eip $T0 ^ = $esp $T0 4 + = 
STACK WIN 4 175ec 5 0 0 0 0 0 0 1 $T0 .raSearch = $eip $T0 ^ = $esp $T0 4 + = 
STACK WIN 4 175f1 83 5 0 0 0 0 0 1 $T0 .raSearch = $eip $T0 ^ = $esp $T0 4 + = 
STACK WIN 4 175f4 7f 2 0 0 4 0 0 1 $T0 .raSearch = $eip $T0 ^ = $esp $T0 4 + =  $20 $T0 4 - ^ = 
STACK WIN 4 175f5 7d 1 0 0 8 0 0 1 $T0 .raSearch = $eip $T0 ^ = $esp $T0 4 + =  $20 $T0 4 - ^ =  $23 $T0 8 - ^ = 
STACK WIN 4 175f6 7b 0 0 0 c 0 0 1 $T0 .raSearch = $eip $T0 ^ = $esp $T0 4 + =  $20 $T0 4 - ^ =  $23 $T0 8 - ^ =  $24 $T0 12 - ^ = 
STACK WIN 4 17694 7d 5 0 0 0 0 0 1 $T0 .raSearch = $eip $T0 ^ = $esp $T0 4 + = 
STACK WIN 4 17697 79 2 0 0 4 0 0 1 $T0 .raSearch = $eip $T0 ^ = $esp $T0 4 + =  $20 $T0 4 - ^ = 
STACK WIN 4 17698 77 1 0 0 8 0 0 1 $T0 .raSearch = $eip $T0 ^ = $esp $T0 4 + =  $20 $T0 4 - ^ =  $23 $T0 8 - ^ = 
STACK WIN 4 17699 75 0 0 0 c 0 0 1 $T0 .raSearch = $eip $T0 ^ = $esp $T0 4 + =  $20 $T0 4 - ^ =  $23 $T0 8 - ^ =  $24 $T0 12 - ^ = 
STACK WIN 4 17730 18 5 0 8 0 0 0 1 $T0 $ebp = $eip $T0 4 + ^ = $ebp $T0 ^ = $esp $T0 8 + = 
STACK WIN 4 1774e 18 5 0 8 0 0 0 1 $T0 $ebp = $eip $T0 4 + ^ = $ebp $T0 ^ = $esp $T0 8 + = 
STACK WIN 4 1776c 1e 5 0 c 0 0 0 1 $T0 $ebp = $eip $T0 4 + ^ = $ebp $T0 ^ = $esp $T0 8 + = 
STACK WIN 4 17791 1e 5 0 c 0 0 0 1 $T0 $ebp = $eip $T0 4 + ^ = $ebp $T0 ^ = $esp $T0 8 + = 
STACK WIN 4 177b6 18 5 0 4 0 0 0 1 $T0 $ebp = $eip $T0 4 + ^ = $ebp $T0 ^ = $esp $T0 8 + = 
STACK WIN 4 177d4 1e 5 0 4 0 0 0 1 $T0 $ebp = $eip $T0 4 + ^ = $ebp $T0 ^ = $esp $T0 8 + = 
STACK WIN 4 177f9 29 8 0 4 0 0 0 1 $T0 $ebp = $eip $T0 4 + ^ = $ebp $T0 ^ = $esp $T0 8 + = 
STACK WIN 4 177ff 1f 2 0 4 4 0 0 1 $T0 $ebp = $eip $T0 4 + ^ = $ebp $T0 ^ = $esp $T0 8 + =  $23 $T0 4 - ^ = 
STACK WIN 4 17802 1b 0 0 4 8 0 0 1 $T0 $ebp = $eip $T0 4 + ^ = $ebp $T0 ^ = $esp $T0 8 + =  $23 $T0 4 - ^ =  $24 $T0 8 - ^ = 
STACK WIN 4 1782c 29 8 0 4 0 0 0 1 $T0 $ebp = $eip $T0 4 + ^ = $ebp $T0 ^ = $esp $T0 8 + = 
STACK WIN 4 17832 1f 2 0 4 4 0 0 1 $T0 $ebp = $eip $T0 4 + ^ = $ebp $T0 ^ = $esp $T0 8 + =  $23 $T0 4 - ^ = 
STACK WIN 4 17835 1b 0 0 4 8 0 0 1 $T0 $ebp = $eip $T0 4 + ^ = $ebp $T0 ^ = $esp $T0 8 + =  $23 $T0 4 - ^ =  $24 $T0 8 - ^ = 
STACK WIN 4 1785f 1b 5 0 4 0 0 0 1 $T0 $ebp = $eip $T0 4 + ^ = $ebp $T0 ^ = $esp $T0 8 + = 
STACK WIN 4 17880 1b 5 0 4 0 0 0 1 $T0 $ebp = $eip $T0 4 + ^ = $ebp $T0 ^ = $esp $T0 8 + = 
STACK WIN 4 178a1 10 5 0 4 0 0 0 1 $T0 $ebp = $eip $T0 4 + ^ = $ebp $T0 ^ = $esp $T0 8 + = 
STACK WIN 4 178b5 12 5 0 0 0 0 0 1 $T0 .raSearch = $eip $T0 ^ = $esp $T0 4 + = 
STACK WIN 4 178b8 e 2 0 0 4 0 0 1 $T0 .raSearch = $eip $T0 ^ = $esp $T0 4 + =  $23 $T0 4 - ^ = 
STACK WIN 4 178cb 7 0 0 0 0 0 0 1 $T0 .raSearch = $eip $T0 ^ = $esp $T0 4 + = 
STACK WIN 4 178d2 7 0 0 0 0 0 0 1 $T0 .raSearch = $eip $T0 ^ = $esp $T0 4 + = 
STACK WIN 4 178d9 7 0 0 0 0 0 0 1 $T0 .raSearch = $eip $T0 ^ = $esp $T0 4 + = 
STACK WIN 4 178e0 1c 5 0 8 0 0 0 1 $T0 $ebp = $eip $T0 4 + ^ = $ebp $T0 ^ = $esp $T0 8 + = 
STACK WIN 4 17903 1e 5 0 8 0 0 0 1 $T0 $ebp = $eip $T0 4 + ^ = $ebp $T0 ^ = $esp $T0 8 + = 
STACK WIN 4 17928 1f 5 0 10 0 0 0 1 $T0 $ebp = $eip $T0 4 + ^ = $ebp $T0 ^ = $esp $T0 8 + = 
STACK WIN 4 1794e 22 5 0 10 0 0 0 1 $T0 $ebp = $eip $T0 4 + ^ = $ebp $T0 ^ = $esp $T0 8 + = 
STACK WIN 4 17978 6 0 0 0 0 0 0 1 $T0 .raSearch = $eip $T0 ^ = $esp $T0 4 + = 
STACK WIN 4 1797e 6 0 0 0 0 0 0 1 $T0 .raSearch = $eip $T0 ^ = $esp $T0 4 + = 
STACK WIN 4 17984 3 0 0 0 0 0 0 1 $T0 .raSearch = $eip $T0 ^ = $esp $T0 4 + = 
STACK WIN 4 17987 6 0 0 4 0 0 0 1 $T0 .raSearch = $eip $T0 ^ = $esp $T0 4 + = 
STACK WIN 4 1798d 6 0 0 4 0 0 0 1 $T0 .raSearch = $eip $T0 ^ = $esp $T0 4 + = 
STACK WIN 4 17993 6 0 0 4 0 0 0 1 $T0 .raSearch = $eip $T0 ^ = $esp $T0 4 + = 
STACK WIN 4 17999 6 0 0 4 0 0 0 1 $T0 .raSearch = $eip $T0 ^ = $esp $T0 4 + = 
STACK WIN 4 1799f 6 0 0 4 0 0 0 1 $T0 .raSearch = $eip $T0 ^ = $esp $T0 4 + = 
STACK WIN 4 179a5 6 0 0 4 0 0 0 1 $T0 .raSearch = $eip $T0 ^ = $esp $T0 4 + = 
STACK WIN 4 179ab 26 d 0 4 0 0 0 1 $T0 $ebp = $eip $T0 4 + ^ = $ebp $T0 ^ = $esp $T0 8 + = 
STACK WIN 4 179b8 15 0 0 4 4 0 0 1 $T0 $ebp = $eip $T0 4 + ^ = $ebp $T0 ^ = $esp $T0 8 + =  $23 $T0 4 - ^ = 
STACK WIN 4 179da 26 d 0 4 0 0 0 1 $T0 $ebp = $eip $T0 4 + ^ = $ebp $T0 ^ = $esp $T0 8 + = 
STACK WIN 4 179e7 15 0 0 4 4 0 0 1 $T0 $ebp = $eip $T0 4 + ^ = $ebp $T0 ^ = $esp $T0 8 + =  $23 $T0 4 - ^ = 
STACK WIN 4 17a09 7 0 0 0 0 0 0 1 $T0 .raSearch = $eip $T0 ^ = $esp $T0 4 + = 
STACK WIN 4 17a10 7 0 0 0 0 0 0 1 $T0 .raSearch = $eip $T0 ^ = $esp $T0 4 + = 
STACK WIN 4 17a17 7 0 0 0 0 0 0 1 $T0 .raSearch = $eip $T0 ^ = $esp $T0 4 + = 
STACK WIN 4 17a1e 5 0 0 4 0 0 0 1 $T0 .raSearch = $eip $T0 ^ = $esp $T0 4 + = 
STACK WIN 4 17a23 3 0 0 4 0 0 0 1 $T0 .raSearch = $eip $T0 ^ = $esp $T0 4 + = 
STACK WIN 4 17a26 12 5 0 0 0 0 0 1 $T0 .raSearch = $eip $T0 ^ = $esp $T0 4 + = 
STACK WIN 4 17a29 e 2 0 0 4 0 0 1 $T0 .raSearch = $eip $T0 ^ = $esp $T0 4 + =  $23 $T0 4 - ^ = 
STACK WIN 4 17a3c 3 0 0 0 0 0 0 1 $T0 .raSearch = $eip $T0 ^ = $esp $T0 4 + = 
STACK WIN 4 17a3f 3 0 0 0 0 0 0 1 $T0 .raSearch = $eip $T0 ^ = $esp $T0 4 + = 
STACK WIN 4 17a42 5 0 0 0 0 0 0 1 $T0 .raSearch = $eip $T0 ^ = $esp $T0 4 + = 
STACK WIN 4 17a47 5 0 0 0 0 0 0 1 $T0 .raSearch = $eip $T0 ^ = $esp $T0 4 + = 
STACK WIN 4 17a4c 37 0 0 0 0 0 0 1 $T0 .raSearch = $eip $T0 ^ = $esp $T0 4 + = 
STACK WIN 4 17a90 6 0 0 0 0 0 0 1 $T0 .raSearch = $eip $T0 ^ = $esp $T0 4 + = 
STACK WIN 4 17a96 6 0 0 0 0 0 0 1 $T0 .raSearch = $eip $T0 ^ = $esp $T0 4 + = 
STACK WIN 4 17a9c 14 0 0 0 0 0 0 1 $T0 .raSearch = $eip $T0 ^ = $esp $T0 4 + = 
STACK WIN 4 17ab5 14 0 0 0 0 0 0 1 $T0 .raSearch = $eip $T0 ^ = $esp $T0 4 + = 
STACK WIN 4 17ace 5 0 0 0 0 0 0 1 $T0 .raSearch = $eip $T0 ^ = $esp $T0 4 + = 
STACK WIN 4 17ad3 5 0 0 0 0 0 0 1 $T0 .raSearch = $eip $T0 ^ = $esp $T0 4 + = 
STACK WIN 4 17ad8 22 5 0 18 0 0 0 1 $T0 $ebp = $eip $T0 4 + ^ = $ebp $T0 ^ = $esp $T0 8 + = 
STACK WIN 4 17b02 6 0 0 0 0 0 0 1 $T0 .raSearch = $eip $T0 ^ = $esp $T0 4 + = 
STACK WIN 4 17b08 12 5 0 4 0 0 0 1 $T0 $ebp = $eip $T0 4 + ^ = $ebp $T0 ^ = $esp $T0 8 + = 
STACK WIN 4 17b1e 5b c 0 c 10 1c 0 1 $T0 $ebp = $eip $T0 4 + ^ = $ebp $T0 ^ = $esp $T0 8 + =  $20 $T0 32 - ^ =  $23 $T0 36 - ^ =  $24 $T0 40 - ^ = 
STACK WIN 4 17b6a e 0 0 c 10 1c 0 1 $T0 $ebp = $T2 $esp = $T1 .raSearchStart = $eip $T1 ^ = $ebp $T0 = $esp $T1 4 + = 
STACK WIN 4 17b8f 5b c 0 c 10 1c 0 1 $T0 $ebp = $eip $T0 4 + ^ = $ebp $T0 ^ = $esp $T0 8 + =  $20 $T0 32 - ^ =  $23 $T0 36 - ^ =  $24 $T0 40 - ^ = 
STACK WIN 4 17bdb e 0 0 c 10 1c 0 1 $T0 $ebp = $T2 $esp = $T1 .raSearchStart = $eip $T1 ^ = $ebp $T0 = $esp $T1 4 + = 
STACK WIN 4 17c00 26 8 0 8 0 c 0 1 $T0 $ebp = $eip $T0 4 + ^ = $ebp $T0 ^ = $esp $T0 8 + = 
STACK WIN 4 17c2f 26 8 0 8 0 c 0 1 $T0 $ebp = $eip $T0 4 + ^ = $ebp $T0 ^ = $esp $T0 8 + = 
STACK WIN 4 17c5e 1f 5 0 4 0 0 0 1 $T0 $ebp = $eip $T0 4 + ^ = $ebp $T0 ^ = $esp $T0 8 + = 
STACK WIN 4 17c84 12 5 0 4 0 0 0 1 $T0 $ebp = $eip $T0 4 + ^ = $ebp $T0 ^ = $esp $T0 8 + = 
STACK WIN 4 17c9a 12 5 0 4 0 0 0 1 $T0 $ebp = $eip $T0 4 + ^ = $ebp $T0 ^ = $esp $T0 8 + = 
STACK WIN 4 17cb0 16 5 0 8 0 0 0 1 $T0 $ebp = $eip $T0 4 + ^ = $ebp $T0 ^ = $esp $T0 8 + = 
STACK WIN 4 17ccb 12 5 0 4 0 0 0 1 $T0 $ebp = $eip $T0 4 + ^ = $ebp $T0 ^ = $esp $T0 8 + = 
STACK WIN 4 17ce1 12 5 0 4 0 0 0 1 $T0 $ebp = $eip $T0 4 + ^ = $ebp $T0 ^ = $esp $T0 8 + = 
STACK WIN 4 17cf7 10 5 0 4 0 0 0 1 $T0 $ebp = $eip $T0 4 + ^ = $ebp $T0 ^ = $esp $T0 8 + = 
STACK WIN 4 17d0b 10 5 0 4 0 0 0 1 $T0 $ebp = $eip $T0 4 + ^ = $ebp $T0 ^ = $esp $T0 8 + = 
STACK WIN 4 17d1f 12 5 0 0 0 0 0 1 $T0 .raSearch = $eip $T0 ^ = $esp $T0 4 + = 
STACK WIN 4 17d22 e 2 0 0 4 0 0 1 $T0 .raSearch = $eip $T0 ^ = $esp $T0 4 + =  $23 $T0 4 - ^ = 
STACK WIN 4 17d35 3 0 0 0 0 0 0 1 $T0 .raSearch = $eip $T0 ^ = $esp $T0 4 + = 
STACK WIN 4 17d38 9 0 0 0 0 0 0 1 $T0 .raSearch = $eip $T0 ^ = $esp $T0 4 + = 
STACK WIN 4 17d43 9 0 0 0 0 0 0 1 $T0 .raSearch = $eip $T0 ^ = $esp $T0 4 + = 
STACK WIN 4 17d4e 129 d 0 0 0 c 0 1 $T0 $ebp = $eip $T0 4 + ^ = $ebp $T0 ^ = $esp $T0 8 + = 
STACK WIN 4 17d5c 119 0 0 0 4 c 0 1 $T0 $ebp = $eip $T0 4 + ^ = $ebp $T0 ^ = $esp $T0 8 + =  $20 $T0 16 - ^ = 
STACK WIN 4 17d5d 117 0 0 0 8 c 0 1 $T0 $ebp = $eip $T0 4 + ^ = $ebp $T0 ^ = $esp $T0 8 + =  $20 $T0 16 - ^ =  $23 $T0 20 - ^ = 
STACK WIN 4 17d60 113 0 0 0 c c 0 1 $T0 $ebp = $eip $T0 4 + ^ = $ebp $T0 ^ = $esp $T0 8 + =  $20 $T0 16 - ^ =  $23 $T0 20 - ^ =  $24 $T0 24 - ^ = 
STACK WIN 4 17ec1 9 0 0 0 0 0 0 1 $T0 .raSearch = $eip $T0 ^ = $esp $T0 4 + = 
STACK WIN 4 17ecc 9 0 0 0 0 0 0 1 $T0 .raSearch = $eip $T0 ^ = $esp $T0 4 + = 
STACK WIN 4 17ed7 da f 0 0 0 14 0 1 $T0 $ebp = $eip $T0 4 + ^ = $ebp $T0 ^ = $esp $T0 8 + = 
STACK WIN 4 17ee0 cf 6 0 0 4 14 0 1 $T0 $ebp = $eip $T0 4 + ^ = $ebp $T0 ^ = $esp $T0 8 + =  $20 $T0 24 - ^ = 
STACK WIN 4 17ee3 cb 3 0 0 8 14 0 1 $T0 $ebp = $eip $T0 4 + ^ = $ebp $T0 ^ = $esp $T0 8 + =  $20 $T0 24 - ^ =  $24 $T0 28 - ^ = 
STACK WIN 4 17eff ae 0 0 0 c 14 0 1 $T0 $ebp = $eip $T0 4 + ^ = $ebp $T0 ^ = $esp $T0 8 + =  $20 $T0 24 - ^ =  $24 $T0 28 - ^ =  $23 $T0 32 - ^ = 
STACK WIN 4 17fe7 6 0 0 0 0 0 0 1 $T0 .raSearch = $eip $T0 ^ = $esp $T0 4 + = 
STACK WIN 4 17fed 12 5 0 0 0 0 0 1 $T0 .raSearch = $eip $T0 ^ = $esp $T0 4 + = 
STACK WIN 4 17ff0 e 2 0 0 4 0 0 1 $T0 .raSearch = $eip $T0 ^ = $esp $T0 4 + =  $23 $T0 4 - ^ = 
STACK WIN 4 18003 16 5 0 4 0 0 0 1 $T0 $ebp = $eip $T0 4 + ^ = $ebp $T0 ^ = $esp $T0 8 + = 
STACK WIN 4 1801e 16 5 0 4 0 0 0 1 $T0 $ebp = $eip $T0 4 + ^ = $ebp $T0 ^ = $esp $T0 8 + = 
STACK WIN 4 18039 2d 8 0 4 0 10 0 1 $T0 $ebp = $eip $T0 4 + ^ = $ebp $T0 ^ = $esp $T0 8 + = 
STACK WIN 4 18071 29 5 0 4 0 0 0 1 $T0 $ebp = $eip $T0 4 + ^ = $ebp $T0 ^ = $esp $T0 8 + = 
STACK WIN 4 180a4 33 8 0 8 0 14 0 1 $T0 $ebp = $eip $T0 4 + ^ = $ebp $T0 ^ = $esp $T0 8 + = 
STACK WIN 4 180e3 3 0 0 4 0 0 0 1 $T0 .raSearch = $eip $T0 ^ = $esp $T0 4 + = 
STACK WIN 4 180e6 d 0 0 0 0 0 0 1 $T0 .raSearch = $eip $T0 ^ = $esp $T0 4 + = 
STACK WIN 4 180f6 1a 0 0 0 0 0 0 1 $T0 .raSearch = $eip $T0 ^ = $esp $T0 4 + = 
STACK WIN 4 18116 3 0 0 4 0 0 0 1 $T0 .raSearch = $eip $T0 ^ = $esp $T0 4 + = 
STACK WIN 4 18119 3 0 0 0 0 0 0 1 $T0 .raSearch = $eip $T0 ^ = $esp $T0 4 + = 
STACK WIN 4 1811c 8 0 0 4 0 0 0 1 $T0 .raSearch = $eip $T0 ^ = $esp $T0 4 + = 
STACK WIN 4 18126 3 0 0 0 0 0 0 1 $T0 .raSearch = $eip $T0 ^ = $esp $T0 4 + = 
STACK WIN 4 18129 3 0 0 4 0 0 0 1 $T0 .raSearch = $eip $T0 ^ = $esp $T0 4 + = 
STACK WIN 4 1812c 2e 3 0 0 0 0 0 1 $T0 .raSearch = $eip $T0 ^ = $esp $T0 4 + = 
STACK WIN 4 1812f 2a 0 0 0 4 0 0 1 $T0 .raSearch = $eip $T0 ^ = $esp $T0 4 + =  $23 $T0 4 - ^ = 
STACK WIN 4 18165 9 0 0 4 0 0 0 1 $T0 .raSearch = $eip $T0 ^ = $esp $T0 4 + = 
STACK WIN 4 18170 17 6 0 4 0 4 0 1 $T0 $ebp = $eip $T0 4 + ^ = $ebp $T0 ^ = $esp $T0 8 + = 
STACK WIN 4 1818c 50 3 0 4 0 0 0 1 $T0 .raSearch = $eip $T0 ^ = $esp $T0 4 + = 
STACK WIN 4 1818f 4c 0 0 4 4 0 0 1 $T0 .raSearch = $eip $T0 ^ = $esp $T0 4 + =  $23 $T0 4 - ^ = 
STACK WIN 4 181f0 24 8 0 4 0 0 0 1 $T0 $ebp = $eip $T0 4 + ^ = $ebp $T0 ^ = $esp $T0 8 + = 
STACK WIN 4 181f6 1a 2 0 4 4 0 0 1 $T0 $ebp = $eip $T0 4 + ^ = $ebp $T0 ^ = $esp $T0 8 + =  $23 $T0 4 - ^ = 
STACK WIN 4 181f9 16 0 0 4 8 0 0 1 $T0 $ebp = $eip $T0 4 + ^ = $ebp $T0 ^ = $esp $T0 8 + =  $23 $T0 4 - ^ =  $24 $T0 8 - ^ = 
STACK WIN 4 1821d 2e 6 0 4 0 0 0 1 $T0 $ebp = $eip $T0 4 + ^ = $ebp $T0 ^ = $esp $T0 8 + = 
STACK WIN 4 18223 24 0 0 4 4 0 0 1 $T0 $ebp = $eip $T0 4 + ^ = $ebp $T0 ^ = $esp $T0 8 + =  $23 $T0 4 - ^ = 
STACK WIN 4 18232 14 0 0 4 8 0 0 1 $T0 $ebp = $eip $T0 4 + ^ = $ebp $T0 ^ = $esp $T0 8 + =  $23 $T0 4 - ^ =  $24 $T0 8 - ^ = 
STACK WIN 4 18256 b 0 0 0 0 0 0 1 $T0 .raSearch = $eip $T0 ^ = $esp $T0 4 + = 
STACK WIN 4 18263 26 d 0 4 0 0 0 1 $T0 $ebp = $eip $T0 4 + ^ = $ebp $T0 ^ = $esp $T0 8 + = 
STACK WIN 4 18270 15 0 0 4 4 0 0 1 $T0 $ebp = $eip $T0 4 + ^ = $ebp $T0 ^ = $esp $T0 8 + =  $23 $T0 4 - ^ = 
STACK WIN 4 18292 12 0 0 0 0 0 0 1 $T0 .raSearch = $eip $T0 ^ = $esp $T0 4 + = 
STACK WIN 4 182a8 b 0 0 0 0 0 0 1 $T0 .raSearch = $eip $T0 ^ = $esp $T0 4 + = 
STACK WIN 4 182b5 8 0 0 0 0 0 0 1 $T0 .raSearch = $eip $T0 ^ = $esp $T0 4 + = 
STACK WIN 4 182bf 30 5 0 4 0 0 0 1 $T0 $ebp = $eip $T0 4 + ^ = $ebp $T0 ^ = $esp $T0 8 + = 
STACK WIN 4 182fb 12 5 0 4 0 0 0 1 $T0 $ebp = $eip $T0 4 + ^ = $ebp $T0 ^ = $esp $T0 8 + = 
STACK WIN 4 18311 16 5 0 4 0 0 0 1 $T0 $ebp = $eip $T0 4 + ^ = $ebp $T0 ^ = $esp $T0 8 + = 
STACK WIN 4 1832c 12 0 0 0 0 0 0 1 $T0 .raSearch = $eip $T0 ^ = $esp $T0 4 + = 
STACK WIN 4 18342 20 5 0 4 0 0 0 1 $T0 $ebp = $eip $T0 4 + ^ = $ebp $T0 ^ = $esp $T0 8 + = 
STACK WIN 4 1836a 3c c 0 0 10 18 0 1 $T0 $ebp = $eip $T0 4 + ^ = $ebp $T0 ^ = $esp $T0 8 + =  $20 $T0 28 - ^ =  $23 $T0 32 - ^ =  $24 $T0 36 - ^ = 
STACK WIN 4 18392 4 0 0 0 10 18 0 1 $T0 $ebp = $T2 $esp = $T1 .raSearchStart = $eip $T1 ^ = $ebp $T0 = $esp $T1 4 + = 
STACK WIN 4 183b5 b 5 0 4 0 0 0 1 $T0 $ebp = $eip $T0 4 + ^ = $ebp $T0 ^ = $esp $T0 8 + = 
STACK WIN 4 183c2 5a 9 0 c 0 0 0 1 $T0 $ebp = $eip $T0 4 + ^ = $ebp $T0 ^ = $esp $T0 8 + = 
STACK WIN 4 183cb 27 0 0 c 4 0 0 1 $T0 $ebp = $eip $T0 4 + ^ = $ebp $T0 ^ = $esp $T0 8 + =  $23 $T0 4 - ^ = 
STACK WIN 4 183f5 14 0 0 c 8 0 0 1 $T0 $ebp = $eip $T0 4 + ^ = $ebp $T0 ^ = $esp $T0 8 + =  $23 $T0 4 - ^ =  $24 $T0 8 - ^ = 
STACK WIN 4 18432 5a 9 0 c 0 0 0 1 $T0 $ebp = $eip $T0 4 + ^ = $ebp $T0 ^ = $esp $T0 8 + = 
STACK WIN 4 1843b 27 0 0 c 4 0 0 1 $T0 $ebp = $eip $T0 4 + ^ = $ebp $T0 ^ = $esp $T0 8 + =  $23 $T0 4 - ^ = 
STACK WIN 4 18465 14 0 0 c 8 0 0 1 $T0 $ebp = $eip $T0 4 + ^ = $ebp $T0 ^ = $esp $T0 8 + =  $23 $T0 4 - ^ =  $24 $T0 8 - ^ = 
STACK WIN 4 184a2 23 b 0 14 0 0 0 1 $T0 $ebp = $eip $T0 4 + ^ = $ebp $T0 ^ = $esp $T0 8 + = 
STACK WIN 4 184a8 19 5 0 14 4 0 0 1 $T0 $ebp = $eip $T0 4 + ^ = $ebp $T0 ^ = $esp $T0 8 + =  $23 $T0 4 - ^ = 
STACK WIN 4 184cd 48 b 0 14 0 0 0 1 $T0 $ebp = $eip $T0 4 + ^ = $ebp $T0 ^ = $esp $T0 8 + = 
STACK WIN 4 184d3 3e 5 0 14 4 0 0 1 $T0 $ebp = $eip $T0 4 + ^ = $ebp $T0 ^ = $esp $T0 8 + =  $23 $T0 4 - ^ = 
STACK WIN 4 18527 35 b 0 14 0 0 0 1 $T0 $ebp = $eip $T0 4 + ^ = $ebp $T0 ^ = $esp $T0 8 + = 
STACK WIN 4 18530 28 2 0 14 4 0 0 1 $T0 $ebp = $eip $T0 4 + ^ = $ebp $T0 ^ = $esp $T0 8 + =  $23 $T0 4 - ^ = 
STACK WIN 4 18569 23 b 0 14 0 0 0 1 $T0 $ebp = $eip $T0 4 + ^ = $ebp $T0 ^ = $esp $T0 8 + = 
STACK WIN 4 1856f 19 5 0 14 4 0 0 1 $T0 $ebp = $eip $T0 4 + ^ = $ebp $T0 ^ = $esp $T0 8 + =  $23 $T0 4 - ^ = 
STACK WIN 4 18594 48 b 0 14 0 0 0 1 $T0 $ebp = $eip $T0 4 + ^ = $ebp $T0 ^ = $esp $T0 8 + = 
STACK WIN 4 1859a 3e 5 0 14 4 0 0 1 $T0 $ebp = $eip $T0 4 + ^ = $ebp $T0 ^ = $esp $T0 8 + =  $23 $T0 4 - ^ = 
STACK WIN 4 185ee 35 b 0 14 0 0 0 1 $T0 $ebp = $eip $T0 4 + ^ = $ebp $T0 ^ = $esp $T0 8 + = 
STACK WIN 4 185f7 28 2 0 14 4 0 0 1 $T0 $ebp = $eip $T0 4 + ^ = $ebp $T0 ^ = $esp $T0 8 + =  $23 $T0 4 - ^ = 
STACK WIN 4 18630 23 b 0 14 0 0 0 1 $T0 $ebp = $eip $T0 4 + ^ = $ebp $T0 ^ = $esp $T0 8 + = 
STACK WIN 4 18636 19 5 0 14 4 0 0 1 $T0 $ebp = $eip $T0 4 + ^ = $ebp $T0 ^ = $esp $T0 8 + =  $23 $T0 4 - ^ = 
STACK WIN 4 1865b 48 b 0 14 0 0 0 1 $T0 $ebp = $eip $T0 4 + ^ = $ebp $T0 ^ = $esp $T0 8 + = 
STACK WIN 4 18661 3e 5 0 14 4 0 0 1 $T0 $ebp = $eip $T0 4 + ^ = $ebp $T0 ^ = $esp $T0 8 + =  $23 $T0 4 - ^ = 
STACK WIN 4 186b5 35 b 0 14 0 0 0 1 $T0 $ebp = $eip $T0 4 + ^ = $ebp $T0 ^ = $esp $T0 8 + = 
STACK WIN 4 186be 28 2 0 14 4 0 0 1 $T0 $ebp = $eip $T0 4 + ^ = $ebp $T0 ^ = $esp $T0 8 + =  $23 $T0 4 - ^ = 
STACK WIN 4 186f7 23 b 0 14 0 0 0 1 $T0 $ebp = $eip $T0 4 + ^ = $ebp $T0 ^ = $esp $T0 8 + = 
STACK WIN 4 186fd 19 5 0 14 4 0 0 1 $T0 $ebp = $eip $T0 4 + ^ = $ebp $T0 ^ = $esp $T0 8 + =  $23 $T0 4 - ^ = 
STACK WIN 4 18722 48 b 0 14 0 0 0 1 $T0 $ebp = $eip $T0 4 + ^ = $ebp $T0 ^ = $esp $T0 8 + = 
STACK WIN 4 18728 3e 5 0 14 4 0 0 1 $T0 $ebp = $eip $T0 4 + ^ = $ebp $T0 ^ = $esp $T0 8 + =  $23 $T0 4 - ^ = 
STACK WIN 4 1877c 35 b 0 14 0 0 0 1 $T0 $ebp = $eip $T0 4 + ^ = $ebp $T0 ^ = $esp $T0 8 + = 
STACK WIN 4 18785 28 2 0 14 4 0 0 1 $T0 $ebp = $eip $T0 4 + ^ = $ebp $T0 ^ = $esp $T0 8 + =  $23 $T0 4 - ^ = 
STACK WIN 4 187be 5b c 0 c 10 1c 0 1 $T0 $ebp = $eip $T0 4 + ^ = $ebp $T0 ^ = $esp $T0 8 + =  $20 $T0 32 - ^ =  $23 $T0 36 - ^ =  $24 $T0 40 - ^ = 
STACK WIN 4 1880a e 0 0 c 10 1c 0 1 $T0 $ebp = $T2 $esp = $T1 .raSearchStart = $eip $T1 ^ = $ebp $T0 = $esp $T1 4 + = 
STACK WIN 4 1882f 5b c 0 c 10 1c 0 1 $T0 $ebp = $eip $T0 4 + ^ = $ebp $T0 ^ = $esp $T0 8 + =  $20 $T0 32 - ^ =  $23 $T0 36 - ^ =  $24 $T0 40 - ^ = 
STACK WIN 4 1887b e 0 0 c 10 1c 0 1 $T0 $ebp = $T2 $esp = $T1 .raSearchStart = $eip $T1 ^ = $ebp $T0 = $esp $T1 4 + = 
STACK WIN 4 188a0 5b c 0 c 10 1c 0 1 $T0 $ebp = $eip $T0 4 + ^ = $ebp $T0 ^ = $esp $T0 8 + =  $20 $T0 32 - ^ =  $23 $T0 36 - ^ =  $24 $T0 40 - ^ = 
STACK WIN 4 188ec e 0 0 c 10 1c 0 1 $T0 $ebp = $T2 $esp = $T1 .raSearchStart = $eip $T1 ^ = $ebp $T0 = $esp $T1 4 + = 
STACK WIN 4 18911 5b c 0 c 10 1c 0 1 $T0 $ebp = $eip $T0 4 + ^ = $ebp $T0 ^ = $esp $T0 8 + =  $20 $T0 32 - ^ =  $23 $T0 36 - ^ =  $24 $T0 40 - ^ = 
STACK WIN 4 1895d e 0 0 c 10 1c 0 1 $T0 $ebp = $T2 $esp = $T1 .raSearchStart = $eip $T1 ^ = $ebp $T0 = $esp $T1 4 + = 
STACK WIN 4 18982 5b c 0 c 10 1c 0 1 $T0 $ebp = $eip $T0 4 + ^ = $ebp $T0 ^ = $esp $T0 8 + =  $20 $T0 32 - ^ =  $23 $T0 36 - ^ =  $24 $T0 40 - ^ = 
STACK WIN 4 189ce e 0 0 c 10 1c 0 1 $T0 $ebp = $T2 $esp = $T1 .raSearchStart = $eip $T1 ^ = $ebp $T0 = $esp $T1 4 + = 
STACK WIN 4 189f3 5b c 0 c 10 1c 0 1 $T0 $ebp = $eip $T0 4 + ^ = $ebp $T0 ^ = $esp $T0 8 + =  $20 $T0 32 - ^ =  $23 $T0 36 - ^ =  $24 $T0 40 - ^ = 
STACK WIN 4 18a3f e 0 0 c 10 1c 0 1 $T0 $ebp = $T2 $esp = $T1 .raSearchStart = $eip $T1 ^ = $ebp $T0 = $esp $T1 4 + = 
STACK WIN 4 18a64 26 8 0 8 0 c 0 1 $T0 $ebp = $eip $T0 4 + ^ = $ebp $T0 ^ = $esp $T0 8 + = 
STACK WIN 4 18a93 26 8 0 8 0 c 0 1 $T0 $ebp = $eip $T0 4 + ^ = $ebp $T0 ^ = $esp $T0 8 + = 
STACK WIN 4 18ac2 26 8 0 8 0 c 0 1 $T0 $ebp = $eip $T0 4 + ^ = $ebp $T0 ^ = $esp $T0 8 + = 
STACK WIN 4 18af1 26 8 0 8 0 c 0 1 $T0 $ebp = $eip $T0 4 + ^ = $ebp $T0 ^ = $esp $T0 8 + = 
STACK WIN 4 18b20 26 8 0 8 0 c 0 1 $T0 $ebp = $eip $T0 4 + ^ = $ebp $T0 ^ = $esp $T0 8 + = 
STACK WIN 4 18b4f 26 8 0 8 0 c 0 1 $T0 $ebp = $eip $T0 4 + ^ = $ebp $T0 ^ = $esp $T0 8 + = 
STACK WIN 4 18b7e 64 b 0 18 0 20 0 1 $T0 $ebp = $eip $T0 4 + ^ = $ebp $T0 ^ = $esp $T0 8 + = 
STACK WIN 4 18bfb 64 b 0 18 0 20 0 1 $T0 $ebp = $eip $T0 4 + ^ = $ebp $T0 ^ = $esp $T0 8 + = 
STACK WIN 4 18c78 64 b 0 18 0 20 0 1 $T0 $ebp = $eip $T0 4 + ^ = $ebp $T0 ^ = $esp $T0 8 + = 
STACK WIN 4 18cf5 64 b 0 18 0 20 0 1 $T0 $ebp = $eip $T0 4 + ^ = $ebp $T0 ^ = $esp $T0 8 + = 
STACK WIN 4 18d72 64 b 0 18 0 20 0 1 $T0 $ebp = $eip $T0 4 + ^ = $ebp $T0 ^ = $esp $T0 8 + = 
STACK WIN 4 18def 64 b 0 18 0 20 0 1 $T0 $ebp = $eip $T0 4 + ^ = $ebp $T0 ^ = $esp $T0 8 + = 
STACK WIN 4 18e6c e8 6 0 20 0 4 0 1 $T0 $ebp = $eip $T0 4 + ^ = $ebp $T0 ^ = $esp $T0 8 + = 
STACK WIN 4 18e8e 8f 0 0 20 4 4 0 1 $T0 $ebp = $eip $T0 4 + ^ = $ebp $T0 ^ = $esp $T0 8 + =  $20 $T0 8 - ^ = 
STACK WIN 4 18e92 8a 0 0 20 8 4 0 1 $T0 $ebp = $eip $T0 4 + ^ = $ebp $T0 ^ = $esp $T0 8 + =  $20 $T0 8 - ^ =  $23 $T0 12 - ^ = 
STACK WIN 4 18e96 85 0 0 20 c 4 0 1 $T0 $ebp = $eip $T0 4 + ^ = $ebp $T0 ^ = $esp $T0 8 + =  $20 $T0 8 - ^ =  $23 $T0 12 - ^ =  $24 $T0 16 - ^ = 
STACK WIN 4 18f8e ec 6 0 20 0 4 0 1 $T0 $ebp = $eip $T0 4 + ^ = $ebp $T0 ^ = $esp $T0 8 + = 
STACK WIN 4 18fb0 91 0 0 20 4 4 0 1 $T0 $ebp = $eip $T0 4 + ^ = $ebp $T0 ^ = $esp $T0 8 + =  $20 $T0 8 - ^ = 
STACK WIN 4 18fb4 8c 0 0 20 8 4 0 1 $T0 $ebp = $eip $T0 4 + ^ = $ebp $T0 ^ = $esp $T0 8 + =  $20 $T0 8 - ^ =  $23 $T0 12 - ^ = 
STACK WIN 4 18fb8 87 0 0 20 c 4 0 1 $T0 $ebp = $eip $T0 4 + ^ = $ebp $T0 ^ = $esp $T0 8 + =  $20 $T0 8 - ^ =  $23 $T0 12 - ^ =  $24 $T0 16 - ^ = 
STACK WIN 4 190b5 17e 1d 0 1c 0 484 0 1 $T0 $ebp = $eip $T0 4 + ^ = $ebp $T0 ^ = $esp $T0 8 + = 
STACK WIN 4 190d2 13e 0 0 1c 4 484 0 1 $T0 $ebp = $eip $T0 4 + ^ = $ebp $T0 ^ = $esp $T0 8 + =  $20 $T0 1160 - ^ = 
STACK WIN 4 190fe 12f 0 0 1c 8 484 0 1 $T0 $ebp = $eip $T0 4 + ^ = $ebp $T0 ^ = $esp $T0 8 + =  $20 $T0 1160 - ^ =  $23 $T0 1164 - ^ = 
STACK WIN 4 190ff 108 0 0 1c c 484 0 1 $T0 $ebp = $eip $T0 4 + ^ = $ebp $T0 ^ = $esp $T0 8 + =  $20 $T0 1160 - ^ =  $23 $T0 1164 - ^ =  $24 $T0 1168 - ^ = 
STACK WIN 4 19292 187 1d 0 1c 0 484 0 1 $T0 $ebp = $eip $T0 4 + ^ = $ebp $T0 ^ = $esp $T0 8 + = 
STACK WIN 4 192af 144 0 0 1c 4 484 0 1 $T0 $ebp = $eip $T0 4 + ^ = $ebp $T0 ^ = $esp $T0 8 + =  $20 $T0 1160 - ^ = 
STACK WIN 4 192db 135 0 0 1c 8 484 0 1 $T0 $ebp = $eip $T0 4 + ^ = $ebp $T0 ^ = $esp $T0 8 + =  $20 $T0 1160 - ^ =  $23 $T0 1164 - ^ = 
STACK WIN 4 192dc 10e 0 0 1c c 484 0 1 $T0 $ebp = $eip $T0 4 + ^ = $ebp $T0 ^ = $esp $T0 8 + =  $20 $T0 1160 - ^ =  $23 $T0 1164 - ^ =  $24 $T0 1168 - ^ = 
STACK WIN 4 1947a 1b0 1d 0 1c 0 af0 0 1 $T0 $ebp = $eip $T0 4 + ^ = $ebp $T0 ^ = $esp $T0 8 + = 
STACK WIN 4 19493 174 4 0 1c 4 af0 0 1 $T0 $ebp = $eip $T0 4 + ^ = $ebp $T0 ^ = $esp $T0 8 + =  $20 $T0 2804 - ^ = 
STACK WIN 4 19497 18d 0 0 1c 8 af0 0 1 $T0 $ebp = $eip $T0 4 + ^ = $ebp $T0 ^ = $esp $T0 8 + =  $20 $T0 2804 - ^ =  $23 $T0 2808 - ^ = 
STACK WIN 4 194c5 12a 0 0 1c c af0 0 1 $T0 $ebp = $eip $T0 4 + ^ = $ebp $T0 ^ = $esp $T0 8 + =  $20 $T0 2804 - ^ =  $23 $T0 2808 - ^ =  $24 $T0 2812 - ^ = 
STACK WIN 4 19696 1b9 1d 0 1c 0 af0 0 1 $T0 $ebp = $eip $T0 4 + ^ = $ebp $T0 ^ = $esp $T0 8 + = 
STACK WIN 4 196af 17a 4 0 1c 4 af0 0 1 $T0 $ebp = $eip $T0 4 + ^ = $ebp $T0 ^ = $esp $T0 8 + =  $20 $T0 2804 - ^ = 
STACK WIN 4 196b3 193 0 0 1c 8 af0 0 1 $T0 $ebp = $eip $T0 4 + ^ = $ebp $T0 ^ = $esp $T0 8 + =  $20 $T0 2804 - ^ =  $23 $T0 2808 - ^ = 
STACK WIN 4 196e1 130 0 0 1c c af0 0 1 $T0 $ebp = $eip $T0 4 + ^ = $ebp $T0 ^ = $esp $T0 8 + =  $20 $T0 2804 - ^ =  $23 $T0 2808 - ^ =  $24 $T0 2812 - ^ = 
STACK WIN 4 198bd 17e 1d 0 1c 0 484 0 1 $T0 $ebp = $eip $T0 4 + ^ = $ebp $T0 ^ = $esp $T0 8 + = 
STACK WIN 4 198da 13e 0 0 1c 4 484 0 1 $T0 $ebp = $eip $T0 4 + ^ = $ebp $T0 ^ = $esp $T0 8 + =  $20 $T0 1160 - ^ = 
STACK WIN 4 19906 12f 0 0 1c 8 484 0 1 $T0 $ebp = $eip $T0 4 + ^ = $ebp $T0 ^ = $esp $T0 8 + =  $20 $T0 1160 - ^ =  $23 $T0 1164 - ^ = 
STACK WIN 4 19907 108 0 0 1c c 484 0 1 $T0 $ebp = $eip $T0 4 + ^ = $ebp $T0 ^ = $esp $T0 8 + =  $20 $T0 1160 - ^ =  $23 $T0 1164 - ^ =  $24 $T0 1168 - ^ = 
STACK WIN 4 19a9a 187 1d 0 1c 0 484 0 1 $T0 $ebp = $eip $T0 4 + ^ = $ebp $T0 ^ = $esp $T0 8 + = 
STACK WIN 4 19ab7 144 0 0 1c 4 484 0 1 $T0 $ebp = $eip $T0 4 + ^ = $ebp $T0 ^ = $esp $T0 8 + =  $20 $T0 1160 - ^ = 
STACK WIN 4 19ae3 135 0 0 1c 8 484 0 1 $T0 $ebp = $eip $T0 4 + ^ = $ebp $T0 ^ = $esp $T0 8 + =  $20 $T0 1160 - ^ =  $23 $T0 1164 - ^ = 
STACK WIN 4 19ae4 10e 0 0 1c c 484 0 1 $T0 $ebp = $eip $T0 4 + ^ = $ebp $T0 ^ = $esp $T0 8 + =  $20 $T0 1160 - ^ =  $23 $T0 1164 - ^ =  $24 $T0 1168 - ^ = 
STACK WIN 4 19c82 78 5 0 1c 0 0 0 1 $T0 $ebp = $eip $T0 4 + ^ = $ebp $T0 ^ = $esp $T0 8 + = 
STACK WIN 4 19ca3 55 0 0 1c 4 0 0 1 $T0 $ebp = $eip $T0 4 + ^ = $ebp $T0 ^ = $esp $T0 8 + =  $23 $T0 4 - ^ = 
STACK WIN 4 19d18 7a 5 0 1c 0 0 0 1 $T0 $ebp = $eip $T0 4 + ^ = $ebp $T0 ^ = $esp $T0 8 + = 
STACK WIN 4 19d39 57 0 0 1c 4 0 0 1 $T0 $ebp = $eip $T0 4 + ^ = $ebp $T0 ^ = $esp $T0 8 + =  $23 $T0 4 - ^ = 
STACK WIN 4 19db0 18 0 0 0 0 0 0 1 $T0 .raSearch = $eip $T0 ^ = $esp $T0 4 + = 
STACK WIN 4 19dce 19 0 0 0 0 0 0 1 $T0 .raSearch = $eip $T0 ^ = $esp $T0 4 + = 
STACK WIN 4 19ded d 0 0 0 0 0 0 1 $T0 .raSearch = $eip $T0 ^ = $esp $T0 4 + = 
STACK WIN 4 19dfd d 0 0 0 0 0 0 1 $T0 .raSearch = $eip $T0 ^ = $esp $T0 4 + = 
STACK WIN 4 19e0d 7d d 0 4 0 4 0 1 $T0 $ebp = $eip $T0 4 + ^ = $ebp $T0 ^ = $esp $T0 8 + = 
STACK WIN 4 19e14 72 6 0 4 4 4 0 1 $T0 $ebp = $eip $T0 4 + ^ = $ebp $T0 ^ = $esp $T0 8 + =  $23 $T0 8 - ^ = 
STACK WIN 4 19e18 6d 2 0 4 8 4 0 1 $T0 $ebp = $eip $T0 4 + ^ = $ebp $T0 ^ = $esp $T0 8 + =  $23 $T0 8 - ^ =  $24 $T0 12 - ^ = 
STACK WIN 4 19e32 52 0 0 4 c 4 0 1 $T0 $ebp = $eip $T0 4 + ^ = $ebp $T0 ^ = $esp $T0 8 + =  $23 $T0 8 - ^ =  $24 $T0 12 - ^ =  $20 $T0 16 - ^ = 
STACK WIN 4 19ea9 7e d 0 4 0 4 0 1 $T0 $ebp = $eip $T0 4 + ^ = $ebp $T0 ^ = $esp $T0 8 + = 
STACK WIN 4 19eb0 73 6 0 4 4 4 0 1 $T0 $ebp = $eip $T0 4 + ^ = $ebp $T0 ^ = $esp $T0 8 + =  $23 $T0 8 - ^ = 
STACK WIN 4 19eb4 6e 2 0 4 8 4 0 1 $T0 $ebp = $eip $T0 4 + ^ = $ebp $T0 ^ = $esp $T0 8 + =  $23 $T0 8 - ^ =  $24 $T0 12 - ^ = 
STACK WIN 4 19ece 53 0 0 4 c 4 0 1 $T0 $ebp = $eip $T0 4 + ^ = $ebp $T0 ^ = $esp $T0 8 + =  $23 $T0 8 - ^ =  $24 $T0 12 - ^ =  $20 $T0 16 - ^ = 
STACK WIN 4 19f46 79 5 0 4 0 0 0 1 $T0 $ebp = $eip $T0 4 + ^ = $ebp $T0 ^ = $esp $T0 8 + = 
STACK WIN 4 19fdd 79 5 0 4 0 0 0 1 $T0 $ebp = $eip $T0 4 + ^ = $ebp $T0 ^ = $esp $T0 8 + = 
STACK WIN 4 1a074 79 5 0 4 0 0 0 1 $T0 $ebp = $eip $T0 4 + ^ = $ebp $T0 ^ = $esp $T0 8 + = 
STACK WIN 4 1a10b 79 5 0 4 0 0 0 1 $T0 $ebp = $eip $T0 4 + ^ = $ebp $T0 ^ = $esp $T0 8 + = 
STACK WIN 4 1a1a2 1f 5 0 4 0 0 0 1 $T0 $ebp = $eip $T0 4 + ^ = $ebp $T0 ^ = $esp $T0 8 + = 
STACK WIN 4 1a1c8 1f 5 0 4 0 0 0 1 $T0 $ebp = $eip $T0 4 + ^ = $ebp $T0 ^ = $esp $T0 8 + = 
STACK WIN 4 1a1ee 1f 5 0 4 0 0 0 1 $T0 $ebp = $eip $T0 4 + ^ = $ebp $T0 ^ = $esp $T0 8 + = 
STACK WIN 4 1a214 1f 5 0 4 0 0 0 1 $T0 $ebp = $eip $T0 4 + ^ = $ebp $T0 ^ = $esp $T0 8 + = 
STACK WIN 4 1a23a 79 5 0 4 0 0 0 1 $T0 $ebp = $eip $T0 4 + ^ = $ebp $T0 ^ = $esp $T0 8 + = 
STACK WIN 4 1a2d1 79 5 0 4 0 0 0 1 $T0 $ebp = $eip $T0 4 + ^ = $ebp $T0 ^ = $esp $T0 8 + = 
STACK WIN 4 1a368 79 5 0 4 0 0 0 1 $T0 $ebp = $eip $T0 4 + ^ = $ebp $T0 ^ = $esp $T0 8 + = 
STACK WIN 4 1a3ff 79 5 0 4 0 0 0 1 $T0 $ebp = $eip $T0 4 + ^ = $ebp $T0 ^ = $esp $T0 8 + = 
STACK WIN 4 1a496 1f 5 0 4 0 0 0 1 $T0 $ebp = $eip $T0 4 + ^ = $ebp $T0 ^ = $esp $T0 8 + = 
STACK WIN 4 1a4bc 1f 5 0 4 0 0 0 1 $T0 $ebp = $eip $T0 4 + ^ = $ebp $T0 ^ = $esp $T0 8 + = 
STACK WIN 4 1a4e2 1f 5 0 4 0 0 0 1 $T0 $ebp = $eip $T0 4 + ^ = $ebp $T0 ^ = $esp $T0 8 + = 
STACK WIN 4 1a508 1f 5 0 4 0 0 0 1 $T0 $ebp = $eip $T0 4 + ^ = $ebp $T0 ^ = $esp $T0 8 + = 
STACK WIN 4 1a52e 79 5 0 4 0 0 0 1 $T0 $ebp = $eip $T0 4 + ^ = $ebp $T0 ^ = $esp $T0 8 + = 
STACK WIN 4 1a5c5 79 5 0 4 0 0 0 1 $T0 $ebp = $eip $T0 4 + ^ = $ebp $T0 ^ = $esp $T0 8 + = 
STACK WIN 4 1a65c 79 5 0 4 0 0 0 1 $T0 $ebp = $eip $T0 4 + ^ = $ebp $T0 ^ = $esp $T0 8 + = 
STACK WIN 4 1a6f3 79 5 0 4 0 0 0 1 $T0 $ebp = $eip $T0 4 + ^ = $ebp $T0 ^ = $esp $T0 8 + = 
STACK WIN 4 1a78a 1f 5 0 4 0 0 0 1 $T0 $ebp = $eip $T0 4 + ^ = $ebp $T0 ^ = $esp $T0 8 + = 
STACK WIN 4 1a7b0 1f 5 0 4 0 0 0 1 $T0 $ebp = $eip $T0 4 + ^ = $ebp $T0 ^ = $esp $T0 8 + = 
STACK WIN 4 1a7d6 1f 5 0 4 0 0 0 1 $T0 $ebp = $eip $T0 4 + ^ = $ebp $T0 ^ = $esp $T0 8 + = 
STACK WIN 4 1a7fc 1f 5 0 4 0 0 0 1 $T0 $ebp = $eip $T0 4 + ^ = $ebp $T0 ^ = $esp $T0 8 + = 
STACK WIN 4 1a822 78 5 0 4 0 0 0 1 $T0 $ebp = $eip $T0 4 + ^ = $ebp $T0 ^ = $esp $T0 8 + = 
STACK WIN 4 1a8b8 78 5 0 4 0 0 0 1 $T0 $ebp = $eip $T0 4 + ^ = $ebp $T0 ^ = $esp $T0 8 + = 
STACK WIN 4 1a94e 1a 5 0 4 0 0 0 1 $T0 $ebp = $eip $T0 4 + ^ = $ebp $T0 ^ = $esp $T0 8 + = 
STACK WIN 4 1a96e 1a 5 0 4 0 0 0 1 $T0 $ebp = $eip $T0 4 + ^ = $ebp $T0 ^ = $esp $T0 8 + = 
STACK WIN 4 1a98e 79 5 0 4 0 0 0 1 $T0 $ebp = $eip $T0 4 + ^ = $ebp $T0 ^ = $esp $T0 8 + = 
STACK WIN 4 1aa25 79 5 0 4 0 0 0 1 $T0 $ebp = $eip $T0 4 + ^ = $ebp $T0 ^ = $esp $T0 8 + = 
STACK WIN 4 1aabc 79 5 0 4 0 0 0 1 $T0 $ebp = $eip $T0 4 + ^ = $ebp $T0 ^ = $esp $T0 8 + = 
STACK WIN 4 1ab53 79 5 0 4 0 0 0 1 $T0 $ebp = $eip $T0 4 + ^ = $ebp $T0 ^ = $esp $T0 8 + = 
STACK WIN 4 1abea 1f 5 0 4 0 0 0 1 $T0 $ebp = $eip $T0 4 + ^ = $ebp $T0 ^ = $esp $T0 8 + = 
STACK WIN 4 1ac10 1f 5 0 4 0 0 0 1 $T0 $ebp = $eip $T0 4 + ^ = $ebp $T0 ^ = $esp $T0 8 + = 
STACK WIN 4 1ac36 1f 5 0 4 0 0 0 1 $T0 $ebp = $eip $T0 4 + ^ = $ebp $T0 ^ = $esp $T0 8 + = 
STACK WIN 4 1ac5c 1f 5 0 4 0 0 0 1 $T0 $ebp = $eip $T0 4 + ^ = $ebp $T0 ^ = $esp $T0 8 + = 
STACK WIN 4 1ac82 77 5 0 4 0 0 0 1 $T0 $ebp = $eip $T0 4 + ^ = $ebp $T0 ^ = $esp $T0 8 + = 
STACK WIN 4 1ad16 77 5 0 4 0 0 0 1 $T0 $ebp = $eip $T0 4 + ^ = $ebp $T0 ^ = $esp $T0 8 + = 
STACK WIN 4 1adaa 77 5 0 4 0 0 0 1 $T0 $ebp = $eip $T0 4 + ^ = $ebp $T0 ^ = $esp $T0 8 + = 
STACK WIN 4 1ae3e 77 5 0 4 0 0 0 1 $T0 $ebp = $eip $T0 4 + ^ = $ebp $T0 ^ = $esp $T0 8 + = 
STACK WIN 4 1aed2 1e 5 0 4 0 0 0 1 $T0 $ebp = $eip $T0 4 + ^ = $ebp $T0 ^ = $esp $T0 8 + = 
STACK WIN 4 1aef7 1e 5 0 4 0 0 0 1 $T0 $ebp = $eip $T0 4 + ^ = $ebp $T0 ^ = $esp $T0 8 + = 
STACK WIN 4 1af1c 1e 5 0 4 0 0 0 1 $T0 $ebp = $eip $T0 4 + ^ = $ebp $T0 ^ = $esp $T0 8 + = 
STACK WIN 4 1af41 1e 5 0 4 0 0 0 1 $T0 $ebp = $eip $T0 4 + ^ = $ebp $T0 ^ = $esp $T0 8 + = 
STACK WIN 4 1af66 80 5 0 4 0 0 0 1 $T0 $ebp = $eip $T0 4 + ^ = $ebp $T0 ^ = $esp $T0 8 + = 
STACK WIN 4 1b006 80 5 0 4 0 0 0 1 $T0 $ebp = $eip $T0 4 + ^ = $ebp $T0 ^ = $esp $T0 8 + = 
STACK WIN 4 1b0a6 80 5 0 4 0 0 0 1 $T0 $ebp = $eip $T0 4 + ^ = $ebp $T0 ^ = $esp $T0 8 + = 
STACK WIN 4 1b146 80 5 0 4 0 0 0 1 $T0 $ebp = $eip $T0 4 + ^ = $ebp $T0 ^ = $esp $T0 8 + = 
STACK WIN 4 1b1e6 1e 5 0 4 0 0 0 1 $T0 $ebp = $eip $T0 4 + ^ = $ebp $T0 ^ = $esp $T0 8 + = 
STACK WIN 4 1b20b 1e 5 0 4 0 0 0 1 $T0 $ebp = $eip $T0 4 + ^ = $ebp $T0 ^ = $esp $T0 8 + = 
STACK WIN 4 1b230 1e 5 0 4 0 0 0 1 $T0 $ebp = $eip $T0 4 + ^ = $ebp $T0 ^ = $esp $T0 8 + = 
STACK WIN 4 1b255 1e 5 0 4 0 0 0 1 $T0 $ebp = $eip $T0 4 + ^ = $ebp $T0 ^ = $esp $T0 8 + = 
STACK WIN 4 1b27a 78 5 0 4 0 0 0 1 $T0 $ebp = $eip $T0 4 + ^ = $ebp $T0 ^ = $esp $T0 8 + = 
STACK WIN 4 1b310 78 5 0 4 0 0 0 1 $T0 $ebp = $eip $T0 4 + ^ = $ebp $T0 ^ = $esp $T0 8 + = 
STACK WIN 4 1b3a6 78 5 0 4 0 0 0 1 $T0 $ebp = $eip $T0 4 + ^ = $ebp $T0 ^ = $esp $T0 8 + = 
STACK WIN 4 1b43c 78 5 0 4 0 0 0 1 $T0 $ebp = $eip $T0 4 + ^ = $ebp $T0 ^ = $esp $T0 8 + = 
STACK WIN 4 1b4d2 1a 5 0 4 0 0 0 1 $T0 $ebp = $eip $T0 4 + ^ = $ebp $T0 ^ = $esp $T0 8 + = 
STACK WIN 4 1b4f2 1a 5 0 4 0 0 0 1 $T0 $ebp = $eip $T0 4 + ^ = $ebp $T0 ^ = $esp $T0 8 + = 
STACK WIN 4 1b512 1a 5 0 4 0 0 0 1 $T0 $ebp = $eip $T0 4 + ^ = $ebp $T0 ^ = $esp $T0 8 + = 
STACK WIN 4 1b532 1a 5 0 4 0 0 0 1 $T0 $ebp = $eip $T0 4 + ^ = $ebp $T0 ^ = $esp $T0 8 + = 
STACK WIN 4 1b552 1a 5 0 4 0 0 0 1 $T0 $ebp = $eip $T0 4 + ^ = $ebp $T0 ^ = $esp $T0 8 + = 
STACK WIN 4 1b572 78 5 0 4 0 0 0 1 $T0 $ebp = $eip $T0 4 + ^ = $ebp $T0 ^ = $esp $T0 8 + = 
STACK WIN 4 1b608 1a 5 0 4 0 0 0 1 $T0 $ebp = $eip $T0 4 + ^ = $ebp $T0 ^ = $esp $T0 8 + = 
STACK WIN 4 1b628 1a 5 0 4 0 0 0 1 $T0 $ebp = $eip $T0 4 + ^ = $ebp $T0 ^ = $esp $T0 8 + = 
STACK WIN 4 1b648 1a 5 0 4 0 0 0 1 $T0 $ebp = $eip $T0 4 + ^ = $ebp $T0 ^ = $esp $T0 8 + = 
STACK WIN 4 1b668 78 5 0 4 0 0 0 1 $T0 $ebp = $eip $T0 4 + ^ = $ebp $T0 ^ = $esp $T0 8 + = 
STACK WIN 4 1b6fe 1a 5 0 4 0 0 0 1 $T0 $ebp = $eip $T0 4 + ^ = $ebp $T0 ^ = $esp $T0 8 + = 
STACK WIN 4 1b71e 1a 5 0 4 0 0 0 1 $T0 $ebp = $eip $T0 4 + ^ = $ebp $T0 ^ = $esp $T0 8 + = 
STACK WIN 4 1b73e 1a 5 0 4 0 0 0 1 $T0 $ebp = $eip $T0 4 + ^ = $ebp $T0 ^ = $esp $T0 8 + = 
STACK WIN 4 1b75e 78 5 0 4 0 0 0 1 $T0 $ebp = $eip $T0 4 + ^ = $ebp $T0 ^ = $esp $T0 8 + = 
STACK WIN 4 1b7f4 1a 5 0 4 0 0 0 1 $T0 $ebp = $eip $T0 4 + ^ = $ebp $T0 ^ = $esp $T0 8 + = 
STACK WIN 4 1b814 1a 5 0 4 0 0 0 1 $T0 $ebp = $eip $T0 4 + ^ = $ebp $T0 ^ = $esp $T0 8 + = 
STACK WIN 4 1b834 1a 5 0 4 0 0 0 1 $T0 $ebp = $eip $T0 4 + ^ = $ebp $T0 ^ = $esp $T0 8 + = 
STACK WIN 4 1b854 78 5 0 4 0 0 0 1 $T0 $ebp = $eip $T0 4 + ^ = $ebp $T0 ^ = $esp $T0 8 + = 
STACK WIN 4 1b8ea 1a 5 0 4 0 0 0 1 $T0 $ebp = $eip $T0 4 + ^ = $ebp $T0 ^ = $esp $T0 8 + = 
STACK WIN 4 1b90a 1a 5 0 4 0 0 0 1 $T0 $ebp = $eip $T0 4 + ^ = $ebp $T0 ^ = $esp $T0 8 + = 
STACK WIN 4 1b92a 78 5 0 4 0 0 0 1 $T0 $ebp = $eip $T0 4 + ^ = $ebp $T0 ^ = $esp $T0 8 + = 
STACK WIN 4 1b9c0 78 5 0 4 0 0 0 1 $T0 $ebp = $eip $T0 4 + ^ = $ebp $T0 ^ = $esp $T0 8 + = 
STACK WIN 4 1ba56 78 5 0 4 0 0 0 1 $T0 $ebp = $eip $T0 4 + ^ = $ebp $T0 ^ = $esp $T0 8 + = 
STACK WIN 4 1baec 78 5 0 4 0 0 0 1 $T0 $ebp = $eip $T0 4 + ^ = $ebp $T0 ^ = $esp $T0 8 + = 
STACK WIN 4 1bb82 1a 5 0 4 0 0 0 1 $T0 $ebp = $eip $T0 4 + ^ = $ebp $T0 ^ = $esp $T0 8 + = 
STACK WIN 4 1bba2 1a 5 0 4 0 0 0 1 $T0 $ebp = $eip $T0 4 + ^ = $ebp $T0 ^ = $esp $T0 8 + = 
STACK WIN 4 1bbc2 1a 5 0 4 0 0 0 1 $T0 $ebp = $eip $T0 4 + ^ = $ebp $T0 ^ = $esp $T0 8 + = 
STACK WIN 4 1bbe2 1a 5 0 4 0 0 0 1 $T0 $ebp = $eip $T0 4 + ^ = $ebp $T0 ^ = $esp $T0 8 + = 
STACK WIN 4 1bc02 86 5 0 4 0 0 0 1 $T0 $ebp = $eip $T0 4 + ^ = $ebp $T0 ^ = $esp $T0 8 + = 
STACK WIN 4 1bc18 f 0 0 4 4 0 0 1 $T0 $ebp = $eip $T0 4 + ^ = $ebp $T0 ^ = $esp $T0 8 + =  $23 $T0 4 - ^ = 
STACK WIN 4 1bca9 86 5 0 4 0 0 0 1 $T0 $ebp = $eip $T0 4 + ^ = $ebp $T0 ^ = $esp $T0 8 + = 
STACK WIN 4 1bcbf f 0 0 4 4 0 0 1 $T0 $ebp = $eip $T0 4 + ^ = $ebp $T0 ^ = $esp $T0 8 + =  $23 $T0 4 - ^ = 
STACK WIN 4 1bd50 86 5 0 4 0 0 0 1 $T0 $ebp = $eip $T0 4 + ^ = $ebp $T0 ^ = $esp $T0 8 + = 
STACK WIN 4 1bd66 f 0 0 4 4 0 0 1 $T0 $ebp = $eip $T0 4 + ^ = $ebp $T0 ^ = $esp $T0 8 + =  $23 $T0 4 - ^ = 
STACK WIN 4 1bdf7 86 5 0 4 0 0 0 1 $T0 $ebp = $eip $T0 4 + ^ = $ebp $T0 ^ = $esp $T0 8 + = 
STACK WIN 4 1be0d f 0 0 4 4 0 0 1 $T0 $ebp = $eip $T0 4 + ^ = $ebp $T0 ^ = $esp $T0 8 + =  $23 $T0 4 - ^ = 
STACK WIN 4 1be9e 20 5 0 4 0 0 0 1 $T0 $ebp = $eip $T0 4 + ^ = $ebp $T0 ^ = $esp $T0 8 + = 
STACK WIN 4 1bec6 20 5 0 4 0 0 0 1 $T0 $ebp = $eip $T0 4 + ^ = $ebp $T0 ^ = $esp $T0 8 + = 
STACK WIN 4 1beee 20 5 0 4 0 0 0 1 $T0 $ebp = $eip $T0 4 + ^ = $ebp $T0 ^ = $esp $T0 8 + = 
STACK WIN 4 1bf16 20 5 0 4 0 0 0 1 $T0 $ebp = $eip $T0 4 + ^ = $ebp $T0 ^ = $esp $T0 8 + = 
STACK WIN 4 1bf3e 86 5 0 4 0 0 0 1 $T0 $ebp = $eip $T0 4 + ^ = $ebp $T0 ^ = $esp $T0 8 + = 
STACK WIN 4 1bf54 f 0 0 4 4 0 0 1 $T0 $ebp = $eip $T0 4 + ^ = $ebp $T0 ^ = $esp $T0 8 + =  $23 $T0 4 - ^ = 
STACK WIN 4 1bfe5 86 5 0 4 0 0 0 1 $T0 $ebp = $eip $T0 4 + ^ = $ebp $T0 ^ = $esp $T0 8 + = 
STACK WIN 4 1bffb f 0 0 4 4 0 0 1 $T0 $ebp = $eip $T0 4 + ^ = $ebp $T0 ^ = $esp $T0 8 + =  $23 $T0 4 - ^ = 
STACK WIN 4 1c08c 86 5 0 4 0 0 0 1 $T0 $ebp = $eip $T0 4 + ^ = $ebp $T0 ^ = $esp $T0 8 + = 
STACK WIN 4 1c0a2 f 0 0 4 4 0 0 1 $T0 $ebp = $eip $T0 4 + ^ = $ebp $T0 ^ = $esp $T0 8 + =  $23 $T0 4 - ^ = 
STACK WIN 4 1c133 86 5 0 4 0 0 0 1 $T0 $ebp = $eip $T0 4 + ^ = $ebp $T0 ^ = $esp $T0 8 + = 
STACK WIN 4 1c149 f 0 0 4 4 0 0 1 $T0 $ebp = $eip $T0 4 + ^ = $ebp $T0 ^ = $esp $T0 8 + =  $23 $T0 4 - ^ = 
STACK WIN 4 1c1da 20 5 0 4 0 0 0 1 $T0 $ebp = $eip $T0 4 + ^ = $ebp $T0 ^ = $esp $T0 8 + = 
STACK WIN 4 1c202 20 5 0 4 0 0 0 1 $T0 $ebp = $eip $T0 4 + ^ = $ebp $T0 ^ = $esp $T0 8 + = 
STACK WIN 4 1c22a 20 5 0 4 0 0 0 1 $T0 $ebp = $eip $T0 4 + ^ = $ebp $T0 ^ = $esp $T0 8 + = 
STACK WIN 4 1c252 20 5 0 4 0 0 0 1 $T0 $ebp = $eip $T0 4 + ^ = $ebp $T0 ^ = $esp $T0 8 + = 
STACK WIN 4 1c27a 86 5 0 4 0 0 0 1 $T0 $ebp = $eip $T0 4 + ^ = $ebp $T0 ^ = $esp $T0 8 + = 
STACK WIN 4 1c290 f 0 0 4 4 0 0 1 $T0 $ebp = $eip $T0 4 + ^ = $ebp $T0 ^ = $esp $T0 8 + =  $23 $T0 4 - ^ = 
STACK WIN 4 1c321 86 5 0 4 0 0 0 1 $T0 $ebp = $eip $T0 4 + ^ = $ebp $T0 ^ = $esp $T0 8 + = 
STACK WIN 4 1c337 f 0 0 4 4 0 0 1 $T0 $ebp = $eip $T0 4 + ^ = $ebp $T0 ^ = $esp $T0 8 + =  $23 $T0 4 - ^ = 
STACK WIN 4 1c3c8 86 5 0 4 0 0 0 1 $T0 $ebp = $eip $T0 4 + ^ = $ebp $T0 ^ = $esp $T0 8 + = 
STACK WIN 4 1c3de f 0 0 4 4 0 0 1 $T0 $ebp = $eip $T0 4 + ^ = $ebp $T0 ^ = $esp $T0 8 + =  $23 $T0 4 - ^ = 
STACK WIN 4 1c46f 86 5 0 4 0 0 0 1 $T0 $ebp = $eip $T0 4 + ^ = $ebp $T0 ^ = $esp $T0 8 + = 
STACK WIN 4 1c485 f 0 0 4 4 0 0 1 $T0 $ebp = $eip $T0 4 + ^ = $ebp $T0 ^ = $esp $T0 8 + =  $23 $T0 4 - ^ = 
STACK WIN 4 1c516 20 5 0 4 0 0 0 1 $T0 $ebp = $eip $T0 4 + ^ = $ebp $T0 ^ = $esp $T0 8 + = 
STACK WIN 4 1c53e 20 5 0 4 0 0 0 1 $T0 $ebp = $eip $T0 4 + ^ = $ebp $T0 ^ = $esp $T0 8 + = 
STACK WIN 4 1c566 20 5 0 4 0 0 0 1 $T0 $ebp = $eip $T0 4 + ^ = $ebp $T0 ^ = $esp $T0 8 + = 
STACK WIN 4 1c58e 20 5 0 4 0 0 0 1 $T0 $ebp = $eip $T0 4 + ^ = $ebp $T0 ^ = $esp $T0 8 + = 
STACK WIN 4 1c5b6 7c 5 0 4 0 0 0 1 $T0 $ebp = $eip $T0 4 + ^ = $ebp $T0 ^ = $esp $T0 8 + = 
STACK WIN 4 1c651 7c 5 0 4 0 0 0 1 $T0 $ebp = $eip $T0 4 + ^ = $ebp $T0 ^ = $esp $T0 8 + = 
STACK WIN 4 1c6ec 7c 5 0 4 0 0 0 1 $T0 $ebp = $eip $T0 4 + ^ = $ebp $T0 ^ = $esp $T0 8 + = 
STACK WIN 4 1c787 7c 5 0 4 0 0 0 1 $T0 $ebp = $eip $T0 4 + ^ = $ebp $T0 ^ = $esp $T0 8 + = 
STACK WIN 4 1c822 1c 5 0 4 0 0 0 1 $T0 $ebp = $eip $T0 4 + ^ = $ebp $T0 ^ = $esp $T0 8 + = 
STACK WIN 4 1c845 1c 5 0 4 0 0 0 1 $T0 $ebp = $eip $T0 4 + ^ = $ebp $T0 ^ = $esp $T0 8 + = 
STACK WIN 4 1c868 1c 5 0 4 0 0 0 1 $T0 $ebp = $eip $T0 4 + ^ = $ebp $T0 ^ = $esp $T0 8 + = 
STACK WIN 4 1c88b 1c 5 0 4 0 0 0 1 $T0 $ebp = $eip $T0 4 + ^ = $ebp $T0 ^ = $esp $T0 8 + = 
STACK WIN 4 1c8ae 4 0 0 4 0 0 0 1 $T0 .raSearch = $eip $T0 ^ = $esp $T0 4 + = 
STACK WIN 4 1c8b2 4 0 0 4 0 0 0 1 $T0 .raSearch = $eip $T0 ^ = $esp $T0 4 + = 
STACK WIN 4 1c8b6 4 0 0 4 0 0 0 1 $T0 .raSearch = $eip $T0 ^ = $esp $T0 4 + = 
STACK WIN 4 1c8ba 4 0 0 4 0 0 0 1 $T0 .raSearch = $eip $T0 ^ = $esp $T0 4 + = 
STACK WIN 4 1c8be 4 0 0 4 0 0 0 1 $T0 .raSearch = $eip $T0 ^ = $esp $T0 4 + = 
STACK WIN 4 1c8c2 4 0 0 4 0 0 0 1 $T0 .raSearch = $eip $T0 ^ = $esp $T0 4 + = 
STACK WIN 4 1c8c6 4 0 0 4 0 0 0 1 $T0 .raSearch = $eip $T0 ^ = $esp $T0 4 + = 
STACK WIN 4 1c8ca 4 0 0 4 0 0 0 1 $T0 .raSearch = $eip $T0 ^ = $esp $T0 4 + = 
STACK WIN 4 1c8ce 4 0 0 4 0 0 0 1 $T0 .raSearch = $eip $T0 ^ = $esp $T0 4 + = 
STACK WIN 4 1c8d2 4 0 0 4 0 0 0 1 $T0 .raSearch = $eip $T0 ^ = $esp $T0 4 + = 
STACK WIN 4 1c8d6 4 0 0 4 0 0 0 1 $T0 .raSearch = $eip $T0 ^ = $esp $T0 4 + = 
STACK WIN 4 1c8da 4 0 0 4 0 0 0 1 $T0 .raSearch = $eip $T0 ^ = $esp $T0 4 + = 
STACK WIN 4 1c8de 18 5 0 4 0 0 0 1 $T0 $ebp = $eip $T0 4 + ^ = $ebp $T0 ^ = $esp $T0 8 + = 
STACK WIN 4 1c8fc 18 5 0 4 0 0 0 1 $T0 $ebp = $eip $T0 4 + ^ = $ebp $T0 ^ = $esp $T0 8 + = 
STACK WIN 4 1c91a 1b 5 0 4 0 0 0 1 $T0 $ebp = $eip $T0 4 + ^ = $ebp $T0 ^ = $esp $T0 8 + = 
STACK WIN 4 1c93b 1b 5 0 4 0 0 0 1 $T0 $ebp = $eip $T0 4 + ^ = $ebp $T0 ^ = $esp $T0 8 + = 
STACK WIN 4 1c95c 2c 5 0 4 0 0 0 1 $T0 $ebp = $eip $T0 4 + ^ = $ebp $T0 ^ = $esp $T0 8 + = 
STACK WIN 4 1c993 2c 5 0 4 0 0 0 1 $T0 $ebp = $eip $T0 4 + ^ = $ebp $T0 ^ = $esp $T0 8 + = 
STACK WIN 4 1c9ca 3b 5 0 4 0 0 0 1 $T0 $ebp = $eip $T0 4 + ^ = $ebp $T0 ^ = $esp $T0 8 + = 
STACK WIN 4 1ca13 3b 5 0 4 0 0 0 1 $T0 $ebp = $eip $T0 4 + ^ = $ebp $T0 ^ = $esp $T0 8 + = 
STACK WIN 4 1ca5c e 5 0 4 0 0 0 1 $T0 $ebp = $eip $T0 4 + ^ = $ebp $T0 ^ = $esp $T0 8 + = 
STACK WIN 4 1ca6d e 5 0 4 0 0 0 1 $T0 $ebp = $eip $T0 4 + ^ = $ebp $T0 ^ = $esp $T0 8 + = 
STACK WIN 4 1ca7e f 5 0 4 0 0 0 1 $T0 $ebp = $eip $T0 4 + ^ = $ebp $T0 ^ = $esp $T0 8 + = 
STACK WIN 4 1ca90 f 5 0 4 0 0 0 1 $T0 $ebp = $eip $T0 4 + ^ = $ebp $T0 ^ = $esp $T0 8 + = 
STACK WIN 4 1caa2 18 5 0 4 0 0 0 1 $T0 $ebp = $eip $T0 4 + ^ = $ebp $T0 ^ = $esp $T0 8 + = 
STACK WIN 4 1cac0 18 5 0 4 0 0 0 1 $T0 $ebp = $eip $T0 4 + ^ = $ebp $T0 ^ = $esp $T0 8 + = 
STACK WIN 4 1cade 1b 5 0 4 0 0 0 1 $T0 $ebp = $eip $T0 4 + ^ = $ebp $T0 ^ = $esp $T0 8 + = 
STACK WIN 4 1caff 1b 5 0 4 0 0 0 1 $T0 $ebp = $eip $T0 4 + ^ = $ebp $T0 ^ = $esp $T0 8 + = 
STACK WIN 4 1cb20 31 5 0 10 0 0 0 1 $T0 $ebp = $eip $T0 4 + ^ = $ebp $T0 ^ = $esp $T0 8 + = 
STACK WIN 4 1cb5d 4e 5 0 10 0 0 0 1 $T0 $ebp = $eip $T0 4 + ^ = $ebp $T0 ^ = $esp $T0 8 + = 
STACK WIN 4 1cbbe c 5 0 4 0 0 0 1 $T0 $ebp = $eip $T0 4 + ^ = $ebp $T0 ^ = $esp $T0 8 + = 
STACK WIN 4 1cbcd c 5 0 4 0 0 0 1 $T0 $ebp = $eip $T0 4 + ^ = $ebp $T0 ^ = $esp $T0 8 + = 
STACK WIN 4 1cbdc d 5 0 4 0 0 0 1 $T0 $ebp = $eip $T0 4 + ^ = $ebp $T0 ^ = $esp $T0 8 + = 
STACK WIN 4 1cbec d 5 0 4 0 0 0 1 $T0 $ebp = $eip $T0 4 + ^ = $ebp $T0 ^ = $esp $T0 8 + = 
STACK WIN 4 1cbfc c 5 0 4 0 0 0 1 $T0 $ebp = $eip $T0 4 + ^ = $ebp $T0 ^ = $esp $T0 8 + = 
STACK WIN 4 1cc0b c 5 0 4 0 0 0 1 $T0 $ebp = $eip $T0 4 + ^ = $ebp $T0 ^ = $esp $T0 8 + = 
STACK WIN 4 1cc1a c 5 0 4 0 0 0 1 $T0 $ebp = $eip $T0 4 + ^ = $ebp $T0 ^ = $esp $T0 8 + = 
STACK WIN 4 1cc29 c 5 0 4 0 0 0 1 $T0 $ebp = $eip $T0 4 + ^ = $ebp $T0 ^ = $esp $T0 8 + = 
STACK WIN 4 1cc38 c 5 0 4 0 0 0 1 $T0 $ebp = $eip $T0 4 + ^ = $ebp $T0 ^ = $esp $T0 8 + = 
STACK WIN 4 1cc47 c 5 0 4 0 0 0 1 $T0 $ebp = $eip $T0 4 + ^ = $ebp $T0 ^ = $esp $T0 8 + = 
STACK WIN 4 1cc56 c 5 0 4 0 0 0 1 $T0 $ebp = $eip $T0 4 + ^ = $ebp $T0 ^ = $esp $T0 8 + = 
STACK WIN 4 1cc65 c 5 0 4 0 0 0 1 $T0 $ebp = $eip $T0 4 + ^ = $ebp $T0 ^ = $esp $T0 8 + = 
STACK WIN 4 1cc74 f 5 0 4 0 0 0 1 $T0 $ebp = $eip $T0 4 + ^ = $ebp $T0 ^ = $esp $T0 8 + = 
STACK WIN 4 1cc86 f 5 0 4 0 0 0 1 $T0 $ebp = $eip $T0 4 + ^ = $ebp $T0 ^ = $esp $T0 8 + = 
STACK WIN 4 1cc98 f 5 0 4 0 0 0 1 $T0 $ebp = $eip $T0 4 + ^ = $ebp $T0 ^ = $esp $T0 8 + = 
STACK WIN 4 1ccaa d 5 0 4 0 0 0 1 $T0 $ebp = $eip $T0 4 + ^ = $ebp $T0 ^ = $esp $T0 8 + = 
STACK WIN 4 1ccba 1a 5 0 8 0 0 0 1 $T0 $ebp = $eip $T0 4 + ^ = $ebp $T0 ^ = $esp $T0 8 + = 
STACK WIN 4 1ccda 1a 5 0 8 0 0 0 1 $T0 $ebp = $eip $T0 4 + ^ = $ebp $T0 ^ = $esp $T0 8 + = 
STACK WIN 4 1ccfa 12 5 0 4 0 0 0 1 $T0 $ebp = $eip $T0 4 + ^ = $ebp $T0 ^ = $esp $T0 8 + = 
STACK WIN 4 1cd10 12 5 0 4 0 0 0 1 $T0 $ebp = $eip $T0 4 + ^ = $ebp $T0 ^ = $esp $T0 8 + = 
STACK WIN 4 1cd26 13 5 0 4 0 0 0 1 $T0 $ebp = $eip $T0 4 + ^ = $ebp $T0 ^ = $esp $T0 8 + = 
STACK WIN 4 1cd3d 13 5 0 4 0 0 0 1 $T0 $ebp = $eip $T0 4 + ^ = $ebp $T0 ^ = $esp $T0 8 + = 
STACK WIN 4 1cd54 12 5 0 4 0 0 0 1 $T0 $ebp = $eip $T0 4 + ^ = $ebp $T0 ^ = $esp $T0 8 + = 
STACK WIN 4 1cd6a 12 5 0 4 0 0 0 1 $T0 $ebp = $eip $T0 4 + ^ = $ebp $T0 ^ = $esp $T0 8 + = 
STACK WIN 4 1cd80 12 5 0 4 0 0 0 1 $T0 $ebp = $eip $T0 4 + ^ = $ebp $T0 ^ = $esp $T0 8 + = 
STACK WIN 4 1cd96 12 5 0 4 0 0 0 1 $T0 $ebp = $eip $T0 4 + ^ = $ebp $T0 ^ = $esp $T0 8 + = 
STACK WIN 4 1cdac 12 5 0 4 0 0 0 1 $T0 $ebp = $eip $T0 4 + ^ = $ebp $T0 ^ = $esp $T0 8 + = 
STACK WIN 4 1cdc2 12 5 0 4 0 0 0 1 $T0 $ebp = $eip $T0 4 + ^ = $ebp $T0 ^ = $esp $T0 8 + = 
STACK WIN 4 1cdd8 12 5 0 4 0 0 0 1 $T0 $ebp = $eip $T0 4 + ^ = $ebp $T0 ^ = $esp $T0 8 + = 
STACK WIN 4 1cdee 12 5 0 4 0 0 0 1 $T0 $ebp = $eip $T0 4 + ^ = $ebp $T0 ^ = $esp $T0 8 + = 
STACK WIN 4 1ce04 12 5 0 4 0 0 0 1 $T0 $ebp = $eip $T0 4 + ^ = $ebp $T0 ^ = $esp $T0 8 + = 
STACK WIN 4 1ce1a 12 5 0 4 0 0 0 1 $T0 $ebp = $eip $T0 4 + ^ = $ebp $T0 ^ = $esp $T0 8 + = 
STACK WIN 4 1ce30 12 5 0 4 0 0 0 1 $T0 $ebp = $eip $T0 4 + ^ = $ebp $T0 ^ = $esp $T0 8 + = 
STACK WIN 4 1ce46 12 5 0 4 0 0 0 1 $T0 $ebp = $eip $T0 4 + ^ = $ebp $T0 ^ = $esp $T0 8 + = 
STACK WIN 4 1ce5c 12 5 0 4 0 0 0 1 $T0 $ebp = $eip $T0 4 + ^ = $ebp $T0 ^ = $esp $T0 8 + = 
STACK WIN 4 1ce72 12 5 0 4 0 0 0 1 $T0 $ebp = $eip $T0 4 + ^ = $ebp $T0 ^ = $esp $T0 8 + = 
STACK WIN 4 1ce88 12 5 0 4 0 0 0 1 $T0 $ebp = $eip $T0 4 + ^ = $ebp $T0 ^ = $esp $T0 8 + = 
STACK WIN 4 1ce9e 12 5 0 4 0 0 0 1 $T0 $ebp = $eip $T0 4 + ^ = $ebp $T0 ^ = $esp $T0 8 + = 
STACK WIN 4 1ceb4 16 5 0 4 0 0 0 1 $T0 $ebp = $eip $T0 4 + ^ = $ebp $T0 ^ = $esp $T0 8 + = 
STACK WIN 4 1cecf 15 5 0 4 0 0 0 1 $T0 $ebp = $eip $T0 4 + ^ = $ebp $T0 ^ = $esp $T0 8 + = 
STACK WIN 4 1cee9 15 5 0 4 0 0 0 1 $T0 $ebp = $eip $T0 4 + ^ = $ebp $T0 ^ = $esp $T0 8 + = 
STACK WIN 4 1cf03 13 5 0 4 0 0 0 1 $T0 $ebp = $eip $T0 4 + ^ = $ebp $T0 ^ = $esp $T0 8 + = 
STACK WIN 4 1cf1a 5 0 0 0 0 0 0 1 $T0 .raSearch = $eip $T0 ^ = $esp $T0 4 + = 
STACK WIN 4 1cf1f 1e 5 0 0 0 0 0 1 $T0 .raSearch = $eip $T0 ^ = $esp $T0 4 + = 
STACK WIN 4 1cf22 1a 2 0 0 4 0 0 1 $T0 .raSearch = $eip $T0 ^ = $esp $T0 4 + =  $23 $T0 4 - ^ = 
STACK WIN 4 1cf25 16 0 0 0 8 0 0 1 $T0 .raSearch = $eip $T0 ^ = $esp $T0 4 + =  $23 $T0 4 - ^ =  $24 $T0 8 - ^ = 
STACK WIN 4 1cf44 1e 5 0 c 0 0 0 1 $T0 $ebp = $eip $T0 4 + ^ = $ebp $T0 ^ = $esp $T0 8 + = 
STACK WIN 4 1cf69 1e 5 0 c 0 0 0 1 $T0 $ebp = $eip $T0 4 + ^ = $ebp $T0 ^ = $esp $T0 8 + = 
STACK WIN 4 1cf8e 1e 5 0 c 0 0 0 1 $T0 $ebp = $eip $T0 4 + ^ = $ebp $T0 ^ = $esp $T0 8 + = 
STACK WIN 4 1cfb3 1e 5 0 c 0 0 0 1 $T0 $ebp = $eip $T0 4 + ^ = $ebp $T0 ^ = $esp $T0 8 + = 
STACK WIN 4 1cfd8 73 9 0 c 0 0 0 1 $T0 $ebp = $eip $T0 4 + ^ = $ebp $T0 ^ = $esp $T0 8 + = 
STACK WIN 4 1cfde 69 3 0 c 4 0 0 1 $T0 $ebp = $eip $T0 4 + ^ = $ebp $T0 ^ = $esp $T0 8 + =  $20 $T0 4 - ^ = 
STACK WIN 4 1cfdf 67 2 0 c 8 0 0 1 $T0 $ebp = $eip $T0 4 + ^ = $ebp $T0 ^ = $esp $T0 8 + =  $20 $T0 4 - ^ =  $23 $T0 8 - ^ = 
STACK WIN 4 1cfe2 63 0 0 c c 0 0 1 $T0 $ebp = $eip $T0 4 + ^ = $ebp $T0 ^ = $esp $T0 8 + =  $20 $T0 4 - ^ =  $23 $T0 8 - ^ =  $24 $T0 12 - ^ = 
STACK WIN 4 1d067 73 9 0 c 0 0 0 1 $T0 $ebp = $eip $T0 4 + ^ = $ebp $T0 ^ = $esp $T0 8 + = 
STACK WIN 4 1d06d 69 3 0 c 4 0 0 1 $T0 $ebp = $eip $T0 4 + ^ = $ebp $T0 ^ = $esp $T0 8 + =  $20 $T0 4 - ^ = 
STACK WIN 4 1d06e 67 2 0 c 8 0 0 1 $T0 $ebp = $eip $T0 4 + ^ = $ebp $T0 ^ = $esp $T0 8 + =  $20 $T0 4 - ^ =  $23 $T0 8 - ^ = 
STACK WIN 4 1d071 63 0 0 c c 0 0 1 $T0 $ebp = $eip $T0 4 + ^ = $ebp $T0 ^ = $esp $T0 8 + =  $20 $T0 4 - ^ =  $23 $T0 8 - ^ =  $24 $T0 12 - ^ = 
STACK WIN 4 1d0f6 73 9 0 c 0 0 0 1 $T0 $ebp = $eip $T0 4 + ^ = $ebp $T0 ^ = $esp $T0 8 + = 
STACK WIN 4 1d0fc 69 3 0 c 4 0 0 1 $T0 $ebp = $eip $T0 4 + ^ = $ebp $T0 ^ = $esp $T0 8 + =  $20 $T0 4 - ^ = 
STACK WIN 4 1d0fd 67 2 0 c 8 0 0 1 $T0 $ebp = $eip $T0 4 + ^ = $ebp $T0 ^ = $esp $T0 8 + =  $20 $T0 4 - ^ =  $23 $T0 8 - ^ = 
STACK WIN 4 1d100 63 0 0 c c 0 0 1 $T0 $ebp = $eip $T0 4 + ^ = $ebp $T0 ^ = $esp $T0 8 + =  $20 $T0 4 - ^ =  $23 $T0 8 - ^ =  $24 $T0 12 - ^ = 
STACK WIN 4 1d185 73 9 0 c 0 0 0 1 $T0 $ebp = $eip $T0 4 + ^ = $ebp $T0 ^ = $esp $T0 8 + = 
STACK WIN 4 1d18b 69 3 0 c 4 0 0 1 $T0 $ebp = $eip $T0 4 + ^ = $ebp $T0 ^ = $esp $T0 8 + =  $20 $T0 4 - ^ = 
STACK WIN 4 1d18c 67 2 0 c 8 0 0 1 $T0 $ebp = $eip $T0 4 + ^ = $ebp $T0 ^ = $esp $T0 8 + =  $20 $T0 4 - ^ =  $23 $T0 8 - ^ = 
STACK WIN 4 1d18f 63 0 0 c c 0 0 1 $T0 $ebp = $eip $T0 4 + ^ = $ebp $T0 ^ = $esp $T0 8 + =  $20 $T0 4 - ^ =  $23 $T0 8 - ^ =  $24 $T0 12 - ^ = 
STACK WIN 4 1d214 73 9 0 c 0 0 0 1 $T0 $ebp = $eip $T0 4 + ^ = $ebp $T0 ^ = $esp $T0 8 + = 
STACK WIN 4 1d21a 69 3 0 c 4 0 0 1 $T0 $ebp = $eip $T0 4 + ^ = $ebp $T0 ^ = $esp $T0 8 + =  $20 $T0 4 - ^ = 
STACK WIN 4 1d21b 67 2 0 c 8 0 0 1 $T0 $ebp = $eip $T0 4 + ^ = $ebp $T0 ^ = $esp $T0 8 + =  $20 $T0 4 - ^ =  $23 $T0 8 - ^ = 
STACK WIN 4 1d21e 63 0 0 c c 0 0 1 $T0 $ebp = $eip $T0 4 + ^ = $ebp $T0 ^ = $esp $T0 8 + =  $20 $T0 4 - ^ =  $23 $T0 8 - ^ =  $24 $T0 12 - ^ = 
STACK WIN 4 1d2a3 73 9 0 c 0 0 0 1 $T0 $ebp = $eip $T0 4 + ^ = $ebp $T0 ^ = $esp $T0 8 + = 
STACK WIN 4 1d2a9 69 3 0 c 4 0 0 1 $T0 $ebp = $eip $T0 4 + ^ = $ebp $T0 ^ = $esp $T0 8 + =  $20 $T0 4 - ^ = 
STACK WIN 4 1d2aa 67 2 0 c 8 0 0 1 $T0 $ebp = $eip $T0 4 + ^ = $ebp $T0 ^ = $esp $T0 8 + =  $20 $T0 4 - ^ =  $23 $T0 8 - ^ = 
STACK WIN 4 1d2ad 63 0 0 c c 0 0 1 $T0 $ebp = $eip $T0 4 + ^ = $ebp $T0 ^ = $esp $T0 8 + =  $20 $T0 4 - ^ =  $23 $T0 8 - ^ =  $24 $T0 12 - ^ = 
STACK WIN 4 1d332 87 9 0 c 0 0 0 1 $T0 $ebp = $eip $T0 4 + ^ = $ebp $T0 ^ = $esp $T0 8 + = 
STACK WIN 4 1d338 7d 3 0 c 4 0 0 1 $T0 $ebp = $eip $T0 4 + ^ = $ebp $T0 ^ = $esp $T0 8 + =  $20 $T0 4 - ^ = 
STACK WIN 4 1d339 7b 2 0 c 8 0 0 1 $T0 $ebp = $eip $T0 4 + ^ = $ebp $T0 ^ = $esp $T0 8 + =  $20 $T0 4 - ^ =  $23 $T0 8 - ^ = 
STACK WIN 4 1d33c 77 0 0 c c 0 0 1 $T0 $ebp = $eip $T0 4 + ^ = $ebp $T0 ^ = $esp $T0 8 + =  $20 $T0 4 - ^ =  $23 $T0 8 - ^ =  $24 $T0 12 - ^ = 
STACK WIN 4 1d3da 87 9 0 c 0 0 0 1 $T0 $ebp = $eip $T0 4 + ^ = $ebp $T0 ^ = $esp $T0 8 + = 
STACK WIN 4 1d3e0 7d 3 0 c 4 0 0 1 $T0 $ebp = $eip $T0 4 + ^ = $ebp $T0 ^ = $esp $T0 8 + =  $20 $T0 4 - ^ = 
STACK WIN 4 1d3e1 7b 2 0 c 8 0 0 1 $T0 $ebp = $eip $T0 4 + ^ = $ebp $T0 ^ = $esp $T0 8 + =  $20 $T0 4 - ^ =  $23 $T0 8 - ^ = 
STACK WIN 4 1d3e4 77 0 0 c c 0 0 1 $T0 $ebp = $eip $T0 4 + ^ = $ebp $T0 ^ = $esp $T0 8 + =  $20 $T0 4 - ^ =  $23 $T0 8 - ^ =  $24 $T0 12 - ^ = 
STACK WIN 4 1d482 87 9 0 c 0 0 0 1 $T0 $ebp = $eip $T0 4 + ^ = $ebp $T0 ^ = $esp $T0 8 + = 
STACK WIN 4 1d488 7d 3 0 c 4 0 0 1 $T0 $ebp = $eip $T0 4 + ^ = $ebp $T0 ^ = $esp $T0 8 + =  $20 $T0 4 - ^ = 
STACK WIN 4 1d489 7b 2 0 c 8 0 0 1 $T0 $ebp = $eip $T0 4 + ^ = $ebp $T0 ^ = $esp $T0 8 + =  $20 $T0 4 - ^ =  $23 $T0 8 - ^ = 
STACK WIN 4 1d48c 77 0 0 c c 0 0 1 $T0 $ebp = $eip $T0 4 + ^ = $ebp $T0 ^ = $esp $T0 8 + =  $20 $T0 4 - ^ =  $23 $T0 8 - ^ =  $24 $T0 12 - ^ = 
STACK WIN 4 1d52a 87 9 0 c 0 0 0 1 $T0 $ebp = $eip $T0 4 + ^ = $ebp $T0 ^ = $esp $T0 8 + = 
STACK WIN 4 1d530 7d 3 0 c 4 0 0 1 $T0 $ebp = $eip $T0 4 + ^ = $ebp $T0 ^ = $esp $T0 8 + =  $20 $T0 4 - ^ = 
STACK WIN 4 1d531 7b 2 0 c 8 0 0 1 $T0 $ebp = $eip $T0 4 + ^ = $ebp $T0 ^ = $esp $T0 8 + =  $20 $T0 4 - ^ =  $23 $T0 8 - ^ = 
STACK WIN 4 1d534 77 0 0 c c 0 0 1 $T0 $ebp = $eip $T0 4 + ^ = $ebp $T0 ^ = $esp $T0 8 + =  $20 $T0 4 - ^ =  $23 $T0 8 - ^ =  $24 $T0 12 - ^ = 
STACK WIN 4 1d5d2 87 9 0 c 0 0 0 1 $T0 $ebp = $eip $T0 4 + ^ = $ebp $T0 ^ = $esp $T0 8 + = 
STACK WIN 4 1d5d8 7d 3 0 c 4 0 0 1 $T0 $ebp = $eip $T0 4 + ^ = $ebp $T0 ^ = $esp $T0 8 + =  $20 $T0 4 - ^ = 
STACK WIN 4 1d5d9 7b 2 0 c 8 0 0 1 $T0 $ebp = $eip $T0 4 + ^ = $ebp $T0 ^ = $esp $T0 8 + =  $20 $T0 4 - ^ =  $23 $T0 8 - ^ = 
STACK WIN 4 1d5dc 77 0 0 c c 0 0 1 $T0 $ebp = $eip $T0 4 + ^ = $ebp $T0 ^ = $esp $T0 8 + =  $20 $T0 4 - ^ =  $23 $T0 8 - ^ =  $24 $T0 12 - ^ = 
STACK WIN 4 1d67a 87 9 0 c 0 0 0 1 $T0 $ebp = $eip $T0 4 + ^ = $ebp $T0 ^ = $esp $T0 8 + = 
STACK WIN 4 1d680 7d 3 0 c 4 0 0 1 $T0 $ebp = $eip $T0 4 + ^ = $ebp $T0 ^ = $esp $T0 8 + =  $20 $T0 4 - ^ = 
STACK WIN 4 1d681 7b 2 0 c 8 0 0 1 $T0 $ebp = $eip $T0 4 + ^ = $ebp $T0 ^ = $esp $T0 8 + =  $20 $T0 4 - ^ =  $23 $T0 8 - ^ = 
STACK WIN 4 1d684 77 0 0 c c 0 0 1 $T0 $ebp = $eip $T0 4 + ^ = $ebp $T0 ^ = $esp $T0 8 + =  $20 $T0 4 - ^ =  $23 $T0 8 - ^ =  $24 $T0 12 - ^ = 
STACK WIN 4 1d722 8e c 0 10 0 c 0 1 $T0 $ebp = $eip $T0 4 + ^ = $ebp $T0 ^ = $esp $T0 8 + = 
STACK WIN 4 1d72b 81 3 0 10 4 c 0 1 $T0 $ebp = $eip $T0 4 + ^ = $ebp $T0 ^ = $esp $T0 8 + =  $20 $T0 16 - ^ = 
STACK WIN 4 1d72c 7f 2 0 10 8 c 0 1 $T0 $ebp = $eip $T0 4 + ^ = $ebp $T0 ^ = $esp $T0 8 + =  $20 $T0 16 - ^ =  $23 $T0 20 - ^ = 
STACK WIN 4 1d72f 7b 0 0 10 c c 0 1 $T0 $ebp = $eip $T0 4 + ^ = $ebp $T0 ^ = $esp $T0 8 + =  $20 $T0 16 - ^ =  $23 $T0 20 - ^ =  $24 $T0 24 - ^ = 
STACK WIN 4 1d7d3 8e c 0 10 0 c 0 1 $T0 $ebp = $eip $T0 4 + ^ = $ebp $T0 ^ = $esp $T0 8 + = 
STACK WIN 4 1d7dc 81 3 0 10 4 c 0 1 $T0 $ebp = $eip $T0 4 + ^ = $ebp $T0 ^ = $esp $T0 8 + =  $20 $T0 16 - ^ = 
STACK WIN 4 1d7dd 7f 2 0 10 8 c 0 1 $T0 $ebp = $eip $T0 4 + ^ = $ebp $T0 ^ = $esp $T0 8 + =  $20 $T0 16 - ^ =  $23 $T0 20 - ^ = 
STACK WIN 4 1d7e0 7b 0 0 10 c c 0 1 $T0 $ebp = $eip $T0 4 + ^ = $ebp $T0 ^ = $esp $T0 8 + =  $20 $T0 16 - ^ =  $23 $T0 20 - ^ =  $24 $T0 24 - ^ = 
STACK WIN 4 1d884 8e c 0 10 0 c 0 1 $T0 $ebp = $eip $T0 4 + ^ = $ebp $T0 ^ = $esp $T0 8 + = 
STACK WIN 4 1d88d 81 3 0 10 4 c 0 1 $T0 $ebp = $eip $T0 4 + ^ = $ebp $T0 ^ = $esp $T0 8 + =  $20 $T0 16 - ^ = 
STACK WIN 4 1d88e 7f 2 0 10 8 c 0 1 $T0 $ebp = $eip $T0 4 + ^ = $ebp $T0 ^ = $esp $T0 8 + =  $20 $T0 16 - ^ =  $23 $T0 20 - ^ = 
STACK WIN 4 1d891 7b 0 0 10 c c 0 1 $T0 $ebp = $eip $T0 4 + ^ = $ebp $T0 ^ = $esp $T0 8 + =  $20 $T0 16 - ^ =  $23 $T0 20 - ^ =  $24 $T0 24 - ^ = 
STACK WIN 4 1d935 8e c 0 10 0 c 0 1 $T0 $ebp = $eip $T0 4 + ^ = $ebp $T0 ^ = $esp $T0 8 + = 
STACK WIN 4 1d93e 81 3 0 10 4 c 0 1 $T0 $ebp = $eip $T0 4 + ^ = $ebp $T0 ^ = $esp $T0 8 + =  $20 $T0 16 - ^ = 
STACK WIN 4 1d93f 7f 2 0 10 8 c 0 1 $T0 $ebp = $eip $T0 4 + ^ = $ebp $T0 ^ = $esp $T0 8 + =  $20 $T0 16 - ^ =  $23 $T0 20 - ^ = 
STACK WIN 4 1d942 7b 0 0 10 c c 0 1 $T0 $ebp = $eip $T0 4 + ^ = $ebp $T0 ^ = $esp $T0 8 + =  $20 $T0 16 - ^ =  $23 $T0 20 - ^ =  $24 $T0 24 - ^ = 
STACK WIN 4 1d9e6 8e c 0 10 0 c 0 1 $T0 $ebp = $eip $T0 4 + ^ = $ebp $T0 ^ = $esp $T0 8 + = 
STACK WIN 4 1d9ef 81 3 0 10 4 c 0 1 $T0 $ebp = $eip $T0 4 + ^ = $ebp $T0 ^ = $esp $T0 8 + =  $20 $T0 16 - ^ = 
STACK WIN 4 1d9f0 7f 2 0 10 8 c 0 1 $T0 $ebp = $eip $T0 4 + ^ = $ebp $T0 ^ = $esp $T0 8 + =  $20 $T0 16 - ^ =  $23 $T0 20 - ^ = 
STACK WIN 4 1d9f3 7b 0 0 10 c c 0 1 $T0 $ebp = $eip $T0 4 + ^ = $ebp $T0 ^ = $esp $T0 8 + =  $20 $T0 16 - ^ =  $23 $T0 20 - ^ =  $24 $T0 24 - ^ = 
STACK WIN 4 1da97 8e c 0 10 0 c 0 1 $T0 $ebp = $eip $T0 4 + ^ = $ebp $T0 ^ = $esp $T0 8 + = 
STACK WIN 4 1daa0 81 3 0 10 4 c 0 1 $T0 $ebp = $eip $T0 4 + ^ = $ebp $T0 ^ = $esp $T0 8 + =  $20 $T0 16 - ^ = 
STACK WIN 4 1daa1 7f 2 0 10 8 c 0 1 $T0 $ebp = $eip $T0 4 + ^ = $ebp $T0 ^ = $esp $T0 8 + =  $20 $T0 16 - ^ =  $23 $T0 20 - ^ = 
STACK WIN 4 1daa4 7b 0 0 10 c c 0 1 $T0 $ebp = $eip $T0 4 + ^ = $ebp $T0 ^ = $esp $T0 8 + =  $20 $T0 16 - ^ =  $23 $T0 20 - ^ =  $24 $T0 24 - ^ = 
STACK WIN 4 1db48 a2 c 0 10 0 c 0 1 $T0 $ebp = $eip $T0 4 + ^ = $ebp $T0 ^ = $esp $T0 8 + = 
STACK WIN 4 1db51 95 3 0 10 4 c 0 1 $T0 $ebp = $eip $T0 4 + ^ = $ebp $T0 ^ = $esp $T0 8 + =  $20 $T0 16 - ^ = 
STACK WIN 4 1db52 93 2 0 10 8 c 0 1 $T0 $ebp = $eip $T0 4 + ^ = $ebp $T0 ^ = $esp $T0 8 + =  $20 $T0 16 - ^ =  $23 $T0 20 - ^ = 
STACK WIN 4 1db55 8f 0 0 10 c c 0 1 $T0 $ebp = $eip $T0 4 + ^ = $ebp $T0 ^ = $esp $T0 8 + =  $20 $T0 16 - ^ =  $23 $T0 20 - ^ =  $24 $T0 24 - ^ = 
STACK WIN 4 1dc12 a2 c 0 10 0 c 0 1 $T0 $ebp = $eip $T0 4 + ^ = $ebp $T0 ^ = $esp $T0 8 + = 
STACK WIN 4 1dc1b 95 3 0 10 4 c 0 1 $T0 $ebp = $eip $T0 4 + ^ = $ebp $T0 ^ = $esp $T0 8 + =  $20 $T0 16 - ^ = 
STACK WIN 4 1dc1c 93 2 0 10 8 c 0 1 $T0 $ebp = $eip $T0 4 + ^ = $ebp $T0 ^ = $esp $T0 8 + =  $20 $T0 16 - ^ =  $23 $T0 20 - ^ = 
STACK WIN 4 1dc1f 8f 0 0 10 c c 0 1 $T0 $ebp = $eip $T0 4 + ^ = $ebp $T0 ^ = $esp $T0 8 + =  $20 $T0 16 - ^ =  $23 $T0 20 - ^ =  $24 $T0 24 - ^ = 
STACK WIN 4 1dcdc a2 c 0 10 0 c 0 1 $T0 $ebp = $eip $T0 4 + ^ = $ebp $T0 ^ = $esp $T0 8 + = 
STACK WIN 4 1dce5 95 3 0 10 4 c 0 1 $T0 $ebp = $eip $T0 4 + ^ = $ebp $T0 ^ = $esp $T0 8 + =  $20 $T0 16 - ^ = 
STACK WIN 4 1dce6 93 2 0 10 8 c 0 1 $T0 $ebp = $eip $T0 4 + ^ = $ebp $T0 ^ = $esp $T0 8 + =  $20 $T0 16 - ^ =  $23 $T0 20 - ^ = 
STACK WIN 4 1dce9 8f 0 0 10 c c 0 1 $T0 $ebp = $eip $T0 4 + ^ = $ebp $T0 ^ = $esp $T0 8 + =  $20 $T0 16 - ^ =  $23 $T0 20 - ^ =  $24 $T0 24 - ^ = 
STACK WIN 4 1dda6 a2 c 0 10 0 c 0 1 $T0 $ebp = $eip $T0 4 + ^ = $ebp $T0 ^ = $esp $T0 8 + = 
STACK WIN 4 1ddaf 95 3 0 10 4 c 0 1 $T0 $ebp = $eip $T0 4 + ^ = $ebp $T0 ^ = $esp $T0 8 + =  $20 $T0 16 - ^ = 
STACK WIN 4 1ddb0 93 2 0 10 8 c 0 1 $T0 $ebp = $eip $T0 4 + ^ = $ebp $T0 ^ = $esp $T0 8 + =  $20 $T0 16 - ^ =  $23 $T0 20 - ^ = 
STACK WIN 4 1ddb3 8f 0 0 10 c c 0 1 $T0 $ebp = $eip $T0 4 + ^ = $ebp $T0 ^ = $esp $T0 8 + =  $20 $T0 16 - ^ =  $23 $T0 20 - ^ =  $24 $T0 24 - ^ = 
STACK WIN 4 1de70 a2 c 0 10 0 c 0 1 $T0 $ebp = $eip $T0 4 + ^ = $ebp $T0 ^ = $esp $T0 8 + = 
STACK WIN 4 1de79 95 3 0 10 4 c 0 1 $T0 $ebp = $eip $T0 4 + ^ = $ebp $T0 ^ = $esp $T0 8 + =  $20 $T0 16 - ^ = 
STACK WIN 4 1de7a 93 2 0 10 8 c 0 1 $T0 $ebp = $eip $T0 4 + ^ = $ebp $T0 ^ = $esp $T0 8 + =  $20 $T0 16 - ^ =  $23 $T0 20 - ^ = 
STACK WIN 4 1de7d 8f 0 0 10 c c 0 1 $T0 $ebp = $eip $T0 4 + ^ = $ebp $T0 ^ = $esp $T0 8 + =  $20 $T0 16 - ^ =  $23 $T0 20 - ^ =  $24 $T0 24 - ^ = 
STACK WIN 4 1df3a a2 c 0 10 0 c 0 1 $T0 $ebp = $eip $T0 4 + ^ = $ebp $T0 ^ = $esp $T0 8 + = 
STACK WIN 4 1df43 95 3 0 10 4 c 0 1 $T0 $ebp = $eip $T0 4 + ^ = $ebp $T0 ^ = $esp $T0 8 + =  $20 $T0 16 - ^ = 
STACK WIN 4 1df44 93 2 0 10 8 c 0 1 $T0 $ebp = $eip $T0 4 + ^ = $ebp $T0 ^ = $esp $T0 8 + =  $20 $T0 16 - ^ =  $23 $T0 20 - ^ = 
STACK WIN 4 1df47 8f 0 0 10 c c 0 1 $T0 $ebp = $eip $T0 4 + ^ = $ebp $T0 ^ = $esp $T0 8 + =  $20 $T0 16 - ^ =  $23 $T0 20 - ^ =  $24 $T0 24 - ^ = 
STACK WIN 4 1e004 3b 6 0 10 0 0 0 1 $T0 $ebp = $eip $T0 4 + ^ = $ebp $T0 ^ = $esp $T0 8 + = 
STACK WIN 4 1e00a 33 0 0 10 4 0 0 1 $T0 $ebp = $eip $T0 4 + ^ = $ebp $T0 ^ = $esp $T0 8 + =  $23 $T0 4 - ^ = 
STACK WIN 4 1e012 2a 0 0 10 8 0 0 1 $T0 $ebp = $eip $T0 4 + ^ = $ebp $T0 ^ = $esp $T0 8 + =  $23 $T0 4 - ^ =  $24 $T0 8 - ^ = 
STACK WIN 4 1e04d 40 6 0 10 0 0 0 1 $T0 $ebp = $eip $T0 4 + ^ = $ebp $T0 ^ = $esp $T0 8 + = 
STACK WIN 4 1e053 38 0 0 10 4 0 0 1 $T0 $ebp = $eip $T0 4 + ^ = $ebp $T0 ^ = $esp $T0 8 + =  $23 $T0 4 - ^ = 
STACK WIN 4 1e05b 2f 0 0 10 8 0 0 1 $T0 $ebp = $eip $T0 4 + ^ = $ebp $T0 ^ = $esp $T0 8 + =  $23 $T0 4 - ^ =  $20 $T0 8 - ^ = 
STACK WIN 4 1e061 28 0 0 10 c 0 0 1 $T0 $ebp = $eip $T0 4 + ^ = $ebp $T0 ^ = $esp $T0 8 + =  $23 $T0 4 - ^ =  $20 $T0 8 - ^ =  $24 $T0 12 - ^ = 
STACK WIN 4 1e09d 2c 6 0 10 0 0 0 1 $T0 $ebp = $eip $T0 4 + ^ = $ebp $T0 ^ = $esp $T0 8 + = 
STACK WIN 4 1e0a3 24 0 0 10 4 0 0 1 $T0 $ebp = $eip $T0 4 + ^ = $ebp $T0 ^ = $esp $T0 8 + =  $23 $T0 4 - ^ = 
STACK WIN 4 1e0ab 1b 0 0 10 8 0 0 1 $T0 $ebp = $eip $T0 4 + ^ = $ebp $T0 ^ = $esp $T0 8 + =  $23 $T0 4 - ^ =  $24 $T0 8 - ^ = 
STACK WIN 4 1e0d4 31 6 0 10 0 0 0 1 $T0 $ebp = $eip $T0 4 + ^ = $ebp $T0 ^ = $esp $T0 8 + = 
STACK WIN 4 1e0da 29 0 0 10 4 0 0 1 $T0 $ebp = $eip $T0 4 + ^ = $ebp $T0 ^ = $esp $T0 8 + =  $23 $T0 4 - ^ = 
STACK WIN 4 1e0e2 20 0 0 10 8 0 0 1 $T0 $ebp = $eip $T0 4 + ^ = $ebp $T0 ^ = $esp $T0 8 + =  $23 $T0 4 - ^ =  $20 $T0 8 - ^ = 
STACK WIN 4 1e0e8 19 0 0 10 c 0 0 1 $T0 $ebp = $eip $T0 4 + ^ = $ebp $T0 ^ = $esp $T0 8 + =  $23 $T0 4 - ^ =  $20 $T0 8 - ^ =  $24 $T0 12 - ^ = 
STACK WIN 4 1e111 28 5 0 14 0 0 0 1 $T0 $ebp = $eip $T0 4 + ^ = $ebp $T0 ^ = $esp $T0 8 + = 
STACK WIN 4 1e143 12 5 0 4 0 0 0 1 $T0 $ebp = $eip $T0 4 + ^ = $ebp $T0 ^ = $esp $T0 8 + = 
STACK WIN 4 1e159 12 5 0 4 0 0 0 1 $T0 $ebp = $eip $T0 4 + ^ = $ebp $T0 ^ = $esp $T0 8 + = 
STACK WIN 4 1e16f 12 5 0 4 0 0 0 1 $T0 $ebp = $eip $T0 4 + ^ = $ebp $T0 ^ = $esp $T0 8 + = 
STACK WIN 4 1e185 12 5 0 4 0 0 0 1 $T0 $ebp = $eip $T0 4 + ^ = $ebp $T0 ^ = $esp $T0 8 + = 
STACK WIN 4 1e19b 12 5 0 4 0 0 0 1 $T0 $ebp = $eip $T0 4 + ^ = $ebp $T0 ^ = $esp $T0 8 + = 
STACK WIN 4 1e1b1 28 5 0 14 0 0 0 1 $T0 $ebp = $eip $T0 4 + ^ = $ebp $T0 ^ = $esp $T0 8 + = 
STACK WIN 4 1e1e3 12 5 0 4 0 0 0 1 $T0 $ebp = $eip $T0 4 + ^ = $ebp $T0 ^ = $esp $T0 8 + = 
STACK WIN 4 1e1f9 12 5 0 4 0 0 0 1 $T0 $ebp = $eip $T0 4 + ^ = $ebp $T0 ^ = $esp $T0 8 + = 
STACK WIN 4 1e20f 28 5 0 14 0 0 0 1 $T0 $ebp = $eip $T0 4 + ^ = $ebp $T0 ^ = $esp $T0 8 + = 
STACK WIN 4 1e241 28 5 0 14 0 0 0 1 $T0 $ebp = $eip $T0 4 + ^ = $ebp $T0 ^ = $esp $T0 8 + = 
STACK WIN 4 1e273 12 5 0 4 0 0 0 1 $T0 $ebp = $eip $T0 4 + ^ = $ebp $T0 ^ = $esp $T0 8 + = 
STACK WIN 4 1e289 28 5 0 14 0 0 0 1 $T0 $ebp = $eip $T0 4 + ^ = $ebp $T0 ^ = $esp $T0 8 + = 
STACK WIN 4 1e2bb 12 5 0 4 0 0 0 1 $T0 $ebp = $eip $T0 4 + ^ = $ebp $T0 ^ = $esp $T0 8 + = 
STACK WIN 4 1e2d1 12 5 0 4 0 0 0 1 $T0 $ebp = $eip $T0 4 + ^ = $ebp $T0 ^ = $esp $T0 8 + = 
STACK WIN 4 1e2e7 12 5 0 4 0 0 0 1 $T0 $ebp = $eip $T0 4 + ^ = $ebp $T0 ^ = $esp $T0 8 + = 
STACK WIN 4 1e2fd 28 5 0 14 0 0 0 1 $T0 $ebp = $eip $T0 4 + ^ = $ebp $T0 ^ = $esp $T0 8 + = 
STACK WIN 4 1e32f 12 5 0 4 0 0 0 1 $T0 $ebp = $eip $T0 4 + ^ = $ebp $T0 ^ = $esp $T0 8 + = 
STACK WIN 4 1e345 45 b 0 0 0 4 0 1 $T0 $ebp = $eip $T0 4 + ^ = $ebp $T0 ^ = $esp $T0 8 + = 
STACK WIN 4 1e39b 4a b 0 0 0 4 0 1 $T0 $ebp = $eip $T0 4 + ^ = $ebp $T0 ^ = $esp $T0 8 + = 
STACK WIN 4 1e3f7 3c 8 0 18 0 0 0 1 $T0 $ebp = $eip $T0 4 + ^ = $ebp $T0 ^ = $esp $T0 8 + = 
STACK WIN 4 1e3fd 32 2 0 18 4 0 0 1 $T0 $ebp = $eip $T0 4 + ^ = $ebp $T0 ^ = $esp $T0 8 + =  $23 $T0 4 - ^ = 
STACK WIN 4 1e442 3c 8 0 18 0 0 0 1 $T0 $ebp = $eip $T0 4 + ^ = $ebp $T0 ^ = $esp $T0 8 + = 
STACK WIN 4 1e448 32 2 0 18 4 0 0 1 $T0 $ebp = $eip $T0 4 + ^ = $ebp $T0 ^ = $esp $T0 8 + =  $23 $T0 4 - ^ = 
STACK WIN 4 1e48d 3c 8 0 18 0 0 0 1 $T0 $ebp = $eip $T0 4 + ^ = $ebp $T0 ^ = $esp $T0 8 + = 
STACK WIN 4 1e493 32 2 0 18 4 0 0 1 $T0 $ebp = $eip $T0 4 + ^ = $ebp $T0 ^ = $esp $T0 8 + =  $23 $T0 4 - ^ = 
STACK WIN 4 1e4d8 3c 8 0 18 0 0 0 1 $T0 $ebp = $eip $T0 4 + ^ = $ebp $T0 ^ = $esp $T0 8 + = 
STACK WIN 4 1e4de 32 2 0 18 4 0 0 1 $T0 $ebp = $eip $T0 4 + ^ = $ebp $T0 ^ = $esp $T0 8 + =  $23 $T0 4 - ^ = 
STACK WIN 4 1e523 2d b 0 18 0 0 0 1 $T0 $ebp = $eip $T0 4 + ^ = $ebp $T0 ^ = $esp $T0 8 + = 
STACK WIN 4 1e529 23 5 0 18 4 0 0 1 $T0 $ebp = $eip $T0 4 + ^ = $ebp $T0 ^ = $esp $T0 8 + =  $23 $T0 4 - ^ = 
STACK WIN 4 1e55b 27 b 0 18 0 0 0 1 $T0 $ebp = $eip $T0 4 + ^ = $ebp $T0 ^ = $esp $T0 8 + = 
STACK WIN 4 1e561 1d 5 0 18 4 0 0 1 $T0 $ebp = $eip $T0 4 + ^ = $ebp $T0 ^ = $esp $T0 8 + =  $23 $T0 4 - ^ = 
STACK WIN 4 1e58b 2d b 0 18 0 0 0 1 $T0 $ebp = $eip $T0 4 + ^ = $ebp $T0 ^ = $esp $T0 8 + = 
STACK WIN 4 1e591 23 5 0 18 4 0 0 1 $T0 $ebp = $eip $T0 4 + ^ = $ebp $T0 ^ = $esp $T0 8 + =  $23 $T0 4 - ^ = 
STACK WIN 4 1e5c3 2d b 0 18 0 0 0 1 $T0 $ebp = $eip $T0 4 + ^ = $ebp $T0 ^ = $esp $T0 8 + = 
STACK WIN 4 1e5c9 23 5 0 18 4 0 0 1 $T0 $ebp = $eip $T0 4 + ^ = $ebp $T0 ^ = $esp $T0 8 + =  $23 $T0 4 - ^ = 
STACK WIN 4 1e5fb 27 b 0 18 0 0 0 1 $T0 $ebp = $eip $T0 4 + ^ = $ebp $T0 ^ = $esp $T0 8 + = 
STACK WIN 4 1e601 1d 5 0 18 4 0 0 1 $T0 $ebp = $eip $T0 4 + ^ = $ebp $T0 ^ = $esp $T0 8 + =  $23 $T0 4 - ^ = 
STACK WIN 4 1e62b 2d b 0 18 0 0 0 1 $T0 $ebp = $eip $T0 4 + ^ = $ebp $T0 ^ = $esp $T0 8 + = 
STACK WIN 4 1e631 23 5 0 18 4 0 0 1 $T0 $ebp = $eip $T0 4 + ^ = $ebp $T0 ^ = $esp $T0 8 + =  $23 $T0 4 - ^ = 
STACK WIN 4 1e663 2d b 0 18 0 0 0 1 $T0 $ebp = $eip $T0 4 + ^ = $ebp $T0 ^ = $esp $T0 8 + = 
STACK WIN 4 1e669 23 5 0 18 4 0 0 1 $T0 $ebp = $eip $T0 4 + ^ = $ebp $T0 ^ = $esp $T0 8 + =  $23 $T0 4 - ^ = 
STACK WIN 4 1e69b 27 b 0 18 0 0 0 1 $T0 $ebp = $eip $T0 4 + ^ = $ebp $T0 ^ = $esp $T0 8 + = 
STACK WIN 4 1e6a1 1d 5 0 18 4 0 0 1 $T0 $ebp = $eip $T0 4 + ^ = $ebp $T0 ^ = $esp $T0 8 + =  $23 $T0 4 - ^ = 
STACK WIN 4 1e6cb 2d b 0 18 0 0 0 1 $T0 $ebp = $eip $T0 4 + ^ = $ebp $T0 ^ = $esp $T0 8 + = 
STACK WIN 4 1e6d1 23 5 0 18 4 0 0 1 $T0 $ebp = $eip $T0 4 + ^ = $ebp $T0 ^ = $esp $T0 8 + =  $23 $T0 4 - ^ = 
STACK WIN 4 1e703 2d b 0 18 0 0 0 1 $T0 $ebp = $eip $T0 4 + ^ = $ebp $T0 ^ = $esp $T0 8 + = 
STACK WIN 4 1e709 23 5 0 18 4 0 0 1 $T0 $ebp = $eip $T0 4 + ^ = $ebp $T0 ^ = $esp $T0 8 + =  $23 $T0 4 - ^ = 
STACK WIN 4 1e73b 27 b 0 18 0 0 0 1 $T0 $ebp = $eip $T0 4 + ^ = $ebp $T0 ^ = $esp $T0 8 + = 
STACK WIN 4 1e741 1d 5 0 18 4 0 0 1 $T0 $ebp = $eip $T0 4 + ^ = $ebp $T0 ^ = $esp $T0 8 + =  $23 $T0 4 - ^ = 
STACK WIN 4 1e76b 2d b 0 18 0 0 0 1 $T0 $ebp = $eip $T0 4 + ^ = $ebp $T0 ^ = $esp $T0 8 + = 
STACK WIN 4 1e771 23 5 0 18 4 0 0 1 $T0 $ebp = $eip $T0 4 + ^ = $ebp $T0 ^ = $esp $T0 8 + =  $23 $T0 4 - ^ = 
STACK WIN 4 1e7a3 10 5 0 4 0 0 0 1 $T0 $ebp = $eip $T0 4 + ^ = $ebp $T0 ^ = $esp $T0 8 + = 
STACK WIN 4 1e7b7 10 5 0 4 0 0 0 1 $T0 $ebp = $eip $T0 4 + ^ = $ebp $T0 ^ = $esp $T0 8 + = 
STACK WIN 4 1e7cb 10 5 0 4 0 0 0 1 $T0 $ebp = $eip $T0 4 + ^ = $ebp $T0 ^ = $esp $T0 8 + = 
STACK WIN 4 1e7df 10 5 0 4 0 0 0 1 $T0 $ebp = $eip $T0 4 + ^ = $ebp $T0 ^ = $esp $T0 8 + = 
STACK WIN 4 1e7f3 83 9 0 4 0 0 0 1 $T0 $ebp = $eip $T0 4 + ^ = $ebp $T0 ^ = $esp $T0 8 + = 
STACK WIN 4 1e7f9 79 3 0 4 4 0 0 1 $T0 $ebp = $eip $T0 4 + ^ = $ebp $T0 ^ = $esp $T0 8 + =  $20 $T0 4 - ^ = 
STACK WIN 4 1e7fa 77 2 0 4 8 0 0 1 $T0 $ebp = $eip $T0 4 + ^ = $ebp $T0 ^ = $esp $T0 8 + =  $20 $T0 4 - ^ =  $24 $T0 8 - ^ = 
STACK WIN 4 1e82e 2f 0 0 4 c 0 0 1 $T0 $ebp = $eip $T0 4 + ^ = $ebp $T0 ^ = $esp $T0 8 + =  $20 $T0 4 - ^ =  $24 $T0 8 - ^ =  $23 $T0 12 - ^ = 
STACK WIN 4 1e896 1e b 0 4 0 0 0 1 $T0 $ebp = $eip $T0 4 + ^ = $ebp $T0 ^ = $esp $T0 8 + = 
STACK WIN 4 1e89f 11 2 0 4 4 0 0 1 $T0 $ebp = $eip $T0 4 + ^ = $ebp $T0 ^ = $esp $T0 8 + =  $23 $T0 4 - ^ = 
STACK WIN 4 1e8bb 6 0 0 0 0 0 0 1 $T0 .raSearch = $eip $T0 ^ = $esp $T0 4 + = 
STACK WIN 4 1e8c1 18 5 0 4 0 0 0 1 $T0 $ebp = $eip $T0 4 + ^ = $ebp $T0 ^ = $esp $T0 8 + = 
STACK WIN 4 1e8df 10 5 0 4 0 0 0 1 $T0 $ebp = $eip $T0 4 + ^ = $ebp $T0 ^ = $esp $T0 8 + = 
STACK WIN 4 1e8f3 11 0 0 0 0 0 0 1 $T0 .raSearch = $eip $T0 ^ = $esp $T0 4 + = 
STACK WIN 4 1e908 8 0 0 0 0 0 0 1 $T0 .raSearch = $eip $T0 ^ = $esp $T0 4 + = 
STACK WIN 4 1e912 8 0 0 0 0 0 0 1 $T0 .raSearch = $eip $T0 ^ = $esp $T0 4 + = 
STACK WIN 4 1e91c 8 0 0 0 0 0 0 1 $T0 .raSearch = $eip $T0 ^ = $esp $T0 4 + = 
STACK WIN 4 1e926 8 0 0 0 0 0 0 1 $T0 .raSearch = $eip $T0 ^ = $esp $T0 4 + = 
STACK WIN 4 1e930 8 0 0 0 0 0 0 1 $T0 .raSearch = $eip $T0 ^ = $esp $T0 4 + = 
STACK WIN 4 1e93a 8 0 0 0 0 0 0 1 $T0 .raSearch = $eip $T0 ^ = $esp $T0 4 + = 
STACK WIN 4 1e944 8 0 0 0 0 0 0 1 $T0 .raSearch = $eip $T0 ^ = $esp $T0 4 + = 
STACK WIN 4 1e94e 8 0 0 0 0 0 0 1 $T0 .raSearch = $eip $T0 ^ = $esp $T0 4 + = 
STACK WIN 4 1e958 8 0 0 0 0 0 0 1 $T0 .raSearch = $eip $T0 ^ = $esp $T0 4 + = 
STACK WIN 4 1e962 8 0 0 0 0 0 0 1 $T0 .raSearch = $eip $T0 ^ = $esp $T0 4 + = 
STACK WIN 4 1e96c 8 0 0 0 0 0 0 1 $T0 .raSearch = $eip $T0 ^ = $esp $T0 4 + = 
STACK WIN 4 1e976 8 0 0 0 0 0 0 1 $T0 .raSearch = $eip $T0 ^ = $esp $T0 4 + = 
STACK WIN 4 1e980 8 0 0 0 0 0 0 1 $T0 .raSearch = $eip $T0 ^ = $esp $T0 4 + = 
STACK WIN 4 1e98a 8 0 0 0 0 0 0 1 $T0 .raSearch = $eip $T0 ^ = $esp $T0 4 + = 
STACK WIN 4 1e994 8 0 0 0 0 0 0 1 $T0 .raSearch = $eip $T0 ^ = $esp $T0 4 + = 
STACK WIN 4 1e99e 8 0 0 0 0 0 0 1 $T0 .raSearch = $eip $T0 ^ = $esp $T0 4 + = 
STACK WIN 4 1e9a8 8 0 0 0 0 0 0 1 $T0 .raSearch = $eip $T0 ^ = $esp $T0 4 + = 
STACK WIN 4 1e9b2 8 0 0 0 0 0 0 1 $T0 .raSearch = $eip $T0 ^ = $esp $T0 4 + = 
STACK WIN 4 1e9bc 8 0 0 0 0 0 0 1 $T0 .raSearch = $eip $T0 ^ = $esp $T0 4 + = 
STACK WIN 4 1e9c6 8 0 0 0 0 0 0 1 $T0 .raSearch = $eip $T0 ^ = $esp $T0 4 + = 
STACK WIN 4 1e9d0 8 0 0 0 0 0 0 1 $T0 .raSearch = $eip $T0 ^ = $esp $T0 4 + = 
STACK WIN 4 1e9da 8 0 0 0 0 0 0 1 $T0 .raSearch = $eip $T0 ^ = $esp $T0 4 + = 
STACK WIN 4 1e9e4 8 0 0 0 0 0 0 1 $T0 .raSearch = $eip $T0 ^ = $esp $T0 4 + = 
STACK WIN 4 1e9ee 8 0 0 0 0 0 0 1 $T0 .raSearch = $eip $T0 ^ = $esp $T0 4 + = 
STACK WIN 4 1e9f8 8 0 0 0 0 0 0 1 $T0 .raSearch = $eip $T0 ^ = $esp $T0 4 + = 
STACK WIN 4 1ea02 8 0 0 0 0 0 0 1 $T0 .raSearch = $eip $T0 ^ = $esp $T0 4 + = 
STACK WIN 4 1ea0c 8 0 0 0 0 0 0 1 $T0 .raSearch = $eip $T0 ^ = $esp $T0 4 + = 
STACK WIN 4 1ea16 8 0 0 0 0 0 0 1 $T0 .raSearch = $eip $T0 ^ = $esp $T0 4 + = 
STACK WIN 4 1ea20 8 0 0 0 0 0 0 1 $T0 .raSearch = $eip $T0 ^ = $esp $T0 4 + = 
STACK WIN 4 1ea2a 8 0 0 0 0 0 0 1 $T0 .raSearch = $eip $T0 ^ = $esp $T0 4 + = 
STACK WIN 4 1ea34 10 0 0 0 0 0 0 1 $T0 .raSearch = $eip $T0 ^ = $esp $T0 4 + = 
STACK WIN 4 1ea48 f 0 0 0 0 0 0 1 $T0 .raSearch = $eip $T0 ^ = $esp $T0 4 + = 
STACK WIN 4 1ea5a 11 0 0 0 0 0 0 1 $T0 .raSearch = $eip $T0 ^ = $esp $T0 4 + = 
STACK WIN 4 1ea6f 1a 5 0 0 0 0 0 1 $T0 .raSearch = $eip $T0 ^ = $esp $T0 4 + = 
STACK WIN 4 1ea72 16 2 0 0 4 0 0 1 $T0 .raSearch = $eip $T0 ^ = $esp $T0 4 + =  $23 $T0 4 - ^ = 
STACK WIN 4 1ea8f 24 8 0 4 0 0 0 1 $T0 $ebp = $eip $T0 4 + ^ = $ebp $T0 ^ = $esp $T0 8 + = 
STACK WIN 4 1ea95 1a 2 0 4 4 0 0 1 $T0 $ebp = $eip $T0 4 + ^ = $ebp $T0 ^ = $esp $T0 8 + =  $23 $T0 4 - ^ = 
STACK WIN 4 1eabc 3 0 0 0 0 0 0 1 $T0 .raSearch = $eip $T0 ^ = $esp $T0 4 + = 
STACK WIN 4 1eabf bf 18 0 0 0 474 0 1 $T0 $ebp = $eip $T0 4 + ^ = $ebp $T0 ^ = $esp $T0 8 + = 
STACK WIN 4 1ead5 a2 2 0 0 4 474 0 1 $T0 $ebp = $eip $T0 4 + ^ = $ebp $T0 ^ = $esp $T0 8 + =  $23 $T0 1144 - ^ = 
STACK WIN 4 1ead8 9c 0 0 0 8 474 0 1 $T0 $ebp = $eip $T0 4 + ^ = $ebp $T0 ^ = $esp $T0 8 + =  $23 $T0 1144 - ^ =  $24 $T0 1148 - ^ = 
STACK WIN 4 1ebad 9 0 0 0 0 0 0 1 $T0 .raSearch = $eip $T0 ^ = $esp $T0 4 + = 
STACK WIN 4 1ebb8 9 0 0 0 0 0 0 1 $T0 .raSearch = $eip $T0 ^ = $esp $T0 4 + = 
STACK WIN 4 1ebc3 9 0 0 0 0 0 0 1 $T0 .raSearch = $eip $T0 ^ = $esp $T0 4 + = 
STACK WIN 4 1ebce 9 0 0 0 0 0 0 1 $T0 .raSearch = $eip $T0 ^ = $esp $T0 4 + = 
STACK WIN 4 1ebd9 9 0 0 0 0 0 0 1 $T0 .raSearch = $eip $T0 ^ = $esp $T0 4 + = 
STACK WIN 4 1ebe4 bf 18 0 0 0 474 0 1 $T0 $ebp = $eip $T0 4 + ^ = $ebp $T0 ^ = $esp $T0 8 + = 
STACK WIN 4 1ebfa a2 2 0 0 4 474 0 1 $T0 $ebp = $eip $T0 4 + ^ = $ebp $T0 ^ = $esp $T0 8 + =  $23 $T0 1144 - ^ = 
STACK WIN 4 1ebfd 9c 0 0 0 8 474 0 1 $T0 $ebp = $eip $T0 4 + ^ = $ebp $T0 ^ = $esp $T0 8 + =  $23 $T0 1144 - ^ =  $24 $T0 1148 - ^ = 
STACK WIN 4 1ecd2 9 0 0 0 0 0 0 1 $T0 .raSearch = $eip $T0 ^ = $esp $T0 4 + = 
STACK WIN 4 1ecdd 9 0 0 0 0 0 0 1 $T0 .raSearch = $eip $T0 ^ = $esp $T0 4 + = 
STACK WIN 4 1ece8 f4 18 0 0 0 ae0 0 1 $T0 $ebp = $eip $T0 4 + ^ = $ebp $T0 ^ = $esp $T0 8 + = 
STACK WIN 4 1ecfe d7 2 0 0 4 ae0 0 1 $T0 $ebp = $eip $T0 4 + ^ = $ebp $T0 ^ = $esp $T0 8 + =  $23 $T0 2788 - ^ = 
STACK WIN 4 1ed01 d1 0 0 0 8 ae0 0 1 $T0 $ebp = $eip $T0 4 + ^ = $ebp $T0 ^ = $esp $T0 8 + =  $23 $T0 2788 - ^ =  $24 $T0 2792 - ^ = 
STACK WIN 4 1ee19 f4 18 0 0 0 ae0 0 1 $T0 $ebp = $eip $T0 4 + ^ = $ebp $T0 ^ = $esp $T0 8 + = 
STACK WIN 4 1ee2f d7 2 0 0 4 ae0 0 1 $T0 $ebp = $eip $T0 4 + ^ = $ebp $T0 ^ = $esp $T0 8 + =  $23 $T0 2788 - ^ = 
STACK WIN 4 1ee32 d1 0 0 0 8 ae0 0 1 $T0 $ebp = $eip $T0 4 + ^ = $ebp $T0 ^ = $esp $T0 8 + =  $23 $T0 2788 - ^ =  $24 $T0 2792 - ^ = 
STACK WIN 4 1ef4a 9 0 0 0 0 0 0 1 $T0 .raSearch = $eip $T0 ^ = $esp $T0 4 + = 
STACK WIN 4 1ef55 bf 18 0 0 0 474 0 1 $T0 $ebp = $eip $T0 4 + ^ = $ebp $T0 ^ = $esp $T0 8 + = 
STACK WIN 4 1ef6b a2 2 0 0 4 474 0 1 $T0 $ebp = $eip $T0 4 + ^ = $ebp $T0 ^ = $esp $T0 8 + =  $23 $T0 1144 - ^ = 
STACK WIN 4 1ef6e 9c 0 0 0 8 474 0 1 $T0 $ebp = $eip $T0 4 + ^ = $ebp $T0 ^ = $esp $T0 8 + =  $23 $T0 1144 - ^ =  $24 $T0 1148 - ^ = 
STACK WIN 4 1f043 9 0 0 0 0 0 0 1 $T0 .raSearch = $eip $T0 ^ = $esp $T0 4 + = 
STACK WIN 4 1f04e 9 0 0 0 0 0 0 1 $T0 .raSearch = $eip $T0 ^ = $esp $T0 4 + = 
STACK WIN 4 1f059 9 0 0 0 0 0 0 1 $T0 .raSearch = $eip $T0 ^ = $esp $T0 4 + = 
STACK WIN 4 1f064 bf 18 0 0 0 474 0 1 $T0 $ebp = $eip $T0 4 + ^ = $ebp $T0 ^ = $esp $T0 8 + = 
STACK WIN 4 1f07a a2 2 0 0 4 474 0 1 $T0 $ebp = $eip $T0 4 + ^ = $ebp $T0 ^ = $esp $T0 8 + =  $23 $T0 1144 - ^ = 
STACK WIN 4 1f07d 9c 0 0 0 8 474 0 1 $T0 $ebp = $eip $T0 4 + ^ = $ebp $T0 ^ = $esp $T0 8 + =  $23 $T0 1144 - ^ =  $24 $T0 1148 - ^ = 
STACK WIN 4 1f152 9 0 0 0 0 0 0 1 $T0 .raSearch = $eip $T0 ^ = $esp $T0 4 + = 
STACK WIN 4 1f15d 4 0 0 0 0 0 0 1 $T0 .raSearch = $eip $T0 ^ = $esp $T0 4 + = 
STACK WIN 4 1f161 14 5 0 8 0 0 0 1 $T0 $ebp = $eip $T0 4 + ^ = $ebp $T0 ^ = $esp $T0 8 + = 
STACK WIN 4 1f17a 14 5 0 8 0 0 0 1 $T0 $ebp = $eip $T0 4 + ^ = $ebp $T0 ^ = $esp $T0 8 + = 
STACK WIN 4 1f193 14 5 0 8 0 0 0 1 $T0 $ebp = $eip $T0 4 + ^ = $ebp $T0 ^ = $esp $T0 8 + = 
STACK WIN 4 1f1ac 14 5 0 8 0 0 0 1 $T0 $ebp = $eip $T0 4 + ^ = $ebp $T0 ^ = $esp $T0 8 + = 
STACK WIN 4 1f1c5 14 5 0 8 0 0 0 1 $T0 $ebp = $eip $T0 4 + ^ = $ebp $T0 ^ = $esp $T0 8 + = 
STACK WIN 4 1f1de 14 5 0 8 0 0 0 1 $T0 $ebp = $eip $T0 4 + ^ = $ebp $T0 ^ = $esp $T0 8 + = 
STACK WIN 4 1f1f7 14 5 0 8 0 0 0 1 $T0 $ebp = $eip $T0 4 + ^ = $ebp $T0 ^ = $esp $T0 8 + = 
STACK WIN 4 1f210 14 5 0 8 0 0 0 1 $T0 $ebp = $eip $T0 4 + ^ = $ebp $T0 ^ = $esp $T0 8 + = 
STACK WIN 4 1f229 14 5 0 8 0 0 0 1 $T0 $ebp = $eip $T0 4 + ^ = $ebp $T0 ^ = $esp $T0 8 + = 
STACK WIN 4 1f242 14 5 0 8 0 0 0 1 $T0 $ebp = $eip $T0 4 + ^ = $ebp $T0 ^ = $esp $T0 8 + = 
STACK WIN 4 1f25b 14 5 0 8 0 0 0 1 $T0 $ebp = $eip $T0 4 + ^ = $ebp $T0 ^ = $esp $T0 8 + = 
STACK WIN 4 1f274 14 5 0 8 0 0 0 1 $T0 $ebp = $eip $T0 4 + ^ = $ebp $T0 ^ = $esp $T0 8 + = 
STACK WIN 4 1f28d 4c 2 0 0 0 0 0 1 $T0 .raSearch = $eip $T0 ^ = $esp $T0 4 + = 
STACK WIN 4 1f2ec 4c 2 0 0 0 0 0 1 $T0 .raSearch = $eip $T0 ^ = $esp $T0 4 + = 
STACK WIN 4 1f34b 4c 2 0 0 0 0 0 1 $T0 .raSearch = $eip $T0 ^ = $esp $T0 4 + = 
STACK WIN 4 1f3aa 4c 2 0 0 0 0 0 1 $T0 .raSearch = $eip $T0 ^ = $esp $T0 4 + = 
STACK WIN 4 1f409 11 0 0 0 0 0 0 1 $T0 .raSearch = $eip $T0 ^ = $esp $T0 4 + = 
STACK WIN 4 1f41e 11 0 0 0 0 0 0 1 $T0 .raSearch = $eip $T0 ^ = $esp $T0 4 + = 
STACK WIN 4 1f433 11 0 0 0 0 0 0 1 $T0 .raSearch = $eip $T0 ^ = $esp $T0 4 + = 
STACK WIN 4 1f448 11 0 0 0 0 0 0 1 $T0 .raSearch = $eip $T0 ^ = $esp $T0 4 + = 
STACK WIN 4 1f45d 60 c 0 8 0 0 0 1 $T0 $ebp = $eip $T0 4 + ^ = $ebp $T0 ^ = $esp $T0 8 + = 
STACK WIN 4 1f469 52 0 0 8 4 0 0 1 $T0 $ebp = $eip $T0 4 + ^ = $ebp $T0 ^ = $esp $T0 8 + =  $20 $T0 4 - ^ = 
STACK WIN 4 1f4d5 40 6 0 8 0 4 0 1 $T0 $ebp = $eip $T0 4 + ^ = $ebp $T0 ^ = $esp $T0 8 + = 
STACK WIN 4 1f525 40 6 0 8 0 4 0 1 $T0 $ebp = $eip $T0 4 + ^ = $ebp $T0 ^ = $esp $T0 8 + = 
STACK WIN 4 1f575 3d 6 0 8 0 4 0 1 $T0 $ebp = $eip $T0 4 + ^ = $ebp $T0 ^ = $esp $T0 8 + = 
STACK WIN 4 1f5c1 40 6 0 8 0 4 0 1 $T0 $ebp = $eip $T0 4 + ^ = $ebp $T0 ^ = $esp $T0 8 + = 
STACK WIN 4 1f611 40 6 0 8 0 4 0 1 $T0 $ebp = $eip $T0 4 + ^ = $ebp $T0 ^ = $esp $T0 8 + = 
STACK WIN 4 1f661 3d 6 0 8 0 4 0 1 $T0 $ebp = $eip $T0 4 + ^ = $ebp $T0 ^ = $esp $T0 8 + = 
STACK WIN 4 1f6ad 42 6 0 8 0 4 0 1 $T0 $ebp = $eip $T0 4 + ^ = $ebp $T0 ^ = $esp $T0 8 + = 
STACK WIN 4 1f6ff 42 6 0 8 0 4 0 1 $T0 $ebp = $eip $T0 4 + ^ = $ebp $T0 ^ = $esp $T0 8 + = 
STACK WIN 4 1f751 3f 6 0 8 0 4 0 1 $T0 $ebp = $eip $T0 4 + ^ = $ebp $T0 ^ = $esp $T0 8 + = 
STACK WIN 4 1f79f 42 6 0 8 0 4 0 1 $T0 $ebp = $eip $T0 4 + ^ = $ebp $T0 ^ = $esp $T0 8 + = 
STACK WIN 4 1f7f1 42 6 0 8 0 4 0 1 $T0 $ebp = $eip $T0 4 + ^ = $ebp $T0 ^ = $esp $T0 8 + = 
STACK WIN 4 1f843 3f 6 0 8 0 4 0 1 $T0 $ebp = $eip $T0 4 + ^ = $ebp $T0 ^ = $esp $T0 8 + = 
STACK WIN 4 1f891 5c d 0 8 0 0 0 1 $T0 $ebp = $eip $T0 4 + ^ = $ebp $T0 ^ = $esp $T0 8 + = 
STACK WIN 4 1f89d 4e 1 0 8 4 0 0 1 $T0 $ebp = $eip $T0 4 + ^ = $ebp $T0 ^ = $esp $T0 8 + =  $20 $T0 4 - ^ = 
STACK WIN 4 1f89e 4c 0 0 8 8 0 0 1 $T0 $ebp = $eip $T0 4 + ^ = $ebp $T0 ^ = $esp $T0 8 + =  $20 $T0 4 - ^ =  $24 $T0 8 - ^ = 
STACK WIN 4 1f8b2 f 0 0 8 c 0 0 1 $T0 $ebp = $eip $T0 4 + ^ = $ebp $T0 ^ = $esp $T0 8 + =  $20 $T0 4 - ^ =  $24 $T0 8 - ^ =  $23 $T0 12 - ^ = 
STACK WIN 4 1f904 14 5 0 0 0 0 0 1 $T0 .raSearch = $eip $T0 ^ = $esp $T0 4 + = 
STACK WIN 4 1f907 10 2 0 0 4 0 0 1 $T0 .raSearch = $eip $T0 ^ = $esp $T0 4 + =  $23 $T0 4 - ^ = 
STACK WIN 4 1f91d 7 0 0 0 0 0 0 1 $T0 .raSearch = $eip $T0 ^ = $esp $T0 4 + = 
STACK WIN 4 1f924 4 0 0 4 0 0 0 1 $T0 .raSearch = $eip $T0 ^ = $esp $T0 4 + = 
STACK WIN 4 1f928 4 0 0 4 0 0 0 1 $T0 .raSearch = $eip $T0 ^ = $esp $T0 4 + = 
STACK WIN 4 1f92c 4 0 0 4 0 0 0 1 $T0 .raSearch = $eip $T0 ^ = $esp $T0 4 + = 
STACK WIN 4 1f930 4 0 0 4 0 0 0 1 $T0 .raSearch = $eip $T0 ^ = $esp $T0 4 + = 
STACK WIN 4 1f934 4 0 0 8 0 0 0 1 $T0 .raSearch = $eip $T0 ^ = $esp $T0 4 + = 
STACK WIN 4 1f938 4 0 0 8 0 0 0 1 $T0 .raSearch = $eip $T0 ^ = $esp $T0 4 + = 
STACK WIN 4 1f93c 4 0 0 8 0 0 0 1 $T0 .raSearch = $eip $T0 ^ = $esp $T0 4 + = 
STACK WIN 4 1f940 4 0 0 4 0 0 0 1 $T0 .raSearch = $eip $T0 ^ = $esp $T0 4 + = 
STACK WIN 4 1f944 4 0 0 4 0 0 0 1 $T0 .raSearch = $eip $T0 ^ = $esp $T0 4 + = 
STACK WIN 4 1f948 4 0 0 4 0 0 0 1 $T0 .raSearch = $eip $T0 ^ = $esp $T0 4 + = 
STACK WIN 4 1f94c 4 0 0 4 0 0 0 1 $T0 .raSearch = $eip $T0 ^ = $esp $T0 4 + = 
STACK WIN 4 1f950 4 0 0 4 0 0 0 1 $T0 .raSearch = $eip $T0 ^ = $esp $T0 4 + = 
STACK WIN 4 1f954 4 0 0 8 0 0 0 1 $T0 .raSearch = $eip $T0 ^ = $esp $T0 4 + = 
STACK WIN 4 1f958 4 0 0 8 0 0 0 1 $T0 .raSearch = $eip $T0 ^ = $esp $T0 4 + = 
STACK WIN 4 1f95c 4 0 0 8 0 0 0 1 $T0 .raSearch = $eip $T0 ^ = $esp $T0 4 + = 
STACK WIN 4 1f960 4 0 0 4 0 0 0 1 $T0 .raSearch = $eip $T0 ^ = $esp $T0 4 + = 
STACK WIN 4 1f964 4 0 0 4 0 0 0 1 $T0 .raSearch = $eip $T0 ^ = $esp $T0 4 + = 
STACK WIN 4 1f968 4 0 0 4 0 0 0 1 $T0 .raSearch = $eip $T0 ^ = $esp $T0 4 + = 
STACK WIN 4 1f96c 4 0 0 4 0 0 0 1 $T0 .raSearch = $eip $T0 ^ = $esp $T0 4 + = 
STACK WIN 4 1f970 4 0 0 4 0 0 0 1 $T0 .raSearch = $eip $T0 ^ = $esp $T0 4 + = 
STACK WIN 4 1f974 4 0 0 8 0 0 0 1 $T0 .raSearch = $eip $T0 ^ = $esp $T0 4 + = 
STACK WIN 4 1f978 4 0 0 8 0 0 0 1 $T0 .raSearch = $eip $T0 ^ = $esp $T0 4 + = 
STACK WIN 4 1f97c 4 0 0 8 0 0 0 1 $T0 .raSearch = $eip $T0 ^ = $esp $T0 4 + = 
STACK WIN 4 1f980 4 0 0 4 0 0 0 1 $T0 .raSearch = $eip $T0 ^ = $esp $T0 4 + = 
STACK WIN 4 1f984 4 0 0 4 0 0 0 1 $T0 .raSearch = $eip $T0 ^ = $esp $T0 4 + = 
STACK WIN 4 1f988 4 0 0 4 0 0 0 1 $T0 .raSearch = $eip $T0 ^ = $esp $T0 4 + = 
STACK WIN 4 1f98c 4 0 0 4 0 0 0 1 $T0 .raSearch = $eip $T0 ^ = $esp $T0 4 + = 
STACK WIN 4 1f990 4 0 0 4 0 0 0 1 $T0 .raSearch = $eip $T0 ^ = $esp $T0 4 + = 
STACK WIN 4 1f994 4 0 0 8 0 0 0 1 $T0 .raSearch = $eip $T0 ^ = $esp $T0 4 + = 
STACK WIN 4 1f998 4 0 0 8 0 0 0 1 $T0 .raSearch = $eip $T0 ^ = $esp $T0 4 + = 
STACK WIN 4 1f99c 4 0 0 8 0 0 0 1 $T0 .raSearch = $eip $T0 ^ = $esp $T0 4 + = 
STACK WIN 4 1f9a0 4 0 0 4 0 0 0 1 $T0 .raSearch = $eip $T0 ^ = $esp $T0 4 + = 
STACK WIN 4 1f9a4 12 5 0 4 0 0 0 1 $T0 $ebp = $eip $T0 4 + ^ = $ebp $T0 ^ = $esp $T0 8 + = 
STACK WIN 4 1f9ba 12 5 0 4 0 0 0 1 $T0 $ebp = $eip $T0 4 + ^ = $ebp $T0 ^ = $esp $T0 8 + = 
STACK WIN 4 1f9d0 12 5 0 4 0 0 0 1 $T0 $ebp = $eip $T0 4 + ^ = $ebp $T0 ^ = $esp $T0 8 + = 
STACK WIN 4 1f9e6 12 5 0 4 0 0 0 1 $T0 $ebp = $eip $T0 4 + ^ = $ebp $T0 ^ = $esp $T0 8 + = 
STACK WIN 4 1f9fc 12 5 0 4 0 0 0 1 $T0 $ebp = $eip $T0 4 + ^ = $ebp $T0 ^ = $esp $T0 8 + = 
STACK WIN 4 1fa12 12 5 0 4 0 0 0 1 $T0 $ebp = $eip $T0 4 + ^ = $ebp $T0 ^ = $esp $T0 8 + = 
STACK WIN 4 1fa28 12 5 0 4 0 0 0 1 $T0 $ebp = $eip $T0 4 + ^ = $ebp $T0 ^ = $esp $T0 8 + = 
STACK WIN 4 1fa3e 12 5 0 4 0 0 0 1 $T0 $ebp = $eip $T0 4 + ^ = $ebp $T0 ^ = $esp $T0 8 + = 
STACK WIN 4 1fa54 12 5 0 4 0 0 0 1 $T0 $ebp = $eip $T0 4 + ^ = $ebp $T0 ^ = $esp $T0 8 + = 
STACK WIN 4 1fa6a 12 5 0 4 0 0 0 1 $T0 $ebp = $eip $T0 4 + ^ = $ebp $T0 ^ = $esp $T0 8 + = 
