MODULE windows x86 34060D222DBB44E5AA72243CE8326C2F2 basic32.pdb
INFO CODE_ID 5DDC1E9A6C000 basic32.dll
INFO GENERATOR mozilla/dump_syms XYZ
FUNC 6be0 18 0 test1(int*)
FUNC 6c00 17 0 test2(int, unsigned int)
FUNC 6c20 1f 0 test3(int, unsigned int, short)
FUNC 6c40 27 0 test4(int, unsigned int, unsigned short, double*)
FUNC 6c70 12 0 test5(int*, unsigned int, unsigned short, double const*, const std::basic_string<char,std::char_traits<char>,std::allocator<char> >)
FUNC 6c90 1d 0 test6(double const* const, std::basic_string<char,std::char_traits<char>,std::allocator<char> > const&, std::basic_string<char,std::char_traits<char>,std::allocator<char> >&&)
FUNC 6cb0 13 0 test7(void (*)(int, unsigned int, unsigned short, double*))
FUNC 6cd0 13 0 test8(int (*)(void (*)(int, unsigned int, unsigned short, double*)))
FUNC 6cf0 13 0 test9(int (*)(int (*)(void (*)(int, unsigned int, unsigned short, double*))))
FUNC 6d10 13 0 test10(char*&)
FUNC 6d30 2b 0 test_array(char*, int[34]*, std::basic_string<char,std::char_traits<char>,std::allocator<char> >[34][56]*, double*[34][56][78]*)
FUNC 6d60 2b 0 test_array_empty_struct(Empty*, Empty[]*, Empty[][]*, Empty[][][]*)
FUNC 6e00 21 0 std::basic_string<char,std::char_traits<char>,std::allocator<char> >::~basic_string()
FUNC 6e30 f 0 A::A()
FUNC 6e50 1b 0 A::A(A&&)
FUNC 6e80 c 0 A::~A()
FUNC 6e90 16 0 A::meth1(int)
FUNC 6eb0 1e 0 A::meth1(double)
FUNC 6ee0 1e 0 A::meth1(short, signed char)
FUNC 6f10 16 0 A::meth2(int)
FUNC 6f30 22 0 A::meth2(double)
FUNC 6f60 17 0 A::meth2(short, signed char)
FUNC 6f80 21 0 A::meth4(A*, A::B&&)
FUNC 6fb0 ca 0 std::basic_string<char,std::char_traits<char>,std::allocator<char> >::_Tidy_deallocate()
FUNC 70b0 14 0 std::_String_alloc<std::_String_base_types<char,std::allocator<char> > >::~_String_alloc()
FUNC 70d0 1b 0 std::_String_alloc<std::_String_base_types<char,std::allocator<char> > >::_Orphan_all()
FUNC 7100 14 0 std::_String_alloc<std::_String_base_types<char,std::allocator<char> > >::_Get_data()
FUNC 7120 20 0 std::_String_val<std::_Simple_types<char> >::_Large_string_engaged() const
FUNC 7150 14 0 std::_String_alloc<std::_String_base_types<char,std::allocator<char> > >::_Getal()
FUNC 7170 17 0 std::_Default_allocator_traits<std::allocator<char> >::destroy<char *>(std::allocator<char>&, char** const)
FUNC 7190 14 0 std::addressof<char *>(char*&)
FUNC 71b0 33 0 std::allocator<char>::deallocate(char* const, const unsigned int)
FUNC 71f0 23 0 std::char_traits<char>::assign(char&, char const&)
FUNC 7220 c 0 std::_Container_base0::_Orphan_all()
FUNC 7230 f 0 std::_Compressed_pair<std::allocator<char>,std::_String_val<std::_Simple_types<char> >,1>::_Get_second()
FUNC 7250 11 0 std::_Compressed_pair<std::allocator<char>,std::_String_val<std::_Simple_types<char> >,1>::_Get_first()
FUNC 7270 5f 0 std::_Deallocate<8,0>(void*, unsigned int)
FUNC 72f0 76 0 std::_Adjust_manually_vector_aligned(void*&, unsigned int&)
FUNC 7390 14 0 std::_Compressed_pair<std::allocator<char>,std::_String_val<std::_Simple_types<char> >,1>::~_Compressed_pair()
FUNC 73b0 14 0 std::_String_val<std::_Simple_types<char> >::~_String_val()
FUNC 73d0 c 0 std::_String_val<std::_Simple_types<char> >::_Bxty::~_Bxty()
FUNC 9b20 11 4 __security_check_cookie(unsigned int)
FUNC 9b35 e 0 operator delete(void*, unsigned int)
FUNC 9b46 53 0 dllmain_crt_dispatch(HINSTANCE__* const, const unsigned long, void* const)
FUNC 9bad 10a 0 dllmain_crt_process_attach(HINSTANCE__* const, void* const)
FUNC 9cf9 92 0 dllmain_crt_process_detach(const bool)
FUNC 9daf 106 0 dllmain_dispatch(HINSTANCE__* const, const unsigned long, void* const)
FUNC 9ef6 2b 0 dllmain_raw(HINSTANCE__* const, const unsigned long, void* const)
FUNC 9f2b 9 c _CRT_INIT(HINSTANCE__* const, const unsigned long, void* const)
FUNC 9f36 23 c _DllMainCRTStartup(HINSTANCE__* const, const unsigned long, void* const)
FUNC 9f61 28 0 __raise_securityfailure(_EXCEPTION_POINTERS* const)
FUNC 9f93 f9 0 __report_gsfailure(<NoType>)
FUNC a0ca c 0 __report_rangecheckfailure(<NoType>)
FUNC a0d9 ce 0 __report_securityfailure(unsigned long)
FUNC a1da 114 0 __report_securityfailureEx(unsigned long, unsigned long, void**)
FUNC a333 5 0 operator delete(void*)
FUNC a338 4d 0 __get_entropy()
FUNC a398 4b 0 __security_init_cookie()
FUNC a3f5 6 c DllMain(HINSTANCE__*, unsigned long, void*)
FUNC a3fb c 0 __scrt_initialize_type_info()
FUNC a40a c 0 __scrt_uninitialize_type_info()
FUNC a419 6 0 __local_stdio_printf_options()
FUNC a41f 6 0 __local_stdio_scanf_options()
FUNC a425 1d 0 __scrt_initialize_default_local_stdio_options()
FUNC a449 14 0 __crt_fast_decode_pointer<void (__cdecl**)(void)>(void (** const)())
FUNC a462 1d 0 __crt_fast_encode_pointer<void (__cdecl**)(void)>(void (** const)())
FUNC a486 d 0 __crt_rotate_pointer_value(const unsigned int, const int)
FUNC a496 d 0 __scrt_narrow_argv_policy::configure_argv()
FUNC a4a6 44 0 find_pe_section(unsigned char* const, const unsigned int)
FUNC a4fb 5 0 __scrt_narrow_environment_policy::initialize_environment()
FUNC a500 34 0 is_potentially_valid_image_base(void* const)
FUNC a541 7 0 NtCurrentTeb()
FUNC a548 32 0 __scrt_acquire_startup_lock()
FUNC a586 2b 0 __scrt_dllmain_after_initialize_c()
FUNC a5bb e 0 __scrt_dllmain_before_initialize_c()
FUNC a5cc 1f 0 __scrt_dllmain_crt_thread_attach()
FUNC a5f2 d 0 __scrt_dllmain_crt_thread_detach()
FUNC a602 34 0 __scrt_dllmain_exception_filter(HINSTANCE__*, unsigned long, void*, int (*)(HINSTANCE__*, unsigned long, void*), unsigned long, _EXCEPTION_POINTERS*)
FUNC a643 23 0 __scrt_dllmain_uninitialize_c()
FUNC a66e d 0 __scrt_dllmain_uninitialize_critical()
FUNC a67e 39 0 __scrt_initialize_crt(__scrt_module_type)
FUNC a6c5 a5 0 __scrt_initialize_onexit_tables(__scrt_module_type)
FUNC a793 94 0 __scrt_is_nonwritable_in_current_image(void const*)
FUNC a84c 1d 0 __scrt_release_startup_lock(bool)
FUNC a870 28 0 __scrt_uninitialize_crt(bool, bool)
FUNC a8a2 3b 0 _onexit(int (*)())
FUNC a8eb 31 0 at_quick_exit(void (*)())
FUNC a928 15 0 atexit(void (*)())
FUNC a942 6 0 __scrt_get_dyn_tls_init_callback(<NoType>)
FUNC a948 11a 0 __scrt_fastfail(unsigned int)
FUNC aaa8 31 0 __scrt_get_show_window_mode()
FUNC aae5 5 0 __scrt_initialize_mta()
FUNC aaea 3 0 __scrt_initialize_winrt()
FUNC aaed 43 0 __scrt_is_managed_app()
FUNC ab40 c 0 __scrt_set_unhandled_exception_filter()
FUNC ab4f 3 0 __scrt_stub_for_initialize_mta()
FUNC ab52 41 4 __scrt_unhandled_exception_filter(_EXCEPTION_POINTERS* const)
FUNC aba3 8 0 _crt_debugger_hook(int)
FUNC abad 2c 0 _RTC_Initialize()
FUNC abe4 2c 0 _RTC_Terminate()
FUNC ac20 46 0 __SEH_prolog4()
FUNC ac66 15 0 __SEH_epilog4()
FUNC ac91 1 4 _guard_check_icall_nop(unsigned int)
FUNC ac92 a 0 ReadNoFence(long const*)
FUNC ac9e a 0 ReadPointerNoFence(void* const*)
FUNC acaa 12 0 _guard_icall_checks_enforced()
FUNC acc0 197 0 __isa_available_init(<NoType>)
FUNC aebc 4 0 _get_startup_argv_mode()
FUNC aec0 c 0 __scrt_is_ucrt_dll_in_use(<NoType>)
PUBLIC aecf 4 UnhandledExceptionFilter
PUBLIC aed5 4 SetUnhandledExceptionFilter
PUBLIC aedb 0 GetCurrentProcess
PUBLIC aee1 8 TerminateProcess
PUBLIC aee7 4 IsProcessorFeaturePresent
PUBLIC aeed 4 QueryPerformanceCounter
PUBLIC aef3 0 GetCurrentProcessId
PUBLIC aef9 0 GetCurrentThreadId
PUBLIC aeff 4 GetSystemTimeAsFileTime
PUBLIC af05 4 InitializeSListHead
PUBLIC af0b 0 IsDebuggerPresent
PUBLIC af11 4 GetStartupInfoW
PUBLIC af17 4 GetModuleHandleW
FUNC af20 32 0 ValidateLocalCookies(_EH4_SCOPETABLE*, char*)
FUNC af60 157 0 _except_handler4(_EXCEPTION_RECORD*, _EXCEPTION_REGISTRATION_RECORD*, _CONTEXT*, void*)
FUNC b10c 5 0 <lambda_02a71323d951a238fa4826e9f186893b>::<lambda_invoker_cdecl>(void* const)
FUNC b111 9 0 <lambda_cea3005bd909f0fdd45a57e92f4e3309>::<lambda_invoker_cdecl>(const unsigned int)
FUNC b11c 10 0 __crt_internal_free_policy::operator()<char>(char const* const) const
FUNC b130 10 0 __crt_internal_free_policy::operator()<void>(void const* const) const
FUNC b144 12 0 __crt_interlocked_compare_exchange_pointer<char const ,char *,std::nullptr_t>(char const* const*, char* const, void const*)
FUNC b15a a 0 __crt_interlocked_read_pointer<char const >(char const* const*)
FUNC b166 e 0 __crt_unique_heap_ptr<char,__crt_internal_free_policy>::__crt_unique_heap_ptr<char,__crt_internal_free_policy>(char* const)
FUNC b177 e 0 __crt_unique_heap_ptr<void,__crt_internal_free_policy>::__crt_unique_heap_ptr<void,__crt_internal_free_policy>(void* const)
FUNC b188 10 0 __crt_unique_heap_ptr<char,__crt_internal_free_policy>::~__crt_unique_heap_ptr<char,__crt_internal_free_policy>()
FUNC b19c 10 0 __crt_unique_heap_ptr<void,__crt_internal_free_policy>::~__crt_unique_heap_ptr<void,__crt_internal_free_policy>()
FUNC b1b0 6 0 <lambda_02a71323d951a238fa4826e9f186893b>::operator void (__cdecl*)(void * const)() const
FUNC b1b6 6 0 <lambda_cea3005bd909f0fdd45a57e92f4e3309>::operator void * (__cdecl*)(unsigned int)() const
FUNC b1bc 7 0 __crt_unique_heap_ptr<char,__crt_internal_free_policy>::operator bool() const
FUNC b1c3 7 0 __crt_unique_heap_ptr<void,__crt_internal_free_policy>::operator bool() const
FUNC b1ca 10 0 <lambda_02a71323d951a238fa4826e9f186893b>::operator()(void* const) const
FUNC b1de 10 0 <lambda_cea3005bd909f0fdd45a57e92f4e3309>::operator()(const unsigned int) const
FUNC b1f2 a 0 __crt_interlocked_read_32(int const*)
FUNC b1fe 6 0 __crt_unique_heap_ptr<void,__crt_internal_free_policy>::detach()
FUNC b204 3 0 __crt_unique_heap_ptr<char,__crt_internal_free_policy>::get() const
FUNC b207 3 0 __crt_unique_heap_ptr<void,__crt_internal_free_policy>::get() const
FUNC b20a 7 0 __crt_unique_heap_ptr<char,__crt_internal_free_policy>::is_valid() const
FUNC b211 7 0 __crt_unique_heap_ptr<void,__crt_internal_free_policy>::is_valid() const
FUNC b218 10 0 __crt_unique_heap_ptr<char,__crt_internal_free_policy>::release()
FUNC b22c 10 0 __crt_unique_heap_ptr<void,__crt_internal_free_policy>::release()
FUNC b240 3c 0 __std_type_info_compare(__std_type_info_data const*, __std_type_info_data const*)
FUNC b28b 23 0 __std_type_info_destroy_list(__type_info_node*)
FUNC b2b6 26 0 __std_type_info_hash(__std_type_info_data const*)
FUNC b2e5 c3 0 __std_type_info_name(__std_type_info_data*, __type_info_node*)
FUNC b3d8 29 0 __vcrt_initialize()
FUNC b40b b 0 __vcrt_thread_attach()
FUNC b418 b 0 __vcrt_thread_detach()
FUNC b425 1f 0 __vcrt_uninitialize(bool)
FUNC b44b 8 0 __vcrt_uninitialize_critical()
FUNC b455 1 0 init_memcpy_functions()
FUNC b460 15a 0 memset(unsigned char*, unsigned char, unsigned long)
FUNC b610 90 0 _local_unwind4()
FUNC b6a0 46 0 _unwind_handler4()
FUNC b6e8 28 4 _seh_longjmp_unwind4(unsigned long)
FUNC b710 17 8 @_EH4_CallFilterFunc@8()
FUNC b728 19 8 @_EH4_TransferToHandler@8()
FUNC b744 1a 8 @_EH4_GlobalUnwind2@8()
FUNC b760 17 10 @_EH4_LocalUnwind@16()
FUNC b7d0 b 0 __except_get_jumpbuf_sp(int*)
FUNC b7dd 30 0 __except_validate_context_record(_CONTEXT*)
FUNC b819 2d 0 __except_validate_jump_buffer(int*)
FUNC b851 39 0 __except_validate_jump_buffer_common(int*, void* (*)(int*))
FUNC b898 6 0 _HeapManager::Block::Block()
FUNC b89e b2 0 DName::DName(char const*&, char)
FUNC b97c 16 0 DName::DName(DName const&)
FUNC b997 25 0 DName::DName(char)
FUNC b9c5 48 0 DName::DName(DName*)
FUNC ba1f 33 0 DName::DName(char const*)
FUNC ba5e 40 0 DName::DName(DNameStatus)
FUNC baae a 0 DName::DName()
FUNC baba 8c 0 DName::DName(long long)
FUNC bb69 66 0 DName::DName(unsigned long long)
FUNC bbe8 9 0 DNameNode::DNameNode()
FUNC bbf3 6 0 Replicator::Replicator()
FUNC bbf9 9 0 `UnDecorator::getDecoratedName'::`2'::TrackRecursion::TrackRecursion()
FUNC bc04 4c 0 UnDecorator::UnDecorator(char const*, char* (*)(long), unsigned long)
FUNC bc63 15 0 charNode::charNode(char)
FUNC bc7d 28 0 pDNameNode::pDNameNode(DName*)
FUNC bcaf 1f 0 pairNode::pairNode(DNameNode const*, DNameNode const*)
FUNC bcd5 59 0 pcharNode::pcharNode(char const*, int)
FUNC bd44 7 0 `UnDecorator::getDecoratedName'::`2'::TrackRecursion::~TrackRecursion()
FUNC bd4b 15 0 operator new(unsigned int, _HeapManager&, int)
FUNC bd65 16 0 DName::operator=(DName const&)
FUNC bd80 25 0 DName::operator=(char)
FUNC bdae 42 0 DName::operator=(DName*)
FUNC be00 2b 0 DName::operator=(char const*)
FUNC be35 32 0 DName::operator=(DNameStatus)
FUNC be73 46 0 Replicator::operator[](int) const
FUNC beca 22 0 operator+(char, DName const&)
FUNC bef4 22 0 operator+(char const*, DName const&)
FUNC bf1e 22 0 operator+(DNameStatus, DName const&)
FUNC bf48 22 0 DName::operator+(DName const&) const
FUNC bf72 22 0 DName::operator+(char) const
FUNC bf9c 22 0 DName::operator+(DName*) const
FUNC bfc6 22 0 DName::operator+(char const*) const
FUNC bff0 22 0 DName::operator+(DNameStatus) const
FUNC c01a 41 0 DName::operator+=(DName const&)
FUNC c06b 50 0 DName::operator+=(char)
FUNC c0cf 65 0 DName::operator+=(DName*)
FUNC c14d 61 0 DName::operator+=(char const*)
FUNC c1c6 40 0 DName::operator+=(DNameStatus)
FUNC c216 4a 0 Replicator::operator+=(DName const&)
FUNC c272 1c 0 DName::operator|=(DName const&)
FUNC c295 1d 0 _HeapManager::Constructor(void* (*)(unsigned int), void (*)(void*))
FUNC c2b9 38 0 _HeapManager::Destructor()
FUNC c2ff 1f 0 UnDecorator::UScore(Tokens)
FUNC c325 46 0 DName::append(DNameNode const*)
FUNC c37c cdd 0 UnDecorator::composeDeclaration(DName const&)
FUNC d390 e 0 UnDecorator::doAccessSpecifiers()
FUNC d3a1 e 0 UnDecorator::doAllocationLanguage()
FUNC d3b2 e 0 UnDecorator::doAllocationModel()
FUNC d3c3 e 0 UnDecorator::doEcsu()
FUNC d3d4 e 0 UnDecorator::doEllipsis()
FUNC d3e5 e 0 UnDecorator::doFunctionReturns()
FUNC d3f6 d 0 UnDecorator::doMSKeywords()
FUNC d406 e 0 UnDecorator::doMemberTypes()
FUNC d417 b 0 UnDecorator::doNameOnly()
FUNC d424 b 0 UnDecorator::doNoIdentCharCheck()
FUNC d431 86 0 DName::doPchar(char const*, int)
FUNC d4d8 e 0 UnDecorator::doPtr64()
FUNC d4e9 e 0 UnDecorator::doRestrictionSpec()
FUNC d4fa 12 0 UnDecorator::doThisTypes()
FUNC d510 e 0 UnDecorator::doThrowTypes()
FUNC d521 b 0 UnDecorator::doTypeOnly()
FUNC d52e b 0 UnDecorator::doUnderScore()
FUNC d53b f6 0 UnDecorator::getArgumentList()
FUNC d66e ca 0 UnDecorator::getArgumentTypes()
FUNC d76a 1b1 0 UnDecorator::getArrayType(DName const&)
FUNC d987 98 0 UnDecorator::getBasedType()
FUNC da45 3df 0 UnDecorator::getBasicDataType(DName const&)
FUNC df1b df 0 UnDecorator::getCHPEName(char*, int)
FUNC e031 14 0 UnDecorator::getCallIndex()
FUNC e04a d3 0 UnDecorator::getCallingConvention()
FUNC e151 5ea 0 UnDecorator::getDataIndirectType(DName const&, char const*, DName const&, int)
FUNC e8b5 32 0 UnDecorator::getDataIndirectType()
FUNC e8f3 c5 0 UnDecorator::getDataType(DName*)
FUNC e9e9 242 0 UnDecorator::getDecoratedName()
FUNC ecbb 11f 0 UnDecorator::getDimension(bool)
FUNC ee21 54 0 UnDecorator::getDispatchTarget()
FUNC ee8a 14 0 UnDecorator::getDisplacement()
FUNC eea3 118 0 UnDecorator::getECSUDataType()
FUNC f001 11 0 UnDecorator::getECSUName()
FUNC f016 f0 0 UnDecorator::getEnumType()
FUNC f142 1b7 0 UnDecorator::getExtendedDataIndirectType(char const*&, bool&, int)
FUNC f366 67 0 UnDecorator::getExternalDataType(DName const&)
FUNC f3e6 3d8 0 UnDecorator::getFunctionIndirectType(DName const&)
FUNC f8b4 14 0 UnDecorator::getGuardNumber()
FUNC f8cd 20 0 DName::getLastChar() const
FUNC f8f5 c 0 DNameStatusNode::getLastChar() const
FUNC f904 4 0 charNode::getLastChar() const
FUNC f908 e 0 pDNameNode::getLastChar() const
FUNC f919 35 0 pairNode::getLastChar() const
FUNC f95b 12 0 pcharNode::getLastChar() const
FUNC f971 3f 0 UnDecorator::getLexicalFrame()
FUNC f9bf 87 0 _HeapManager::getMemory(unsigned int, int)
FUNC fa67 45 0 UnDecorator::getNoexcept()
FUNC fabd 61 0 UnDecorator::getNumberOfDimensions()
FUNC fb36 658 0 UnDecorator::getOperatorName(bool, bool*)
FUNC 10324 1e 0 UnDecorator::getPointerType(DName const&, DName const&)
FUNC 10349 1e 0 UnDecorator::getPointerTypeArray(DName const&, DName const&)
FUNC 1036e 1e4 0 UnDecorator::getPrimaryDataType(DName const&)
FUNC 105cb 129 0 UnDecorator::getPtrRefDataType(DName const&, int)
FUNC 1073e fa 0 UnDecorator::getPtrRefType(DName const&, DName const&, char const*)
FUNC 10876 1c 0 UnDecorator::getReferenceType(DName const&, DName const&, char const*)
FUNC 10899 f9 0 UnDecorator::getRestrictionSpec()
FUNC 109d0 2f 0 UnDecorator::getReturnType(DName*)
FUNC 10a0a 394 0 UnDecorator::getScope()
FUNC 10e83 d4 0 UnDecorator::getScopedName()
FUNC 10f8c 51 0 UnDecorator::getSignedDimension()
FUNC 10ff1 11 0 UnDecorator::getStorageConvention()
FUNC 11006 2d 0 DName::getString(char*, char*) const
FUNC 1103e 56 0 DName::getString(char*, int) const
FUNC 110a9 27 0 DNameStatusNode::getString(char*, char*) const
FUNC 110d9 15 0 charNode::getString(char*, char*) const
FUNC 110f3 17 0 pDNameNode::getString(char*, char*) const
FUNC 1110f 46 0 pairNode::getString(char*, char*) const
FUNC 11166 1b 0 pcharNode::getString(char*, char*) const
FUNC 11187 b0 0 UnDecorator::getStringEncoding(char const*, int)
FUNC 11263 37 0 getStringHelper(char*, char const*, char const*, int)
FUNC 112a7 48 0 UnDecorator::getSymbolName()
FUNC 11301 29d 0 UnDecorator::getTemplateArgumentList()
FUNC 11645 332 0 UnDecorator::getTemplateConstant()
FUNC 11a43 162 0 UnDecorator::getTemplateName(bool)
FUNC 11bfd 33 0 UnDecorator::getThisType()
FUNC 11c3c 23 0 UnDecorator::getThrowTypes()
FUNC 11c67 328 0 UnDecorator::getTypeEncoding()
FUNC 12059 c4 0 UnDecorator::getUndecoratedName(char*, int)
FUNC 1214e 47 0 UnDecorator::getVCallThunkType()
FUNC 121a6 15 0 UnDecorator::getVbTableType(DName const&)
FUNC 121c0 54 0 UnDecorator::getVdispMapType(DName const&)
FUNC 12229 163 0 UnDecorator::getVfTableType(DName const&)
FUNC 123e4 1ff 0 UnDecorator::getZName(bool, bool)
FUNC 12662 b 0 UnDecorator::haveTemplateParameters()
FUNC 1266f a 0 DName::isArray() const
FUNC 1267b a 0 DName::isComArray() const
FUNC 12687 8 0 DName::isEmpty() const
FUNC 12691 9 0 Replicator::isFull() const
FUNC 1269c a 0 DName::isNoTE() const
FUNC 126a8 a 0 DName::isPinPtr() const
FUNC 126b4 a 0 DName::isPtrRef() const
FUNC 126c0 11 0 DName::isUDC() const
FUNC 126d5 11 0 DName::isUDTThunk() const
FUNC 126ea a 0 DName::isVCallThunk() const
FUNC 126f6 a 0 DName::isValid() const
FUNC 12702 1f 0 DName::length() const
FUNC 12728 4 0 DNameStatusNode::length() const
FUNC 1272c 4 0 charNode::length() const
FUNC 12730 e 0 pDNameNode::length() const
FUNC 12741 46 0 pairNode::length() const
FUNC 12798 4 0 pcharNode::length() const
FUNC 1279c 1c 0 DNameStatusNode::make(DNameStatus)
FUNC 127bf ee 0 UnDecorator::parseDecoratedName()
FUNC 128e8 8 0 DName::setIsArray()
FUNC 128f2 8 0 DName::setIsComArray()
FUNC 128fc 8 0 DName::setIsNoTE()
FUNC 12906 8 0 DName::setIsPinPtr()
FUNC 12910 d 0 DName::setIsUDC()
FUNC 12920 8 0 DName::setIsVCallThunk()
FUNC 1292a a 0 DName::setPtrRef()
FUNC 12936 5 0 DName::status() const
FUNC 1293b 21 0 und_memcpy(char*, char const*, unsigned int)
FUNC 12964 15 0 und_strlen(char const*)
FUNC 1297e 31 0 und_strncmp(char const*, char const*, unsigned int)
FUNC 129bb 23 0 __unDName(char*, char const*, int, void* (*)(unsigned int), void (*)(void*), unsigned short)
FUNC 129e6 9f 0 __unDNameEx(char*, char const*, int, void* (*)(unsigned int), void (*)(void*), char* (*)(long), unsigned long)
FUNC 12aac 2d 0 _vsprintf_s_l(char* const, const unsigned int, char const* const, __crt_locale_pointers* const, char*)
FUNC 12ae4 1c 0 sprintf_s(char* const, const unsigned int, char const* const, <NoType>)
FUNC 12b07 5c 0 unDNameGenerateCHPE(char*, char const*, int, void* (*)(unsigned int), void (*)(void*), unsigned long)
FUNC 12b7a 10 0 __crt_internal_free_policy::operator()<__vcrt_ptd>(__vcrt_ptd const* const) const
FUNC 12b8e e 0 __crt_unique_heap_ptr<__vcrt_ptd,__crt_internal_free_policy>::__crt_unique_heap_ptr<__vcrt_ptd,__crt_internal_free_policy>(__vcrt_ptd* const)
FUNC 12b9f f 0 (anonymous namespace)::scoped_get_last_error_reset::scoped_get_last_error_reset()
FUNC 12bb1 10 0 __crt_unique_heap_ptr<__vcrt_ptd,__crt_internal_free_policy>::~__crt_unique_heap_ptr<__vcrt_ptd,__crt_internal_free_policy>()
FUNC 12bc5 9 0 (anonymous namespace)::scoped_get_last_error_reset::~scoped_get_last_error_reset()
FUNC 12bd0 7 0 __crt_unique_heap_ptr<__vcrt_ptd,__crt_internal_free_policy>::operator bool() const
FUNC 12bd7 6 0 __crt_unique_heap_ptr<__vcrt_ptd,__crt_internal_free_policy>::detach()
FUNC 12bdd 3 0 __crt_unique_heap_ptr<__vcrt_ptd,__crt_internal_free_policy>::get() const
FUNC 12be0 7 0 __crt_unique_heap_ptr<__vcrt_ptd,__crt_internal_free_policy>::is_valid() const
FUNC 12be7 10 0 __crt_unique_heap_ptr<__vcrt_ptd,__crt_internal_free_policy>::release()
FUNC 12bfb 1a 0 store_and_initialize_ptd(__vcrt_ptd* const)
FUNC 12c1b 1c 4 __vcrt_freefls(void*)
FUNC 12c3e 36 0 __vcrt_freeptd(__vcrt_ptd*)
FUNC 12c81 e 0 __vcrt_getptd()
FUNC 12c92 92 0 __vcrt_getptd_noexit()
FUNC 12d48 37 0 __vcrt_getptd_noinit()
FUNC 12d8c 33 0 __vcrt_initialize_ptd()
FUNC 12dcb 1b 0 __vcrt_uninitialize_ptd()
FUNC 12dec 3c 0 __vcrt_initialize_locks()
FUNC 12e37 15 0 __vcrt_lock(__vcrt_lock_id)
FUNC 12e51 2f 0 __vcrt_uninitialize_locks()
FUNC 12e8b 15 0 __vcrt_unlock(__vcrt_lock_id)
FUNC 12ea5 6 0 __crt_fast_encoded_nullptr_t::operator<void> void *() const
FUNC 12eab 14 0 __crt_fast_decode_pointer<void *>(void* const)
FUNC 12ec4 1d 0 __crt_fast_encode_pointer<void *>(void* const)
FUNC 12ee8 d 0 __crt_interlocked_exchange_pointer<HINSTANCE__,HINSTANCE__ *>(HINSTANCE__* const*, HINSTANCE__* const)
FUNC 12ef8 d 0 __crt_interlocked_exchange_pointer<HINSTANCE__,void *>(HINSTANCE__* const*, void* const)
FUNC 12f08 d 0 __crt_interlocked_exchange_pointer<void,void *>(void* const*, void* const)
FUNC 12f18 a 0 __crt_interlocked_read_pointer<HINSTANCE__>(HINSTANCE__* const*)
FUNC 12f24 a 0 __crt_interlocked_read_pointer<void>(void* const*)
FUNC 12f30 9 0 __crt_fast_encode_pointer(void*)
FUNC 12f3b 4 0 invalid_function_sentinel()
FUNC 12f3f 1a 0 try_get_FlsAlloc()
FUNC 12f5f 1a 0 try_get_FlsFree()
FUNC 12f7f 1a 0 try_get_FlsGetValue()
FUNC 12f9f 1a 0 try_get_FlsSetValue()
FUNC 12fbf 1a 0 try_get_InitializeCriticalSectionEx()
FUNC 12fdf c4 0 try_get_first_available_module(`anonymous-namespace'::module_id const* const, `anonymous-namespace'::module_id const* const)
FUNC 130d4 6f 0 try_get_function(const `anonymous-namespace'::function_id, char const* const, `anonymous-namespace'::module_id const* const, `anonymous-namespace'::module_id const* const)
FUNC 1315e 4f 0 try_get_module(const `anonymous-namespace'::module_id)
FUNC 131c0 22 0 try_get_proc_address_from_first_available_module(char const* const, `anonymous-namespace'::module_id const* const, `anonymous-namespace'::module_id const* const)
FUNC 131ea 61 0 try_load_library_from_system_directory(wchar_t const* const)
FUNC 13263 3b 0 __vcrt_FlsAlloc(void (*)(void*))
FUNC 132ac 3b 0 __vcrt_FlsFree(unsigned long)
FUNC 132f5 3b 0 __vcrt_FlsGetValue(unsigned long)
FUNC 1333e 3e 0 __vcrt_FlsSetValue(unsigned long, void*)
FUNC 1338b 47 0 __vcrt_InitializeCriticalSectionEx(_RTL_CRITICAL_SECTION*, unsigned long, unsigned long)
FUNC 133e3 29 0 __vcrt_initialize_winapi_thunks()
FUNC 13416 32 0 __vcrt_uninitialize_winapi_thunks(bool)
FUNC 13454 6 0 __crt_fast_encoded_nullptr_t::operator<void __cdecl(void)> void (__cdecl*)(void)() const
FUNC 1345a 1d 0 __crt_fast_encode_pointer<void (__cdecl*)(void)>(void (* const)())
FUNC 1347e b 0 __vcrt_initialize_pure_virtual_call_handler()
FUNC 13490 21 0 __global_unwind2()
FUNC 134b1 45 0 __unwind_handler()
FUNC 134f6 84 0 __local_unwind2()
FUNC 1357a 23 0 __abnormal_termination()
FUNC 135a0 9 0 _NLG_Notify1()
FUNC 135ac 1f 0 _NLG_Notify()
FUNC 135cb 3 0 _NLG_Call()
FUNC 1361d 14 0 __crt_fast_decode_pointer<void (__cdecl*)(void)>(void (* const)())
FUNC 13636 d 0 __crt_interlocked_exchange_pointer<void __cdecl(void),void (__cdecl*)(void)>(void (* const*)(), void (* const)())
FUNC 13646 a 0 __crt_interlocked_read_pointer<void __cdecl(void)>(void (* const*)())
FUNC 13652 15 0 _get_purecall_handler()
FUNC 1366c 1c 0 _purecall()
FUNC 1368f 25 0 _set_purecall_handler(void (*)())
FUNC 136bd 24 0 std::pair<__FrameHandler3::TryBlockMap::iterator,__FrameHandler3::TryBlockMap::iterator>::pair<__FrameHandler3::TryBlockMap::iterator,__FrameHandler3::TryBlockMap::iterator><__FrameHandler3::TryBlockMap::iterator &,__FrameHandler3::TryBlockMap::iterator &,0>(__FrameHandler3::TryBlockMap::iterator&, __FrameHandler3::TryBlockMap::iterator&)
FUNC 136ea 8 0 std::forward<__FrameHandler3::TryBlockMap::iterator &>(__FrameHandler3::TryBlockMap::iterator&)
FUNC 136f4 14 0 __FrameHandler3::TryBlockMap::iterator::iterator(__FrameHandler3::TryBlockMap&, unsigned int)
FUNC 1370d 82 0 __FrameHandler3::GetRangeOfTrysToCheck(__FrameHandler3::TryBlockMap&, int, int)
FUNC 137af 5e 0 _CallCatchBlock2(EHRegistrationNode*, _s_FuncInfo const*, void*, int, unsigned long)
FUNC 13824 db 0 _CallSETranslator(EHExceptionRecord*, EHRegistrationNode*, void*, void*, _s_FuncInfo const*, int, EHRegistrationNode*)
FUNC 13935 30 0 _JumpToContinuation(void*, EHRegistrationNode*)
FUNC 13971 53 0 _UnwindNestedFrames(EHRegistrationNode*, EHExceptionRecord*)
FUNC 139d8 3 0 __FrameHandler3::TryBlockMap::getFuncInfo()
FUNC 139db 31 0 _CatchGuardHandler(EHExceptionRecord*, CatchGuardRN*, void*, void*)
FUNC 13a18 24 0 _CreateFrameInfo(FrameInfo*, void*)
FUNC 13a45 45 0 _FindAndUnlinkFrame(FrameInfo*)
FUNC 13a9b 9d 0 _TranslatorGuardHandler(EHExceptionRecord*, TranslatorGuardRN*, void*, void*)
FUNC 13b5f 36 0 __CxxFrameHandler(EHExceptionRecord*, EHRegistrationNode*, void*, void*)
FUNC 13ba2 36 0 __CxxFrameHandler2(EHExceptionRecord*, EHRegistrationNode*, void*, void*)
FUNC 13be5 36 0 __CxxFrameHandler3(EHExceptionRecord*, EHRegistrationNode*, void*, void*)
FUNC 13c28 25 4 __CxxLongjmpUnwind(__JUMP_BUFFER*)
FUNC 13c60 574 0 memcpy(unsigned char*, unsigned char*, unsigned long)
FUNC 14331 13f 0 BuildCatchObjectHelperInternal<_s_HandlerType const >(EHExceptionRecord*, void*, _s_HandlerType const*, _s_CatchableType const*)
FUNC 144bf 99 0 BuildCatchObjectInternal<_s_HandlerType const >(EHExceptionRecord*, void*, _s_HandlerType const*, _s_CatchableType const*)
FUNC 1457e 80 0 CatchIt<__FrameHandler3>(EHExceptionRecord*, EHRegistrationNode*, _CONTEXT*, void*, _s_FuncInfo const*, _s_HandlerType const*, _s_CatchableType const*, _s_TryBlockMapEntry const*, int, EHRegistrationNode*, unsigned char)
FUNC 1461e 38e 0 FindHandler<__FrameHandler3>(EHExceptionRecord*, EHRegistrationNode*, _CONTEXT*, void*, _s_FuncInfo const*, unsigned char, int, EHRegistrationNode*)
FUNC 14a8f 111 0 FindHandlerForForeignException<__FrameHandler3>(EHExceptionRecord*, EHRegistrationNode*, _CONTEXT*, void*, _s_FuncInfo const*, int, int, EHRegistrationNode*)
FUNC 14be4 8e 0 TypeMatchHelper<_s_HandlerType const >(_s_HandlerType const*, _s_CatchableType const*, _s_ThrowInfo const*)
FUNC 14c95 102 0 __InternalCxxFrameHandler<__FrameHandler3>(EHExceptionRecord*, EHRegistrationNode*, _CONTEXT*, void*, _s_FuncInfo const*, int, EHRegistrationNode*, unsigned char)
FUNC 14dd7 17 0 __FrameHandler3::HandlerMap::HandlerMap(_s_TryBlockMapEntry const*, void*)
FUNC 14df3 14 0 __FrameHandler3::TryBlockMap::TryBlockMap(_s_FuncInfo const*, void*)
FUNC 14e0c 1b 0 std::bad_exception::bad_exception(std::bad_exception const&)
FUNC 14e2d 18 0 std::bad_exception::bad_exception()
FUNC 14e4b 2c 0 std::exception::exception(std::exception const&)
FUNC 14e82 1d 0 std::exception::exception(char const* const, int)
FUNC 14ea6 14 0 __FrameHandler3::HandlerMap::iterator::iterator(__FrameHandler3::HandlerMap&, unsigned int)
FUNC 14ebf 11 0 std::bad_exception::~bad_exception()
FUNC 14ed4 11 0 std::exception::~exception()
FUNC 14ee9 13 0 __FrameHandler3::HandlerMap::iterator::operator==(__FrameHandler3::HandlerMap::iterator const&) const
FUNC 14f00 1f 0 type_info::operator==(type_info const&) const
FUNC 14f26 13 0 __FrameHandler3::HandlerMap::iterator::operator!=(__FrameHandler3::HandlerMap::iterator const&) const
FUNC 14f3d c 0 __FrameHandler3::HandlerMap::iterator::operator*()
FUNC 14f4c c 0 __FrameHandler3::TryBlockMap::iterator::operator*()
FUNC 14f5b 6 0 __FrameHandler3::HandlerMap::iterator::operator++()
FUNC 14f61 6 0 __FrameHandler3::TryBlockMap::iterator::operator++()
FUNC 14f67 13 0 __FrameHandler3::TryBlockMap::iterator::operator<(__FrameHandler3::TryBlockMap::iterator const&) const
FUNC 14f7e 2d 0 std::bad_exception::`scalar deleting destructor'(unsigned int)
FUNC 14fb6 2d 0 std::exception::`scalar deleting destructor'(unsigned int)
FUNC 14fee 5 0 __FrameHandler3::BuildCatchObject(EHExceptionRecord*, void*, _s_HandlerType const*, _s_CatchableType const*)
FUNC 14ff3 9 0 __FrameHandler3::BuildCatchObjectHelper(EHExceptionRecord*, void*, _s_HandlerType const*, _s_CatchableType const*)
FUNC 14ffe 1c4 0 CallCatchBlock(EHExceptionRecord*, EHRegistrationNode*, _CONTEXT*, _s_FuncInfo const*, void*, int, unsigned long)
FUNC 15233 3a 0 CallUnexpected(_s_ESTypeList const*)
FUNC 1527b 4a 0 ExFilterRethrow(_EXCEPTION_POINTERS*)
FUNC 152d7 18 0 __FrameHandler3::FrameUnwindToEmptyState(EHRegistrationNode*, void*, _s_FuncInfo const*)
FUNC 152f5 e8 0 __FrameHandler3::FrameUnwindToState(EHRegistrationNode*, void*, _s_FuncInfo const*, int)
FUNC 15417 b 0 __FrameHandler3::GetMaxState(void*, _s_FuncInfo const*)
FUNC 15424 9a 0 IsInExceptionSpec(EHExceptionRecord*, _s_ESTypeList const*)
FUNC 154e4 39 0 Is_bad_exception_allowed(_s_ESTypeList const*)
FUNC 1552b 9 0 __FrameHandler3::TypeMatch(_s_HandlerType const*, _s_CatchableType const*, _s_ThrowInfo const*)
FUNC 15536 10 0 _CallMemberFunction1(void* const, void* const, void* const)
FUNC 1554a 13 0 _CallMemberFunction2(void* const, void* const, void* const, const int)
FUNC 15561 c 0 _ValidateExecute(int (*)())
FUNC 15570 c 0 _ValidateRead(void const*, unsigned int)
FUNC 1557f c 0 _ValidateWrite(void*, unsigned int)
FUNC 1558e 10 0 __FrameHandler3::HandlerMap::begin()
FUNC 155a2 11 0 __FrameHandler3::HandlerMap::end()
FUNC 155b7 b 0 __FrameHandler3::getESTypes(_s_FuncInfo const*)
FUNC 155c4 e 0 __FrameHandler3::HandlerMap::getLastEntry()
FUNC 155d5 f 0 __FrameHandler3::getMagicNum(_s_FuncInfo const*)
FUNC 155e7 6 0 __FrameHandler3::TryBlockMap::getNumTryBlocks()
FUNC 155ed d 0 __FrameHandler3::isEHs(_s_FuncInfo const*)
FUNC 155fd 10 0 __FrameHandler3::isNoExcept(_s_FuncInfo const*)
FUNC 15611 d 0 std::exception::what() const
FUNC 15621 5 0 __BuildCatchObject(EHExceptionRecord*, void*, _s_HandlerType const*, _s_CatchableType const*)
FUNC 15626 9 0 __BuildCatchObjectHelper(EHExceptionRecord*, void*, _s_HandlerType const*, _s_CatchableType const*)
FUNC 15631 9 0 __TypeMatch(_s_HandlerType const*, _s_CatchableType const*, _s_ThrowInfo const*)
FUNC 1563c e 0 __vcrt_EncodePointer(void* const)
FUNC 15650 4c c _CallSettingFrame(unsigned long, unsigned long, unsigned long)
FUNC 156af 14 0 get_unexpected_or_default(__vcrt_ptd const* const)
FUNC 156c8 12 0 _get_unexpected()
FUNC 156de 1e 0 set_unexpected(void (*)())
FUNC 15703 1d 0 unexpected()
FUNC 15727 1d 0 __FrameHandler3::GetCurrentState(EHRegistrationNode*, void*, _s_FuncInfo const*)
FUNC 1574b e 0 __FrameHandler3::SetState(EHRegistrationNode*, _s_FuncInfo const*, int)
FUNC 1575c a0 0 __DestructExceptionObject(EHExceptionRecord*, unsigned char)
FUNC 15824 d 0 _CallMemberFunction0(void* const, void* const)
FUNC 15834 4 0 type_info::raw_name() const
FUNC 15838 26 0 _IsExceptionObjectToBeDestroyed(void*)
FUNC 15867 d 0 _SetWinRTOutOfMemoryExceptionCallback(void* (*)())
FUNC 15877 25 0 __AdjustPointer(void*, PMD const&)
FUNC 158a5 45 0 __FrameUnwindFilter(_EXCEPTION_POINTERS*)
FUNC 158fb 4c 0 __GetPlatformExceptionInfo(int*)
FUNC 1595a 9 0 __current_exception()
FUNC 15965 9 0 __current_exception_context()
FUNC 15970 9 0 __processing_throw()
FUNC 1597b 5 0 __std_terminate()
FUNC 15980 a4 0 _is_exception_typeof(type_info const&, _EXCEPTION_POINTERS*)
FUNC 15a4d 10 0 __crt_public_free_policy::operator()<char>(char const* const) const
FUNC 15a61 e 0 __crt_unique_heap_ptr<char,__crt_public_free_policy>::__crt_unique_heap_ptr<char,__crt_public_free_policy>(char* const)
FUNC 15a72 10 0 __crt_unique_heap_ptr<char,__crt_public_free_policy>::~__crt_unique_heap_ptr<char,__crt_public_free_policy>()
FUNC 15a86 7 0 __crt_unique_heap_ptr<char,__crt_public_free_policy>::operator bool() const
FUNC 15a8d 6 0 __crt_unique_heap_ptr<char,__crt_public_free_policy>::detach()
FUNC 15a93 3 0 __crt_unique_heap_ptr<char,__crt_public_free_policy>::get() const
FUNC 15a96 7 0 __crt_unique_heap_ptr<char,__crt_public_free_policy>::is_valid() const
FUNC 15a9d 10 0 __crt_unique_heap_ptr<char,__crt_public_free_policy>::release()
FUNC 15ab1 63 0 __std_exception_copy(__std_exception_data const*, __std_exception_data*)
FUNC 15b2c 1f 0 __std_exception_destroy(__std_exception_data*)
FUNC 15b52 6d 8 _CxxThrowException(void*, _s__ThrowInfo const*)
FUNC 15be0 574 0 memmove(unsigned char*, unsigned char*, unsigned long)
FUNC 162b1 16 0 __crt_fast_decode_pointer<void (__cdecl*)(wchar_t const *,wchar_t const *,wchar_t const *,unsigned int,unsigned int)>(void (* const)(wchar_t const*, wchar_t const*, wchar_t const*, unsigned int, unsigned int))
FUNC 162cc 1f 0 __crt_fast_encode_pointer<void (__cdecl*)(wchar_t const *,wchar_t const *,wchar_t const *,unsigned int,unsigned int)>(void (* const)(wchar_t const*, wchar_t const*, wchar_t const*, unsigned int, unsigned int))
FUNC 162f2 11 0 __crt_state_management::dual_state_global<void (__cdecl*)(wchar_t const *,wchar_t const *,wchar_t const *,unsigned int,unsigned int)>::initialize_from_array<void (__cdecl*[1])(wchar_t const *,wchar_t const *,wchar_t const *,unsigned int,unsigned int)>(void (* const)(wchar_t const*, wchar_t const*, wchar_t const*, unsigned int, unsigned int)[1]&)
FUNC 16307 3 0 __crt_state_management::dual_state_global<void (__cdecl*)(wchar_t const *,wchar_t const *,wchar_t const *,unsigned int,unsigned int)>::dangerous_get_state_array()
FUNC 1630a 3 0 __crt_state_management::get_current_state_index()
FUNC 1630d 3 0 __crt_state_management::dual_state_global<void (__cdecl*)(wchar_t const *,wchar_t const *,wchar_t const *,unsigned int,unsigned int)>::value()
FUNC 16310 139 0 __acrt_call_reportfault(int, unsigned long, unsigned long)
FUNC 16497 f 0 __acrt_initialize_invalid_parameter_handler(void*)
FUNC 164a9 13 0 _get_invalid_parameter_handler()
FUNC 164c0 11 0 _get_thread_local_invalid_parameter_handler()
FUNC 164d5 64 0 _invalid_parameter(wchar_t const* const, wchar_t const* const, wchar_t const* const, const unsigned int, const unsigned int)
FUNC 16552 10 0 _invalid_parameter_noinfo()
FUNC 16566 1d 0 _invalid_parameter_noinfo_noreturn()
FUNC 1658a 34 0 _invoke_watson(wchar_t const*, wchar_t const*, wchar_t const*, unsigned int, unsigned int)
FUNC 165cb 30 0 _set_invalid_parameter_handler(void (*)(wchar_t const*, wchar_t const*, wchar_t const*, unsigned int, unsigned int))
FUNC 16607 1d 0 _set_thread_local_invalid_parameter_handler(void (*)(wchar_t const*, wchar_t const*, wchar_t const*, unsigned int, unsigned int))
FUNC 1662b 45 0 _initterm(void (**)(), void (**)())
FUNC 16681 2e 0 _initterm_e(int (**)(), int (**)())
FUNC 166ba 1b 0 free(void*)
FUNC 166db 24 0 xcptlookup(const unsigned long, __crt_signal_action_t* const)
FUNC 16708 20 0 _seh_filter_dll(unsigned long, _EXCEPTION_POINTERS*)
FUNC 16730 158 0 _seh_filter_exe(unsigned long, _EXCEPTION_POINTERS*)
FUNC 168de 6 0 __crt_fast_encoded_nullptr_t::operator<void __stdcall(void *,unsigned long,void *)> void (__stdcall*)(void *,unsigned long,void *)() const
FUNC 168e4 4d 0 __crt_seh_guarded_call<void>::operator()<<lambda_03b1d95aef87969028cfba75ccab2455>,<lambda_6e4b09c48022b2350581041d5f6b0c4c> &,<lambda_22bdf7517842c4b3e53723af5aa32b9e> >(__acrt_lock_and_call::__l2::<lambda_03b1d95aef87969028cfba75ccab2455>&&, common_exit::__l2::<lambda_6e4b09c48022b2350581041d5f6b0c4c>&, __acrt_lock_and_call::__l2::<lambda_22bdf7517842c4b3e53723af5aa32b9e>&&)
FUNC 16944 26 0 __acrt_lock_and_call<<lambda_6e4b09c48022b2350581041d5f6b0c4c> >(const __acrt_lock_id, common_exit::__l2::<lambda_6e4b09c48022b2350581041d5f6b0c4c>&&)
FUNC 16973 16 0 __crt_fast_decode_pointer<void (__stdcall*)(void *,unsigned long,void *)>(void (* const)(void*, unsigned long, void*))
FUNC 1698e 1f 0 __crt_fast_encode_pointer<void (__stdcall*)(void *,unsigned long,void *)>(void (* const)(void*, unsigned long, void*))
FUNC 169b4 13 0 __crt_get_proc_address<void (__stdcall*)(unsigned int)>(HINSTANCE__* const, char const* const)
FUNC 169cb d 0 __crt_interlocked_read<long>(long const*)
FUNC 169db 12 0 <lambda_03b1d95aef87969028cfba75ccab2455>::<lambda_03b1d95aef87969028cfba75ccab2455>(__acrt_lock_id const&)
FUNC 169f1 12 0 <lambda_22bdf7517842c4b3e53723af5aa32b9e>::<lambda_22bdf7517842c4b3e53723af5aa32b9e>(__acrt_lock_id const&)
FUNC 16a07 1c 0 <lambda_6e4b09c48022b2350581041d5f6b0c4c>::<lambda_6e4b09c48022b2350581041d5f6b0c4c>(_crt_exit_cleanup_mode const&, _crt_exit_return_mode const&, bool&)
FUNC 16a2a 10 0 __crt_unique_handle_t<__crt_hmodule_traits>::__crt_unique_handle_t<__crt_hmodule_traits>(HINSTANCE__* const)
FUNC 16a3e 17 0 __crt_unique_handle_t<__crt_hmodule_traits>::~__crt_unique_handle_t<__crt_hmodule_traits>()
FUNC 16a5a 9 0 <lambda_03b1d95aef87969028cfba75ccab2455>::operator()() const
FUNC 16a65 9 0 <lambda_22bdf7517842c4b3e53723af5aa32b9e>::operator()() const
FUNC 16a70 da 0 <lambda_6e4b09c48022b2350581041d5f6b0c4c>::operator()() const
FUNC 16b80 4 0 __acrt_select_exit_lock()
FUNC 16b84 13 0 atexit_exception_filter(const unsigned long)
FUNC 16b9b 17 0 __crt_unique_handle_t<__crt_hmodule_traits>::close()
FUNC 16bb7 15 0 __crt_hmodule_traits::close(HINSTANCE__*)
FUNC 16bd1 64 0 common_exit(const int, const _crt_exit_cleanup_mode, const _crt_exit_return_mode)
FUNC 16c4e 42 0 exit_or_terminate_process(const unsigned int)
FUNC 16ca0 3 0 __crt_unique_handle_t<__crt_hmodule_traits>::get() const
FUNC 16ca3 3 0 __crt_unique_handle_t<__crt_hmodule_traits>::get_address_of()
FUNC 16ca6 3 0 __crt_hmodule_traits::get_invalid_value()
FUNC 16ca9 43 0 is_managed_app()
FUNC 16cfc 22 0 should_call_terminate_process()
FUNC 16d26 53 0 try_cor_exit_process(const unsigned int)
FUNC 16d8d 16 0 _Exit(int)
FUNC 16da8 f 0 __acrt_initialize_thread_local_exit_callback(void*)
FUNC 16dba f 0 _c_exit()
FUNC 16dcc f 0 _cexit()
FUNC 16dde 16 0 _exit(int)
FUNC 16df9 7 0 _is_c_termination_complete()
FUNC 16e00 26 0 _register_thread_local_exe_atexit_callback(void (*)(void*, unsigned long, void*))
FUNC 16e2f 16 0 exit(int)
FUNC 16e4a 16 0 quick_exit(int)
FUNC 16e65 12 0 __crt_internal_free_policy::operator()<unsigned char>(unsigned char const* const) const
FUNC 16e7b 12 0 __crt_internal_free_policy::operator()<char *>(char* const* const) const
FUNC 16e91 12 0 __crt_internal_free_policy::operator()<wchar_t *>(wchar_t* const* const) const
FUNC 16ea7 136 0 common_configure_argv<char>(const _crt_argv_mode)
FUNC 1702a 12f 0 common_configure_argv<wchar_t>(const _crt_argv_mode)
FUNC 171a4 1c 0 __crt_char_traits<char>::get_module_file_name<std::nullptr_t,char (&)[261],int>(void*&&, char[261]&, int&&)
FUNC 171c7 1a 0 __crt_char_traits<wchar_t>::get_module_file_name<std::nullptr_t,wchar_t (&)[261],int>(void*&&, wchar_t[261]&, int&&)
FUNC 171e7 177 0 parse_command_line<char>(char*, char**, char*, unsigned int*, unsigned int*)
FUNC 173bb 195 0 parse_command_line<wchar_t>(wchar_t*, wchar_t**, wchar_t*, unsigned int*, unsigned int*)
FUNC 175b5 11 0 __crt_char_traits<char>::set_program_name<char *>(char*&&)
FUNC 175ca 11 0 __crt_char_traits<wchar_t>::set_program_name<wchar_t *>(wchar_t*&&)
FUNC 175df 10 0 <lambda_a36aafc41185bea294aaaa3896c79ecc>::<lambda_a36aafc41185bea294aaaa3896c79ecc>(__crt_unique_heap_ptr<wchar_t *,__crt_internal_free_policy>&)
FUNC 175f3 10 0 <lambda_df1553121bfa390f1154bd84936f2730>::<lambda_df1553121bfa390f1154bd84936f2730>(__crt_unique_heap_ptr<char *,__crt_internal_free_policy>&)
FUNC 17607 10 0 __crt_unique_heap_ptr<unsigned char,__crt_internal_free_policy>::__crt_unique_heap_ptr<unsigned char,__crt_internal_free_policy>(unsigned char* const)
FUNC 1761b 10 0 __crt_unique_heap_ptr<char *,__crt_internal_free_policy>::__crt_unique_heap_ptr<char *,__crt_internal_free_policy>(char** const)
FUNC 1762f 10 0 __crt_unique_heap_ptr<wchar_t *,__crt_internal_free_policy>::__crt_unique_heap_ptr<wchar_t *,__crt_internal_free_policy>(wchar_t** const)
FUNC 17643 12 0 __crt_unique_heap_ptr<unsigned char,__crt_internal_free_policy>::~__crt_unique_heap_ptr<unsigned char,__crt_internal_free_policy>()
FUNC 17659 12 0 __crt_unique_heap_ptr<char *,__crt_internal_free_policy>::~__crt_unique_heap_ptr<char *,__crt_internal_free_policy>()
FUNC 1766f 12 0 __crt_unique_heap_ptr<wchar_t *,__crt_internal_free_policy>::~__crt_unique_heap_ptr<wchar_t *,__crt_internal_free_policy>()
FUNC 17685 7 0 __crt_unique_heap_ptr<unsigned char,__crt_internal_free_policy>::operator bool() const
FUNC 1768c 16 0 <lambda_a36aafc41185bea294aaaa3896c79ecc>::operator()() const
FUNC 176a7 16 0 <lambda_df1553121bfa390f1154bd84936f2730>::operator()() const
FUNC 176c2 6 0 __crt_unique_heap_ptr<unsigned char,__crt_internal_free_policy>::detach()
FUNC 176c8 6 0 __crt_unique_heap_ptr<char *,__crt_internal_free_policy>::detach()
FUNC 176ce 6 0 __crt_unique_heap_ptr<wchar_t *,__crt_internal_free_policy>::detach()
FUNC 176d4 5 0 do_locale_initialization(char)
FUNC 176d9 3 0 do_locale_initialization(wchar_t)
FUNC 176dc b 0 expand_argv_wildcards(char** const, char*** const)
FUNC 176e9 b 0 expand_argv_wildcards(wchar_t** const, wchar_t*** const)
FUNC 176f6 3 0 __crt_unique_heap_ptr<unsigned char,__crt_internal_free_policy>::get() const
FUNC 176f9 3 0 __crt_unique_heap_ptr<char *,__crt_internal_free_policy>::get() const
FUNC 176fc 3 0 __crt_unique_heap_ptr<wchar_t *,__crt_internal_free_policy>::get() const
FUNC 176ff 3 0 __crt_unique_heap_ptr<char *,__crt_internal_free_policy>::get_address_of()
FUNC 17702 3 0 __crt_unique_heap_ptr<wchar_t *,__crt_internal_free_policy>::get_address_of()
FUNC 17705 6 0 get_argv(char)
FUNC 1770b 6 0 get_argv(wchar_t)
FUNC 17711 6 0 get_command_line(char)
FUNC 17717 6 0 get_command_line(wchar_t)
FUNC 1771d 7 0 __crt_unique_heap_ptr<unsigned char,__crt_internal_free_policy>::is_valid() const
FUNC 17724 12 0 __crt_unique_heap_ptr<unsigned char,__crt_internal_free_policy>::release()
FUNC 1773a 12 0 __crt_unique_heap_ptr<char *,__crt_internal_free_policy>::release()
FUNC 17750 12 0 __crt_unique_heap_ptr<wchar_t *,__crt_internal_free_policy>::release()
FUNC 17766 17 0 should_copy_another_character(const char)
FUNC 17782 3 0 should_copy_another_character(wchar_t)
FUNC 17785 4f 0 __acrt_allocate_buffer_for_argv(unsigned int, unsigned int, unsigned int)
FUNC 177e7 b 0 _configure_narrow_argv(_crt_argv_mode)
FUNC 177f4 b 0 _configure_wide_argv(_crt_argv_mode)
FUNC 17801 f 0 _set_pgmptr(char*)
FUNC 17813 f 0 _set_wpgmptr(wchar_t*)
FUNC 17825 12 0 __crt_internal_free_policy::operator()<wchar_t>(wchar_t const* const) const
FUNC 1783b 14 0 common_get_initial_environment<char>()
FUNC 17854 14 0 common_get_initial_environment<wchar_t>()
FUNC 1786d 2c 0 common_get_or_create_environment_nolock<char>()
FUNC 178a4 2c 0 common_get_or_create_environment_nolock<wchar_t>()
FUNC 178db 53 0 common_initialize_environment_nolock<char>()
FUNC 17942 4e 0 common_initialize_environment_nolock<wchar_t>()
FUNC 179a3 34 0 count_variables_in_environment_block<char>(char* const)
FUNC 179e4 49 0 count_variables_in_environment_block<wchar_t>(wchar_t* const)
FUNC 17a3f d0 0 create_environment<char>(char* const)
FUNC 17b43 10d 0 create_environment<wchar_t>(wchar_t* const)
FUNC 17c93 2f 0 free_environment<char>(char** const)
FUNC 17ccd 2f 0 free_environment<wchar_t>(wchar_t** const)
FUNC 17d07 5 0 __crt_char_traits<char>::get_environment_from_os<>()
FUNC 17d0c 5 0 __crt_char_traits<wchar_t>::get_environment_from_os<>()
FUNC 17d11 83 0 initialize_environment_by_cloning_nolock<char>()
FUNC 17db4 7d 0 initialize_environment_by_cloning_nolock<wchar_t>()
FUNC 17e50 18 0 __crt_char_traits<char>::set_variable_in_environment_nolock<char *,int>(char*&&, int&&)
FUNC 17e6e 18 0 __crt_char_traits<wchar_t>::set_variable_in_environment_nolock<wchar_t *,int>(wchar_t*&&, int&&)
FUNC 17e8c 1e 0 __crt_char_traits<char>::tcscpy_s<char *,unsigned int const &,char * &>(char*&&, unsigned int const&, char*&)
FUNC 17eb1 1e 0 __crt_char_traits<wchar_t>::tcscpy_s<wchar_t *,unsigned int const &,wchar_t * &>(wchar_t*&&, unsigned int const&, wchar_t*&)
FUNC 17ed6 18 0 __crt_char_traits<char>::tcslen<char * &>(char*&)
FUNC 17ef4 1e 0 __crt_char_traits<wchar_t>::tcslen<wchar_t * &>(wchar_t*&)
FUNC 17f19 29 0 __crt_state_management::dual_state_global<char * *>::uninitialize<void (__cdecl&)(char * * &)>(void (&)(char**&))
FUNC 17f4c 29 0 __crt_state_management::dual_state_global<wchar_t * *>::uninitialize<void (__cdecl&)(wchar_t * * &)>(void (&)(wchar_t**&))
FUNC 17f7f 1b 0 uninitialize_environment_internal<char>(char**&)
FUNC 17fa0 1b 0 uninitialize_environment_internal<wchar_t>(wchar_t**&)
FUNC 17fc1 10 0 __crt_unique_heap_ptr<wchar_t,__crt_internal_free_policy>::__crt_unique_heap_ptr<wchar_t,__crt_internal_free_policy>(wchar_t* const)
FUNC 17fd5 12 0 __crt_unique_heap_ptr<wchar_t,__crt_internal_free_policy>::~__crt_unique_heap_ptr<wchar_t,__crt_internal_free_policy>()
FUNC 17feb 7 0 __crt_unique_heap_ptr<char *,__crt_internal_free_policy>::operator bool() const
FUNC 17ff2 7 0 __crt_unique_heap_ptr<wchar_t *,__crt_internal_free_policy>::operator bool() const
FUNC 17ff9 7 0 __crt_unique_heap_ptr<wchar_t,__crt_internal_free_policy>::operator bool() const
FUNC 18000 1c 0 __crt_compute_required_transform_buffer_count(const unsigned int, char const* const)
FUNC 18023 1e 0 __crt_compute_required_transform_buffer_count(const unsigned int, wchar_t const* const)
FUNC 18048 1f 0 __crt_transform_string(const unsigned int, char const* const, wchar_t* const, const unsigned int)
FUNC 1806e 22 0 __crt_transform_string(const unsigned int, wchar_t const* const, char* const, const unsigned int)
FUNC 18098 6 0 __crt_unique_heap_ptr<char,__crt_internal_free_policy>::detach()
FUNC 1809e 6 0 __crt_unique_heap_ptr<wchar_t,__crt_internal_free_policy>::detach()
FUNC 180a4 3 0 __crt_unique_heap_ptr<wchar_t,__crt_internal_free_policy>::get() const
FUNC 180a7 6 0 get_dual_state_environment_nolock(char)
FUNC 180ad 6 0 get_dual_state_environment_nolock(wchar_t)
FUNC 180b3 6 0 get_environment_nolock(char)
FUNC 180b9 6 0 get_environment_nolock(wchar_t)
FUNC 180bf 6 0 get_initial_environment(char)
FUNC 180c5 6 0 get_initial_environment(wchar_t)
FUNC 180cb 26 0 __crt_state_management::dual_state_global<char * *>::initialize(char** const)
FUNC 180fa 26 0 __crt_state_management::dual_state_global<wchar_t * *>::initialize(wchar_t** const)
FUNC 18129 7 0 __crt_unique_heap_ptr<char *,__crt_internal_free_policy>::is_valid() const
FUNC 18130 7 0 __crt_unique_heap_ptr<wchar_t *,__crt_internal_free_policy>::is_valid() const
FUNC 18137 7 0 __crt_unique_heap_ptr<wchar_t,__crt_internal_free_policy>::is_valid() const
FUNC 1813e 5 0 pre_initialize(char)
FUNC 18143 3 0 pre_initialize(wchar_t)
FUNC 18146 12 0 __crt_unique_heap_ptr<wchar_t,__crt_internal_free_policy>::release()
FUNC 1815c 3 0 __crt_state_management::dual_state_global<char * *>::value()
FUNC 1815f 3 0 __crt_state_management::dual_state_global<wchar_t * *>::value()
FUNC 18162 5 0 __dcrt_get_or_create_narrow_environment_nolock()
FUNC 18167 5 0 __dcrt_get_or_create_wide_environment_nolock()
FUNC 1816c 37 0 __dcrt_uninitialize_environments_nolock()
FUNC 181b0 6 0 __p__environ()
FUNC 181b6 6 0 __p__wenviron()
FUNC 181bc 14 0 _get_initial_narrow_environment()
FUNC 181d5 14 0 _get_initial_wide_environment()
FUNC 181ee 5 0 _initialize_narrow_environment()
FUNC 181f3 5 0 _initialize_wide_environment()
FUNC 181f8 22 0 _invoke_watson_if_error(int, wchar_t const*, wchar_t const*, wchar_t const*, unsigned int, unsigned int)
FUNC 18222 6 0 __crt_fast_encoded_nullptr_t::operator<void (__cdecl*)(void)> void (__cdecl**)(void)() const
FUNC 18228 12 0 __crt_internal_free_policy::operator()<void (__cdecl*)(void)>(void (* const* const)()) const
FUNC 1823e 5b 0 __crt_seh_guarded_call<int>::operator()<<lambda_69a2805e680e0e292e8ba93315fe43a8>,<lambda_f03950bc5685219e0bcd2087efbe011e> &,<lambda_03fcd07e894ec930e3f35da366ca99d6> >(__acrt_lock_and_call::__l2::<lambda_69a2805e680e0e292e8ba93315fe43a8>&&, _execute_onexit_table::__l2::<lambda_f03950bc5685219e0bcd2087efbe011e>&, __acrt_lock_and_call::__l2::<lambda_03fcd07e894ec930e3f35da366ca99d6>&&)
FUNC 182af 5b 0 __crt_seh_guarded_call<int>::operator()<<lambda_8e746cf0007f6ed984d6f78af1fec997>,<lambda_22ebabd17bc4fa466a2aca6d8deb888d> &,<lambda_18ed0c0b38a6dc0daf1e7ac6d6adf05e> >(__acrt_lock_and_call::__l2::<lambda_8e746cf0007f6ed984d6f78af1fec997>&&, _register_onexit_function::__l2::<lambda_22ebabd17bc4fa466a2aca6d8deb888d>&, __acrt_lock_and_call::__l2::<lambda_18ed0c0b38a6dc0daf1e7ac6d6adf05e>&&)
FUNC 18320 26 0 __acrt_lock_and_call<<lambda_22ebabd17bc4fa466a2aca6d8deb888d> >(const __acrt_lock_id, _register_onexit_function::__l2::<lambda_22ebabd17bc4fa466a2aca6d8deb888d>&&)
FUNC 1834f 26 0 __acrt_lock_and_call<<lambda_f03950bc5685219e0bcd2087efbe011e> >(const __acrt_lock_id, _execute_onexit_table::__l2::<lambda_f03950bc5685219e0bcd2087efbe011e>&&)
FUNC 1837e 1f 0 __crt_fast_encode_pointer<int (__cdecl*)(void)>(int (* const)())
FUNC 183a4 12 0 <lambda_03fcd07e894ec930e3f35da366ca99d6>::<lambda_03fcd07e894ec930e3f35da366ca99d6>(__acrt_lock_id const&)
FUNC 183ba 12 0 <lambda_18ed0c0b38a6dc0daf1e7ac6d6adf05e>::<lambda_18ed0c0b38a6dc0daf1e7ac6d6adf05e>(__acrt_lock_id const&)
FUNC 183d0 16 0 <lambda_22ebabd17bc4fa466a2aca6d8deb888d>::<lambda_22ebabd17bc4fa466a2aca6d8deb888d>(_onexit_table_t* const&, int (* const&)())
FUNC 183eb 12 0 <lambda_69a2805e680e0e292e8ba93315fe43a8>::<lambda_69a2805e680e0e292e8ba93315fe43a8>(__acrt_lock_id const&)
FUNC 18401 12 0 <lambda_8e746cf0007f6ed984d6f78af1fec997>::<lambda_8e746cf0007f6ed984d6f78af1fec997>(__acrt_lock_id const&)
FUNC 18417 10 0 <lambda_f03950bc5685219e0bcd2087efbe011e>::<lambda_f03950bc5685219e0bcd2087efbe011e>(_onexit_table_t* const&)
FUNC 1842b 10 0 __crt_unique_heap_ptr<void (__cdecl*)(void),__crt_internal_free_policy>::__crt_unique_heap_ptr<void (__cdecl*)(void),__crt_internal_free_policy>(void (** const)())
FUNC 1843f 12 0 __crt_unique_heap_ptr<void (__cdecl*)(void),__crt_internal_free_policy>::~__crt_unique_heap_ptr<void (__cdecl*)(void),__crt_internal_free_policy>()
FUNC 18455 3 0 __crt_state_management::scoped_global_state_reset::~scoped_global_state_reset()
FUNC 18458 9 0 <lambda_03fcd07e894ec930e3f35da366ca99d6>::operator()() const
FUNC 18463 9 0 <lambda_18ed0c0b38a6dc0daf1e7ac6d6adf05e>::operator()() const
FUNC 1846e 129 0 <lambda_22ebabd17bc4fa466a2aca6d8deb888d>::operator()() const
FUNC 185e1 9 0 <lambda_69a2805e680e0e292e8ba93315fe43a8>::operator()() const
FUNC 185ec 9 0 <lambda_8e746cf0007f6ed984d6f78af1fec997>::operator()() const
FUNC 185f7 da 0 <lambda_f03950bc5685219e0bcd2087efbe011e>::operator()() const
FUNC 18707 6 0 __crt_unique_heap_ptr<void (__cdecl*)(void),__crt_internal_free_policy>::detach()
FUNC 1870d 12 0 __crt_unique_heap_ptr<void (__cdecl*)(void),__crt_internal_free_policy>::release()
FUNC 18723 16 0 _crt_at_quick_exit(void (*)())
FUNC 1873e 16 0 _crt_atexit(void (*)())
FUNC 18759 2d 0 _execute_onexit_table(_onexit_table_t*)
FUNC 18791 29 0 _initialize_onexit_table(_onexit_table_t*)
FUNC 187c4 33 0 _register_onexit_function(_onexit_table_t*, int (*)())
FUNC 18803 3 0 report_memory_leaks(const bool)
FUNC 18806 d 0 initialize_global_variables()
FUNC 18816 1a 0 initialize_c()
FUNC 18836 3 0 uninitialize_c(bool)
FUNC 18839 3 0 initialize_environment()
FUNC 1883c 8 0 uninitialize_environment(const bool)
FUNC 18846 3 0 initialize_global_state_isolation()
FUNC 18849 3 0 uninitialize_global_state_isolation(const bool)
FUNC 1884c 2e 0 initialize_pointers()
FUNC 18885 9 0 uninitialize_vcruntime(const bool)
FUNC 18890 17 0 uninitialize_allocated_memory(const bool)
FUNC 188ac 50 0 uninitialize_allocated_io_buffers(const bool)
FUNC 18910 24 0 __crt_state_management::dual_state_global<__crt_multibyte_data *>::uninitialize<<lambda_af42a3ee9806e9a7305d451646e05244> >(uninitialize_allocated_memory::__l2::<lambda_af42a3ee9806e9a7305d451646e05244>&&)
FUNC 1893d 2e 0 <lambda_af42a3ee9806e9a7305d451646e05244>::operator()(__crt_multibyte_data*&) const
FUNC 18976 b 0 __acrt_stdio_is_initialized()
FUNC 18983 26 0 __crt_state_management::dual_state_global<__crt_locale_data *>::initialize(__crt_locale_data* const)
FUNC 189b2 12 0 __acrt_initialize()
FUNC 189c8 b 0 __acrt_thread_attach()
FUNC 189d5 8 0 __acrt_thread_detach()
FUNC 189df 30 0 __acrt_uninitialize(bool)
FUNC 18a1b 12 0 __acrt_uninitialize_critical(bool)
FUNC 18a31 16 0 get_terminate_or_default(__acrt_ptd const* const)
FUNC 18a4c 12 0 _get_terminate()
FUNC 18a62 20 0 set_terminate(void (*)())
FUNC 18a8a 3c 0 terminate()
FUNC 18ad5 b 0 malloc(unsigned int)
FUNC 18ae2 5a 0 common_tcscpy_s<char>(char* const, const unsigned int, char const* const)
FUNC 18b52 5a 0 strcpy_s(char*, unsigned int, char const*)
FUNC 18bc2 23 0 __crt_stdio_output::format_validation_base<char,__crt_stdio_output::stream_output_adapter<char> >::format_validation_base<char,__crt_stdio_output::stream_output_adapter<char> ><__crt_stdio_output::stream_output_adapter<char> const &,unsigned __int64 const &,char const * const &,__crt_locale_pointers * const &,char * const &>(__crt_stdio_output::stream_output_adapter<char> const&, unsigned long long const&, char const* const&, __crt_locale_pointers* const&, char* const&)
FUNC 18bed 48 0 __crt_stdio_output::positional_parameter_base<char,__crt_stdio_output::stream_output_adapter<char> >::positional_parameter_base<char,__crt_stdio_output::stream_output_adapter<char> ><__crt_stdio_output::stream_output_adapter<char> const &,unsigned __int64 const &,char const * const &,__crt_locale_pointers * const &,char * const &>(__crt_stdio_output::stream_output_adapter<char> const&, unsigned long long const&, char const* const&, __crt_locale_pointers* const&, char* const&)
FUNC 18c47 35 0 __crt_stdio_output::standard_base<char,__crt_stdio_output::stream_output_adapter<char> >::standard_base<char,__crt_stdio_output::stream_output_adapter<char> ><__crt_stdio_output::stream_output_adapter<char> const &,unsigned __int64 const &,char const * const &,__crt_locale_pointers * const &,char * const &>(__crt_stdio_output::stream_output_adapter<char> const&, unsigned long long const&, char const* const&, __crt_locale_pointers* const&, char* const&)
FUNC 18c89 23 0 __crt_stdio_output::format_validation_base<wchar_t,__crt_stdio_output::stream_output_adapter<wchar_t> >::format_validation_base<wchar_t,__crt_stdio_output::stream_output_adapter<wchar_t> ><__crt_stdio_output::stream_output_adapter<wchar_t> const &,unsigned __int64 const &,wchar_t const * const &,__crt_locale_pointers * const &,char * const &>(__crt_stdio_output::stream_output_adapter<wchar_t> const&, unsigned long long const&, wchar_t const* const&, __crt_locale_pointers* const&, char* const&)
FUNC 18cb4 48 0 __crt_stdio_output::positional_parameter_base<wchar_t,__crt_stdio_output::stream_output_adapter<wchar_t> >::positional_parameter_base<wchar_t,__crt_stdio_output::stream_output_adapter<wchar_t> ><__crt_stdio_output::stream_output_adapter<wchar_t> const &,unsigned __int64 const &,wchar_t const * const &,__crt_locale_pointers * const &,char * const &>(__crt_stdio_output::stream_output_adapter<wchar_t> const&, unsigned long long const&, wchar_t const* const&, __crt_locale_pointers* const&, char* const&)
FUNC 18d0e 35 0 __crt_stdio_output::standard_base<wchar_t,__crt_stdio_output::stream_output_adapter<wchar_t> >::standard_base<wchar_t,__crt_stdio_output::stream_output_adapter<wchar_t> ><__crt_stdio_output::stream_output_adapter<wchar_t> const &,unsigned __int64 const &,wchar_t const * const &,__crt_locale_pointers * const &,char * const &>(__crt_stdio_output::stream_output_adapter<wchar_t> const&, unsigned long long const&, wchar_t const* const&, __crt_locale_pointers* const&, char* const&)
FUNC 18d50 23 0 __crt_stdio_output::format_validation_base<char,__crt_stdio_output::string_output_adapter<char> >::format_validation_base<char,__crt_stdio_output::string_output_adapter<char> ><__crt_stdio_output::string_output_adapter<char> const &,unsigned __int64 const &,char const * const &,__crt_locale_pointers * const &,char * const &>(__crt_stdio_output::string_output_adapter<char> const&, unsigned long long const&, char const* const&, __crt_locale_pointers* const&, char* const&)
FUNC 18d7b 48 0 __crt_stdio_output::positional_parameter_base<char,__crt_stdio_output::string_output_adapter<char> >::positional_parameter_base<char,__crt_stdio_output::string_output_adapter<char> ><__crt_stdio_output::string_output_adapter<char> const &,unsigned __int64 const &,char const * const &,__crt_locale_pointers * const &,char * const &>(__crt_stdio_output::string_output_adapter<char> const&, unsigned long long const&, char const* const&, __crt_locale_pointers* const&, char* const&)
FUNC 18dd5 35 0 __crt_stdio_output::standard_base<char,__crt_stdio_output::string_output_adapter<char> >::standard_base<char,__crt_stdio_output::string_output_adapter<char> ><__crt_stdio_output::string_output_adapter<char> const &,unsigned __int64 const &,char const * const &,__crt_locale_pointers * const &,char * const &>(__crt_stdio_output::string_output_adapter<char> const&, unsigned long long const&, char const* const&, __crt_locale_pointers* const&, char* const&)
FUNC 18e17 23 0 __crt_stdio_output::format_validation_base<wchar_t,__crt_stdio_output::string_output_adapter<wchar_t> >::format_validation_base<wchar_t,__crt_stdio_output::string_output_adapter<wchar_t> ><__crt_stdio_output::string_output_adapter<wchar_t> const &,unsigned __int64 const &,wchar_t const * const &,__crt_locale_pointers * const &,char * const &>(__crt_stdio_output::string_output_adapter<wchar_t> const&, unsigned long long const&, wchar_t const* const&, __crt_locale_pointers* const&, char* const&)
FUNC 18e42 48 0 __crt_stdio_output::positional_parameter_base<wchar_t,__crt_stdio_output::string_output_adapter<wchar_t> >::positional_parameter_base<wchar_t,__crt_stdio_output::string_output_adapter<wchar_t> ><__crt_stdio_output::string_output_adapter<wchar_t> const &,unsigned __int64 const &,wchar_t const * const &,__crt_locale_pointers * const &,char * const &>(__crt_stdio_output::string_output_adapter<wchar_t> const&, unsigned long long const&, wchar_t const* const&, __crt_locale_pointers* const&, char* const&)
FUNC 18e9c 35 0 __crt_stdio_output::standard_base<wchar_t,__crt_stdio_output::string_output_adapter<wchar_t> >::standard_base<wchar_t,__crt_stdio_output::string_output_adapter<wchar_t> ><__crt_stdio_output::string_output_adapter<wchar_t> const &,unsigned __int64 const &,wchar_t const * const &,__crt_locale_pointers * const &,char * const &>(__crt_stdio_output::string_output_adapter<wchar_t> const&, unsigned long long const&, wchar_t const* const&, __crt_locale_pointers* const&, char* const&)
FUNC 18ede 5b 0 __crt_seh_guarded_call<int>::operator()<<lambda_3cfd252a7c5e244e8f20fc56fe35ebe9>,<lambda_d7427dbf72509eba5fa970998bac2a27> &,<lambda_8f55a0afecd2292d47fde3ce68e72492> >(__acrt_lock_stream_and_call::__l2::<lambda_3cfd252a7c5e244e8f20fc56fe35ebe9>&&, common_vfprintf::__l2::<lambda_d7427dbf72509eba5fa970998bac2a27>&, __acrt_lock_stream_and_call::__l2::<lambda_8f55a0afecd2292d47fde3ce68e72492>&&)
FUNC 18f4f 5b 0 __crt_seh_guarded_call<int>::operator()<<lambda_5d912c5eb12d68f7685796d855ab8da6>,<lambda_81587a929b95143618da2bd798ca9df2> &,<lambda_bfd63e08e93a545639db6d324cf10d1a> >(__acrt_lock_stream_and_call::__l2::<lambda_5d912c5eb12d68f7685796d855ab8da6>&&, common_vfprintf::__l2::<lambda_81587a929b95143618da2bd798ca9df2>&, __acrt_lock_stream_and_call::__l2::<lambda_bfd63e08e93a545639db6d324cf10d1a>&&)
FUNC 18fc0 5b 0 __crt_seh_guarded_call<int>::operator()<<lambda_9b2bd5c6bb91c5c032542faa5c3cb611>,<lambda_be68057ced330f874c40fe9612235e36> &,<lambda_dbd837d1c0b7fc6e2d81c287c81c071b> >(__acrt_lock_stream_and_call::__l2::<lambda_9b2bd5c6bb91c5c032542faa5c3cb611>&&, common_vfprintf::__l2::<lambda_be68057ced330f874c40fe9612235e36>&, __acrt_lock_stream_and_call::__l2::<lambda_dbd837d1c0b7fc6e2d81c287c81c071b>&&)
FUNC 19031 5b 0 __crt_seh_guarded_call<int>::operator()<<lambda_ba8264b40644a42074cedf043e7aa388>,<lambda_9dc9bc4853282e051506c0cc602abcf3> &,<lambda_1c412e3457517a614fb7d0c137686c95> >(__acrt_lock_stream_and_call::__l2::<lambda_ba8264b40644a42074cedf043e7aa388>&&, common_vfprintf::__l2::<lambda_9dc9bc4853282e051506c0cc602abcf3>&, __acrt_lock_stream_and_call::__l2::<lambda_1c412e3457517a614fb7d0c137686c95>&&)
FUNC 190a2 5b 0 __crt_seh_guarded_call<int>::operator()<<lambda_c29ee0499b841886b80d843682cc403a>,<lambda_0be4ab1c2a6918fda4e39227d83ea893> &,<lambda_5a3ed3da325c8ea037a470278c0f2d16> >(__acrt_lock_stream_and_call::__l2::<lambda_c29ee0499b841886b80d843682cc403a>&&, common_vfprintf::__l2::<lambda_0be4ab1c2a6918fda4e39227d83ea893>&, __acrt_lock_stream_and_call::__l2::<lambda_5a3ed3da325c8ea037a470278c0f2d16>&&)
FUNC 19113 5b 0 __crt_seh_guarded_call<int>::operator()<<lambda_cae121c7667f229345c68b3f32b19755>,<lambda_b09925f738b1434f525bf50d3162636f> &,<lambda_18d67e1eeb4dde13899af949c649d933> >(__acrt_lock_stream_and_call::__l2::<lambda_cae121c7667f229345c68b3f32b19755>&&, common_vfprintf::__l2::<lambda_b09925f738b1434f525bf50d3162636f>&, __acrt_lock_stream_and_call::__l2::<lambda_18d67e1eeb4dde13899af949c649d933>&&)
FUNC 19184 26 0 __acrt_lock_stream_and_call<<lambda_0be4ab1c2a6918fda4e39227d83ea893> >(_iobuf* const, common_vfprintf::__l2::<lambda_0be4ab1c2a6918fda4e39227d83ea893>&&)
FUNC 191b3 26 0 __acrt_lock_stream_and_call<<lambda_81587a929b95143618da2bd798ca9df2> >(_iobuf* const, common_vfprintf::__l2::<lambda_81587a929b95143618da2bd798ca9df2>&&)
FUNC 191e2 26 0 __acrt_lock_stream_and_call<<lambda_9dc9bc4853282e051506c0cc602abcf3> >(_iobuf* const, common_vfprintf::__l2::<lambda_9dc9bc4853282e051506c0cc602abcf3>&&)
FUNC 19211 26 0 __acrt_lock_stream_and_call<<lambda_b09925f738b1434f525bf50d3162636f> >(_iobuf* const, common_vfprintf::__l2::<lambda_b09925f738b1434f525bf50d3162636f>&&)
FUNC 19240 26 0 __acrt_lock_stream_and_call<<lambda_be68057ced330f874c40fe9612235e36> >(_iobuf* const, common_vfprintf::__l2::<lambda_be68057ced330f874c40fe9612235e36>&&)
FUNC 1926f 26 0 __acrt_lock_stream_and_call<<lambda_d7427dbf72509eba5fa970998bac2a27> >(_iobuf* const, common_vfprintf::__l2::<lambda_d7427dbf72509eba5fa970998bac2a27>&&)
FUNC 1929e 64 0 common_vfprintf<__crt_stdio_output::format_validation_base,char>(const unsigned long long, _iobuf* const, char const* const, __crt_locale_pointers* const, char* const)
FUNC 1931b 64 0 common_vfprintf<__crt_stdio_output::format_validation_base,wchar_t>(const unsigned long long, _iobuf* const, wchar_t const* const, __crt_locale_pointers* const, char* const)
FUNC 19398 64 0 common_vfprintf<__crt_stdio_output::positional_parameter_base,char>(const unsigned long long, _iobuf* const, char const* const, __crt_locale_pointers* const, char* const)
FUNC 19415 64 0 common_vfprintf<__crt_stdio_output::positional_parameter_base,wchar_t>(const unsigned long long, _iobuf* const, wchar_t const* const, __crt_locale_pointers* const, char* const)
FUNC 19492 64 0 common_vfprintf<__crt_stdio_output::standard_base,char>(const unsigned long long, _iobuf* const, char const* const, __crt_locale_pointers* const, char* const)
FUNC 1950f 64 0 common_vfprintf<__crt_stdio_output::standard_base,wchar_t>(const unsigned long long, _iobuf* const, wchar_t const* const, __crt_locale_pointers* const, char* const)
FUNC 1958c e8 0 common_vsnprintf_s<char>(const unsigned long long, char* const, const unsigned int, const unsigned int, char const* const, __crt_locale_pointers* const, char* const)
FUNC 196ae ec 0 common_vsnprintf_s<wchar_t>(const unsigned long long, wchar_t* const, const unsigned int, const unsigned int, wchar_t const* const, __crt_locale_pointers* const, char* const)
FUNC 197d5 17e 0 common_vsprintf<__crt_stdio_output::format_validation_base,char>(const unsigned long long, char* const, const unsigned int, char const* const, __crt_locale_pointers* const, char* const)
FUNC 199b2 187 0 common_vsprintf<__crt_stdio_output::format_validation_base,wchar_t>(const unsigned long long, wchar_t* const, const unsigned int, wchar_t const* const, __crt_locale_pointers* const, char* const)
FUNC 19b9a 1b0 0 common_vsprintf<__crt_stdio_output::positional_parameter_base,char>(const unsigned long long, char* const, const unsigned int, char const* const, __crt_locale_pointers* const, char* const)
FUNC 19db6 1b9 0 common_vsprintf<__crt_stdio_output::positional_parameter_base,wchar_t>(const unsigned long long, wchar_t* const, const unsigned int, wchar_t const* const, __crt_locale_pointers* const, char* const)
FUNC 19fdd 17e 0 common_vsprintf<__crt_stdio_output::standard_base,char>(const unsigned long long, char* const, const unsigned int, char const* const, __crt_locale_pointers* const, char* const)
FUNC 1a1ba 187 0 common_vsprintf<__crt_stdio_output::standard_base,wchar_t>(const unsigned long long, wchar_t* const, const unsigned int, wchar_t const* const, __crt_locale_pointers* const, char* const)
FUNC 1a3a2 78 0 common_vsprintf_s<char>(const unsigned long long, char* const, const unsigned int, char const* const, __crt_locale_pointers* const, char* const)
FUNC 1a438 7a 0 common_vsprintf_s<wchar_t>(const unsigned long long, wchar_t* const, const unsigned int, wchar_t const* const, __crt_locale_pointers* const, char* const)
FUNC 1a4d0 18 0 __crt_stdio_output::formatting_buffer::count<char>() const
FUNC 1a4ee 19 0 __crt_stdio_output::formatting_buffer::count<wchar_t>() const
FUNC 1a50d d 0 __crt_stdio_output::formatting_buffer::data<char>()
FUNC 1a51d d 0 __crt_stdio_output::formatting_buffer::data<wchar_t>()
FUNC 1a52d 7d 0 __crt_stdio_output::formatting_buffer::ensure_buffer_is_big_enough<char>(const unsigned int)
FUNC 1a5c9 7e 0 __crt_stdio_output::formatting_buffer::ensure_buffer_is_big_enough<wchar_t>(const unsigned int)
FUNC 1a666 79 0 __crt_stdio_output::positional_parameter_base<char,__crt_stdio_output::stream_output_adapter<char> >::extract_argument_from_va_list<signed char,__int64>(long long&)
FUNC 1a6fd 79 0 __crt_stdio_output::positional_parameter_base<char,__crt_stdio_output::string_output_adapter<char> >::extract_argument_from_va_list<signed char,__int64>(long long&)
FUNC 1a794 79 0 __crt_stdio_output::positional_parameter_base<wchar_t,__crt_stdio_output::stream_output_adapter<wchar_t> >::extract_argument_from_va_list<signed char,__int64>(long long&)
FUNC 1a82b 79 0 __crt_stdio_output::positional_parameter_base<wchar_t,__crt_stdio_output::string_output_adapter<wchar_t> >::extract_argument_from_va_list<signed char,__int64>(long long&)
FUNC 1a8c2 1f 0 __crt_stdio_output::standard_base<char,__crt_stdio_output::stream_output_adapter<char> >::extract_argument_from_va_list<signed char,__int64>(long long&)
FUNC 1a8e8 1f 0 __crt_stdio_output::standard_base<char,__crt_stdio_output::string_output_adapter<char> >::extract_argument_from_va_list<signed char,__int64>(long long&)
FUNC 1a90e 1f 0 __crt_stdio_output::standard_base<wchar_t,__crt_stdio_output::stream_output_adapter<wchar_t> >::extract_argument_from_va_list<signed char,__int64>(long long&)
FUNC 1a934 1f 0 __crt_stdio_output::standard_base<wchar_t,__crt_stdio_output::string_output_adapter<wchar_t> >::extract_argument_from_va_list<signed char,__int64>(long long&)
FUNC 1a95a 79 0 __crt_stdio_output::positional_parameter_base<char,__crt_stdio_output::stream_output_adapter<char> >::extract_argument_from_va_list<unsigned char,__int64>(long long&)
FUNC 1a9f1 79 0 __crt_stdio_output::positional_parameter_base<char,__crt_stdio_output::string_output_adapter<char> >::extract_argument_from_va_list<unsigned char,__int64>(long long&)
FUNC 1aa88 79 0 __crt_stdio_output::positional_parameter_base<wchar_t,__crt_stdio_output::stream_output_adapter<wchar_t> >::extract_argument_from_va_list<unsigned char,__int64>(long long&)
FUNC 1ab1f 79 0 __crt_stdio_output::positional_parameter_base<wchar_t,__crt_stdio_output::string_output_adapter<wchar_t> >::extract_argument_from_va_list<unsigned char,__int64>(long long&)
FUNC 1abb6 1f 0 __crt_stdio_output::standard_base<char,__crt_stdio_output::stream_output_adapter<char> >::extract_argument_from_va_list<unsigned char,__int64>(long long&)
FUNC 1abdc 1f 0 __crt_stdio_output::standard_base<char,__crt_stdio_output::string_output_adapter<char> >::extract_argument_from_va_list<unsigned char,__int64>(long long&)
FUNC 1ac02 1f 0 __crt_stdio_output::standard_base<wchar_t,__crt_stdio_output::stream_output_adapter<wchar_t> >::extract_argument_from_va_list<unsigned char,__int64>(long long&)
FUNC 1ac28 1f 0 __crt_stdio_output::standard_base<wchar_t,__crt_stdio_output::string_output_adapter<wchar_t> >::extract_argument_from_va_list<unsigned char,__int64>(long long&)
FUNC 1ac4e 79 0 __crt_stdio_output::positional_parameter_base<char,__crt_stdio_output::stream_output_adapter<char> >::extract_argument_from_va_list<short,__int64>(long long&)
FUNC 1ace5 79 0 __crt_stdio_output::positional_parameter_base<char,__crt_stdio_output::string_output_adapter<char> >::extract_argument_from_va_list<short,__int64>(long long&)
FUNC 1ad7c 79 0 __crt_stdio_output::positional_parameter_base<wchar_t,__crt_stdio_output::stream_output_adapter<wchar_t> >::extract_argument_from_va_list<short,__int64>(long long&)
FUNC 1ae13 79 0 __crt_stdio_output::positional_parameter_base<wchar_t,__crt_stdio_output::string_output_adapter<wchar_t> >::extract_argument_from_va_list<short,__int64>(long long&)
FUNC 1aeaa 1f 0 __crt_stdio_output::standard_base<char,__crt_stdio_output::stream_output_adapter<char> >::extract_argument_from_va_list<short,__int64>(long long&)
FUNC 1aed0 1f 0 __crt_stdio_output::standard_base<char,__crt_stdio_output::string_output_adapter<char> >::extract_argument_from_va_list<short,__int64>(long long&)
FUNC 1aef6 1f 0 __crt_stdio_output::standard_base<wchar_t,__crt_stdio_output::stream_output_adapter<wchar_t> >::extract_argument_from_va_list<short,__int64>(long long&)
FUNC 1af1c 1f 0 __crt_stdio_output::standard_base<wchar_t,__crt_stdio_output::string_output_adapter<wchar_t> >::extract_argument_from_va_list<short,__int64>(long long&)
FUNC 1af42 78 0 __crt_stdio_output::positional_parameter_base<char,__crt_stdio_output::stream_output_adapter<char> >::extract_argument_from_va_list<unsigned short,char>(char&)
FUNC 1afd8 78 0 __crt_stdio_output::positional_parameter_base<char,__crt_stdio_output::string_output_adapter<char> >::extract_argument_from_va_list<unsigned short,char>(char&)
FUNC 1b06e 1a 0 __crt_stdio_output::standard_base<char,__crt_stdio_output::stream_output_adapter<char> >::extract_argument_from_va_list<unsigned short,char>(char&)
FUNC 1b08e 1a 0 __crt_stdio_output::standard_base<char,__crt_stdio_output::string_output_adapter<char> >::extract_argument_from_va_list<unsigned short,char>(char&)
FUNC 1b0ae 79 0 __crt_stdio_output::positional_parameter_base<char,__crt_stdio_output::stream_output_adapter<char> >::extract_argument_from_va_list<unsigned short,__int64>(long long&)
FUNC 1b145 79 0 __crt_stdio_output::positional_parameter_base<char,__crt_stdio_output::string_output_adapter<char> >::extract_argument_from_va_list<unsigned short,__int64>(long long&)
FUNC 1b1dc 79 0 __crt_stdio_output::positional_parameter_base<wchar_t,__crt_stdio_output::stream_output_adapter<wchar_t> >::extract_argument_from_va_list<unsigned short,__int64>(long long&)
FUNC 1b273 79 0 __crt_stdio_output::positional_parameter_base<wchar_t,__crt_stdio_output::string_output_adapter<wchar_t> >::extract_argument_from_va_list<unsigned short,__int64>(long long&)
FUNC 1b30a 1f 0 __crt_stdio_output::standard_base<char,__crt_stdio_output::stream_output_adapter<char> >::extract_argument_from_va_list<unsigned short,__int64>(long long&)
FUNC 1b330 1f 0 __crt_stdio_output::standard_base<char,__crt_stdio_output::string_output_adapter<char> >::extract_argument_from_va_list<unsigned short,__int64>(long long&)
FUNC 1b356 1f 0 __crt_stdio_output::standard_base<wchar_t,__crt_stdio_output::stream_output_adapter<wchar_t> >::extract_argument_from_va_list<unsigned short,__int64>(long long&)
FUNC 1b37c 1f 0 __crt_stdio_output::standard_base<wchar_t,__crt_stdio_output::string_output_adapter<wchar_t> >::extract_argument_from_va_list<unsigned short,__int64>(long long&)
FUNC 1b3a2 77 0 __crt_stdio_output::positional_parameter_base<char,__crt_stdio_output::stream_output_adapter<char> >::extract_argument_from_va_list<int,__int64>(long long&)
FUNC 1b436 77 0 __crt_stdio_output::positional_parameter_base<char,__crt_stdio_output::string_output_adapter<char> >::extract_argument_from_va_list<int,__int64>(long long&)
FUNC 1b4ca 77 0 __crt_stdio_output::positional_parameter_base<wchar_t,__crt_stdio_output::stream_output_adapter<wchar_t> >::extract_argument_from_va_list<int,__int64>(long long&)
FUNC 1b55e 77 0 __crt_stdio_output::positional_parameter_base<wchar_t,__crt_stdio_output::string_output_adapter<wchar_t> >::extract_argument_from_va_list<int,__int64>(long long&)
FUNC 1b5f2 1e 0 __crt_stdio_output::standard_base<char,__crt_stdio_output::stream_output_adapter<char> >::extract_argument_from_va_list<int,__int64>(long long&)
FUNC 1b617 1e 0 __crt_stdio_output::standard_base<char,__crt_stdio_output::string_output_adapter<char> >::extract_argument_from_va_list<int,__int64>(long long&)
FUNC 1b63c 1e 0 __crt_stdio_output::standard_base<wchar_t,__crt_stdio_output::stream_output_adapter<wchar_t> >::extract_argument_from_va_list<int,__int64>(long long&)
FUNC 1b661 1e 0 __crt_stdio_output::standard_base<wchar_t,__crt_stdio_output::string_output_adapter<wchar_t> >::extract_argument_from_va_list<int,__int64>(long long&)
FUNC 1b686 80 0 __crt_stdio_output::positional_parameter_base<char,__crt_stdio_output::stream_output_adapter<char> >::extract_argument_from_va_list<unsigned int,__int64>(long long&)
FUNC 1b726 80 0 __crt_stdio_output::positional_parameter_base<char,__crt_stdio_output::string_output_adapter<char> >::extract_argument_from_va_list<unsigned int,__int64>(long long&)
FUNC 1b7c6 80 0 __crt_stdio_output::positional_parameter_base<wchar_t,__crt_stdio_output::stream_output_adapter<wchar_t> >::extract_argument_from_va_list<unsigned int,__int64>(long long&)
FUNC 1b866 80 0 __crt_stdio_output::positional_parameter_base<wchar_t,__crt_stdio_output::string_output_adapter<wchar_t> >::extract_argument_from_va_list<unsigned int,__int64>(long long&)
FUNC 1b906 1e 0 __crt_stdio_output::standard_base<char,__crt_stdio_output::stream_output_adapter<char> >::extract_argument_from_va_list<unsigned int,__int64>(long long&)
FUNC 1b92b 1e 0 __crt_stdio_output::standard_base<char,__crt_stdio_output::string_output_adapter<char> >::extract_argument_from_va_list<unsigned int,__int64>(long long&)
FUNC 1b950 1e 0 __crt_stdio_output::standard_base<wchar_t,__crt_stdio_output::stream_output_adapter<wchar_t> >::extract_argument_from_va_list<unsigned int,__int64>(long long&)
FUNC 1b975 1e 0 __crt_stdio_output::standard_base<wchar_t,__crt_stdio_output::string_output_adapter<wchar_t> >::extract_argument_from_va_list<unsigned int,__int64>(long long&)
FUNC 1b99a 78 0 __crt_stdio_output::positional_parameter_base<char,__crt_stdio_output::stream_output_adapter<char> >::extract_argument_from_va_list<char *,char *>(char*&)
FUNC 1ba30 78 0 __crt_stdio_output::positional_parameter_base<char,__crt_stdio_output::string_output_adapter<char> >::extract_argument_from_va_list<char *,char *>(char*&)
FUNC 1bac6 78 0 __crt_stdio_output::positional_parameter_base<wchar_t,__crt_stdio_output::stream_output_adapter<wchar_t> >::extract_argument_from_va_list<char *,char *>(char*&)
FUNC 1bb5c 78 0 __crt_stdio_output::positional_parameter_base<wchar_t,__crt_stdio_output::string_output_adapter<wchar_t> >::extract_argument_from_va_list<char *,char *>(char*&)
FUNC 1bbf2 1a 0 __crt_stdio_output::standard_base<char,__crt_stdio_output::stream_output_adapter<char> >::extract_argument_from_va_list<char *,char *>(char*&)
FUNC 1bc12 1a 0 __crt_stdio_output::standard_base<char,__crt_stdio_output::string_output_adapter<char> >::extract_argument_from_va_list<char *,char *>(char*&)
FUNC 1bc32 1a 0 __crt_stdio_output::standard_base<wchar_t,__crt_stdio_output::stream_output_adapter<wchar_t> >::extract_argument_from_va_list<char *,char *>(char*&)
FUNC 1bc52 1a 0 __crt_stdio_output::standard_base<wchar_t,__crt_stdio_output::string_output_adapter<wchar_t> >::extract_argument_from_va_list<char *,char *>(char*&)
FUNC 1bc72 1a 0 __crt_stdio_output::standard_base<char,__crt_stdio_output::stream_output_adapter<char> >::extract_argument_from_va_list<`__crt_stdio_output::output_processor<char,__crt_stdio_output::stream_output_adapter<char>,__crt_stdio_output::format_validation_base<char,__crt_stdio_output::stream_output_adapter<char> > >::type_case_Z'::`2'::ansi_string *,`__crt_stdio_output::output_processor<char,__crt_stdio_output::stream_output_adapter<char>,__crt_stdio_output::format_validation_base<char,__crt_stdio_output::stream_output_adapter<char> > >::type_case_Z'::`2'::ansi_string *>(__crt_stdio_output::output_processor<char,__crt_stdio_output::stream_output_adapter<char>,__crt_stdio_output::format_validation_base<char,__crt_stdio_output::stream_output_adapter<char> > >::type_case_Z::__l2::ansi_string*&)
FUNC 1bc92 78 0 __crt_stdio_output::positional_parameter_base<char,__crt_stdio_output::stream_output_adapter<char> >::extract_argument_from_va_list<`__crt_stdio_output::output_processor<char,__crt_stdio_output::stream_output_adapter<char>,__crt_stdio_output::positional_parameter_base<char,__crt_stdio_output::stream_output_adapter<char> > >::type_case_Z'::`2'::ansi_string *,`__crt_stdio_output::output_processor<char,__crt_stdio_output::stream_output_adapter<char>,__crt_stdio_output::positional_parameter_base<char,__crt_stdio_output::stream_output_adapter<char> > >::type_case_Z'::`2'::ansi_string *>(__crt_stdio_output::output_processor<char,__crt_stdio_output::stream_output_adapter<char>,__crt_stdio_output::positional_parameter_base<char,__crt_stdio_output::stream_output_adapter<char> > >::type_case_Z::__l2::ansi_string*&)
FUNC 1bd28 1a 0 __crt_stdio_output::standard_base<char,__crt_stdio_output::stream_output_adapter<char> >::extract_argument_from_va_list<`__crt_stdio_output::output_processor<char,__crt_stdio_output::stream_output_adapter<char>,__crt_stdio_output::positional_parameter_base<char,__crt_stdio_output::stream_output_adapter<char> > >::type_case_Z'::`2'::ansi_string *,`__crt_stdio_output::output_processor<char,__crt_stdio_output::stream_output_adapter<char>,__crt_stdio_output::positional_parameter_base<char,__crt_stdio_output::stream_output_adapter<char> > >::type_case_Z'::`2'::ansi_string *>(__crt_stdio_output::output_processor<char,__crt_stdio_output::stream_output_adapter<char>,__crt_stdio_output::positional_parameter_base<char,__crt_stdio_output::stream_output_adapter<char> > >::type_case_Z::__l2::ansi_string*&)
FUNC 1bd48 1a 0 __crt_stdio_output::standard_base<char,__crt_stdio_output::stream_output_adapter<char> >::extract_argument_from_va_list<`__crt_stdio_output::output_processor<char,__crt_stdio_output::stream_output_adapter<char>,__crt_stdio_output::standard_base<char,__crt_stdio_output::stream_output_adapter<char> > >::type_case_Z'::`2'::ansi_string *,`__crt_stdio_output::output_processor<char,__crt_stdio_output::stream_output_adapter<char>,__crt_stdio_output::standard_base<char,__crt_stdio_output::stream_output_adapter<char> > >::type_case_Z'::`2'::ansi_string *>(__crt_stdio_output::output_processor<char,__crt_stdio_output::stream_output_adapter<char>,__crt_stdio_output::standard_base<char,__crt_stdio_output::stream_output_adapter<char> > >::type_case_Z::__l2::ansi_string*&)
FUNC 1bd68 1a 0 __crt_stdio_output::standard_base<char,__crt_stdio_output::string_output_adapter<char> >::extract_argument_from_va_list<`__crt_stdio_output::output_processor<char,__crt_stdio_output::string_output_adapter<char>,__crt_stdio_output::format_validation_base<char,__crt_stdio_output::string_output_adapter<char> > >::type_case_Z'::`2'::ansi_string *,`__crt_stdio_output::output_processor<char,__crt_stdio_output::string_output_adapter<char>,__crt_stdio_output::format_validation_base<char,__crt_stdio_output::string_output_adapter<char> > >::type_case_Z'::`2'::ansi_string *>(__crt_stdio_output::output_processor<char,__crt_stdio_output::string_output_adapter<char>,__crt_stdio_output::format_validation_base<char,__crt_stdio_output::string_output_adapter<char> > >::type_case_Z::__l2::ansi_string*&)
FUNC 1bd88 78 0 __crt_stdio_output::positional_parameter_base<char,__crt_stdio_output::string_output_adapter<char> >::extract_argument_from_va_list<`__crt_stdio_output::output_processor<char,__crt_stdio_output::string_output_adapter<char>,__crt_stdio_output::positional_parameter_base<char,__crt_stdio_output::string_output_adapter<char> > >::type_case_Z'::`2'::ansi_string *,`__crt_stdio_output::output_processor<char,__crt_stdio_output::string_output_adapter<char>,__crt_stdio_output::positional_parameter_base<char,__crt_stdio_output::string_output_adapter<char> > >::type_case_Z'::`2'::ansi_string *>(__crt_stdio_output::output_processor<char,__crt_stdio_output::string_output_adapter<char>,__crt_stdio_output::positional_parameter_base<char,__crt_stdio_output::string_output_adapter<char> > >::type_case_Z::__l2::ansi_string*&)
FUNC 1be1e 1a 0 __crt_stdio_output::standard_base<char,__crt_stdio_output::string_output_adapter<char> >::extract_argument_from_va_list<`__crt_stdio_output::output_processor<char,__crt_stdio_output::string_output_adapter<char>,__crt_stdio_output::positional_parameter_base<char,__crt_stdio_output::string_output_adapter<char> > >::type_case_Z'::`2'::ansi_string *,`__crt_stdio_output::output_processor<char,__crt_stdio_output::string_output_adapter<char>,__crt_stdio_output::positional_parameter_base<char,__crt_stdio_output::string_output_adapter<char> > >::type_case_Z'::`2'::ansi_string *>(__crt_stdio_output::output_processor<char,__crt_stdio_output::string_output_adapter<char>,__crt_stdio_output::positional_parameter_base<char,__crt_stdio_output::string_output_adapter<char> > >::type_case_Z::__l2::ansi_string*&)
FUNC 1be3e 1a 0 __crt_stdio_output::standard_base<char,__crt_stdio_output::string_output_adapter<char> >::extract_argument_from_va_list<`__crt_stdio_output::output_processor<char,__crt_stdio_output::string_output_adapter<char>,__crt_stdio_output::standard_base<char,__crt_stdio_output::string_output_adapter<char> > >::type_case_Z'::`2'::ansi_string *,`__crt_stdio_output::output_processor<char,__crt_stdio_output::string_output_adapter<char>,__crt_stdio_output::standard_base<char,__crt_stdio_output::string_output_adapter<char> > >::type_case_Z'::`2'::ansi_string *>(__crt_stdio_output::output_processor<char,__crt_stdio_output::string_output_adapter<char>,__crt_stdio_output::standard_base<char,__crt_stdio_output::string_output_adapter<char> > >::type_case_Z::__l2::ansi_string*&)
FUNC 1be5e 1a 0 __crt_stdio_output::standard_base<wchar_t,__crt_stdio_output::stream_output_adapter<wchar_t> >::extract_argument_from_va_list<`__crt_stdio_output::output_processor<wchar_t,__crt_stdio_output::stream_output_adapter<wchar_t>,__crt_stdio_output::format_validation_base<wchar_t,__crt_stdio_output::stream_output_adapter<wchar_t> > >::type_case_Z'::`2'::ansi_string *,`__crt_stdio_output::output_processor<wchar_t,__crt_stdio_output::stream_output_adapter<wchar_t>,__crt_stdio_output::format_validation_base<wchar_t,__crt_stdio_output::stream_output_adapter<wchar_t> > >::type_case_Z'::`2'::ansi_string *>(__crt_stdio_output::output_processor<wchar_t,__crt_stdio_output::stream_output_adapter<wchar_t>,__crt_stdio_output::format_validation_base<wchar_t,__crt_stdio_output::stream_output_adapter<wchar_t> > >::type_case_Z::__l2::ansi_string*&)
FUNC 1be7e 78 0 __crt_stdio_output::positional_parameter_base<wchar_t,__crt_stdio_output::stream_output_adapter<wchar_t> >::extract_argument_from_va_list<`__crt_stdio_output::output_processor<wchar_t,__crt_stdio_output::stream_output_adapter<wchar_t>,__crt_stdio_output::positional_parameter_base<wchar_t,__crt_stdio_output::stream_output_adapter<wchar_t> > >::type_case_Z'::`2'::ansi_string *,`__crt_stdio_output::output_processor<wchar_t,__crt_stdio_output::stream_output_adapter<wchar_t>,__crt_stdio_output::positional_parameter_base<wchar_t,__crt_stdio_output::stream_output_adapter<wchar_t> > >::type_case_Z'::`2'::ansi_string *>(__crt_stdio_output::output_processor<wchar_t,__crt_stdio_output::stream_output_adapter<wchar_t>,__crt_stdio_output::positional_parameter_base<wchar_t,__crt_stdio_output::stream_output_adapter<wchar_t> > >::type_case_Z::__l2::ansi_string*&)
FUNC 1bf14 1a 0 __crt_stdio_output::standard_base<wchar_t,__crt_stdio_output::stream_output_adapter<wchar_t> >::extract_argument_from_va_list<`__crt_stdio_output::output_processor<wchar_t,__crt_stdio_output::stream_output_adapter<wchar_t>,__crt_stdio_output::positional_parameter_base<wchar_t,__crt_stdio_output::stream_output_adapter<wchar_t> > >::type_case_Z'::`2'::ansi_string *,`__crt_stdio_output::output_processor<wchar_t,__crt_stdio_output::stream_output_adapter<wchar_t>,__crt_stdio_output::positional_parameter_base<wchar_t,__crt_stdio_output::stream_output_adapter<wchar_t> > >::type_case_Z'::`2'::ansi_string *>(__crt_stdio_output::output_processor<wchar_t,__crt_stdio_output::stream_output_adapter<wchar_t>,__crt_stdio_output::positional_parameter_base<wchar_t,__crt_stdio_output::stream_output_adapter<wchar_t> > >::type_case_Z::__l2::ansi_string*&)
FUNC 1bf34 1a 0 __crt_stdio_output::standard_base<wchar_t,__crt_stdio_output::stream_output_adapter<wchar_t> >::extract_argument_from_va_list<`__crt_stdio_output::output_processor<wchar_t,__crt_stdio_output::stream_output_adapter<wchar_t>,__crt_stdio_output::standard_base<wchar_t,__crt_stdio_output::stream_output_adapter<wchar_t> > >::type_case_Z'::`2'::ansi_string *,`__crt_stdio_output::output_processor<wchar_t,__crt_stdio_output::stream_output_adapter<wchar_t>,__crt_stdio_output::standard_base<wchar_t,__crt_stdio_output::stream_output_adapter<wchar_t> > >::type_case_Z'::`2'::ansi_string *>(__crt_stdio_output::output_processor<wchar_t,__crt_stdio_output::stream_output_adapter<wchar_t>,__crt_stdio_output::standard_base<wchar_t,__crt_stdio_output::stream_output_adapter<wchar_t> > >::type_case_Z::__l2::ansi_string*&)
FUNC 1bf54 1a 0 __crt_stdio_output::standard_base<wchar_t,__crt_stdio_output::string_output_adapter<wchar_t> >::extract_argument_from_va_list<`__crt_stdio_output::output_processor<wchar_t,__crt_stdio_output::string_output_adapter<wchar_t>,__crt_stdio_output::format_validation_base<wchar_t,__crt_stdio_output::string_output_adapter<wchar_t> > >::type_case_Z'::`2'::ansi_string *,`__crt_stdio_output::output_processor<wchar_t,__crt_stdio_output::string_output_adapter<wchar_t>,__crt_stdio_output::format_validation_base<wchar_t,__crt_stdio_output::string_output_adapter<wchar_t> > >::type_case_Z'::`2'::ansi_string *>(__crt_stdio_output::output_processor<wchar_t,__crt_stdio_output::string_output_adapter<wchar_t>,__crt_stdio_output::format_validation_base<wchar_t,__crt_stdio_output::string_output_adapter<wchar_t> > >::type_case_Z::__l2::ansi_string*&)
FUNC 1bf74 78 0 __crt_stdio_output::positional_parameter_base<wchar_t,__crt_stdio_output::string_output_adapter<wchar_t> >::extract_argument_from_va_list<`__crt_stdio_output::output_processor<wchar_t,__crt_stdio_output::string_output_adapter<wchar_t>,__crt_stdio_output::positional_parameter_base<wchar_t,__crt_stdio_output::string_output_adapter<wchar_t> > >::type_case_Z'::`2'::ansi_string *,`__crt_stdio_output::output_processor<wchar_t,__crt_stdio_output::string_output_adapter<wchar_t>,__crt_stdio_output::positional_parameter_base<wchar_t,__crt_stdio_output::string_output_adapter<wchar_t> > >::type_case_Z'::`2'::ansi_string *>(__crt_stdio_output::output_processor<wchar_t,__crt_stdio_output::string_output_adapter<wchar_t>,__crt_stdio_output::positional_parameter_base<wchar_t,__crt_stdio_output::string_output_adapter<wchar_t> > >::type_case_Z::__l2::ansi_string*&)
FUNC 1c00a 1a 0 __crt_stdio_output::standard_base<wchar_t,__crt_stdio_output::string_output_adapter<wchar_t> >::extract_argument_from_va_list<`__crt_stdio_output::output_processor<wchar_t,__crt_stdio_output::string_output_adapter<wchar_t>,__crt_stdio_output::positional_parameter_base<wchar_t,__crt_stdio_output::string_output_adapter<wchar_t> > >::type_case_Z'::`2'::ansi_string *,`__crt_stdio_output::output_processor<wchar_t,__crt_stdio_output::string_output_adapter<wchar_t>,__crt_stdio_output::positional_parameter_base<wchar_t,__crt_stdio_output::string_output_adapter<wchar_t> > >::type_case_Z'::`2'::ansi_string *>(__crt_stdio_output::output_processor<wchar_t,__crt_stdio_output::string_output_adapter<wchar_t>,__crt_stdio_output::positional_parameter_base<wchar_t,__crt_stdio_output::string_output_adapter<wchar_t> > >::type_case_Z::__l2::ansi_string*&)
FUNC 1c02a 1a 0 __crt_stdio_output::standard_base<wchar_t,__crt_stdio_output::string_output_adapter<wchar_t> >::extract_argument_from_va_list<`__crt_stdio_output::output_processor<wchar_t,__crt_stdio_output::string_output_adapter<wchar_t>,__crt_stdio_output::standard_base<wchar_t,__crt_stdio_output::string_output_adapter<wchar_t> > >::type_case_Z'::`2'::ansi_string *,`__crt_stdio_output::output_processor<wchar_t,__crt_stdio_output::string_output_adapter<wchar_t>,__crt_stdio_output::standard_base<wchar_t,__crt_stdio_output::string_output_adapter<wchar_t> > >::type_case_Z'::`2'::ansi_string *>(__crt_stdio_output::output_processor<wchar_t,__crt_stdio_output::string_output_adapter<wchar_t>,__crt_stdio_output::standard_base<wchar_t,__crt_stdio_output::string_output_adapter<wchar_t> > >::type_case_Z::__l2::ansi_string*&)
FUNC 1c04a 78 0 __crt_stdio_output::positional_parameter_base<char,__crt_stdio_output::stream_output_adapter<char> >::extract_argument_from_va_list<void *,void *>(void*&)
FUNC 1c0e0 78 0 __crt_stdio_output::positional_parameter_base<char,__crt_stdio_output::string_output_adapter<char> >::extract_argument_from_va_list<void *,void *>(void*&)
FUNC 1c176 78 0 __crt_stdio_output::positional_parameter_base<wchar_t,__crt_stdio_output::stream_output_adapter<wchar_t> >::extract_argument_from_va_list<void *,void *>(void*&)
FUNC 1c20c 78 0 __crt_stdio_output::positional_parameter_base<wchar_t,__crt_stdio_output::string_output_adapter<wchar_t> >::extract_argument_from_va_list<void *,void *>(void*&)
FUNC 1c2a2 1a 0 __crt_stdio_output::standard_base<char,__crt_stdio_output::stream_output_adapter<char> >::extract_argument_from_va_list<void *,void *>(void*&)
FUNC 1c2c2 1a 0 __crt_stdio_output::standard_base<char,__crt_stdio_output::string_output_adapter<char> >::extract_argument_from_va_list<void *,void *>(void*&)
FUNC 1c2e2 1a 0 __crt_stdio_output::standard_base<wchar_t,__crt_stdio_output::stream_output_adapter<wchar_t> >::extract_argument_from_va_list<void *,void *>(void*&)
FUNC 1c302 1a 0 __crt_stdio_output::standard_base<wchar_t,__crt_stdio_output::string_output_adapter<wchar_t> >::extract_argument_from_va_list<void *,void *>(void*&)
FUNC 1c322 86 0 __crt_stdio_output::positional_parameter_base<char,__crt_stdio_output::stream_output_adapter<char> >::extract_argument_from_va_list<_CRT_DOUBLE,_CRT_DOUBLE>(_CRT_DOUBLE&)
FUNC 1c3c9 86 0 __crt_stdio_output::positional_parameter_base<char,__crt_stdio_output::string_output_adapter<char> >::extract_argument_from_va_list<_CRT_DOUBLE,_CRT_DOUBLE>(_CRT_DOUBLE&)
FUNC 1c470 86 0 __crt_stdio_output::positional_parameter_base<wchar_t,__crt_stdio_output::stream_output_adapter<wchar_t> >::extract_argument_from_va_list<_CRT_DOUBLE,_CRT_DOUBLE>(_CRT_DOUBLE&)
FUNC 1c517 86 0 __crt_stdio_output::positional_parameter_base<wchar_t,__crt_stdio_output::string_output_adapter<wchar_t> >::extract_argument_from_va_list<_CRT_DOUBLE,_CRT_DOUBLE>(_CRT_DOUBLE&)
FUNC 1c5be 20 0 __crt_stdio_output::standard_base<char,__crt_stdio_output::stream_output_adapter<char> >::extract_argument_from_va_list<_CRT_DOUBLE,_CRT_DOUBLE>(_CRT_DOUBLE&)
FUNC 1c5e6 20 0 __crt_stdio_output::standard_base<char,__crt_stdio_output::string_output_adapter<char> >::extract_argument_from_va_list<_CRT_DOUBLE,_CRT_DOUBLE>(_CRT_DOUBLE&)
FUNC 1c60e 20 0 __crt_stdio_output::standard_base<wchar_t,__crt_stdio_output::stream_output_adapter<wchar_t> >::extract_argument_from_va_list<_CRT_DOUBLE,_CRT_DOUBLE>(_CRT_DOUBLE&)
FUNC 1c636 20 0 __crt_stdio_output::standard_base<wchar_t,__crt_stdio_output::string_output_adapter<wchar_t> >::extract_argument_from_va_list<_CRT_DOUBLE,_CRT_DOUBLE>(_CRT_DOUBLE&)
FUNC 1c65e 86 0 __crt_stdio_output::positional_parameter_base<char,__crt_stdio_output::stream_output_adapter<char> >::extract_argument_from_va_list<__int64,__int64>(long long&)
FUNC 1c705 86 0 __crt_stdio_output::positional_parameter_base<char,__crt_stdio_output::string_output_adapter<char> >::extract_argument_from_va_list<__int64,__int64>(long long&)
FUNC 1c7ac 86 0 __crt_stdio_output::positional_parameter_base<wchar_t,__crt_stdio_output::stream_output_adapter<wchar_t> >::extract_argument_from_va_list<__int64,__int64>(long long&)
FUNC 1c853 86 0 __crt_stdio_output::positional_parameter_base<wchar_t,__crt_stdio_output::string_output_adapter<wchar_t> >::extract_argument_from_va_list<__int64,__int64>(long long&)
FUNC 1c8fa 20 0 __crt_stdio_output::standard_base<char,__crt_stdio_output::stream_output_adapter<char> >::extract_argument_from_va_list<__int64,__int64>(long long&)
FUNC 1c922 20 0 __crt_stdio_output::standard_base<char,__crt_stdio_output::string_output_adapter<char> >::extract_argument_from_va_list<__int64,__int64>(long long&)
FUNC 1c94a 20 0 __crt_stdio_output::standard_base<wchar_t,__crt_stdio_output::stream_output_adapter<wchar_t> >::extract_argument_from_va_list<__int64,__int64>(long long&)
FUNC 1c972 20 0 __crt_stdio_output::standard_base<wchar_t,__crt_stdio_output::string_output_adapter<wchar_t> >::extract_argument_from_va_list<__int64,__int64>(long long&)
FUNC 1c99a 86 0 __crt_stdio_output::positional_parameter_base<char,__crt_stdio_output::stream_output_adapter<char> >::extract_argument_from_va_list<unsigned __int64,__int64>(long long&)
FUNC 1ca41 86 0 __crt_stdio_output::positional_parameter_base<char,__crt_stdio_output::string_output_adapter<char> >::extract_argument_from_va_list<unsigned __int64,__int64>(long long&)
FUNC 1cae8 86 0 __crt_stdio_output::positional_parameter_base<wchar_t,__crt_stdio_output::stream_output_adapter<wchar_t> >::extract_argument_from_va_list<unsigned __int64,__int64>(long long&)
FUNC 1cb8f 86 0 __crt_stdio_output::positional_parameter_base<wchar_t,__crt_stdio_output::string_output_adapter<wchar_t> >::extract_argument_from_va_list<unsigned __int64,__int64>(long long&)
FUNC 1cc36 20 0 __crt_stdio_output::standard_base<char,__crt_stdio_output::stream_output_adapter<char> >::extract_argument_from_va_list<unsigned __int64,__int64>(long long&)
FUNC 1cc5e 20 0 __crt_stdio_output::standard_base<char,__crt_stdio_output::string_output_adapter<char> >::extract_argument_from_va_list<unsigned __int64,__int64>(long long&)
FUNC 1cc86 20 0 __crt_stdio_output::standard_base<wchar_t,__crt_stdio_output::stream_output_adapter<wchar_t> >::extract_argument_from_va_list<unsigned __int64,__int64>(long long&)
FUNC 1ccae 20 0 __crt_stdio_output::standard_base<wchar_t,__crt_stdio_output::string_output_adapter<wchar_t> >::extract_argument_from_va_list<unsigned __int64,__int64>(long long&)
FUNC 1ccd6 7c 0 __crt_stdio_output::positional_parameter_base<char,__crt_stdio_output::stream_output_adapter<char> >::extract_argument_from_va_list<wchar_t,wchar_t>(wchar_t&)
FUNC 1cd71 7c 0 __crt_stdio_output::positional_parameter_base<char,__crt_stdio_output::string_output_adapter<char> >::extract_argument_from_va_list<wchar_t,wchar_t>(wchar_t&)
FUNC 1ce0c 7c 0 __crt_stdio_output::positional_parameter_base<wchar_t,__crt_stdio_output::stream_output_adapter<wchar_t> >::extract_argument_from_va_list<wchar_t,wchar_t>(wchar_t&)
FUNC 1cea7 7c 0 __crt_stdio_output::positional_parameter_base<wchar_t,__crt_stdio_output::string_output_adapter<wchar_t> >::extract_argument_from_va_list<wchar_t,wchar_t>(wchar_t&)
FUNC 1cf42 1c 0 __crt_stdio_output::standard_base<char,__crt_stdio_output::stream_output_adapter<char> >::extract_argument_from_va_list<wchar_t,wchar_t>(wchar_t&)
FUNC 1cf65 1c 0 __crt_stdio_output::standard_base<char,__crt_stdio_output::string_output_adapter<char> >::extract_argument_from_va_list<wchar_t,wchar_t>(wchar_t&)
FUNC 1cf88 1c 0 __crt_stdio_output::standard_base<wchar_t,__crt_stdio_output::stream_output_adapter<wchar_t> >::extract_argument_from_va_list<wchar_t,wchar_t>(wchar_t&)
FUNC 1cfab 1c 0 __crt_stdio_output::standard_base<wchar_t,__crt_stdio_output::string_output_adapter<wchar_t> >::extract_argument_from_va_list<wchar_t,wchar_t>(wchar_t&)
FUNC 1cfce 4 0 __crt_stdio_output::positional_parameter_base<char,__crt_stdio_output::stream_output_adapter<char> >::get_parameter_type<char>(char*)
FUNC 1cfd2 4 0 __crt_stdio_output::positional_parameter_base<char,__crt_stdio_output::string_output_adapter<char> >::get_parameter_type<char>(char*)
FUNC 1cfd6 4 0 __crt_stdio_output::positional_parameter_base<wchar_t,__crt_stdio_output::stream_output_adapter<wchar_t> >::get_parameter_type<char>(char*)
FUNC 1cfda 4 0 __crt_stdio_output::positional_parameter_base<wchar_t,__crt_stdio_output::string_output_adapter<wchar_t> >::get_parameter_type<char>(char*)
FUNC 1cfde 4 0 __crt_stdio_output::positional_parameter_base<char,__crt_stdio_output::stream_output_adapter<char> >::get_parameter_type<`__crt_stdio_output::output_processor<char,__crt_stdio_output::stream_output_adapter<char>,__crt_stdio_output::positional_parameter_base<char,__crt_stdio_output::stream_output_adapter<char> > >::type_case_Z'::`2'::ansi_string>(__crt_stdio_output::output_processor<char,__crt_stdio_output::stream_output_adapter<char>,__crt_stdio_output::positional_parameter_base<char,__crt_stdio_output::stream_output_adapter<char> > >::type_case_Z::__l2::ansi_string*)
FUNC 1cfe2 4 0 __crt_stdio_output::positional_parameter_base<char,__crt_stdio_output::string_output_adapter<char> >::get_parameter_type<`__crt_stdio_output::output_processor<char,__crt_stdio_output::string_output_adapter<char>,__crt_stdio_output::positional_parameter_base<char,__crt_stdio_output::string_output_adapter<char> > >::type_case_Z'::`2'::ansi_string>(__crt_stdio_output::output_processor<char,__crt_stdio_output::string_output_adapter<char>,__crt_stdio_output::positional_parameter_base<char,__crt_stdio_output::string_output_adapter<char> > >::type_case_Z::__l2::ansi_string*)
FUNC 1cfe6 4 0 __crt_stdio_output::positional_parameter_base<wchar_t,__crt_stdio_output::stream_output_adapter<wchar_t> >::get_parameter_type<`__crt_stdio_output::output_processor<wchar_t,__crt_stdio_output::stream_output_adapter<wchar_t>,__crt_stdio_output::positional_parameter_base<wchar_t,__crt_stdio_output::stream_output_adapter<wchar_t> > >::type_case_Z'::`2'::ansi_string>(__crt_stdio_output::output_processor<wchar_t,__crt_stdio_output::stream_output_adapter<wchar_t>,__crt_stdio_output::positional_parameter_base<wchar_t,__crt_stdio_output::stream_output_adapter<wchar_t> > >::type_case_Z::__l2::ansi_string*)
FUNC 1cfea 4 0 __crt_stdio_output::positional_parameter_base<wchar_t,__crt_stdio_output::string_output_adapter<wchar_t> >::get_parameter_type<`__crt_stdio_output::output_processor<wchar_t,__crt_stdio_output::string_output_adapter<wchar_t>,__crt_stdio_output::positional_parameter_base<wchar_t,__crt_stdio_output::string_output_adapter<wchar_t> > >::type_case_Z'::`2'::ansi_string>(__crt_stdio_output::output_processor<wchar_t,__crt_stdio_output::string_output_adapter<wchar_t>,__crt_stdio_output::positional_parameter_base<wchar_t,__crt_stdio_output::string_output_adapter<wchar_t> > >::type_case_Z::__l2::ansi_string*)
FUNC 1cfee 4 0 __crt_stdio_output::positional_parameter_base<char,__crt_stdio_output::stream_output_adapter<char> >::get_parameter_type<void>(void*)
FUNC 1cff2 4 0 __crt_stdio_output::positional_parameter_base<char,__crt_stdio_output::string_output_adapter<char> >::get_parameter_type<void>(void*)
FUNC 1cff6 4 0 __crt_stdio_output::positional_parameter_base<wchar_t,__crt_stdio_output::stream_output_adapter<wchar_t> >::get_parameter_type<void>(void*)
FUNC 1cffa 4 0 __crt_stdio_output::positional_parameter_base<wchar_t,__crt_stdio_output::string_output_adapter<wchar_t> >::get_parameter_type<void>(void*)
FUNC 1cffe 18 0 __crt_stdio_output::positional_parameter_base<char,__crt_stdio_output::stream_output_adapter<char> >::is_character_specifier<char>(const char)
FUNC 1d01c 18 0 __crt_stdio_output::positional_parameter_base<char,__crt_stdio_output::string_output_adapter<char> >::is_character_specifier<char>(const char)
FUNC 1d03a 1b 0 __crt_stdio_output::positional_parameter_base<wchar_t,__crt_stdio_output::stream_output_adapter<wchar_t> >::is_character_specifier<wchar_t>(const wchar_t)
FUNC 1d05b 1b 0 __crt_stdio_output::positional_parameter_base<wchar_t,__crt_stdio_output::string_output_adapter<wchar_t> >::is_character_specifier<wchar_t>(const wchar_t)
FUNC 1d07c 2c 0 __crt_stdio_output::positional_parameter_base<char,__crt_stdio_output::stream_output_adapter<char> >::is_integral_specifier<char>(const char)
FUNC 1d0b3 2c 0 __crt_stdio_output::positional_parameter_base<char,__crt_stdio_output::string_output_adapter<char> >::is_integral_specifier<char>(const char)
FUNC 1d0ea 3b 0 __crt_stdio_output::positional_parameter_base<wchar_t,__crt_stdio_output::stream_output_adapter<wchar_t> >::is_integral_specifier<wchar_t>(const wchar_t)
FUNC 1d133 3b 0 __crt_stdio_output::positional_parameter_base<wchar_t,__crt_stdio_output::string_output_adapter<wchar_t> >::is_integral_specifier<wchar_t>(const wchar_t)
FUNC 1d17c e 0 __crt_stdio_output::positional_parameter_base<char,__crt_stdio_output::stream_output_adapter<char> >::is_pointer_specifier<char>(const char)
FUNC 1d18d e 0 __crt_stdio_output::positional_parameter_base<char,__crt_stdio_output::string_output_adapter<char> >::is_pointer_specifier<char>(const char)
FUNC 1d19e f 0 __crt_stdio_output::positional_parameter_base<wchar_t,__crt_stdio_output::stream_output_adapter<wchar_t> >::is_pointer_specifier<wchar_t>(const wchar_t)
FUNC 1d1b0 f 0 __crt_stdio_output::positional_parameter_base<wchar_t,__crt_stdio_output::string_output_adapter<wchar_t> >::is_pointer_specifier<wchar_t>(const wchar_t)
FUNC 1d1c2 18 0 __crt_stdio_output::positional_parameter_base<char,__crt_stdio_output::stream_output_adapter<char> >::is_string_specifier<char>(const char)
FUNC 1d1e0 18 0 __crt_stdio_output::positional_parameter_base<char,__crt_stdio_output::string_output_adapter<char> >::is_string_specifier<char>(const char)
FUNC 1d1fe 1b 0 __crt_stdio_output::positional_parameter_base<wchar_t,__crt_stdio_output::stream_output_adapter<wchar_t> >::is_string_specifier<wchar_t>(const wchar_t)
FUNC 1d21f 1b 0 __crt_stdio_output::positional_parameter_base<wchar_t,__crt_stdio_output::string_output_adapter<wchar_t> >::is_string_specifier<wchar_t>(const wchar_t)
FUNC 1d240 31 0 __crt_stdio_output::is_wide_character_specifier<char>(const unsigned long long, const char, const __crt_stdio_output::length_modifier)
FUNC 1d27d 4e 0 __crt_stdio_output::is_wide_character_specifier<wchar_t>(const unsigned long long, const wchar_t, const __crt_stdio_output::length_modifier)
FUNC 1d2de c 0 __crt_stdio_output::peek_va_arg<signed char>(char*)
FUNC 1d2ed c 0 __crt_stdio_output::peek_va_arg<unsigned char>(char*)
FUNC 1d2fc d 0 __crt_stdio_output::peek_va_arg<short>(char*)
FUNC 1d30c d 0 __crt_stdio_output::peek_va_arg<unsigned short>(char*)
FUNC 1d31c c 0 __crt_stdio_output::peek_va_arg<int>(char*)
FUNC 1d32b c 0 __crt_stdio_output::peek_va_arg<unsigned int>(char*)
FUNC 1d33a c 0 __crt_stdio_output::peek_va_arg<char *>(char*)
FUNC 1d349 c 0 __crt_stdio_output::peek_va_arg<`__crt_stdio_output::output_processor<char,__crt_stdio_output::stream_output_adapter<char>,__crt_stdio_output::positional_parameter_base<char,__crt_stdio_output::stream_output_adapter<char> > >::type_case_Z'::`2'::ansi_string *>(char*)
FUNC 1d358 c 0 __crt_stdio_output::peek_va_arg<`__crt_stdio_output::output_processor<char,__crt_stdio_output::string_output_adapter<char>,__crt_stdio_output::positional_parameter_base<char,__crt_stdio_output::string_output_adapter<char> > >::type_case_Z'::`2'::ansi_string *>(char*)
FUNC 1d367 c 0 __crt_stdio_output::peek_va_arg<`__crt_stdio_output::output_processor<wchar_t,__crt_stdio_output::stream_output_adapter<wchar_t>,__crt_stdio_output::positional_parameter_base<wchar_t,__crt_stdio_output::stream_output_adapter<wchar_t> > >::type_case_Z'::`2'::ansi_string *>(char*)
FUNC 1d376 c 0 __crt_stdio_output::peek_va_arg<`__crt_stdio_output::output_processor<wchar_t,__crt_stdio_output::string_output_adapter<wchar_t>,__crt_stdio_output::positional_parameter_base<wchar_t,__crt_stdio_output::string_output_adapter<wchar_t> > >::type_case_Z'::`2'::ansi_string *>(char*)
FUNC 1d385 c 0 __crt_stdio_output::peek_va_arg<void *>(char*)
FUNC 1d394 f 0 __crt_stdio_output::peek_va_arg<_CRT_DOUBLE>(char*)
FUNC 1d3a6 f 0 __crt_stdio_output::peek_va_arg<__int64>(char*)
FUNC 1d3b8 f 0 __crt_stdio_output::peek_va_arg<unsigned __int64>(char*)
FUNC 1d3ca d 0 __crt_stdio_output::peek_va_arg<wchar_t>(char*)
FUNC 1d3da 1a 0 __crt_char_traits<char>::puttc_nolock<char const &,_iobuf *>(char const&, _iobuf*&&)
FUNC 1d3fa 1a 0 __crt_char_traits<wchar_t>::puttc_nolock<wchar_t const &,_iobuf *>(wchar_t const&, _iobuf*&&)
FUNC 1d41a 12 0 __crt_stdio_output::read_va_arg<signed char>(char*&)
FUNC 1d430 12 0 __crt_stdio_output::read_va_arg<unsigned char>(char*&)
FUNC 1d446 13 0 __crt_stdio_output::read_va_arg<short>(char*&)
FUNC 1d45d 13 0 __crt_stdio_output::read_va_arg<unsigned short>(char*&)
FUNC 1d474 12 0 __crt_stdio_output::read_va_arg<int>(char*&)
FUNC 1d48a 12 0 __crt_stdio_output::read_va_arg<unsigned int>(char*&)
FUNC 1d4a0 12 0 __crt_stdio_output::read_va_arg<char *>(char*&)
FUNC 1d4b6 12 0 __crt_stdio_output::read_va_arg<`__crt_stdio_output::output_processor<char,__crt_stdio_output::stream_output_adapter<char>,__crt_stdio_output::format_validation_base<char,__crt_stdio_output::stream_output_adapter<char> > >::type_case_Z'::`2'::ansi_string *>(char*&)
FUNC 1d4cc 12 0 __crt_stdio_output::read_va_arg<`__crt_stdio_output::output_processor<char,__crt_stdio_output::stream_output_adapter<char>,__crt_stdio_output::positional_parameter_base<char,__crt_stdio_output::stream_output_adapter<char> > >::type_case_Z'::`2'::ansi_string *>(char*&)
FUNC 1d4e2 12 0 __crt_stdio_output::read_va_arg<`__crt_stdio_output::output_processor<char,__crt_stdio_output::stream_output_adapter<char>,__crt_stdio_output::standard_base<char,__crt_stdio_output::stream_output_adapter<char> > >::type_case_Z'::`2'::ansi_string *>(char*&)
FUNC 1d4f8 12 0 __crt_stdio_output::read_va_arg<`__crt_stdio_output::output_processor<char,__crt_stdio_output::string_output_adapter<char>,__crt_stdio_output::format_validation_base<char,__crt_stdio_output::string_output_adapter<char> > >::type_case_Z'::`2'::ansi_string *>(char*&)
FUNC 1d50e 12 0 __crt_stdio_output::read_va_arg<`__crt_stdio_output::output_processor<char,__crt_stdio_output::string_output_adapter<char>,__crt_stdio_output::positional_parameter_base<char,__crt_stdio_output::string_output_adapter<char> > >::type_case_Z'::`2'::ansi_string *>(char*&)
FUNC 1d524 12 0 __crt_stdio_output::read_va_arg<`__crt_stdio_output::output_processor<char,__crt_stdio_output::string_output_adapter<char>,__crt_stdio_output::standard_base<char,__crt_stdio_output::string_output_adapter<char> > >::type_case_Z'::`2'::ansi_string *>(char*&)
FUNC 1d53a 12 0 __crt_stdio_output::read_va_arg<`__crt_stdio_output::output_processor<wchar_t,__crt_stdio_output::stream_output_adapter<wchar_t>,__crt_stdio_output::format_validation_base<wchar_t,__crt_stdio_output::stream_output_adapter<wchar_t> > >::type_case_Z'::`2'::ansi_string *>(char*&)
FUNC 1d550 12 0 __crt_stdio_output::read_va_arg<`__crt_stdio_output::output_processor<wchar_t,__crt_stdio_output::stream_output_adapter<wchar_t>,__crt_stdio_output::positional_parameter_base<wchar_t,__crt_stdio_output::stream_output_adapter<wchar_t> > >::type_case_Z'::`2'::ansi_string *>(char*&)
FUNC 1d566 12 0 __crt_stdio_output::read_va_arg<`__crt_stdio_output::output_processor<wchar_t,__crt_stdio_output::stream_output_adapter<wchar_t>,__crt_stdio_output::standard_base<wchar_t,__crt_stdio_output::stream_output_adapter<wchar_t> > >::type_case_Z'::`2'::ansi_string *>(char*&)
FUNC 1d57c 12 0 __crt_stdio_output::read_va_arg<`__crt_stdio_output::output_processor<wchar_t,__crt_stdio_output::string_output_adapter<wchar_t>,__crt_stdio_output::format_validation_base<wchar_t,__crt_stdio_output::string_output_adapter<wchar_t> > >::type_case_Z'::`2'::ansi_string *>(char*&)
FUNC 1d592 12 0 __crt_stdio_output::read_va_arg<`__crt_stdio_output::output_processor<wchar_t,__crt_stdio_output::string_output_adapter<wchar_t>,__crt_stdio_output::positional_parameter_base<wchar_t,__crt_stdio_output::string_output_adapter<wchar_t> > >::type_case_Z'::`2'::ansi_string *>(char*&)
FUNC 1d5a8 12 0 __crt_stdio_output::read_va_arg<`__crt_stdio_output::output_processor<wchar_t,__crt_stdio_output::string_output_adapter<wchar_t>,__crt_stdio_output::standard_base<wchar_t,__crt_stdio_output::string_output_adapter<wchar_t> > >::type_case_Z'::`2'::ansi_string *>(char*&)
FUNC 1d5be 12 0 __crt_stdio_output::read_va_arg<void *>(char*&)
FUNC 1d5d4 16 0 __crt_stdio_output::read_va_arg<_CRT_DOUBLE>(char*&)
FUNC 1d5ef 15 0 __crt_stdio_output::read_va_arg<__int64>(char*&)
FUNC 1d609 15 0 __crt_stdio_output::read_va_arg<unsigned __int64>(char*&)
FUNC 1d623 13 0 __crt_stdio_output::read_va_arg<wchar_t>(char*&)
FUNC 1d63a 5 0 __crt_stdio_output::formatting_buffer::scratch_count<char>() const
FUNC 1d63f 1e 0 __crt_stdio_output::formatting_buffer::scratch_data<char>()
FUNC 1d664 1e 0 __crt_char_traits<char>::tcstol<char const * &,char * *,int>(char const*&, char**&&, int&&)
FUNC 1d689 1e 0 __crt_char_traits<wchar_t>::tcstol<wchar_t const * &,wchar_t * *,int>(wchar_t const*&, wchar_t**&&, int&&)
FUNC 1d6ae 1e 0 __crt_char_traits<char>::tcstol<char const *,char * *,int>(char const*&&, char**&&, int&&)
FUNC 1d6d3 1e 0 __crt_char_traits<wchar_t>::tcstol<wchar_t const *,wchar_t * *,int>(wchar_t const*&&, wchar_t**&&, int&&)
FUNC 1d6f8 73 0 __crt_stdio_output::output_processor<char,__crt_stdio_output::stream_output_adapter<char>,__crt_stdio_output::format_validation_base<char,__crt_stdio_output::stream_output_adapter<char> > >::type_case_integer_parse_into_buffer<unsigned int>(unsigned int, const unsigned int, const bool)
FUNC 1d787 73 0 __crt_stdio_output::output_processor<char,__crt_stdio_output::stream_output_adapter<char>,__crt_stdio_output::positional_parameter_base<char,__crt_stdio_output::stream_output_adapter<char> > >::type_case_integer_parse_into_buffer<unsigned int>(unsigned int, const unsigned int, const bool)
FUNC 1d816 73 0 __crt_stdio_output::output_processor<char,__crt_stdio_output::stream_output_adapter<char>,__crt_stdio_output::standard_base<char,__crt_stdio_output::stream_output_adapter<char> > >::type_case_integer_parse_into_buffer<unsigned int>(unsigned int, const unsigned int, const bool)
FUNC 1d8a5 73 0 __crt_stdio_output::output_processor<char,__crt_stdio_output::string_output_adapter<char>,__crt_stdio_output::format_validation_base<char,__crt_stdio_output::string_output_adapter<char> > >::type_case_integer_parse_into_buffer<unsigned int>(unsigned int, const unsigned int, const bool)
FUNC 1d934 73 0 __crt_stdio_output::output_processor<char,__crt_stdio_output::string_output_adapter<char>,__crt_stdio_output::positional_parameter_base<char,__crt_stdio_output::string_output_adapter<char> > >::type_case_integer_parse_into_buffer<unsigned int>(unsigned int, const unsigned int, const bool)
FUNC 1d9c3 73 0 __crt_stdio_output::output_processor<char,__crt_stdio_output::string_output_adapter<char>,__crt_stdio_output::standard_base<char,__crt_stdio_output::string_output_adapter<char> > >::type_case_integer_parse_into_buffer<unsigned int>(unsigned int, const unsigned int, const bool)
FUNC 1da52 87 0 __crt_stdio_output::output_processor<wchar_t,__crt_stdio_output::stream_output_adapter<wchar_t>,__crt_stdio_output::format_validation_base<wchar_t,__crt_stdio_output::stream_output_adapter<wchar_t> > >::type_case_integer_parse_into_buffer<unsigned int>(unsigned int, const unsigned int, const bool)
FUNC 1dafa 87 0 __crt_stdio_output::output_processor<wchar_t,__crt_stdio_output::stream_output_adapter<wchar_t>,__crt_stdio_output::positional_parameter_base<wchar_t,__crt_stdio_output::stream_output_adapter<wchar_t> > >::type_case_integer_parse_into_buffer<unsigned int>(unsigned int, const unsigned int, const bool)
FUNC 1dba2 87 0 __crt_stdio_output::output_processor<wchar_t,__crt_stdio_output::stream_output_adapter<wchar_t>,__crt_stdio_output::standard_base<wchar_t,__crt_stdio_output::stream_output_adapter<wchar_t> > >::type_case_integer_parse_into_buffer<unsigned int>(unsigned int, const unsigned int, const bool)
FUNC 1dc4a 87 0 __crt_stdio_output::output_processor<wchar_t,__crt_stdio_output::string_output_adapter<wchar_t>,__crt_stdio_output::format_validation_base<wchar_t,__crt_stdio_output::string_output_adapter<wchar_t> > >::type_case_integer_parse_into_buffer<unsigned int>(unsigned int, const unsigned int, const bool)
FUNC 1dcf2 87 0 __crt_stdio_output::output_processor<wchar_t,__crt_stdio_output::string_output_adapter<wchar_t>,__crt_stdio_output::positional_parameter_base<wchar_t,__crt_stdio_output::string_output_adapter<wchar_t> > >::type_case_integer_parse_into_buffer<unsigned int>(unsigned int, const unsigned int, const bool)
FUNC 1dd9a 87 0 __crt_stdio_output::output_processor<wchar_t,__crt_stdio_output::string_output_adapter<wchar_t>,__crt_stdio_output::standard_base<wchar_t,__crt_stdio_output::string_output_adapter<wchar_t> > >::type_case_integer_parse_into_buffer<unsigned int>(unsigned int, const unsigned int, const bool)
FUNC 1de42 8e 0 __crt_stdio_output::output_processor<char,__crt_stdio_output::stream_output_adapter<char>,__crt_stdio_output::format_validation_base<char,__crt_stdio_output::stream_output_adapter<char> > >::type_case_integer_parse_into_buffer<unsigned __int64>(unsigned long long, const unsigned int, const bool)
FUNC 1def3 8e 0 __crt_stdio_output::output_processor<char,__crt_stdio_output::stream_output_adapter<char>,__crt_stdio_output::positional_parameter_base<char,__crt_stdio_output::stream_output_adapter<char> > >::type_case_integer_parse_into_buffer<unsigned __int64>(unsigned long long, const unsigned int, const bool)
FUNC 1dfa4 8e 0 __crt_stdio_output::output_processor<char,__crt_stdio_output::stream_output_adapter<char>,__crt_stdio_output::standard_base<char,__crt_stdio_output::stream_output_adapter<char> > >::type_case_integer_parse_into_buffer<unsigned __int64>(unsigned long long, const unsigned int, const bool)
FUNC 1e055 8e 0 __crt_stdio_output::output_processor<char,__crt_stdio_output::string_output_adapter<char>,__crt_stdio_output::format_validation_base<char,__crt_stdio_output::string_output_adapter<char> > >::type_case_integer_parse_into_buffer<unsigned __int64>(unsigned long long, const unsigned int, const bool)
FUNC 1e106 8e 0 __crt_stdio_output::output_processor<char,__crt_stdio_output::string_output_adapter<char>,__crt_stdio_output::positional_parameter_base<char,__crt_stdio_output::string_output_adapter<char> > >::type_case_integer_parse_into_buffer<unsigned __int64>(unsigned long long, const unsigned int, const bool)
FUNC 1e1b7 8e 0 __crt_stdio_output::output_processor<char,__crt_stdio_output::string_output_adapter<char>,__crt_stdio_output::standard_base<char,__crt_stdio_output::string_output_adapter<char> > >::type_case_integer_parse_into_buffer<unsigned __int64>(unsigned long long, const unsigned int, const bool)
FUNC 1e268 a2 0 __crt_stdio_output::output_processor<wchar_t,__crt_stdio_output::stream_output_adapter<wchar_t>,__crt_stdio_output::format_validation_base<wchar_t,__crt_stdio_output::stream_output_adapter<wchar_t> > >::type_case_integer_parse_into_buffer<unsigned __int64>(unsigned long long, const unsigned int, const bool)
FUNC 1e332 a2 0 __crt_stdio_output::output_processor<wchar_t,__crt_stdio_output::stream_output_adapter<wchar_t>,__crt_stdio_output::positional_parameter_base<wchar_t,__crt_stdio_output::stream_output_adapter<wchar_t> > >::type_case_integer_parse_into_buffer<unsigned __int64>(unsigned long long, const unsigned int, const bool)
FUNC 1e3fc a2 0 __crt_stdio_output::output_processor<wchar_t,__crt_stdio_output::stream_output_adapter<wchar_t>,__crt_stdio_output::standard_base<wchar_t,__crt_stdio_output::stream_output_adapter<wchar_t> > >::type_case_integer_parse_into_buffer<unsigned __int64>(unsigned long long, const unsigned int, const bool)
FUNC 1e4c6 a2 0 __crt_stdio_output::output_processor<wchar_t,__crt_stdio_output::string_output_adapter<wchar_t>,__crt_stdio_output::format_validation_base<wchar_t,__crt_stdio_output::string_output_adapter<wchar_t> > >::type_case_integer_parse_into_buffer<unsigned __int64>(unsigned long long, const unsigned int, const bool)
FUNC 1e590 a2 0 __crt_stdio_output::output_processor<wchar_t,__crt_stdio_output::string_output_adapter<wchar_t>,__crt_stdio_output::positional_parameter_base<wchar_t,__crt_stdio_output::string_output_adapter<wchar_t> > >::type_case_integer_parse_into_buffer<unsigned __int64>(unsigned long long, const unsigned int, const bool)
FUNC 1e65a a2 0 __crt_stdio_output::output_processor<wchar_t,__crt_stdio_output::string_output_adapter<wchar_t>,__crt_stdio_output::standard_base<wchar_t,__crt_stdio_output::string_output_adapter<wchar_t> > >::type_case_integer_parse_into_buffer<unsigned __int64>(unsigned long long, const unsigned int, const bool)
FUNC 1e724 3b 0 __crt_stdio_output::write_multiple_characters<__crt_stdio_output::stream_output_adapter<char>,char>(__crt_stdio_output::stream_output_adapter<char> const&, const char, const int, int* const)
FUNC 1e76d 40 0 __crt_stdio_output::write_multiple_characters<__crt_stdio_output::stream_output_adapter<wchar_t>,char>(__crt_stdio_output::stream_output_adapter<wchar_t> const&, const char, const int, int* const)
FUNC 1e7bd 2c 0 __crt_stdio_output::write_multiple_characters<__crt_stdio_output::string_output_adapter<char>,char>(__crt_stdio_output::string_output_adapter<char> const&, const char, const int, int* const)
FUNC 1e7f4 31 0 __crt_stdio_output::write_multiple_characters<__crt_stdio_output::string_output_adapter<wchar_t>,char>(__crt_stdio_output::string_output_adapter<wchar_t> const&, const char, const int, int* const)
FUNC 1e831 28 0 <lambda_0be4ab1c2a6918fda4e39227d83ea893>::<lambda_0be4ab1c2a6918fda4e39227d83ea893>(_iobuf* const&, __crt_locale_pointers* const&, unsigned long long const&, char const* const&, char* const&)
FUNC 1e863 12 0 <lambda_18d67e1eeb4dde13899af949c649d933>::<lambda_18d67e1eeb4dde13899af949c649d933>(_iobuf* const&)
FUNC 1e879 12 0 <lambda_1c412e3457517a614fb7d0c137686c95>::<lambda_1c412e3457517a614fb7d0c137686c95>(_iobuf* const&)
FUNC 1e88f 12 0 <lambda_3cfd252a7c5e244e8f20fc56fe35ebe9>::<lambda_3cfd252a7c5e244e8f20fc56fe35ebe9>(_iobuf* const&)
FUNC 1e8a5 12 0 <lambda_5a3ed3da325c8ea037a470278c0f2d16>::<lambda_5a3ed3da325c8ea037a470278c0f2d16>(_iobuf* const&)
FUNC 1e8bb 12 0 <lambda_5d912c5eb12d68f7685796d855ab8da6>::<lambda_5d912c5eb12d68f7685796d855ab8da6>(_iobuf* const&)
FUNC 1e8d1 28 0 <lambda_81587a929b95143618da2bd798ca9df2>::<lambda_81587a929b95143618da2bd798ca9df2>(_iobuf* const&, __crt_locale_pointers* const&, unsigned long long const&, char const* const&, char* const&)
FUNC 1e903 12 0 <lambda_8f55a0afecd2292d47fde3ce68e72492>::<lambda_8f55a0afecd2292d47fde3ce68e72492>(_iobuf* const&)
FUNC 1e919 12 0 <lambda_9b2bd5c6bb91c5c032542faa5c3cb611>::<lambda_9b2bd5c6bb91c5c032542faa5c3cb611>(_iobuf* const&)
FUNC 1e92f 28 0 <lambda_9dc9bc4853282e051506c0cc602abcf3>::<lambda_9dc9bc4853282e051506c0cc602abcf3>(_iobuf* const&, __crt_locale_pointers* const&, unsigned long long const&, char const* const&, char* const&)
FUNC 1e961 28 0 <lambda_b09925f738b1434f525bf50d3162636f>::<lambda_b09925f738b1434f525bf50d3162636f>(_iobuf* const&, __crt_locale_pointers* const&, unsigned long long const&, wchar_t const* const&, char* const&)
FUNC 1e993 12 0 <lambda_ba8264b40644a42074cedf043e7aa388>::<lambda_ba8264b40644a42074cedf043e7aa388>(_iobuf* const&)
FUNC 1e9a9 28 0 <lambda_be68057ced330f874c40fe9612235e36>::<lambda_be68057ced330f874c40fe9612235e36>(_iobuf* const&, __crt_locale_pointers* const&, unsigned long long const&, wchar_t const* const&, char* const&)
FUNC 1e9db 12 0 <lambda_bfd63e08e93a545639db6d324cf10d1a>::<lambda_bfd63e08e93a545639db6d324cf10d1a>(_iobuf* const&)
FUNC 1e9f1 12 0 <lambda_c29ee0499b841886b80d843682cc403a>::<lambda_c29ee0499b841886b80d843682cc403a>(_iobuf* const&)
FUNC 1ea07 12 0 <lambda_cae121c7667f229345c68b3f32b19755>::<lambda_cae121c7667f229345c68b3f32b19755>(_iobuf* const&)
FUNC 1ea1d 28 0 <lambda_d7427dbf72509eba5fa970998bac2a27>::<lambda_d7427dbf72509eba5fa970998bac2a27>(_iobuf* const&, __crt_locale_pointers* const&, unsigned long long const&, wchar_t const* const&, char* const&)
FUNC 1ea4f 12 0 <lambda_dbd837d1c0b7fc6e2d81c287c81c071b>::<lambda_dbd837d1c0b7fc6e2d81c287c81c071b>(_iobuf* const&)
FUNC 1ea65 45 0 __crt_stdio_output::common_data<char>::common_data<char>()
FUNC 1eabb 4a 0 __crt_stdio_output::common_data<wchar_t>::common_data<wchar_t>()
FUNC 1eb17 3c 0 __crt_stdio_output::output_adapter_data<char,__crt_stdio_output::stream_output_adapter<char> >::output_adapter_data<char,__crt_stdio_output::stream_output_adapter<char> >(__crt_stdio_output::stream_output_adapter<char> const&, const unsigned long long, char const* const, __crt_locale_pointers* const, char* const)
FUNC 1eb62 3c 0 __crt_stdio_output::output_adapter_data<char,__crt_stdio_output::string_output_adapter<char> >::output_adapter_data<char,__crt_stdio_output::string_output_adapter<char> >(__crt_stdio_output::string_output_adapter<char> const&, const unsigned long long, char const* const, __crt_locale_pointers* const, char* const)
FUNC 1ebad 3c 0 __crt_stdio_output::output_adapter_data<wchar_t,__crt_stdio_output::stream_output_adapter<wchar_t> >::output_adapter_data<wchar_t,__crt_stdio_output::stream_output_adapter<wchar_t> >(__crt_stdio_output::stream_output_adapter<wchar_t> const&, const unsigned long long, wchar_t const* const, __crt_locale_pointers* const, char* const)
FUNC 1ebf8 3c 0 __crt_stdio_output::output_adapter_data<wchar_t,__crt_stdio_output::string_output_adapter<wchar_t> >::output_adapter_data<wchar_t,__crt_stdio_output::string_output_adapter<wchar_t> >(__crt_stdio_output::string_output_adapter<wchar_t> const&, const unsigned long long, wchar_t const* const, __crt_locale_pointers* const, char* const)
FUNC 1ec43 2d 0 __crt_stdio_output::output_processor<char,__crt_stdio_output::stream_output_adapter<char>,__crt_stdio_output::format_validation_base<char,__crt_stdio_output::stream_output_adapter<char> > >::output_processor<char,__crt_stdio_output::stream_output_adapter<char>,__crt_stdio_output::format_validation_base<char,__crt_stdio_output::stream_output_adapter<char> > >(__crt_stdio_output::stream_output_adapter<char> const&, const unsigned long long, char const* const, __crt_locale_pointers* const, char* const)
FUNC 1ec7b 27 0 __crt_stdio_output::output_processor<char,__crt_stdio_output::stream_output_adapter<char>,__crt_stdio_output::positional_parameter_base<char,__crt_stdio_output::stream_output_adapter<char> > >::output_processor<char,__crt_stdio_output::stream_output_adapter<char>,__crt_stdio_output::positional_parameter_base<char,__crt_stdio_output::stream_output_adapter<char> > >(__crt_stdio_output::stream_output_adapter<char> const&, const unsigned long long, char const* const, __crt_locale_pointers* const, char* const)
FUNC 1ecab 2d 0 __crt_stdio_output::output_processor<char,__crt_stdio_output::stream_output_adapter<char>,__crt_stdio_output::standard_base<char,__crt_stdio_output::stream_output_adapter<char> > >::output_processor<char,__crt_stdio_output::stream_output_adapter<char>,__crt_stdio_output::standard_base<char,__crt_stdio_output::stream_output_adapter<char> > >(__crt_stdio_output::stream_output_adapter<char> const&, const unsigned long long, char const* const, __crt_locale_pointers* const, char* const)
FUNC 1ece3 2d 0 __crt_stdio_output::output_processor<char,__crt_stdio_output::string_output_adapter<char>,__crt_stdio_output::format_validation_base<char,__crt_stdio_output::string_output_adapter<char> > >::output_processor<char,__crt_stdio_output::string_output_adapter<char>,__crt_stdio_output::format_validation_base<char,__crt_stdio_output::string_output_adapter<char> > >(__crt_stdio_output::string_output_adapter<char> const&, const unsigned long long, char const* const, __crt_locale_pointers* const, char* const)
FUNC 1ed1b 27 0 __crt_stdio_output::output_processor<char,__crt_stdio_output::string_output_adapter<char>,__crt_stdio_output::positional_parameter_base<char,__crt_stdio_output::string_output_adapter<char> > >::output_processor<char,__crt_stdio_output::string_output_adapter<char>,__crt_stdio_output::positional_parameter_base<char,__crt_stdio_output::string_output_adapter<char> > >(__crt_stdio_output::string_output_adapter<char> const&, const unsigned long long, char const* const, __crt_locale_pointers* const, char* const)
FUNC 1ed4b 2d 0 __crt_stdio_output::output_processor<char,__crt_stdio_output::string_output_adapter<char>,__crt_stdio_output::standard_base<char,__crt_stdio_output::string_output_adapter<char> > >::output_processor<char,__crt_stdio_output::string_output_adapter<char>,__crt_stdio_output::standard_base<char,__crt_stdio_output::string_output_adapter<char> > >(__crt_stdio_output::string_output_adapter<char> const&, const unsigned long long, char const* const, __crt_locale_pointers* const, char* const)
FUNC 1ed83 2d 0 __crt_stdio_output::output_processor<wchar_t,__crt_stdio_output::stream_output_adapter<wchar_t>,__crt_stdio_output::format_validation_base<wchar_t,__crt_stdio_output::stream_output_adapter<wchar_t> > >::output_processor<wchar_t,__crt_stdio_output::stream_output_adapter<wchar_t>,__crt_stdio_output::format_validation_base<wchar_t,__crt_stdio_output::stream_output_adapter<wchar_t> > >(__crt_stdio_output::stream_output_adapter<wchar_t> const&, const unsigned long long, wchar_t const* const, __crt_locale_pointers* const, char* const)
FUNC 1edbb 27 0 __crt_stdio_output::output_processor<wchar_t,__crt_stdio_output::stream_output_adapter<wchar_t>,__crt_stdio_output::positional_parameter_base<wchar_t,__crt_stdio_output::stream_output_adapter<wchar_t> > >::output_processor<wchar_t,__crt_stdio_output::stream_output_adapter<wchar_t>,__crt_stdio_output::positional_parameter_base<wchar_t,__crt_stdio_output::stream_output_adapter<wchar_t> > >(__crt_stdio_output::stream_output_adapter<wchar_t> const&, const unsigned long long, wchar_t const* const, __crt_locale_pointers* const, char* const)
FUNC 1edeb 2d 0 __crt_stdio_output::output_processor<wchar_t,__crt_stdio_output::stream_output_adapter<wchar_t>,__crt_stdio_output::standard_base<wchar_t,__crt_stdio_output::stream_output_adapter<wchar_t> > >::output_processor<wchar_t,__crt_stdio_output::stream_output_adapter<wchar_t>,__crt_stdio_output::standard_base<wchar_t,__crt_stdio_output::stream_output_adapter<wchar_t> > >(__crt_stdio_output::stream_output_adapter<wchar_t> const&, const unsigned long long, wchar_t const* const, __crt_locale_pointers* const, char* const)
FUNC 1ee23 2d 0 __crt_stdio_output::output_processor<wchar_t,__crt_stdio_output::string_output_adapter<wchar_t>,__crt_stdio_output::format_validation_base<wchar_t,__crt_stdio_output::string_output_adapter<wchar_t> > >::output_processor<wchar_t,__crt_stdio_output::string_output_adapter<wchar_t>,__crt_stdio_output::format_validation_base<wchar_t,__crt_stdio_output::string_output_adapter<wchar_t> > >(__crt_stdio_output::string_output_adapter<wchar_t> const&, const unsigned long long, wchar_t const* const, __crt_locale_pointers* const, char* const)
FUNC 1ee5b 27 0 __crt_stdio_output::output_processor<wchar_t,__crt_stdio_output::string_output_adapter<wchar_t>,__crt_stdio_output::positional_parameter_base<wchar_t,__crt_stdio_output::string_output_adapter<wchar_t> > >::output_processor<wchar_t,__crt_stdio_output::string_output_adapter<wchar_t>,__crt_stdio_output::positional_parameter_base<wchar_t,__crt_stdio_output::string_output_adapter<wchar_t> > >(__crt_stdio_output::string_output_adapter<wchar_t> const&, const unsigned long long, wchar_t const* const, __crt_locale_pointers* const, char* const)
FUNC 1ee8b 2d 0 __crt_stdio_output::output_processor<wchar_t,__crt_stdio_output::string_output_adapter<wchar_t>,__crt_stdio_output::standard_base<wchar_t,__crt_stdio_output::string_output_adapter<wchar_t> > >::output_processor<wchar_t,__crt_stdio_output::string_output_adapter<wchar_t>,__crt_stdio_output::standard_base<wchar_t,__crt_stdio_output::string_output_adapter<wchar_t> > >(__crt_stdio_output::string_output_adapter<wchar_t> const&, const unsigned long long, wchar_t const* const, __crt_locale_pointers* const, char* const)
FUNC 1eec3 10 0 __crt_stdio_output::stream_output_adapter<char>::stream_output_adapter<char>(_iobuf* const)
FUNC 1eed7 10 0 __crt_stdio_output::stream_output_adapter<wchar_t>::stream_output_adapter<wchar_t>(_iobuf* const)
FUNC 1eeeb 10 0 __crt_stdio_output::string_output_adapter<char>::string_output_adapter<char>(__crt_stdio_output::string_output_adapter_context<char>* const)
FUNC 1eeff 10 0 __crt_stdio_output::string_output_adapter<wchar_t>::string_output_adapter<wchar_t>(__crt_stdio_output::string_output_adapter_context<wchar_t>* const)
FUNC 1ef13 83 0 _LocaleUpdate::_LocaleUpdate(__crt_locale_pointers* const)
FUNC 1efb6 1e 0 __acrt_stdio_temporary_buffering_guard::__acrt_stdio_temporary_buffering_guard(_iobuf* const)
FUNC 1efdb 6 0 __crt_deferred_errno_cache::__crt_deferred_errno_cache()
FUNC 1efe1 18 0 __crt_errno_guard::__crt_errno_guard(int* const)
FUNC 1efff 10 0 __crt_stdio_stream::__crt_stdio_stream(_iobuf* const)
FUNC 1f013 11 0 __crt_stdio_output::formatting_buffer::formatting_buffer()
FUNC 1f028 8 0 __crt_stdio_output::common_data<char>::~common_data<char>()
FUNC 1f032 8 0 __crt_stdio_output::common_data<wchar_t>::~common_data<wchar_t>()
FUNC 1f03c 8 0 __crt_stdio_output::format_validation_base<char,__crt_stdio_output::stream_output_adapter<char> >::~format_validation_base<char,__crt_stdio_output::stream_output_adapter<char> >()
FUNC 1f046 8 0 __crt_stdio_output::format_validation_base<char,__crt_stdio_output::string_output_adapter<char> >::~format_validation_base<char,__crt_stdio_output::string_output_adapter<char> >()
FUNC 1f050 8 0 __crt_stdio_output::format_validation_base<wchar_t,__crt_stdio_output::stream_output_adapter<wchar_t> >::~format_validation_base<wchar_t,__crt_stdio_output::stream_output_adapter<wchar_t> >()
FUNC 1f05a 8 0 __crt_stdio_output::format_validation_base<wchar_t,__crt_stdio_output::string_output_adapter<wchar_t> >::~format_validation_base<wchar_t,__crt_stdio_output::string_output_adapter<wchar_t> >()
FUNC 1f064 8 0 __crt_stdio_output::output_adapter_data<char,__crt_stdio_output::stream_output_adapter<char> >::~output_adapter_data<char,__crt_stdio_output::stream_output_adapter<char> >()
FUNC 1f06e 8 0 __crt_stdio_output::output_adapter_data<char,__crt_stdio_output::string_output_adapter<char> >::~output_adapter_data<char,__crt_stdio_output::string_output_adapter<char> >()
FUNC 1f078 8 0 __crt_stdio_output::output_adapter_data<wchar_t,__crt_stdio_output::stream_output_adapter<wchar_t> >::~output_adapter_data<wchar_t,__crt_stdio_output::stream_output_adapter<wchar_t> >()
FUNC 1f082 8 0 __crt_stdio_output::output_adapter_data<wchar_t,__crt_stdio_output::string_output_adapter<wchar_t> >::~output_adapter_data<wchar_t,__crt_stdio_output::string_output_adapter<wchar_t> >()
FUNC 1f08c 8 0 __crt_stdio_output::output_processor<char,__crt_stdio_output::stream_output_adapter<char>,__crt_stdio_output::format_validation_base<char,__crt_stdio_output::stream_output_adapter<char> > >::~output_processor<char,__crt_stdio_output::stream_output_adapter<char>,__crt_stdio_output::format_validation_base<char,__crt_stdio_output::stream_output_adapter<char> > >()
FUNC 1f096 8 0 __crt_stdio_output::output_processor<char,__crt_stdio_output::stream_output_adapter<char>,__crt_stdio_output::positional_parameter_base<char,__crt_stdio_output::stream_output_adapter<char> > >::~output_processor<char,__crt_stdio_output::stream_output_adapter<char>,__crt_stdio_output::positional_parameter_base<char,__crt_stdio_output::stream_output_adapter<char> > >()
FUNC 1f0a0 8 0 __crt_stdio_output::output_processor<char,__crt_stdio_output::stream_output_adapter<char>,__crt_stdio_output::standard_base<char,__crt_stdio_output::stream_output_adapter<char> > >::~output_processor<char,__crt_stdio_output::stream_output_adapter<char>,__crt_stdio_output::standard_base<char,__crt_stdio_output::stream_output_adapter<char> > >()
FUNC 1f0aa 8 0 __crt_stdio_output::output_processor<char,__crt_stdio_output::string_output_adapter<char>,__crt_stdio_output::format_validation_base<char,__crt_stdio_output::string_output_adapter<char> > >::~output_processor<char,__crt_stdio_output::string_output_adapter<char>,__crt_stdio_output::format_validation_base<char,__crt_stdio_output::string_output_adapter<char> > >()
FUNC 1f0b4 8 0 __crt_stdio_output::output_processor<char,__crt_stdio_output::string_output_adapter<char>,__crt_stdio_output::positional_parameter_base<char,__crt_stdio_output::string_output_adapter<char> > >::~output_processor<char,__crt_stdio_output::string_output_adapter<char>,__crt_stdio_output::positional_parameter_base<char,__crt_stdio_output::string_output_adapter<char> > >()
FUNC 1f0be 8 0 __crt_stdio_output::output_processor<char,__crt_stdio_output::string_output_adapter<char>,__crt_stdio_output::standard_base<char,__crt_stdio_output::string_output_adapter<char> > >::~output_processor<char,__crt_stdio_output::string_output_adapter<char>,__crt_stdio_output::standard_base<char,__crt_stdio_output::string_output_adapter<char> > >()
FUNC 1f0c8 8 0 __crt_stdio_output::output_processor<wchar_t,__crt_stdio_output::stream_output_adapter<wchar_t>,__crt_stdio_output::format_validation_base<wchar_t,__crt_stdio_output::stream_output_adapter<wchar_t> > >::~output_processor<wchar_t,__crt_stdio_output::stream_output_adapter<wchar_t>,__crt_stdio_output::format_validation_base<wchar_t,__crt_stdio_output::stream_output_adapter<wchar_t> > >()
FUNC 1f0d2 8 0 __crt_stdio_output::output_processor<wchar_t,__crt_stdio_output::stream_output_adapter<wchar_t>,__crt_stdio_output::positional_parameter_base<wchar_t,__crt_stdio_output::stream_output_adapter<wchar_t> > >::~output_processor<wchar_t,__crt_stdio_output::stream_output_adapter<wchar_t>,__crt_stdio_output::positional_parameter_base<wchar_t,__crt_stdio_output::stream_output_adapter<wchar_t> > >()
FUNC 1f0dc 8 0 __crt_stdio_output::output_processor<wchar_t,__crt_stdio_output::stream_output_adapter<wchar_t>,__crt_stdio_output::standard_base<wchar_t,__crt_stdio_output::stream_output_adapter<wchar_t> > >::~output_processor<wchar_t,__crt_stdio_output::stream_output_adapter<wchar_t>,__crt_stdio_output::standard_base<wchar_t,__crt_stdio_output::stream_output_adapter<wchar_t> > >()
FUNC 1f0e6 8 0 __crt_stdio_output::output_processor<wchar_t,__crt_stdio_output::string_output_adapter<wchar_t>,__crt_stdio_output::format_validation_base<wchar_t,__crt_stdio_output::string_output_adapter<wchar_t> > >::~output_processor<wchar_t,__crt_stdio_output::string_output_adapter<wchar_t>,__crt_stdio_output::format_validation_base<wchar_t,__crt_stdio_output::string_output_adapter<wchar_t> > >()
FUNC 1f0f0 8 0 __crt_stdio_output::output_processor<wchar_t,__crt_stdio_output::string_output_adapter<wchar_t>,__crt_stdio_output::positional_parameter_base<wchar_t,__crt_stdio_output::string_output_adapter<wchar_t> > >::~output_processor<wchar_t,__crt_stdio_output::string_output_adapter<wchar_t>,__crt_stdio_output::positional_parameter_base<wchar_t,__crt_stdio_output::string_output_adapter<wchar_t> > >()
FUNC 1f0fa 8 0 __crt_stdio_output::output_processor<wchar_t,__crt_stdio_output::string_output_adapter<wchar_t>,__crt_stdio_output::standard_base<wchar_t,__crt_stdio_output::string_output_adapter<wchar_t> > >::~output_processor<wchar_t,__crt_stdio_output::string_output_adapter<wchar_t>,__crt_stdio_output::standard_base<wchar_t,__crt_stdio_output::string_output_adapter<wchar_t> > >()
FUNC 1f104 8 0 __crt_stdio_output::positional_parameter_base<char,__crt_stdio_output::stream_output_adapter<char> >::~positional_parameter_base<char,__crt_stdio_output::stream_output_adapter<char> >()
FUNC 1f10e 8 0 __crt_stdio_output::positional_parameter_base<char,__crt_stdio_output::string_output_adapter<char> >::~positional_parameter_base<char,__crt_stdio_output::string_output_adapter<char> >()
FUNC 1f118 8 0 __crt_stdio_output::positional_parameter_base<wchar_t,__crt_stdio_output::stream_output_adapter<wchar_t> >::~positional_parameter_base<wchar_t,__crt_stdio_output::stream_output_adapter<wchar_t> >()
FUNC 1f122 8 0 __crt_stdio_output::positional_parameter_base<wchar_t,__crt_stdio_output::string_output_adapter<wchar_t> >::~positional_parameter_base<wchar_t,__crt_stdio_output::string_output_adapter<wchar_t> >()
FUNC 1f12c 8 0 __crt_stdio_output::standard_base<char,__crt_stdio_output::stream_output_adapter<char> >::~standard_base<char,__crt_stdio_output::stream_output_adapter<char> >()
FUNC 1f136 8 0 __crt_stdio_output::standard_base<char,__crt_stdio_output::string_output_adapter<char> >::~standard_base<char,__crt_stdio_output::string_output_adapter<char> >()
FUNC 1f140 8 0 __crt_stdio_output::standard_base<wchar_t,__crt_stdio_output::stream_output_adapter<wchar_t> >::~standard_base<wchar_t,__crt_stdio_output::stream_output_adapter<wchar_t> >()
FUNC 1f14a 8 0 __crt_stdio_output::standard_base<wchar_t,__crt_stdio_output::string_output_adapter<wchar_t> >::~standard_base<wchar_t,__crt_stdio_output::string_output_adapter<wchar_t> >()
FUNC 1f154 10 0 _LocaleUpdate::~_LocaleUpdate()
FUNC 1f168 f 0 __acrt_stdio_temporary_buffering_guard::~__acrt_stdio_temporary_buffering_guard()
FUNC 1f17a 11 0 __crt_errno_guard::~__crt_errno_guard()
FUNC 1f18f 1a 0 __crt_stdio_output::formatting_buffer::~formatting_buffer()
FUNC 1f1af 24 0 __crt_unique_heap_ptr<char,__crt_internal_free_policy>::operator=(__crt_unique_heap_ptr<char,__crt_internal_free_policy>&&)
FUNC 1f1dc 3 0 __crt_stdio_stream::operator->() const
FUNC 1f1df bf 0 <lambda_0be4ab1c2a6918fda4e39227d83ea893>::operator()() const
FUNC 1f2cd 9 0 <lambda_18d67e1eeb4dde13899af949c649d933>::operator()() const
FUNC 1f2d8 9 0 <lambda_1c412e3457517a614fb7d0c137686c95>::operator()() const
FUNC 1f2e3 9 0 <lambda_3cfd252a7c5e244e8f20fc56fe35ebe9>::operator()() const
FUNC 1f2ee 9 0 <lambda_5a3ed3da325c8ea037a470278c0f2d16>::operator()() const
FUNC 1f2f9 9 0 <lambda_5d912c5eb12d68f7685796d855ab8da6>::operator()() const
FUNC 1f304 bf 0 <lambda_81587a929b95143618da2bd798ca9df2>::operator()() const
FUNC 1f3f2 9 0 <lambda_8f55a0afecd2292d47fde3ce68e72492>::operator()() const
FUNC 1f3fd 9 0 <lambda_9b2bd5c6bb91c5c032542faa5c3cb611>::operator()() const
FUNC 1f408 f4 0 <lambda_9dc9bc4853282e051506c0cc602abcf3>::operator()() const
FUNC 1f539 f4 0 <lambda_b09925f738b1434f525bf50d3162636f>::operator()() const
FUNC 1f66a 9 0 <lambda_ba8264b40644a42074cedf043e7aa388>::operator()() const
FUNC 1f675 bf 0 <lambda_be68057ced330f874c40fe9612235e36>::operator()() const
FUNC 1f763 9 0 <lambda_bfd63e08e93a545639db6d324cf10d1a>::operator()() const
FUNC 1f76e 9 0 <lambda_c29ee0499b841886b80d843682cc403a>::operator()() const
FUNC 1f779 9 0 <lambda_cae121c7667f229345c68b3f32b19755>::operator()() const
FUNC 1f784 bf 0 <lambda_d7427dbf72509eba5fa970998bac2a27>::operator()() const
FUNC 1f872 9 0 <lambda_dbd837d1c0b7fc6e2d81c287c81c071b>::operator()() const
FUNC 1f87d 4 0 _LocaleUpdate::GetLocaleT()
FUNC 1f881 14 0 __crt_stdio_output::output_processor<char,__crt_stdio_output::stream_output_adapter<char>,__crt_stdio_output::format_validation_base<char,__crt_stdio_output::stream_output_adapter<char> > >::adjust_hexit(const int, const bool)
FUNC 1f89a 14 0 __crt_stdio_output::output_processor<char,__crt_stdio_output::stream_output_adapter<char>,__crt_stdio_output::positional_parameter_base<char,__crt_stdio_output::stream_output_adapter<char> > >::adjust_hexit(const int, const bool)
FUNC 1f8b3 14 0 __crt_stdio_output::output_processor<char,__crt_stdio_output::stream_output_adapter<char>,__crt_stdio_output::standard_base<char,__crt_stdio_output::stream_output_adapter<char> > >::adjust_hexit(const int, const bool)
FUNC 1f8cc 14 0 __crt_stdio_output::output_processor<char,__crt_stdio_output::string_output_adapter<char>,__crt_stdio_output::format_validation_base<char,__crt_stdio_output::string_output_adapter<char> > >::adjust_hexit(const int, const bool)
FUNC 1f8e5 14 0 __crt_stdio_output::output_processor<char,__crt_stdio_output::string_output_adapter<char>,__crt_stdio_output::positional_parameter_base<char,__crt_stdio_output::string_output_adapter<char> > >::adjust_hexit(const int, const bool)
FUNC 1f8fe 14 0 __crt_stdio_output::output_processor<char,__crt_stdio_output::string_output_adapter<char>,__crt_stdio_output::standard_base<char,__crt_stdio_output::string_output_adapter<char> > >::adjust_hexit(const int, const bool)
FUNC 1f917 14 0 __crt_stdio_output::output_processor<wchar_t,__crt_stdio_output::stream_output_adapter<wchar_t>,__crt_stdio_output::format_validation_base<wchar_t,__crt_stdio_output::stream_output_adapter<wchar_t> > >::adjust_hexit(const int, const bool)
FUNC 1f930 14 0 __crt_stdio_output::output_processor<wchar_t,__crt_stdio_output::stream_output_adapter<wchar_t>,__crt_stdio_output::positional_parameter_base<wchar_t,__crt_stdio_output::stream_output_adapter<wchar_t> > >::adjust_hexit(const int, const bool)
FUNC 1f949 14 0 __crt_stdio_output::output_processor<wchar_t,__crt_stdio_output::stream_output_adapter<wchar_t>,__crt_stdio_output::standard_base<wchar_t,__crt_stdio_output::stream_output_adapter<wchar_t> > >::adjust_hexit(const int, const bool)
FUNC 1f962 14 0 __crt_stdio_output::output_processor<wchar_t,__crt_stdio_output::string_output_adapter<wchar_t>,__crt_stdio_output::format_validation_base<wchar_t,__crt_stdio_output::string_output_adapter<wchar_t> > >::adjust_hexit(const int, const bool)
FUNC 1f97b 14 0 __crt_stdio_output::output_processor<wchar_t,__crt_stdio_output::string_output_adapter<wchar_t>,__crt_stdio_output::positional_parameter_base<wchar_t,__crt_stdio_output::string_output_adapter<wchar_t> > >::adjust_hexit(const int, const bool)
FUNC 1f994 14 0 __crt_stdio_output::output_processor<wchar_t,__crt_stdio_output::string_output_adapter<wchar_t>,__crt_stdio_output::standard_base<wchar_t,__crt_stdio_output::string_output_adapter<wchar_t> > >::adjust_hexit(const int, const bool)
FUNC 1f9ad 4c 0 __crt_stdio_output::positional_parameter_base<char,__crt_stdio_output::stream_output_adapter<char> >::advance_to_next_pass()
FUNC 1fa0c 4c 0 __crt_stdio_output::positional_parameter_base<char,__crt_stdio_output::string_output_adapter<char> >::advance_to_next_pass()
FUNC 1fa6b 4c 0 __crt_stdio_output::positional_parameter_base<wchar_t,__crt_stdio_output::stream_output_adapter<wchar_t> >::advance_to_next_pass()
FUNC 1faca 4c 0 __crt_stdio_output::positional_parameter_base<wchar_t,__crt_stdio_output::string_output_adapter<wchar_t> >::advance_to_next_pass()
FUNC 1fb29 11 0 __crt_stdio_output::standard_base<char,__crt_stdio_output::stream_output_adapter<char> >::advance_to_next_pass()
FUNC 1fb3e 11 0 __crt_stdio_output::standard_base<char,__crt_stdio_output::string_output_adapter<char> >::advance_to_next_pass()
FUNC 1fb53 11 0 __crt_stdio_output::standard_base<wchar_t,__crt_stdio_output::stream_output_adapter<wchar_t> >::advance_to_next_pass()
FUNC 1fb68 11 0 __crt_stdio_output::standard_base<wchar_t,__crt_stdio_output::string_output_adapter<wchar_t> >::advance_to_next_pass()
FUNC 1fb7d 60 0 __crt_stdio_output::crop_zeroes(char*, __crt_locale_pointers* const)
FUNC 1fbf5 40 0 __crt_stdio_output::output_processor<char,__crt_stdio_output::stream_output_adapter<char>,__crt_stdio_output::format_validation_base<char,__crt_stdio_output::stream_output_adapter<char> > >::find_next_state(const char, const __crt_stdio_output::state) const
FUNC 1fc45 40 0 __crt_stdio_output::output_processor<char,__crt_stdio_output::stream_output_adapter<char>,__crt_stdio_output::positional_parameter_base<char,__crt_stdio_output::stream_output_adapter<char> > >::find_next_state(const char, const __crt_stdio_output::state) const
FUNC 1fc95 3d 0 __crt_stdio_output::output_processor<char,__crt_stdio_output::stream_output_adapter<char>,__crt_stdio_output::standard_base<char,__crt_stdio_output::stream_output_adapter<char> > >::find_next_state(const char, const __crt_stdio_output::state) const
FUNC 1fce1 40 0 __crt_stdio_output::output_processor<char,__crt_stdio_output::string_output_adapter<char>,__crt_stdio_output::format_validation_base<char,__crt_stdio_output::string_output_adapter<char> > >::find_next_state(const char, const __crt_stdio_output::state) const
FUNC 1fd31 40 0 __crt_stdio_output::output_processor<char,__crt_stdio_output::string_output_adapter<char>,__crt_stdio_output::positional_parameter_base<char,__crt_stdio_output::string_output_adapter<char> > >::find_next_state(const char, const __crt_stdio_output::state) const
FUNC 1fd81 3d 0 __crt_stdio_output::output_processor<char,__crt_stdio_output::string_output_adapter<char>,__crt_stdio_output::standard_base<char,__crt_stdio_output::string_output_adapter<char> > >::find_next_state(const char, const __crt_stdio_output::state) const
FUNC 1fdcd 42 0 __crt_stdio_output::output_processor<wchar_t,__crt_stdio_output::stream_output_adapter<wchar_t>,__crt_stdio_output::format_validation_base<wchar_t,__crt_stdio_output::stream_output_adapter<wchar_t> > >::find_next_state(const wchar_t, const __crt_stdio_output::state) const
FUNC 1fe1f 42 0 __crt_stdio_output::output_processor<wchar_t,__crt_stdio_output::stream_output_adapter<wchar_t>,__crt_stdio_output::positional_parameter_base<wchar_t,__crt_stdio_output::stream_output_adapter<wchar_t> > >::find_next_state(const wchar_t, const __crt_stdio_output::state) const
FUNC 1fe71 3f 0 __crt_stdio_output::output_processor<wchar_t,__crt_stdio_output::stream_output_adapter<wchar_t>,__crt_stdio_output::standard_base<wchar_t,__crt_stdio_output::stream_output_adapter<wchar_t> > >::find_next_state(const wchar_t, const __crt_stdio_output::state) const
FUNC 1febf 42 0 __crt_stdio_output::output_processor<wchar_t,__crt_stdio_output::string_output_adapter<wchar_t>,__crt_stdio_output::format_validation_base<wchar_t,__crt_stdio_output::string_output_adapter<wchar_t> > >::find_next_state(const wchar_t, const __crt_stdio_output::state) const
FUNC 1ff11 42 0 __crt_stdio_output::output_processor<wchar_t,__crt_stdio_output::string_output_adapter<wchar_t>,__crt_stdio_output::positional_parameter_base<wchar_t,__crt_stdio_output::string_output_adapter<wchar_t> > >::find_next_state(const wchar_t, const __crt_stdio_output::state) const
FUNC 1ff63 3f 0 __crt_stdio_output::output_processor<wchar_t,__crt_stdio_output::string_output_adapter<wchar_t>,__crt_stdio_output::standard_base<wchar_t,__crt_stdio_output::string_output_adapter<wchar_t> > >::find_next_state(const wchar_t, const __crt_stdio_output::state) const
FUNC 1ffb1 5c 0 __crt_stdio_output::force_decimal_point(char*, __crt_locale_pointers* const)
FUNC 20024 14 0 __crt_deferred_errno_cache::get()
FUNC 2003d 7 0 __crt_stdio_stream::get_flags() const
FUNC 20044 4 0 __crt_stdio_output::positional_parameter_base<char,__crt_stdio_output::stream_output_adapter<char> >::get_parameter_type(short)
FUNC 20048 4 0 __crt_stdio_output::positional_parameter_base<char,__crt_stdio_output::stream_output_adapter<char> >::get_parameter_type(unsigned short)
FUNC 2004c 4 0 __crt_stdio_output::positional_parameter_base<char,__crt_stdio_output::stream_output_adapter<char> >::get_parameter_type(int)
FUNC 20050 4 0 __crt_stdio_output::positional_parameter_base<char,__crt_stdio_output::stream_output_adapter<char> >::get_parameter_type(unsigned int)
FUNC 20054 4 0 __crt_stdio_output::positional_parameter_base<char,__crt_stdio_output::stream_output_adapter<char> >::get_parameter_type(_CRT_DOUBLE)
FUNC 20058 4 0 __crt_stdio_output::positional_parameter_base<char,__crt_stdio_output::stream_output_adapter<char> >::get_parameter_type(long long)
FUNC 2005c 4 0 __crt_stdio_output::positional_parameter_base<char,__crt_stdio_output::stream_output_adapter<char> >::get_parameter_type(unsigned long long)
FUNC 20060 4 0 __crt_stdio_output::positional_parameter_base<char,__crt_stdio_output::stream_output_adapter<char> >::get_parameter_type(wchar_t)
FUNC 20064 4 0 __crt_stdio_output::positional_parameter_base<char,__crt_stdio_output::string_output_adapter<char> >::get_parameter_type(short)
FUNC 20068 4 0 __crt_stdio_output::positional_parameter_base<char,__crt_stdio_output::string_output_adapter<char> >::get_parameter_type(unsigned short)
FUNC 2006c 4 0 __crt_stdio_output::positional_parameter_base<char,__crt_stdio_output::string_output_adapter<char> >::get_parameter_type(int)
FUNC 20070 4 0 __crt_stdio_output::positional_parameter_base<char,__crt_stdio_output::string_output_adapter<char> >::get_parameter_type(unsigned int)
FUNC 20074 4 0 __crt_stdio_output::positional_parameter_base<char,__crt_stdio_output::string_output_adapter<char> >::get_parameter_type(_CRT_DOUBLE)
FUNC 20078 4 0 __crt_stdio_output::positional_parameter_base<char,__crt_stdio_output::string_output_adapter<char> >::get_parameter_type(long long)
FUNC 2007c 4 0 __crt_stdio_output::positional_parameter_base<char,__crt_stdio_output::string_output_adapter<char> >::get_parameter_type(unsigned long long)
FUNC 20080 4 0 __crt_stdio_output::positional_parameter_base<char,__crt_stdio_output::string_output_adapter<char> >::get_parameter_type(wchar_t)
FUNC 20084 4 0 __crt_stdio_output::positional_parameter_base<wchar_t,__crt_stdio_output::stream_output_adapter<wchar_t> >::get_parameter_type(short)
FUNC 20088 4 0 __crt_stdio_output::positional_parameter_base<wchar_t,__crt_stdio_output::stream_output_adapter<wchar_t> >::get_parameter_type(unsigned short)
FUNC 2008c 4 0 __crt_stdio_output::positional_parameter_base<wchar_t,__crt_stdio_output::stream_output_adapter<wchar_t> >::get_parameter_type(int)
FUNC 20090 4 0 __crt_stdio_output::positional_parameter_base<wchar_t,__crt_stdio_output::stream_output_adapter<wchar_t> >::get_parameter_type(unsigned int)
FUNC 20094 4 0 __crt_stdio_output::positional_parameter_base<wchar_t,__crt_stdio_output::stream_output_adapter<wchar_t> >::get_parameter_type(_CRT_DOUBLE)
FUNC 20098 4 0 __crt_stdio_output::positional_parameter_base<wchar_t,__crt_stdio_output::stream_output_adapter<wchar_t> >::get_parameter_type(long long)
FUNC 2009c 4 0 __crt_stdio_output::positional_parameter_base<wchar_t,__crt_stdio_output::stream_output_adapter<wchar_t> >::get_parameter_type(unsigned long long)
FUNC 200a0 4 0 __crt_stdio_output::positional_parameter_base<wchar_t,__crt_stdio_output::stream_output_adapter<wchar_t> >::get_parameter_type(wchar_t)
FUNC 200a4 4 0 __crt_stdio_output::positional_parameter_base<wchar_t,__crt_stdio_output::string_output_adapter<wchar_t> >::get_parameter_type(short)
FUNC 200a8 4 0 __crt_stdio_output::positional_parameter_base<wchar_t,__crt_stdio_output::string_output_adapter<wchar_t> >::get_parameter_type(unsigned short)
FUNC 200ac 4 0 __crt_stdio_output::positional_parameter_base<wchar_t,__crt_stdio_output::string_output_adapter<wchar_t> >::get_parameter_type(int)
FUNC 200b0 4 0 __crt_stdio_output::positional_parameter_base<wchar_t,__crt_stdio_output::string_output_adapter<wchar_t> >::get_parameter_type(unsigned int)
FUNC 200b4 4 0 __crt_stdio_output::positional_parameter_base<wchar_t,__crt_stdio_output::string_output_adapter<wchar_t> >::get_parameter_type(_CRT_DOUBLE)
FUNC 200b8 4 0 __crt_stdio_output::positional_parameter_base<wchar_t,__crt_stdio_output::string_output_adapter<wchar_t> >::get_parameter_type(long long)
FUNC 200bc 4 0 __crt_stdio_output::positional_parameter_base<wchar_t,__crt_stdio_output::string_output_adapter<wchar_t> >::get_parameter_type(unsigned long long)
FUNC 200c0 4 0 __crt_stdio_output::positional_parameter_base<wchar_t,__crt_stdio_output::string_output_adapter<wchar_t> >::get_parameter_type(wchar_t)
FUNC 200c4 12 0 __crt_stdio_output::output_processor<char,__crt_stdio_output::stream_output_adapter<char>,__crt_stdio_output::format_validation_base<char,__crt_stdio_output::stream_output_adapter<char> > >::has_flag(const unsigned int) const
FUNC 200da 12 0 __crt_stdio_output::output_processor<char,__crt_stdio_output::stream_output_adapter<char>,__crt_stdio_output::positional_parameter_base<char,__crt_stdio_output::stream_output_adapter<char> > >::has_flag(const unsigned int) const
FUNC 200f0 12 0 __crt_stdio_output::output_processor<char,__crt_stdio_output::stream_output_adapter<char>,__crt_stdio_output::standard_base<char,__crt_stdio_output::stream_output_adapter<char> > >::has_flag(const unsigned int) const
FUNC 20106 12 0 __crt_stdio_output::output_processor<char,__crt_stdio_output::string_output_adapter<char>,__crt_stdio_output::format_validation_base<char,__crt_stdio_output::string_output_adapter<char> > >::has_flag(const unsigned int) const
FUNC 2011c 12 0 __crt_stdio_output::output_processor<char,__crt_stdio_output::string_output_adapter<char>,__crt_stdio_output::positional_parameter_base<char,__crt_stdio_output::string_output_adapter<char> > >::has_flag(const unsigned int) const
FUNC 20132 12 0 __crt_stdio_output::output_processor<char,__crt_stdio_output::string_output_adapter<char>,__crt_stdio_output::standard_base<char,__crt_stdio_output::string_output_adapter<char> > >::has_flag(const unsigned int) const
FUNC 20148 12 0 __crt_stdio_output::output_processor<wchar_t,__crt_stdio_output::stream_output_adapter<wchar_t>,__crt_stdio_output::format_validation_base<wchar_t,__crt_stdio_output::stream_output_adapter<wchar_t> > >::has_flag(const unsigned int) const
FUNC 2015e 12 0 __crt_stdio_output::output_processor<wchar_t,__crt_stdio_output::stream_output_adapter<wchar_t>,__crt_stdio_output::positional_parameter_base<wchar_t,__crt_stdio_output::stream_output_adapter<wchar_t> > >::has_flag(const unsigned int) const
FUNC 20174 12 0 __crt_stdio_output::output_processor<wchar_t,__crt_stdio_output::stream_output_adapter<wchar_t>,__crt_stdio_output::standard_base<wchar_t,__crt_stdio_output::stream_output_adapter<wchar_t> > >::has_flag(const unsigned int) const
FUNC 2018a 12 0 __crt_stdio_output::output_processor<wchar_t,__crt_stdio_output::string_output_adapter<wchar_t>,__crt_stdio_output::format_validation_base<wchar_t,__crt_stdio_output::string_output_adapter<wchar_t> > >::has_flag(const unsigned int) const
FUNC 201a0 12 0 __crt_stdio_output::output_processor<wchar_t,__crt_stdio_output::string_output_adapter<wchar_t>,__crt_stdio_output::positional_parameter_base<wchar_t,__crt_stdio_output::string_output_adapter<wchar_t> > >::has_flag(const unsigned int) const
FUNC 201b6 12 0 __crt_stdio_output::output_processor<wchar_t,__crt_stdio_output::string_output_adapter<wchar_t>,__crt_stdio_output::standard_base<wchar_t,__crt_stdio_output::string_output_adapter<wchar_t> > >::has_flag(const unsigned int) const
FUNC 201cc 118 0 __crt_stdio_output::positional_parameter_base<char,__crt_stdio_output::stream_output_adapter<char> >::is_positional_parameter_reappearance_consistent(__crt_stdio_output::positional_parameter_base<char,__crt_stdio_output::stream_output_adapter<char> >::parameter_data const&, const __crt_stdio_output::positional_parameter_base<char,__crt_stdio_output::stream_output_adapter<char> >::parameter_type, const char, const __crt_stdio_output::length_modifier)
FUNC 2032a 118 0 __crt_stdio_output::positional_parameter_base<char,__crt_stdio_output::string_output_adapter<char> >::is_positional_parameter_reappearance_consistent(__crt_stdio_output::positional_parameter_base<char,__crt_stdio_output::string_output_adapter<char> >::parameter_data const&, const __crt_stdio_output::positional_parameter_base<char,__crt_stdio_output::string_output_adapter<char> >::parameter_type, const char, const __crt_stdio_output::length_modifier)
FUNC 20488 118 0 __crt_stdio_output::positional_parameter_base<wchar_t,__crt_stdio_output::stream_output_adapter<wchar_t> >::is_positional_parameter_reappearance_consistent(__crt_stdio_output::positional_parameter_base<wchar_t,__crt_stdio_output::stream_output_adapter<wchar_t> >::parameter_data const&, const __crt_stdio_output::positional_parameter_base<wchar_t,__crt_stdio_output::stream_output_adapter<wchar_t> >::parameter_type, const wchar_t, const __crt_stdio_output::length_modifier)
FUNC 205e6 118 0 __crt_stdio_output::positional_parameter_base<wchar_t,__crt_stdio_output::string_output_adapter<wchar_t> >::is_positional_parameter_reappearance_consistent(__crt_stdio_output::positional_parameter_base<wchar_t,__crt_stdio_output::string_output_adapter<wchar_t> >::parameter_data const&, const __crt_stdio_output::positional_parameter_base<wchar_t,__crt_stdio_output::string_output_adapter<wchar_t> >::parameter_type, const wchar_t, const __crt_stdio_output::length_modifier)
FUNC 20744 c 0 __crt_stdio_stream::is_string_backed() const
FUNC 20753 6 0 __crt_stdio_output::output_processor<char,__crt_stdio_output::stream_output_adapter<char>,__crt_stdio_output::format_validation_base<char,__crt_stdio_output::stream_output_adapter<char> > >::narrow_null_string()
FUNC 20759 6 0 __crt_stdio_output::output_processor<char,__crt_stdio_output::stream_output_adapter<char>,__crt_stdio_output::positional_parameter_base<char,__crt_stdio_output::stream_output_adapter<char> > >::narrow_null_string()
FUNC 2075f 6 0 __crt_stdio_output::output_processor<char,__crt_stdio_output::stream_output_adapter<char>,__crt_stdio_output::standard_base<char,__crt_stdio_output::stream_output_adapter<char> > >::narrow_null_string()
FUNC 20765 6 0 __crt_stdio_output::output_processor<char,__crt_stdio_output::string_output_adapter<char>,__crt_stdio_output::format_validation_base<char,__crt_stdio_output::string_output_adapter<char> > >::narrow_null_string()
FUNC 2076b 6 0 __crt_stdio_output::output_processor<char,__crt_stdio_output::string_output_adapter<char>,__crt_stdio_output::positional_parameter_base<char,__crt_stdio_output::string_output_adapter<char> > >::narrow_null_string()
FUNC 20771 6 0 __crt_stdio_output::output_processor<char,__crt_stdio_output::string_output_adapter<char>,__crt_stdio_output::standard_base<char,__crt_stdio_output::string_output_adapter<char> > >::narrow_null_string()
FUNC 20777 6 0 __crt_stdio_output::output_processor<wchar_t,__crt_stdio_output::stream_output_adapter<wchar_t>,__crt_stdio_output::format_validation_base<wchar_t,__crt_stdio_output::stream_output_adapter<wchar_t> > >::narrow_null_string()
FUNC 2077d 6 0 __crt_stdio_output::output_processor<wchar_t,__crt_stdio_output::stream_output_adapter<wchar_t>,__crt_stdio_output::positional_parameter_base<wchar_t,__crt_stdio_output::stream_output_adapter<wchar_t> > >::narrow_null_string()
FUNC 20783 6 0 __crt_stdio_output::output_processor<wchar_t,__crt_stdio_output::stream_output_adapter<wchar_t>,__crt_stdio_output::standard_base<wchar_t,__crt_stdio_output::stream_output_adapter<wchar_t> > >::narrow_null_string()
FUNC 20789 6 0 __crt_stdio_output::output_processor<wchar_t,__crt_stdio_output::string_output_adapter<wchar_t>,__crt_stdio_output::format_validation_base<wchar_t,__crt_stdio_output::string_output_adapter<wchar_t> > >::narrow_null_string()
FUNC 2078f 6 0 __crt_stdio_output::output_processor<wchar_t,__crt_stdio_output::string_output_adapter<wchar_t>,__crt_stdio_output::positional_parameter_base<wchar_t,__crt_stdio_output::string_output_adapter<wchar_t> > >::narrow_null_string()
FUNC 20795 6 0 __crt_stdio_output::output_processor<wchar_t,__crt_stdio_output::string_output_adapter<wchar_t>,__crt_stdio_output::standard_base<wchar_t,__crt_stdio_output::string_output_adapter<wchar_t> > >::narrow_null_string()
FUNC 2079b 74 0 __crt_stdio_output::output_processor<char,__crt_stdio_output::stream_output_adapter<char>,__crt_stdio_output::format_validation_base<char,__crt_stdio_output::stream_output_adapter<char> > >::parse_int_from_format_string(int* const)
FUNC 2082c 74 0 __crt_stdio_output::output_processor<char,__crt_stdio_output::stream_output_adapter<char>,__crt_stdio_output::positional_parameter_base<char,__crt_stdio_output::stream_output_adapter<char> > >::parse_int_from_format_string(int* const)
FUNC 208bd 74 0 __crt_stdio_output::output_processor<char,__crt_stdio_output::stream_output_adapter<char>,__crt_stdio_output::standard_base<char,__crt_stdio_output::stream_output_adapter<char> > >::parse_int_from_format_string(int* const)
FUNC 2094e 74 0 __crt_stdio_output::output_processor<char,__crt_stdio_output::string_output_adapter<char>,__crt_stdio_output::format_validation_base<char,__crt_stdio_output::string_output_adapter<char> > >::parse_int_from_format_string(int* const)
FUNC 209df 74 0 __crt_stdio_output::output_processor<char,__crt_stdio_output::string_output_adapter<char>,__crt_stdio_output::positional_parameter_base<char,__crt_stdio_output::string_output_adapter<char> > >::parse_int_from_format_string(int* const)
FUNC 20a70 74 0 __crt_stdio_output::output_processor<char,__crt_stdio_output::string_output_adapter<char>,__crt_stdio_output::standard_base<char,__crt_stdio_output::string_output_adapter<char> > >::parse_int_from_format_string(int* const)
FUNC 20b01 76 0 __crt_stdio_output::output_processor<wchar_t,__crt_stdio_output::stream_output_adapter<wchar_t>,__crt_stdio_output::format_validation_base<wchar_t,__crt_stdio_output::stream_output_adapter<wchar_t> > >::parse_int_from_format_string(int* const)
FUNC 20b94 76 0 __crt_stdio_output::output_processor<wchar_t,__crt_stdio_output::stream_output_adapter<wchar_t>,__crt_stdio_output::positional_parameter_base<wchar_t,__crt_stdio_output::stream_output_adapter<wchar_t> > >::parse_int_from_format_string(int* const)
FUNC 20c27 76 0 __crt_stdio_output::output_processor<wchar_t,__crt_stdio_output::stream_output_adapter<wchar_t>,__crt_stdio_output::standard_base<wchar_t,__crt_stdio_output::stream_output_adapter<wchar_t> > >::parse_int_from_format_string(int* const)
FUNC 20cba 76 0 __crt_stdio_output::output_processor<wchar_t,__crt_stdio_output::string_output_adapter<wchar_t>,__crt_stdio_output::format_validation_base<wchar_t,__crt_stdio_output::string_output_adapter<wchar_t> > >::parse_int_from_format_string(int* const)
FUNC 20d4d 76 0 __crt_stdio_output::output_processor<wchar_t,__crt_stdio_output::string_output_adapter<wchar_t>,__crt_stdio_output::positional_parameter_base<wchar_t,__crt_stdio_output::string_output_adapter<wchar_t> > >::parse_int_from_format_string(int* const)
FUNC 20de0 76 0 __crt_stdio_output::output_processor<wchar_t,__crt_stdio_output::string_output_adapter<wchar_t>,__crt_stdio_output::standard_base<wchar_t,__crt_stdio_output::string_output_adapter<wchar_t> > >::parse_int_from_format_string(int* const)
FUNC 20e73 124 0 __crt_stdio_output::output_processor<char,__crt_stdio_output::stream_output_adapter<char>,__crt_stdio_output::format_validation_base<char,__crt_stdio_output::stream_output_adapter<char> > >::process()
FUNC 20fe0 130 0 __crt_stdio_output::output_processor<char,__crt_stdio_output::stream_output_adapter<char>,__crt_stdio_output::positional_parameter_base<char,__crt_stdio_output::stream_output_adapter<char> > >::process()
FUNC 2115c 114 0 __crt_stdio_output::output_processor<char,__crt_stdio_output::stream_output_adapter<char>,__crt_stdio_output::standard_base<char,__crt_stdio_output::stream_output_adapter<char> > >::process()
FUNC 212b5 124 0 __crt_stdio_output::output_processor<char,__crt_stdio_output::string_output_adapter<char>,__crt_stdio_output::format_validation_base<char,__crt_stdio_output::string_output_adapter<char> > >::process()
FUNC 21422 130 0 __crt_stdio_output::output_processor<char,__crt_stdio_output::string_output_adapter<char>,__crt_stdio_output::positional_parameter_base<char,__crt_stdio_output::string_output_adapter<char> > >::process()
FUNC 2159e 114 0 __crt_stdio_output::output_processor<char,__crt_stdio_output::string_output_adapter<char>,__crt_stdio_output::standard_base<char,__crt_stdio_output::string_output_adapter<char> > >::process()
FUNC 216f7 128 0 __crt_stdio_output::output_processor<wchar_t,__crt_stdio_output::stream_output_adapter<wchar_t>,__crt_stdio_output::format_validation_base<wchar_t,__crt_stdio_output::stream_output_adapter<wchar_t> > >::process()
FUNC 21869 134 0 __crt_stdio_output::output_processor<wchar_t,__crt_stdio_output::stream_output_adapter<wchar_t>,__crt_stdio_output::positional_parameter_base<wchar_t,__crt_stdio_output::stream_output_adapter<wchar_t> > >::process()
FUNC 219ea 11c 0 __crt_stdio_output::output_processor<wchar_t,__crt_stdio_output::stream_output_adapter<wchar_t>,__crt_stdio_output::standard_base<wchar_t,__crt_stdio_output::stream_output_adapter<wchar_t> > >::process()
FUNC 21b4d 128 0 __crt_stdio_output::output_processor<wchar_t,__crt_stdio_output::string_output_adapter<wchar_t>,__crt_stdio_output::format_validation_base<wchar_t,__crt_stdio_output::string_output_adapter<wchar_t> > >::process()
FUNC 21cbf 134 0 __crt_stdio_output::output_processor<wchar_t,__crt_stdio_output::string_output_adapter<wchar_t>,__crt_stdio_output::positional_parameter_base<wchar_t,__crt_stdio_output::string_output_adapter<wchar_t> > >::process()
FUNC 21e40 11c 0 __crt_stdio_output::output_processor<wchar_t,__crt_stdio_output::string_output_adapter<wchar_t>,__crt_stdio_output::standard_base<wchar_t,__crt_stdio_output::string_output_adapter<wchar_t> > >::process()
FUNC 21fa3 3 0 __crt_stdio_stream::public_stream() const
FUNC 21fa6 f 0 __crt_stdio_output::output_processor<char,__crt_stdio_output::stream_output_adapter<char>,__crt_stdio_output::format_validation_base<char,__crt_stdio_output::stream_output_adapter<char> > >::set_flag(const unsigned int)
FUNC 21fb8 f 0 __crt_stdio_output::output_processor<char,__crt_stdio_output::stream_output_adapter<char>,__crt_stdio_output::positional_parameter_base<char,__crt_stdio_output::stream_output_adapter<char> > >::set_flag(const unsigned int)
FUNC 21fca f 0 __crt_stdio_output::output_processor<char,__crt_stdio_output::stream_output_adapter<char>,__crt_stdio_output::standard_base<char,__crt_stdio_output::stream_output_adapter<char> > >::set_flag(const unsigned int)
FUNC 21fdc f 0 __crt_stdio_output::output_processor<char,__crt_stdio_output::string_output_adapter<char>,__crt_stdio_output::format_validation_base<char,__crt_stdio_output::string_output_adapter<char> > >::set_flag(const unsigned int)
FUNC 21fee f 0 __crt_stdio_output::output_processor<char,__crt_stdio_output::string_output_adapter<char>,__crt_stdio_output::positional_parameter_base<char,__crt_stdio_output::string_output_adapter<char> > >::set_flag(const unsigned int)
FUNC 22000 f 0 __crt_stdio_output::output_processor<char,__crt_stdio_output::string_output_adapter<char>,__crt_stdio_output::standard_base<char,__crt_stdio_output::string_output_adapter<char> > >::set_flag(const unsigned int)
FUNC 22012 f 0 __crt_stdio_output::output_processor<wchar_t,__crt_stdio_output::stream_output_adapter<wchar_t>,__crt_stdio_output::format_validation_base<wchar_t,__crt_stdio_output::stream_output_adapter<wchar_t> > >::set_flag(const unsigned int)
FUNC 22024 f 0 __crt_stdio_output::output_processor<wchar_t,__crt_stdio_output::stream_output_adapter<wchar_t>,__crt_stdio_output::positional_parameter_base<wchar_t,__crt_stdio_output::stream_output_adapter<wchar_t> > >::set_flag(const unsigned int)
FUNC 22036 f 0 __crt_stdio_output::output_processor<wchar_t,__crt_stdio_output::stream_output_adapter<wchar_t>,__crt_stdio_output::standard_base<wchar_t,__crt_stdio_output::stream_output_adapter<wchar_t> > >::set_flag(const unsigned int)
FUNC 22048 f 0 __crt_stdio_output::output_processor<wchar_t,__crt_stdio_output::string_output_adapter<wchar_t>,__crt_stdio_output::format_validation_base<wchar_t,__crt_stdio_output::string_output_adapter<wchar_t> > >::set_flag(const unsigned int)
FUNC 2205a f 0 __crt_stdio_output::output_processor<wchar_t,__crt_stdio_output::string_output_adapter<wchar_t>,__crt_stdio_output::positional_parameter_base<wchar_t,__crt_stdio_output::string_output_adapter<wchar_t> > >::set_flag(const unsigned int)
FUNC 2206c f 0 __crt_stdio_output::output_processor<wchar_t,__crt_stdio_output::string_output_adapter<wchar_t>,__crt_stdio_output::standard_base<wchar_t,__crt_stdio_output::string_output_adapter<wchar_t> > >::set_flag(const unsigned int)
FUNC 2207e 16 0 __crt_stdio_output::positional_parameter_base<char,__crt_stdio_output::stream_output_adapter<char> >::should_format()
FUNC 22099 16 0 __crt_stdio_output::positional_parameter_base<char,__crt_stdio_output::string_output_adapter<char> >::should_format()
FUNC 220b4 16 0 __crt_stdio_output::positional_parameter_base<wchar_t,__crt_stdio_output::stream_output_adapter<wchar_t> >::should_format()
FUNC 220cf 16 0 __crt_stdio_output::positional_parameter_base<wchar_t,__crt_stdio_output::string_output_adapter<wchar_t> >::should_format()
FUNC 220ea 3 0 __crt_stdio_output::standard_base<char,__crt_stdio_output::stream_output_adapter<char> >::should_format()
FUNC 220ed 3 0 __crt_stdio_output::standard_base<char,__crt_stdio_output::string_output_adapter<char> >::should_format()
FUNC 220f0 3 0 __crt_stdio_output::standard_base<wchar_t,__crt_stdio_output::stream_output_adapter<wchar_t> >::should_format()
FUNC 220f3 3 0 __crt_stdio_output::standard_base<wchar_t,__crt_stdio_output::string_output_adapter<wchar_t> >::should_format()
FUNC 220f6 28 0 __crt_stdio_output::positional_parameter_base<char,__crt_stdio_output::stream_output_adapter<char> >::should_skip_normal_state_processing()
FUNC 22128 28 0 __crt_stdio_output::positional_parameter_base<char,__crt_stdio_output::string_output_adapter<char> >::should_skip_normal_state_processing()
FUNC 2215a 28 0 __crt_stdio_output::positional_parameter_base<wchar_t,__crt_stdio_output::stream_output_adapter<wchar_t> >::should_skip_normal_state_processing()
FUNC 2218c 28 0 __crt_stdio_output::positional_parameter_base<wchar_t,__crt_stdio_output::string_output_adapter<wchar_t> >::should_skip_normal_state_processing()
FUNC 221be 3 0 __crt_stdio_output::standard_base<char,__crt_stdio_output::stream_output_adapter<char> >::should_skip_normal_state_processing()
FUNC 221c1 3 0 __crt_stdio_output::standard_base<char,__crt_stdio_output::string_output_adapter<char> >::should_skip_normal_state_processing()
FUNC 221c4 3 0 __crt_stdio_output::standard_base<wchar_t,__crt_stdio_output::stream_output_adapter<wchar_t> >::should_skip_normal_state_processing()
FUNC 221c7 3 0 __crt_stdio_output::standard_base<wchar_t,__crt_stdio_output::string_output_adapter<wchar_t> >::should_skip_normal_state_processing()
FUNC 221ca 17 0 __crt_stdio_output::positional_parameter_base<char,__crt_stdio_output::stream_output_adapter<char> >::should_skip_type_state_output() const
FUNC 221e6 17 0 __crt_stdio_output::positional_parameter_base<char,__crt_stdio_output::string_output_adapter<char> >::should_skip_type_state_output() const
FUNC 22202 17 0 __crt_stdio_output::positional_parameter_base<wchar_t,__crt_stdio_output::stream_output_adapter<wchar_t> >::should_skip_type_state_output() const
FUNC 2221e 17 0 __crt_stdio_output::positional_parameter_base<wchar_t,__crt_stdio_output::string_output_adapter<wchar_t> >::should_skip_type_state_output() const
FUNC 2223a 3 0 __crt_stdio_output::standard_base<char,__crt_stdio_output::stream_output_adapter<char> >::should_skip_type_state_output() const
FUNC 2223d 3 0 __crt_stdio_output::standard_base<char,__crt_stdio_output::string_output_adapter<char> >::should_skip_type_state_output() const
FUNC 22240 3 0 __crt_stdio_output::standard_base<wchar_t,__crt_stdio_output::stream_output_adapter<wchar_t> >::should_skip_type_state_output() const
FUNC 22243 3 0 __crt_stdio_output::standard_base<wchar_t,__crt_stdio_output::string_output_adapter<wchar_t> >::should_skip_type_state_output() const
FUNC 22246 7 0 __crt_stdio_output::output_processor<char,__crt_stdio_output::stream_output_adapter<char>,__crt_stdio_output::format_validation_base<char,__crt_stdio_output::stream_output_adapter<char> > >::state_case_dot()
FUNC 2224d 7 0 __crt_stdio_output::output_processor<char,__crt_stdio_output::stream_output_adapter<char>,__crt_stdio_output::positional_parameter_base<char,__crt_stdio_output::stream_output_adapter<char> > >::state_case_dot()
FUNC 22254 7 0 __crt_stdio_output::output_processor<char,__crt_stdio_output::stream_output_adapter<char>,__crt_stdio_output::standard_base<char,__crt_stdio_output::stream_output_adapter<char> > >::state_case_dot()
FUNC 2225b 7 0 __crt_stdio_output::output_processor<char,__crt_stdio_output::string_output_adapter<char>,__crt_stdio_output::format_validation_base<char,__crt_stdio_output::string_output_adapter<char> > >::state_case_dot()
FUNC 22262 7 0 __crt_stdio_output::output_processor<char,__crt_stdio_output::string_output_adapter<char>,__crt_stdio_output::positional_parameter_base<char,__crt_stdio_output::string_output_adapter<char> > >::state_case_dot()
FUNC 22269 7 0 __crt_stdio_output::output_processor<char,__crt_stdio_output::string_output_adapter<char>,__crt_stdio_output::standard_base<char,__crt_stdio_output::string_output_adapter<char> > >::state_case_dot()
FUNC 22270 7 0 __crt_stdio_output::output_processor<wchar_t,__crt_stdio_output::stream_output_adapter<wchar_t>,__crt_stdio_output::format_validation_base<wchar_t,__crt_stdio_output::stream_output_adapter<wchar_t> > >::state_case_dot()
FUNC 22277 7 0 __crt_stdio_output::output_processor<wchar_t,__crt_stdio_output::stream_output_adapter<wchar_t>,__crt_stdio_output::positional_parameter_base<wchar_t,__crt_stdio_output::stream_output_adapter<wchar_t> > >::state_case_dot()
FUNC 2227e 7 0 __crt_stdio_output::output_processor<wchar_t,__crt_stdio_output::stream_output_adapter<wchar_t>,__crt_stdio_output::standard_base<wchar_t,__crt_stdio_output::stream_output_adapter<wchar_t> > >::state_case_dot()
FUNC 22285 7 0 __crt_stdio_output::output_processor<wchar_t,__crt_stdio_output::string_output_adapter<wchar_t>,__crt_stdio_output::format_validation_base<wchar_t,__crt_stdio_output::string_output_adapter<wchar_t> > >::state_case_dot()
FUNC 2228c 7 0 __crt_stdio_output::output_processor<wchar_t,__crt_stdio_output::string_output_adapter<wchar_t>,__crt_stdio_output::positional_parameter_base<wchar_t,__crt_stdio_output::string_output_adapter<wchar_t> > >::state_case_dot()
FUNC 22293 7 0 __crt_stdio_output::output_processor<wchar_t,__crt_stdio_output::string_output_adapter<wchar_t>,__crt_stdio_output::standard_base<wchar_t,__crt_stdio_output::string_output_adapter<wchar_t> > >::state_case_dot()
FUNC 2229a 3d 0 __crt_stdio_output::output_processor<char,__crt_stdio_output::stream_output_adapter<char>,__crt_stdio_output::format_validation_base<char,__crt_stdio_output::stream_output_adapter<char> > >::state_case_flag()
FUNC 222e6 3d 0 __crt_stdio_output::output_processor<char,__crt_stdio_output::stream_output_adapter<char>,__crt_stdio_output::positional_parameter_base<char,__crt_stdio_output::stream_output_adapter<char> > >::state_case_flag()
FUNC 22332 3d 0 __crt_stdio_output::output_processor<char,__crt_stdio_output::stream_output_adapter<char>,__crt_stdio_output::standard_base<char,__crt_stdio_output::stream_output_adapter<char> > >::state_case_flag()
FUNC 2237e 3d 0 __crt_stdio_output::output_processor<char,__crt_stdio_output::string_output_adapter<char>,__crt_stdio_output::format_validation_base<char,__crt_stdio_output::string_output_adapter<char> > >::state_case_flag()
FUNC 223ca 3d 0 __crt_stdio_output::output_processor<char,__crt_stdio_output::string_output_adapter<char>,__crt_stdio_output::positional_parameter_base<char,__crt_stdio_output::string_output_adapter<char> > >::state_case_flag()
FUNC 22416 3d 0 __crt_stdio_output::output_processor<char,__crt_stdio_output::string_output_adapter<char>,__crt_stdio_output::standard_base<char,__crt_stdio_output::string_output_adapter<char> > >::state_case_flag()
FUNC 22462 3d 0 __crt_stdio_output::output_processor<wchar_t,__crt_stdio_output::stream_output_adapter<wchar_t>,__crt_stdio_output::format_validation_base<wchar_t,__crt_stdio_output::stream_output_adapter<wchar_t> > >::state_case_flag()
FUNC 224ae 3d 0 __crt_stdio_output::output_processor<wchar_t,__crt_stdio_output::stream_output_adapter<wchar_t>,__crt_stdio_output::positional_parameter_base<wchar_t,__crt_stdio_output::stream_output_adapter<wchar_t> > >::state_case_flag()
FUNC 224fa 3d 0 __crt_stdio_output::output_processor<wchar_t,__crt_stdio_output::stream_output_adapter<wchar_t>,__crt_stdio_output::standard_base<wchar_t,__crt_stdio_output::stream_output_adapter<wchar_t> > >::state_case_flag()
FUNC 22546 3d 0 __crt_stdio_output::output_processor<wchar_t,__crt_stdio_output::string_output_adapter<wchar_t>,__crt_stdio_output::format_validation_base<wchar_t,__crt_stdio_output::string_output_adapter<wchar_t> > >::state_case_flag()
FUNC 22592 3d 0 __crt_stdio_output::output_processor<wchar_t,__crt_stdio_output::string_output_adapter<wchar_t>,__crt_stdio_output::positional_parameter_base<wchar_t,__crt_stdio_output::string_output_adapter<wchar_t> > >::state_case_flag()
FUNC 225de 3d 0 __crt_stdio_output::output_processor<wchar_t,__crt_stdio_output::string_output_adapter<wchar_t>,__crt_stdio_output::standard_base<wchar_t,__crt_stdio_output::string_output_adapter<wchar_t> > >::state_case_flag()
FUNC 2262a 1f 0 __crt_stdio_output::output_processor<char,__crt_stdio_output::stream_output_adapter<char>,__crt_stdio_output::format_validation_base<char,__crt_stdio_output::stream_output_adapter<char> > >::state_case_normal()
FUNC 22650 31 0 __crt_stdio_output::output_processor<char,__crt_stdio_output::stream_output_adapter<char>,__crt_stdio_output::positional_parameter_base<char,__crt_stdio_output::stream_output_adapter<char> > >::state_case_normal()
FUNC 2268d 1f 0 __crt_stdio_output::output_processor<char,__crt_stdio_output::stream_output_adapter<char>,__crt_stdio_output::standard_base<char,__crt_stdio_output::stream_output_adapter<char> > >::state_case_normal()
FUNC 226b3 1f 0 __crt_stdio_output::output_processor<char,__crt_stdio_output::string_output_adapter<char>,__crt_stdio_output::format_validation_base<char,__crt_stdio_output::string_output_adapter<char> > >::state_case_normal()
FUNC 226d9 31 0 __crt_stdio_output::output_processor<char,__crt_stdio_output::string_output_adapter<char>,__crt_stdio_output::positional_parameter_base<char,__crt_stdio_output::string_output_adapter<char> > >::state_case_normal()
FUNC 22716 1f 0 __crt_stdio_output::output_processor<char,__crt_stdio_output::string_output_adapter<char>,__crt_stdio_output::standard_base<char,__crt_stdio_output::string_output_adapter<char> > >::state_case_normal()
FUNC 2273c 1f 0 __crt_stdio_output::output_processor<wchar_t,__crt_stdio_output::stream_output_adapter<wchar_t>,__crt_stdio_output::format_validation_base<wchar_t,__crt_stdio_output::stream_output_adapter<wchar_t> > >::state_case_normal()
FUNC 22762 31 0 __crt_stdio_output::output_processor<wchar_t,__crt_stdio_output::stream_output_adapter<wchar_t>,__crt_stdio_output::positional_parameter_base<wchar_t,__crt_stdio_output::stream_output_adapter<wchar_t> > >::state_case_normal()
FUNC 2279f 1f 0 __crt_stdio_output::output_processor<wchar_t,__crt_stdio_output::stream_output_adapter<wchar_t>,__crt_stdio_output::standard_base<wchar_t,__crt_stdio_output::stream_output_adapter<wchar_t> > >::state_case_normal()
FUNC 227c5 1f 0 __crt_stdio_output::output_processor<wchar_t,__crt_stdio_output::string_output_adapter<wchar_t>,__crt_stdio_output::format_validation_base<wchar_t,__crt_stdio_output::string_output_adapter<wchar_t> > >::state_case_normal()
FUNC 227eb 31 0 __crt_stdio_output::output_processor<wchar_t,__crt_stdio_output::string_output_adapter<wchar_t>,__crt_stdio_output::positional_parameter_base<wchar_t,__crt_stdio_output::string_output_adapter<wchar_t> > >::state_case_normal()
FUNC 22828 1f 0 __crt_stdio_output::output_processor<wchar_t,__crt_stdio_output::string_output_adapter<wchar_t>,__crt_stdio_output::standard_base<wchar_t,__crt_stdio_output::string_output_adapter<wchar_t> > >::state_case_normal()
FUNC 2284e 3a 0 __crt_stdio_output::output_processor<char,__crt_stdio_output::stream_output_adapter<char>,__crt_stdio_output::format_validation_base<char,__crt_stdio_output::stream_output_adapter<char> > >::state_case_normal_common()
FUNC 22896 3a 0 __crt_stdio_output::output_processor<char,__crt_stdio_output::stream_output_adapter<char>,__crt_stdio_output::positional_parameter_base<char,__crt_stdio_output::stream_output_adapter<char> > >::state_case_normal_common()
FUNC 228de 3a 0 __crt_stdio_output::output_processor<char,__crt_stdio_output::stream_output_adapter<char>,__crt_stdio_output::standard_base<char,__crt_stdio_output::stream_output_adapter<char> > >::state_case_normal_common()
FUNC 22926 2a 0 __crt_stdio_output::output_processor<char,__crt_stdio_output::string_output_adapter<char>,__crt_stdio_output::format_validation_base<char,__crt_stdio_output::string_output_adapter<char> > >::state_case_normal_common()
FUNC 2295a 2a 0 __crt_stdio_output::output_processor<char,__crt_stdio_output::string_output_adapter<char>,__crt_stdio_output::positional_parameter_base<char,__crt_stdio_output::string_output_adapter<char> > >::state_case_normal_common()
FUNC 2298e 2a 0 __crt_stdio_output::output_processor<char,__crt_stdio_output::string_output_adapter<char>,__crt_stdio_output::standard_base<char,__crt_stdio_output::string_output_adapter<char> > >::state_case_normal_common()
FUNC 229c2 2a 0 __crt_stdio_output::output_processor<wchar_t,__crt_stdio_output::stream_output_adapter<wchar_t>,__crt_stdio_output::format_validation_base<wchar_t,__crt_stdio_output::stream_output_adapter<wchar_t> > >::state_case_normal_common()
FUNC 229f6 2a 0 __crt_stdio_output::output_processor<wchar_t,__crt_stdio_output::stream_output_adapter<wchar_t>,__crt_stdio_output::positional_parameter_base<wchar_t,__crt_stdio_output::stream_output_adapter<wchar_t> > >::state_case_normal_common()
FUNC 22a2a 2a 0 __crt_stdio_output::output_processor<wchar_t,__crt_stdio_output::stream_output_adapter<wchar_t>,__crt_stdio_output::standard_base<wchar_t,__crt_stdio_output::stream_output_adapter<wchar_t> > >::state_case_normal_common()
FUNC 22a5e 1b 0 __crt_stdio_output::output_processor<wchar_t,__crt_stdio_output::string_output_adapter<wchar_t>,__crt_stdio_output::format_validation_base<wchar_t,__crt_stdio_output::string_output_adapter<wchar_t> > >::state_case_normal_common()
FUNC 22a7f 1b 0 __crt_stdio_output::output_processor<wchar_t,__crt_stdio_output::string_output_adapter<wchar_t>,__crt_stdio_output::positional_parameter_base<wchar_t,__crt_stdio_output::string_output_adapter<wchar_t> > >::state_case_normal_common()
FUNC 22aa0 1b 0 __crt_stdio_output::output_processor<wchar_t,__crt_stdio_output::string_output_adapter<wchar_t>,__crt_stdio_output::standard_base<wchar_t,__crt_stdio_output::string_output_adapter<wchar_t> > >::state_case_normal_common()
FUNC 22ac1 6d 0 __crt_stdio_output::output_processor<char,__crt_stdio_output::stream_output_adapter<char>,__crt_stdio_output::format_validation_base<char,__crt_stdio_output::stream_output_adapter<char> > >::state_case_normal_tchar(char)
FUNC 22b49 6d 0 __crt_stdio_output::output_processor<char,__crt_stdio_output::stream_output_adapter<char>,__crt_stdio_output::positional_parameter_base<char,__crt_stdio_output::stream_output_adapter<char> > >::state_case_normal_tchar(char)
FUNC 22bd1 6d 0 __crt_stdio_output::output_processor<char,__crt_stdio_output::stream_output_adapter<char>,__crt_stdio_output::standard_base<char,__crt_stdio_output::stream_output_adapter<char> > >::state_case_normal_tchar(char)
FUNC 22c59 64 0 __crt_stdio_output::output_processor<char,__crt_stdio_output::string_output_adapter<char>,__crt_stdio_output::format_validation_base<char,__crt_stdio_output::string_output_adapter<char> > >::state_case_normal_tchar(char)
FUNC 22cd6 64 0 __crt_stdio_output::output_processor<char,__crt_stdio_output::string_output_adapter<char>,__crt_stdio_output::positional_parameter_base<char,__crt_stdio_output::string_output_adapter<char> > >::state_case_normal_tchar(char)
FUNC 22d53 64 0 __crt_stdio_output::output_processor<char,__crt_stdio_output::string_output_adapter<char>,__crt_stdio_output::standard_base<char,__crt_stdio_output::string_output_adapter<char> > >::state_case_normal_tchar(char)
FUNC 22dd0 9 0 __crt_stdio_output::output_processor<wchar_t,__crt_stdio_output::stream_output_adapter<wchar_t>,__crt_stdio_output::format_validation_base<wchar_t,__crt_stdio_output::stream_output_adapter<wchar_t> > >::state_case_normal_tchar(wchar_t)
FUNC 22ddb 9 0 __crt_stdio_output::output_processor<wchar_t,__crt_stdio_output::stream_output_adapter<wchar_t>,__crt_stdio_output::positional_parameter_base<wchar_t,__crt_stdio_output::stream_output_adapter<wchar_t> > >::state_case_normal_tchar(wchar_t)
FUNC 22de6 9 0 __crt_stdio_output::output_processor<wchar_t,__crt_stdio_output::stream_output_adapter<wchar_t>,__crt_stdio_output::standard_base<wchar_t,__crt_stdio_output::stream_output_adapter<wchar_t> > >::state_case_normal_tchar(wchar_t)
FUNC 22df1 9 0 __crt_stdio_output::output_processor<wchar_t,__crt_stdio_output::string_output_adapter<wchar_t>,__crt_stdio_output::format_validation_base<wchar_t,__crt_stdio_output::string_output_adapter<wchar_t> > >::state_case_normal_tchar(wchar_t)
FUNC 22dfc 9 0 __crt_stdio_output::output_processor<wchar_t,__crt_stdio_output::string_output_adapter<wchar_t>,__crt_stdio_output::positional_parameter_base<wchar_t,__crt_stdio_output::string_output_adapter<wchar_t> > >::state_case_normal_tchar(wchar_t)
FUNC 22e07 9 0 __crt_stdio_output::output_processor<wchar_t,__crt_stdio_output::string_output_adapter<wchar_t>,__crt_stdio_output::standard_base<wchar_t,__crt_stdio_output::string_output_adapter<wchar_t> > >::state_case_normal_tchar(wchar_t)
FUNC 22e12 18 0 __crt_stdio_output::output_processor<char,__crt_stdio_output::stream_output_adapter<char>,__crt_stdio_output::format_validation_base<char,__crt_stdio_output::stream_output_adapter<char> > >::state_case_percent()
FUNC 22e30 18 0 __crt_stdio_output::output_processor<char,__crt_stdio_output::stream_output_adapter<char>,__crt_stdio_output::positional_parameter_base<char,__crt_stdio_output::stream_output_adapter<char> > >::state_case_percent()
FUNC 22e4e 18 0 __crt_stdio_output::output_processor<char,__crt_stdio_output::stream_output_adapter<char>,__crt_stdio_output::standard_base<char,__crt_stdio_output::stream_output_adapter<char> > >::state_case_percent()
FUNC 22e6c 18 0 __crt_stdio_output::output_processor<char,__crt_stdio_output::string_output_adapter<char>,__crt_stdio_output::format_validation_base<char,__crt_stdio_output::string_output_adapter<char> > >::state_case_percent()
FUNC 22e8a 18 0 __crt_stdio_output::output_processor<char,__crt_stdio_output::string_output_adapter<char>,__crt_stdio_output::positional_parameter_base<char,__crt_stdio_output::string_output_adapter<char> > >::state_case_percent()
FUNC 22ea8 18 0 __crt_stdio_output::output_processor<char,__crt_stdio_output::string_output_adapter<char>,__crt_stdio_output::standard_base<char,__crt_stdio_output::string_output_adapter<char> > >::state_case_percent()
FUNC 22ec6 18 0 __crt_stdio_output::output_processor<wchar_t,__crt_stdio_output::stream_output_adapter<wchar_t>,__crt_stdio_output::format_validation_base<wchar_t,__crt_stdio_output::stream_output_adapter<wchar_t> > >::state_case_percent()
FUNC 22ee4 18 0 __crt_stdio_output::output_processor<wchar_t,__crt_stdio_output::stream_output_adapter<wchar_t>,__crt_stdio_output::positional_parameter_base<wchar_t,__crt_stdio_output::stream_output_adapter<wchar_t> > >::state_case_percent()
FUNC 22f02 18 0 __crt_stdio_output::output_processor<wchar_t,__crt_stdio_output::stream_output_adapter<wchar_t>,__crt_stdio_output::standard_base<wchar_t,__crt_stdio_output::stream_output_adapter<wchar_t> > >::state_case_percent()
FUNC 22f20 18 0 __crt_stdio_output::output_processor<wchar_t,__crt_stdio_output::string_output_adapter<wchar_t>,__crt_stdio_output::format_validation_base<wchar_t,__crt_stdio_output::string_output_adapter<wchar_t> > >::state_case_percent()
FUNC 22f3e 18 0 __crt_stdio_output::output_processor<wchar_t,__crt_stdio_output::string_output_adapter<wchar_t>,__crt_stdio_output::positional_parameter_base<wchar_t,__crt_stdio_output::string_output_adapter<wchar_t> > >::state_case_percent()
FUNC 22f5c 18 0 __crt_stdio_output::output_processor<wchar_t,__crt_stdio_output::string_output_adapter<wchar_t>,__crt_stdio_output::standard_base<wchar_t,__crt_stdio_output::string_output_adapter<wchar_t> > >::state_case_percent()
FUNC 22f7a 26 0 __crt_stdio_output::output_processor<char,__crt_stdio_output::stream_output_adapter<char>,__crt_stdio_output::format_validation_base<char,__crt_stdio_output::stream_output_adapter<char> > >::state_case_precision()
FUNC 22fa9 3a 0 __crt_stdio_output::output_processor<char,__crt_stdio_output::stream_output_adapter<char>,__crt_stdio_output::positional_parameter_base<char,__crt_stdio_output::stream_output_adapter<char> > >::state_case_precision()
FUNC 22ff1 26 0 __crt_stdio_output::output_processor<char,__crt_stdio_output::stream_output_adapter<char>,__crt_stdio_output::standard_base<char,__crt_stdio_output::stream_output_adapter<char> > >::state_case_precision()
FUNC 23020 26 0 __crt_stdio_output::output_processor<char,__crt_stdio_output::string_output_adapter<char>,__crt_stdio_output::format_validation_base<char,__crt_stdio_output::string_output_adapter<char> > >::state_case_precision()
FUNC 2304f 3a 0 __crt_stdio_output::output_processor<char,__crt_stdio_output::string_output_adapter<char>,__crt_stdio_output::positional_parameter_base<char,__crt_stdio_output::string_output_adapter<char> > >::state_case_precision()
FUNC 23097 26 0 __crt_stdio_output::output_processor<char,__crt_stdio_output::string_output_adapter<char>,__crt_stdio_output::standard_base<char,__crt_stdio_output::string_output_adapter<char> > >::state_case_precision()
FUNC 230c6 27 0 __crt_stdio_output::output_processor<wchar_t,__crt_stdio_output::stream_output_adapter<wchar_t>,__crt_stdio_output::format_validation_base<wchar_t,__crt_stdio_output::stream_output_adapter<wchar_t> > >::state_case_precision()
FUNC 230f6 3b 0 __crt_stdio_output::output_processor<wchar_t,__crt_stdio_output::stream_output_adapter<wchar_t>,__crt_stdio_output::positional_parameter_base<wchar_t,__crt_stdio_output::stream_output_adapter<wchar_t> > >::state_case_precision()
FUNC 2313f 27 0 __crt_stdio_output::output_processor<wchar_t,__crt_stdio_output::stream_output_adapter<wchar_t>,__crt_stdio_output::standard_base<wchar_t,__crt_stdio_output::stream_output_adapter<wchar_t> > >::state_case_precision()
FUNC 2316f 27 0 __crt_stdio_output::output_processor<wchar_t,__crt_stdio_output::string_output_adapter<wchar_t>,__crt_stdio_output::format_validation_base<wchar_t,__crt_stdio_output::string_output_adapter<wchar_t> > >::state_case_precision()
FUNC 2319f 3b 0 __crt_stdio_output::output_processor<wchar_t,__crt_stdio_output::string_output_adapter<wchar_t>,__crt_stdio_output::positional_parameter_base<wchar_t,__crt_stdio_output::string_output_adapter<wchar_t> > >::state_case_precision()
FUNC 231e8 27 0 __crt_stdio_output::output_processor<wchar_t,__crt_stdio_output::string_output_adapter<wchar_t>,__crt_stdio_output::standard_base<wchar_t,__crt_stdio_output::string_output_adapter<wchar_t> > >::state_case_precision()
FUNC 23218 14e 0 __crt_stdio_output::output_processor<char,__crt_stdio_output::stream_output_adapter<char>,__crt_stdio_output::format_validation_base<char,__crt_stdio_output::stream_output_adapter<char> > >::state_case_size()
FUNC 233b9 14e 0 __crt_stdio_output::output_processor<char,__crt_stdio_output::stream_output_adapter<char>,__crt_stdio_output::positional_parameter_base<char,__crt_stdio_output::stream_output_adapter<char> > >::state_case_size()
FUNC 2355a 14e 0 __crt_stdio_output::output_processor<char,__crt_stdio_output::stream_output_adapter<char>,__crt_stdio_output::standard_base<char,__crt_stdio_output::stream_output_adapter<char> > >::state_case_size()
FUNC 236fb 14e 0 __crt_stdio_output::output_processor<char,__crt_stdio_output::string_output_adapter<char>,__crt_stdio_output::format_validation_base<char,__crt_stdio_output::string_output_adapter<char> > >::state_case_size()
FUNC 2389c 14e 0 __crt_stdio_output::output_processor<char,__crt_stdio_output::string_output_adapter<char>,__crt_stdio_output::positional_parameter_base<char,__crt_stdio_output::string_output_adapter<char> > >::state_case_size()
FUNC 23a3d 14e 0 __crt_stdio_output::output_processor<char,__crt_stdio_output::string_output_adapter<char>,__crt_stdio_output::standard_base<char,__crt_stdio_output::string_output_adapter<char> > >::state_case_size()
FUNC 23bde 178 0 __crt_stdio_output::output_processor<wchar_t,__crt_stdio_output::stream_output_adapter<wchar_t>,__crt_stdio_output::format_validation_base<wchar_t,__crt_stdio_output::stream_output_adapter<wchar_t> > >::state_case_size()
FUNC 23db4 178 0 __crt_stdio_output::output_processor<wchar_t,__crt_stdio_output::stream_output_adapter<wchar_t>,__crt_stdio_output::positional_parameter_base<wchar_t,__crt_stdio_output::stream_output_adapter<wchar_t> > >::state_case_size()
FUNC 23f8a 178 0 __crt_stdio_output::output_processor<wchar_t,__crt_stdio_output::stream_output_adapter<wchar_t>,__crt_stdio_output::standard_base<wchar_t,__crt_stdio_output::stream_output_adapter<wchar_t> > >::state_case_size()
FUNC 24160 178 0 __crt_stdio_output::output_processor<wchar_t,__crt_stdio_output::string_output_adapter<wchar_t>,__crt_stdio_output::format_validation_base<wchar_t,__crt_stdio_output::string_output_adapter<wchar_t> > >::state_case_size()
FUNC 24336 178 0 __crt_stdio_output::output_processor<wchar_t,__crt_stdio_output::string_output_adapter<wchar_t>,__crt_stdio_output::positional_parameter_base<wchar_t,__crt_stdio_output::string_output_adapter<wchar_t> > >::state_case_size()
FUNC 2450c 178 0 __crt_stdio_output::output_processor<wchar_t,__crt_stdio_output::string_output_adapter<wchar_t>,__crt_stdio_output::standard_base<wchar_t,__crt_stdio_output::string_output_adapter<wchar_t> > >::state_case_size()
FUNC 246e2 232 0 __crt_stdio_output::output_processor<char,__crt_stdio_output::stream_output_adapter<char>,__crt_stdio_output::format_validation_base<char,__crt_stdio_output::stream_output_adapter<char> > >::state_case_type()
FUNC 249a0 241 0 __crt_stdio_output::output_processor<char,__crt_stdio_output::stream_output_adapter<char>,__crt_stdio_output::positional_parameter_base<char,__crt_stdio_output::stream_output_adapter<char> > >::state_case_type()
FUNC 24c71 232 0 __crt_stdio_output::output_processor<char,__crt_stdio_output::stream_output_adapter<char>,__crt_stdio_output::standard_base<char,__crt_stdio_output::stream_output_adapter<char> > >::state_case_type()
FUNC 24f2f 232 0 __crt_stdio_output::output_processor<char,__crt_stdio_output::string_output_adapter<char>,__crt_stdio_output::format_validation_base<char,__crt_stdio_output::string_output_adapter<char> > >::state_case_type()
FUNC 251ed 241 0 __crt_stdio_output::output_processor<char,__crt_stdio_output::string_output_adapter<char>,__crt_stdio_output::positional_parameter_base<char,__crt_stdio_output::string_output_adapter<char> > >::state_case_type()
FUNC 254be 232 0 __crt_stdio_output::output_processor<char,__crt_stdio_output::string_output_adapter<char>,__crt_stdio_output::standard_base<char,__crt_stdio_output::string_output_adapter<char> > >::state_case_type()
FUNC 2577c 265 0 __crt_stdio_output::output_processor<wchar_t,__crt_stdio_output::stream_output_adapter<wchar_t>,__crt_stdio_output::format_validation_base<wchar_t,__crt_stdio_output::stream_output_adapter<wchar_t> > >::state_case_type()
FUNC 25a7a 274 0 __crt_stdio_output::output_processor<wchar_t,__crt_stdio_output::stream_output_adapter<wchar_t>,__crt_stdio_output::positional_parameter_base<wchar_t,__crt_stdio_output::stream_output_adapter<wchar_t> > >::state_case_type()
FUNC 25d8b 265 0 __crt_stdio_output::output_processor<wchar_t,__crt_stdio_output::stream_output_adapter<wchar_t>,__crt_stdio_output::standard_base<wchar_t,__crt_stdio_output::stream_output_adapter<wchar_t> > >::state_case_type()
FUNC 26089 265 0 __crt_stdio_output::output_processor<wchar_t,__crt_stdio_output::string_output_adapter<wchar_t>,__crt_stdio_output::format_validation_base<wchar_t,__crt_stdio_output::string_output_adapter<wchar_t> > >::state_case_type()
FUNC 26387 274 0 __crt_stdio_output::output_processor<wchar_t,__crt_stdio_output::string_output_adapter<wchar_t>,__crt_stdio_output::positional_parameter_base<wchar_t,__crt_stdio_output::string_output_adapter<wchar_t> > >::state_case_type()
FUNC 26698 265 0 __crt_stdio_output::output_processor<wchar_t,__crt_stdio_output::string_output_adapter<wchar_t>,__crt_stdio_output::standard_base<wchar_t,__crt_stdio_output::string_output_adapter<wchar_t> > >::state_case_type()
FUNC 26996 2b 0 __crt_stdio_output::output_processor<char,__crt_stdio_output::stream_output_adapter<char>,__crt_stdio_output::format_validation_base<char,__crt_stdio_output::stream_output_adapter<char> > >::state_case_width()
FUNC 269cb 40 0 __crt_stdio_output::output_processor<char,__crt_stdio_output::stream_output_adapter<char>,__crt_stdio_output::positional_parameter_base<char,__crt_stdio_output::stream_output_adapter<char> > >::state_case_width()
FUNC 26a1b 2b 0 __crt_stdio_output::output_processor<char,__crt_stdio_output::stream_output_adapter<char>,__crt_stdio_output::standard_base<char,__crt_stdio_output::stream_output_adapter<char> > >::state_case_width()
FUNC 26a50 2b 0 __crt_stdio_output::output_processor<char,__crt_stdio_output::string_output_adapter<char>,__crt_stdio_output::format_validation_base<char,__crt_stdio_output::string_output_adapter<char> > >::state_case_width()
FUNC 26a85 40 0 __crt_stdio_output::output_processor<char,__crt_stdio_output::string_output_adapter<char>,__crt_stdio_output::positional_parameter_base<char,__crt_stdio_output::string_output_adapter<char> > >::state_case_width()
FUNC 26ad5 2b 0 __crt_stdio_output::output_processor<char,__crt_stdio_output::string_output_adapter<char>,__crt_stdio_output::standard_base<char,__crt_stdio_output::string_output_adapter<char> > >::state_case_width()
FUNC 26b0a 2c 0 __crt_stdio_output::output_processor<wchar_t,__crt_stdio_output::stream_output_adapter<wchar_t>,__crt_stdio_output::format_validation_base<wchar_t,__crt_stdio_output::stream_output_adapter<wchar_t> > >::state_case_width()
FUNC 26b41 41 0 __crt_stdio_output::output_processor<wchar_t,__crt_stdio_output::stream_output_adapter<wchar_t>,__crt_stdio_output::positional_parameter_base<wchar_t,__crt_stdio_output::stream_output_adapter<wchar_t> > >::state_case_width()
FUNC 26b92 2c 0 __crt_stdio_output::output_processor<wchar_t,__crt_stdio_output::stream_output_adapter<wchar_t>,__crt_stdio_output::standard_base<wchar_t,__crt_stdio_output::stream_output_adapter<wchar_t> > >::state_case_width()
FUNC 26bc9 2c 0 __crt_stdio_output::output_processor<wchar_t,__crt_stdio_output::string_output_adapter<wchar_t>,__crt_stdio_output::format_validation_base<wchar_t,__crt_stdio_output::string_output_adapter<wchar_t> > >::state_case_width()
FUNC 26c00 41 0 __crt_stdio_output::output_processor<wchar_t,__crt_stdio_output::string_output_adapter<wchar_t>,__crt_stdio_output::positional_parameter_base<wchar_t,__crt_stdio_output::string_output_adapter<wchar_t> > >::state_case_width()
FUNC 26c51 2c 0 __crt_stdio_output::output_processor<wchar_t,__crt_stdio_output::string_output_adapter<wchar_t>,__crt_stdio_output::standard_base<wchar_t,__crt_stdio_output::string_output_adapter<wchar_t> > >::state_case_width()
FUNC 26c88 4 0 __crt_stdio_output::format_validation_base<char,__crt_stdio_output::stream_output_adapter<char> >::state_count()
FUNC 26c8c 4 0 __crt_stdio_output::format_validation_base<char,__crt_stdio_output::string_output_adapter<char> >::state_count()
FUNC 26c90 4 0 __crt_stdio_output::format_validation_base<wchar_t,__crt_stdio_output::stream_output_adapter<wchar_t> >::state_count()
FUNC 26c94 4 0 __crt_stdio_output::format_validation_base<wchar_t,__crt_stdio_output::string_output_adapter<wchar_t> >::state_count()
FUNC 26c98 4 0 __crt_stdio_output::standard_base<char,__crt_stdio_output::stream_output_adapter<char> >::state_count()
FUNC 26c9c 4 0 __crt_stdio_output::standard_base<char,__crt_stdio_output::string_output_adapter<char> >::state_count()
FUNC 26ca0 4 0 __crt_stdio_output::standard_base<wchar_t,__crt_stdio_output::stream_output_adapter<wchar_t> >::state_count()
FUNC 26ca4 4 0 __crt_stdio_output::standard_base<wchar_t,__crt_stdio_output::string_output_adapter<wchar_t> >::state_count()
FUNC 26ca8 6 0 __crt_stdio_output::format_validation_base<char,__crt_stdio_output::stream_output_adapter<char> >::state_transition_table()
FUNC 26cae 6 0 __crt_stdio_output::format_validation_base<char,__crt_stdio_output::string_output_adapter<char> >::state_transition_table()
FUNC 26cb4 6 0 __crt_stdio_output::format_validation_base<wchar_t,__crt_stdio_output::stream_output_adapter<wchar_t> >::state_transition_table()
FUNC 26cba 6 0 __crt_stdio_output::format_validation_base<wchar_t,__crt_stdio_output::string_output_adapter<wchar_t> >::state_transition_table()
FUNC 26cc0 6 0 __crt_stdio_output::standard_base<char,__crt_stdio_output::stream_output_adapter<char> >::state_transition_table()
FUNC 26cc6 6 0 __crt_stdio_output::standard_base<char,__crt_stdio_output::string_output_adapter<char> >::state_transition_table()
FUNC 26ccc 6 0 __crt_stdio_output::standard_base<wchar_t,__crt_stdio_output::stream_output_adapter<wchar_t> >::state_transition_table()
FUNC 26cd2 6 0 __crt_stdio_output::standard_base<wchar_t,__crt_stdio_output::string_output_adapter<wchar_t> >::state_transition_table()
FUNC 26cd8 6 0 __crt_stdio_output::common_data<char>::tchar_string(char)
FUNC 26cde 4 0 __crt_stdio_output::common_data<char>::tchar_string()
FUNC 26ce2 4 0 __crt_stdio_output::common_data<wchar_t>::tchar_string()
FUNC 26ce6 6 0 __crt_stdio_output::common_data<wchar_t>::tchar_string(wchar_t)
FUNC 26cec 54 0 __crt_stdio_output::to_integer_size(const __crt_stdio_output::length_modifier)
FUNC 26d55 a 0 __crt_stdio_output::output_processor<char,__crt_stdio_output::stream_output_adapter<char>,__crt_stdio_output::format_validation_base<char,__crt_stdio_output::stream_output_adapter<char> > >::type_case_X()
FUNC 26d61 a 0 __crt_stdio_output::output_processor<char,__crt_stdio_output::stream_output_adapter<char>,__crt_stdio_output::positional_parameter_base<char,__crt_stdio_output::stream_output_adapter<char> > >::type_case_X()
FUNC 26d6d a 0 __crt_stdio_output::output_processor<char,__crt_stdio_output::stream_output_adapter<char>,__crt_stdio_output::standard_base<char,__crt_stdio_output::stream_output_adapter<char> > >::type_case_X()
FUNC 26d79 a 0 __crt_stdio_output::output_processor<char,__crt_stdio_output::string_output_adapter<char>,__crt_stdio_output::format_validation_base<char,__crt_stdio_output::string_output_adapter<char> > >::type_case_X()
FUNC 26d85 a 0 __crt_stdio_output::output_processor<char,__crt_stdio_output::string_output_adapter<char>,__crt_stdio_output::positional_parameter_base<char,__crt_stdio_output::string_output_adapter<char> > >::type_case_X()
FUNC 26d91 a 0 __crt_stdio_output::output_processor<char,__crt_stdio_output::string_output_adapter<char>,__crt_stdio_output::standard_base<char,__crt_stdio_output::string_output_adapter<char> > >::type_case_X()
FUNC 26d9d a 0 __crt_stdio_output::output_processor<wchar_t,__crt_stdio_output::stream_output_adapter<wchar_t>,__crt_stdio_output::format_validation_base<wchar_t,__crt_stdio_output::stream_output_adapter<wchar_t> > >::type_case_X()
FUNC 26da9 a 0 __crt_stdio_output::output_processor<wchar_t,__crt_stdio_output::stream_output_adapter<wchar_t>,__crt_stdio_output::positional_parameter_base<wchar_t,__crt_stdio_output::stream_output_adapter<wchar_t> > >::type_case_X()
FUNC 26db5 a 0 __crt_stdio_output::output_processor<wchar_t,__crt_stdio_output::stream_output_adapter<wchar_t>,__crt_stdio_output::standard_base<wchar_t,__crt_stdio_output::stream_output_adapter<wchar_t> > >::type_case_X()
FUNC 26dc1 a 0 __crt_stdio_output::output_processor<wchar_t,__crt_stdio_output::string_output_adapter<wchar_t>,__crt_stdio_output::format_validation_base<wchar_t,__crt_stdio_output::string_output_adapter<wchar_t> > >::type_case_X()
FUNC 26dcd a 0 __crt_stdio_output::output_processor<wchar_t,__crt_stdio_output::string_output_adapter<wchar_t>,__crt_stdio_output::positional_parameter_base<wchar_t,__crt_stdio_output::string_output_adapter<wchar_t> > >::type_case_X()
FUNC 26dd9 a 0 __crt_stdio_output::output_processor<wchar_t,__crt_stdio_output::string_output_adapter<wchar_t>,__crt_stdio_output::standard_base<wchar_t,__crt_stdio_output::string_output_adapter<wchar_t> > >::type_case_X()
FUNC 26de5 5a 0 __crt_stdio_output::output_processor<char,__crt_stdio_output::stream_output_adapter<char>,__crt_stdio_output::format_validation_base<char,__crt_stdio_output::stream_output_adapter<char> > >::type_case_Z()
FUNC 26e55 d8 0 __crt_stdio_output::output_processor<char,__crt_stdio_output::stream_output_adapter<char>,__crt_stdio_output::positional_parameter_base<char,__crt_stdio_output::stream_output_adapter<char> > >::type_case_Z()
FUNC 26f63 5a 0 __crt_stdio_output::output_processor<char,__crt_stdio_output::stream_output_adapter<char>,__crt_stdio_output::standard_base<char,__crt_stdio_output::stream_output_adapter<char> > >::type_case_Z()
FUNC 26fd3 5a 0 __crt_stdio_output::output_processor<char,__crt_stdio_output::string_output_adapter<char>,__crt_stdio_output::format_validation_base<char,__crt_stdio_output::string_output_adapter<char> > >::type_case_Z()
FUNC 27043 d8 0 __crt_stdio_output::output_processor<char,__crt_stdio_output::string_output_adapter<char>,__crt_stdio_output::positional_parameter_base<char,__crt_stdio_output::string_output_adapter<char> > >::type_case_Z()
FUNC 27151 5a 0 __crt_stdio_output::output_processor<char,__crt_stdio_output::string_output_adapter<char>,__crt_stdio_output::standard_base<char,__crt_stdio_output::string_output_adapter<char> > >::type_case_Z()
FUNC 271c1 5a 0 __crt_stdio_output::output_processor<wchar_t,__crt_stdio_output::stream_output_adapter<wchar_t>,__crt_stdio_output::format_validation_base<wchar_t,__crt_stdio_output::stream_output_adapter<wchar_t> > >::type_case_Z()
FUNC 27231 d8 0 __crt_stdio_output::output_processor<wchar_t,__crt_stdio_output::stream_output_adapter<wchar_t>,__crt_stdio_output::positional_parameter_base<wchar_t,__crt_stdio_output::stream_output_adapter<wchar_t> > >::type_case_Z()
FUNC 2733f 5a 0 __crt_stdio_output::output_processor<wchar_t,__crt_stdio_output::stream_output_adapter<wchar_t>,__crt_stdio_output::standard_base<wchar_t,__crt_stdio_output::stream_output_adapter<wchar_t> > >::type_case_Z()
FUNC 273af 5a 0 __crt_stdio_output::output_processor<wchar_t,__crt_stdio_output::string_output_adapter<wchar_t>,__crt_stdio_output::format_validation_base<wchar_t,__crt_stdio_output::string_output_adapter<wchar_t> > >::type_case_Z()
FUNC 2741f d8 0 __crt_stdio_output::output_processor<wchar_t,__crt_stdio_output::string_output_adapter<wchar_t>,__crt_stdio_output::positional_parameter_base<wchar_t,__crt_stdio_output::string_output_adapter<wchar_t> > >::type_case_Z()
FUNC 2752d 5a 0 __crt_stdio_output::output_processor<wchar_t,__crt_stdio_output::string_output_adapter<wchar_t>,__crt_stdio_output::standard_base<wchar_t,__crt_stdio_output::string_output_adapter<wchar_t> > >::type_case_Z()
FUNC 2759d 14f 0 __crt_stdio_output::output_processor<char,__crt_stdio_output::stream_output_adapter<char>,__crt_stdio_output::format_validation_base<char,__crt_stdio_output::stream_output_adapter<char> > >::type_case_a()
FUNC 2773f 17b 0 __crt_stdio_output::output_processor<char,__crt_stdio_output::stream_output_adapter<char>,__crt_stdio_output::positional_parameter_base<char,__crt_stdio_output::stream_output_adapter<char> > >::type_case_a()
FUNC 27918 14f 0 __crt_stdio_output::output_processor<char,__crt_stdio_output::stream_output_adapter<char>,__crt_stdio_output::standard_base<char,__crt_stdio_output::stream_output_adapter<char> > >::type_case_a()
FUNC 27aba 14f 0 __crt_stdio_output::output_processor<char,__crt_stdio_output::string_output_adapter<char>,__crt_stdio_output::format_validation_base<char,__crt_stdio_output::string_output_adapter<char> > >::type_case_a()
FUNC 27c5c 17b 0 __crt_stdio_output::output_processor<char,__crt_stdio_output::string_output_adapter<char>,__crt_stdio_output::positional_parameter_base<char,__crt_stdio_output::string_output_adapter<char> > >::type_case_a()
FUNC 27e35 14f 0 __crt_stdio_output::output_processor<char,__crt_stdio_output::string_output_adapter<char>,__crt_stdio_output::standard_base<char,__crt_stdio_output::string_output_adapter<char> > >::type_case_a()
FUNC 27fd7 165 0 __crt_stdio_output::output_processor<wchar_t,__crt_stdio_output::stream_output_adapter<wchar_t>,__crt_stdio_output::format_validation_base<wchar_t,__crt_stdio_output::stream_output_adapter<wchar_t> > >::type_case_a()
FUNC 28195 191 0 __crt_stdio_output::output_processor<wchar_t,__crt_stdio_output::stream_output_adapter<wchar_t>,__crt_stdio_output::positional_parameter_base<wchar_t,__crt_stdio_output::stream_output_adapter<wchar_t> > >::type_case_a()
FUNC 2838a 165 0 __crt_stdio_output::output_processor<wchar_t,__crt_stdio_output::stream_output_adapter<wchar_t>,__crt_stdio_output::standard_base<wchar_t,__crt_stdio_output::stream_output_adapter<wchar_t> > >::type_case_a()
FUNC 28548 165 0 __crt_stdio_output::output_processor<wchar_t,__crt_stdio_output::string_output_adapter<wchar_t>,__crt_stdio_output::format_validation_base<wchar_t,__crt_stdio_output::string_output_adapter<wchar_t> > >::type_case_a()
FUNC 28706 191 0 __crt_stdio_output::output_processor<wchar_t,__crt_stdio_output::string_output_adapter<wchar_t>,__crt_stdio_output::positional_parameter_base<wchar_t,__crt_stdio_output::string_output_adapter<wchar_t> > >::type_case_a()
FUNC 288fb 165 0 __crt_stdio_output::output_processor<wchar_t,__crt_stdio_output::string_output_adapter<wchar_t>,__crt_stdio_output::standard_base<wchar_t,__crt_stdio_output::string_output_adapter<wchar_t> > >::type_case_a()
FUNC 28ab9 8 0 __crt_stdio_output::output_processor<char,__crt_stdio_output::stream_output_adapter<char>,__crt_stdio_output::format_validation_base<char,__crt_stdio_output::stream_output_adapter<char> > >::type_case_c()
FUNC 28ac3 8 0 __crt_stdio_output::output_processor<char,__crt_stdio_output::stream_output_adapter<char>,__crt_stdio_output::positional_parameter_base<char,__crt_stdio_output::stream_output_adapter<char> > >::type_case_c()
FUNC 28acd 8 0 __crt_stdio_output::output_processor<char,__crt_stdio_output::stream_output_adapter<char>,__crt_stdio_output::standard_base<char,__crt_stdio_output::stream_output_adapter<char> > >::type_case_c()
FUNC 28ad7 8 0 __crt_stdio_output::output_processor<char,__crt_stdio_output::string_output_adapter<char>,__crt_stdio_output::format_validation_base<char,__crt_stdio_output::string_output_adapter<char> > >::type_case_c()
FUNC 28ae1 8 0 __crt_stdio_output::output_processor<char,__crt_stdio_output::string_output_adapter<char>,__crt_stdio_output::positional_parameter_base<char,__crt_stdio_output::string_output_adapter<char> > >::type_case_c()
FUNC 28aeb 8 0 __crt_stdio_output::output_processor<char,__crt_stdio_output::string_output_adapter<char>,__crt_stdio_output::standard_base<char,__crt_stdio_output::string_output_adapter<char> > >::type_case_c()
FUNC 28af5 8 0 __crt_stdio_output::output_processor<wchar_t,__crt_stdio_output::stream_output_adapter<wchar_t>,__crt_stdio_output::format_validation_base<wchar_t,__crt_stdio_output::stream_output_adapter<wchar_t> > >::type_case_c()
FUNC 28aff 8 0 __crt_stdio_output::output_processor<wchar_t,__crt_stdio_output::stream_output_adapter<wchar_t>,__crt_stdio_output::positional_parameter_base<wchar_t,__crt_stdio_output::stream_output_adapter<wchar_t> > >::type_case_c()
FUNC 28b09 8 0 __crt_stdio_output::output_processor<wchar_t,__crt_stdio_output::stream_output_adapter<wchar_t>,__crt_stdio_output::standard_base<wchar_t,__crt_stdio_output::stream_output_adapter<wchar_t> > >::type_case_c()
FUNC 28b13 8 0 __crt_stdio_output::output_processor<wchar_t,__crt_stdio_output::string_output_adapter<wchar_t>,__crt_stdio_output::format_validation_base<wchar_t,__crt_stdio_output::string_output_adapter<wchar_t> > >::type_case_c()
FUNC 28b1d 8 0 __crt_stdio_output::output_processor<wchar_t,__crt_stdio_output::string_output_adapter<wchar_t>,__crt_stdio_output::positional_parameter_base<wchar_t,__crt_stdio_output::string_output_adapter<wchar_t> > >::type_case_c()
FUNC 28b27 8 0 __crt_stdio_output::output_processor<wchar_t,__crt_stdio_output::string_output_adapter<wchar_t>,__crt_stdio_output::standard_base<wchar_t,__crt_stdio_output::string_output_adapter<wchar_t> > >::type_case_c()
FUNC 28b31 90 0 __crt_stdio_output::output_processor<char,__crt_stdio_output::stream_output_adapter<char>,__crt_stdio_output::format_validation_base<char,__crt_stdio_output::stream_output_adapter<char> > >::type_case_c_tchar(char)
FUNC 28be5 be 0 __crt_stdio_output::output_processor<char,__crt_stdio_output::stream_output_adapter<char>,__crt_stdio_output::positional_parameter_base<char,__crt_stdio_output::stream_output_adapter<char> > >::type_case_c_tchar(char)
FUNC 28cd2 90 0 __crt_stdio_output::output_processor<char,__crt_stdio_output::stream_output_adapter<char>,__crt_stdio_output::standard_base<char,__crt_stdio_output::stream_output_adapter<char> > >::type_case_c_tchar(char)
FUNC 28d86 90 0 __crt_stdio_output::output_processor<char,__crt_stdio_output::string_output_adapter<char>,__crt_stdio_output::format_validation_base<char,__crt_stdio_output::string_output_adapter<char> > >::type_case_c_tchar(char)
FUNC 28e3a be 0 __crt_stdio_output::output_processor<char,__crt_stdio_output::string_output_adapter<char>,__crt_stdio_output::positional_parameter_base<char,__crt_stdio_output::string_output_adapter<char> > >::type_case_c_tchar(char)
FUNC 28f27 90 0 __crt_stdio_output::output_processor<char,__crt_stdio_output::string_output_adapter<char>,__crt_stdio_output::standard_base<char,__crt_stdio_output::string_output_adapter<char> > >::type_case_c_tchar(char)
FUNC 28fdb 96 0 __crt_stdio_output::output_processor<wchar_t,__crt_stdio_output::stream_output_adapter<wchar_t>,__crt_stdio_output::format_validation_base<wchar_t,__crt_stdio_output::stream_output_adapter<wchar_t> > >::type_case_c_tchar(wchar_t)
FUNC 29096 ad 0 __crt_stdio_output::output_processor<wchar_t,__crt_stdio_output::stream_output_adapter<wchar_t>,__crt_stdio_output::positional_parameter_base<wchar_t,__crt_stdio_output::stream_output_adapter<wchar_t> > >::type_case_c_tchar(wchar_t)
FUNC 2916e 96 0 __crt_stdio_output::output_processor<wchar_t,__crt_stdio_output::stream_output_adapter<wchar_t>,__crt_stdio_output::standard_base<wchar_t,__crt_stdio_output::stream_output_adapter<wchar_t> > >::type_case_c_tchar(wchar_t)
FUNC 29229 96 0 __crt_stdio_output::output_processor<wchar_t,__crt_stdio_output::string_output_adapter<wchar_t>,__crt_stdio_output::format_validation_base<wchar_t,__crt_stdio_output::string_output_adapter<wchar_t> > >::type_case_c_tchar(wchar_t)
FUNC 292e4 ad 0 __crt_stdio_output::output_processor<wchar_t,__crt_stdio_output::string_output_adapter<wchar_t>,__crt_stdio_output::positional_parameter_base<wchar_t,__crt_stdio_output::string_output_adapter<wchar_t> > >::type_case_c_tchar(wchar_t)
FUNC 293bc 96 0 __crt_stdio_output::output_processor<wchar_t,__crt_stdio_output::string_output_adapter<wchar_t>,__crt_stdio_output::standard_base<wchar_t,__crt_stdio_output::string_output_adapter<wchar_t> > >::type_case_c_tchar(wchar_t)
FUNC 29477 e 0 __crt_stdio_output::output_processor<char,__crt_stdio_output::stream_output_adapter<char>,__crt_stdio_output::format_validation_base<char,__crt_stdio_output::stream_output_adapter<char> > >::type_case_d()
FUNC 29488 e 0 __crt_stdio_output::output_processor<char,__crt_stdio_output::stream_output_adapter<char>,__crt_stdio_output::positional_parameter_base<char,__crt_stdio_output::stream_output_adapter<char> > >::type_case_d()
FUNC 29499 e 0 __crt_stdio_output::output_processor<char,__crt_stdio_output::stream_output_adapter<char>,__crt_stdio_output::standard_base<char,__crt_stdio_output::stream_output_adapter<char> > >::type_case_d()
FUNC 294aa e 0 __crt_stdio_output::output_processor<char,__crt_stdio_output::string_output_adapter<char>,__crt_stdio_output::format_validation_base<char,__crt_stdio_output::string_output_adapter<char> > >::type_case_d()
FUNC 294bb e 0 __crt_stdio_output::output_processor<char,__crt_stdio_output::string_output_adapter<char>,__crt_stdio_output::positional_parameter_base<char,__crt_stdio_output::string_output_adapter<char> > >::type_case_d()
FUNC 294cc e 0 __crt_stdio_output::output_processor<char,__crt_stdio_output::string_output_adapter<char>,__crt_stdio_output::standard_base<char,__crt_stdio_output::string_output_adapter<char> > >::type_case_d()
FUNC 294dd e 0 __crt_stdio_output::output_processor<wchar_t,__crt_stdio_output::stream_output_adapter<wchar_t>,__crt_stdio_output::format_validation_base<wchar_t,__crt_stdio_output::stream_output_adapter<wchar_t> > >::type_case_d()
FUNC 294ee e 0 __crt_stdio_output::output_processor<wchar_t,__crt_stdio_output::stream_output_adapter<wchar_t>,__crt_stdio_output::positional_parameter_base<wchar_t,__crt_stdio_output::stream_output_adapter<wchar_t> > >::type_case_d()
FUNC 294ff e 0 __crt_stdio_output::output_processor<wchar_t,__crt_stdio_output::stream_output_adapter<wchar_t>,__crt_stdio_output::standard_base<wchar_t,__crt_stdio_output::stream_output_adapter<wchar_t> > >::type_case_d()
FUNC 29510 e 0 __crt_stdio_output::output_processor<wchar_t,__crt_stdio_output::string_output_adapter<wchar_t>,__crt_stdio_output::format_validation_base<wchar_t,__crt_stdio_output::string_output_adapter<wchar_t> > >::type_case_d()
FUNC 29521 e 0 __crt_stdio_output::output_processor<wchar_t,__crt_stdio_output::string_output_adapter<wchar_t>,__crt_stdio_output::positional_parameter_base<wchar_t,__crt_stdio_output::string_output_adapter<wchar_t> > >::type_case_d()
FUNC 29532 e 0 __crt_stdio_output::output_processor<wchar_t,__crt_stdio_output::string_output_adapter<wchar_t>,__crt_stdio_output::standard_base<wchar_t,__crt_stdio_output::string_output_adapter<wchar_t> > >::type_case_d()
FUNC 29543 151 0 __crt_stdio_output::output_processor<char,__crt_stdio_output::stream_output_adapter<char>,__crt_stdio_output::format_validation_base<char,__crt_stdio_output::stream_output_adapter<char> > >::type_case_integer(const unsigned int, const bool)
FUNC 296e8 181 0 __crt_stdio_output::output_processor<char,__crt_stdio_output::stream_output_adapter<char>,__crt_stdio_output::positional_parameter_base<char,__crt_stdio_output::stream_output_adapter<char> > >::type_case_integer(const unsigned int, const bool)
FUNC 298c9 151 0 __crt_stdio_output::output_processor<char,__crt_stdio_output::stream_output_adapter<char>,__crt_stdio_output::standard_base<char,__crt_stdio_output::stream_output_adapter<char> > >::type_case_integer(const unsigned int, const bool)
FUNC 29a6e 151 0 __crt_stdio_output::output_processor<char,__crt_stdio_output::string_output_adapter<char>,__crt_stdio_output::format_validation_base<char,__crt_stdio_output::string_output_adapter<char> > >::type_case_integer(const unsigned int, const bool)
FUNC 29c13 181 0 __crt_stdio_output::output_processor<char,__crt_stdio_output::string_output_adapter<char>,__crt_stdio_output::positional_parameter_base<char,__crt_stdio_output::string_output_adapter<char> > >::type_case_integer(const unsigned int, const bool)
FUNC 29df4 151 0 __crt_stdio_output::output_processor<char,__crt_stdio_output::string_output_adapter<char>,__crt_stdio_output::standard_base<char,__crt_stdio_output::string_output_adapter<char> > >::type_case_integer(const unsigned int, const bool)
FUNC 29f99 155 0 __crt_stdio_output::output_processor<wchar_t,__crt_stdio_output::stream_output_adapter<wchar_t>,__crt_stdio_output::format_validation_base<wchar_t,__crt_stdio_output::stream_output_adapter<wchar_t> > >::type_case_integer(const unsigned int, const bool)
FUNC 2a143 185 0 __crt_stdio_output::output_processor<wchar_t,__crt_stdio_output::stream_output_adapter<wchar_t>,__crt_stdio_output::positional_parameter_base<wchar_t,__crt_stdio_output::stream_output_adapter<wchar_t> > >::type_case_integer(const unsigned int, const bool)
FUNC 2a329 155 0 __crt_stdio_output::output_processor<wchar_t,__crt_stdio_output::stream_output_adapter<wchar_t>,__crt_stdio_output::standard_base<wchar_t,__crt_stdio_output::stream_output_adapter<wchar_t> > >::type_case_integer(const unsigned int, const bool)
FUNC 2a4d3 155 0 __crt_stdio_output::output_processor<wchar_t,__crt_stdio_output::string_output_adapter<wchar_t>,__crt_stdio_output::format_validation_base<wchar_t,__crt_stdio_output::string_output_adapter<wchar_t> > >::type_case_integer(const unsigned int, const bool)
FUNC 2a67d 185 0 __crt_stdio_output::output_processor<wchar_t,__crt_stdio_output::string_output_adapter<wchar_t>,__crt_stdio_output::positional_parameter_base<wchar_t,__crt_stdio_output::string_output_adapter<wchar_t> > >::type_case_integer(const unsigned int, const bool)
FUNC 2a863 155 0 __crt_stdio_output::output_processor<wchar_t,__crt_stdio_output::string_output_adapter<wchar_t>,__crt_stdio_output::standard_base<wchar_t,__crt_stdio_output::string_output_adapter<wchar_t> > >::type_case_integer(const unsigned int, const bool)
FUNC 2aa0d 74 0 __crt_stdio_output::output_processor<char,__crt_stdio_output::stream_output_adapter<char>,__crt_stdio_output::format_validation_base<char,__crt_stdio_output::stream_output_adapter<char> > >::type_case_n()
FUNC 2aa9e 97 0 __crt_stdio_output::output_processor<char,__crt_stdio_output::stream_output_adapter<char>,__crt_stdio_output::positional_parameter_base<char,__crt_stdio_output::stream_output_adapter<char> > >::type_case_n()
FUNC 2ab5a 74 0 __crt_stdio_output::output_processor<char,__crt_stdio_output::stream_output_adapter<char>,__crt_stdio_output::standard_base<char,__crt_stdio_output::stream_output_adapter<char> > >::type_case_n()
FUNC 2abeb 74 0 __crt_stdio_output::output_processor<char,__crt_stdio_output::string_output_adapter<char>,__crt_stdio_output::format_validation_base<char,__crt_stdio_output::string_output_adapter<char> > >::type_case_n()
FUNC 2ac7c 97 0 __crt_stdio_output::output_processor<char,__crt_stdio_output::string_output_adapter<char>,__crt_stdio_output::positional_parameter_base<char,__crt_stdio_output::string_output_adapter<char> > >::type_case_n()
FUNC 2ad38 74 0 __crt_stdio_output::output_processor<char,__crt_stdio_output::string_output_adapter<char>,__crt_stdio_output::standard_base<char,__crt_stdio_output::string_output_adapter<char> > >::type_case_n()
FUNC 2adc9 74 0 __crt_stdio_output::output_processor<wchar_t,__crt_stdio_output::stream_output_adapter<wchar_t>,__crt_stdio_output::format_validation_base<wchar_t,__crt_stdio_output::stream_output_adapter<wchar_t> > >::type_case_n()
FUNC 2ae5a 97 0 __crt_stdio_output::output_processor<wchar_t,__crt_stdio_output::stream_output_adapter<wchar_t>,__crt_stdio_output::positional_parameter_base<wchar_t,__crt_stdio_output::stream_output_adapter<wchar_t> > >::type_case_n()
FUNC 2af16 74 0 __crt_stdio_output::output_processor<wchar_t,__crt_stdio_output::stream_output_adapter<wchar_t>,__crt_stdio_output::standard_base<wchar_t,__crt_stdio_output::stream_output_adapter<wchar_t> > >::type_case_n()
FUNC 2afa7 74 0 __crt_stdio_output::output_processor<wchar_t,__crt_stdio_output::string_output_adapter<wchar_t>,__crt_stdio_output::format_validation_base<wchar_t,__crt_stdio_output::string_output_adapter<wchar_t> > >::type_case_n()
FUNC 2b038 97 0 __crt_stdio_output::output_processor<wchar_t,__crt_stdio_output::string_output_adapter<wchar_t>,__crt_stdio_output::positional_parameter_base<wchar_t,__crt_stdio_output::string_output_adapter<wchar_t> > >::type_case_n()
FUNC 2b0f4 74 0 __crt_stdio_output::output_processor<wchar_t,__crt_stdio_output::string_output_adapter<wchar_t>,__crt_stdio_output::standard_base<wchar_t,__crt_stdio_output::string_output_adapter<wchar_t> > >::type_case_n()
FUNC 2b185 1f 0 __crt_stdio_output::output_processor<char,__crt_stdio_output::stream_output_adapter<char>,__crt_stdio_output::format_validation_base<char,__crt_stdio_output::stream_output_adapter<char> > >::type_case_o()
FUNC 2b1ab 1f 0 __crt_stdio_output::output_processor<char,__crt_stdio_output::stream_output_adapter<char>,__crt_stdio_output::positional_parameter_base<char,__crt_stdio_output::stream_output_adapter<char> > >::type_case_o()
FUNC 2b1d1 1f 0 __crt_stdio_output::output_processor<char,__crt_stdio_output::stream_output_adapter<char>,__crt_stdio_output::standard_base<char,__crt_stdio_output::stream_output_adapter<char> > >::type_case_o()
FUNC 2b1f7 1f 0 __crt_stdio_output::output_processor<char,__crt_stdio_output::string_output_adapter<char>,__crt_stdio_output::format_validation_base<char,__crt_stdio_output::string_output_adapter<char> > >::type_case_o()
FUNC 2b21d 1f 0 __crt_stdio_output::output_processor<char,__crt_stdio_output::string_output_adapter<char>,__crt_stdio_output::positional_parameter_base<char,__crt_stdio_output::string_output_adapter<char> > >::type_case_o()
FUNC 2b243 1f 0 __crt_stdio_output::output_processor<char,__crt_stdio_output::string_output_adapter<char>,__crt_stdio_output::standard_base<char,__crt_stdio_output::string_output_adapter<char> > >::type_case_o()
FUNC 2b269 1f 0 __crt_stdio_output::output_processor<wchar_t,__crt_stdio_output::stream_output_adapter<wchar_t>,__crt_stdio_output::format_validation_base<wchar_t,__crt_stdio_output::stream_output_adapter<wchar_t> > >::type_case_o()
FUNC 2b28f 1f 0 __crt_stdio_output::output_processor<wchar_t,__crt_stdio_output::stream_output_adapter<wchar_t>,__crt_stdio_output::positional_parameter_base<wchar_t,__crt_stdio_output::stream_output_adapter<wchar_t> > >::type_case_o()
FUNC 2b2b5 1f 0 __crt_stdio_output::output_processor<wchar_t,__crt_stdio_output::stream_output_adapter<wchar_t>,__crt_stdio_output::standard_base<wchar_t,__crt_stdio_output::stream_output_adapter<wchar_t> > >::type_case_o()
FUNC 2b2db 1f 0 __crt_stdio_output::output_processor<wchar_t,__crt_stdio_output::string_output_adapter<wchar_t>,__crt_stdio_output::format_validation_base<wchar_t,__crt_stdio_output::string_output_adapter<wchar_t> > >::type_case_o()
FUNC 2b301 1f 0 __crt_stdio_output::output_processor<wchar_t,__crt_stdio_output::string_output_adapter<wchar_t>,__crt_stdio_output::positional_parameter_base<wchar_t,__crt_stdio_output::string_output_adapter<wchar_t> > >::type_case_o()
FUNC 2b327 1f 0 __crt_stdio_output::output_processor<wchar_t,__crt_stdio_output::string_output_adapter<wchar_t>,__crt_stdio_output::standard_base<wchar_t,__crt_stdio_output::string_output_adapter<wchar_t> > >::type_case_o()
FUNC 2b34d 18 0 __crt_stdio_output::output_processor<char,__crt_stdio_output::stream_output_adapter<char>,__crt_stdio_output::format_validation_base<char,__crt_stdio_output::stream_output_adapter<char> > >::type_case_p()
FUNC 2b36b 18 0 __crt_stdio_output::output_processor<char,__crt_stdio_output::stream_output_adapter<char>,__crt_stdio_output::positional_parameter_base<char,__crt_stdio_output::stream_output_adapter<char> > >::type_case_p()
FUNC 2b389 18 0 __crt_stdio_output::output_processor<char,__crt_stdio_output::stream_output_adapter<char>,__crt_stdio_output::standard_base<char,__crt_stdio_output::stream_output_adapter<char> > >::type_case_p()
FUNC 2b3a7 18 0 __crt_stdio_output::output_processor<char,__crt_stdio_output::string_output_adapter<char>,__crt_stdio_output::format_validation_base<char,__crt_stdio_output::string_output_adapter<char> > >::type_case_p()
FUNC 2b3c5 18 0 __crt_stdio_output::output_processor<char,__crt_stdio_output::string_output_adapter<char>,__crt_stdio_output::positional_parameter_base<char,__crt_stdio_output::string_output_adapter<char> > >::type_case_p()
FUNC 2b3e3 18 0 __crt_stdio_output::output_processor<char,__crt_stdio_output::string_output_adapter<char>,__crt_stdio_output::standard_base<char,__crt_stdio_output::string_output_adapter<char> > >::type_case_p()
FUNC 2b401 18 0 __crt_stdio_output::output_processor<wchar_t,__crt_stdio_output::stream_output_adapter<wchar_t>,__crt_stdio_output::format_validation_base<wchar_t,__crt_stdio_output::stream_output_adapter<wchar_t> > >::type_case_p()
FUNC 2b41f 18 0 __crt_stdio_output::output_processor<wchar_t,__crt_stdio_output::stream_output_adapter<wchar_t>,__crt_stdio_output::positional_parameter_base<wchar_t,__crt_stdio_output::stream_output_adapter<wchar_t> > >::type_case_p()
FUNC 2b43d 18 0 __crt_stdio_output::output_processor<wchar_t,__crt_stdio_output::stream_output_adapter<wchar_t>,__crt_stdio_output::standard_base<wchar_t,__crt_stdio_output::stream_output_adapter<wchar_t> > >::type_case_p()
FUNC 2b45b 18 0 __crt_stdio_output::output_processor<wchar_t,__crt_stdio_output::string_output_adapter<wchar_t>,__crt_stdio_output::format_validation_base<wchar_t,__crt_stdio_output::string_output_adapter<wchar_t> > >::type_case_p()
FUNC 2b479 18 0 __crt_stdio_output::output_processor<wchar_t,__crt_stdio_output::string_output_adapter<wchar_t>,__crt_stdio_output::positional_parameter_base<wchar_t,__crt_stdio_output::string_output_adapter<wchar_t> > >::type_case_p()
FUNC 2b497 18 0 __crt_stdio_output::output_processor<wchar_t,__crt_stdio_output::string_output_adapter<wchar_t>,__crt_stdio_output::standard_base<wchar_t,__crt_stdio_output::string_output_adapter<wchar_t> > >::type_case_p()
FUNC 2b4b5 71 0 __crt_stdio_output::output_processor<char,__crt_stdio_output::stream_output_adapter<char>,__crt_stdio_output::format_validation_base<char,__crt_stdio_output::stream_output_adapter<char> > >::type_case_s()
FUNC 2b542 7e 0 __crt_stdio_output::output_processor<char,__crt_stdio_output::stream_output_adapter<char>,__crt_stdio_output::positional_parameter_base<char,__crt_stdio_output::stream_output_adapter<char> > >::type_case_s()
FUNC 2b5df 71 0 __crt_stdio_output::output_processor<char,__crt_stdio_output::stream_output_adapter<char>,__crt_stdio_output::standard_base<char,__crt_stdio_output::stream_output_adapter<char> > >::type_case_s()
FUNC 2b66c 71 0 __crt_stdio_output::output_processor<char,__crt_stdio_output::string_output_adapter<char>,__crt_stdio_output::format_validation_base<char,__crt_stdio_output::string_output_adapter<char> > >::type_case_s()
FUNC 2b6f9 7e 0 __crt_stdio_output::output_processor<char,__crt_stdio_output::string_output_adapter<char>,__crt_stdio_output::positional_parameter_base<char,__crt_stdio_output::string_output_adapter<char> > >::type_case_s()
FUNC 2b796 71 0 __crt_stdio_output::output_processor<char,__crt_stdio_output::string_output_adapter<char>,__crt_stdio_output::standard_base<char,__crt_stdio_output::string_output_adapter<char> > >::type_case_s()
FUNC 2b823 73 0 __crt_stdio_output::output_processor<wchar_t,__crt_stdio_output::stream_output_adapter<wchar_t>,__crt_stdio_output::format_validation_base<wchar_t,__crt_stdio_output::stream_output_adapter<wchar_t> > >::type_case_s()
FUNC 2b8b2 80 0 __crt_stdio_output::output_processor<wchar_t,__crt_stdio_output::stream_output_adapter<wchar_t>,__crt_stdio_output::positional_parameter_base<wchar_t,__crt_stdio_output::stream_output_adapter<wchar_t> > >::type_case_s()
FUNC 2b952 73 0 __crt_stdio_output::output_processor<wchar_t,__crt_stdio_output::stream_output_adapter<wchar_t>,__crt_stdio_output::standard_base<wchar_t,__crt_stdio_output::stream_output_adapter<wchar_t> > >::type_case_s()
FUNC 2b9e1 73 0 __crt_stdio_output::output_processor<wchar_t,__crt_stdio_output::string_output_adapter<wchar_t>,__crt_stdio_output::format_validation_base<wchar_t,__crt_stdio_output::string_output_adapter<wchar_t> > >::type_case_s()
FUNC 2ba70 80 0 __crt_stdio_output::output_processor<wchar_t,__crt_stdio_output::string_output_adapter<wchar_t>,__crt_stdio_output::positional_parameter_base<wchar_t,__crt_stdio_output::string_output_adapter<wchar_t> > >::type_case_s()
FUNC 2bb10 73 0 __crt_stdio_output::output_processor<wchar_t,__crt_stdio_output::string_output_adapter<wchar_t>,__crt_stdio_output::standard_base<wchar_t,__crt_stdio_output::string_output_adapter<wchar_t> > >::type_case_s()
FUNC 2bb9f 16 0 __crt_stdio_output::output_processor<char,__crt_stdio_output::stream_output_adapter<char>,__crt_stdio_output::format_validation_base<char,__crt_stdio_output::stream_output_adapter<char> > >::type_case_s_compute_narrow_string_length(const int, char) const
FUNC 2bbba 16 0 __crt_stdio_output::output_processor<char,__crt_stdio_output::stream_output_adapter<char>,__crt_stdio_output::positional_parameter_base<char,__crt_stdio_output::stream_output_adapter<char> > >::type_case_s_compute_narrow_string_length(const int, char) const
FUNC 2bbd5 16 0 __crt_stdio_output::output_processor<char,__crt_stdio_output::stream_output_adapter<char>,__crt_stdio_output::standard_base<char,__crt_stdio_output::stream_output_adapter<char> > >::type_case_s_compute_narrow_string_length(const int, char) const
FUNC 2bbf0 16 0 __crt_stdio_output::output_processor<char,__crt_stdio_output::string_output_adapter<char>,__crt_stdio_output::format_validation_base<char,__crt_stdio_output::string_output_adapter<char> > >::type_case_s_compute_narrow_string_length(const int, char) const
FUNC 2bc0b 16 0 __crt_stdio_output::output_processor<char,__crt_stdio_output::string_output_adapter<char>,__crt_stdio_output::positional_parameter_base<char,__crt_stdio_output::string_output_adapter<char> > >::type_case_s_compute_narrow_string_length(const int, char) const
FUNC 2bc26 16 0 __crt_stdio_output::output_processor<char,__crt_stdio_output::string_output_adapter<char>,__crt_stdio_output::standard_base<char,__crt_stdio_output::string_output_adapter<char> > >::type_case_s_compute_narrow_string_length(const int, char) const
FUNC 2bc41 47 0 __crt_stdio_output::output_processor<wchar_t,__crt_stdio_output::stream_output_adapter<wchar_t>,__crt_stdio_output::format_validation_base<wchar_t,__crt_stdio_output::stream_output_adapter<wchar_t> > >::type_case_s_compute_narrow_string_length(const int, wchar_t) const
FUNC 2bc99 47 0 __crt_stdio_output::output_processor<wchar_t,__crt_stdio_output::stream_output_adapter<wchar_t>,__crt_stdio_output::positional_parameter_base<wchar_t,__crt_stdio_output::stream_output_adapter<wchar_t> > >::type_case_s_compute_narrow_string_length(const int, wchar_t) const
FUNC 2bcf1 47 0 __crt_stdio_output::output_processor<wchar_t,__crt_stdio_output::stream_output_adapter<wchar_t>,__crt_stdio_output::standard_base<wchar_t,__crt_stdio_output::stream_output_adapter<wchar_t> > >::type_case_s_compute_narrow_string_length(const int, wchar_t) const
FUNC 2bd49 47 0 __crt_stdio_output::output_processor<wchar_t,__crt_stdio_output::string_output_adapter<wchar_t>,__crt_stdio_output::format_validation_base<wchar_t,__crt_stdio_output::string_output_adapter<wchar_t> > >::type_case_s_compute_narrow_string_length(const int, wchar_t) const
FUNC 2bda1 47 0 __crt_stdio_output::output_processor<wchar_t,__crt_stdio_output::string_output_adapter<wchar_t>,__crt_stdio_output::positional_parameter_base<wchar_t,__crt_stdio_output::string_output_adapter<wchar_t> > >::type_case_s_compute_narrow_string_length(const int, wchar_t) const
FUNC 2bdf9 47 0 __crt_stdio_output::output_processor<wchar_t,__crt_stdio_output::string_output_adapter<wchar_t>,__crt_stdio_output::standard_base<wchar_t,__crt_stdio_output::string_output_adapter<wchar_t> > >::type_case_s_compute_narrow_string_length(const int, wchar_t) const
FUNC 2be51 a 0 __crt_stdio_output::output_processor<char,__crt_stdio_output::stream_output_adapter<char>,__crt_stdio_output::format_validation_base<char,__crt_stdio_output::stream_output_adapter<char> > >::type_case_u()
FUNC 2be5d a 0 __crt_stdio_output::output_processor<char,__crt_stdio_output::stream_output_adapter<char>,__crt_stdio_output::positional_parameter_base<char,__crt_stdio_output::stream_output_adapter<char> > >::type_case_u()
FUNC 2be69 a 0 __crt_stdio_output::output_processor<char,__crt_stdio_output::stream_output_adapter<char>,__crt_stdio_output::standard_base<char,__crt_stdio_output::stream_output_adapter<char> > >::type_case_u()
FUNC 2be75 a 0 __crt_stdio_output::output_processor<char,__crt_stdio_output::string_output_adapter<char>,__crt_stdio_output::format_validation_base<char,__crt_stdio_output::string_output_adapter<char> > >::type_case_u()
FUNC 2be81 a 0 __crt_stdio_output::output_processor<char,__crt_stdio_output::string_output_adapter<char>,__crt_stdio_output::positional_parameter_base<char,__crt_stdio_output::string_output_adapter<char> > >::type_case_u()
FUNC 2be8d a 0 __crt_stdio_output::output_processor<char,__crt_stdio_output::string_output_adapter<char>,__crt_stdio_output::standard_base<char,__crt_stdio_output::string_output_adapter<char> > >::type_case_u()
FUNC 2be99 a 0 __crt_stdio_output::output_processor<wchar_t,__crt_stdio_output::stream_output_adapter<wchar_t>,__crt_stdio_output::format_validation_base<wchar_t,__crt_stdio_output::stream_output_adapter<wchar_t> > >::type_case_u()
FUNC 2bea5 a 0 __crt_stdio_output::output_processor<wchar_t,__crt_stdio_output::stream_output_adapter<wchar_t>,__crt_stdio_output::positional_parameter_base<wchar_t,__crt_stdio_output::stream_output_adapter<wchar_t> > >::type_case_u()
FUNC 2beb1 a 0 __crt_stdio_output::output_processor<wchar_t,__crt_stdio_output::stream_output_adapter<wchar_t>,__crt_stdio_output::standard_base<wchar_t,__crt_stdio_output::stream_output_adapter<wchar_t> > >::type_case_u()
FUNC 2bebd a 0 __crt_stdio_output::output_processor<wchar_t,__crt_stdio_output::string_output_adapter<wchar_t>,__crt_stdio_output::format_validation_base<wchar_t,__crt_stdio_output::string_output_adapter<wchar_t> > >::type_case_u()
FUNC 2bec9 a 0 __crt_stdio_output::output_processor<wchar_t,__crt_stdio_output::string_output_adapter<wchar_t>,__crt_stdio_output::positional_parameter_base<wchar_t,__crt_stdio_output::string_output_adapter<wchar_t> > >::type_case_u()
FUNC 2bed5 a 0 __crt_stdio_output::output_processor<wchar_t,__crt_stdio_output::string_output_adapter<wchar_t>,__crt_stdio_output::standard_base<wchar_t,__crt_stdio_output::string_output_adapter<wchar_t> > >::type_case_u()
FUNC 2bee1 a 0 __crt_stdio_output::output_processor<char,__crt_stdio_output::stream_output_adapter<char>,__crt_stdio_output::format_validation_base<char,__crt_stdio_output::stream_output_adapter<char> > >::type_case_x()
FUNC 2beed a 0 __crt_stdio_output::output_processor<char,__crt_stdio_output::stream_output_adapter<char>,__crt_stdio_output::positional_parameter_base<char,__crt_stdio_output::stream_output_adapter<char> > >::type_case_x()
FUNC 2bef9 a 0 __crt_stdio_output::output_processor<char,__crt_stdio_output::stream_output_adapter<char>,__crt_stdio_output::standard_base<char,__crt_stdio_output::stream_output_adapter<char> > >::type_case_x()
FUNC 2bf05 a 0 __crt_stdio_output::output_processor<char,__crt_stdio_output::string_output_adapter<char>,__crt_stdio_output::format_validation_base<char,__crt_stdio_output::string_output_adapter<char> > >::type_case_x()
FUNC 2bf11 a 0 __crt_stdio_output::output_processor<char,__crt_stdio_output::string_output_adapter<char>,__crt_stdio_output::positional_parameter_base<char,__crt_stdio_output::string_output_adapter<char> > >::type_case_x()
FUNC 2bf1d a 0 __crt_stdio_output::output_processor<char,__crt_stdio_output::string_output_adapter<char>,__crt_stdio_output::standard_base<char,__crt_stdio_output::string_output_adapter<char> > >::type_case_x()
FUNC 2bf29 a 0 __crt_stdio_output::output_processor<wchar_t,__crt_stdio_output::stream_output_adapter<wchar_t>,__crt_stdio_output::format_validation_base<wchar_t,__crt_stdio_output::stream_output_adapter<wchar_t> > >::type_case_x()
FUNC 2bf35 a 0 __crt_stdio_output::output_processor<wchar_t,__crt_stdio_output::stream_output_adapter<wchar_t>,__crt_stdio_output::positional_parameter_base<wchar_t,__crt_stdio_output::stream_output_adapter<wchar_t> > >::type_case_x()
FUNC 2bf41 a 0 __crt_stdio_output::output_processor<wchar_t,__crt_stdio_output::stream_output_adapter<wchar_t>,__crt_stdio_output::standard_base<wchar_t,__crt_stdio_output::stream_output_adapter<wchar_t> > >::type_case_x()
FUNC 2bf4d a 0 __crt_stdio_output::output_processor<wchar_t,__crt_stdio_output::string_output_adapter<wchar_t>,__crt_stdio_output::format_validation_base<wchar_t,__crt_stdio_output::string_output_adapter<wchar_t> > >::type_case_x()
FUNC 2bf59 a 0 __crt_stdio_output::output_processor<wchar_t,__crt_stdio_output::string_output_adapter<wchar_t>,__crt_stdio_output::positional_parameter_base<wchar_t,__crt_stdio_output::string_output_adapter<wchar_t> > >::type_case_x()
FUNC 2bf65 a 0 __crt_stdio_output::output_processor<wchar_t,__crt_stdio_output::string_output_adapter<wchar_t>,__crt_stdio_output::standard_base<wchar_t,__crt_stdio_output::string_output_adapter<wchar_t> > >::type_case_x()
FUNC 2bf71 11 0 __crt_stdio_output::output_processor<char,__crt_stdio_output::stream_output_adapter<char>,__crt_stdio_output::format_validation_base<char,__crt_stdio_output::stream_output_adapter<char> > >::unset_flag(const unsigned int)
FUNC 2bf86 11 0 __crt_stdio_output::output_processor<char,__crt_stdio_output::stream_output_adapter<char>,__crt_stdio_output::positional_parameter_base<char,__crt_stdio_output::stream_output_adapter<char> > >::unset_flag(const unsigned int)
FUNC 2bf9b 11 0 __crt_stdio_output::output_processor<char,__crt_stdio_output::stream_output_adapter<char>,__crt_stdio_output::standard_base<char,__crt_stdio_output::stream_output_adapter<char> > >::unset_flag(const unsigned int)
FUNC 2bfb0 11 0 __crt_stdio_output::output_processor<char,__crt_stdio_output::string_output_adapter<char>,__crt_stdio_output::format_validation_base<char,__crt_stdio_output::string_output_adapter<char> > >::unset_flag(const unsigned int)
FUNC 2bfc5 11 0 __crt_stdio_output::output_processor<char,__crt_stdio_output::string_output_adapter<char>,__crt_stdio_output::positional_parameter_base<char,__crt_stdio_output::string_output_adapter<char> > >::unset_flag(const unsigned int)
FUNC 2bfda 11 0 __crt_stdio_output::output_processor<char,__crt_stdio_output::string_output_adapter<char>,__crt_stdio_output::standard_base<char,__crt_stdio_output::string_output_adapter<char> > >::unset_flag(const unsigned int)
FUNC 2bfef 11 0 __crt_stdio_output::output_processor<wchar_t,__crt_stdio_output::stream_output_adapter<wchar_t>,__crt_stdio_output::format_validation_base<wchar_t,__crt_stdio_output::stream_output_adapter<wchar_t> > >::unset_flag(const unsigned int)
FUNC 2c004 11 0 __crt_stdio_output::output_processor<wchar_t,__crt_stdio_output::stream_output_adapter<wchar_t>,__crt_stdio_output::positional_parameter_base<wchar_t,__crt_stdio_output::stream_output_adapter<wchar_t> > >::unset_flag(const unsigned int)
FUNC 2c019 11 0 __crt_stdio_output::output_processor<wchar_t,__crt_stdio_output::stream_output_adapter<wchar_t>,__crt_stdio_output::standard_base<wchar_t,__crt_stdio_output::stream_output_adapter<wchar_t> > >::unset_flag(const unsigned int)
FUNC 2c02e 11 0 __crt_stdio_output::output_processor<wchar_t,__crt_stdio_output::string_output_adapter<wchar_t>,__crt_stdio_output::format_validation_base<wchar_t,__crt_stdio_output::string_output_adapter<wchar_t> > >::unset_flag(const unsigned int)
FUNC 2c043 11 0 __crt_stdio_output::output_processor<wchar_t,__crt_stdio_output::string_output_adapter<wchar_t>,__crt_stdio_output::positional_parameter_base<wchar_t,__crt_stdio_output::string_output_adapter<wchar_t> > >::unset_flag(const unsigned int)
FUNC 2c058 11 0 __crt_stdio_output::output_processor<wchar_t,__crt_stdio_output::string_output_adapter<wchar_t>,__crt_stdio_output::standard_base<wchar_t,__crt_stdio_output::string_output_adapter<wchar_t> > >::unset_flag(const unsigned int)
FUNC 2c06d b4 0 __crt_stdio_output::positional_parameter_base<char,__crt_stdio_output::stream_output_adapter<char> >::update_field_width()
FUNC 2c14e b4 0 __crt_stdio_output::positional_parameter_base<char,__crt_stdio_output::string_output_adapter<char> >::update_field_width()
FUNC 2c22f b5 0 __crt_stdio_output::positional_parameter_base<wchar_t,__crt_stdio_output::stream_output_adapter<wchar_t> >::update_field_width()
FUNC 2c311 b5 0 __crt_stdio_output::positional_parameter_base<wchar_t,__crt_stdio_output::string_output_adapter<wchar_t> >::update_field_width()
FUNC 2c3f3 10 0 __crt_stdio_output::standard_base<char,__crt_stdio_output::stream_output_adapter<char> >::update_field_width()
FUNC 2c407 10 0 __crt_stdio_output::standard_base<char,__crt_stdio_output::string_output_adapter<char> >::update_field_width()
FUNC 2c41b 10 0 __crt_stdio_output::standard_base<wchar_t,__crt_stdio_output::stream_output_adapter<wchar_t> >::update_field_width()
FUNC 2c42f 10 0 __crt_stdio_output::standard_base<wchar_t,__crt_stdio_output::string_output_adapter<wchar_t> >::update_field_width()
FUNC 2c443 b4 0 __crt_stdio_output::positional_parameter_base<char,__crt_stdio_output::stream_output_adapter<char> >::update_precision()
FUNC 2c524 b4 0 __crt_stdio_output::positional_parameter_base<char,__crt_stdio_output::string_output_adapter<char> >::update_precision()
FUNC 2c605 b5 0 __crt_stdio_output::positional_parameter_base<wchar_t,__crt_stdio_output::stream_output_adapter<wchar_t> >::update_precision()
FUNC 2c6e7 b5 0 __crt_stdio_output::positional_parameter_base<wchar_t,__crt_stdio_output::string_output_adapter<wchar_t> >::update_precision()
FUNC 2c7c9 10 0 __crt_stdio_output::standard_base<char,__crt_stdio_output::stream_output_adapter<char> >::update_precision()
FUNC 2c7dd 10 0 __crt_stdio_output::standard_base<char,__crt_stdio_output::string_output_adapter<char> >::update_precision()
FUNC 2c7f1 10 0 __crt_stdio_output::standard_base<wchar_t,__crt_stdio_output::stream_output_adapter<wchar_t> >::update_precision()
FUNC 2c805 10 0 __crt_stdio_output::standard_base<wchar_t,__crt_stdio_output::string_output_adapter<wchar_t> >::update_precision()
FUNC 2c819 7 0 __crt_stdio_stream::valid() const
FUNC 2c820 21 0 __crt_stdio_output::stream_output_adapter<char>::validate() const
FUNC 2c849 1b 0 __crt_stdio_output::stream_output_adapter<wchar_t>::validate() const
FUNC 2c86a 1b 0 __crt_stdio_output::string_output_adapter<char>::validate() const
FUNC 2c88b 1b 0 __crt_stdio_output::string_output_adapter<wchar_t>::validate() const
FUNC 2c8ac 4b 0 __crt_stdio_output::positional_parameter_base<char,__crt_stdio_output::stream_output_adapter<char> >::validate_and_store_parameter_data(__crt_stdio_output::positional_parameter_base<char,__crt_stdio_output::stream_output_adapter<char> >::parameter_data&, const __crt_stdio_output::positional_parameter_base<char,__crt_stdio_output::stream_output_adapter<char> >::parameter_type, const char, const __crt_stdio_output::length_modifier)
FUNC 2c909 4b 0 __crt_stdio_output::positional_parameter_base<char,__crt_stdio_output::string_output_adapter<char> >::validate_and_store_parameter_data(__crt_stdio_output::positional_parameter_base<char,__crt_stdio_output::string_output_adapter<char> >::parameter_data&, const __crt_stdio_output::positional_parameter_base<char,__crt_stdio_output::string_output_adapter<char> >::parameter_type, const char, const __crt_stdio_output::length_modifier)
FUNC 2c966 4d 0 __crt_stdio_output::positional_parameter_base<wchar_t,__crt_stdio_output::stream_output_adapter<wchar_t> >::validate_and_store_parameter_data(__crt_stdio_output::positional_parameter_base<wchar_t,__crt_stdio_output::stream_output_adapter<wchar_t> >::parameter_data&, const __crt_stdio_output::positional_parameter_base<wchar_t,__crt_stdio_output::stream_output_adapter<wchar_t> >::parameter_type, const wchar_t, const __crt_stdio_output::length_modifier)
FUNC 2c9c6 4d 0 __crt_stdio_output::positional_parameter_base<wchar_t,__crt_stdio_output::string_output_adapter<wchar_t> >::validate_and_store_parameter_data(__crt_stdio_output::positional_parameter_base<wchar_t,__crt_stdio_output::string_output_adapter<wchar_t> >::parameter_data&, const __crt_stdio_output::positional_parameter_base<wchar_t,__crt_stdio_output::string_output_adapter<wchar_t> >::parameter_type, const wchar_t, const __crt_stdio_output::length_modifier)
FUNC 2ca26 f8 0 __crt_stdio_output::positional_parameter_base<char,__crt_stdio_output::stream_output_adapter<char> >::validate_and_update_state_at_beginning_of_format_character()
FUNC 2cb5c f8 0 __crt_stdio_output::positional_parameter_base<char,__crt_stdio_output::string_output_adapter<char> >::validate_and_update_state_at_beginning_of_format_character()
FUNC 2cc92 101 0 __crt_stdio_output::positional_parameter_base<wchar_t,__crt_stdio_output::stream_output_adapter<wchar_t> >::validate_and_update_state_at_beginning_of_format_character()
FUNC 2cdd3 101 0 __crt_stdio_output::positional_parameter_base<wchar_t,__crt_stdio_output::string_output_adapter<wchar_t> >::validate_and_update_state_at_beginning_of_format_character()
FUNC 2cf14 3 0 __crt_stdio_output::standard_base<char,__crt_stdio_output::stream_output_adapter<char> >::validate_and_update_state_at_beginning_of_format_character()
FUNC 2cf17 3 0 __crt_stdio_output::standard_base<char,__crt_stdio_output::string_output_adapter<char> >::validate_and_update_state_at_beginning_of_format_character()
FUNC 2cf1a 3 0 __crt_stdio_output::standard_base<wchar_t,__crt_stdio_output::stream_output_adapter<wchar_t> >::validate_and_update_state_at_beginning_of_format_character()
FUNC 2cf1d 3 0 __crt_stdio_output::standard_base<wchar_t,__crt_stdio_output::string_output_adapter<wchar_t> >::validate_and_update_state_at_beginning_of_format_character()
FUNC 2cf20 22 0 __crt_stdio_output::format_validation_base<char,__crt_stdio_output::stream_output_adapter<char> >::validate_and_update_state_at_end_of_format_string() const
FUNC 2cf4a 22 0 __crt_stdio_output::format_validation_base<char,__crt_stdio_output::string_output_adapter<char> >::validate_and_update_state_at_end_of_format_string() const
FUNC 2cf74 22 0 __crt_stdio_output::format_validation_base<wchar_t,__crt_stdio_output::stream_output_adapter<wchar_t> >::validate_and_update_state_at_end_of_format_string() const
FUNC 2cf9e 22 0 __crt_stdio_output::format_validation_base<wchar_t,__crt_stdio_output::string_output_adapter<wchar_t> >::validate_and_update_state_at_end_of_format_string() const
FUNC 2cfc8 90 0 __crt_stdio_output::positional_parameter_base<char,__crt_stdio_output::stream_output_adapter<char> >::validate_and_update_state_at_end_of_format_string()
FUNC 2d07c 90 0 __crt_stdio_output::positional_parameter_base<char,__crt_stdio_output::string_output_adapter<char> >::validate_and_update_state_at_end_of_format_string()
FUNC 2d130 90 0 __crt_stdio_output::positional_parameter_base<wchar_t,__crt_stdio_output::stream_output_adapter<wchar_t> >::validate_and_update_state_at_end_of_format_string()
FUNC 2d1e4 90 0 __crt_stdio_output::positional_parameter_base<wchar_t,__crt_stdio_output::string_output_adapter<wchar_t> >::validate_and_update_state_at_end_of_format_string()
FUNC 2d298 3 0 __crt_stdio_output::standard_base<char,__crt_stdio_output::stream_output_adapter<char> >::validate_and_update_state_at_end_of_format_string() const
FUNC 2d29b 3 0 __crt_stdio_output::standard_base<char,__crt_stdio_output::string_output_adapter<char> >::validate_and_update_state_at_end_of_format_string() const
FUNC 2d29e 3 0 __crt_stdio_output::standard_base<wchar_t,__crt_stdio_output::stream_output_adapter<wchar_t> >::validate_and_update_state_at_end_of_format_string() const
FUNC 2d2a1 3 0 __crt_stdio_output::standard_base<wchar_t,__crt_stdio_output::string_output_adapter<wchar_t> >::validate_and_update_state_at_end_of_format_string() const
FUNC 2d2a4 4f 0 __crt_stdio_output::positional_parameter_base<char,__crt_stdio_output::stream_output_adapter<char> >::validate_state_for_type_case_a()
FUNC 2d306 4f 0 __crt_stdio_output::positional_parameter_base<char,__crt_stdio_output::string_output_adapter<char> >::validate_state_for_type_case_a()
FUNC 2d368 4f 0 __crt_stdio_output::positional_parameter_base<wchar_t,__crt_stdio_output::stream_output_adapter<wchar_t> >::validate_state_for_type_case_a()
FUNC 2d3ca 4f 0 __crt_stdio_output::positional_parameter_base<wchar_t,__crt_stdio_output::string_output_adapter<wchar_t> >::validate_state_for_type_case_a()
FUNC 2d42c 3 0 __crt_stdio_output::standard_base<char,__crt_stdio_output::stream_output_adapter<char> >::validate_state_for_type_case_a() const
FUNC 2d42f 3 0 __crt_stdio_output::standard_base<char,__crt_stdio_output::string_output_adapter<char> >::validate_state_for_type_case_a() const
FUNC 2d432 3 0 __crt_stdio_output::standard_base<wchar_t,__crt_stdio_output::stream_output_adapter<wchar_t> >::validate_state_for_type_case_a() const
FUNC 2d435 3 0 __crt_stdio_output::standard_base<wchar_t,__crt_stdio_output::string_output_adapter<wchar_t> >::validate_state_for_type_case_a() const
FUNC 2d438 87 0 __acrt_stdio_char_traits<char>::validate_stream_is_ansi_if_required(_iobuf* const)
FUNC 2d4e0 3 0 __acrt_stdio_char_traits<wchar_t>::validate_stream_is_ansi_if_required(_iobuf* const)
FUNC 2d4e3 6 0 __crt_stdio_output::output_processor<char,__crt_stdio_output::stream_output_adapter<char>,__crt_stdio_output::format_validation_base<char,__crt_stdio_output::stream_output_adapter<char> > >::wide_null_string()
FUNC 2d4e9 6 0 __crt_stdio_output::output_processor<char,__crt_stdio_output::stream_output_adapter<char>,__crt_stdio_output::positional_parameter_base<char,__crt_stdio_output::stream_output_adapter<char> > >::wide_null_string()
FUNC 2d4ef 6 0 __crt_stdio_output::output_processor<char,__crt_stdio_output::stream_output_adapter<char>,__crt_stdio_output::standard_base<char,__crt_stdio_output::stream_output_adapter<char> > >::wide_null_string()
FUNC 2d4f5 6 0 __crt_stdio_output::output_processor<char,__crt_stdio_output::string_output_adapter<char>,__crt_stdio_output::format_validation_base<char,__crt_stdio_output::string_output_adapter<char> > >::wide_null_string()
FUNC 2d4fb 6 0 __crt_stdio_output::output_processor<char,__crt_stdio_output::string_output_adapter<char>,__crt_stdio_output::positional_parameter_base<char,__crt_stdio_output::string_output_adapter<char> > >::wide_null_string()
FUNC 2d501 6 0 __crt_stdio_output::output_processor<char,__crt_stdio_output::string_output_adapter<char>,__crt_stdio_output::standard_base<char,__crt_stdio_output::string_output_adapter<char> > >::wide_null_string()
FUNC 2d507 6 0 __crt_stdio_output::output_processor<wchar_t,__crt_stdio_output::stream_output_adapter<wchar_t>,__crt_stdio_output::format_validation_base<wchar_t,__crt_stdio_output::stream_output_adapter<wchar_t> > >::wide_null_string()
FUNC 2d50d 6 0 __crt_stdio_output::output_processor<wchar_t,__crt_stdio_output::stream_output_adapter<wchar_t>,__crt_stdio_output::positional_parameter_base<wchar_t,__crt_stdio_output::stream_output_adapter<wchar_t> > >::wide_null_string()
FUNC 2d513 6 0 __crt_stdio_output::output_processor<wchar_t,__crt_stdio_output::stream_output_adapter<wchar_t>,__crt_stdio_output::standard_base<wchar_t,__crt_stdio_output::stream_output_adapter<wchar_t> > >::wide_null_string()
FUNC 2d519 6 0 __crt_stdio_output::output_processor<wchar_t,__crt_stdio_output::string_output_adapter<wchar_t>,__crt_stdio_output::format_validation_base<wchar_t,__crt_stdio_output::string_output_adapter<wchar_t> > >::wide_null_string()
FUNC 2d51f 6 0 __crt_stdio_output::output_processor<wchar_t,__crt_stdio_output::string_output_adapter<wchar_t>,__crt_stdio_output::positional_parameter_base<wchar_t,__crt_stdio_output::string_output_adapter<wchar_t> > >::wide_null_string()
FUNC 2d525 6 0 __crt_stdio_output::output_processor<wchar_t,__crt_stdio_output::string_output_adapter<wchar_t>,__crt_stdio_output::standard_base<wchar_t,__crt_stdio_output::string_output_adapter<wchar_t> > >::wide_null_string()
FUNC 2d52b 1f 0 __crt_stdio_output::output_adapter_common<char,__crt_stdio_output::stream_output_adapter<char> >::write_character(const char, int* const) const
FUNC 2d551 1f 0 __crt_stdio_output::output_adapter_common<wchar_t,__crt_stdio_output::stream_output_adapter<wchar_t> >::write_character(const wchar_t, int* const) const
FUNC 2d577 42 0 __crt_stdio_output::string_output_adapter<char>::write_character(const char, int* const) const
FUNC 2d5c9 45 0 __crt_stdio_output::string_output_adapter<wchar_t>::write_character(const wchar_t, int* const) const
FUNC 2d61f 36 0 __crt_stdio_output::stream_output_adapter<char>::write_character_without_count_update(const char) const
FUNC 2d662 39 0 __crt_stdio_output::stream_output_adapter<wchar_t>::write_character_without_count_update(const wchar_t) const
FUNC 2d6a9 a7 0 __crt_stdio_output::output_processor<char,__crt_stdio_output::stream_output_adapter<char>,__crt_stdio_output::format_validation_base<char,__crt_stdio_output::stream_output_adapter<char> > >::write_stored_string_tchar(char)
FUNC 2d779 a7 0 __crt_stdio_output::output_processor<char,__crt_stdio_output::stream_output_adapter<char>,__crt_stdio_output::positional_parameter_base<char,__crt_stdio_output::stream_output_adapter<char> > >::write_stored_string_tchar(char)
FUNC 2d849 a7 0 __crt_stdio_output::output_processor<char,__crt_stdio_output::stream_output_adapter<char>,__crt_stdio_output::standard_base<char,__crt_stdio_output::stream_output_adapter<char> > >::write_stored_string_tchar(char)
FUNC 2d919 a7 0 __crt_stdio_output::output_processor<char,__crt_stdio_output::string_output_adapter<char>,__crt_stdio_output::format_validation_base<char,__crt_stdio_output::string_output_adapter<char> > >::write_stored_string_tchar(char)
FUNC 2d9e9 a7 0 __crt_stdio_output::output_processor<char,__crt_stdio_output::string_output_adapter<char>,__crt_stdio_output::positional_parameter_base<char,__crt_stdio_output::string_output_adapter<char> > >::write_stored_string_tchar(char)
FUNC 2dab9 a7 0 __crt_stdio_output::output_processor<char,__crt_stdio_output::string_output_adapter<char>,__crt_stdio_output::standard_base<char,__crt_stdio_output::string_output_adapter<char> > >::write_stored_string_tchar(char)
FUNC 2db89 93 0 __crt_stdio_output::output_processor<wchar_t,__crt_stdio_output::stream_output_adapter<wchar_t>,__crt_stdio_output::format_validation_base<wchar_t,__crt_stdio_output::stream_output_adapter<wchar_t> > >::write_stored_string_tchar(wchar_t)
FUNC 2dc40 93 0 __crt_stdio_output::output_processor<wchar_t,__crt_stdio_output::stream_output_adapter<wchar_t>,__crt_stdio_output::positional_parameter_base<wchar_t,__crt_stdio_output::stream_output_adapter<wchar_t> > >::write_stored_string_tchar(wchar_t)
FUNC 2dcf7 93 0 __crt_stdio_output::output_processor<wchar_t,__crt_stdio_output::stream_output_adapter<wchar_t>,__crt_stdio_output::standard_base<wchar_t,__crt_stdio_output::stream_output_adapter<wchar_t> > >::write_stored_string_tchar(wchar_t)
FUNC 2ddae 93 0 __crt_stdio_output::output_processor<wchar_t,__crt_stdio_output::string_output_adapter<wchar_t>,__crt_stdio_output::format_validation_base<wchar_t,__crt_stdio_output::string_output_adapter<wchar_t> > >::write_stored_string_tchar(wchar_t)
FUNC 2de65 93 0 __crt_stdio_output::output_processor<wchar_t,__crt_stdio_output::string_output_adapter<wchar_t>,__crt_stdio_output::positional_parameter_base<wchar_t,__crt_stdio_output::string_output_adapter<wchar_t> > >::write_stored_string_tchar(wchar_t)
FUNC 2df1c 93 0 __crt_stdio_output::output_processor<wchar_t,__crt_stdio_output::string_output_adapter<wchar_t>,__crt_stdio_output::standard_base<wchar_t,__crt_stdio_output::string_output_adapter<wchar_t> > >::write_stored_string_tchar(wchar_t)
FUNC 2dfd3 2c 0 __crt_stdio_output::stream_output_adapter<char>::write_string(char const* const, const int, int* const, __crt_deferred_errno_cache&) const
FUNC 2e00a 2c 0 __crt_stdio_output::stream_output_adapter<wchar_t>::write_string(wchar_t const* const, const int, int* const, __crt_deferred_errno_cache&) const
FUNC 2e041 67 0 __crt_stdio_output::string_output_adapter<char>::write_string(char const* const, const int, int* const, __crt_deferred_errno_cache&) const
FUNC 2e0c1 71 0 __crt_stdio_output::string_output_adapter<wchar_t>::write_string(wchar_t const* const, const int, int* const, __crt_deferred_errno_cache&) const
FUNC 2e14e 9e 0 __crt_stdio_output::output_adapter_common<char,__crt_stdio_output::stream_output_adapter<char> >::write_string_impl(char const* const, const int, int* const, __crt_deferred_errno_cache&) const
FUNC 2e213 a1 0 __crt_stdio_output::output_adapter_common<wchar_t,__crt_stdio_output::stream_output_adapter<wchar_t> >::write_string_impl(wchar_t const* const, const int, int* const, __crt_deferred_errno_cache&) const
FUNC 2e2dc 1e 0 __acrt_isleadbyte_l_noupdate(const int, __crt_locale_pointers* const)
FUNC 2e301 b 0 __acrt_locale_changed()
FUNC 2e30e 22 0 __acrt_locale_get_ctype_array_value(unsigned short const* const, const int, const int)
FUNC 2e338 83 0 __stdio_common_vfprintf(unsigned long long, _iobuf*, char const*, __crt_locale_pointers*, char*)
FUNC 2e3db 83 0 __stdio_common_vfprintf_p(unsigned long long, _iobuf*, char const*, __crt_locale_pointers*, char*)
FUNC 2e47e 83 0 __stdio_common_vfprintf_s(unsigned long long, _iobuf*, char const*, __crt_locale_pointers*, char*)
FUNC 2e521 83 0 __stdio_common_vfwprintf(unsigned long long, _iobuf*, wchar_t const*, __crt_locale_pointers*, char*)
FUNC 2e5c4 83 0 __stdio_common_vfwprintf_p(unsigned long long, _iobuf*, wchar_t const*, __crt_locale_pointers*, char*)
FUNC 2e667 83 0 __stdio_common_vfwprintf_s(unsigned long long, _iobuf*, wchar_t const*, __crt_locale_pointers*, char*)
FUNC 2e70a 27 0 __stdio_common_vsnprintf_s(unsigned long long, char*, unsigned int, unsigned int, char const*, __crt_locale_pointers*, char*)
FUNC 2e73a 27 0 __stdio_common_vsnwprintf_s(unsigned long long, wchar_t*, unsigned int, unsigned int, wchar_t const*, __crt_locale_pointers*, char*)
FUNC 2e76a 24 0 __stdio_common_vsprintf(unsigned long long, char*, unsigned int, char const*, __crt_locale_pointers*, char*)
FUNC 2e797 24 0 __stdio_common_vsprintf_p(unsigned long long, char*, unsigned int, char const*, __crt_locale_pointers*, char*)
FUNC 2e7c4 24 0 __stdio_common_vsprintf_s(unsigned long long, char*, unsigned int, char const*, __crt_locale_pointers*, char*)
FUNC 2e7f1 24 0 __stdio_common_vswprintf(unsigned long long, wchar_t*, unsigned int, wchar_t const*, __crt_locale_pointers*, char*)
FUNC 2e81e 24 0 __stdio_common_vswprintf_p(unsigned long long, wchar_t*, unsigned int, wchar_t const*, __crt_locale_pointers*, char*)
FUNC 2e84b 24 0 __stdio_common_vswprintf_s(unsigned long long, wchar_t*, unsigned int, wchar_t const*, __crt_locale_pointers*, char*)
FUNC 2e878 1a 0 _ctype_fast_check_internal(const unsigned char, const int, __crt_locale_pointers* const)
FUNC 2e898 1a 0 _isdigit_fast_internal(const unsigned char, __crt_locale_pointers* const)
FUNC 2e8b8 19 0 _tolower_fast_internal(const unsigned char, __crt_locale_pointers* const)
FUNC 2e8d7 31 0 __crt_strtox::is_overflow_condition<unsigned long>(const unsigned int, const unsigned long)
FUNC 2e914 41 0 __crt_strtox::is_overflow_condition<unsigned __int64>(const unsigned int, const unsigned long long)
FUNC 2e965 1b 0 __crt_strtox::make_c_string_character_source<char,std::nullptr_t>(char const* const, void const*)
FUNC 2e986 1b 0 __crt_strtox::make_c_string_character_source<wchar_t,std::nullptr_t>(wchar_t const* const, void const*)
FUNC 2e9a7 225 0 __crt_strtox::parse_integer<unsigned long,__crt_strtox::c_string_character_source<char> >(__crt_locale_pointers* const, __crt_strtox::c_string_character_source<char>, int, const bool)
FUNC 2ec55 608 0 __crt_strtox::parse_integer<unsigned long,__crt_strtox::c_string_character_source<wchar_t> >(__crt_locale_pointers* const, __crt_strtox::c_string_character_source<wchar_t>, int, const bool)
FUNC 2f3df 2a6 0 __crt_strtox::parse_integer<unsigned __int64,__crt_strtox::c_string_character_source<char> >(__crt_locale_pointers* const, __crt_strtox::c_string_character_source<char>, int, const bool)
FUNC 2f72e 6d1 0 __crt_strtox::parse_integer<unsigned __int64,__crt_strtox::c_string_character_source<wchar_t> >(__crt_locale_pointers* const, __crt_strtox::c_string_character_source<wchar_t>, int, const bool)
FUNC 2ffb3 2b 0 __crt_strtox::parse_integer_from_string<long,char,std::nullptr_t>(char const* const, void const*, const int, __crt_locale_pointers* const)
FUNC 2ffe8 2b 0 __crt_strtox::parse_integer_from_string<long,wchar_t,std::nullptr_t>(wchar_t const* const, void const*, const int, __crt_locale_pointers* const)
FUNC 3001d 2b 0 __crt_strtox::parse_integer_from_string<__int64,char,std::nullptr_t>(char const* const, void const*, const int, __crt_locale_pointers* const)
FUNC 30052 2b 0 __crt_strtox::parse_integer_from_string<__int64,wchar_t,std::nullptr_t>(wchar_t const* const, void const*, const int, __crt_locale_pointers* const)
FUNC 30087 1c 0 __crt_strtox::c_string_character_source<char>::c_string_character_source<char>(char const* const, char const** const)
FUNC 300aa 1c 0 __crt_strtox::c_string_character_source<wchar_t>::c_string_character_source<wchar_t>(wchar_t const* const, wchar_t const** const)
FUNC 300cd c 0 __crt_strtox::c_string_character_source<char>::~c_string_character_source<char>()
FUNC 300dc c 0 __crt_strtox::c_string_character_source<wchar_t>::~c_string_character_source<wchar_t>()
FUNC 300eb 8 0 __crt_strtox::c_string_character_source<char>::get()
FUNC 300f5 b 0 __crt_strtox::c_string_character_source<wchar_t>::get()
FUNC 30102 1e 0 __crt_strtox::is_space(const char, __crt_locale_pointers* const)
FUNC 30127 18 0 __crt_strtox::is_space(const wchar_t, __crt_locale_pointers*)
FUNC 30145 6 0 __crt_strtox::maximum_signed_value(unsigned long)
FUNC 3014b 9 0 __crt_strtox::maximum_signed_value(unsigned long long)
FUNC 30156 6 0 __crt_strtox::minimum_signed_value(unsigned long)
FUNC 3015c 8 0 __crt_strtox::minimum_signed_value(unsigned long long)
FUNC 30166 3a 0 __crt_strtox::parse_digit(const char)
FUNC 301ae 1df 0 __crt_strtox::parse_digit(const wchar_t)
FUNC 30404 10 0 __crt_strtox::c_string_character_source<char>::restore_state(char const* const)
FUNC 30418 10 0 __crt_strtox::c_string_character_source<wchar_t>::restore_state(wchar_t const* const)
FUNC 3042c 3 0 __crt_strtox::c_string_character_source<char>::save_state() const
FUNC 3042f 3 0 __crt_strtox::c_string_character_source<wchar_t>::save_state() const
FUNC 30432 29 0 __crt_strtox::c_string_character_source<char>::unget(const char)
FUNC 30465 2e 0 __crt_strtox::c_string_character_source<wchar_t>::unget(const wchar_t)
FUNC 3049e 1b 0 __crt_strtox::c_string_character_source<char>::validate() const
FUNC 304bf 1b 0 __crt_strtox::c_string_character_source<wchar_t>::validate() const
FUNC 304e0 1a1 0 __crt_strtox::wide_character_to_digit(const wchar_t)
FUNC 306e9 c 0 __acrt_get_locale_data_prefix(void const* const)
FUNC 306f8 23 0 __ascii_iswalpha(const int)
FUNC 30723 17 0 __ascii_toupper(const int)
FUNC 3073f 17 0 __ascii_towupper(const int)
FUNC 3075b 23 0 _atoi64(char const*)
FUNC 30786 24 0 _atoi64_l(char const*, __crt_locale_pointers*)
FUNC 307b3 24 0 _atoi_l(char const*, __crt_locale_pointers*)
FUNC 307e0 24 0 _atol_l(char const*, __crt_locale_pointers*)
FUNC 3080d 24 0 _atoll_l(char const*, __crt_locale_pointers*)
FUNC 3083a 28 0 _chvalidchk_l(const int, const int, __crt_locale_pointers* const)
FUNC 3086c 54 0 _ischartype_l(const int, const int, __crt_locale_pointers* const)
FUNC 308d5 23 0 _wtoi(wchar_t const*)
FUNC 30900 23 0 _wtoi64(wchar_t const*)
FUNC 3092b 24 0 _wtoi64_l(wchar_t const*, __crt_locale_pointers*)
FUNC 30958 24 0 _wtoi_l(wchar_t const*, __crt_locale_pointers*)
FUNC 30985 23 0 _wtol(wchar_t const*)
FUNC 309b0 24 0 _wtol_l(wchar_t const*, __crt_locale_pointers*)
FUNC 309dd 23 0 _wtoll(wchar_t const*)
FUNC 30a08 24 0 _wtoll_l(wchar_t const*, __crt_locale_pointers*)
FUNC 30a35 23 0 atoi(char const*)
FUNC 30a60 23 0 atol(char const*)
FUNC 30a8b 23 0 atoll(char const*)
FUNC 30ac0 78 0 strncmp(unsigned char*, unsigned char*, unsigned long)
FUNC 30b56 21 0 _set_abort_behavior(unsigned int, unsigned int)
FUNC 30b7f 44 0 abort()
FUNC 30bd4 b 0 calloc(unsigned int, unsigned int)
FUNC 30be1 3a 0 wcsncmp(wchar_t const*, wchar_t const*, unsigned int)
FUNC 30c29 12 0 __crt_internal_free_policy::operator()<__acrt_ptd>(__acrt_ptd const* const) const
FUNC 30c3f 52 0 __crt_seh_guarded_call<void>::operator()<<lambda_15ade71b0218206bbe3333a0c9b79046>,<lambda_da44e0f8b0f19ba52fefafb335991732> &,<lambda_207f2d024fc103971653565357d6cd41> >(__acrt_lock_and_call::__l2::<lambda_15ade71b0218206bbe3333a0c9b79046>&&, construct_ptd::__l2::<lambda_da44e0f8b0f19ba52fefafb335991732>&, __acrt_lock_and_call::__l2::<lambda_207f2d024fc103971653565357d6cd41>&&)
FUNC 30ca5 6b 0 __crt_seh_guarded_call<void>::operator()<<lambda_38edbb1296d33220d7e4dd0ed76b244a>,<lambda_5ce1d447e08cb34b2473517608e21441> &,<lambda_fb385d3da700c9147fc39e65dd577a8c> >(__acrt_lock_and_call::__l2::<lambda_38edbb1296d33220d7e4dd0ed76b244a>&&, destroy_ptd::__l2::<lambda_5ce1d447e08cb34b2473517608e21441>&, __acrt_lock_and_call::__l2::<lambda_fb385d3da700c9147fc39e65dd577a8c>&&)
FUNC 30d2a 55 0 __crt_seh_guarded_call<void>::operator()<<lambda_6affb1475c98b40b75cdec977db92e3c>,<lambda_b8d4b9c228a6ecc3f80208dbb4b4a104> &,<lambda_608742c3c92a14382c1684fc64f96c88> >(__acrt_lock_and_call::__l2::<lambda_6affb1475c98b40b75cdec977db92e3c>&&, destroy_ptd::__l2::<lambda_b8d4b9c228a6ecc3f80208dbb4b4a104>&, __acrt_lock_and_call::__l2::<lambda_608742c3c92a14382c1684fc64f96c88>&&)
FUNC 30d94 5a 0 __crt_seh_guarded_call<void>::operator()<<lambda_a7e850c220f1c8d1e6efeecdedd162c6>,<lambda_46720907175c18b6c9d2717bc0d2d362> &,<lambda_9048902d66e8d99359bc9897bbb930a8> >(__acrt_lock_and_call::__l2::<lambda_a7e850c220f1c8d1e6efeecdedd162c6>&&, construct_ptd::__l2::<lambda_46720907175c18b6c9d2717bc0d2d362>&, __acrt_lock_and_call::__l2::<lambda_9048902d66e8d99359bc9897bbb930a8>&&)
FUNC 30e04 26 0 __acrt_lock_and_call<<lambda_46720907175c18b6c9d2717bc0d2d362> >(const __acrt_lock_id, construct_ptd::__l2::<lambda_46720907175c18b6c9d2717bc0d2d362>&&)
FUNC 30e33 26 0 __acrt_lock_and_call<<lambda_5ce1d447e08cb34b2473517608e21441> >(const __acrt_lock_id, destroy_ptd::__l2::<lambda_5ce1d447e08cb34b2473517608e21441>&&)
FUNC 30e62 26 0 __acrt_lock_and_call<<lambda_b8d4b9c228a6ecc3f80208dbb4b4a104> >(const __acrt_lock_id, destroy_ptd::__l2::<lambda_b8d4b9c228a6ecc3f80208dbb4b4a104>&&)
FUNC 30e91 26 0 __acrt_lock_and_call<<lambda_da44e0f8b0f19ba52fefafb335991732> >(const __acrt_lock_id, construct_ptd::__l2::<lambda_da44e0f8b0f19ba52fefafb335991732>&&)
FUNC 30ec0 12 0 <lambda_15ade71b0218206bbe3333a0c9b79046>::<lambda_15ade71b0218206bbe3333a0c9b79046>(__acrt_lock_id const&)
FUNC 30ed6 12 0 <lambda_207f2d024fc103971653565357d6cd41>::<lambda_207f2d024fc103971653565357d6cd41>(__acrt_lock_id const&)
FUNC 30eec 12 0 <lambda_38edbb1296d33220d7e4dd0ed76b244a>::<lambda_38edbb1296d33220d7e4dd0ed76b244a>(__acrt_lock_id const&)
FUNC 30f02 16 0 <lambda_46720907175c18b6c9d2717bc0d2d362>::<lambda_46720907175c18b6c9d2717bc0d2d362>(__acrt_ptd* const&, __crt_locale_data** const&)
FUNC 30f1d 10 0 <lambda_5ce1d447e08cb34b2473517608e21441>::<lambda_5ce1d447e08cb34b2473517608e21441>(__acrt_ptd* const&)
FUNC 30f31 12 0 <lambda_608742c3c92a14382c1684fc64f96c88>::<lambda_608742c3c92a14382c1684fc64f96c88>(__acrt_lock_id const&)
FUNC 30f47 12 0 <lambda_6affb1475c98b40b75cdec977db92e3c>::<lambda_6affb1475c98b40b75cdec977db92e3c>(__acrt_lock_id const&)
FUNC 30f5d 12 0 <lambda_9048902d66e8d99359bc9897bbb930a8>::<lambda_9048902d66e8d99359bc9897bbb930a8>(__acrt_lock_id const&)
FUNC 30f73 12 0 <lambda_a7e850c220f1c8d1e6efeecdedd162c6>::<lambda_a7e850c220f1c8d1e6efeecdedd162c6>(__acrt_lock_id const&)
FUNC 30f89 10 0 <lambda_b8d4b9c228a6ecc3f80208dbb4b4a104>::<lambda_b8d4b9c228a6ecc3f80208dbb4b4a104>(__acrt_ptd* const&)
FUNC 30f9d 10 0 <lambda_da44e0f8b0f19ba52fefafb335991732>::<lambda_da44e0f8b0f19ba52fefafb335991732>(__acrt_ptd* const&)
FUNC 30fb1 12 0 <lambda_fb385d3da700c9147fc39e65dd577a8c>::<lambda_fb385d3da700c9147fc39e65dd577a8c>(__acrt_lock_id const&)
FUNC 30fc7 10 0 __crt_unique_heap_ptr<__acrt_ptd,__crt_internal_free_policy>::__crt_unique_heap_ptr<__acrt_ptd,__crt_internal_free_policy>(__acrt_ptd* const)
FUNC 30fdb 11 0 __crt_scoped_get_last_error_reset::__crt_scoped_get_last_error_reset()
FUNC 30ff0 12 0 __crt_unique_heap_ptr<__acrt_ptd,__crt_internal_free_policy>::~__crt_unique_heap_ptr<__acrt_ptd,__crt_internal_free_policy>()
FUNC 31006 9 0 __crt_scoped_get_last_error_reset::~__crt_scoped_get_last_error_reset()
FUNC 31011 7 0 __crt_unique_heap_ptr<__acrt_ptd,__crt_internal_free_policy>::operator bool() const
FUNC 31018 9 0 <lambda_15ade71b0218206bbe3333a0c9b79046>::operator()() const
FUNC 31023 9 0 <lambda_207f2d024fc103971653565357d6cd41>::operator()() const
FUNC 3102e 9 0 <lambda_38edbb1296d33220d7e4dd0ed76b244a>::operator()() const
FUNC 31039 13 0 <lambda_46720907175c18b6c9d2717bc0d2d362>::operator()() const
FUNC 31050 24 0 <lambda_5ce1d447e08cb34b2473517608e21441>::operator()() const
FUNC 3107d 9 0 <lambda_608742c3c92a14382c1684fc64f96c88>::operator()() const
FUNC 31088 9 0 <lambda_6affb1475c98b40b75cdec977db92e3c>::operator()() const
FUNC 31093 9 0 <lambda_9048902d66e8d99359bc9897bbb930a8>::operator()() const
FUNC 3109e 9 0 <lambda_a7e850c220f1c8d1e6efeecdedd162c6>::operator()() const
FUNC 310a9 e 0 <lambda_b8d4b9c228a6ecc3f80208dbb4b4a104>::operator()() const
FUNC 310ba b 0 <lambda_da44e0f8b0f19ba52fefafb335991732>::operator()() const
FUNC 310c7 9 0 <lambda_fb385d3da700c9147fc39e65dd577a8c>::operator()() const
FUNC 310d2 99 0 construct_ptd(__acrt_ptd* const, __crt_locale_data** const)
FUNC 31191 16 0 construct_ptd_array(__acrt_ptd* const)
FUNC 311ac 3 0 __crt_state_management::dual_state_global<__crt_locale_data *>::dangerous_get_state_array()
FUNC 311af 21 0 destroy_fls(void*)
FUNC 311d8 cd 0 destroy_ptd(__acrt_ptd* const)
FUNC 312d8 5 0 destroy_ptd_array(__acrt_ptd* const)
FUNC 312dd 6 0 __crt_unique_heap_ptr<__acrt_ptd,__crt_internal_free_policy>::detach()
FUNC 312e3 3 0 __crt_unique_heap_ptr<__acrt_ptd,__crt_internal_free_policy>::get() const
FUNC 312e6 3 0 __crt_state_management::get_current_state_index(__crt_scoped_get_last_error_reset const&)
FUNC 312e9 81 0 internal_get_ptd_head()
FUNC 3138a b1 0 internal_getptd_noexit()
FUNC 31467 7 0 __crt_unique_heap_ptr<__acrt_ptd,__crt_internal_free_policy>::is_valid() const
FUNC 3146e 12 0 __crt_unique_heap_ptr<__acrt_ptd,__crt_internal_free_policy>::release()
FUNC 31484 4b 0 replace_current_thread_locale_nolock(__acrt_ptd* const, __crt_locale_data* const)
FUNC 314e1 17 0 try_get_ptd_head()
FUNC 314fd 3 0 __crt_state_management::dual_state_global<__crt_locale_data *>::value()
FUNC 31500 2c 0 __acrt_freeptd()
FUNC 31537 bd 0 __acrt_getptd()
FUNC 31623 9a 0 __acrt_getptd_head()
FUNC 316e3 b5 0 __acrt_getptd_noexit()
FUNC 317c5 2c 0 __acrt_initialize_ptd()
FUNC 317fc 1a 0 __acrt_uninitialize_ptd(bool)
FUNC 3181c 6 0 __threadhandle()
FUNC 31822 6 0 __threadid()
FUNC 31828 6 0 select_heap(void* const)
FUNC 3182e 3a 0 _free_base(void*)
FUNC 31876 41 0 __acrt_initialize_locks()
FUNC 318c7 17 0 __acrt_lock(__acrt_lock_id)
FUNC 318e3 31 0 __acrt_uninitialize_locks(bool)
FUNC 31920 17 0 __acrt_unlock(__acrt_lock_id)
FUNC 3193c e 0 _lock_locales()
FUNC 3194d 9 0 _unlock_locales()
FUNC 31958 43 0 get_cached_win_policy<`__acrt_get_begin_thread_init_policy'::`2'::begin_thread_init_policy_properties>(AppPolicyThreadInitializationType)
FUNC 319ab 43 0 get_cached_win_policy<`__acrt_get_developer_information_policy'::`2'::developer_information_policy_properties>(AppPolicyShowDeveloperDiagnostic)
FUNC 319fe 5b 0 get_cached_win_policy<`__acrt_get_windowing_model_policy'::`2'::windowing_model_policy_properties>(AppPolicyWindowingModel)
FUNC 31a6f 2f 0 get_win_policy<`__acrt_get_process_end_policy'::`2'::process_end_policy_properties>(AppPolicyProcessTerminationMethod)
FUNC 31aa9 f 0 `__acrt_get_begin_thread_init_policy'::`2'::begin_thread_init_policy_properties::appmodel_get_policy(AppPolicyThreadInitializationType*)
FUNC 31abb f 0 `__acrt_get_developer_information_policy'::`2'::developer_information_policy_properties::appmodel_get_policy(AppPolicyShowDeveloperDiagnostic*)
FUNC 31acd f 0 `__acrt_get_process_end_policy'::`2'::process_end_policy_properties::appmodel_get_policy(AppPolicyProcessTerminationMethod*)
FUNC 31adf f 0 `__acrt_get_windowing_model_policy'::`2'::windowing_model_policy_properties::appmodel_get_policy(AppPolicyWindowingModel*)
FUNC 31af1 11 0 `__acrt_get_begin_thread_init_policy'::`2'::begin_thread_init_policy_properties::appmodel_policy_to_policy_type(const long)
FUNC 31b06 11 0 `__acrt_get_developer_information_policy'::`2'::developer_information_policy_properties::appmodel_policy_to_policy_type(const long)
FUNC 31b1b 10 0 `__acrt_get_process_end_policy'::`2'::process_end_policy_properties::appmodel_policy_to_policy_type(const AppPolicyProcessTerminationMethod)
FUNC 31b2f 29 0 `__acrt_get_windowing_model_policy'::`2'::windowing_model_policy_properties::appmodel_policy_to_policy_type(const long)
FUNC 31b62 44 0 __acrt_get_begin_thread_init_policy()
FUNC 31bb7 44 0 __acrt_get_developer_information_policy()
FUNC 31c0c 31 0 __acrt_get_process_end_policy()
FUNC 31c49 5c 0 __acrt_get_windowing_model_policy()
FUNC 31cbc 43 0 __acrt_errno_from_os_error(unsigned long)
FUNC 31d0f 23 0 __acrt_errno_map_os_error(unsigned long)
FUNC 31d3a 13 0 __doserrno()
FUNC 31d51 13 0 _errno()
FUNC 31d68 25 0 _get_doserrno(unsigned long*)
FUNC 31d96 25 0 _get_errno(int*)
FUNC 31dc4 21 0 _set_doserrno(unsigned long)
FUNC 31ded 21 0 _set_errno(int)
FUNC 31e16 5d 0 _calloc_base(unsigned int, unsigned int)
FUNC 31e8a 18 0 <lambda_838c7f62c73c983481e27c09e84b0b5d>::<lambda_invoker_cdecl>(void const*, void const*)
FUNC 31ea8 18 0 <lambda_d388dc2bcbe6079ffc891eec49d9b3b2>::<lambda_invoker_cdecl>(void const*, void const*)
FUNC 31ec6 b2 0 __acrt_convert_wcs_mbs_cp<char,wchar_t,<lambda_62f6974d9771e494a5ea317cc32e971c>,__crt_win32_buffer_internal_dynamic_resizing>(char const* const, __crt_win32_buffer<wchar_t,__crt_win32_buffer_internal_dynamic_resizing>&, __acrt_mbs_to_wcs_cp::__l2::<lambda_62f6974d9771e494a5ea317cc32e971c> const&, const unsigned int)
FUNC 31fa4 cf 0 __acrt_convert_wcs_mbs_cp<wchar_t,char,<lambda_28bda7af82a03b66c1cb3803a755f95d>,__crt_win32_buffer_internal_dynamic_resizing>(wchar_t const* const, __crt_win32_buffer<char,__crt_win32_buffer_internal_dynamic_resizing>&, __acrt_wcs_to_mbs_cp::__l2::<lambda_28bda7af82a03b66c1cb3803a755f95d> const&, const unsigned int)
FUNC 320a6 1d 0 __acrt_mbs_to_wcs_cp<__crt_win32_buffer_internal_dynamic_resizing>(char const* const, __crt_win32_buffer<wchar_t,__crt_win32_buffer_internal_dynamic_resizing>&, const unsigned int)
FUNC 320ca 1d 0 __acrt_wcs_to_mbs_cp<__crt_win32_buffer_internal_dynamic_resizing>(wchar_t const* const, __crt_win32_buffer<char,__crt_win32_buffer_internal_dynamic_resizing>&, const unsigned int)
FUNC 320ee 1ef 0 common_expand_argv_wildcards<char>(char** const, char*** const)
FUNC 32358 228 0 common_expand_argv_wildcards<wchar_t>(wchar_t** const, wchar_t*** const)
FUNC 3260a b1 0 copy_and_add_argument_to_buffer<char>(char const* const, char const* const, const unsigned int, `anonymous-namespace'::argument_list<char>&)
FUNC 326e7 b4 0 copy_and_add_argument_to_buffer<wchar_t>(wchar_t const* const, wchar_t const* const, const unsigned int, `anonymous-namespace'::argument_list<wchar_t>&)
FUNC 327c8 257 0 expand_argument_wildcards<char>(char* const, char* const, `anonymous-namespace'::argument_list<char>&)
FUNC 32ab4 172 0 expand_argument_wildcards<wchar_t>(wchar_t* const, wchar_t* const, `anonymous-namespace'::argument_list<wchar_t>&)
FUNC 32c82 18 0 __crt_char_traits<char>::tcslen<char const * const &>(char const* const&)
FUNC 32ca0 1e 0 __crt_char_traits<wchar_t>::tcslen<wchar_t const * const &>(wchar_t const* const&)
FUNC 32cc5 23 0 __crt_char_traits<char>::tcsncpy_s<char * &,unsigned int,char * &,unsigned int const &>(char*&, unsigned int&&, char*&, unsigned int const&)
FUNC 32cf0 23 0 __crt_char_traits<wchar_t>::tcsncpy_s<wchar_t * &,unsigned int,wchar_t * &,unsigned int const &>(wchar_t*&, unsigned int&&, wchar_t*&, unsigned int const&)
FUNC 32d1b 23 0 __crt_char_traits<char>::tcsncpy_s<char *,unsigned int const &,char const * const &,unsigned int const &>(char*&&, unsigned int const&, char const* const&, unsigned int const&)
FUNC 32d46 23 0 __crt_char_traits<char>::tcsncpy_s<char *,unsigned int,char const * const &,unsigned int const &>(char*&&, unsigned int&&, char const* const&, unsigned int const&)
FUNC 32d71 23 0 __crt_char_traits<wchar_t>::tcsncpy_s<wchar_t *,unsigned int const &,wchar_t const * const &,unsigned int const &>(wchar_t*&&, unsigned int const&, wchar_t const* const&, unsigned int const&)
FUNC 32d9c 23 0 __crt_char_traits<wchar_t>::tcsncpy_s<wchar_t *,unsigned int,wchar_t const * const &,unsigned int const &>(wchar_t*&&, unsigned int&&, wchar_t const* const&, unsigned int const&)
FUNC 32dc7 16 0 __crt_char_traits<char>::tcspbrk<char * &,char const (&)[3]>(char*&, const char[3]&)
FUNC 32de2 16 0 __crt_char_traits<wchar_t>::tcspbrk<wchar_t * &,wchar_t const (&)[3]>(wchar_t*&, const wchar_t[3]&)
FUNC 32dfd 10 0 __crt_unique_handle_t<__crt_findfile_traits>::__crt_unique_handle_t<__crt_findfile_traits>(void* const)
FUNC 32e11 16 0 __crt_win32_buffer<char,__crt_win32_buffer_internal_dynamic_resizing>::__crt_win32_buffer<char,__crt_win32_buffer_internal_dynamic_resizing>()
FUNC 32e2c 16 0 __crt_win32_buffer<wchar_t,__crt_win32_buffer_internal_dynamic_resizing>::__crt_win32_buffer<wchar_t,__crt_win32_buffer_internal_dynamic_resizing>()
FUNC 32e47 d 0 (anonymous namespace)::argument_list<char>::argument_list<char>()
FUNC 32e57 d 0 (anonymous namespace)::argument_list<wchar_t>::argument_list<wchar_t>()
FUNC 32e67 17 0 __crt_unique_handle_t<__crt_findfile_traits>::~__crt_unique_handle_t<__crt_findfile_traits>()
FUNC 32e83 5 0 __crt_win32_buffer<char,__crt_win32_buffer_internal_dynamic_resizing>::~__crt_win32_buffer<char,__crt_win32_buffer_internal_dynamic_resizing>()
FUNC 32e88 5 0 __crt_win32_buffer<wchar_t,__crt_win32_buffer_internal_dynamic_resizing>::~__crt_win32_buffer<wchar_t,__crt_win32_buffer_internal_dynamic_resizing>()
FUNC 32e8d 29 0 (anonymous namespace)::argument_list<char>::~argument_list<char>()
FUNC 32ec0 29 0 (anonymous namespace)::argument_list<wchar_t>::~argument_list<wchar_t>()
FUNC 32ef3 6 0 <lambda_838c7f62c73c983481e27c09e84b0b5d>::operator int (__cdecl*)(void const *,void const *)() const
FUNC 32ef9 6 0 <lambda_d388dc2bcbe6079ffc891eec49d9b3b2>::operator int (__cdecl*)(void const *,void const *)() const
FUNC 32eff 24 0 <lambda_28bda7af82a03b66c1cb3803a755f95d>::operator()(const unsigned int, wchar_t const* const, char* const, const unsigned int) const
FUNC 32f2c 1e 0 <lambda_594f614a8947934b886943aa86a6498d>::operator()(const char) const
FUNC 32f51 21 0 <lambda_62f6974d9771e494a5ea317cc32e971c>::operator()(const unsigned int, char const* const, wchar_t* const, const unsigned int) const
FUNC 32f7a 1a 0 <lambda_838c7f62c73c983481e27c09e84b0b5d>::operator()(void const*, void const*) const
FUNC 32f9a 1a 0 <lambda_d388dc2bcbe6079ffc891eec49d9b3b2>::operator()(void const*, void const*) const
FUNC 32fba 24 0 <lambda_d734a73e0f649ebd9d9b0eca0b8ca86a>::operator()(const wchar_t) const
FUNC 32fe7 3f 0 __acrt_get_utf8_acp_compatibility_codepage()
FUNC 33035 1a 0 __crt_win32_buffer<char,__crt_win32_buffer_internal_dynamic_resizing>::_deallocate()
FUNC 33055 1a 0 __crt_win32_buffer<wchar_t,__crt_win32_buffer_internal_dynamic_resizing>::_deallocate()
FUNC 33075 3c 0 __crt_win32_buffer<char,__crt_win32_buffer_internal_dynamic_resizing>::allocate(unsigned int)
FUNC 330c0 3f 0 __crt_win32_buffer<wchar_t,__crt_win32_buffer_internal_dynamic_resizing>::allocate(unsigned int)
FUNC 3310e 1f 0 __crt_win32_buffer_internal_dynamic_resizing::allocate(void** const, const unsigned int, __crt_win32_buffer_empty_debug_info const&)
FUNC 33134 35 0 (anonymous namespace)::argument_list<char>::append(char* const)
FUNC 33176 35 0 (anonymous namespace)::argument_list<wchar_t>::append(wchar_t* const)
FUNC 331b8 3 0 (anonymous namespace)::argument_list<char>::begin() const
FUNC 331bb 3 0 (anonymous namespace)::argument_list<wchar_t>::begin() const
FUNC 331be 4 0 __crt_win32_buffer<char,__crt_win32_buffer_internal_dynamic_resizing>::capacity() const
FUNC 331c2 4 0 __crt_win32_buffer<wchar_t,__crt_win32_buffer_internal_dynamic_resizing>::capacity() const
FUNC 331c6 17 0 __crt_unique_handle_t<__crt_findfile_traits>::close()
FUNC 331e2 15 0 __crt_findfile_traits::close(void*)
FUNC 331fc 4 0 __crt_win32_buffer<char,__crt_win32_buffer_internal_dynamic_resizing>::data()
FUNC 33200 4 0 __crt_win32_buffer<wchar_t,__crt_win32_buffer_internal_dynamic_resizing>::data()
FUNC 33204 10 0 __crt_win32_buffer_internal_dynamic_resizing::deallocate(void* const, __crt_win32_buffer_empty_debug_info const&)
FUNC 33218 3 0 __crt_win32_buffer<char,__crt_win32_buffer_internal_dynamic_resizing>::debug_info() const
FUNC 3321b 3 0 __crt_win32_buffer<wchar_t,__crt_win32_buffer_internal_dynamic_resizing>::debug_info() const
FUNC 3321e 4 0 (anonymous namespace)::argument_list<char>::end() const
FUNC 33222 4 0 (anonymous namespace)::argument_list<wchar_t>::end() const
FUNC 33226 87 0 (anonymous namespace)::argument_list<char>::expand_if_necessary()
FUNC 332ce 87 0 (anonymous namespace)::argument_list<wchar_t>::expand_if_necessary()
FUNC 33376 3 0 __crt_unique_handle_t<__crt_findfile_traits>::get() const
FUNC 33379 29 0 get_file_name(__crt_win32_buffer<char,__crt_win32_buffer_internal_dynamic_resizing>* const, wchar_t* const)
FUNC 333ac a 0 get_file_name(__crt_win32_buffer<wchar_t,__crt_win32_buffer_internal_dynamic_resizing>*, wchar_t* const)
FUNC 333b8 4 0 __crt_findfile_traits::get_invalid_value()
FUNC 333bc a 0 get_wide(__crt_win32_buffer<wchar_t,__crt_win32_buffer_internal_dynamic_resizing>*, wchar_t* const)
FUNC 333c8 29 0 get_wide(__crt_win32_buffer<wchar_t,__crt_win32_buffer_internal_dynamic_resizing>* const, char* const)
FUNC 333fb b 0 previous_character(char* const, char* const)
FUNC 33408 d 0 previous_character(wchar_t*, wchar_t* const)
FUNC 33418 17 0 __crt_win32_buffer<char,__crt_win32_buffer_internal_dynamic_resizing>::set_to_nullptr()
FUNC 33434 17 0 __crt_win32_buffer<wchar_t,__crt_win32_buffer_internal_dynamic_resizing>::set_to_nullptr()
FUNC 33450 f 0 __crt_win32_buffer<char,__crt_win32_buffer_internal_dynamic_resizing>::size(unsigned int)
FUNC 33462 f 0 __crt_win32_buffer<wchar_t,__crt_win32_buffer_internal_dynamic_resizing>::size(unsigned int)
FUNC 33474 9 0 (anonymous namespace)::argument_list<char>::size() const
FUNC 3347f 9 0 (anonymous namespace)::argument_list<wchar_t>::size() const
FUNC 3348a b 0 strpbrk(char* const, char const* const)
FUNC 33497 b 0 wcspbrk(wchar_t*, wchar_t const*)
FUNC 334a4 b 0 __acrt_expand_narrow_argv_wildcards(char**, char***)
FUNC 334b1 b 0 __acrt_expand_wide_argv_wildcards(wchar_t**, wchar_t***)
FUNC 334be c7 0 __acrt_convert_wcs_mbs_cp<wchar_t,char,<lambda_0fec1a7b3f42a53036604e18c2d5e07e>,__crt_win32_buffer_no_resizing>(wchar_t const* const, __crt_win32_buffer<char,__crt_win32_buffer_no_resizing>&, __acrt_wcs_to_mbs_cp::__l2::<lambda_0fec1a7b3f42a53036604e18c2d5e07e> const&, const unsigned int)
FUNC 335b6 1d 0 __acrt_wcs_to_mbs_cp<__crt_win32_buffer_no_resizing>(wchar_t const* const, __crt_win32_buffer<char,__crt_win32_buffer_no_resizing>&, const unsigned int)
FUNC 335da 24 0 __crt_win32_buffer<char,__crt_win32_buffer_no_resizing>::__crt_win32_buffer<char,__crt_win32_buffer_no_resizing>(char* const, const unsigned int)
FUNC 33607 b 0 __crt_win32_buffer<char,__crt_win32_buffer_no_resizing>::~__crt_win32_buffer<char,__crt_win32_buffer_no_resizing>()
FUNC 33614 24 0 <lambda_0fec1a7b3f42a53036604e18c2d5e07e>::operator()(const unsigned int, wchar_t const* const, char* const, const unsigned int) const
FUNC 33641 b 0 __crt_win32_buffer<char,__crt_win32_buffer_no_resizing>::_deallocate()
FUNC 3364e 27 0 __crt_win32_buffer<char,__crt_win32_buffer_no_resizing>::allocate(unsigned int)
FUNC 3367e d 0 __crt_win32_buffer_no_resizing::allocate(void** const, const unsigned int, __crt_win32_buffer_empty_debug_info const&)
FUNC 3368e 4 0 __crt_win32_buffer<char,__crt_win32_buffer_no_resizing>::capacity() const
FUNC 33692 4 0 __crt_win32_buffer<char,__crt_win32_buffer_no_resizing>::data()
FUNC 33696 3 0 __crt_win32_buffer_no_resizing::deallocate(void* const, __crt_win32_buffer_empty_debug_info const&)
FUNC 33699 3 0 __crt_win32_buffer<char,__crt_win32_buffer_no_resizing>::debug_info() const
FUNC 3369c 14 0 __crt_win32_buffer<char,__crt_win32_buffer_no_resizing>::set_to_nullptr()
FUNC 336b5 f 0 __crt_win32_buffer<char,__crt_win32_buffer_no_resizing>::size(unsigned int)
FUNC 336c7 4 0 __crt_win32_buffer<char,__crt_win32_buffer_no_resizing>::size() const
FUNC 336cb a1 0 __acrt_GetModuleFileNameA(HINSTANCE__*, char*, unsigned long)
FUNC 33794 12 0 __crt_internal_free_policy::operator()<__crt_multibyte_data>(__crt_multibyte_data const* const) const
FUNC 337aa 4d 0 __crt_seh_guarded_call<void>::operator()<<lambda_ceb1ee4838e85a9d631eb091e2fbe199>,<lambda_ae742caa10f662c28703da3d2ea5e57e> &,<lambda_cd08b5d6af4937fe54fc07d0c9bf6b37> >(__acrt_lock_and_call::__l2::<lambda_ceb1ee4838e85a9d631eb091e2fbe199>&&, setmbcp_internal::__l2::<lambda_ae742caa10f662c28703da3d2ea5e57e>&, __acrt_lock_and_call::__l2::<lambda_cd08b5d6af4937fe54fc07d0c9bf6b37>&&)
FUNC 3380a 26 0 __acrt_lock_and_call<<lambda_ae742caa10f662c28703da3d2ea5e57e> >(const __acrt_lock_id, setmbcp_internal::__l2::<lambda_ae742caa10f662c28703da3d2ea5e57e>&&)
FUNC 33839 f 0 __crt_state_management::dual_state_global<unsigned char *>::initialize_from_array<unsigned char [1][256]>(unsigned char[1][256]&)
FUNC 3384b f 0 __crt_state_management::dual_state_global<unsigned char *>::initialize_from_array<unsigned char [1][257]>(unsigned char[1][257]&)
FUNC 3385d 16 0 <lambda_ae742caa10f662c28703da3d2ea5e57e>::<lambda_ae742caa10f662c28703da3d2ea5e57e>(__acrt_ptd* const&, __crt_multibyte_data** const&)
FUNC 33878 12 0 <lambda_cd08b5d6af4937fe54fc07d0c9bf6b37>::<lambda_cd08b5d6af4937fe54fc07d0c9bf6b37>(__acrt_lock_id const&)
FUNC 3388e 12 0 <lambda_ceb1ee4838e85a9d631eb091e2fbe199>::<lambda_ceb1ee4838e85a9d631eb091e2fbe199>(__acrt_lock_id const&)
FUNC 338a4 10 0 __crt_unique_heap_ptr<__crt_multibyte_data,__crt_internal_free_policy>::__crt_unique_heap_ptr<__crt_multibyte_data,__crt_internal_free_policy>(__crt_multibyte_data* const)
FUNC 338b8 12 0 __crt_unique_heap_ptr<__crt_multibyte_data,__crt_internal_free_policy>::~__crt_unique_heap_ptr<__crt_multibyte_data,__crt_internal_free_policy>()
FUNC 338ce 7 0 __crt_unique_heap_ptr<__crt_multibyte_data,__crt_internal_free_policy>::operator bool() const
FUNC 338d5 83 0 <lambda_ae742caa10f662c28703da3d2ea5e57e>::operator()() const
FUNC 33978 9 0 <lambda_cd08b5d6af4937fe54fc07d0c9bf6b37>::operator()() const
FUNC 33983 9 0 <lambda_ceb1ee4838e85a9d631eb091e2fbe199>::operator()() const
FUNC 3398e 3e 0 CPtoLocaleName(int)
FUNC 339db 3 0 __crt_state_management::dual_state_global<unsigned char *>::dangerous_get_state_array()
FUNC 339de 3 0 __crt_state_management::dual_state_global<__crt_multibyte_data *>::dangerous_get_state_array()
FUNC 339e1 6 0 __crt_unique_heap_ptr<__crt_multibyte_data,__crt_internal_free_policy>::detach()
FUNC 339e7 3 0 __crt_unique_heap_ptr<__crt_multibyte_data,__crt_internal_free_policy>::get() const
FUNC 339ea 71 0 getSystemCP(int)
FUNC 33a77 26 0 __crt_state_management::dual_state_global<__crt_multibyte_data *>::initialize(__crt_multibyte_data* const)
FUNC 33aa6 7 0 __crt_unique_heap_ptr<__crt_multibyte_data,__crt_internal_free_policy>::is_valid() const
FUNC 33aad 12 0 __crt_unique_heap_ptr<__crt_multibyte_data,__crt_internal_free_policy>::release()
FUNC 33ac3 65 0 setSBCS(__crt_multibyte_data*)
FUNC 33b41 181 0 setSBUpLow(__crt_multibyte_data*)
FUNC 33d22 119 0 setmbcp_internal(const int, const bool, __acrt_ptd* const, __crt_multibyte_data** const)
FUNC 33e81 a0 0 update_thread_multibyte_data_internal(__acrt_ptd* const, __crt_multibyte_data** const)
FUNC 33f49 3 0 __crt_state_management::dual_state_global<unsigned char *>::value()
FUNC 33f4c 3 0 __crt_state_management::dual_state_global<__crt_multibyte_data *>::value()
FUNC 33f4f 48 0 __acrt_initialize_multibyte()
FUNC 33fa9 13 0 __acrt_update_thread_multibyte_data()
FUNC 33fc0 6 0 __p__mbcasemap()
FUNC 33fc6 6 0 __p__mbctype()
FUNC 33fcc 34 0 _getmbcp()
FUNC 3400d 1f 0 _setmbcp(int)
FUNC 34033 1f3 0 _setmbcp_nolock(int, __crt_multibyte_data*)
FUNC 342a2 81 0 memcpy_s(void* const, const unsigned int, void const* const, const unsigned int)
FUNC 34343 57 0 x_ismbbtype_l(__crt_locale_pointers*, unsigned int, int, int)
FUNC 343af 1b 0 _ismbbalnum(unsigned int)
FUNC 343d0 1c 0 _ismbbalnum_l(unsigned int, __crt_locale_pointers*)
FUNC 343f3 1b 0 _ismbbalpha(unsigned int)
FUNC 34414 1c 0 _ismbbalpha_l(unsigned int, __crt_locale_pointers*)
FUNC 34437 23 0 _ismbbblank(unsigned int)
FUNC 34462 24 0 _ismbbblank_l(unsigned int, __crt_locale_pointers*)
FUNC 3448f 1b 0 _ismbbgraph(unsigned int)
FUNC 344b0 1c 0 _ismbbgraph_l(unsigned int, __crt_locale_pointers*)
FUNC 344d3 18 0 _ismbbkalnum(unsigned int)
FUNC 344f1 19 0 _ismbbkalnum_l(unsigned int, __crt_locale_pointers*)
FUNC 34510 13 0 _ismbbkana(unsigned int)
FUNC 34527 4f 0 _ismbbkana_l(unsigned int, __crt_locale_pointers*)
FUNC 34589 18 0 _ismbbkprint(unsigned int)
FUNC 345a7 19 0 _ismbbkprint_l(unsigned int, __crt_locale_pointers*)
FUNC 345c6 18 0 _ismbbkpunct(unsigned int)
FUNC 345e4 19 0 _ismbbkpunct_l(unsigned int, __crt_locale_pointers*)
FUNC 34603 18 0 _ismbblead(unsigned int)
FUNC 34621 19 0 _ismbblead_l(unsigned int, __crt_locale_pointers*)
FUNC 34640 1b 0 _ismbbprint(unsigned int)
FUNC 34661 1c 0 _ismbbprint_l(unsigned int, __crt_locale_pointers*)
FUNC 34684 18 0 _ismbbpunct(unsigned int)
FUNC 346a2 19 0 _ismbbpunct_l(unsigned int, __crt_locale_pointers*)
FUNC 346c1 18 0 _ismbbtrail(unsigned int)
FUNC 346df 19 0 _ismbbtrail_l(unsigned int, __crt_locale_pointers*)
FUNC 346fe 19 0 __acrt_initialize_command_line()
FUNC 3471d 3 0 __acrt_uninitialize_command_line(bool)
FUNC 34720 6 0 __p___argc()
FUNC 34726 6 0 __p___argv()
FUNC 3472c 6 0 __p___wargv()
FUNC 34732 6 0 __p__acmdln()
FUNC 34738 6 0 __p__pgmptr()
FUNC 3473e 6 0 __p__wcmdln()
FUNC 34744 6 0 __p__wpgmptr()
FUNC 3474a 31 0 _get_pgmptr(char**)
FUNC 34787 31 0 _get_wpgmptr(wchar_t**)
FUNC 347c4 60 0 common_tcscpy_s<wchar_t>(wchar_t* const, const unsigned int, wchar_t const* const)
FUNC 3483c 64 0 wcscpy_s(wchar_t*, unsigned int, wchar_t const*)
FUNC 348b9 68 0 filter_mbtowcs_flags(const unsigned int, const unsigned long)
FUNC 3493b 7c 0 __acrt_MultiByteToWideChar(unsigned int, unsigned long, char const*, int, wchar_t*, int)
FUNC 349d6 65 0 filter_wcstomb_flags(const unsigned int, const unsigned long)
FUNC 34a54 ad 0 __acrt_WideCharToMultiByte(unsigned int, unsigned long, wchar_t const*, int, char*, int, char const*, int*)
FUNC 34b2c 10 0 __crt_unique_handle_t<(anonymous namespace)::environment_strings_traits>::__crt_unique_handle_t<(anonymous namespace)::environment_strings_traits>(wchar_t* const)
FUNC 34b40 17 0 __crt_unique_handle_t<(anonymous namespace)::environment_strings_traits>::~__crt_unique_handle_t<(anonymous namespace)::environment_strings_traits>()
FUNC 34b5c 7 0 __crt_unique_handle_t<(anonymous namespace)::environment_strings_traits>::operator bool() const
FUNC 34b63 17 0 __crt_unique_handle_t<(anonymous namespace)::environment_strings_traits>::close()
FUNC 34b7f 12 0 (anonymous namespace)::environment_strings_traits::close(wchar_t*)
FUNC 34b95 37 0 find_end_of_double_null_terminated_sequence(wchar_t const* const)
FUNC 34bd9 3 0 __crt_unique_handle_t<(anonymous namespace)::environment_strings_traits>::get() const
FUNC 34bdc 3 0 (anonymous namespace)::environment_strings_traits::get_invalid_value()
FUNC 34bdf 7 0 __crt_unique_handle_t<(anonymous namespace)::environment_strings_traits>::is_valid() const
FUNC 34be6 84 0 __dcrt_get_narrow_environment_from_os()
FUNC 34c8b 50 0 __dcrt_get_wide_environment_from_os()
FUNC 34cef 23e 0 common_set_variable_in_environment_nolock<char>(char* const, const int)
FUNC 34fbc 253 0 common_set_variable_in_environment_nolock<wchar_t>(wchar_t* const, const int)
FUNC 352a3 b0 0 copy_environment<char>(char** const)
FUNC 3537f be 0 copy_environment<wchar_t>(wchar_t** const)
FUNC 3546c 1a 0 ensure_current_environment_is_not_initial_environment_nolock<char>()
FUNC 3548c 1a 0 ensure_current_environment_is_not_initial_environment_nolock<wchar_t>()
FUNC 354ac 55 0 find_in_environment_nolock<char>(char const* const, const unsigned int)
FUNC 35516 58 0 find_in_environment_nolock<wchar_t>(wchar_t const* const, const unsigned int)
FUNC 35584 5 0 __crt_char_traits<char>::get_or_create_environment_nolock<>()
FUNC 35589 5 0 __crt_char_traits<wchar_t>::get_or_create_environment_nolock<>()
FUNC 3558e 18 0 __crt_char_traits<char>::set_environment_variable<char * const &,char * const>(char* const&, char* const&&)
FUNC 355ac 17 0 __crt_char_traits<wchar_t>::set_environment_variable<wchar_t * const &,wchar_t * const>(wchar_t* const&, wchar_t* const&&)
FUNC 355c8 1a 0 __crt_char_traits<char>::tcschr<char * const &,char>(char* const&, char&&)
FUNC 355e8 1e 0 __crt_char_traits<wchar_t>::tcschr<wchar_t * const &,char>(wchar_t* const&, char&&)
FUNC 3560d 1e 0 __crt_char_traits<char>::tcscpy_s<char * &,unsigned int const &,char * &>(char*&, unsigned int const&, char*&)
FUNC 35632 1e 0 __crt_char_traits<wchar_t>::tcscpy_s<wchar_t * &,unsigned int const &,wchar_t * &>(wchar_t*&, unsigned int const&, wchar_t*&)
FUNC 35657 1e 0 __crt_char_traits<char>::tcscpy_s<char * const &,unsigned int const &,char * const &>(char* const&, unsigned int const&, char* const&)
FUNC 3567c 1e 0 __crt_char_traits<wchar_t>::tcscpy_s<wchar_t * const &,unsigned int const &,wchar_t * const &>(wchar_t* const&, unsigned int const&, wchar_t* const&)
FUNC 356a1 18 0 __crt_char_traits<char>::tcslen<char * const &>(char* const&)
FUNC 356bf 1e 0 __crt_char_traits<wchar_t>::tcslen<wchar_t * const &>(wchar_t* const&)
FUNC 356e4 1e 0 __crt_char_traits<char>::tcsnicoll<char const * const &,char * &,unsigned int const &>(char const* const&, char*&, unsigned int const&)
FUNC 35709 1e 0 __crt_char_traits<wchar_t>::tcsnicoll<wchar_t const * const &,wchar_t * &,unsigned int const &>(wchar_t const* const&, wchar_t*&, unsigned int const&)
FUNC 3572e 6 0 get_environment(char)
FUNC 35734 6 0 get_environment(wchar_t)
FUNC 3573a 6 0 get_initial_environment(char)
FUNC 35740 6 0 get_initial_environment(wchar_t)
FUNC 35746 6 0 get_other_environment(wchar_t)
FUNC 3574c 6 0 get_other_environment(char)
FUNC 35752 b 0 strchr(char* const, const int)
FUNC 3575f b 0 wcschr(wchar_t*, wchar_t)
FUNC 3576c b 0 __dcrt_set_variable_in_narrow_environment_nolock(char*, int)
FUNC 35779 b 0 __dcrt_set_variable_in_wide_environment_nolock(wchar_t*, int)
FUNC 35786 b 0 _recalloc(void*, unsigned int, unsigned int)
FUNC 35793 6d 0 _recalloc_base(void*, unsigned int, unsigned int)
FUNC 3581b d 0 <lambda_29d3c280b90b41c2ae070ffca879996a>::<lambda_invoker_stdcall>(wchar_t*)
FUNC 3582b 6 0 __crt_fast_encoded_nullptr_t::operator<int __stdcall(wchar_t *,unsigned long,long)> int (__stdcall*)(wchar_t *,unsigned long,long)() const
FUNC 35831 7c 0 __crt_seh_guarded_call<int>::operator()<<lambda_6b4b7855443974f2b4b77000ea21c99c>,<lambda_8f7d3b162ab39427f4fa9995c67a7986> &,<lambda_cc9a5ba8a5d8428b9634eab82665e5dc> >(__acrt_lock_and_call::__l2::<lambda_6b4b7855443974f2b4b77000ea21c99c>&&, __acrt_EnumSystemLocalesEx::__l2::<lambda_8f7d3b162ab39427f4fa9995c67a7986>&, __acrt_lock_and_call::__l2::<lambda_cc9a5ba8a5d8428b9634eab82665e5dc>&&)
FUNC 358cc 26 0 __acrt_lock_and_call<<lambda_8f7d3b162ab39427f4fa9995c67a7986> >(const __acrt_lock_id, __acrt_EnumSystemLocalesEx::__l2::<lambda_8f7d3b162ab39427f4fa9995c67a7986>&&)
FUNC 358fb 16 0 __crt_fast_decode_pointer<int (__stdcall*)(wchar_t *,unsigned long,long)>(int (* const)(wchar_t*, unsigned long, long))
FUNC 35916 1f 0 __crt_fast_encode_pointer<int (__stdcall*)(wchar_t *,unsigned long,long)>(int (* const)(wchar_t*, unsigned long, long))
FUNC 3593c 12 0 <lambda_6b4b7855443974f2b4b77000ea21c99c>::<lambda_6b4b7855443974f2b4b77000ea21c99c>(__acrt_lock_id const&)
FUNC 35952 10 0 <lambda_8f7d3b162ab39427f4fa9995c67a7986>::<lambda_8f7d3b162ab39427f4fa9995c67a7986>(int (* const&)(wchar_t*, unsigned long, long))
FUNC 35966 12 0 <lambda_cc9a5ba8a5d8428b9634eab82665e5dc>::<lambda_cc9a5ba8a5d8428b9634eab82665e5dc>(__acrt_lock_id const&)
FUNC 3597c 6 0 <lambda_29d3c280b90b41c2ae070ffca879996a>::operator int (__stdcall*)(wchar_t *)() const
FUNC 35982 2f 0 <lambda_29d3c280b90b41c2ae070ffca879996a>::operator()(wchar_t*) const
FUNC 359bc 9 0 <lambda_6b4b7855443974f2b4b77000ea21c99c>::operator()() const
FUNC 359c7 29 0 <lambda_8f7d3b162ab39427f4fa9995c67a7986>::operator()() const
FUNC 359fa 9 0 <lambda_cc9a5ba8a5d8428b9634eab82665e5dc>::operator()() const
FUNC 35a05 2e 0 enum_system_locales_ex_nolock(int (* const)(wchar_t*, unsigned long, long))
FUNC 35a3e 4 0 invalid_function_sentinel()
FUNC 35a42 1a 0 try_get_AppPolicyGetProcessTerminationMethod()
FUNC 35a62 1a 0 try_get_AppPolicyGetShowDeveloperDiagnostic()
FUNC 35a82 1a 0 try_get_AppPolicyGetThreadInitializationType()
FUNC 35aa2 1a 0 try_get_AppPolicyGetWindowingModel()
FUNC 35ac2 1a 0 try_get_AreFileApisANSI()
FUNC 35ae2 1a 0 try_get_CompareStringEx()
FUNC 35b02 1a 0 try_get_EnumSystemLocalesEx()
FUNC 35b22 1a 0 try_get_FlsAlloc()
FUNC 35b42 1a 0 try_get_FlsFree()
FUNC 35b62 1a 0 try_get_FlsGetValue()
FUNC 35b82 1a 0 try_get_FlsSetValue()
FUNC 35ba2 1a 0 try_get_GetActiveWindow()
FUNC 35bc2 1a 0 try_get_GetDateFormatEx()
FUNC 35be2 1a 0 try_get_GetEnabledXStateFeatures()
FUNC 35c02 1a 0 try_get_GetLastActivePopup()
FUNC 35c22 1a 0 try_get_GetLocaleInfoEx()
FUNC 35c42 1a 0 try_get_GetProcessWindowStation()
FUNC 35c62 1a 0 try_get_GetSystemTimePreciseAsFileTime()
FUNC 35c82 1a 0 try_get_GetTimeFormatEx()
FUNC 35ca2 1a 0 try_get_GetUserDefaultLocaleName()
FUNC 35cc2 1a 0 try_get_GetUserObjectInformationW()
FUNC 35ce2 1a 0 try_get_GetXStateFeaturesMask()
FUNC 35d02 1a 0 try_get_InitializeCriticalSectionEx()
FUNC 35d22 1a 0 try_get_IsValidLocaleName()
FUNC 35d42 1a 0 try_get_LCIDToLocaleName()
FUNC 35d62 1a 0 try_get_LCMapStringEx()
FUNC 35d82 1a 0 try_get_LocaleNameToLCID()
FUNC 35da2 1a 0 try_get_LocateXStateFeature()
FUNC 35dc2 1a 0 try_get_MessageBoxA()
FUNC 35de2 1a 0 try_get_MessageBoxW()
FUNC 35e02 1a 0 try_get_RoInitialize()
FUNC 35e22 1a 0 try_get_RoUninitialize()
FUNC 35e42 1a 0 try_get_SetThreadStackGuarantee()
FUNC 35e62 1a 0 try_get_SystemFunction036()
FUNC 35e82 c7 0 try_get_first_available_module(`anonymous-namespace'::module_id const* const, `anonymous-namespace'::module_id const* const)
FUNC 35f7a 83 0 try_get_function(const `anonymous-namespace'::function_id, char const* const, `anonymous-namespace'::module_id const* const, `anonymous-namespace'::module_id const* const)
FUNC 3601d 52 0 try_get_module(const `anonymous-namespace'::module_id)
FUNC 36083 24 0 try_get_proc_address_from_first_available_module(char const* const, `anonymous-namespace'::module_id const* const, `anonymous-namespace'::module_id const* const)
FUNC 360b0 63 0 try_load_library_from_system_directory(wchar_t const* const)
FUNC 3612b 4 0 GetCurrentThreadEffectiveToken()
FUNC 3612f 40 4 __acrt_AppPolicyGetProcessTerminationMethodInternal(AppPolicyProcessTerminationMethod*)
FUNC 3617f 40 4 __acrt_AppPolicyGetShowDeveloperDiagnosticInternal(AppPolicyShowDeveloperDiagnostic*)
FUNC 361cf 40 4 __acrt_AppPolicyGetThreadInitializationTypeInternal(AppPolicyThreadInitializationType*)
FUNC 3621f 40 4 __acrt_AppPolicyGetWindowingModelInternal(AppPolicyWindowingModel*)
FUNC 3626f 1f 0 __acrt_AreFileApisANSI()
FUNC 36295 5d 24 __acrt_CompareStringEx(wchar_t const*, unsigned long, wchar_t const*, int, wchar_t const*, int, _nlsversioninfo*, void*, long)
FUNC 36309 54 10 __acrt_EnumSystemLocalesEx(int (*)(wchar_t*, unsigned long, long), unsigned long, long, void*)
FUNC 36372 3f 4 __acrt_FlsAlloc(void (*)(void*))
FUNC 363c0 3f 4 __acrt_FlsFree(unsigned long)
FUNC 3640e 3f 4 __acrt_FlsGetValue(unsigned long)
FUNC 3645c 42 8 __acrt_FlsSetValue(unsigned long, void*)
FUNC 364ae 57 1c __acrt_GetDateFormatEx(wchar_t const*, unsigned long, _SYSTEMTIME const*, wchar_t const*, wchar_t*, int, wchar_t const*)
FUNC 3651a 34 0 __acrt_GetEnabledXStateFeatures()
FUNC 3655b 3f 10 __acrt_GetLocaleInfoEx(wchar_t const*, unsigned long, wchar_t*, int)
FUNC 365a9 3f 4 __acrt_GetSystemTimePreciseAsFileTime(_FILETIME*)
FUNC 365f7 45 18 __acrt_GetTimeFormatEx(wchar_t const*, unsigned long, _SYSTEMTIME const*, wchar_t const*, wchar_t*, int)
FUNC 3664d 3c 8 __acrt_GetUserDefaultLocaleName(wchar_t*, int)
FUNC 36698 40 8 __acrt_GetXStateFeaturesMask(_CONTEXT*, unsigned long long*)
FUNC 366e8 4b c __acrt_InitializeCriticalSectionEx(_RTL_CRITICAL_SECTION*, unsigned long, unsigned long)
FUNC 36745 38 4 __acrt_IsValidLocaleName(wchar_t const*)
FUNC 3678b 3f 10 __acrt_LCIDToLocaleName(unsigned long, wchar_t*, int, unsigned long)
FUNC 367d9 5d 24 __acrt_LCMapStringEx(wchar_t const*, unsigned long, wchar_t const*, int, wchar_t*, int, _nlsversioninfo*, void*, long)
FUNC 3684d 31 8 __acrt_LocaleNameToLCID(wchar_t const*, unsigned long)
FUNC 3688a 2f c __acrt_LocateXStateFeature(_CONTEXT*, unsigned long, unsigned long*)
FUNC 368c4 32 10 __acrt_MessageBoxA(HWND__*, char const*, char const*, unsigned int)
FUNC 36902 32 10 __acrt_MessageBoxW(HWND__*, wchar_t const*, wchar_t const*, unsigned int)
FUNC 36940 3b 4 __acrt_RoInitialize(RO_INIT_TYPE)
FUNC 36989 2e 0 __acrt_RoUninitialize()
FUNC 369c2 40 8 __acrt_RtlGenRandom(void*, unsigned long)
FUNC 36a12 3b 4 __acrt_SetThreadStackGuarantee(unsigned long*)
FUNC 36a5b 27 0 __acrt_can_show_message_box()
FUNC 36a8b b 0 __acrt_can_use_vista_locale_apis()
FUNC 36a98 b 0 __acrt_can_use_xstate_apis()
FUNC 36aa5 37 0 __acrt_eagerly_load_locale_apis()
FUNC 36ae9 68 0 __acrt_get_parent_window()
FUNC 36b6b 2b 0 __acrt_initialize_winapi_thunks()
FUNC 36ba0 9f 0 __acrt_is_interactive()
FUNC 36c66 36 0 __acrt_uninitialize_winapi_thunks(bool)
FUNC 36ca9 6 0 __acrt_getheap()
FUNC 36caf 11 0 __acrt_initialize_heap()
FUNC 36cc4 a 0 __acrt_uninitialize_heap(bool)
FUNC 36cd0 6 0 _get_heap_handle()
FUNC 36cd6 22 0 get_std_handle_id(const int)
FUNC 36d00 b6 0 initialize_inherited_file_handles_nolock()
FUNC 36de3 b4 0 initialize_stdio_handles_nolock()
FUNC 36ec4 60 0 __acrt_initialize_lowio()
FUNC 36f3c 2c 0 __acrt_uninitialize_lowio(bool)
FUNC 36f73 68 0 __acrt_execute_initializers(__acrt_initializer const*, __acrt_initializer const*)
FUNC 36ff5 31 0 __acrt_execute_uninitializers(__acrt_initializer const*, __acrt_initializer const*)
FUNC 37032 6 0 __crt_fast_encoded_nullptr_t::operator<int __cdecl(unsigned int)> int (__cdecl*)(unsigned int)() const
FUNC 37038 16 0 __crt_fast_decode_pointer<int (__cdecl*)(unsigned int)>(int (* const)(unsigned int))
FUNC 37053 1f 0 __crt_fast_encode_pointer<int (__cdecl*)(unsigned int)>(int (* const)(unsigned int))
FUNC 37079 d 0 _set_new_handler(const int)
FUNC 37089 26 0 __crt_state_management::dual_state_global<int (__cdecl*)(unsigned int)>::initialize(int (* const)(unsigned int))
FUNC 370b8 3 0 __crt_state_management::dual_state_global<int (__cdecl*)(unsigned int)>::value()
FUNC 370bb f 0 __acrt_initialize_new_handler(void*)
FUNC 370cd 2d 0 _callnewh(unsigned int)
FUNC 37105 5c 0 _query_new_handler()
FUNC 37178 6a 0 _set_new_handler(int (*)(unsigned int))
FUNC 371fc 6 0 __crt_fast_encoded_nullptr_t::operator<void __cdecl(int)> void (__cdecl*)(int)() const
FUNC 37202 64 0 __crt_seh_guarded_call<void (__cdecl*)(int)>::operator()<<lambda_cbab9ec6f41b0180b23cc171c22676b0>,<lambda_44731a7d0e6d81c3e6aa82d741081786> &,<lambda_4b292cb8dd18144e164572427af410ab> >(__acrt_lock_and_call::__l2::<lambda_cbab9ec6f41b0180b23cc171c22676b0>&&, __acrt_get_sigabrt_handler::__l2::<lambda_44731a7d0e6d81c3e6aa82d741081786>&, __acrt_lock_and_call::__l2::<lambda_4b292cb8dd18144e164572427af410ab>&&)
FUNC 3727f 26 0 __acrt_lock_and_call<<lambda_44731a7d0e6d81c3e6aa82d741081786> >(const __acrt_lock_id, __acrt_get_sigabrt_handler::__l2::<lambda_44731a7d0e6d81c3e6aa82d741081786>&&)
FUNC 372ae 16 0 __crt_fast_decode_pointer<void (__cdecl*)(int)>(void (* const)(int))
FUNC 372c9 1f 0 __crt_fast_encode_pointer<void (__cdecl*)(int)>(void (* const)(int))
FUNC 372ef 12 0 <lambda_4b292cb8dd18144e164572427af410ab>::<lambda_4b292cb8dd18144e164572427af410ab>(__acrt_lock_id const&)
FUNC 37305 12 0 <lambda_cbab9ec6f41b0180b23cc171c22676b0>::<lambda_cbab9ec6f41b0180b23cc171c22676b0>(__acrt_lock_id const&)
FUNC 3731b 13 0 <lambda_44731a7d0e6d81c3e6aa82d741081786>::operator()() const
FUNC 37332 9 0 <lambda_4b292cb8dd18144e164572427af410ab>::operator()() const
FUNC 3733d 9 0 <lambda_cbab9ec6f41b0180b23cc171c22676b0>::operator()() const
FUNC 37348 aa 0 ctrlevent_capture(const unsigned long)
FUNC 3741c 42 0 get_global_action_nolock(const int)
FUNC 3746e 26 0 __crt_state_management::dual_state_global<void (__cdecl*)(int)>::initialize(void (* const)(int))
FUNC 3749d 1a 0 is_console_signal(const int)
FUNC 374bd 1a 0 is_unsupported_signal(const int, void (* const)(int))
FUNC 374dd 28 0 siglookup(const int, __crt_signal_action_t* const)
FUNC 3750f 31 0 signal_failed(const int)
FUNC 3754c 3 0 __crt_state_management::dual_state_global<void (__cdecl*)(int)>::value()
FUNC 3754f 27 0 __acrt_get_sigabrt_handler()
FUNC 3757f 1e 0 __acrt_initialize_signal_handlers(void*)
FUNC 375a4 9 0 __fpecode()
FUNC 375af 9 0 __pxcptinfoptrs()
FUNC 375ba 1fb 0 raise(int)
FUNC 37833 1bf 0 signal(int, void (*)(int))
FUNC 37a61 16 0 __crt_fast_decode_pointer<int (__cdecl*)(_exception *)>(int (* const)(_exception*))
FUNC 37a7c 1f 0 __crt_fast_encode_pointer<int (__cdecl*)(_exception *)>(int (* const)(_exception*))
FUNC 37aa2 26 0 __crt_state_management::dual_state_global<int (__cdecl*)(_exception *)>::initialize(int (* const)(_exception*))
FUNC 37ad1 3 0 __crt_state_management::dual_state_global<int (__cdecl*)(_exception *)>::value()
FUNC 37ad4 18 0 __acrt_has_user_matherr()
FUNC 37af2 f 0 __acrt_initialize_user_matherr(void*)
FUNC 37b04 32 0 __acrt_invoke_user_matherr(_exception*)
FUNC 37b42 15 0 __setusermatherr(int (*)(_exception*))
FUNC 37b5c 8c 0 __crt_seh_guarded_call<void>::operator()<<lambda_2866be3712abc81a800a822484c830d8>,<lambda_39ca0ed439415581b5b15c265174cece> &,<lambda_2b24c74d71094a6cd0cb82e44167d71b> >(__acrt_lock_stream_and_call::__l2::<lambda_2866be3712abc81a800a822484c830d8>&&, common_flush_all::__l2::<lambda_ab61a845afdef5b7c387490eaf3616ee>::()::__l4::<lambda_39ca0ed439415581b5b15c265174cece>&, __acrt_lock_stream_and_call::__l2::<lambda_2b24c74d71094a6cd0cb82e44167d71b>&&)
FUNC 37c0b ac 0 __crt_seh_guarded_call<void>::operator()<<lambda_2cc53f568c5a2bb6f192f930a45d44ea>,<lambda_ab61a845afdef5b7c387490eaf3616ee> &,<lambda_c2ffc0b7726aa6be21d5f0026187e748> >(__acrt_lock_and_call::__l2::<lambda_2cc53f568c5a2bb6f192f930a45d44ea>&&, common_flush_all::__l2::<lambda_ab61a845afdef5b7c387490eaf3616ee>&, __acrt_lock_and_call::__l2::<lambda_c2ffc0b7726aa6be21d5f0026187e748>&&)
FUNC 37ce2 60 0 __crt_seh_guarded_call<int>::operator()<<lambda_6d20deecaf4856105ebacbad442d1079>,<lambda_9a32fed5bf61b6b509b2d3f6003082a1> &,<lambda_63ea2239ed67c638ddbae41947fdf875> >(__acrt_lock_stream_and_call::__l2::<lambda_6d20deecaf4856105ebacbad442d1079>&&, fflush::__l2::<lambda_9a32fed5bf61b6b509b2d3f6003082a1>&, __acrt_lock_stream_and_call::__l2::<lambda_63ea2239ed67c638ddbae41947fdf875>&&)
FUNC 37d5a 26 0 __acrt_lock_and_call<<lambda_ab61a845afdef5b7c387490eaf3616ee> >(const __acrt_lock_id, common_flush_all::__l2::<lambda_ab61a845afdef5b7c387490eaf3616ee>&&)
FUNC 37d89 26 0 __acrt_lock_stream_and_call<<lambda_39ca0ed439415581b5b15c265174cece> >(_iobuf* const, common_flush_all::__l2::<lambda_ab61a845afdef5b7c387490eaf3616ee>::()::__l4::<lambda_39ca0ed439415581b5b15c265174cece>&&)
FUNC 37db8 26 0 __acrt_lock_stream_and_call<<lambda_9a32fed5bf61b6b509b2d3f6003082a1> >(_iobuf* const, fflush::__l2::<lambda_9a32fed5bf61b6b509b2d3f6003082a1>&&)
FUNC 37de7 12 0 <lambda_2866be3712abc81a800a822484c830d8>::<lambda_2866be3712abc81a800a822484c830d8>(_iobuf* const&)
FUNC 37dfd 12 0 <lambda_2b24c74d71094a6cd0cb82e44167d71b>::<lambda_2b24c74d71094a6cd0cb82e44167d71b>(_iobuf* const&)
FUNC 37e13 12 0 <lambda_2cc53f568c5a2bb6f192f930a45d44ea>::<lambda_2cc53f568c5a2bb6f192f930a45d44ea>(__acrt_lock_id const&)
FUNC 37e29 22 0 <lambda_39ca0ed439415581b5b15c265174cece>::<lambda_39ca0ed439415581b5b15c265174cece>(__crt_stdio_stream const&, int&, bool const&, int&)
FUNC 37e53 12 0 <lambda_63ea2239ed67c638ddbae41947fdf875>::<lambda_63ea2239ed67c638ddbae41947fdf875>(_iobuf* const&)
FUNC 37e69 12 0 <lambda_6d20deecaf4856105ebacbad442d1079>::<lambda_6d20deecaf4856105ebacbad442d1079>(_iobuf* const&)
FUNC 37e7f 10 0 <lambda_9a32fed5bf61b6b509b2d3f6003082a1>::<lambda_9a32fed5bf61b6b509b2d3f6003082a1>(__crt_stdio_stream const&)
FUNC 37e93 1c 0 <lambda_ab61a845afdef5b7c387490eaf3616ee>::<lambda_ab61a845afdef5b7c387490eaf3616ee>(int&, bool const&, int&)
FUNC 37eb6 12 0 <lambda_c2ffc0b7726aa6be21d5f0026187e748>::<lambda_c2ffc0b7726aa6be21d5f0026187e748>(__acrt_lock_id const&)
FUNC 37ecc 10 0 __crt_stdio_stream::__crt_stdio_stream(__crt_stdio_stream_data* const)
FUNC 37ee0 9 0 <lambda_2866be3712abc81a800a822484c830d8>::operator()() const
FUNC 37eeb 9 0 <lambda_2b24c74d71094a6cd0cb82e44167d71b>::operator()() const
FUNC 37ef6 9 0 <lambda_2cc53f568c5a2bb6f192f930a45d44ea>::operator()() const
FUNC 37f01 4b 0 <lambda_39ca0ed439415581b5b15c265174cece>::operator()() const
FUNC 37f5e 9 0 <lambda_63ea2239ed67c638ddbae41947fdf875>::operator()() const
FUNC 37f69 9 0 <lambda_6d20deecaf4856105ebacbad442d1079>::operator()() const
FUNC 37f74 b 0 <lambda_9a32fed5bf61b6b509b2d3f6003082a1>::operator()() const
FUNC 37f81 88 0 <lambda_ab61a845afdef5b7c387490eaf3616ee>::operator()() const
FUNC 3802b 9 0 <lambda_c2ffc0b7726aa6be21d5f0026187e748>::operator()() const
FUNC 38036 16 0 __acrt_stdio_reset_buffer(const __crt_stdio_stream)
FUNC 38051 4d 0 common_flush_all(const bool)
FUNC 380b1 33 0 common_flush_all_should_try_to_flush_stream(const __crt_stdio_stream, int* const)
FUNC 380f0 18 0 __crt_stdio_stream::has_all_of(const long) const
FUNC 3810e f 0 is_stream_allocated(const long)
FUNC 38120 1c 0 is_stream_flushable(const long)
FUNC 38143 25 0 is_stream_flushable_or_commitable(const long)
FUNC 38171 24 0 __crt_stdio_stream::set_flags(const long) const
FUNC 3819e 29 0 __crt_stdio_stream::unset_flags(const long) const
FUNC 381d1 65 0 __acrt_stdio_flush_nolock(_iobuf*)
FUNC 3824f 48 0 _fflush_nolock(_iobuf*)
FUNC 382a9 9 0 _flushall()
FUNC 382b4 55 0 fflush(_iobuf*)
FUNC 3831e 25 0 __p___mb_cur_max()
FUNC 3834c 12 0 __crt_internal_free_policy::operator()<__crt_stdio_stream_data *>(__crt_stdio_stream_data* const* const) const
FUNC 38362 10 0 __crt_unique_heap_ptr<__crt_stdio_stream_data *,__crt_internal_free_policy>::__crt_unique_heap_ptr<__crt_stdio_stream_data *,__crt_internal_free_policy>(__crt_stdio_stream_data** const)
FUNC 38376 12 0 __crt_unique_heap_ptr<__crt_stdio_stream_data *,__crt_internal_free_policy>::~__crt_unique_heap_ptr<__crt_stdio_stream_data *,__crt_internal_free_policy>()
FUNC 3838c 6 0 __crt_unique_heap_ptr<__crt_stdio_stream_data *,__crt_internal_free_policy>::detach()
FUNC 38392 12 0 __crt_unique_heap_ptr<__crt_stdio_stream_data *,__crt_internal_free_policy>::release()
FUNC 383a8 c8 0 __acrt_initialize_stdio()
FUNC 384a2 10 0 __acrt_iob_func(unsigned int)
FUNC 384b6 4c 0 __acrt_uninitialize_stdio()
FUNC 38515 46 0 _get_stream_buffer_pointers(_iobuf*, char***, char***, int**)
FUNC 3856c 14 0 _lock_file(_iobuf*)
FUNC 38585 14 0 _unlock_file(_iobuf*)
FUNC 3859e f 0 __crt_stdio_stream::has_any_buffer() const
FUNC 385b0 15 0 __crt_stdio_stream::has_any_of(const long) const
FUNC 385ca c 0 __crt_stdio_stream::has_temporary_buffer() const
FUNC 385d9 b3 0 __acrt_stdio_begin_temporary_buffering_nolock(_iobuf*)
FUNC 386b8 3a 0 __acrt_stdio_end_temporary_buffering_nolock(bool, _iobuf*)
FUNC 38700 4e 0 _malloc_base(unsigned int)
FUNC 38761 1b 0 __crt_strtox::make_c_string_character_source<char,char * *>(char const* const, char** const)
FUNC 38782 1b 0 __crt_strtox::make_c_string_character_source<wchar_t,wchar_t * *>(wchar_t const* const, wchar_t** const)
FUNC 387a3 2b 0 __crt_strtox::parse_integer_from_string<long,char,char * *>(char const* const, char** const, const int, __crt_locale_pointers* const)
FUNC 387d8 2b 0 __crt_strtox::parse_integer_from_string<long,wchar_t,wchar_t * *>(wchar_t const* const, wchar_t** const, const int, __crt_locale_pointers* const)
FUNC 3880d 2b 0 __crt_strtox::parse_integer_from_string<unsigned long,char,char * *>(char const* const, char** const, const int, __crt_locale_pointers* const)
FUNC 38842 2b 0 __crt_strtox::parse_integer_from_string<unsigned long,wchar_t,wchar_t * *>(wchar_t const* const, wchar_t** const, const int, __crt_locale_pointers* const)
FUNC 38877 2b 0 __crt_strtox::parse_integer_from_string<__int64,char,char * *>(char const* const, char** const, const int, __crt_locale_pointers* const)
FUNC 388ac 2b 0 __crt_strtox::parse_integer_from_string<__int64,wchar_t,wchar_t * *>(wchar_t const* const, wchar_t** const, const int, __crt_locale_pointers* const)
FUNC 388e1 2b 0 __crt_strtox::parse_integer_from_string<unsigned __int64,char,char * *>(char const* const, char** const, const int, __crt_locale_pointers* const)
FUNC 38916 2b 0 __crt_strtox::parse_integer_from_string<unsigned __int64,wchar_t,wchar_t * *>(wchar_t const* const, wchar_t** const, const int, __crt_locale_pointers* const)
FUNC 3894b 2a 0 _strtoi64(char const*, char**, int)
FUNC 3897f 2b 0 _strtoi64_l(char const*, char**, int, __crt_locale_pointers*)
FUNC 389b4 2b 0 _strtoimax_l(char const*, char**, int, __crt_locale_pointers*)
FUNC 389e9 2b 0 _strtol_l(char const*, char**, int, __crt_locale_pointers*)
FUNC 38a1e 2b 0 _strtoll_l(char const*, char**, int, __crt_locale_pointers*)
FUNC 38a53 2a 0 _strtoui64(char const*, char**, int)
FUNC 38a87 2b 0 _strtoui64_l(char const*, char**, int, __crt_locale_pointers*)
FUNC 38abc 2b 0 _strtoul_l(char const*, char**, int, __crt_locale_pointers*)
FUNC 38af1 2b 0 _strtoull_l(char const*, char**, int, __crt_locale_pointers*)
FUNC 38b26 2b 0 _strtoumax_l(char const*, char**, int, __crt_locale_pointers*)
FUNC 38b5b 2a 0 _wcstoi64(wchar_t const*, wchar_t**, int)
FUNC 38b8f 2b 0 _wcstoi64_l(wchar_t const*, wchar_t**, int, __crt_locale_pointers*)
FUNC 38bc4 2b 0 _wcstoimax_l(wchar_t const*, wchar_t**, int, __crt_locale_pointers*)
FUNC 38bf9 2b 0 _wcstol_l(wchar_t const*, wchar_t**, int, __crt_locale_pointers*)
FUNC 38c2e 2b 0 _wcstoll_l(wchar_t const*, wchar_t**, int, __crt_locale_pointers*)
FUNC 38c63 2a 0 _wcstoui64(wchar_t const*, wchar_t**, int)
FUNC 38c97 2b 0 _wcstoui64_l(wchar_t const*, wchar_t**, int, __crt_locale_pointers*)
FUNC 38ccc 2b 0 _wcstoul_l(wchar_t const*, wchar_t**, int, __crt_locale_pointers*)
FUNC 38d01 2b 0 _wcstoull_l(wchar_t const*, wchar_t**, int, __crt_locale_pointers*)
FUNC 38d36 2b 0 _wcstoumax_l(wchar_t const*, wchar_t**, int, __crt_locale_pointers*)
FUNC 38d6b 2a 0 strtoimax(char const*, char**, int)
FUNC 38d9f 2a 0 strtol(char const*, char**, int)
FUNC 38dd3 2a 0 strtoll(char const*, char**, int)
FUNC 38e07 2a 0 strtoul(char const*, char**, int)
FUNC 38e3b 2a 0 strtoull(char const*, char**, int)
FUNC 38e6f 2a 0 strtoumax(char const*, char**, int)
FUNC 38ea3 2a 0 wcstoimax(wchar_t const*, wchar_t**, int)
FUNC 38ed7 2a 0 wcstol(wchar_t const*, wchar_t**, int)
FUNC 38f0b 2a 0 wcstoll(wchar_t const*, wchar_t**, int)
FUNC 38f3f 2a 0 wcstoul(wchar_t const*, wchar_t**, int)
FUNC 38f73 2a 0 wcstoull(wchar_t const*, wchar_t**, int)
FUNC 38fa7 2a 0 wcstoumax(wchar_t const*, wchar_t**, int)
FUNC 38fdb 142 0 _mbtowc_l(wchar_t*, char const*, unsigned int, __crt_locale_pointers*)
FUNC 3916d 1a 0 mbtowc(wchar_t*, char const*, unsigned int)
FUNC 3918d 51 0 _wctomb_l(char*, wchar_t, __crt_locale_pointers*)
FUNC 391f2 15b 0 _wctomb_s_l(int*, char*, unsigned int, wchar_t, __crt_locale_pointers*)
FUNC 393a3 32 0 wctomb(char*, wchar_t)
FUNC 393e1 1d 0 wctomb_s(int*, char*, unsigned int, wchar_t)
FUNC 39405 136 0 common_strnlen<1,unsigned short>(unsigned short const* const, const unsigned int)
FUNC 39588 11e 0 common_strnlen<0,unsigned char>(unsigned char const* const, const unsigned int)
FUNC 396ed 1a9 0 common_strnlen<0,unsigned short>(unsigned short const* const, const unsigned int)
FUNC 39900 1a 0 common_strnlen_c<1,unsigned short>(unsigned short const* const, const unsigned int)
FUNC 39920 21 0 common_strnlen_c<0,unsigned char>(unsigned char const* const, const unsigned int)
FUNC 39949 27 0 common_strnlen_c<0,unsigned short>(unsigned short const* const, const unsigned int)
FUNC 39979 8c 0 common_strnlen_simd<1,1,unsigned short>(unsigned short const* const, const unsigned int)
FUNC 39a28 8b 0 common_strnlen_simd<1,0,unsigned short>(unsigned short const* const, const unsigned int)
FUNC 39ad5 7a 0 common_strnlen_simd<0,1,unsigned char>(unsigned char const* const, const unsigned int)
FUNC 39b6d c0 0 common_strnlen_simd<0,1,unsigned short>(unsigned short const* const, const unsigned int)
FUNC 39c5d 79 0 common_strnlen_simd<0,0,unsigned char>(unsigned char const* const, const unsigned int)
FUNC 39cf4 bf 0 common_strnlen_simd<0,0,unsigned short>(unsigned short const* const, const unsigned int)
FUNC 39de2 3 0 last_reached<1>(void const* const, void const* const)
FUNC 39de5 10 0 last_reached<0>(void const* const, void const* const)
FUNC 39df9 4 0 __crt_simd_cleanup_guard<1>::~__crt_simd_cleanup_guard<1>()
FUNC 39dfd 3 0 __crt_simd_cleanup_guard<0>::~__crt_simd_cleanup_guard<0>()
FUNC 39e00 5 0 __crt_simd_traits<1,unsigned char>::compare_equals(const __m256i, const __m256i)
FUNC 39e05 5 0 __crt_simd_traits<1,unsigned short>::compare_equals(const __m256i, const __m256i)
FUNC 39e0a 5 0 __crt_simd_traits<0,unsigned char>::compare_equals(const __m128i, const __m128i)
FUNC 39e0f 5 0 __crt_simd_traits<0,unsigned short>::compare_equals(const __m128i, const __m128i)
FUNC 39e14 5 0 __crt_simd_pack_traits<1>::compute_byte_mask(const __m256i)
FUNC 39e19 5 0 __crt_simd_pack_traits<0>::compute_byte_mask(const __m128i)
FUNC 39e1e 5 0 __crt_simd_pack_traits<1>::get_zero_pack()
FUNC 39e23 4 0 __crt_simd_pack_traits<0>::get_zero_pack()
FUNC 39e27 122 0 strnlen(char const*, unsigned int)
FUNC 39f91 128 0 wcslen(wchar_t const*)
FUNC 3a103 1b0 0 wcsnlen(wchar_t const*, unsigned int)
FUNC 3a31f 2d 0 __acrt_update_locale_info(__acrt_ptd* const, __crt_locale_data** const)
FUNC 3a357 2d 0 __acrt_update_multibyte_info(__acrt_ptd* const, __crt_multibyte_data** const)
FUNC 3a38f 62 0 __acrt_fp_classify(double const&)
FUNC 3a409 19 0 __acrt_fp_is_negative(double const&)
FUNC 3a428 319 0 fp_format_a(double const* const, char*, const unsigned int, char* const, const unsigned int, int, const bool, const unsigned int, __crt_locale_pointers* const)
FUNC 3a807 a2 0 fp_format_e(double const* const, char* const, const unsigned int, char* const, const unsigned int, const int, const bool, const unsigned int, __crt_locale_pointers* const)
FUNC 3a8d1 148 0 fp_format_e_internal(char* const, const unsigned int, const int, const bool, const unsigned int, _strflt* const, const bool, __crt_locale_pointers* const)
FUNC 3aa6b 8b 0 fp_format_f(double const* const, char* const, const unsigned int, char* const, const unsigned int, const int, __crt_locale_pointers* const)
FUNC 3ab18 d1 0 fp_format_f_internal(char* const, const unsigned int, const int, _strflt* const, const bool, __crt_locale_pointers* const)
FUNC 3ac1d c1 0 fp_format_g(double const* const, char* const, const unsigned int, char* const, const unsigned int, const int, const bool, const unsigned int, __crt_locale_pointers* const)
FUNC 3ad0e 95 0 fp_format_nan_or_infinity(const __acrt_fp_class, const bool, char*, unsigned int, const bool)
FUNC 3adc8 34 0 shift_bytes(char* const, const unsigned int, char* const, const int)
FUNC 3ae09 b 0 strrchr(char* const, const int)
FUNC 3ae16 13b 0 __acrt_fp_format(double const*, char*, unsigned int, char*, unsigned int, int, int, unsigned long long, __crt_locale_pointers*)
FUNC 3af9f 30 0 fputwc_binary_nolock(const wchar_t, const __crt_stdio_stream)
FUNC 3afdb 129 0 _fputwc_nolock(wchar_t, _iobuf*)
FUNC 3b14e 1a 0 _fputwchar(wchar_t)
FUNC 3b16e b 0 _putwc_nolock(wchar_t, _iobuf*)
FUNC 3b17b 7e 0 fputwc(wchar_t, _iobuf*)
FUNC 3b218 b 0 putwc(wchar_t, _iobuf*)
FUNC 3b225 b 0 putwchar(wchar_t)
FUNC 3b232 7 0 __crt_stdio_stream::lowio_handle() const
FUNC 3b239 27 0 _fileno(_iobuf*)
FUNC 3b269 29 0 _fputc_nolock(int, _iobuf*)
FUNC 3b29c 1a 0 _fputchar(int)
FUNC 3b2bc b 0 _putc_nolock(int, _iobuf*)
FUNC 3b2c9 10a 0 fputc(int, _iobuf*)
FUNC 3b415 b 0 putc(int, _iobuf*)
FUNC 3b422 b 0 putchar(int)
FUNC 3b42f 15 0 _get_printf_count_output()
FUNC 3b449 2a 0 _set_printf_count_output(int)
FUNC 3b47d 3 0 no_op_initialize(__crt_locale_data*)
FUNC 3b480 12 0 __crt_internal_free_policy::operator()<__crt_locale_data>(__crt_locale_data const* const) const
FUNC 3b496 12 0 __crt_internal_free_policy::operator()<__crt_locale_pointers>(__crt_locale_pointers const* const) const
FUNC 3b4ac 45 0 __crt_seh_guarded_call<void>::operator()<<lambda_135d2772fca65dc1248eeaa1b56e886a>,<lambda_2a444430fde8c29194d880d93eed5e8f> &,<lambda_8dff2cf36a5417162780cd64fa2883ef> &>(__crt_call_and_cleanup::__l2::<lambda_135d2772fca65dc1248eeaa1b56e886a>&&, _wsetlocale::__l2::<lambda_2a444430fde8c29194d880d93eed5e8f>&, _wsetlocale::__l2::<lambda_8dff2cf36a5417162780cd64fa2883ef>&)
FUNC 3b502 4d 0 __crt_seh_guarded_call<void>::operator()<<lambda_4fdada1b837b2abbf20876fac97688ad>,<lambda_b57350f2640456a0859d250846f69caf> &,<lambda_eed5e4f92b5b7d55fa22c48c484aaa54> >(__acrt_lock_and_call::__l2::<lambda_4fdada1b837b2abbf20876fac97688ad>&&, _wsetlocale::__l2::<lambda_2a444430fde8c29194d880d93eed5e8f>::()::__l5::<lambda_b57350f2640456a0859d250846f69caf>&, __acrt_lock_and_call::__l2::<lambda_eed5e4f92b5b7d55fa22c48c484aaa54>&&)
FUNC 3b562 52 0 __crt_seh_guarded_call<void>::operator()<<lambda_6673f7c4c09a5d469d0c27ae364621ce>,<lambda_ebab98244f73a74f49db879bf13fa982> &,<lambda_be20789b7a146653eab82509ec35b419> >(__acrt_lock_and_call::__l2::<lambda_6673f7c4c09a5d469d0c27ae364621ce>&&, _get_current_locale::__l2::<lambda_ebab98244f73a74f49db879bf13fa982>&, __acrt_lock_and_call::__l2::<lambda_be20789b7a146653eab82509ec35b419>&&)
FUNC 3b5c8 54 0 __crt_seh_guarded_call<void>::operator()<<lambda_82aef432098b982f9ede325b418aa67a>,<lambda_862e9a3f04921db6ca1ce3faa2bf3edf> &,<lambda_ffabc152e504b53d7492b9889b10c020> >(__acrt_lock_and_call::__l2::<lambda_82aef432098b982f9ede325b418aa67a>&&, _get_current_locale::__l2::<lambda_862e9a3f04921db6ca1ce3faa2bf3edf>&, __acrt_lock_and_call::__l2::<lambda_ffabc152e504b53d7492b9889b10c020>&&)
FUNC 3b631 6e 0 __crt_seh_guarded_call<void>::operator()<<lambda_e5124f882df8998aaf41531e079ba474>,<lambda_3e16ef9562a7dcce91392c22ab16ea36> &,<lambda_e25ca0880e6ef98be67edffd8c599615> >(__acrt_lock_and_call::__l2::<lambda_e5124f882df8998aaf41531e079ba474>&&, __acrt_uninitialize_locale::__l2::<lambda_3e16ef9562a7dcce91392c22ab16ea36>&, __acrt_lock_and_call::__l2::<lambda_e25ca0880e6ef98be67edffd8c599615>&&)
FUNC 3b6ba 26 0 __acrt_lock_and_call<<lambda_3e16ef9562a7dcce91392c22ab16ea36> >(const __acrt_lock_id, __acrt_uninitialize_locale::__l2::<lambda_3e16ef9562a7dcce91392c22ab16ea36>&&)
FUNC 3b6e9 26 0 __acrt_lock_and_call<<lambda_862e9a3f04921db6ca1ce3faa2bf3edf> >(const __acrt_lock_id, _get_current_locale::__l2::<lambda_862e9a3f04921db6ca1ce3faa2bf3edf>&&)
FUNC 3b718 26 0 __acrt_lock_and_call<<lambda_b57350f2640456a0859d250846f69caf> >(const __acrt_lock_id, _wsetlocale::__l2::<lambda_2a444430fde8c29194d880d93eed5e8f>::()::__l5::<lambda_b57350f2640456a0859d250846f69caf>&&)
FUNC 3b747 26 0 __acrt_lock_and_call<<lambda_ebab98244f73a74f49db879bf13fa982> >(const __acrt_lock_id, _get_current_locale::__l2::<lambda_ebab98244f73a74f49db879bf13fa982>&&)
FUNC 3b776 1a 0 __crt_call_and_cleanup<<lambda_2a444430fde8c29194d880d93eed5e8f>,<lambda_8dff2cf36a5417162780cd64fa2883ef> >(_wsetlocale::__l2::<lambda_2a444430fde8c29194d880d93eed5e8f>&&, _wsetlocale::__l2::<lambda_8dff2cf36a5417162780cd64fa2883ef>&&)
FUNC 3b796 2f 0 __crt_state_management::dual_state_global<__crt_locale_data *>::uninitialize<<lambda_88ce03f932007f29bf8b8056cbaba4f3> >(__acrt_uninitialize_locale::__l2::<lambda_3e16ef9562a7dcce91392c22ab16ea36>::()::__l2::<lambda_88ce03f932007f29bf8b8056cbaba4f3>&&)
FUNC 3b7d0 28 0 <lambda_2a444430fde8c29194d880d93eed5e8f>::<lambda_2a444430fde8c29194d880d93eed5e8f>(__crt_locale_data*&, __acrt_ptd* const&, wchar_t*&, int&, wchar_t const*&)
FUNC 3b802 12 0 <lambda_4fdada1b837b2abbf20876fac97688ad>::<lambda_4fdada1b837b2abbf20876fac97688ad>(__acrt_lock_id const&)
FUNC 3b818 12 0 <lambda_6673f7c4c09a5d469d0c27ae364621ce>::<lambda_6673f7c4c09a5d469d0c27ae364621ce>(__acrt_lock_id const&)
FUNC 3b82e 12 0 <lambda_82aef432098b982f9ede325b418aa67a>::<lambda_82aef432098b982f9ede325b418aa67a>(__acrt_lock_id const&)
FUNC 3b844 10 0 <lambda_862e9a3f04921db6ca1ce3faa2bf3edf>::<lambda_862e9a3f04921db6ca1ce3faa2bf3edf>(__crt_unique_heap_ptr<__crt_locale_pointers,__crt_internal_free_policy>&)
FUNC 3b858 10 0 <lambda_8dff2cf36a5417162780cd64fa2883ef>::<lambda_8dff2cf36a5417162780cd64fa2883ef>(__acrt_ptd* const&)
FUNC 3b86c 28 0 <lambda_b57350f2640456a0859d250846f69caf>::<lambda_b57350f2640456a0859d250846f69caf>(__crt_locale_data*&, __acrt_ptd* const&, wchar_t*&, int&, wchar_t const*&)
FUNC 3b89e 12 0 <lambda_be20789b7a146653eab82509ec35b419>::<lambda_be20789b7a146653eab82509ec35b419>(__acrt_lock_id const&)
FUNC 3b8b4 12 0 <lambda_e25ca0880e6ef98be67edffd8c599615>::<lambda_e25ca0880e6ef98be67edffd8c599615>(__acrt_lock_id const&)
FUNC 3b8ca 12 0 <lambda_e5124f882df8998aaf41531e079ba474>::<lambda_e5124f882df8998aaf41531e079ba474>(__acrt_lock_id const&)
FUNC 3b8e0 10 0 <lambda_ebab98244f73a74f49db879bf13fa982>::<lambda_ebab98244f73a74f49db879bf13fa982>(__crt_unique_heap_ptr<__crt_locale_pointers,__crt_internal_free_policy>&)
FUNC 3b8f4 12 0 <lambda_eed5e4f92b5b7d55fa22c48c484aaa54>::<lambda_eed5e4f92b5b7d55fa22c48c484aaa54>(__acrt_lock_id const&)
FUNC 3b90a 12 0 <lambda_ffabc152e504b53d7492b9889b10c020>::<lambda_ffabc152e504b53d7492b9889b10c020>(__acrt_lock_id const&)
FUNC 3b920 10 0 __crt_unique_heap_ptr<__crt_locale_data,__crt_internal_free_policy>::__crt_unique_heap_ptr<__crt_locale_data,__crt_internal_free_policy>(__crt_locale_data* const)
FUNC 3b934 10 0 __crt_unique_heap_ptr<__crt_locale_pointers,__crt_internal_free_policy>::__crt_unique_heap_ptr<__crt_locale_pointers,__crt_internal_free_policy>(__crt_locale_pointers* const)
FUNC 3b948 4a 0 _expandlocale_locale_name_cache::_expandlocale_locale_name_cache(wchar_t* const, const unsigned int, __crt_qualified_locale_data* const)
FUNC 3b9a4 12 0 __crt_unique_heap_ptr<__crt_locale_data,__crt_internal_free_policy>::~__crt_unique_heap_ptr<__crt_locale_data,__crt_internal_free_policy>()
FUNC 3b9ba 12 0 __crt_unique_heap_ptr<__crt_locale_pointers,__crt_internal_free_policy>::~__crt_unique_heap_ptr<__crt_locale_pointers,__crt_internal_free_policy>()
FUNC 3b9d0 30 0 _expandlocale_locale_name_cache::~_expandlocale_locale_name_cache()
FUNC 3ba0c 7 0 __crt_unique_heap_ptr<__crt_locale_data,__crt_internal_free_policy>::operator bool() const
FUNC 3ba13 7 0 __crt_unique_heap_ptr<__crt_locale_pointers,__crt_internal_free_policy>::operator bool() const
FUNC 3ba1a 3 0 <lambda_135d2772fca65dc1248eeaa1b56e886a>::operator()() const
FUNC 3ba1d 6a 0 <lambda_2a444430fde8c29194d880d93eed5e8f>::operator()() const
FUNC 3baa1 20 0 <lambda_3e16ef9562a7dcce91392c22ab16ea36>::operator()() const
FUNC 3bac9 9 0 <lambda_4fdada1b837b2abbf20876fac97688ad>::operator()() const
FUNC 3bad4 9 0 <lambda_6673f7c4c09a5d469d0c27ae364621ce>::operator()() const
FUNC 3badf 9 0 <lambda_82aef432098b982f9ede325b418aa67a>::operator()() const
FUNC 3baea d 0 <lambda_862e9a3f04921db6ca1ce3faa2bf3edf>::operator()() const
FUNC 3bafa 22 0 <lambda_88ce03f932007f29bf8b8056cbaba4f3>::operator()(__crt_locale_data*&) const
FUNC 3bb24 c 0 <lambda_8dff2cf36a5417162780cd64fa2883ef>::operator()() const
FUNC 3bb33 fe 0 <lambda_b57350f2640456a0859d250846f69caf>::operator()() const
FUNC 3bc70 9 0 <lambda_be20789b7a146653eab82509ec35b419>::operator()() const
FUNC 3bc7b 9 0 <lambda_e25ca0880e6ef98be67edffd8c599615>::operator()() const
FUNC 3bc86 9 0 <lambda_e5124f882df8998aaf41531e079ba474>::operator()() const
FUNC 3bc91 b 0 <lambda_ebab98244f73a74f49db879bf13fa982>::operator()() const
FUNC 3bc9e 9 0 <lambda_eed5e4f92b5b7d55fa22c48c484aaa54>::operator()() const
FUNC 3bca9 9 0 <lambda_ffabc152e504b53d7492b9889b10c020>::operator()() const
FUNC 3bcb4 44 0 _expandlocale_locale_name_cache::commit_locale_name(wchar_t const* const, const unsigned int)
FUNC 3bd09 35 0 _expandlocale_locale_name_cache::commit_locale_name_cache_already_updated(wchar_t const* const, const unsigned int)
FUNC 3bd4b 6 0 __crt_unique_heap_ptr<__crt_locale_data,__crt_internal_free_policy>::detach()
FUNC 3bd51 6 0 __crt_unique_heap_ptr<__crt_locale_pointers,__crt_internal_free_policy>::detach()
FUNC 3bd57 3 0 __crt_unique_heap_ptr<__crt_locale_data,__crt_internal_free_policy>::get() const
FUNC 3bd5a 3 0 __crt_unique_heap_ptr<__crt_locale_pointers,__crt_internal_free_policy>::get() const
FUNC 3bd5d 7 0 __crt_unique_heap_ptr<__crt_locale_data,__crt_internal_free_policy>::is_valid() const
FUNC 3bd64 7 0 __crt_unique_heap_ptr<__crt_locale_pointers,__crt_internal_free_policy>::is_valid() const
FUNC 3bd6b 12 0 __crt_unique_heap_ptr<__crt_locale_data,__crt_internal_free_policy>::release()
FUNC 3bd81 12 0 __crt_unique_heap_ptr<__crt_locale_pointers,__crt_internal_free_policy>::release()
FUNC 3bd97 60 0 __acrt_copy_locale_name(wchar_t const*)
FUNC 3be0f b 0 __acrt_set_locale_changed()
FUNC 3be1c 27 0 __acrt_uninitialize_locale()
FUNC 3be4c 17 0 __ascii_tolower(const int)
FUNC 3be68 17 0 __ascii_towlower(const int)
FUNC 3be84 70 0 __lc_lctowcs(wchar_t*, unsigned int, __crt_locale_strings const*)
FUNC 3bf10 150 0 __lc_wcstolc(__crt_locale_strings*, wchar_t const*)
FUNC 3c0b4 62 0 _configthreadlocale(int)
FUNC 3c12e 2f 0 _copytlocinfo_nolock(__crt_locale_data*, __crt_locale_data*)
FUNC 3c168 64 0 _create_locale(int, char const*)
FUNC 3c1e5 3c6 0 _expandlocale(wchar_t const*, wchar_t*, unsigned int, wchar_t*, unsigned int, unsigned int&)
FUNC 3c69c c2 0 _free_locale(__crt_locale_pointers*)
FUNC 3c78e 9b 0 _get_current_locale()
FUNC 3c84f 107 0 _wcreate_locale(int, wchar_t const*)
FUNC 3c997 41 0 _wcscats(wchar_t*, unsigned int, int, <NoType>)
FUNC 3c9e8 83 0 _wsetlocale(int, wchar_t const*)
FUNC 3ca8b 19b 0 _wsetlocale_get_all(__crt_locale_data*)
FUNC 3cc8c 2f0 0 _wsetlocale_nolock(__crt_locale_data*, int, wchar_t const*)
FUNC 3d038 3c7 0 _wsetlocale_set_cat(__crt_locale_data*, int, wchar_t const*)
FUNC 3d4f0 26 0 categorize_delimiter(const wchar_t)
FUNC 3d51f 2f 0 get_default_code_page(wchar_t const* const)
FUNC 3d559 1ea 0 parse_bcp47(__crt_locale_strings* const, wchar_t const* const)
FUNC 3d7bd 3f 0 parse_bcp47_code_page(__crt_locale_strings* const, _bcp47_section const&)
FUNC 3d80b 72 0 parse_bcp47_language(__crt_locale_strings* const, _bcp47_section const&)
FUNC 3d899 b9 0 parse_bcp47_region(__crt_locale_strings* const, _bcp47_section const&)
FUNC 3d980 70 0 parse_bcp47_script(__crt_locale_strings* const, _bcp47_section const&)
FUNC 3da0c 3d 0 string_is_alpha(wchar_t const* const, const unsigned int)
FUNC 3da58 3a 0 string_is_digit(wchar_t const* const, const unsigned int)
FUNC 3daa0 22 0 sync_legacy_variables_lk()
FUNC 3daca 24 0 __pctype_func()
FUNC 3daf7 6 0 __pwctype_func()
FUNC 3dafd 14 0 _iswctype_l(unsigned short, unsigned short, __crt_locale_pointers*)
FUNC 3db16 69 0 iswctype(unsigned short, unsigned short)
FUNC 3db99 33 0 _isctype(int, int)
FUNC 3dbd8 cb 0 _isctype_l(int, int, __crt_locale_pointers*)
FUNC 3dcd5 1e 0 _isleadbyte_fast_internal(const unsigned char, __crt_locale_pointers* const)
FUNC 3dcfa 7d 0 __acrt_add_locale_ref(__crt_locale_data*)
FUNC 3dd96 148 0 __acrt_free_locale(__crt_locale_data*)
FUNC 3df30 29 0 __acrt_locale_add_lc_time_reference(__crt_lc_time_data const*)
FUNC 3df63 31 0 __acrt_locale_free_lc_time_if_unreferenced(__crt_lc_time_data const*)
FUNC 3dfa0 29 0 __acrt_locale_release_lc_time_reference(__crt_lc_time_data const*)
FUNC 3dfd3 81 0 __acrt_release_locale_ref(__crt_locale_data*)
FUNC 3e074 81 0 __acrt_update_thread_locale_data()
FUNC 3e115 50 0 _updatetlocinfoEx_nolock(__crt_locale_data**, __crt_locale_data*)
FUNC 3e179 3 0 __crt_state_management::dual_state_global<long>::value()
FUNC 3e17c 7 0 _query_new_mode()
FUNC 3e183 2f 0 _set_new_mode(int)
FUNC 3e1c0 7a 0 shortsort(char*, char*, const unsigned int, int (*)(void const*, void const*))
FUNC 3e260 39 0 swap(char*, char*, unsigned int)
FUNC 3e2b0 444 0 qsort(void*, unsigned int, unsigned int, int (*)(void const*, void const*))
FUNC 3e805 cb 0 common_tcsncpy_s<wchar_t>(wchar_t* const, const unsigned int, wchar_t const* const, const unsigned int)
FUNC 3e902 b 0 wcsncpy_s(wchar_t*, unsigned int, wchar_t const*, unsigned int)
FUNC 3e90f 4e 0 wcspbrk(wchar_t const*, wchar_t const*)
FUNC 3e970 b3 0 common_tcsncpy_s<char>(char* const, const unsigned int, char const* const, const unsigned int)
FUNC 3ea4f b 0 strncpy_s(char*, unsigned int, char const*, unsigned int)
FUNC 3ea60 40 0 strpbrk(unsigned char*, unsigned char*)
FUNC 3eab0 17 0 _mbsdec(unsigned char const*, unsigned char const*)
FUNC 3eacc 8d 0 _mbsdec_l(unsigned char const*, unsigned char const*, __crt_locale_pointers*)
FUNC 3eb7c 10 0 __crt_scoped_stack_ptr<wchar_t>::__crt_scoped_stack_ptr<wchar_t>(const __crt_scoped_stack_ptr_tag<wchar_t>)
FUNC 3eb90 10 0 __crt_scoped_stack_ptr_tag<wchar_t>::__crt_scoped_stack_ptr_tag<wchar_t>(wchar_t* const)
FUNC 3eba4 9 0 __crt_scoped_stack_ptr<wchar_t>::~__crt_scoped_stack_ptr<wchar_t>()
FUNC 3ebaf 3 0 __crt_scoped_stack_ptr<wchar_t>::get() const
FUNC 3ebb2 13 0 _MallocaComputeSize(unsigned int)
FUNC 3ebc9 16 0 _MarkAllocaS(void*, unsigned int)
FUNC 3ebe4 103 0 __acrt_GetStringTypeA(__crt_locale_pointers*, unsigned long, char const*, int, unsigned short*, int, int)
FUNC 3ed27 20 0 _freea_crt(void*)
FUNC 3ed4f 7 0 __crt_scoped_stack_ptr<wchar_t>::operator bool() const
FUNC 3ed56 1ea 0 __acrt_LCMapStringA_stat(__crt_locale_pointers*, wchar_t const*, unsigned long, char const*, int, char*, int, int, int)
FUNC 3efba 49 0 __acrt_LCMapStringA(__crt_locale_pointers*, wchar_t const*, unsigned long, char const*, int, char*, int, int, int)
FUNC 3f015 f 0 initialize_multibyte()
FUNC 3f027 6d 0 _wcsnicoll(wchar_t const*, wchar_t const*, unsigned int)
FUNC 3f0af c0 0 _wcsnicoll_l(wchar_t const*, wchar_t const*, unsigned int, __crt_locale_pointers*)
FUNC 3f19f 29 0 _strnicoll(char const*, char const*, unsigned int)
FUNC 3f1d2 c8 0 _strnicoll_l(char const*, char const*, unsigned int, __crt_locale_pointers*)
FUNC 3f2cc b2 0 __acrt_convert_wcs_mbs_cp<char,wchar_t,<lambda_62f6974d9771e494a5ea317cc32e971c>,__crt_win32_buffer_internal_dynamic_resizing>(char const* const, __crt_win32_buffer<wchar_t,__crt_win32_buffer_internal_dynamic_resizing>&, __acrt_mbs_to_wcs_cp::__l2::<lambda_62f6974d9771e494a5ea317cc32e971c> const&, const unsigned int)
FUNC 3f3aa 21 0 <lambda_62f6974d9771e494a5ea317cc32e971c>::operator()(const unsigned int, char const* const, wchar_t* const, const unsigned int) const
FUNC 3f3d3 95 0 __acrt_SetEnvironmentVariableA(char const*, char const*)
FUNC 3f48d b 0 _msize(void*)
FUNC 3f49a 33 0 _msize_base(void*)
FUNC 3f4d9 69 0 _realloc_base(void*, unsigned int)
FUNC 3f55c 37 0 GetTableIndexFromLcid(unsigned long)
FUNC 3f5a0 50 0 GetTableIndexFromLocaleName(wchar_t const*)
FUNC 3f604 aa 0 __acrt_DownlevelLCIDToLocaleName(unsigned long, wchar_t*, int)
FUNC 3f6d8 2c 0 __acrt_DownlevelLocaleNameToLCID(wchar_t const*)
FUNC 3f70f 12 0 __crt_internal_free_policy::operator()<__crt_lowio_handle_data>(__crt_lowio_handle_data const* const) const
FUNC 3f725 10 0 __crt_unique_heap_ptr<__crt_lowio_handle_data,__crt_internal_free_policy>::__crt_unique_heap_ptr<__crt_lowio_handle_data,__crt_internal_free_policy>(__crt_lowio_handle_data* const)
FUNC 3f739 12 0 __crt_unique_heap_ptr<__crt_lowio_handle_data,__crt_internal_free_policy>::~__crt_unique_heap_ptr<__crt_lowio_handle_data,__crt_internal_free_policy>()
FUNC 3f74f 7 0 __crt_unique_heap_ptr<__crt_lowio_handle_data,__crt_internal_free_policy>::operator bool() const
FUNC 3f756 6 0 __crt_unique_heap_ptr<__crt_lowio_handle_data,__crt_internal_free_policy>::detach()
FUNC 3f75c 3 0 __crt_unique_heap_ptr<__crt_lowio_handle_data,__crt_internal_free_policy>::get() const
FUNC 3f75f 7 0 __crt_unique_heap_ptr<__crt_lowio_handle_data,__crt_internal_free_policy>::is_valid() const
FUNC 3f766 12 0 __crt_unique_heap_ptr<__crt_lowio_handle_data,__crt_internal_free_policy>::release()
FUNC 3f77c 7b 0 __acrt_lowio_create_handle_array()
FUNC 3f815 35 0 __acrt_lowio_destroy_handle_array(__crt_lowio_handle_data*)
FUNC 3f857 9e 0 __acrt_lowio_ensure_fh_exists(int)
FUNC 3f91c 23 0 __acrt_lowio_lock_fh(int)
FUNC 3f947 92 0 __acrt_lowio_set_os_handle(int, int)
FUNC 3f9fd 23 0 __acrt_lowio_unlock_fh(int)
FUNC 3fa28 113 0 _alloc_osfhnd()
FUNC 3fb7f 91 0 _free_osfhnd(int)
FUNC 3fc34 6a 0 _get_osfhandle(int)
FUNC 3fcb8 116 0 _open_osfhandle(int, int)
FUNC 3fe13 a2 0 __crt_seh_guarded_call<int>::operator()<<lambda_9e9de3de5fa147e2223d7db92bc10aa6>,<lambda_38ce7e780aa69e748d6df282ebc68efe> &,<lambda_8ca6da459f0f6780f1cff60fdc3d00e5> >(__acrt_lowio_lock_fh_and_call::__l2::<lambda_9e9de3de5fa147e2223d7db92bc10aa6>&&, _commit::__l2::<lambda_38ce7e780aa69e748d6df282ebc68efe>&, __acrt_lowio_lock_fh_and_call::__l2::<lambda_8ca6da459f0f6780f1cff60fdc3d00e5>&&)
FUNC 3fedd 26 0 __acrt_lowio_lock_fh_and_call<<lambda_38ce7e780aa69e748d6df282ebc68efe> >(const int, _commit::__l2::<lambda_38ce7e780aa69e748d6df282ebc68efe>&&)
FUNC 3ff0c 10 0 <lambda_38ce7e780aa69e748d6df282ebc68efe>::<lambda_38ce7e780aa69e748d6df282ebc68efe>(int const&)
FUNC 3ff20 12 0 <lambda_8ca6da459f0f6780f1cff60fdc3d00e5>::<lambda_8ca6da459f0f6780f1cff60fdc3d00e5>(int const&)
FUNC 3ff36 12 0 <lambda_9e9de3de5fa147e2223d7db92bc10aa6>::<lambda_9e9de3de5fa147e2223d7db92bc10aa6>(int const&)
FUNC 3ff4c 55 0 <lambda_38ce7e780aa69e748d6df282ebc68efe>::operator()() const
FUNC 3ffb6 9 0 <lambda_8ca6da459f0f6780f1cff60fdc3d00e5>::operator()() const
FUNC 3ffc1 9 0 <lambda_9e9de3de5fa147e2223d7db92bc10aa6>::operator()() const
FUNC 3ffcc 7d 0 _commit(int)
FUNC 40068 4f 0 write_binary_nolock(const int, char const* const, const unsigned int)
FUNC 400ca 3aa 0 write_double_translated_ansi_nolock(const int, char const* const, const unsigned int)
FUNC 4055e 68 0 write_double_translated_unicode_nolock(char const* const, const unsigned int)
FUNC 405e0 71 0 write_requires_double_translation_nolock(const int)
FUNC 4066d db 0 write_text_ansi_nolock(const int, char const* const, const unsigned int)
FUNC 4077e e9 0 write_text_utf16le_nolock(const int, char const* const, const unsigned int)
FUNC 408a1 132 0 write_text_utf8_nolock(const int, char const* const, const unsigned int)
FUNC 40a1f 11 0 _utf8_no_of_trailbytes(const unsigned char)
FUNC 40a34 f2 0 _write(int, void const*, unsigned int)
FUNC 40b62 1e2 0 _write_nolock(int, void const*, unsigned int)
FUNC 40dbc 28 0 localeconv()
FUNC 40dee c 0 __crt_stdio_stream::is_in_use() const
FUNC 40dfd ab 0 _fcloseall()
FUNC 40ed2 c 0 __crt_stdio_stream::has_crt_buffer() const
FUNC 40ee1 40 0 __acrt_stdio_free_buffer_nolock(_iobuf*)
FUNC 40f31 56 0 _isatty(int)
FUNC 40f9c 26 0 __iswcsym(unsigned short)
FUNC 40fcb 26 0 __iswcsymf(unsigned short)
FUNC 40ffa 3a 0 _isleadbyte_l(int, __crt_locale_pointers*)
FUNC 41042 16 0 _iswalnum_l(unsigned short, __crt_locale_pointers*)
FUNC 4105d 16 0 _iswalpha_l(unsigned short, __crt_locale_pointers*)
FUNC 41078 1d 0 _iswblank_l(unsigned short, __crt_locale_pointers*)
FUNC 4109c 13 0 _iswcntrl_l(unsigned short, __crt_locale_pointers*)
FUNC 410b3 26 0 _iswcsym_l(unsigned short, __crt_locale_pointers*)
FUNC 410e2 26 0 _iswcsymf_l(unsigned short, __crt_locale_pointers*)
FUNC 41111 13 0 _iswdigit_l(unsigned short, __crt_locale_pointers*)
FUNC 41128 16 0 _iswgraph_l(unsigned short, __crt_locale_pointers*)
FUNC 41143 13 0 _iswlower_l(unsigned short, __crt_locale_pointers*)
FUNC 4115a 16 0 _iswprint_l(unsigned short, __crt_locale_pointers*)
FUNC 41175 13 0 _iswpunct_l(unsigned short, __crt_locale_pointers*)
FUNC 4118c 13 0 _iswspace_l(unsigned short, __crt_locale_pointers*)
FUNC 411a3 13 0 _iswupper_l(unsigned short, __crt_locale_pointers*)
FUNC 411ba 16 0 _iswxdigit_l(unsigned short, __crt_locale_pointers*)
FUNC 411d5 13 0 isleadbyte(int)
FUNC 411ec 16 0 iswalnum(unsigned short)
FUNC 41207 16 0 iswalpha(unsigned short)
FUNC 41222 14 0 iswascii(unsigned short)
FUNC 4123b 1d 0 iswblank(unsigned short)
FUNC 4125f 13 0 iswcntrl(unsigned short)
FUNC 41276 13 0 iswdigit(unsigned short)
FUNC 4128d 16 0 iswgraph(unsigned short)
FUNC 412a8 13 0 iswlower(unsigned short)
FUNC 412bf 16 0 iswprint(unsigned short)
FUNC 412da 13 0 iswpunct(unsigned short)
FUNC 412f1 13 0 iswspace(unsigned short)
FUNC 41308 13 0 iswupper(unsigned short)
FUNC 4131f 16 0 iswxdigit(unsigned short)
FUNC 4133a 2c 0 <lambda_3d301b9e52f5099be73030e1f0bf487e>::operator()(char const*) const
FUNC 41371 40 0 __crt_mbstring::__mbrtowc_utf8(wchar_t*, char const*, unsigned int, _Mbstatet*)
FUNC 413c1 fb 0 __crt_mbstring::__mbsrtowcs_utf8(wchar_t*, char const**, unsigned int, _Mbstatet*)
FUNC 414fa 1ed 0 _mbrtowc_s_l(int*, wchar_t*, char const*, unsigned int, _Mbstatet*, __crt_locale_pointers*)
FUNC 41762 12a 0 _mbsrtowcs_helper(wchar_t*, char const**, unsigned int, _Mbstatet*)
FUNC 418d6 58 0 btowc(int)
FUNC 41944 32 0 mbrlen(char const*, unsigned int, _Mbstatet*)
FUNC 41982 51 0 mbrtowc(wchar_t*, char const*, unsigned int, _Mbstatet*)
FUNC 419e7 b 0 mbsrtowcs(wchar_t*, char const**, unsigned int, _Mbstatet*)
FUNC 419f4 a3 0 mbsrtowcs_s(unsigned int*, wchar_t*, unsigned int, char const**, unsigned int, _Mbstatet*)
FUNC 41abf 12 0 __crt_internal_free_policy::operator()<unsigned short>(unsigned short const* const) const
FUNC 41ad5 12 0 __crt_internal_free_policy::operator()<long>(long const* const) const
FUNC 41aeb 10 0 __crt_unique_heap_ptr<unsigned short,__crt_internal_free_policy>::__crt_unique_heap_ptr<unsigned short,__crt_internal_free_policy>(unsigned short* const)
FUNC 41aff 10 0 __crt_unique_heap_ptr<long,__crt_internal_free_policy>::__crt_unique_heap_ptr<long,__crt_internal_free_policy>(long* const)
FUNC 41b13 12 0 __crt_unique_heap_ptr<unsigned short,__crt_internal_free_policy>::~__crt_unique_heap_ptr<unsigned short,__crt_internal_free_policy>()
FUNC 41b29 12 0 __crt_unique_heap_ptr<long,__crt_internal_free_policy>::~__crt_unique_heap_ptr<long,__crt_internal_free_policy>()
FUNC 41b3f 6 0 __crt_unique_heap_ptr<unsigned short,__crt_internal_free_policy>::detach()
FUNC 41b45 6 0 __crt_unique_heap_ptr<long,__crt_internal_free_policy>::detach()
FUNC 41b4b 12 0 __crt_unique_heap_ptr<unsigned short,__crt_internal_free_policy>::release()
FUNC 41b61 12 0 __crt_unique_heap_ptr<long,__crt_internal_free_policy>::release()
FUNC 41b77 25 0 ___lc_codepage_func()
FUNC 41ba5 25 0 ___lc_collate_cp_func()
FUNC 41bd3 27 0 ___lc_locale_name_func()
FUNC 41c03 25 0 ___mb_cur_max_func()
FUNC 41c31 19 0 ___mb_cur_max_l_func(__crt_locale_pointers*)
FUNC 41c50 45e 0 __acrt_locale_initialize_ctype(__crt_locale_data*)
FUNC 421c5 ab 0 __crt_mbstring::__c32rtomb_utf8(char*, char32_t, _Mbstatet*)
FUNC 4229a 14 0 __crt_mbstring::reset_and_return(unsigned int, _Mbstatet*)
FUNC 422b3 1f 0 __crt_mbstring::return_illegal_sequence(_Mbstatet*)
FUNC 422d9 b 0 c32rtomb(char*, char32_t, _Mbstatet*)
FUNC 422e6 c0 0 __acrt_fp_strflt_to_string(char*, unsigned int, int, _strflt*)
FUNC 423d6 11dc 0 convert_to_fos_high_precision<double>(const double, const unsigned int, int* const, char* const, const unsigned int)
FUNC 43a30 31 0 __crt_strtox::big_integer::big_integer(__crt_strtox::big_integer const&)
FUNC 43a70 9 0 __crt_strtox::big_integer::big_integer()
FUNC 43a7b 2c 0 (anonymous namespace)::scoped_fp_state_reset::scoped_fp_state_reset()
FUNC 43ab2 e 0 (anonymous namespace)::scoped_fp_state_reset::~scoped_fp_state_reset()
FUNC 43ad0 31 0 __crt_strtox::big_integer::operator=(__crt_strtox::big_integer const&)
FUNC 43b10 3b 0 __crt_strtox::operator==(__crt_strtox::big_integer const&, __crt_strtox::big_integer const&)
FUNC 43b60 39 0 __crt_strtox::operator!=(__crt_strtox::big_integer const&, __crt_strtox::big_integer const&)
FUNC 43bb0 1b 0 __crt_strtox::add_carry(unsigned int&, const unsigned int, const unsigned int)
FUNC 43be0 24 0 __crt_strtox::add_multiply_carry(unsigned int&, const unsigned int, const unsigned int, const unsigned int)
FUNC 43c10 1e 0 __crt_strtox::bit_scan_reverse(const unsigned int)
FUNC 43c40 1b 0 __crt_strtox::count_sequential_high_zeroes(const unsigned int)
FUNC 43c70 498 0 __crt_strtox::divide(__crt_strtox::big_integer&, __crt_strtox::big_integer const&)
FUNC 44230 10 0 __crt_strtox::is_zero(__crt_strtox::big_integer const&)
FUNC 44250 20 0 __crt_strtox::make_big_integer(const unsigned long long)
FUNC 44280 4c 0 __crt_strtox::make_big_integer_power_of_two(const unsigned int)
FUNC 442e0 33d 0 __crt_strtox::multiply(__crt_strtox::big_integer&, __crt_strtox::big_integer const&)
FUNC 446f0 c3 0 __crt_strtox::multiply(__crt_strtox::big_integer&, const unsigned int)
FUNC 447f0 17 0 __crt_strtox::multiply_64_32(const unsigned long long, const unsigned int)
FUNC 44810 523 0 __crt_strtox::multiply_by_power_of_ten(__crt_strtox::big_integer&, const unsigned int)
FUNC 44e80 3e 0 __crt_strtox::multiply_core(unsigned int* const, const unsigned int, const unsigned int)
FUNC 44ed0 156 0 __crt_strtox::shift_left(__crt_strtox::big_integer&, const unsigned int)
FUNC 4507b 134a 0 __acrt_fltout(_CRT_DOUBLE, unsigned int, _strflt*, char*, unsigned int)
FUNC 46897 81 0 memcpy_s(void* const, const unsigned int, void const* const, const unsigned int)
FUNC 46938 115 0 common_flush_and_write_nolock<char>(const int, const __crt_stdio_stream)
FUNC 46a92 119 0 common_flush_and_write_nolock<wchar_t>(const int, const __crt_stdio_stream)
FUNC 46bf1 cc 0 write_buffer_nolock<char>(const char, const __crt_stdio_stream)
FUNC 46cf0 ce 0 write_buffer_nolock<wchar_t>(const wchar_t, const __crt_stdio_stream)
FUNC 46df1 c 0 __crt_stdio_stream::has_big_buffer() const
FUNC 46e00 85 0 stream_is_at_end_of_file_nolock(const __crt_stdio_stream)
FUNC 46ea6 b 0 __acrt_stdio_flush_and_write_narrow_nolock(int, _iobuf*)
FUNC 46eb3 b 0 __acrt_stdio_flush_and_write_wide_nolock(int, _iobuf*)
FUNC 46ec0 12 0 __crt_internal_free_policy::operator()<lconv>(lconv const* const) const
FUNC 46ed6 10 0 __crt_unique_heap_ptr<lconv,__crt_internal_free_policy>::__crt_unique_heap_ptr<lconv,__crt_internal_free_policy>(lconv* const)
FUNC 46eea 12 0 __crt_unique_heap_ptr<lconv,__crt_internal_free_policy>::~__crt_unique_heap_ptr<lconv,__crt_internal_free_policy>()
FUNC 46f00 6 0 __crt_unique_heap_ptr<lconv,__crt_internal_free_policy>::detach()
FUNC 46f06 12 0 __crt_unique_heap_ptr<lconv,__crt_internal_free_policy>::release()
FUNC 46f1c fe 0 __acrt_locale_free_monetary(lconv*)
FUNC 47059 3b7 0 __acrt_locale_initialize_monetary(__crt_locale_data*)
FUNC 474fd 38 0 fix_grouping(char*)
FUNC 47543 69 0 __acrt_locale_free_numeric(lconv*)
FUNC 475c6 20f 0 __acrt_locale_initialize_numeric(__crt_locale_data*)
FUNC 47858 38 0 fix_grouping(char*)
FUNC 4789e 12 0 __crt_internal_free_policy::operator()<__crt_lc_time_data>(__crt_lc_time_data const* const) const
FUNC 478b4 13 0 free_crt_array<char,2>(char*[2]&)
FUNC 478cb 13 0 free_crt_array<char,7>(char*[7]&)
FUNC 478e2 13 0 free_crt_array<char,12>(char*[12]&)
FUNC 478f9 13 0 free_crt_array<wchar_t,2>(wchar_t*[2]&)
FUNC 47910 13 0 free_crt_array<wchar_t,7>(wchar_t*[7]&)
FUNC 47927 13 0 free_crt_array<wchar_t,12>(wchar_t*[12]&)
FUNC 4793e 10 0 __crt_unique_heap_ptr<__crt_lc_time_data,__crt_internal_free_policy>::__crt_unique_heap_ptr<__crt_lc_time_data,__crt_internal_free_policy>(__crt_lc_time_data* const)
FUNC 47952 12 0 __crt_unique_heap_ptr<__crt_lc_time_data,__crt_internal_free_policy>::~__crt_unique_heap_ptr<__crt_lc_time_data,__crt_internal_free_policy>()
FUNC 47968 7 0 __crt_unique_heap_ptr<__crt_lc_time_data,__crt_internal_free_policy>::operator bool() const
FUNC 4796f 6 0 __crt_unique_heap_ptr<__crt_lc_time_data,__crt_internal_free_policy>::detach()
FUNC 47975 38 0 free_crt_array_internal(void const** const, const unsigned int)
FUNC 479bb 3 0 __crt_unique_heap_ptr<__crt_lc_time_data,__crt_internal_free_policy>::get() const
FUNC 479be 61 0 get_or_create_lc_time(__crt_locale_data* const)
FUNC 47a37 27c 0 initialize_lc_time(__crt_lc_time_data* const, __crt_locale_data* const)
FUNC 47d52 7 0 __crt_unique_heap_ptr<__crt_lc_time_data,__crt_internal_free_policy>::is_valid() const
FUNC 47d59 12 0 __crt_unique_heap_ptr<__crt_lc_time_data,__crt_internal_free_policy>::release()
FUNC 47d6f e4 0 __acrt_locale_free_time(__crt_lc_time_data*)
FUNC 47e8c 7b 0 __acrt_locale_initialize_time(__crt_locale_data*)
FUNC 47f25 72 0 common_tcscat_s<wchar_t>(wchar_t* const, const unsigned int, wchar_t const* const)
FUNC 47fb3 75 0 wcscat_s(wchar_t*, unsigned int, wchar_t const*)
FUNC 48045 e7 0 common_tcsncat_s<wchar_t>(wchar_t* const, const unsigned int, wchar_t const* const, const unsigned int)
FUNC 48165 b 0 wcsncat_s(wchar_t*, unsigned int, wchar_t const*, unsigned int)
FUNC 48172 59 0 wcscspn(wchar_t const*, wchar_t const*)
FUNC 481e1 87 0 GetLocaleNameFromDefault(__crt_qualified_locale_data*)
FUNC 48289 99 0 GetLocaleNameFromLangCountry(__crt_qualified_locale_data*)
FUNC 48348 59 0 GetLocaleNameFromLanguage(__crt_qualified_locale_data*)
FUNC 483b7 34 0 GetPrimaryLen(wchar_t const*)
FUNC 483f8 2e0 0 LangCountryEnumProcEx(wchar_t*, unsigned long, long)
FUNC 48790 bf 0 LanguageEnumProcEx(wchar_t*, unsigned long, long)
FUNC 4887e f6 0 ProcessCodePage(wchar_t const*, __crt_qualified_locale_data*)
FUNC 489b1 4d 0 TestDefaultCountry(wchar_t const*)
FUNC 48a11 46 0 TestDefaultLanguage(wchar_t const*, int, __crt_qualified_locale_data*)
FUNC 48a68 6d 0 TranslateName(__crt_locale_string_table const*, int, wchar_t const**)
FUNC 48af0 1fb 0 __acrt_get_qualified_locale(__crt_locale_strings const*, unsigned int*, __crt_locale_strings*)
FUNC 48d69 a7 0 CountryEnumProc(wchar_t*)
FUNC 48e39 4b 0 GetLcidFromCountry(__crt_qualified_locale_data_downlevel*)
FUNC 48e96 1e 0 GetLcidFromDefault(__crt_qualified_locale_data_downlevel*)
FUNC 48ebb 9b 0 GetLcidFromLangCountry(__crt_qualified_locale_data_downlevel*)
FUNC 48f7c 5f 0 GetLcidFromLanguage(__crt_qualified_locale_data_downlevel*)
FUNC 48ff2 2c 0 GetPrimaryLen(wchar_t const*)
FUNC 49029 253 0 LangCountryEnumProc(wchar_t*)
FUNC 49310 d5 0 LanguageEnumProc(wchar_t*)
FUNC 4941a 51 0 LcidFromHexString(wchar_t const*)
FUNC 4947f e1 0 ProcessCodePage(wchar_t const*, __crt_qualified_locale_data_downlevel*)
FUNC 49598 25 0 TestDefaultCountry(unsigned long)
FUNC 495c6 6e 0 TestDefaultLanguage(unsigned long, int, __crt_qualified_locale_data_downlevel*)
FUNC 4964f 61 0 TranslateName(__crt_locale_string_table const*, int, wchar_t const**)
FUNC 496c8 1f5 0 __acrt_get_qualified_locale_downlevel(__crt_locale_strings const*, unsigned int*, __crt_locale_strings*)
FUNC 4993a 19 0 __acrt_GetStringTypeW(unsigned long, wchar_t const*, int, unsigned short*)
FUNC 49959 1c 0 __strncnt(char const*, unsigned int)
FUNC 4997c 65 0 __acrt_CompareStringW(wchar_t const*, unsigned long, wchar_t const*, int, wchar_t const*, int)
FUNC 499fa 4f 0 __ascii_wcsnicmp(wchar_t const*, wchar_t const*, unsigned int)
FUNC 49a5c 2b 0 _towlower_fast_internal(const unsigned char, __crt_locale_pointers* const)
FUNC 49a91 3f 0 _towlower_internal(const unsigned short, __crt_locale_pointers* const)
FUNC 49adf 4c 0 _wcsnicmp(wchar_t const*, wchar_t const*, unsigned int)
FUNC 49b3e d3 0 _wcsnicmp_l(wchar_t const*, wchar_t const*, unsigned int, __crt_locale_pointers*)
FUNC 49c45 6d 0 _strnicmp(char const*, char const*, unsigned int)
FUNC 49ccd c9 0 _strnicmp_l(char const*, char const*, unsigned int, __crt_locale_pointers*)
FUNC 49dc8 28b 0 InternalCompareStringA(__crt_locale_pointers*, wchar_t const*, unsigned long, char const*, int, char const*, int, int)
FUNC 4a0f5 46 0 __acrt_CompareStringA(__crt_locale_pointers*, wchar_t const*, unsigned long, char const*, int, char const*, int, int)
FUNC 4a14c 3 0 issue_debug_notification(wchar_t const* const)
FUNC 4a14f 20 0 should_write_error_to_console()
FUNC 4a177 7b 0 write_string_to_console(wchar_t const* const)
FUNC 4a210 115 0 __acrt_report_runtime_error(wchar_t const*)
FUNC 4a36a 6 0 _query_app_type()
FUNC 4a370 f 0 _set_app_type(_crt_app_type)
FUNC 4a382 f2 0 common_lseek<long>(const int, const long, const int)
FUNC 4a4b0 10c 0 common_lseek<__int64>(const int, const long long, const int)
FUNC 4a5ff 57 0 common_lseek_nolock<long>(const int, const long, const int)
FUNC 4a66b 7c 0 common_lseek_nolock<__int64>(const int, const long long, const int)
FUNC 4a706 82 0 common_lseek_do_seek_nolock(void* const, const long, const int)
FUNC 4a7a8 3d 0 common_lseek_do_seek_nolock(void* const, const long long, const int)
FUNC 4a7f4 b 0 _lseek(int, long, int)
FUNC 4a801 b 0 _lseek_nolock(int, long, int)
FUNC 4a80e 1b 0 _lseeki64(int, long long, int)
FUNC 4a82f 1b 0 _lseeki64_nolock(int, long long, int)
FUNC 4a850 68 0 __crt_seh_guarded_call<unsigned short>::operator()<<lambda_f828341fbe69b7c0d4c527b01f22877f>,<lambda_9e0b6ab72a5b3ae37ad997d08b519f50> &,<lambda_f01deac0a8d65d6e0411edf7e0af5775> >(__acrt_lock_and_call::__l2::<lambda_f828341fbe69b7c0d4c527b01f22877f>&&, _putwch::__l2::<lambda_9e0b6ab72a5b3ae37ad997d08b519f50>&, __acrt_lock_and_call::__l2::<lambda_f01deac0a8d65d6e0411edf7e0af5775>&&)
FUNC 4a8d2 26 0 __acrt_lock_and_call<<lambda_9e0b6ab72a5b3ae37ad997d08b519f50> >(const __acrt_lock_id, _putwch::__l2::<lambda_9e0b6ab72a5b3ae37ad997d08b519f50>&&)
FUNC 4a901 10 0 <lambda_9e0b6ab72a5b3ae37ad997d08b519f50>::<lambda_9e0b6ab72a5b3ae37ad997d08b519f50>(wchar_t const&)
FUNC 4a915 12 0 <lambda_f01deac0a8d65d6e0411edf7e0af5775>::<lambda_f01deac0a8d65d6e0411edf7e0af5775>(__acrt_lock_id const&)
FUNC 4a92b 12 0 <lambda_f828341fbe69b7c0d4c527b01f22877f>::<lambda_f828341fbe69b7c0d4c527b01f22877f>(__acrt_lock_id const&)
FUNC 4a941 d 0 <lambda_9e0b6ab72a5b3ae37ad997d08b519f50>::operator()() const
FUNC 4a951 9 0 <lambda_f01deac0a8d65d6e0411edf7e0af5775>::operator()() const
FUNC 4a95c 9 0 <lambda_f828341fbe69b7c0d4c527b01f22877f>::operator()() const
FUNC 4a967 2d 0 _putwch(wchar_t)
FUNC 4a99f 32 0 _putwch_nolock(wchar_t)
FUNC 4a9dd 161 0 translate_text_mode_nolock<char>(const int, char* const, const unsigned int)
FUNC 4ab96 1d1 0 translate_text_mode_nolock<wchar_t>(const int, wchar_t* const, const unsigned int)
FUNC 4addb 23 0 store_lookahead(const int, const char)
FUNC 4ae06 41 0 store_lookahead(const int, const wchar_t)
FUNC 4ae57 157 0 translate_ansi_or_utf8_nolock(const int, char* const, const unsigned int, wchar_t* const, const unsigned int)
FUNC 4b003 7b 0 translate_utf16_from_console_nolock(const int, wchar_t* const, const unsigned int)
FUNC 4b09c 114 0 _read(int, void*, unsigned int)
FUNC 4b1f5 3b0 0 _read_nolock(int, void*, unsigned int)
FUNC 4b691 77 0 _fclose_nolock(_iobuf*)
FUNC 4b725 84 0 fclose(_iobuf*)
FUNC 4b7ca 1a7 0 __crt_mbstring::__mbrtoc32_utf8(char32_t*, char const*, unsigned int, _Mbstatet*)
FUNC 4b9da b 0 mbrtoc32(char32_t*, char const*, unsigned int, _Mbstatet*)
FUNC 4b9e7 df 0 InternalGetLocaleInfoA(__crt_locale_pointers* const, wchar_t const* const, const unsigned long, char* const, const int)
FUNC 4bafd 1b0 0 __acrt_GetLocaleInfoA(__crt_locale_pointers*, int, wchar_t const*, unsigned long, void*)
FUNC 4bd19 1d 0 fegetenv(fenv_t*)
FUNC 4bd3d 4b 0 fesetenv(fenv_t const*)
FUNC 4bd9a 4d 0 feholdexcept(fenv_t*)
FUNC 4be00 3b 0 _CIlog10()
FUNC 4be3b d5 0 _CIlog10_default()
FUNC 4bf60 40 0 ceil()
FUNC 4bfa0 dd 0 _ceil_pentium4()
FUNC 4c0c4 59 0 __acrt_stdio_allocate_buffer_nolock(_iobuf*)
FUNC 4c133 a0 0 common_xtox<unsigned long,char>(const unsigned long, char* const, const unsigned int, const unsigned int, const bool)
FUNC 4c1fb b3 0 common_xtox<unsigned long,wchar_t>(const unsigned long, wchar_t* const, const unsigned int, const unsigned int, const bool)
FUNC 4c2da c7 0 common_xtox<unsigned __int64,char>(const unsigned long long, char* const, const unsigned int, const unsigned int, const bool)
FUNC 4c3d2 dc 0 common_xtox<unsigned __int64,wchar_t>(const unsigned long long, wchar_t* const, const unsigned int, const unsigned int, const bool)
FUNC 4c4e5 70 0 common_xtox_s<unsigned long,char>(const unsigned long, char* const, const unsigned int, const unsigned int, const bool)
FUNC 4c571 72 0 common_xtox_s<unsigned long,wchar_t>(const unsigned long, wchar_t* const, const unsigned int, const unsigned int, const bool)
FUNC 4c5ff 73 0 common_xtox_s<unsigned __int64,char>(const unsigned long long, char* const, const unsigned int, const unsigned int, const bool)
FUNC 4c68e 75 0 common_xtox_s<unsigned __int64,wchar_t>(const unsigned long long, wchar_t* const, const unsigned int, const unsigned int, const bool)
FUNC 4c720 41 0 _i64toa(long long, char*, int)
FUNC 4c771 3f 0 _i64toa_s(long long, char*, unsigned int, int)
FUNC 4c7bf 41 0 _i64tow(long long, wchar_t*, int)
FUNC 4c810 3f 0 _i64tow_s(long long, wchar_t*, unsigned int, int)
FUNC 4c85e 35 0 _itoa(int, char*, int)
FUNC 4c8a0 33 0 _itoa_s(int, char*, unsigned int, int)
FUNC 4c8df 35 0 _itow(int, wchar_t*, int)
FUNC 4c921 33 0 _itow_s(int, wchar_t*, unsigned int, int)
FUNC 4c960 35 0 _ltoa(long, char*, int)
FUNC 4c9a2 33 0 _ltoa_s(long, char*, unsigned int, int)
FUNC 4c9e1 35 0 _ltow(long, wchar_t*, int)
FUNC 4ca23 33 0 _ltow_s(long, wchar_t*, unsigned int, int)
FUNC 4ca62 22 0 _ui64toa(unsigned long long, char*, int)
FUNC 4ca8c 20 0 _ui64toa_s(unsigned long long, char*, unsigned int, int)
FUNC 4cab4 22 0 _ui64tow(unsigned long long, wchar_t*, int)
FUNC 4cade 20 0 _ui64tow_s(unsigned long long, wchar_t*, unsigned int, int)
FUNC 4cb06 1f 0 _ultoa(unsigned long, char*, int)
FUNC 4cb2c 1d 0 _ultoa_s(unsigned long, char*, unsigned int, int)
FUNC 4cb50 1f 0 _ultow(unsigned long, wchar_t*, int)
FUNC 4cb76 1d 0 _ultow_s(unsigned long, wchar_t*, unsigned int, int)
FUNC 4cb9a 3d 0 __ascii_wcsicmp(wchar_t const*, wchar_t const*)
FUNC 4cbe6 49 0 _wcsicmp(wchar_t const*, wchar_t const*)
FUNC 4cc41 b8 0 _wcsicmp_l(wchar_t const*, wchar_t const*, __crt_locale_pointers*)
FUNC 4cd27 a2 0 _towlower_l(unsigned short, __crt_locale_pointers*)
FUNC 4cdf1 13 0 towlower(unsigned short)
FUNC 4ce10 61 0 __ascii_strnicmp(unsigned char*, unsigned char*, unsigned long)
FUNC 4ce89 3f 0 _set_error_mode(int)
FUNC 4ced7 7d 0 common_show_message_box<char>(char const* const, char const* const, const unsigned int)
FUNC 4cf73 7e 0 common_show_message_box<wchar_t>(wchar_t const* const, wchar_t const* const, const unsigned int)
FUNC 4d010 20 0 __crt_char_traits<char>::message_box<std::nullptr_t,char const * const &,char const * const &,unsigned long>(void*&&, char const* const&, char const* const&, unsigned long&&)
FUNC 4d038 20 0 __crt_char_traits<wchar_t>::message_box<std::nullptr_t,wchar_t const * const &,wchar_t const * const &,unsigned long>(void*&&, wchar_t const* const&, wchar_t const* const&, unsigned long&&)
FUNC 4d060 20 0 __crt_char_traits<char>::message_box<HWND__ *,char const * const &,char const * const &,unsigned int const &>(HWND__*&&, char const* const&, char const* const&, unsigned int const&)
FUNC 4d088 20 0 __crt_char_traits<wchar_t>::message_box<HWND__ *,wchar_t const * const &,wchar_t const * const &,unsigned int const &>(HWND__*&&, wchar_t const* const&, wchar_t const* const&, unsigned int const&)
FUNC 4d0b0 11 0 __crt_char_traits<char>::output_debug_string<char const * const &>(char const* const&)
FUNC 4d0c5 12 0 __crt_char_traits<wchar_t>::output_debug_string<wchar_t const * const &>(wchar_t const* const&)
FUNC 4d0db b 0 __acrt_show_narrow_message_box(char const*, char const*, unsigned int)
FUNC 4d0e8 b 0 __acrt_show_wide_message_box(wchar_t const*, wchar_t const*, unsigned int)
FUNC 4d0f5 58 0 console_output_reopen_and_retry<<lambda_61c1b8a38cedca4df5fdc542e6ccae6d> >(__dcrt_write_console::__l2::<lambda_61c1b8a38cedca4df5fdc542e6ccae6d> const&)
FUNC 4d163 22 0 <lambda_61c1b8a38cedca4df5fdc542e6ccae6d>::<lambda_61c1b8a38cedca4df5fdc542e6ccae6d>(void const* const&, unsigned long const&, unsigned long* const&)
FUNC 4d18d 17 0 <lambda_61c1b8a38cedca4df5fdc542e6ccae6d>::operator()() const
FUNC 4d1a9 1f 0 __dcrt_lowio_initialize_console_output()
FUNC 4d1cf 1f 0 __dcrt_lowio_ensure_console_output_initialized()
FUNC 4d1f5 17 0 __dcrt_terminate_console_output()
FUNC 4d211 55 0 __dcrt_write_console(void const*, unsigned long, unsigned long*)
FUNC 4d27b 8c 0 __crt_seh_guarded_call<int>::operator()<<lambda_218ce3db14220d0be481dae8ef3383b6>,<lambda_628dfdc04ba53c8bfc02c9951375f3f5> &,<lambda_57dc472bd5c9d5f3b2cbca59b8a843ae> >(__acrt_lowio_lock_fh_and_call::__l2::<lambda_218ce3db14220d0be481dae8ef3383b6>&&, _close::__l2::<lambda_628dfdc04ba53c8bfc02c9951375f3f5>&, __acrt_lowio_lock_fh_and_call::__l2::<lambda_57dc472bd5c9d5f3b2cbca59b8a843ae>&&)
FUNC 4d32a 26 0 __acrt_lowio_lock_fh_and_call<<lambda_628dfdc04ba53c8bfc02c9951375f3f5> >(const int, _close::__l2::<lambda_628dfdc04ba53c8bfc02c9951375f3f5>&&)
FUNC 4d359 12 0 <lambda_218ce3db14220d0be481dae8ef3383b6>::<lambda_218ce3db14220d0be481dae8ef3383b6>(int const&)
FUNC 4d36f 12 0 <lambda_57dc472bd5c9d5f3b2cbca59b8a843ae>::<lambda_57dc472bd5c9d5f3b2cbca59b8a843ae>(int const&)
FUNC 4d385 10 0 <lambda_628dfdc04ba53c8bfc02c9951375f3f5>::<lambda_628dfdc04ba53c8bfc02c9951375f3f5>(int const&)
FUNC 4d399 9 0 <lambda_218ce3db14220d0be481dae8ef3383b6>::operator()() const
FUNC 4d3a4 9 0 <lambda_57dc472bd5c9d5f3b2cbca59b8a843ae>::operator()() const
FUNC 4d3af 39 0 <lambda_628dfdc04ba53c8bfc02c9951375f3f5>::operator()() const
FUNC 4d3f6 6a 0 close_os_handle_nolock(const int)
FUNC 4d47a 8d 0 _close(int)
FUNC 4d52a 9c 0 _close_nolock(int)
FUNC 4d5ed 12 0 __crt_internal_free_policy::operator()<__crt_stdio_stream_data>(__crt_stdio_stream_data const* const) const
FUNC 4d603 10 0 __crt_unique_heap_ptr<__crt_stdio_stream_data,__crt_internal_free_policy>::__crt_unique_heap_ptr<__crt_stdio_stream_data,__crt_internal_free_policy>(__crt_stdio_stream_data* const)
FUNC 4d617 6 0 __crt_stdio_stream::__crt_stdio_stream()
FUNC 4d61d 12 0 __crt_unique_heap_ptr<__crt_stdio_stream_data,__crt_internal_free_policy>::~__crt_unique_heap_ptr<__crt_stdio_stream_data,__crt_internal_free_policy>()
FUNC 4d633 69 0 __acrt_stdio_allocate_stream()
FUNC 4d6b6 3b 0 __acrt_stdio_free_stream(__crt_stdio_stream)
FUNC 4d6ff a 0 __crt_stdio_stream::deallocate()
FUNC 4d70b 6 0 __crt_unique_heap_ptr<__crt_stdio_stream_data,__crt_internal_free_policy>::detach()
FUNC 4d711 c2 0 find_or_allocate_unused_stream_nolock()
FUNC 4d803 9 0 __crt_stdio_stream::lock() const
FUNC 4d80e 12 0 __crt_unique_heap_ptr<__crt_stdio_stream_data,__crt_internal_free_policy>::release()
FUNC 4d824 20 0 __crt_stdio_stream::try_allocate()
FUNC 4d84c 9 0 __crt_stdio_stream::unlock() const
FUNC 4d857 12 0 __acrt_fenv_shift_bits<enum __acrt_fenv_abstract_control>(const __acrt_fenv_abstract_control, const __acrt_fenv_abstract_control, const unsigned int)
FUNC 4d86d 12 0 __acrt_fenv_shift_bits<enum __acrt_fenv_abstract_status>(const __acrt_fenv_abstract_status, const __acrt_fenv_abstract_status, const unsigned int)
FUNC 4d883 18 0 __acrt_fenv_translate_bit<enum __acrt_fenv_abstract_control,enum __acrt_fenv_machine_sse_control>(const __acrt_fenv_machine_sse_control, const __acrt_fenv_machine_sse_control, const __acrt_fenv_abstract_control, const __acrt_fenv_abstract_control)
FUNC 4d8a1 18 0 __acrt_fenv_translate_bit<enum __acrt_fenv_abstract_control,enum __acrt_fenv_machine_x87_control>(const __acrt_fenv_machine_x87_control, const __acrt_fenv_machine_x87_control, const __acrt_fenv_abstract_control, const __acrt_fenv_abstract_control)
FUNC 4d8bf 15 0 __acrt_fenv_translate_bit<enum __acrt_fenv_abstract_status,enum __acrt_fenv_machine_sse_status>(const __acrt_fenv_machine_sse_status, const __acrt_fenv_machine_sse_status, const __acrt_fenv_abstract_status, const __acrt_fenv_abstract_status)
FUNC 4d8d9 15 0 __acrt_fenv_translate_bit<enum __acrt_fenv_abstract_status,enum __acrt_fenv_machine_x87_status>(const __acrt_fenv_machine_x87_status, const __acrt_fenv_machine_x87_status, const __acrt_fenv_abstract_status, const __acrt_fenv_abstract_status)
FUNC 4d8f3 17 0 __acrt_fenv_translate_bit<enum __acrt_fenv_machine_sse_control,enum __acrt_fenv_abstract_control>(const __acrt_fenv_abstract_control, const __acrt_fenv_abstract_control, const __acrt_fenv_machine_sse_control, const __acrt_fenv_machine_sse_control)
FUNC 4d90f 15 0 __acrt_fenv_translate_bit<enum __acrt_fenv_machine_sse_status,enum __acrt_fenv_abstract_status>(const __acrt_fenv_abstract_status, const __acrt_fenv_abstract_status, const __acrt_fenv_machine_sse_status, const __acrt_fenv_machine_sse_status)
FUNC 4d929 17 0 __acrt_fenv_translate_bit<enum __acrt_fenv_machine_x87_control,enum __acrt_fenv_abstract_control>(const __acrt_fenv_abstract_control, const __acrt_fenv_abstract_control, const __acrt_fenv_machine_x87_control, const __acrt_fenv_machine_x87_control)
FUNC 4d945 15 0 __acrt_fenv_translate_bit<enum __acrt_fenv_machine_x87_status,enum __acrt_fenv_abstract_status>(const __acrt_fenv_abstract_status, const __acrt_fenv_abstract_status, const __acrt_fenv_machine_x87_status, const __acrt_fenv_machine_x87_status)
FUNC 4d95f 12 0 __acrt_fenv_unshift_bits<enum __acrt_fenv_abstract_control>(const __acrt_fenv_abstract_control, const __acrt_fenv_abstract_control, const unsigned int)
FUNC 4d975 12 0 __acrt_fenv_unshift_bits<enum __acrt_fenv_abstract_status>(const __acrt_fenv_abstract_status, const __acrt_fenv_abstract_status, const unsigned int)
FUNC 4d98b 4e 0 to_abstract_status<enum __acrt_fenv_machine_sse_status>(const __acrt_fenv_machine_sse_status)
FUNC 4d9ec 4e 0 to_abstract_status<enum __acrt_fenv_machine_x87_status>(const __acrt_fenv_machine_x87_status)
FUNC 4da4d 51 0 translate_control_exception_mask<enum __acrt_fenv_abstract_control,enum __acrt_fenv_machine_sse_control>(const __acrt_fenv_machine_sse_control)
FUNC 4dab2 4e 0 translate_control_exception_mask<enum __acrt_fenv_abstract_control,enum __acrt_fenv_machine_x87_control>(const __acrt_fenv_machine_x87_control)
FUNC 4db13 60 0 translate_control_exception_mask<enum __acrt_fenv_machine_sse_control,enum __acrt_fenv_abstract_control>(const __acrt_fenv_abstract_control)
FUNC 4db8b 54 0 translate_control_exception_mask<enum __acrt_fenv_machine_x87_control,enum __acrt_fenv_abstract_control>(const __acrt_fenv_abstract_control)
FUNC 4dbf4 13 0 translate_control_infinity_control<enum __acrt_fenv_abstract_control,enum __acrt_fenv_machine_x87_control>(const __acrt_fenv_machine_x87_control)
FUNC 4dc0b 19 0 translate_control_infinity_control<enum __acrt_fenv_machine_x87_control,enum __acrt_fenv_abstract_control>(const __acrt_fenv_abstract_control)
FUNC 4dc2a 28 0 translate_control_precision_control<enum __acrt_fenv_abstract_control,enum __acrt_fenv_machine_x87_control>(const __acrt_fenv_machine_x87_control)
FUNC 4dc5c 28 0 translate_control_precision_control<enum __acrt_fenv_machine_x87_control,enum __acrt_fenv_abstract_control>(const __acrt_fenv_abstract_control)
FUNC 4dc8e 3c 0 translate_control_rounding_control<enum __acrt_fenv_abstract_control,enum __acrt_fenv_machine_sse_control>(const __acrt_fenv_machine_sse_control)
FUNC 4dcd9 3c 0 translate_control_rounding_control<enum __acrt_fenv_abstract_control,enum __acrt_fenv_machine_x87_control>(const __acrt_fenv_machine_x87_control)
FUNC 4dd24 3c 0 translate_control_rounding_control<enum __acrt_fenv_machine_sse_control,enum __acrt_fenv_abstract_control>(const __acrt_fenv_abstract_control)
FUNC 4dd6f 3c 0 translate_control_rounding_control<enum __acrt_fenv_machine_x87_control,enum __acrt_fenv_abstract_control>(const __acrt_fenv_abstract_control)
FUNC 4ddba 4e 0 translate_status<enum __acrt_fenv_abstract_status,enum __acrt_fenv_machine_sse_status>(const __acrt_fenv_machine_sse_status)
FUNC 4de1b 4e 0 translate_status<enum __acrt_fenv_abstract_status,enum __acrt_fenv_machine_x87_status>(const __acrt_fenv_machine_x87_status)
FUNC 4de7c 4e 0 translate_status<enum __acrt_fenv_machine_sse_status,enum __acrt_fenv_abstract_status>(const __acrt_fenv_abstract_status)
FUNC 4dedd 4e 0 translate_status<enum __acrt_fenv_machine_x87_status,enum __acrt_fenv_abstract_status>(const __acrt_fenv_abstract_status)
FUNC 4df3e d 0 operator&(__acrt_fenv_abstract_control, __acrt_fenv_abstract_control)
FUNC 4df4e d 0 operator&(__acrt_fenv_abstract_status, __acrt_fenv_abstract_status)
FUNC 4df5e d 0 operator&(__acrt_fenv_machine_sse_control, __acrt_fenv_machine_sse_control)
FUNC 4df6e d 0 operator&(__acrt_fenv_machine_sse_status, __acrt_fenv_machine_sse_status)
FUNC 4df7e d 0 operator&(__acrt_fenv_machine_x87_control, __acrt_fenv_machine_x87_control)
FUNC 4df8e d 0 operator&(__acrt_fenv_machine_x87_status, __acrt_fenv_machine_x87_status)
FUNC 4df9e d 0 operator|(__acrt_fenv_abstract_control, __acrt_fenv_abstract_control)
FUNC 4dfae d 0 operator|(__acrt_fenv_abstract_status, __acrt_fenv_abstract_status)
FUNC 4dfbe d 0 operator|(__acrt_fenv_machine_sse_control, __acrt_fenv_machine_sse_control)
FUNC 4dfce d 0 operator|(__acrt_fenv_machine_x87_control, __acrt_fenv_machine_x87_control)
FUNC 4dfde f 0 operator|=(__acrt_fenv_abstract_control&, __acrt_fenv_abstract_control)
FUNC 4dff0 f 0 operator|=(__acrt_fenv_abstract_status&, __acrt_fenv_abstract_status)
FUNC 4e002 11 0 operator|=(__acrt_fenv_machine_sse_control&, __acrt_fenv_machine_sse_control)
FUNC 4e017 f 0 operator|=(__acrt_fenv_machine_sse_status&, __acrt_fenv_machine_sse_status)
FUNC 4e029 11 0 operator|=(__acrt_fenv_machine_x87_control&, __acrt_fenv_machine_x87_control)
FUNC 4e03e f 0 operator|=(__acrt_fenv_machine_x87_status&, __acrt_fenv_machine_x87_status)
FUNC 4e050 1d 0 __acrt_fenv_shift_abstract_sse_control(const __acrt_fenv_abstract_control)
FUNC 4e074 10 0 __acrt_fenv_shift_abstract_sse_status(const __acrt_fenv_abstract_status)
FUNC 4e088 1d 0 __acrt_fenv_shift_abstract_x87_control(const __acrt_fenv_abstract_control)
FUNC 4e0ac 10 0 __acrt_fenv_shift_abstract_x87_status(const __acrt_fenv_abstract_status)
FUNC 4e0c0 1f 0 __acrt_fenv_unshift_abstract_sse_control(const __acrt_fenv_abstract_control)
FUNC 4e0e6 10 0 __acrt_fenv_unshift_abstract_sse_status(const __acrt_fenv_abstract_status)
FUNC 4e0fa 1f 0 __acrt_fenv_unshift_abstract_x87_control(const __acrt_fenv_abstract_control)
FUNC 4e120 10 0 __acrt_fenv_unshift_abstract_x87_status(const __acrt_fenv_abstract_status)
FUNC 4e134 21 0 get_machine_sse_control()
FUNC 4e15d 1f 0 get_machine_sse_status()
FUNC 4e183 24 0 get_machine_x87_control()
FUNC 4e1b0 18 0 get_machine_x87_status()
FUNC 4e1ce 2f 0 set_machine_sse_control(const __acrt_fenv_machine_sse_control)
FUNC 4e208 2a 0 set_machine_sse_status(const __acrt_fenv_machine_sse_status)
FUNC 4e23c 2e 0 set_machine_x87_control(const __acrt_fenv_machine_x87_control)
FUNC 4e275 2c 0 set_machine_x87_status(const __acrt_fenv_machine_x87_status)
FUNC 4e2ac bc 0 to_abstract_control(const __acrt_fenv_machine_sse_control)
FUNC 4e397 b9 0 to_abstract_control(const __acrt_fenv_machine_x87_control)
FUNC 4e47e cd 0 to_machine_sse_control(const __acrt_fenv_abstract_control)
FUNC 4e57e 50 0 to_machine_sse_status(const __acrt_fenv_abstract_status)
FUNC 4e5e2 cb 0 to_machine_x87_control(const __acrt_fenv_abstract_control)
FUNC 4e6df 50 0 to_machine_x87_status(const __acrt_fenv_abstract_status)
FUNC 4e743 3b 0 translate_control_denormal_control_from_sse(const __acrt_fenv_machine_sse_control)
FUNC 4e78c 38 0 translate_control_denormal_control_to_sse(const __acrt_fenv_abstract_control)
FUNC 4e7d2 36 0 __acrt_fenv_expand_round_control(__acrt_fenv_abstract_control)
FUNC 4e815 22 0 __acrt_fenv_get_common_round_control(__acrt_fenv_abstract_control)
FUNC 4e83f 80 0 __acrt_fenv_get_control()
FUNC 4e8df 1a 0 __acrt_fenv_get_fp_status_word_from_exception_mask(__acrt_fenv_abstract_status)
FUNC 4e8ff b8 0 __acrt_fenv_get_status()
FUNC 4e9e5 68 0 __acrt_fenv_set_control(__acrt_fenv_abstract_control)
FUNC 4ea67 f7 0 __acrt_fenv_set_status(__acrt_fenv_abstract_status)
FUNC 4eb9b aa 0 __abstract_cw_sse2(unsigned int)
FUNC 4ec6f 43 0 __abstract_sw_sse2(unsigned int)
FUNC 4ecc2 56 0 __clearfp_sse2(<NoType>)
FUNC 4ed2d 318 0 __control87_2(unsigned int, unsigned int, unsigned int*, unsigned int*)
FUNC 4f10b 180 0 __control87_sse2(unsigned int, unsigned int)
FUNC 4f2eb c 0 __fpreset_sse2(<NoType>)
FUNC 4f2fa a7 0 __hw_cw_sse2(unsigned int)
FUNC 4f3ca 41 0 __statusfp_sse2(<NoType>)
FUNC 4f41b 9f 0 _abstract_cw(unsigned short)
FUNC 4f4e1 43 0 _abstract_sw(unsigned short)
FUNC 4f534 de 0 _clearfp(<NoType>)
FUNC 4f649 301 0 _control87(unsigned int, unsigned int)
FUNC 4fa0a 1a 0 _controlfp(unsigned int, unsigned int)
FUNC 4fa2a 32 0 _fpreset(<NoType>)
FUNC 4fa68 9e 0 _hw_cw(unsigned int)
FUNC 4fb2d 73 0 _set_controlfp(unsigned int, unsigned int)
FUNC 4fbbc 9b 0 _statusfp(<NoType>)
FUNC 4fc7d 63 0 _statusfp2(unsigned int*, unsigned int*)
FUNC 4fcf8 10 0 __acrt_initialize_sse2(<NoType>)
FUNC 4fd0c 21 0 _set_SSE2_enable(int)
FUNC 4fd40 284 0 _CIlog10_pentium4()
FUNC 500a0 d 0 _fFEXP()
PUBLIC 500f7 0 _rtinfpopse
PUBLIC 500f9 0 _rtinfnpopse
PUBLIC 50109 0 _fFLN
PUBLIC 501be 0 _rtinfpop
PUBLIC 501c0 0 _rtinfnpop
FUNC 501d0 d 0 _rtforexpinf()
PUBLIC 501dd 0 _ffexpm1
FUNC 50310 75 0 _trandisp1()
FUNC 50385 9a 0 _trandisp2()
PUBLIC 5041f 0 _rttospopde
PUBLIC 50424 0 _rttospop
FUNC 50430 2 0 _rtnospop()
FUNC 50440 1 0 _rttosnpop()
PUBLIC 50441 0 _rtnospopde
PUBLIC 50448 0 _rtzeropop
PUBLIC 5044a 0 _rtzeronpop
FUNC 50450 c 0 _rtzerospop()
PUBLIC 5045d 0 _rtonepop
FUNC 50460 5 0 _rtonenpop()
FUNC 50470 1d 0 _tosnan1()
FUNC 504a0 2 0 _nosnan2()
FUNC 504b0 28 0 _tosnan2()
FUNC 504e0 3f 0 _nan2()
FUNC 50520 2 0 _rtindfpop()
PUBLIC 50522 0 _rtindfnpop
PUBLIC 50533 0 _rttosnpopde
FUNC 50540 1d 0 _rtatan2inf()
PUBLIC 5055d 0 _rtchsifneg
FUNC 505f9 15 0 __setfflag(const int)
FUNC 50620 15 0 _twoToTOS()
FUNC 50635 17 0 _load_CW()
FUNC 5064c 19 0 _convertTOStoQNaN()
FUNC 50665 43 0 _fload_withFB()
FUNC 506a8 16 0 _checkTOS_withFB()
FUNC 506be d 0 _fast_exit()
FUNC 506cb 2a 0 _math_exit()
FUNC 506f5 14 0 _check_overflow_exit()
FUNC 50709 a3 0 _check_range_exit()
FUNC 50810 17 0 _startTwoArgErrorHandling(unsigned long, unsigned long, uint64_t, uint64_t)
FUNC 50827 3c 0 _startOneArgErrorHandling(unsigned long, unsigned long, uint64_t)
FUNC 50877 1f4 0 __libm_error_support(void*, void*, void*, error_types)
FUNC 50ae8 27 0 __libm_setusermatherr(int (*)(_exception*))
FUNC 50b18 b5 0 _ceil_default(double)
FUNC 50bfa 3e 0 __acrt_LCMapStringW(wchar_t const*, unsigned long, wchar_t const*, int, wchar_t*, int)
FUNC 50c47 6f 4 __acrt_OutputDebugStringA(char const*)
FUNC 50cd1 5f 0 _controlfp_s(unsigned int*, unsigned int, unsigned int)
FUNC 50d47 21 0 __clrfp_sse2(<NoType>)
FUNC 50d70 3b 0 __ctrlfp_sse2(unsigned int, unsigned int)
FUNC 50db9 1d 0 __fclrf_sse2()
FUNC 50ddd 1c 0 __get_fpsr_sse2()
FUNC 50e00 80 0 __set_fpsr_sse2(unsigned int)
FUNC 50ea0 1b 0 __set_statfp_sse2(unsigned int)
FUNC 50ec1 15 0 __statfp_sse2(<NoType>)
FUNC 50edb 11 0 _clrfp(<NoType>)
FUNC 50ef0 2a 0 _ctrlfp(unsigned int, unsigned int)
FUNC 50f24 59 0 _set_statfp(unsigned int)
FUNC 50f93 10 0 _statfp(<NoType>)
FUNC 50fa7 68 0 _d_inttype(double)
FUNC 51029 12b 0 _powhlp(double, double, double*)
FUNC 5119e 10a 0 _87except(int, _exception*, wchar_t*)
FUNC 512ea 14 0 _frnd(double)
FUNC 51303 34 0 _errcode(unsigned int)
FUNC 51344 ce 0 _except1(int, int, double, double, unsigned int)
FUNC 51445 e2 0 _except2(int, int, double, double, double, unsigned int)
FUNC 5155f 26 0 _get_fname(unsigned int)
FUNC 5158e 1eb 0 _handle_exc(unsigned int, double*, unsigned int)
FUNC 517f3 d 0 _handle_qnan2(double, double)
FUNC 51803 23 0 _raise_exc(_FPIEEE_RECORD*, unsigned int*, int, int, double*, double*)
FUNC 5182e 2f6 0 _raise_exc_ex(_FPIEEE_RECORD*, unsigned int*, int, int, void*, void*, int)
FUNC 51be1 23 0 _raise_excf(_FPIEEE_RECORD*, unsigned int*, int, int, float*, float*)
FUNC 51c0c 2f 0 _set_errno_from_matherr(int)
FUNC 51c46 a0 0 _umatherr(int, unsigned int, double, double, double, unsigned int)
FUNC 51d0e 2f 0 _add_exp(double, int)
FUNC 51d48 d2 0 _decomp(double, int*)
FUNC 51e4e 18 0 _get_exp(double)
FUNC 51e6c 27 0 _set_bexp(double, int)
FUNC 51e9c 2d 0 _set_exp(double, int)
FUNC 51ed4 5e 0 _sptype(double)
FUNC 51f49 1a3 0 _mbstowcs_l_helper(wchar_t*, char const*, unsigned int, __crt_locale_pointers*)
FUNC 52154 b 0 _mbstowcs_l(wchar_t*, char const*, unsigned int, __crt_locale_pointers*)
FUNC 52161 e0 0 _mbstowcs_s_l(unsigned int*, wchar_t*, unsigned int, char const*, unsigned int, __crt_locale_pointers*)
FUNC 52279 2a 0 mbstowcs(wchar_t*, char const*, unsigned int)
FUNC 522ad 20 0 mbstowcs_s(unsigned int*, wchar_t*, unsigned int, char const*, unsigned int)
FUNC 522d5 28 0 _chgsign(double)
FUNC 52307 21 0 _chgsignf(float)
FUNC 52330 23 0 _copysign(double, double)
FUNC 5235b 1c 0 _copysignf(float, float)
FUNC 5237e 1a 0 _finite(double)
FUNC 5239e a4 0 _fpclass(double)
FUNC 5246b 36 0 _isnan(double)
FUNC 524ae cf 0 _logb(double)
FUNC 525b0 1f 0 _nextafter(double, double)
FUNC 525d6 1a 0 _scalb(double, long)
FUNC 525f6 1f2 0 ldexp(double, int)
FUNC 52864 1f 0 nextafter(double, double)
FUNC 5288a 159 0 nexttoward(double, double)
FUNC 52a39 78 0 fperrraise_with(int, unsigned long)
FUNC 52acf 106 0 _d_int(double*, short)
FUNC 52c16 64 0 _dtest(double*)
FUNC 52c93 cd 0 _fd_int(float*, short)
FUNC 52d93 4e 0 _fdtest(float*)
FUNC 52df4 21 0 _fperrraise(int)
FUNC 52e1d b 0 _ld_int(double*, short)
FUNC 52e2a b 0 _ldtest(double*)
FUNC 52e37 f 0 operator&=(__acrt_fenv_abstract_status&, __acrt_fenv_abstract_status)
FUNC 52e49 31 0 fegetexceptflag(unsigned long*, int)
FUNC 52e86 c 0 operator~(__acrt_fenv_abstract_status)
FUNC 52e95 59 0 fesetexceptflag(unsigned long const*, int)
FUNC 52f04 20 0 fetestexcept(int)
FUNC 52f30 43 0 _FindPESection(unsigned char*, unsigned long)
FUNC 52f90 ba 0 _IsNonwritableInCurrentImage(void const*)
FUNC 53080 33 0 _ValidateImageBase(unsigned char*)
FUNC 530bf 15 0 _EH_epilog3()
FUNC 530d9 11 0 _EH_epilog3_GS()
FUNC 530ee 11 0 _EH_epilog3_catch_GS()
FUNC 53103 34 0 _EH_prolog3(unsigned long)
FUNC 53144 37 0 _EH_prolog3_GS(unsigned long)
FUNC 53188 37 0 _EH_prolog3_catch(unsigned long)
FUNC 531cc 3a 0 _EH_prolog3_catch_GS(unsigned long)
FUNC 53220 95 0 _aulldvrm()
FUNC 532da 7 0 type_info::~type_info()
FUNC 532e1 23 0 type_info::`scalar deleting destructor'(unsigned int)
FUNC 53310 34 0 _allmul()
FUNC 53360 df 0 _alldvrm()
FUNC 53480 1f 0 _aullshr()
FUNC 534b0 2c 0 _alloca_probe_16()
FUNC 534f0 2d 0 _chkstk()
FUNC 53530 1f 0 _allshl()
FUNC 53560 9 0 _ftol2_sse()
FUNC 53569 13 0 _ftol2_pentium4()
FUNC 5357c 1a 0 _ftol2_sse_excpt()
FUNC 535a0 75 0 _ftol2()
FUNC 53642 21 0 _initialize_default_precision()
PUBLIC 5366b 8 InterlockedPushEntrySList
PUBLIC 53671 4 InterlockedFlushSList
PUBLIC 53677 10 RtlUnwind
PUBLIC 5367d 0 GetLastError
PUBLIC 53683 4 SetLastError
PUBLIC 53689 4 EnterCriticalSection
PUBLIC 5368f 4 LeaveCriticalSection
PUBLIC 53695 4 DeleteCriticalSection
PUBLIC 5369b 8 InitializeCriticalSectionAndSpinCount
PUBLIC 536a1 0 TlsAlloc
PUBLIC 536a7 4 TlsGetValue
PUBLIC 536ad 8 TlsSetValue
PUBLIC 536b3 4 TlsFree
PUBLIC 536b9 4 FreeLibrary
PUBLIC 536bf 8 GetProcAddress
PUBLIC 536c5 c LoadLibraryExW
PUBLIC 536cb 4 EncodePointer
PUBLIC 536d1 10 RaiseException
PUBLIC 536d7 4 ExitProcess
PUBLIC 536dd c GetModuleHandleExW
PUBLIC 536e3 c GetModuleFileNameW
PUBLIC 536e9 0 GetCurrentThread
PUBLIC 536ef c HeapFree
PUBLIC 536f5 c HeapAlloc
PUBLIC 536fb 4 FindClose
PUBLIC 53701 18 FindFirstFileExW
PUBLIC 53707 8 FindNextFileW
PUBLIC 5370d 4 IsValidCodePage
PUBLIC 53713 0 GetACP
PUBLIC 53719 0 GetOEMCP
PUBLIC 5371f 8 GetCPInfo
PUBLIC 53725 0 GetCommandLineA
PUBLIC 5372b 0 GetCommandLineW
PUBLIC 53731 18 MultiByteToWideChar
PUBLIC 53737 20 WideCharToMultiByte
PUBLIC 5373d 0 GetEnvironmentStringsW
PUBLIC 53743 4 FreeEnvironmentStringsW
PUBLIC 53749 8 SetEnvironmentVariableW
PUBLIC 5374f 18 GetDateFormatW
PUBLIC 53755 18 GetTimeFormatW
PUBLIC 5375b 18 CompareStringW
PUBLIC 53761 18 LCMapStringW
PUBLIC 53767 10 GetLocaleInfoW
PUBLIC 5376d 8 IsValidLocale
PUBLIC 53773 0 GetUserDefaultLCID
PUBLIC 53779 8 EnumSystemLocalesW
PUBLIC 5377f 0 GetProcessHeap
PUBLIC 53785 4 GetStdHandle
PUBLIC 5378b 4 GetFileType
PUBLIC 53791 8 SetConsoleCtrlHandler
PUBLIC 53797 10 GetStringTypeW
PUBLIC 5379d c HeapSize
PUBLIC 537a3 10 HeapReAlloc
PUBLIC 537a9 8 SetStdHandle
PUBLIC 537af 4 FlushFileBuffers
PUBLIC 537b5 14 WriteFile
PUBLIC 537bb 0 GetConsoleCP
PUBLIC 537c1 8 GetConsoleMode
PUBLIC 537c7 8 GetFileSizeEx
PUBLIC 537cd 14 SetFilePointerEx
PUBLIC 537d3 14 ReadFile
PUBLIC 537d9 14 ReadConsoleW
PUBLIC 537df 4 OutputDebugStringW
PUBLIC 537e5 1c CreateFileW
PUBLIC 537eb 4 CloseHandle
PUBLIC 537f1 14 WriteConsoleW
PUBLIC 537f7 4 DecodePointer
FUNC 53800 12b 0 strchr(unsigned char*, unsigned char)
FUNC 53975 c7 0 wcschr(wchar_t const*, wchar_t)
FUNC 53a70 137 0 strrchr(unsigned char*, unsigned char)
FUNC 53bf4 25 0 cmpBYTE(void const*, void const*)
FUNC 53c22 65 0 cmpDWORD(void const*, void const*)
FUNC 53ca0 1c 0 cmpResult(int)
FUNC 53cc3 4f 0 cmpWORD(void const*, void const*)
FUNC 53d25 fa4 0 memcmp(void const*, void const*, unsigned int)
FUNC 550b2 de0 0 unaligned_memcmp(unsigned char const*, unsigned char const*, unsigned int)
PUBLIC 55e92 0 <unknown in basic32.dll>
STACK WIN 4 6be0 18 4 0 4 0 0 0 1 $T0 .raSearch = $eip $T0 ^ = $esp $T0 4 + =
STACK WIN 4 6be1 17 3 0 4 4 0 0 1 $T0 .raSearch = $eip $T0 ^ = $esp $T0 4 + = $ebp $T0 4 - ^ =
STACK WIN 4 6be3 15 1 0 4 4 0 0 1 $T0 $ebp 4 + = $eip $T0 ^ = $esp $T0 4 + = $ebp $T0 4 - ^ =
STACK WIN 4 6c00 17 6 0 8 0 0 0 1 $T0 .raSearch = $eip $T0 ^ = $esp $T0 4 + =
STACK WIN 4 6c01 16 5 0 8 4 0 0 1 $T0 .raSearch = $eip $T0 ^ = $esp $T0 4 + = $ebp $T0 4 - ^ =
STACK WIN 4 6c03 14 3 0 8 4 0 0 1 $T0 $ebp 4 + = $eip $T0 ^ = $esp $T0 4 + = $ebp $T0 4 - ^ =
STACK WIN 4 6c20 1f 6 0 c 0 0 0 1 $T0 .raSearch = $eip $T0 ^ = $esp $T0 4 + =
STACK WIN 4 6c21 1e 5 0 c 4 0 0 1 $T0 .raSearch = $eip $T0 ^ = $esp $T0 4 + = $ebp $T0 4 - ^ =
STACK WIN 4 6c23 1c 3 0 c 4 0 0 1 $T0 $ebp 4 + = $eip $T0 ^ = $esp $T0 4 + = $ebp $T0 4 - ^ =
STACK WIN 4 6c40 27 7 0 10 0 0 0 1 $T0 .raSearch = $eip $T0 ^ = $esp $T0 4 + =
STACK WIN 4 6c41 26 6 0 10 4 0 0 1 $T0 .raSearch = $eip $T0 ^ = $esp $T0 4 + = $ebp $T0 4 - ^ =
STACK WIN 4 6c43 24 4 0 10 4 0 0 1 $T0 $ebp 4 + = $eip $T0 ^ = $esp $T0 4 + = $ebp $T0 4 - ^ =
STACK WIN 4 6c44 23 3 0 10 8 0 0 1 $T0 $ebp 4 + = $eip $T0 ^ = $esp $T0 4 + = $ebp $T0 4 - ^ = $esi $T0 8 - ^ =
STACK WIN 4 6c70 12 3 0 28 0 0 0 1 $T0 .raSearch = $eip $T0 ^ = $esp $T0 4 + =
STACK WIN 4 6c71 11 2 0 28 4 0 0 1 $T0 .raSearch = $eip $T0 ^ = $esp $T0 4 + = $ebp $T0 4 - ^ =
STACK WIN 4 6c73 f 0 0 28 4 0 0 1 $T0 $ebp 4 + = $eip $T0 ^ = $esp $T0 4 + = $ebp $T0 4 - ^ =
STACK WIN 4 6c90 1d 6 0 c 0 0 0 1 $T0 .raSearch = $eip $T0 ^ = $esp $T0 4 + =
STACK WIN 4 6c91 1c 5 0 c 4 0 0 1 $T0 .raSearch = $eip $T0 ^ = $esp $T0 4 + = $ebp $T0 4 - ^ =
STACK WIN 4 6c93 1a 3 0 c 4 0 0 1 $T0 $ebp 4 + = $eip $T0 ^ = $esp $T0 4 + = $ebp $T0 4 - ^ =
STACK WIN 4 6cb0 13 4 0 4 0 0 0 1 $T0 .raSearch = $eip $T0 ^ = $esp $T0 4 + =
STACK WIN 4 6cb1 12 3 0 4 4 0 0 1 $T0 .raSearch = $eip $T0 ^ = $esp $T0 4 + = $ebp $T0 4 - ^ =
STACK WIN 4 6cb3 10 1 0 4 4 0 0 1 $T0 $ebp 4 + = $eip $T0 ^ = $esp $T0 4 + = $ebp $T0 4 - ^ =
STACK WIN 4 6cd0 13 4 0 4 0 0 0 1 $T0 .raSearch = $eip $T0 ^ = $esp $T0 4 + =
STACK WIN 4 6cd1 12 3 0 4 4 0 0 1 $T0 .raSearch = $eip $T0 ^ = $esp $T0 4 + = $ebp $T0 4 - ^ =
STACK WIN 4 6cd3 10 1 0 4 4 0 0 1 $T0 $ebp 4 + = $eip $T0 ^ = $esp $T0 4 + = $ebp $T0 4 - ^ =
STACK WIN 4 6cf0 13 4 0 4 0 0 0 1 $T0 .raSearch = $eip $T0 ^ = $esp $T0 4 + =
STACK WIN 4 6cf1 12 3 0 4 4 0 0 1 $T0 .raSearch = $eip $T0 ^ = $esp $T0 4 + = $ebp $T0 4 - ^ =
STACK WIN 4 6cf3 10 1 0 4 4 0 0 1 $T0 $ebp 4 + = $eip $T0 ^ = $esp $T0 4 + = $ebp $T0 4 - ^ =
STACK WIN 4 6d10 13 4 0 4 0 0 0 1 $T0 .raSearch = $eip $T0 ^ = $esp $T0 4 + =
STACK WIN 4 6d11 12 3 0 4 4 0 0 1 $T0 .raSearch = $eip $T0 ^ = $esp $T0 4 + = $ebp $T0 4 - ^ =
STACK WIN 4 6d13 10 1 0 4 4 0 0 1 $T0 $ebp 4 + = $eip $T0 ^ = $esp $T0 4 + = $ebp $T0 4 - ^ =
STACK WIN 4 6d30 2b 8 0 10 0 0 0 1 $T0 .raSearch = $eip $T0 ^ = $esp $T0 4 + =
STACK WIN 4 6d31 2a 7 0 10 4 0 0 1 $T0 .raSearch = $eip $T0 ^ = $esp $T0 4 + = $ebp $T0 4 - ^ =
STACK WIN 4 6d33 28 5 0 10 4 0 0 1 $T0 $ebp 4 + = $eip $T0 ^ = $esp $T0 4 + = $ebp $T0 4 - ^ =
STACK WIN 4 6d34 27 4 0 10 8 0 0 1 $T0 $ebp 4 + = $eip $T0 ^ = $esp $T0 4 + = $ebp $T0 4 - ^ = $edi $T0 8 - ^ =
STACK WIN 4 6d35 26 3 0 10 c 0 0 1 $T0 $ebp 4 + = $eip $T0 ^ = $esp $T0 4 + = $ebp $T0 4 - ^ = $edi $T0 8 - ^ = $esi $T0 12 - ^ =
STACK WIN 4 6d60 2b 8 0 10 0 0 0 1 $T0 .raSearch = $eip $T0 ^ = $esp $T0 4 + =
STACK WIN 4 6d61 2a 7 0 10 4 0 0 1 $T0 .raSearch = $eip $T0 ^ = $esp $T0 4 + = $ebp $T0 4 - ^ =
STACK WIN 4 6d63 28 5 0 10 4 0 0 1 $T0 $ebp 4 + = $eip $T0 ^ = $esp $T0 4 + = $ebp $T0 4 - ^ =
STACK WIN 4 6d64 27 4 0 10 8 0 0 1 $T0 $ebp 4 + = $eip $T0 ^ = $esp $T0 4 + = $ebp $T0 4 - ^ = $edi $T0 8 - ^ =
STACK WIN 4 6d65 26 3 0 10 c 0 0 1 $T0 $ebp 4 + = $eip $T0 ^ = $esp $T0 4 + = $ebp $T0 4 - ^ = $edi $T0 8 - ^ = $esi $T0 12 - ^ =
STACK WIN 4 6e00 21 6 0 0 0 0 0 1 $T0 .raSearch = $eip $T0 ^ = $esp $T0 4 + =
STACK WIN 4 6e01 20 5 0 0 4 0 0 1 $T0 .raSearch = $eip $T0 ^ = $esp $T0 4 + = $ebp $T0 4 - ^ =
STACK WIN 4 6e03 1e 3 0 0 4 0 0 1 $T0 $ebp 4 + = $eip $T0 ^ = $esp $T0 4 + = $ebp $T0 4 - ^ =
STACK WIN 4 6e30 f 4 0 0 0 0 0 1 $T0 .raSearch = $eip $T0 ^ = $esp $T0 4 + =
STACK WIN 4 6e31 e 3 0 0 4 0 0 1 $T0 .raSearch = $eip $T0 ^ = $esp $T0 4 + = $ebp $T0 4 - ^ =
STACK WIN 4 6e33 c 1 0 0 4 0 0 1 $T0 $ebp 4 + = $eip $T0 ^ = $esp $T0 4 + = $ebp $T0 4 - ^ =
STACK WIN 4 6e50 1b 6 0 4 0 0 0 1 $T0 .raSearch = $eip $T0 ^ = $esp $T0 4 + =
STACK WIN 4 6e51 1a 5 0 4 4 0 0 1 $T0 .raSearch = $eip $T0 ^ = $esp $T0 4 + = $ebp $T0 4 - ^ =
STACK WIN 4 6e53 18 3 0 4 4 0 0 1 $T0 $ebp 4 + = $eip $T0 ^ = $esp $T0 4 + = $ebp $T0 4 - ^ =
STACK WIN 4 6e80 c 4 0 0 0 0 0 1 $T0 .raSearch = $eip $T0 ^ = $esp $T0 4 + =
STACK WIN 4 6e81 b 3 0 0 4 0 0 1 $T0 .raSearch = $eip $T0 ^ = $esp $T0 4 + = $ebp $T0 4 - ^ =
STACK WIN 4 6e83 9 1 0 0 4 0 0 1 $T0 $ebp 4 + = $eip $T0 ^ = $esp $T0 4 + = $ebp $T0 4 - ^ =
STACK WIN 4 6e90 16 6 0 4 0 0 0 1 $T0 .raSearch = $eip $T0 ^ = $esp $T0 4 + =
STACK WIN 4 6e91 15 5 0 4 4 0 0 1 $T0 .raSearch = $eip $T0 ^ = $esp $T0 4 + = $ebp $T0 4 - ^ =
STACK WIN 4 6e93 13 3 0 4 4 0 0 1 $T0 $ebp 4 + = $eip $T0 ^ = $esp $T0 4 + = $ebp $T0 4 - ^ =
STACK WIN 4 6eb0 1e 9 0 8 0 0 0 1 $T0 .raSearch = $eip $T0 ^ = $esp $T0 4 + =
STACK WIN 4 6eb1 1d 8 0 8 4 0 0 1 $T0 .raSearch = $eip $T0 ^ = $esp $T0 4 + = $ebp $T0 4 - ^ =
STACK WIN 4 6eb3 1b 6 0 8 4 0 0 1 $T0 $ebp 4 + = $eip $T0 ^ = $esp $T0 4 + = $ebp $T0 4 - ^ =
STACK WIN 4 6eb6 18 3 0 8 4 0 0 1 $T1 $ebp 4 + = $T0 $T1 4 - 8 @ = $eip $T1 ^ = $esp $T1 4 + = $ebp $T1 4 - ^ =
STACK WIN 4 6ee0 1e 6 0 8 0 0 0 1 $T0 .raSearch = $eip $T0 ^ = $esp $T0 4 + =
STACK WIN 4 6ee1 1d 5 0 8 4 0 0 1 $T0 .raSearch = $eip $T0 ^ = $esp $T0 4 + = $ebp $T0 4 - ^ =
STACK WIN 4 6ee3 1b 3 0 8 4 0 0 1 $T0 $ebp 4 + = $eip $T0 ^ = $esp $T0 4 + = $ebp $T0 4 - ^ =
STACK WIN 4 6f10 16 6 0 4 0 0 0 1 $T0 .raSearch = $eip $T0 ^ = $esp $T0 4 + =
STACK WIN 4 6f11 15 5 0 4 4 0 0 1 $T0 .raSearch = $eip $T0 ^ = $esp $T0 4 + = $ebp $T0 4 - ^ =
STACK WIN 4 6f13 13 3 0 4 4 0 0 1 $T0 $ebp 4 + = $eip $T0 ^ = $esp $T0 4 + = $ebp $T0 4 - ^ =
STACK WIN 4 6f30 22 9 0 8 0 0 0 1 $T0 .raSearch = $eip $T0 ^ = $esp $T0 4 + =
STACK WIN 4 6f31 21 8 0 8 4 0 0 1 $T0 .raSearch = $eip $T0 ^ = $esp $T0 4 + = $ebp $T0 4 - ^ =
STACK WIN 4 6f33 1f 6 0 8 4 0 0 1 $T0 $ebp 4 + = $eip $T0 ^ = $esp $T0 4 + = $ebp $T0 4 - ^ =
STACK WIN 4 6f36 1c 3 0 8 4 0 0 1 $T1 $ebp 4 + = $T0 $T1 4 - 8 @ = $eip $T1 ^ = $esp $T1 4 + = $ebp $T1 4 - ^ =
STACK WIN 4 6f60 17 4 0 8 0 0 0 1 $T0 .raSearch = $eip $T0 ^ = $esp $T0 4 + =
STACK WIN 4 6f61 16 3 0 8 4 0 0 1 $T0 .raSearch = $eip $T0 ^ = $esp $T0 4 + = $ebp $T0 4 - ^ =
STACK WIN 4 6f63 14 1 0 8 4 0 0 1 $T0 $ebp 4 + = $eip $T0 ^ = $esp $T0 4 + = $ebp $T0 4 - ^ =
STACK WIN 4 6f80 21 7 0 c 0 0 0 1 $T0 .raSearch = $eip $T0 ^ = $esp $T0 4 + =
STACK WIN 4 6f81 20 6 0 c 4 0 0 1 $T0 .raSearch = $eip $T0 ^ = $esp $T0 4 + = $ebp $T0 4 - ^ =
STACK WIN 4 6f83 1e 4 0 c 4 0 0 1 $T0 $ebp 4 + = $eip $T0 ^ = $esp $T0 4 + = $ebp $T0 4 - ^ =
STACK WIN 4 6f84 1d 3 0 c 8 0 0 1 $T0 $ebp 4 + = $eip $T0 ^ = $esp $T0 4 + = $ebp $T0 4 - ^ = $esi $T0 8 - ^ =
STACK WIN 4 6fb0 ca 6 0 0 0 0 0 1 $T0 .raSearch = $eip $T0 ^ = $esp $T0 4 + =
STACK WIN 4 6fb1 c9 5 0 0 4 0 0 1 $T0 .raSearch = $eip $T0 ^ = $esp $T0 4 + = $ebp $T0 4 - ^ =
STACK WIN 4 6fb3 c7 3 0 0 4 0 0 1 $T0 $ebp 4 + = $eip $T0 ^ = $esp $T0 4 + = $ebp $T0 4 - ^ =
STACK WIN 4 70b0 14 4 0 0 0 0 0 1 $T0 .raSearch = $eip $T0 ^ = $esp $T0 4 + =
STACK WIN 4 70b1 13 3 0 0 4 0 0 1 $T0 .raSearch = $eip $T0 ^ = $esp $T0 4 + = $ebp $T0 4 - ^ =
STACK WIN 4 70b3 11 1 0 0 4 0 0 1 $T0 $ebp 4 + = $eip $T0 ^ = $esp $T0 4 + = $ebp $T0 4 - ^ =
STACK WIN 4 70d0 1b 4 0 0 0 0 0 1 $T0 .raSearch = $eip $T0 ^ = $esp $T0 4 + =
STACK WIN 4 70d1 1a 3 0 0 4 0 0 1 $T0 .raSearch = $eip $T0 ^ = $esp $T0 4 + = $ebp $T0 4 - ^ =
STACK WIN 4 70d3 18 1 0 0 4 0 0 1 $T0 $ebp 4 + = $eip $T0 ^ = $esp $T0 4 + = $ebp $T0 4 - ^ =
STACK WIN 4 7100 14 4 0 0 0 0 0 1 $T0 .raSearch = $eip $T0 ^ = $esp $T0 4 + =
STACK WIN 4 7101 13 3 0 0 4 0 0 1 $T0 .raSearch = $eip $T0 ^ = $esp $T0 4 + = $ebp $T0 4 - ^ =
STACK WIN 4 7103 11 1 0 0 4 0 0 1 $T0 $ebp 4 + = $eip $T0 ^ = $esp $T0 4 + = $ebp $T0 4 - ^ =
STACK WIN 4 7120 20 4 0 0 0 0 0 1 $T0 .raSearch = $eip $T0 ^ = $esp $T0 4 + =
STACK WIN 4 7121 1f 3 0 0 4 0 0 1 $T0 .raSearch = $eip $T0 ^ = $esp $T0 4 + = $ebp $T0 4 - ^ =
STACK WIN 4 7123 1d 1 0 0 4 0 0 1 $T0 $ebp 4 + = $eip $T0 ^ = $esp $T0 4 + = $ebp $T0 4 - ^ =
STACK WIN 4 7150 14 4 0 0 0 0 0 1 $T0 .raSearch = $eip $T0 ^ = $esp $T0 4 + =
STACK WIN 4 7151 13 3 0 0 4 0 0 1 $T0 .raSearch = $eip $T0 ^ = $esp $T0 4 + = $ebp $T0 4 - ^ =
STACK WIN 4 7153 11 1 0 0 4 0 0 1 $T0 $ebp 4 + = $eip $T0 ^ = $esp $T0 4 + = $ebp $T0 4 - ^ =
STACK WIN 4 7170 17 6 0 8 0 0 0 1 $T0 .raSearch = $eip $T0 ^ = $esp $T0 4 + =
STACK WIN 4 7171 16 5 0 8 4 0 0 1 $T0 .raSearch = $eip $T0 ^ = $esp $T0 4 + = $ebp $T0 4 - ^ =
STACK WIN 4 7173 14 3 0 8 4 0 0 1 $T0 $ebp 4 + = $eip $T0 ^ = $esp $T0 4 + = $ebp $T0 4 - ^ =
STACK WIN 4 7190 14 4 0 4 0 0 0 1 $T0 .raSearch = $eip $T0 ^ = $esp $T0 4 + =
STACK WIN 4 7191 13 3 0 4 4 0 0 1 $T0 .raSearch = $eip $T0 ^ = $esp $T0 4 + = $ebp $T0 4 - ^ =
STACK WIN 4 7193 11 1 0 4 4 0 0 1 $T0 $ebp 4 + = $eip $T0 ^ = $esp $T0 4 + = $ebp $T0 4 - ^ =
STACK WIN 4 71b0 33 7 0 8 0 0 0 1 $T0 .raSearch = $eip $T0 ^ = $esp $T0 4 + =
STACK WIN 4 71b1 32 6 0 8 4 0 0 1 $T0 .raSearch = $eip $T0 ^ = $esp $T0 4 + = $ebp $T0 4 - ^ =
STACK WIN 4 71b3 30 4 0 8 4 0 0 1 $T0 $ebp 4 + = $eip $T0 ^ = $esp $T0 4 + = $ebp $T0 4 - ^ =
STACK WIN 4 71b4 2f 3 0 8 8 0 0 1 $T0 $ebp 4 + = $eip $T0 ^ = $esp $T0 4 + = $ebp $T0 4 - ^ = $esi $T0 8 - ^ =
STACK WIN 4 71f0 23 7 0 8 0 0 0 1 $T0 .raSearch = $eip $T0 ^ = $esp $T0 4 + =
STACK WIN 4 71f1 22 6 0 8 4 0 0 1 $T0 .raSearch = $eip $T0 ^ = $esp $T0 4 + = $ebp $T0 4 - ^ =
STACK WIN 4 71f3 20 4 0 8 4 0 0 1 $T0 $ebp 4 + = $eip $T0 ^ = $esp $T0 4 + = $ebp $T0 4 - ^ =
STACK WIN 4 71f4 1f 3 0 8 8 0 0 1 $T0 $ebp 4 + = $eip $T0 ^ = $esp $T0 4 + = $ebp $T0 4 - ^ = $ebx $T0 8 - ^ =
STACK WIN 4 7220 c 4 0 0 0 0 0 1 $T0 .raSearch = $eip $T0 ^ = $esp $T0 4 + =
STACK WIN 4 7221 b 3 0 0 4 0 0 1 $T0 .raSearch = $eip $T0 ^ = $esp $T0 4 + = $ebp $T0 4 - ^ =
STACK WIN 4 7223 9 1 0 0 4 0 0 1 $T0 $ebp 4 + = $eip $T0 ^ = $esp $T0 4 + = $ebp $T0 4 - ^ =
STACK WIN 4 7230 f 4 0 0 0 0 0 1 $T0 .raSearch = $eip $T0 ^ = $esp $T0 4 + =
STACK WIN 4 7231 e 3 0 0 4 0 0 1 $T0 .raSearch = $eip $T0 ^ = $esp $T0 4 + = $ebp $T0 4 - ^ =
STACK WIN 4 7233 c 1 0 0 4 0 0 1 $T0 $ebp 4 + = $eip $T0 ^ = $esp $T0 4 + = $ebp $T0 4 - ^ =
STACK WIN 4 7250 11 4 0 0 0 0 0 1 $T0 .raSearch = $eip $T0 ^ = $esp $T0 4 + =
STACK WIN 4 7251 10 3 0 0 4 0 0 1 $T0 .raSearch = $eip $T0 ^ = $esp $T0 4 + = $ebp $T0 4 - ^ =
STACK WIN 4 7253 e 1 0 0 4 0 0 1 $T0 $ebp 4 + = $eip $T0 ^ = $esp $T0 4 + = $ebp $T0 4 - ^ =
STACK WIN 4 7270 5f 6 0 8 0 0 0 1 $T0 .raSearch = $eip $T0 ^ = $esp $T0 4 + =
STACK WIN 4 7271 5e 5 0 8 4 0 0 1 $T0 .raSearch = $eip $T0 ^ = $esp $T0 4 + = $ebp $T0 4 - ^ =
STACK WIN 4 7273 5c 3 0 8 4 0 0 1 $T0 $ebp 4 + = $eip $T0 ^ = $esp $T0 4 + = $ebp $T0 4 - ^ =
STACK WIN 4 72f0 76 7 0 8 0 0 0 1 $T0 .raSearch = $eip $T0 ^ = $esp $T0 4 + =
STACK WIN 4 72f1 75 6 0 8 4 0 0 1 $T0 .raSearch = $eip $T0 ^ = $esp $T0 4 + = $ebp $T0 4 - ^ =
STACK WIN 4 72f3 73 4 0 8 4 0 0 1 $T0 $ebp 4 + = $eip $T0 ^ = $esp $T0 4 + = $ebp $T0 4 - ^ =
STACK WIN 4 72f4 72 3 0 8 8 0 0 1 $T0 $ebp 4 + = $eip $T0 ^ = $esp $T0 4 + = $ebp $T0 4 - ^ = $esi $T0 8 - ^ =
STACK WIN 4 7390 14 4 0 0 0 0 0 1 $T0 .raSearch = $eip $T0 ^ = $esp $T0 4 + =
STACK WIN 4 7391 13 3 0 0 4 0 0 1 $T0 .raSearch = $eip $T0 ^ = $esp $T0 4 + = $ebp $T0 4 - ^ =
STACK WIN 4 7393 11 1 0 0 4 0 0 1 $T0 $ebp 4 + = $eip $T0 ^ = $esp $T0 4 + = $ebp $T0 4 - ^ =
STACK WIN 4 73b0 14 4 0 0 0 0 0 1 $T0 .raSearch = $eip $T0 ^ = $esp $T0 4 + =
STACK WIN 4 73b1 13 3 0 0 4 0 0 1 $T0 .raSearch = $eip $T0 ^ = $esp $T0 4 + = $ebp $T0 4 - ^ =
STACK WIN 4 73b3 11 1 0 0 4 0 0 1 $T0 $ebp 4 + = $eip $T0 ^ = $esp $T0 4 + = $ebp $T0 4 - ^ =
STACK WIN 4 73d0 c 4 0 0 0 0 0 1 $T0 .raSearch = $eip $T0 ^ = $esp $T0 4 + =
STACK WIN 4 73d1 b 3 0 0 4 0 0 1 $T0 .raSearch = $eip $T0 ^ = $esp $T0 4 + = $ebp $T0 4 - ^ =
STACK WIN 4 73d3 9 1 0 0 4 0 0 1 $T0 $ebp 4 + = $eip $T0 ^ = $esp $T0 4 + = $ebp $T0 4 - ^ =
STACK WIN 4 9b20 11 0 0 0 0 0 0 1 $T0 .raSearch = $eip $T0 ^ = $esp $T0 4 + =
STACK WIN 4 9b35 e 3 0 8 0 0 0 1 $T0 $ebp = $eip $T0 4 + ^ = $ebp $T0 ^ = $esp $T0 8 + =
STACK WIN 4 9b46 53 3 0 c 0 0 0 1 $T0 $ebp = $eip $T0 4 + ^ = $ebp $T0 ^ = $esp $T0 8 + =
STACK WIN 4 9bad 10a c 0 8 10 20 0 1 $T0 $ebp = $eip $T0 4 + ^ = $ebp $T0 ^ = $esp $T0 8 + =  $20 $T0 36 - ^ =  $23 $T0 40 - ^ =  $24 $T0 44 - ^ =
STACK WIN 4 9ca2 c 0 0 8 10 20 0 1 $T0 $ebp = $T2 $esp = $T1 .raSearchStart = $eip $T1 ^ = $ebp $T0 = $esp $T1 4 + =
STACK WIN 4 9cf9 92 c 0 4 10 1c 0 1 $T0 $ebp = $eip $T0 4 + ^ = $ebp $T0 ^ = $esp $T0 8 + =  $20 $T0 32 - ^ =  $23 $T0 36 - ^ =  $24 $T0 40 - ^ =
STACK WIN 4 9d74 e 0 0 4 10 1c 0 1 $T0 $ebp = $T2 $esp = $T1 .raSearchStart = $eip $T1 ^ = $ebp $T0 = $esp $T1 4 + =
STACK WIN 4 9daf 106 c 0 c 10 1c 0 1 $T0 $ebp = $eip $T0 4 + ^ = $ebp $T0 ^ = $esp $T0 8 + =  $20 $T0 32 - ^ =  $23 $T0 36 - ^ =  $24 $T0 40 - ^ =
STACK WIN 4 9e75 1f 0 0 c 10 1c 0 1 $T0 $ebp = $T2 $esp = $T1 .raSearchStart = $eip $T1 ^ = $ebp $T0 = $esp $T1 4 + =
STACK WIN 4 9ef6 2b 4 0 c 0 0 0 1 $T0 $ebp = $eip $T0 4 + ^ = $ebp $T0 ^ = $esp $T0 8 + =
STACK WIN 4 9efa 23 0 0 c 4 0 0 1 $T0 $ebp = $eip $T0 4 + ^ = $ebp $T0 ^ = $esp $T0 8 + =  $23 $T0 4 - ^ =
STACK WIN 4 9f2b 9 3 0 c 0 0 0 1 $T0 $ebp = $eip $T0 4 + ^ = $ebp $T0 ^ = $esp $T0 8 + =
STACK WIN 4 9f36 23 3 0 c 0 0 0 1 $T0 $ebp = $eip $T0 4 + ^ = $ebp $T0 ^ = $esp $T0 8 + =
STACK WIN 4 9f61 28 3 0 4 0 0 0 1 $T0 $ebp = $eip $T0 4 + ^ = $ebp $T0 ^ = $esp $T0 8 + =
STACK WIN 4 9f93 f9 9 0 0 0 324 0 1 $T0 $ebp = $eip $T0 4 + ^ = $ebp $T0 ^ = $esp $T0 8 + =
STACK WIN 4 a0ca c 3 0 0 0 0 0 1 $T0 $ebp = $eip $T0 4 + ^ = $ebp $T0 ^ = $esp $T0 8 + =
STACK WIN 4 a0d9 ce 9 0 4 0 31c 0 1 $T0 $ebp = $eip $T0 4 + ^ = $ebp $T0 ^ = $esp $T0 8 + =
STACK WIN 4 a1da 114 9 0 c 0 320 0 1 $T0 $ebp = $eip $T0 4 + ^ = $ebp $T0 ^ = $esp $T0 8 + =
STACK WIN 4 a333 5 0 0 4 0 0 0 1 $T0 $ebp = $eip $T0 4 + ^ = $ebp $T0 ^ = $esp $T0 8 + =
STACK WIN 4 a338 4d 6 0 0 0 14 0 1 $T0 $ebp = $eip $T0 4 + ^ = $ebp $T0 ^ = $esp $T0 8 + =
STACK WIN 4 a398 4b 8 0 0 0 0 0 1 $T0 .raSearch = $eip $T0 ^ = $esp $T0 4 + =
STACK WIN 4 a39f 43 1 0 0 4 0 0 1 $T0 .raSearch = $eip $T0 ^ = $esp $T0 4 + =  $23 $T0 4 - ^ =
STACK WIN 4 a3a0 3b 0 0 0 8 0 0 1 $T0 .raSearch = $eip $T0 ^ = $esp $T0 4 + =  $23 $T0 4 - ^ =  $24 $T0 8 - ^ =
STACK WIN 4 a3f5 6 0 0 c 0 0 0 1 $T0 .raSearch = $eip $T0 ^ = $esp $T0 4 + =
STACK WIN 4 a3fb c 0 0 0 0 0 0 1 $T0 .raSearch = $eip $T0 ^ = $esp $T0 4 + =
STACK WIN 4 a40a c 0 0 0 0 0 0 1 $T0 .raSearch = $eip $T0 ^ = $esp $T0 4 + =
STACK WIN 4 a419 6 0 0 0 0 0 0 1 $T0 .raSearch = $eip $T0 ^ = $esp $T0 4 + =
STACK WIN 4 a41f 6 0 0 0 0 0 0 1 $T0 .raSearch = $eip $T0 ^ = $esp $T0 4 + =
STACK WIN 4 a425 1d 0 0 0 0 0 0 1 $T0 .raSearch = $eip $T0 ^ = $esp $T0 4 + =
STACK WIN 4 a449 14 3 0 4 0 0 0 1 $T0 $ebp = $eip $T0 4 + ^ = $ebp $T0 ^ = $esp $T0 8 + =
STACK WIN 4 a462 1d 3 0 4 0 0 0 1 $T0 $ebp = $eip $T0 4 + ^ = $ebp $T0 ^ = $esp $T0 8 + =
STACK WIN 4 a486 d 3 0 8 0 0 0 1 $T0 $ebp = $eip $T0 4 + ^ = $ebp $T0 ^ = $esp $T0 8 + =
STACK WIN 4 a496 d 0 0 0 0 0 0 1 $T0 .raSearch = $eip $T0 ^ = $esp $T0 4 + =
STACK WIN 4 a4a6 44 7 0 8 0 0 0 1 $T0 $ebp = $eip $T0 4 + ^ = $ebp $T0 ^ = $esp $T0 8 + =
STACK WIN 4 a4ad 37 0 0 8 4 0 0 1 $T0 $ebp = $eip $T0 4 + ^ = $ebp $T0 ^ = $esp $T0 8 + =  $23 $T0 4 - ^ =
STACK WIN 4 a4fb 5 0 0 0 0 0 0 1 $T0 .raSearch = $eip $T0 ^ = $esp $T0 4 + =
STACK WIN 4 a500 34 3 0 4 0 0 0 1 $T0 $ebp = $eip $T0 4 + ^ = $ebp $T0 ^ = $esp $T0 8 + =
STACK WIN 4 a541 7 0 0 0 0 0 0 1 $T0 .raSearch = $eip $T0 ^ = $esp $T0 4 + =
STACK WIN 4 a548 32 1 0 0 0 0 0 1 $T0 .raSearch = $eip $T0 ^ = $esp $T0 4 + =
STACK WIN 4 a549 30 0 0 0 4 0 0 1 $T0 .raSearch = $eip $T0 ^ = $esp $T0 4 + =  $23 $T0 4 - ^ =
STACK WIN 4 a586 2b 0 0 0 0 0 0 1 $T0 .raSearch = $eip $T0 ^ = $esp $T0 4 + =
STACK WIN 4 a5bb e 0 0 0 0 0 0 1 $T0 .raSearch = $eip $T0 ^ = $esp $T0 4 + =
STACK WIN 4 a5cc 1f 0 0 0 0 0 0 1 $T0 .raSearch = $eip $T0 ^ = $esp $T0 4 + =
STACK WIN 4 a5f2 d 0 0 0 0 0 0 1 $T0 .raSearch = $eip $T0 ^ = $esp $T0 4 + =
STACK WIN 4 a602 34 3 0 18 0 0 0 1 $T0 $ebp = $eip $T0 4 + ^ = $ebp $T0 ^ = $esp $T0 8 + =
STACK WIN 4 a643 23 0 0 0 0 0 0 1 $T0 .raSearch = $eip $T0 ^ = $esp $T0 4 + =
STACK WIN 4 a66e d 0 0 0 0 0 0 1 $T0 .raSearch = $eip $T0 ^ = $esp $T0 4 + =
STACK WIN 4 a67e 39 3 0 4 0 0 0 1 $T0 $ebp = $eip $T0 4 + ^ = $ebp $T0 ^ = $esp $T0 8 + =
STACK WIN 4 a6c5 a5 6 0 4 0 c 0 1 $T0 $ebp = $eip $T0 4 + ^ = $ebp $T0 ^ = $esp $T0 8 + =
STACK WIN 4 a6d9 87 0 0 4 4 c 0 1 $T0 $ebp = $eip $T0 4 + ^ = $ebp $T0 ^ = $esp $T0 8 + =  $23 $T0 16 - ^ =
STACK WIN 4 a71d 39 0 0 4 8 c 0 1 $T0 $ebp = $eip $T0 4 + ^ = $ebp $T0 ^ = $esp $T0 8 + =  $23 $T0 16 - ^ =  $24 $T0 20 - ^ =
STACK WIN 4 a793 94 c 0 4 10 18 0 1 $T0 $ebp = $eip $T0 4 + ^ = $ebp $T0 ^ = $esp $T0 8 + =  $20 $T0 28 - ^ =  $23 $T0 32 - ^ =  $24 $T0 36 - ^ =
STACK WIN 4 a7f8 13 0 0 4 10 18 0 1 $T0 $ebp = $T2 $esp = $T1 .raSearchStart = $eip $T1 ^ = $ebp $T0 = $esp $T1 4 + =
STACK WIN 4 a84c 1d 3 0 4 0 0 0 1 $T0 $ebp = $eip $T0 4 + ^ = $ebp $T0 ^ = $esp $T0 8 + =
STACK WIN 4 a870 28 3 0 8 0 0 0 1 $T0 $ebp = $eip $T0 4 + ^ = $ebp $T0 ^ = $esp $T0 8 + =
STACK WIN 4 a8a2 3b 3 0 4 0 0 0 1 $T0 $ebp = $eip $T0 4 + ^ = $ebp $T0 ^ = $esp $T0 8 + =
STACK WIN 4 a8eb 31 3 0 4 0 0 0 1 $T0 $ebp = $eip $T0 4 + ^ = $ebp $T0 ^ = $esp $T0 8 + =
STACK WIN 4 a928 15 3 0 4 0 0 0 1 $T0 $ebp = $eip $T0 4 + ^ = $ebp $T0 ^ = $esp $T0 8 + =
STACK WIN 4 a942 6 0 0 0 0 0 0 1 $T0 .raSearch = $eip $T0 ^ = $esp $T0 4 + =
STACK WIN 4 a948 11a a 0 4 4 324 0 1 $T0 $ebp = $eip $T0 4 + ^ = $ebp $T0 ^ = $esp $T0 8 + =  $20 $T0 808 - ^ =
STACK WIN 4 aaa8 31 6 0 0 0 44 0 1 $T0 $ebp = $eip $T0 4 + ^ = $ebp $T0 ^ = $esp $T0 8 + =
STACK WIN 4 aae5 5 0 0 0 0 0 0 1 $T0 .raSearch = $eip $T0 ^ = $esp $T0 4 + =
STACK WIN 4 aaea 3 0 0 0 0 0 0 1 $T0 .raSearch = $eip $T0 ^ = $esp $T0 4 + =
STACK WIN 4 aaed 43 0 0 0 0 0 0 1 $T0 .raSearch = $eip $T0 ^ = $esp $T0 4 + =
STACK WIN 4 ab40 c 0 0 0 0 0 0 1 $T0 .raSearch = $eip $T0 ^ = $esp $T0 4 + =
STACK WIN 4 ab4f 3 0 0 0 0 0 0 1 $T0 .raSearch = $eip $T0 ^ = $esp $T0 4 + =
STACK WIN 4 ab52 41 3 0 4 0 0 0 1 $T0 $ebp = $eip $T0 4 + ^ = $ebp $T0 ^ = $esp $T0 8 + =
STACK WIN 4 aba3 8 0 0 4 0 0 0 1 $T0 .raSearch = $eip $T0 ^ = $esp $T0 4 + =
STACK WIN 4 abad 2c 2 0 0 0 0 0 1 $T0 .raSearch = $eip $T0 ^ = $esp $T0 4 + =
STACK WIN 4 abae 2a 1 0 0 4 0 0 1 $T0 .raSearch = $eip $T0 ^ = $esp $T0 4 + =  $20 $T0 4 - ^ =
STACK WIN 4 abaf 28 0 0 0 8 0 0 1 $T0 .raSearch = $eip $T0 ^ = $esp $T0 4 + =  $20 $T0 4 - ^ =  $23 $T0 8 - ^ =
STACK WIN 4 abbe 18 0 0 0 c 0 0 1 $T0 .raSearch = $eip $T0 ^ = $esp $T0 4 + =  $20 $T0 4 - ^ =  $23 $T0 8 - ^ =  $24 $T0 12 - ^ =
STACK WIN 4 abe4 2c 2 0 0 0 0 0 1 $T0 .raSearch = $eip $T0 ^ = $esp $T0 4 + =
STACK WIN 4 abe5 2a 1 0 0 4 0 0 1 $T0 .raSearch = $eip $T0 ^ = $esp $T0 4 + =  $20 $T0 4 - ^ =
STACK WIN 4 abe6 28 0 0 0 8 0 0 1 $T0 .raSearch = $eip $T0 ^ = $esp $T0 4 + =  $20 $T0 4 - ^ =  $23 $T0 8 - ^ =
STACK WIN 4 abf5 18 0 0 0 c 0 0 1 $T0 .raSearch = $eip $T0 ^ = $esp $T0 4 + =  $20 $T0 4 - ^ =  $23 $T0 8 - ^ =  $24 $T0 12 - ^ =
STACK WIN 4 ac91 1 0 0 0 0 0 0 1 $T0 .raSearch = $eip $T0 ^ = $esp $T0 4 + =
STACK WIN 4 ac92 a 3 0 4 0 0 0 1 $T0 $ebp = $eip $T0 4 + ^ = $ebp $T0 ^ = $esp $T0 8 + =
STACK WIN 4 ac9e a 3 0 4 0 0 0 1 $T0 $ebp = $eip $T0 4 + ^ = $ebp $T0 ^ = $esp $T0 8 + =
STACK WIN 4 acaa 12 0 0 0 0 0 0 1 $T0 .raSearch = $eip $T0 ^ = $esp $T0 4 + =
STACK WIN 4 acc0 197 e 0 0 0 24 0 1 $T0 $ebp = $eip $T0 4 + ^ = $ebp $T0 ^ = $esp $T0 8 + =
STACK WIN 4 acce 187 0 0 0 4 24 0 1 $T0 $ebp = $eip $T0 4 + ^ = $ebp $T0 ^ = $esp $T0 8 + =  $20 $T0 40 - ^ =
STACK WIN 4 acf6 ef 0 0 0 8 24 0 1 $T0 $ebp = $eip $T0 4 + ^ = $ebp $T0 ^ = $esp $T0 8 + =  $20 $T0 40 - ^ =  $23 $T0 44 - ^ =
STACK WIN 4 acf7 ed 0 0 0 c 24 0 1 $T0 $ebp = $eip $T0 4 + ^ = $ebp $T0 ^ = $esp $T0 8 + =  $20 $T0 40 - ^ =  $23 $T0 44 - ^ =  $24 $T0 48 - ^ =
STACK WIN 4 aebc 4 0 0 0 0 0 0 1 $T0 .raSearch = $eip $T0 ^ = $esp $T0 4 + =
STACK WIN 4 aec0 c 0 0 0 0 0 0 1 $T0 .raSearch = $eip $T0 ^ = $esp $T0 4 + =
STACK WIN 4 af20 32 8 0 8 0 0 0 1 $T0 $ebp = $eip $T0 4 + ^ = $ebp $T0 ^ = $esp $T0 8 + =
STACK WIN 4 af24 28 4 0 8 4 0 0 1 $T0 $ebp = $eip $T0 4 + ^ = $ebp $T0 ^ = $esp $T0 8 + =  $23 $T0 4 - ^ =
STACK WIN 4 af28 23 0 0 8 8 0 0 1 $T0 $ebp = $eip $T0 4 + ^ = $ebp $T0 ^ = $esp $T0 8 + =  $23 $T0 4 - ^ =  $24 $T0 8 - ^ =
STACK WIN 4 af60 157 c 0 10 0 1c 0 1 $T0 $ebp = $eip $T0 4 + ^ = $ebp $T0 ^ = $esp $T0 8 + =
STACK WIN 4 af67 c8 5 0 10 4 1c 0 1 $T0 $ebp = $eip $T0 4 + ^ = $ebp $T0 ^ = $esp $T0 8 + =  $20 $T0 32 - ^ =
STACK WIN 4 af6b c3 1 0 10 8 1c 0 1 $T0 $ebp = $eip $T0 4 + ^ = $ebp $T0 ^ = $esp $T0 8 + =  $20 $T0 32 - ^ =  $23 $T0 36 - ^ =
STACK WIN 4 af6c c1 0 0 10 c 1c 0 1 $T0 $ebp = $eip $T0 4 + ^ = $ebp $T0 ^ = $esp $T0 8 + =  $20 $T0 32 - ^ =  $23 $T0 36 - ^ =  $24 $T0 40 - ^ =
STACK WIN 4 b10c 5 0 0 4 0 0 0 1 $T0 $ebp = $eip $T0 4 + ^ = $ebp $T0 ^ = $esp $T0 8 + =
STACK WIN 4 b111 9 3 0 4 0 0 0 1 $T0 $ebp = $eip $T0 4 + ^ = $ebp $T0 ^ = $esp $T0 8 + =
STACK WIN 4 b11c 10 3 0 4 0 0 0 1 $T0 $ebp = $eip $T0 4 + ^ = $ebp $T0 ^ = $esp $T0 8 + =
STACK WIN 4 b130 10 3 0 4 0 0 0 1 $T0 $ebp = $eip $T0 4 + ^ = $ebp $T0 ^ = $esp $T0 8 + =
STACK WIN 4 b144 12 3 0 c 0 0 0 1 $T0 $ebp = $eip $T0 4 + ^ = $ebp $T0 ^ = $esp $T0 8 + =
STACK WIN 4 b15a a 3 0 4 0 0 0 1 $T0 $ebp = $eip $T0 4 + ^ = $ebp $T0 ^ = $esp $T0 8 + =
STACK WIN 4 b166 e 3 0 4 0 0 0 1 $T0 $ebp = $eip $T0 4 + ^ = $ebp $T0 ^ = $esp $T0 8 + =
STACK WIN 4 b177 e 3 0 4 0 0 0 1 $T0 $ebp = $eip $T0 4 + ^ = $ebp $T0 ^ = $esp $T0 8 + =
STACK WIN 4 b188 10 3 0 0 0 0 0 1 $T0 .raSearch = $eip $T0 ^ = $esp $T0 4 + =
STACK WIN 4 b189 e 2 0 0 4 0 0 1 $T0 .raSearch = $eip $T0 ^ = $esp $T0 4 + =  $23 $T0 4 - ^ =
STACK WIN 4 b19c 10 3 0 0 0 0 0 1 $T0 .raSearch = $eip $T0 ^ = $esp $T0 4 + =
STACK WIN 4 b19d e 2 0 0 4 0 0 1 $T0 .raSearch = $eip $T0 ^ = $esp $T0 4 + =  $23 $T0 4 - ^ =
STACK WIN 4 b1b0 6 0 0 0 0 0 0 1 $T0 .raSearch = $eip $T0 ^ = $esp $T0 4 + =
STACK WIN 4 b1b6 6 0 0 0 0 0 0 1 $T0 .raSearch = $eip $T0 ^ = $esp $T0 4 + =
STACK WIN 4 b1bc 7 0 0 0 0 0 0 1 $T0 .raSearch = $eip $T0 ^ = $esp $T0 4 + =
STACK WIN 4 b1c3 7 0 0 0 0 0 0 1 $T0 .raSearch = $eip $T0 ^ = $esp $T0 4 + =
STACK WIN 4 b1ca 10 3 0 4 0 0 0 1 $T0 $ebp = $eip $T0 4 + ^ = $ebp $T0 ^ = $esp $T0 8 + =
STACK WIN 4 b1de 10 3 0 4 0 0 0 1 $T0 $ebp = $eip $T0 4 + ^ = $ebp $T0 ^ = $esp $T0 8 + =
STACK WIN 4 b1f2 a 3 0 4 0 0 0 1 $T0 $ebp = $eip $T0 4 + ^ = $ebp $T0 ^ = $esp $T0 8 + =
STACK WIN 4 b1fe 6 0 0 0 0 0 0 1 $T0 .raSearch = $eip $T0 ^ = $esp $T0 4 + =
STACK WIN 4 b204 3 0 0 0 0 0 0 1 $T0 .raSearch = $eip $T0 ^ = $esp $T0 4 + =
STACK WIN 4 b207 3 0 0 0 0 0 0 1 $T0 .raSearch = $eip $T0 ^ = $esp $T0 4 + =
STACK WIN 4 b20a 7 0 0 0 0 0 0 1 $T0 .raSearch = $eip $T0 ^ = $esp $T0 4 + =
STACK WIN 4 b211 7 0 0 0 0 0 0 1 $T0 .raSearch = $eip $T0 ^ = $esp $T0 4 + =
STACK WIN 4 b218 10 3 0 0 0 0 0 1 $T0 .raSearch = $eip $T0 ^ = $esp $T0 4 + =
STACK WIN 4 b219 e 2 0 0 4 0 0 1 $T0 .raSearch = $eip $T0 ^ = $esp $T0 4 + =  $23 $T0 4 - ^ =
STACK WIN 4 b22c 10 3 0 0 0 0 0 1 $T0 .raSearch = $eip $T0 ^ = $esp $T0 4 + =
STACK WIN 4 b22d e 2 0 0 4 0 0 1 $T0 .raSearch = $eip $T0 ^ = $esp $T0 4 + =  $23 $T0 4 - ^ =
STACK WIN 4 b240 3c 3 0 8 0 0 0 1 $T0 $ebp = $eip $T0 4 + ^ = $ebp $T0 ^ = $esp $T0 8 + =
STACK WIN 4 b28b 23 3 0 4 0 0 0 1 $T0 $ebp = $eip $T0 4 + ^ = $ebp $T0 ^ = $esp $T0 8 + =
STACK WIN 4 b29c 10 0 0 4 4 0 0 1 $T0 $ebp = $eip $T0 4 + ^ = $ebp $T0 ^ = $esp $T0 8 + =  $23 $T0 4 - ^ =
STACK WIN 4 b2b6 26 3 0 4 0 0 0 1 $T0 $ebp = $eip $T0 4 + ^ = $ebp $T0 ^ = $esp $T0 8 + =
STACK WIN 4 b2e5 c3 9 0 8 0 c 0 1 $T0 $ebp = $eip $T0 4 + ^ = $ebp $T0 ^ = $esp $T0 8 + =
STACK WIN 4 b2f9 ad 0 0 8 4 c 0 1 $T0 $ebp = $eip $T0 4 + ^ = $ebp $T0 ^ = $esp $T0 8 + =  $20 $T0 16 - ^ =
STACK WIN 4 b2fa a9 0 0 8 8 c 0 1 $T0 $ebp = $eip $T0 4 + ^ = $ebp $T0 ^ = $esp $T0 8 + =  $20 $T0 16 - ^ =  $23 $T0 20 - ^ =
STACK WIN 4 b349 52 0 0 8 c c 0 1 $T0 $ebp = $eip $T0 4 + ^ = $ebp $T0 ^ = $esp $T0 8 + =  $20 $T0 16 - ^ =  $23 $T0 20 - ^ =  $24 $T0 24 - ^ =
STACK WIN 4 b3d8 29 0 0 0 0 0 0 1 $T0 .raSearch = $eip $T0 ^ = $esp $T0 4 + =
STACK WIN 4 b40b b 0 0 0 0 0 0 1 $T0 .raSearch = $eip $T0 ^ = $esp $T0 4 + =
STACK WIN 4 b418 b 0 0 0 0 0 0 1 $T0 .raSearch = $eip $T0 ^ = $esp $T0 4 + =
STACK WIN 4 b425 1f 3 0 4 0 0 0 1 $T0 $ebp = $eip $T0 4 + ^ = $ebp $T0 ^ = $esp $T0 8 + =
STACK WIN 4 b44b 8 0 0 0 0 0 0 1 $T0 .raSearch = $eip $T0 ^ = $esp $T0 4 + =
STACK WIN 4 b455 1 0 0 0 0 0 0 1 $T0 .raSearch = $eip $T0 ^ = $esp $T0 4 + =
STACK WIN 0 b460 15a 0 0 c 0 0 0 0 0
STACK WIN 0 b610 90 3 0 c c 0 0 0 0
STACK WIN 0 b6a0 46 0 0 10 4 0 0 0 0
STACK WIN 0 b710 17 4 0 0 10 0 0 0 1
STACK WIN 0 b728 19 0 0 0 0 0 0 0 0
STACK WIN 0 b760 17 1 0 8 4 0 0 0 0
STACK WIN 4 b7d0 b 3 0 4 0 0 0 1 $T0 $ebp = $eip $T0 4 + ^ = $ebp $T0 ^ = $esp $T0 8 + =
STACK WIN 4 b7dd 30 3 0 4 0 0 0 1 $T0 $ebp = $eip $T0 4 + ^ = $ebp $T0 ^ = $esp $T0 8 + =
STACK WIN 4 b819 2d 3 0 4 0 0 0 1 $T0 $ebp = $eip $T0 4 + ^ = $ebp $T0 ^ = $esp $T0 8 + =
STACK WIN 4 b851 39 3 0 8 0 0 0 1 $T0 $ebp = $eip $T0 4 + ^ = $ebp $T0 ^ = $esp $T0 8 + =
STACK WIN 4 b864 24 0 0 8 4 0 0 1 $T0 $ebp = $eip $T0 4 + ^ = $ebp $T0 ^ = $esp $T0 8 + =  $23 $T0 4 - ^ =
STACK WIN 4 b898 6 0 0 0 0 0 0 1 $T0 .raSearch = $eip $T0 ^ = $esp $T0 4 + =
STACK WIN 4 b89e b2 7 0 8 0 0 0 1 $T0 $ebp = $eip $T0 4 + ^ = $ebp $T0 ^ = $esp $T0 8 + =
STACK WIN 4 b8a2 aa 3 0 8 4 0 0 1 $T0 $ebp = $eip $T0 4 + ^ = $ebp $T0 ^ = $esp $T0 8 + =  $20 $T0 4 - ^ =
STACK WIN 4 b8a3 a8 2 0 8 8 0 0 1 $T0 $ebp = $eip $T0 4 + ^ = $ebp $T0 ^ = $esp $T0 8 + =  $20 $T0 4 - ^ =  $23 $T0 8 - ^ =
STACK WIN 4 b8a6 a2 0 0 8 c 0 0 1 $T0 $ebp = $eip $T0 4 + ^ = $ebp $T0 ^ = $esp $T0 8 + =  $20 $T0 4 - ^ =  $23 $T0 8 - ^ =  $24 $T0 12 - ^ =
STACK WIN 4 b97c 16 3 0 4 0 0 0 1 $T0 $ebp = $eip $T0 4 + ^ = $ebp $T0 ^ = $esp $T0 8 + =
STACK WIN 4 b997 25 6 0 4 0 0 0 1 $T0 $ebp = $eip $T0 4 + ^ = $ebp $T0 ^ = $esp $T0 8 + =
STACK WIN 4 b99b 1d 2 0 4 4 0 0 1 $T0 $ebp = $eip $T0 4 + ^ = $ebp $T0 ^ = $esp $T0 8 + =  $23 $T0 4 - ^ =
STACK WIN 4 b9c5 48 7 0 4 0 0 0 1 $T0 $ebp = $eip $T0 4 + ^ = $ebp $T0 ^ = $esp $T0 8 + =
STACK WIN 4 b9c9 40 3 0 4 4 0 0 1 $T0 $ebp = $eip $T0 4 + ^ = $ebp $T0 ^ = $esp $T0 8 + =  $20 $T0 4 - ^ =
STACK WIN 4 b9ca 3e 2 0 4 8 0 0 1 $T0 $ebp = $eip $T0 4 + ^ = $ebp $T0 ^ = $esp $T0 8 + =  $20 $T0 4 - ^ =  $23 $T0 8 - ^ =
STACK WIN 4 ba1f 33 6 0 4 0 0 0 1 $T0 $ebp = $eip $T0 4 + ^ = $ebp $T0 ^ = $esp $T0 8 + =
STACK WIN 4 ba23 2b 2 0 4 4 0 0 1 $T0 $ebp = $eip $T0 4 + ^ = $ebp $T0 ^ = $esp $T0 8 + =  $23 $T0 4 - ^ =
STACK WIN 4 ba5e 40 9 0 4 0 0 0 1 $T0 $ebp = $eip $T0 4 + ^ = $ebp $T0 ^ = $esp $T0 8 + =
STACK WIN 4 ba65 35 2 0 4 4 0 0 1 $T0 $ebp = $eip $T0 4 + ^ = $ebp $T0 ^ = $esp $T0 8 + =  $23 $T0 4 - ^ =
STACK WIN 4 baae a 0 0 0 0 0 0 1 $T0 .raSearch = $eip $T0 ^ = $esp $T0 4 + =
STACK WIN 4 baba 8c 1a 0 8 0 2c 0 1 $T0 $ebp = $eip $T0 4 + ^ = $ebp $T0 ^ = $esp $T0 8 + =
STACK WIN 4 bae0 5d 0 0 8 4 2c 0 1 $T0 $ebp = $eip $T0 4 + ^ = $ebp $T0 ^ = $esp $T0 8 + =  $23 $T0 48 - ^ =
STACK WIN 4 bae4 58 0 0 8 8 2c 0 1 $T0 $ebp = $eip $T0 4 + ^ = $ebp $T0 ^ = $esp $T0 8 + =  $23 $T0 48 - ^ =  $24 $T0 52 - ^ =
STACK WIN 4 bafc 1f 0 0 8 c 2c 0 1 $T0 $ebp = $eip $T0 4 + ^ = $ebp $T0 ^ = $esp $T0 8 + =  $23 $T0 48 - ^ =  $24 $T0 52 - ^ =  $20 $T0 56 - ^ =
STACK WIN 4 bb69 66 1a 0 8 0 24 0 1 $T0 $ebp = $eip $T0 4 + ^ = $ebp $T0 ^ = $esp $T0 8 + =
STACK WIN 4 bb7d 49 6 0 8 4 24 0 1 $T0 $ebp = $eip $T0 4 + ^ = $ebp $T0 ^ = $esp $T0 8 + =  $20 $T0 40 - ^ =
STACK WIN 4 bb81 42 2 0 8 8 24 0 1 $T0 $ebp = $eip $T0 4 + ^ = $ebp $T0 ^ = $esp $T0 8 + =  $20 $T0 40 - ^ =  $23 $T0 44 - ^ =
STACK WIN 4 bb88 3a 0 0 8 c 24 0 1 $T0 $ebp = $eip $T0 4 + ^ = $ebp $T0 ^ = $esp $T0 8 + =  $20 $T0 40 - ^ =  $23 $T0 44 - ^ =  $24 $T0 48 - ^ =
STACK WIN 4 bbe8 9 0 0 0 0 0 0 1 $T0 .raSearch = $eip $T0 ^ = $esp $T0 4 + =
STACK WIN 4 bbf3 6 0 0 0 0 0 0 1 $T0 .raSearch = $eip $T0 ^ = $esp $T0 4 + =
STACK WIN 4 bbf9 9 0 0 0 0 0 0 1 $T0 .raSearch = $eip $T0 ^ = $esp $T0 4 + =
STACK WIN 4 bc04 4c 3 0 c 0 0 0 1 $T0 $ebp = $eip $T0 4 + ^ = $ebp $T0 ^ = $esp $T0 8 + =
STACK WIN 4 bc63 15 3 0 4 0 0 0 1 $T0 $ebp = $eip $T0 4 + ^ = $ebp $T0 ^ = $esp $T0 8 + =
STACK WIN 4 bc7d 28 3 0 4 0 0 0 1 $T0 $ebp = $eip $T0 4 + ^ = $ebp $T0 ^ = $esp $T0 8 + =
STACK WIN 4 bcaf 1f 3 0 8 0 0 0 1 $T0 $ebp = $eip $T0 4 + ^ = $ebp $T0 ^ = $esp $T0 8 + =
STACK WIN 4 bcd5 59 7 0 8 0 0 0 1 $T0 $ebp = $eip $T0 4 + ^ = $ebp $T0 ^ = $esp $T0 8 + =
STACK WIN 4 bcd9 51 3 0 8 4 0 0 1 $T0 $ebp = $eip $T0 4 + ^ = $ebp $T0 ^ = $esp $T0 8 + =  $20 $T0 4 - ^ =
STACK WIN 4 bcda 4f 2 0 8 8 0 0 1 $T0 $ebp = $eip $T0 4 + ^ = $ebp $T0 ^ = $esp $T0 8 + =  $20 $T0 4 - ^ =  $23 $T0 8 - ^ =
STACK WIN 4 bcdd 49 0 0 8 c 0 0 1 $T0 $ebp = $eip $T0 4 + ^ = $ebp $T0 ^ = $esp $T0 8 + =  $20 $T0 4 - ^ =  $23 $T0 8 - ^ =  $24 $T0 12 - ^ =
STACK WIN 4 bd44 7 0 0 0 0 0 0 1 $T0 .raSearch = $eip $T0 ^ = $esp $T0 4 + =
STACK WIN 4 bd4b 15 3 0 c 0 0 0 1 $T0 $ebp = $eip $T0 4 + ^ = $ebp $T0 ^ = $esp $T0 8 + =
STACK WIN 4 bd65 16 3 0 4 0 0 0 1 $T0 $ebp = $eip $T0 4 + ^ = $ebp $T0 ^ = $esp $T0 8 + =
STACK WIN 4 bd80 25 6 0 4 0 0 0 1 $T0 $ebp = $eip $T0 4 + ^ = $ebp $T0 ^ = $esp $T0 8 + =
STACK WIN 4 bd84 1d 2 0 4 4 0 0 1 $T0 $ebp = $eip $T0 4 + ^ = $ebp $T0 ^ = $esp $T0 8 + =  $23 $T0 4 - ^ =
STACK WIN 4 bdae 42 6 0 4 0 0 0 1 $T0 $ebp = $eip $T0 4 + ^ = $ebp $T0 ^ = $esp $T0 8 + =
STACK WIN 4 bdb2 3a 2 0 4 4 0 0 1 $T0 $ebp = $eip $T0 4 + ^ = $ebp $T0 ^ = $esp $T0 8 + =  $23 $T0 4 - ^ =
STACK WIN 4 bdb5 34 0 0 4 8 0 0 1 $T0 $ebp = $eip $T0 4 + ^ = $ebp $T0 ^ = $esp $T0 8 + =  $23 $T0 4 - ^ =  $24 $T0 8 - ^ =
STACK WIN 4 be00 2b 6 0 4 0 0 0 1 $T0 $ebp = $eip $T0 4 + ^ = $ebp $T0 ^ = $esp $T0 8 + =
STACK WIN 4 be04 23 2 0 4 4 0 0 1 $T0 $ebp = $eip $T0 4 + ^ = $ebp $T0 ^ = $esp $T0 8 + =  $23 $T0 4 - ^ =
STACK WIN 4 be35 32 9 0 4 0 0 0 1 $T0 $ebp = $eip $T0 4 + ^ = $ebp $T0 ^ = $esp $T0 8 + =
STACK WIN 4 be3c 27 2 0 4 4 0 0 1 $T0 $ebp = $eip $T0 4 + ^ = $ebp $T0 ^ = $esp $T0 8 + =  $23 $T0 4 - ^ =
STACK WIN 4 be73 46 3 0 8 0 0 0 1 $T0 $ebp = $eip $T0 4 + ^ = $ebp $T0 ^ = $esp $T0 8 + =
STACK WIN 4 beca 22 5 0 c 0 8 0 1 $T0 $ebp = $eip $T0 4 + ^ = $ebp $T0 ^ = $esp $T0 8 + =
STACK WIN 4 bef4 22 5 0 c 0 8 0 1 $T0 $ebp = $eip $T0 4 + ^ = $ebp $T0 ^ = $esp $T0 8 + =
STACK WIN 4 bf1e 22 5 0 c 0 8 0 1 $T0 $ebp = $eip $T0 4 + ^ = $ebp $T0 ^ = $esp $T0 8 + =
STACK WIN 4 bf48 22 6 0 8 0 0 0 1 $T0 $ebp = $eip $T0 4 + ^ = $ebp $T0 ^ = $esp $T0 8 + =
STACK WIN 4 bf4e 18 0 0 8 4 0 0 1 $T0 $ebp = $eip $T0 4 + ^ = $ebp $T0 ^ = $esp $T0 8 + =  $23 $T0 4 - ^ =
STACK WIN 4 bf72 22 6 0 8 0 0 0 1 $T0 $ebp = $eip $T0 4 + ^ = $ebp $T0 ^ = $esp $T0 8 + =
STACK WIN 4 bf78 18 0 0 8 4 0 0 1 $T0 $ebp = $eip $T0 4 + ^ = $ebp $T0 ^ = $esp $T0 8 + =  $23 $T0 4 - ^ =
STACK WIN 4 bf9c 22 6 0 8 0 0 0 1 $T0 $ebp = $eip $T0 4 + ^ = $ebp $T0 ^ = $esp $T0 8 + =
STACK WIN 4 bfa2 18 0 0 8 4 0 0 1 $T0 $ebp = $eip $T0 4 + ^ = $ebp $T0 ^ = $esp $T0 8 + =  $23 $T0 4 - ^ =
STACK WIN 4 bfc6 22 6 0 8 0 0 0 1 $T0 $ebp = $eip $T0 4 + ^ = $ebp $T0 ^ = $esp $T0 8 + =
STACK WIN 4 bfcc 18 0 0 8 4 0 0 1 $T0 $ebp = $eip $T0 4 + ^ = $ebp $T0 ^ = $esp $T0 8 + =  $23 $T0 4 - ^ =
STACK WIN 4 bff0 22 6 0 8 0 0 0 1 $T0 $ebp = $eip $T0 4 + ^ = $ebp $T0 ^ = $esp $T0 8 + =
STACK WIN 4 bff6 18 0 0 8 4 0 0 1 $T0 $ebp = $eip $T0 4 + ^ = $ebp $T0 ^ = $esp $T0 8 + =  $23 $T0 4 - ^ =
STACK WIN 4 c01a 41 6 0 4 0 0 0 1 $T0 $ebp = $eip $T0 4 + ^ = $ebp $T0 ^ = $esp $T0 8 + =
STACK WIN 4 c01e 39 2 0 4 4 0 0 1 $T0 $ebp = $eip $T0 4 + ^ = $ebp $T0 ^ = $esp $T0 8 + =  $23 $T0 4 - ^ =
STACK WIN 4 c06b 50 6 0 4 0 0 0 1 $T0 $ebp = $eip $T0 4 + ^ = $ebp $T0 ^ = $esp $T0 8 + =
STACK WIN 4 c06f 48 2 0 4 4 0 0 1 $T0 $ebp = $eip $T0 4 + ^ = $ebp $T0 ^ = $esp $T0 8 + =  $23 $T0 4 - ^ =
STACK WIN 4 c078 3c 0 0 4 8 0 0 1 $T0 $ebp = $eip $T0 4 + ^ = $ebp $T0 ^ = $esp $T0 8 + =  $23 $T0 4 - ^ =  $20 $T0 8 - ^ =
STACK WIN 4 c0cf 65 6 0 4 0 0 0 1 $T0 $ebp = $eip $T0 4 + ^ = $ebp $T0 ^ = $esp $T0 8 + =
STACK WIN 4 c0d3 5d 2 0 4 4 0 0 1 $T0 $ebp = $eip $T0 4 + ^ = $ebp $T0 ^ = $esp $T0 8 + =  $23 $T0 4 - ^ =
STACK WIN 4 c0dc 51 0 0 4 8 0 0 1 $T0 $ebp = $eip $T0 4 + ^ = $ebp $T0 ^ = $esp $T0 8 + =  $23 $T0 4 - ^ =  $24 $T0 8 - ^ =
STACK WIN 4 c0e4 48 0 0 4 c 0 0 1 $T0 $ebp = $eip $T0 4 + ^ = $ebp $T0 ^ = $esp $T0 8 + =  $23 $T0 4 - ^ =  $24 $T0 8 - ^ =  $20 $T0 12 - ^ =
STACK WIN 4 c14d 61 6 0 4 0 0 0 1 $T0 $ebp = $eip $T0 4 + ^ = $ebp $T0 ^ = $esp $T0 8 + =
STACK WIN 4 c151 59 2 0 4 4 0 0 1 $T0 $ebp = $eip $T0 4 + ^ = $ebp $T0 ^ = $esp $T0 8 + =  $20 $T0 4 - ^ =
STACK WIN 4 c15a 4d 0 0 4 8 0 0 1 $T0 $ebp = $eip $T0 4 + ^ = $ebp $T0 ^ = $esp $T0 8 + =  $20 $T0 4 - ^ =  $24 $T0 8 - ^ =
STACK WIN 4 c167 3f 0 0 4 c 0 0 1 $T0 $ebp = $eip $T0 4 + ^ = $ebp $T0 ^ = $esp $T0 8 + =  $20 $T0 4 - ^ =  $24 $T0 8 - ^ =  $23 $T0 12 - ^ =
STACK WIN 4 c1c6 40 6 0 4 0 0 0 1 $T0 $ebp = $eip $T0 4 + ^ = $ebp $T0 ^ = $esp $T0 8 + =
STACK WIN 4 c1ca 38 2 0 4 4 0 0 1 $T0 $ebp = $eip $T0 4 + ^ = $ebp $T0 ^ = $esp $T0 8 + =  $23 $T0 4 - ^ =
STACK WIN 4 c216 4a 6 0 4 0 0 0 1 $T0 $ebp = $eip $T0 4 + ^ = $ebp $T0 ^ = $esp $T0 8 + =
STACK WIN 4 c21a 42 2 0 4 4 0 0 1 $T0 $ebp = $eip $T0 4 + ^ = $ebp $T0 ^ = $esp $T0 8 + =  $23 $T0 4 - ^ =
STACK WIN 4 c222 37 0 0 4 8 0 0 1 $T0 $ebp = $eip $T0 4 + ^ = $ebp $T0 ^ = $esp $T0 8 + =  $23 $T0 4 - ^ =  $24 $T0 8 - ^ =
STACK WIN 4 c272 1c 3 0 4 0 0 0 1 $T0 $ebp = $eip $T0 4 + ^ = $ebp $T0 ^ = $esp $T0 8 + =
STACK WIN 4 c295 1d 3 0 8 0 0 0 1 $T0 $ebp = $eip $T0 4 + ^ = $ebp $T0 ^ = $esp $T0 8 + =
STACK WIN 4 c2b9 38 3 0 0 0 0 0 1 $T0 .raSearch = $eip $T0 ^ = $esp $T0 4 + =
STACK WIN 4 c2ba 36 2 0 0 4 0 0 1 $T0 .raSearch = $eip $T0 ^ = $esp $T0 4 + =  $24 $T0 4 - ^ =
STACK WIN 4 c2cd 22 0 0 0 8 0 0 1 $T0 .raSearch = $eip $T0 ^ = $esp $T0 4 + =  $24 $T0 4 - ^ =  $23 $T0 8 - ^ =
STACK WIN 4 c2ff 1f 3 0 4 0 0 0 1 $T0 $ebp = $eip $T0 4 + ^ = $ebp $T0 ^ = $esp $T0 8 + =
STACK WIN 4 c325 46 a 0 4 0 0 0 1 $T0 $ebp = $eip $T0 4 + ^ = $ebp $T0 ^ = $esp $T0 8 + =
STACK WIN 4 c329 3e 6 0 4 4 0 0 1 $T0 $ebp = $eip $T0 4 + ^ = $ebp $T0 ^ = $esp $T0 8 + =  $23 $T0 4 - ^ =
STACK WIN 4 c32a 3c 5 0 4 8 0 0 1 $T0 $ebp = $eip $T0 4 + ^ = $ebp $T0 ^ = $esp $T0 8 + =  $23 $T0 4 - ^ =  $24 $T0 8 - ^ =
STACK WIN 4 c37c cdd 17 0 8 0 90 0 1 $T0 $ebp = $eip $T0 4 + ^ = $ebp $T0 ^ = $esp $T0 8 + =
STACK WIN 4 c391 cc6 2 0 8 4 90 0 1 $T0 $ebp = $eip $T0 4 + ^ = $ebp $T0 ^ = $esp $T0 8 + =  $20 $T0 148 - ^ =
STACK WIN 4 c392 cc4 1 0 8 8 90 0 1 $T0 $ebp = $eip $T0 4 + ^ = $ebp $T0 ^ = $esp $T0 8 + =  $20 $T0 148 - ^ =  $23 $T0 152 - ^ =
STACK WIN 4 c393 cc2 0 0 8 c 90 0 1 $T0 $ebp = $eip $T0 4 + ^ = $ebp $T0 ^ = $esp $T0 8 + =  $20 $T0 148 - ^ =  $23 $T0 152 - ^ =  $24 $T0 156 - ^ =
STACK WIN 4 d390 e 0 0 0 0 0 0 1 $T0 .raSearch = $eip $T0 ^ = $esp $T0 4 + =
STACK WIN 4 d3a1 e 0 0 0 0 0 0 1 $T0 .raSearch = $eip $T0 ^ = $esp $T0 4 + =
STACK WIN 4 d3b2 e 0 0 0 0 0 0 1 $T0 .raSearch = $eip $T0 ^ = $esp $T0 4 + =
STACK WIN 4 d3c3 e 0 0 0 0 0 0 1 $T0 .raSearch = $eip $T0 ^ = $esp $T0 4 + =
STACK WIN 4 d3d4 e 0 0 0 0 0 0 1 $T0 .raSearch = $eip $T0 ^ = $esp $T0 4 + =
STACK WIN 4 d3e5 e 0 0 0 0 0 0 1 $T0 .raSearch = $eip $T0 ^ = $esp $T0 4 + =
STACK WIN 4 d3f6 d 0 0 0 0 0 0 1 $T0 .raSearch = $eip $T0 ^ = $esp $T0 4 + =
STACK WIN 4 d406 e 0 0 0 0 0 0 1 $T0 .raSearch = $eip $T0 ^ = $esp $T0 4 + =
STACK WIN 4 d417 b 0 0 0 0 0 0 1 $T0 .raSearch = $eip $T0 ^ = $esp $T0 4 + =
STACK WIN 4 d424 b 0 0 0 0 0 0 1 $T0 .raSearch = $eip $T0 ^ = $esp $T0 4 + =
STACK WIN 4 d431 86 6 0 8 0 0 0 1 $T0 $ebp = $eip $T0 4 + ^ = $ebp $T0 ^ = $esp $T0 8 + =
STACK WIN 4 d435 7e 2 0 8 4 0 0 1 $T0 $ebp = $eip $T0 4 + ^ = $ebp $T0 ^ = $esp $T0 8 + =  $23 $T0 4 - ^ =
STACK WIN 4 d438 7a 0 0 8 8 0 0 1 $T0 $ebp = $eip $T0 4 + ^ = $ebp $T0 ^ = $esp $T0 8 + =  $23 $T0 4 - ^ =  $24 $T0 8 - ^ =
STACK WIN 4 d44a 67 0 0 8 c 0 0 1 $T0 $ebp = $eip $T0 4 + ^ = $ebp $T0 ^ = $esp $T0 8 + =  $23 $T0 4 - ^ =  $24 $T0 8 - ^ =  $20 $T0 12 - ^ =
STACK WIN 4 d4d8 e 0 0 0 0 0 0 1 $T0 .raSearch = $eip $T0 ^ = $esp $T0 4 + =
STACK WIN 4 d4e9 e 0 0 0 0 0 0 1 $T0 .raSearch = $eip $T0 ^ = $esp $T0 4 + =
STACK WIN 4 d4fa 12 0 0 0 0 0 0 1 $T0 .raSearch = $eip $T0 ^ = $esp $T0 4 + =
STACK WIN 4 d510 e 0 0 0 0 0 0 1 $T0 .raSearch = $eip $T0 ^ = $esp $T0 4 + =
STACK WIN 4 d521 b 0 0 0 0 0 0 1 $T0 .raSearch = $eip $T0 ^ = $esp $T0 4 + =
STACK WIN 4 d52e b 0 0 0 0 0 0 1 $T0 .raSearch = $eip $T0 ^ = $esp $T0 4 + =
STACK WIN 4 d53b f6 f 0 4 0 18 0 1 $T0 $ebp = $eip $T0 4 + ^ = $ebp $T0 ^ = $esp $T0 8 + =
STACK WIN 4 d542 ed 8 0 4 4 18 0 1 $T0 $ebp = $eip $T0 4 + ^ = $ebp $T0 ^ = $esp $T0 8 + =  $20 $T0 28 - ^ =
STACK WIN 4 d543 eb 7 0 4 8 18 0 1 $T0 $ebp = $eip $T0 4 + ^ = $ebp $T0 ^ = $esp $T0 8 + =  $20 $T0 28 - ^ =  $23 $T0 32 - ^ =
STACK WIN 4 d54a e1 0 0 4 c 18 0 1 $T0 $ebp = $eip $T0 4 + ^ = $ebp $T0 ^ = $esp $T0 8 + =  $20 $T0 28 - ^ =  $23 $T0 32 - ^ =  $24 $T0 36 - ^ =
STACK WIN 4 d66e ca 5 0 4 0 8 0 1 $T0 $ebp = $eip $T0 4 + ^ = $ebp $T0 ^ = $esp $T0 8 + =
STACK WIN 4 d76a 1b1 10 0 8 0 30 0 1 $T0 $ebp = $eip $T0 4 + ^ = $ebp $T0 ^ = $esp $T0 8 + =
STACK WIN 4 d779 1a0 1 0 8 4 30 0 1 $T0 $ebp = $eip $T0 4 + ^ = $ebp $T0 ^ = $esp $T0 8 + =  $23 $T0 52 - ^ =
STACK WIN 4 d77a 19e 0 0 8 8 30 0 1 $T0 $ebp = $eip $T0 4 + ^ = $ebp $T0 ^ = $esp $T0 8 + =  $23 $T0 52 - ^ =  $24 $T0 56 - ^ =
STACK WIN 4 d7be e7 0 0 8 c 30 0 1 $T0 $ebp = $eip $T0 4 + ^ = $ebp $T0 ^ = $esp $T0 8 + =  $23 $T0 52 - ^ =  $24 $T0 56 - ^ =  $20 $T0 60 - ^ =
STACK WIN 4 d987 98 6 0 4 0 10 0 1 $T0 $ebp = $eip $T0 4 + ^ = $ebp $T0 ^ = $esp $T0 8 + =
STACK WIN 4 da45 3df f 0 8 0 1c 0 1 $T0 $ebp = $eip $T0 4 + ^ = $ebp $T0 ^ = $esp $T0 8 + =
STACK WIN 4 da53 3a9 1 0 8 4 1c 0 1 $T0 $ebp = $eip $T0 4 + ^ = $ebp $T0 ^ = $esp $T0 8 + =  $20 $T0 32 - ^ =
STACK WIN 4 da54 3a7 0 0 8 8 1c 0 1 $T0 $ebp = $eip $T0 4 + ^ = $ebp $T0 ^ = $esp $T0 8 + =  $20 $T0 32 - ^ =  $23 $T0 36 - ^ =
STACK WIN 4 df1b df c 0 8 0 c 0 1 $T0 $ebp = $eip $T0 4 + ^ = $ebp $T0 ^ = $esp $T0 8 + =
STACK WIN 4 df22 79 5 0 8 4 c 0 1 $T0 $ebp = $eip $T0 4 + ^ = $ebp $T0 ^ = $esp $T0 8 + =  $20 $T0 16 - ^ =
STACK WIN 4 df23 77 4 0 8 8 c 0 1 $T0 $ebp = $eip $T0 4 + ^ = $ebp $T0 ^ = $esp $T0 8 + =  $20 $T0 16 - ^ =  $23 $T0 20 - ^ =
STACK WIN 4 df27 72 0 0 8 c c 0 1 $T0 $ebp = $eip $T0 4 + ^ = $ebp $T0 ^ = $esp $T0 8 + =  $20 $T0 16 - ^ =  $23 $T0 20 - ^ =  $24 $T0 24 - ^ =
STACK WIN 4 e031 14 3 0 4 0 0 0 1 $T0 $ebp = $eip $T0 4 + ^ = $ebp $T0 ^ = $esp $T0 8 + =
STACK WIN 4 e04a d3 5 0 4 0 8 0 1 $T0 $ebp = $eip $T0 4 + ^ = $ebp $T0 ^ = $esp $T0 8 + =
STACK WIN 4 e151 5ea e 0 14 0 4c 0 1 $T0 $ebp = $eip $T0 4 + ^ = $ebp $T0 ^ = $esp $T0 8 + =
STACK WIN 4 e15d 5dc 2 0 14 4 4c 0 1 $T0 $ebp = $eip $T0 4 + ^ = $ebp $T0 ^ = $esp $T0 8 + =  $20 $T0 80 - ^ =
STACK WIN 4 e15e 5da 1 0 14 8 4c 0 1 $T0 $ebp = $eip $T0 4 + ^ = $ebp $T0 ^ = $esp $T0 8 + =  $20 $T0 80 - ^ =  $23 $T0 84 - ^ =
STACK WIN 4 e15f 5d8 0 0 14 c 4c 0 1 $T0 $ebp = $eip $T0 4 + ^ = $ebp $T0 ^ = $esp $T0 8 + =  $20 $T0 80 - ^ =  $23 $T0 84 - ^ =  $24 $T0 88 - ^ =
STACK WIN 4 e8b5 32 6 0 4 0 10 0 1 $T0 $ebp = $eip $T0 4 + ^ = $ebp $T0 ^ = $esp $T0 8 + =
STACK WIN 4 e8f3 c5 6 0 8 0 18 0 1 $T0 $ebp = $eip $T0 4 + ^ = $ebp $T0 ^ = $esp $T0 8 + =
STACK WIN 4 e9e9 242 c 0 4 10 2c 0 1 $T0 $ebp = $eip $T0 4 + ^ = $ebp $T0 ^ = $esp $T0 8 + =  $20 $T0 48 - ^ =  $23 $T0 52 - ^ =  $24 $T0 56 - ^ =
STACK WIN 4 ecbb 11f 14 0 8 0 18 0 1 $T0 $ebp = $eip $T0 4 + ^ = $ebp $T0 ^ = $esp $T0 8 + =
STACK WIN 4 ecc8 110 7 0 8 4 18 0 1 $T0 $ebp = $eip $T0 4 + ^ = $ebp $T0 ^ = $esp $T0 8 + =  $20 $T0 28 - ^ =
STACK WIN 4 ecc9 10e 6 0 8 8 18 0 1 $T0 $ebp = $eip $T0 4 + ^ = $ebp $T0 ^ = $esp $T0 8 + =  $20 $T0 28 - ^ =  $23 $T0 32 - ^ =
STACK WIN 4 eccf 107 0 0 8 c 18 0 1 $T0 $ebp = $eip $T0 4 + ^ = $ebp $T0 ^ = $esp $T0 8 + =  $20 $T0 28 - ^ =  $23 $T0 32 - ^ =  $24 $T0 36 - ^ =
STACK WIN 4 ee21 54 3 0 4 0 0 0 1 $T0 $ebp = $eip $T0 4 + ^ = $ebp $T0 ^ = $esp $T0 8 + =
STACK WIN 4 ee8a 14 3 0 4 0 0 0 1 $T0 $ebp = $eip $T0 4 + ^ = $ebp $T0 ^ = $esp $T0 8 + =
STACK WIN 4 eea3 118 14 0 4 0 20 0 1 $T0 $ebp = $eip $T0 4 + ^ = $ebp $T0 ^ = $esp $T0 8 + =
STACK WIN 4 eeb6 103 1 0 4 4 20 0 1 $T0 $ebp = $eip $T0 4 + ^ = $ebp $T0 ^ = $esp $T0 8 + =  $20 $T0 36 - ^ =
STACK WIN 4 eeb7 101 0 0 4 8 20 0 1 $T0 $ebp = $eip $T0 4 + ^ = $ebp $T0 ^ = $esp $T0 8 + =  $20 $T0 36 - ^ =  $24 $T0 40 - ^ =
STACK WIN 4 ef18 30 0 0 4 c 20 0 1 $T0 $ebp = $eip $T0 4 + ^ = $ebp $T0 ^ = $esp $T0 8 + =  $20 $T0 36 - ^ =  $24 $T0 40 - ^ =  $23 $T0 44 - ^ =
STACK WIN 4 f001 11 3 0 4 0 0 0 1 $T0 $ebp = $eip $T0 4 + ^ = $ebp $T0 ^ = $esp $T0 8 + =
STACK WIN 4 f016 f0 6 0 4 0 18 0 1 $T0 $ebp = $eip $T0 4 + ^ = $ebp $T0 ^ = $esp $T0 8 + =
STACK WIN 4 f142 1b7 1d 0 10 0 1c 0 1 $T0 $ebp = $eip $T0 4 + ^ = $ebp $T0 ^ = $esp $T0 8 + =
STACK WIN 4 f150 1a7 f 0 10 4 1c 0 1 $T0 $ebp = $eip $T0 4 + ^ = $ebp $T0 ^ = $esp $T0 8 + =  $20 $T0 32 - ^ =
STACK WIN 4 f157 19f 8 0 10 8 1c 0 1 $T0 $ebp = $eip $T0 4 + ^ = $ebp $T0 ^ = $esp $T0 8 + =  $20 $T0 32 - ^ =  $23 $T0 36 - ^ =
STACK WIN 4 f15f 196 0 0 10 c 1c 0 1 $T0 $ebp = $eip $T0 4 + ^ = $ebp $T0 ^ = $esp $T0 8 + =  $20 $T0 32 - ^ =  $23 $T0 36 - ^ =  $24 $T0 40 - ^ =
STACK WIN 4 f366 67 c 0 8 0 18 0 1 $T0 $ebp = $eip $T0 4 + ^ = $ebp $T0 ^ = $esp $T0 8 + =
STACK WIN 4 f372 59 0 0 8 4 18 0 1 $T0 $ebp = $eip $T0 4 + ^ = $ebp $T0 ^ = $esp $T0 8 + =  $23 $T0 28 - ^ =
STACK WIN 4 f3e6 3d8 11 0 8 0 3c 0 1 $T0 $ebp = $eip $T0 4 + ^ = $ebp $T0 ^ = $esp $T0 8 + =
STACK WIN 4 f3f5 3c7 2 0 8 4 3c 0 1 $T0 $ebp = $eip $T0 4 + ^ = $ebp $T0 ^ = $esp $T0 8 + =  $20 $T0 64 - ^ =
STACK WIN 4 f3f6 3c5 1 0 8 8 3c 0 1 $T0 $ebp = $eip $T0 4 + ^ = $ebp $T0 ^ = $esp $T0 8 + =  $20 $T0 64 - ^ =  $23 $T0 68 - ^ =
STACK WIN 4 f3f7 3c3 0 0 8 c 3c 0 1 $T0 $ebp = $eip $T0 4 + ^ = $ebp $T0 ^ = $esp $T0 8 + =  $20 $T0 64 - ^ =  $23 $T0 68 - ^ =  $24 $T0 72 - ^ =
STACK WIN 4 f8b4 14 3 0 4 0 0 0 1 $T0 $ebp = $eip $T0 4 + ^ = $ebp $T0 ^ = $esp $T0 8 + =
STACK WIN 4 f8cd 20 1 0 0 0 0 0 1 $T0 .raSearch = $eip $T0 ^ = $esp $T0 4 + =
STACK WIN 4 f8ce 1e 0 0 0 4 0 0 1 $T0 .raSearch = $eip $T0 ^ = $esp $T0 4 + =  $24 $T0 4 - ^ =
STACK WIN 4 f8db 10 0 0 0 8 0 0 1 $T0 .raSearch = $eip $T0 ^ = $esp $T0 4 + =  $24 $T0 4 - ^ =  $23 $T0 8 - ^ =
STACK WIN 4 f8f5 c 0 0 0 0 0 0 1 $T0 .raSearch = $eip $T0 ^ = $esp $T0 4 + =
STACK WIN 4 f904 4 0 0 0 0 0 0 1 $T0 .raSearch = $eip $T0 ^ = $esp $T0 4 + =
STACK WIN 4 f908 e 0 0 0 0 0 0 1 $T0 .raSearch = $eip $T0 ^ = $esp $T0 4 + =
STACK WIN 4 f919 35 3 0 0 0 0 0 1 $T0 .raSearch = $eip $T0 ^ = $esp $T0 4 + =
STACK WIN 4 f91a 33 2 0 0 4 0 0 1 $T0 .raSearch = $eip $T0 ^ = $esp $T0 4 + =  $20 $T0 4 - ^ =
STACK WIN 4 f91d 2f 0 0 0 8 0 0 1 $T0 .raSearch = $eip $T0 ^ = $esp $T0 4 + =  $20 $T0 4 - ^ =  $23 $T0 8 - ^ =
STACK WIN 4 f91e 2d 0 0 0 c 0 0 1 $T0 .raSearch = $eip $T0 ^ = $esp $T0 4 + =  $20 $T0 4 - ^ =  $23 $T0 8 - ^ =  $24 $T0 12 - ^ =
STACK WIN 4 f95b 12 0 0 0 0 0 0 1 $T0 .raSearch = $eip $T0 ^ = $esp $T0 4 + =
STACK WIN 4 f971 3f a 0 4 0 18 0 1 $T0 $ebp = $eip $T0 4 + ^ = $ebp $T0 ^ = $esp $T0 8 + =
STACK WIN 4 f97b 33 0 0 4 4 18 0 1 $T0 $ebp = $eip $T0 4 + ^ = $ebp $T0 ^ = $esp $T0 8 + =  $23 $T0 28 - ^ =
STACK WIN 4 f9bf 87 b 0 8 0 0 0 1 $T0 $ebp = $eip $T0 4 + ^ = $ebp $T0 ^ = $esp $T0 8 + =
STACK WIN 4 f9c3 7b 7 0 8 4 0 0 1 $T0 $ebp = $eip $T0 4 + ^ = $ebp $T0 ^ = $esp $T0 8 + =  $20 $T0 4 - ^ =
STACK WIN 4 f9c4 79 6 0 8 8 0 0 1 $T0 $ebp = $eip $T0 4 + ^ = $ebp $T0 ^ = $esp $T0 8 + =  $20 $T0 4 - ^ =  $23 $T0 8 - ^ =
STACK WIN 4 f9c5 77 5 0 8 c 0 0 1 $T0 $ebp = $eip $T0 4 + ^ = $ebp $T0 ^ = $esp $T0 8 + =  $20 $T0 4 - ^ =  $23 $T0 8 - ^ =  $24 $T0 12 - ^ =
STACK WIN 4 fa67 45 3 0 4 0 0 0 1 $T0 $ebp = $eip $T0 4 + ^ = $ebp $T0 ^ = $esp $T0 8 + =
STACK WIN 4 fabd 61 0 0 0 0 0 0 1 $T0 .raSearch = $eip $T0 ^ = $esp $T0 4 + =
STACK WIN 4 fb36 658 e 0 c 0 28 0 1 $T0 $ebp = $eip $T0 4 + ^ = $ebp $T0 ^ = $esp $T0 8 + =
STACK WIN 4 fb42 9b 2 0 c 4 28 0 1 $T0 $ebp = $eip $T0 4 + ^ = $ebp $T0 ^ = $esp $T0 8 + =  $20 $T0 44 - ^ =
STACK WIN 4 fb43 99 1 0 c 8 28 0 1 $T0 $ebp = $eip $T0 4 + ^ = $ebp $T0 ^ = $esp $T0 8 + =  $20 $T0 44 - ^ =  $23 $T0 48 - ^ =
STACK WIN 4 fb44 97 0 0 c c 28 0 1 $T0 $ebp = $eip $T0 4 + ^ = $ebp $T0 ^ = $esp $T0 8 + =  $20 $T0 44 - ^ =  $23 $T0 48 - ^ =  $24 $T0 52 - ^ =
STACK WIN 4 10324 1e 3 0 c 0 0 0 1 $T0 $ebp = $eip $T0 4 + ^ = $ebp $T0 ^ = $esp $T0 8 + =
STACK WIN 4 10349 1e 3 0 c 0 0 0 1 $T0 $ebp = $eip $T0 4 + ^ = $ebp $T0 ^ = $esp $T0 8 + =
STACK WIN 4 1036e 1e4 e 0 8 0 10 0 1 $T0 $ebp = $eip $T0 4 + ^ = $ebp $T0 ^ = $esp $T0 8 + =
STACK WIN 4 1037b a9 1 0 8 4 10 0 1 $T0 $ebp = $eip $T0 4 + ^ = $ebp $T0 ^ = $esp $T0 8 + =  $23 $T0 20 - ^ =
STACK WIN 4 1037c a7 0 0 8 8 10 0 1 $T0 $ebp = $eip $T0 4 + ^ = $ebp $T0 ^ = $esp $T0 8 + =  $23 $T0 20 - ^ =  $24 $T0 24 - ^ =
STACK WIN 4 105cb 129 b 0 c 0 18 0 1 $T0 $ebp = $eip $T0 4 + ^ = $ebp $T0 ^ = $esp $T0 8 + =
STACK WIN 4 10682 56 0 0 c 4 18 0 1 $T0 $ebp = $eip $T0 4 + ^ = $ebp $T0 ^ = $esp $T0 8 + =  $23 $T0 28 - ^ =
STACK WIN 4 1073e fa c 0 10 0 8 0 1 $T0 $ebp = $eip $T0 4 + ^ = $ebp $T0 ^ = $esp $T0 8 + =
STACK WIN 4 10749 ed 1 0 10 4 8 0 1 $T0 $ebp = $eip $T0 4 + ^ = $ebp $T0 ^ = $esp $T0 8 + =  $23 $T0 12 - ^ =
STACK WIN 4 1074a eb 0 0 10 8 8 0 1 $T0 $ebp = $eip $T0 4 + ^ = $ebp $T0 ^ = $esp $T0 8 + =  $23 $T0 12 - ^ =  $24 $T0 16 - ^ =
STACK WIN 4 10807 25 0 0 10 c 8 0 1 $T0 $ebp = $eip $T0 4 + ^ = $ebp $T0 ^ = $esp $T0 8 + =  $23 $T0 12 - ^ =  $24 $T0 16 - ^ =  $20 $T0 20 - ^ =
STACK WIN 4 10876 1c 3 0 10 0 0 0 1 $T0 $ebp = $eip $T0 4 + ^ = $ebp $T0 ^ = $esp $T0 8 + =
STACK WIN 4 10899 f9 e 0 4 0 8 0 1 $T0 $ebp = $eip $T0 4 + ^ = $ebp $T0 ^ = $esp $T0 8 + =
STACK WIN 4 108a5 eb 2 0 4 4 8 0 1 $T0 $ebp = $eip $T0 4 + ^ = $ebp $T0 ^ = $esp $T0 8 + =  $20 $T0 12 - ^ =
STACK WIN 4 108a6 e9 1 0 4 8 8 0 1 $T0 $ebp = $eip $T0 4 + ^ = $ebp $T0 ^ = $esp $T0 8 + =  $20 $T0 12 - ^ =  $23 $T0 16 - ^ =
STACK WIN 4 108a7 e5 0 0 4 c 8 0 1 $T0 $ebp = $eip $T0 4 + ^ = $ebp $T0 ^ = $esp $T0 8 + =  $20 $T0 12 - ^ =  $23 $T0 16 - ^ =  $24 $T0 20 - ^ =
STACK WIN 4 109d0 2f 3 0 8 0 0 0 1 $T0 $ebp = $eip $T0 4 + ^ = $ebp $T0 ^ = $esp $T0 8 + =
STACK WIN 4 10a0a 394 c 0 4 0 f0 0 1 $T0 $ebp = $eip $T0 4 + ^ = $ebp $T0 ^ = $esp $T0 8 + =
STACK WIN 4 10a14 388 2 0 4 4 f0 0 1 $T0 $ebp = $eip $T0 4 + ^ = $ebp $T0 ^ = $esp $T0 8 + =  $20 $T0 244 - ^ =
STACK WIN 4 10a15 386 1 0 4 8 f0 0 1 $T0 $ebp = $eip $T0 4 + ^ = $ebp $T0 ^ = $esp $T0 8 + =  $20 $T0 244 - ^ =  $23 $T0 248 - ^ =
STACK WIN 4 10a16 384 0 0 4 c f0 0 1 $T0 $ebp = $eip $T0 4 + ^ = $ebp $T0 ^ = $esp $T0 8 + =  $20 $T0 244 - ^ =  $23 $T0 248 - ^ =  $24 $T0 252 - ^ =
STACK WIN 4 10e83 d4 f 0 4 0 18 0 1 $T0 $ebp = $eip $T0 4 + ^ = $ebp $T0 ^ = $esp $T0 8 + =
STACK WIN 4 10e8d c8 5 0 4 4 18 0 1 $T0 $ebp = $eip $T0 4 + ^ = $ebp $T0 ^ = $esp $T0 8 + =  $20 $T0 28 - ^ =
STACK WIN 4 10e8e c6 4 0 4 8 18 0 1 $T0 $ebp = $eip $T0 4 + ^ = $ebp $T0 ^ = $esp $T0 8 + =  $20 $T0 28 - ^ =  $23 $T0 32 - ^ =
STACK WIN 4 10e92 bf 0 0 4 c 18 0 1 $T0 $ebp = $eip $T0 4 + ^ = $ebp $T0 ^ = $esp $T0 8 + =  $20 $T0 28 - ^ =  $23 $T0 32 - ^ =  $24 $T0 36 - ^ =
STACK WIN 4 10f8c 51 5 0 4 0 8 0 1 $T0 $ebp = $eip $T0 4 + ^ = $ebp $T0 ^ = $esp $T0 8 + =
STACK WIN 4 10ff1 11 3 0 4 0 0 0 1 $T0 $ebp = $eip $T0 4 + ^ = $ebp $T0 ^ = $esp $T0 8 + =
STACK WIN 4 11006 2d 4 0 8 0 0 0 1 $T0 $ebp = $eip $T0 4 + ^ = $ebp $T0 ^ = $esp $T0 8 + =
STACK WIN 4 1100a 25 0 0 8 4 0 0 1 $T0 $ebp = $eip $T0 4 + ^ = $ebp $T0 ^ = $esp $T0 8 + =  $24 $T0 4 - ^ =
STACK WIN 4 11018 16 0 0 8 8 0 0 1 $T0 $ebp = $eip $T0 4 + ^ = $ebp $T0 ^ = $esp $T0 8 + =  $24 $T0 4 - ^ =  $23 $T0 8 - ^ =
STACK WIN 4 1103e 56 6 0 8 0 0 0 1 $T0 $ebp = $eip $T0 4 + ^ = $ebp $T0 ^ = $esp $T0 8 + =
STACK WIN 4 11042 4e 2 0 8 4 0 0 1 $T0 $ebp = $eip $T0 4 + ^ = $ebp $T0 ^ = $esp $T0 8 + =  $20 $T0 4 - ^ =
STACK WIN 4 11045 4a 0 0 8 8 0 0 1 $T0 $ebp = $eip $T0 4 + ^ = $ebp $T0 ^ = $esp $T0 8 + =  $20 $T0 4 - ^ =  $23 $T0 8 - ^ =
STACK WIN 4 11049 43 0 0 8 c 0 0 1 $T0 $ebp = $eip $T0 4 + ^ = $ebp $T0 ^ = $esp $T0 8 + =  $20 $T0 4 - ^ =  $23 $T0 8 - ^ =  $24 $T0 12 - ^ =
STACK WIN 4 110a9 27 3 0 8 0 0 0 1 $T0 $ebp = $eip $T0 4 + ^ = $ebp $T0 ^ = $esp $T0 8 + =
STACK WIN 4 110d9 15 3 0 8 0 0 0 1 $T0 $ebp = $eip $T0 4 + ^ = $ebp $T0 ^ = $esp $T0 8 + =
STACK WIN 4 110f3 17 3 0 8 0 0 0 1 $T0 $ebp = $eip $T0 4 + ^ = $ebp $T0 ^ = $esp $T0 8 + =
STACK WIN 4 1110f 46 7 0 8 0 0 0 1 $T0 $ebp = $eip $T0 4 + ^ = $ebp $T0 ^ = $esp $T0 8 + =
STACK WIN 4 11113 3e 3 0 8 4 0 0 1 $T0 $ebp = $eip $T0 4 + ^ = $ebp $T0 ^ = $esp $T0 8 + =  $20 $T0 4 - ^ =
STACK WIN 4 11114 3c 2 0 8 8 0 0 1 $T0 $ebp = $eip $T0 4 + ^ = $ebp $T0 ^ = $esp $T0 8 + =  $20 $T0 4 - ^ =  $23 $T0 8 - ^ =
STACK WIN 4 11117 38 0 0 8 c 0 0 1 $T0 $ebp = $eip $T0 4 + ^ = $ebp $T0 ^ = $esp $T0 8 + =  $20 $T0 4 - ^ =  $23 $T0 8 - ^ =  $24 $T0 12 - ^ =
STACK WIN 4 11166 1b 3 0 8 0 0 0 1 $T0 $ebp = $eip $T0 4 + ^ = $ebp $T0 ^ = $esp $T0 8 + =
STACK WIN 4 11187 b0 6 0 c 0 10 0 1 $T0 $ebp = $eip $T0 4 + ^ = $ebp $T0 ^ = $esp $T0 8 + =
STACK WIN 4 11263 37 3 0 10 0 0 0 1 $T0 $ebp = $eip $T0 4 + ^ = $ebp $T0 ^ = $esp $T0 8 + =
STACK WIN 4 1127c 19 0 0 10 4 0 0 1 $T0 $ebp = $eip $T0 4 + ^ = $ebp $T0 ^ = $esp $T0 8 + =  $20 $T0 4 - ^ =
STACK WIN 4 1127d 17 0 0 10 8 0 0 1 $T0 $ebp = $eip $T0 4 + ^ = $ebp $T0 ^ = $esp $T0 8 + =  $20 $T0 4 - ^ =  $23 $T0 8 - ^ =
STACK WIN 4 1127e 15 0 0 10 c 0 0 1 $T0 $ebp = $eip $T0 4 + ^ = $ebp $T0 ^ = $esp $T0 8 + =  $20 $T0 4 - ^ =  $23 $T0 8 - ^ =  $24 $T0 12 - ^ =
STACK WIN 4 112a7 48 3 0 4 0 0 0 1 $T0 $ebp = $eip $T0 4 + ^ = $ebp $T0 ^ = $esp $T0 8 + =
STACK WIN 4 11301 29d 12 0 4 0 78 0 1 $T0 $ebp = $eip $T0 4 + ^ = $ebp $T0 ^ = $esp $T0 8 + =
STACK WIN 4 11312 285 1 0 4 4 78 0 1 $T0 $ebp = $eip $T0 4 + ^ = $ebp $T0 ^ = $esp $T0 8 + =  $20 $T0 124 - ^ =
STACK WIN 4 11313 27b 0 0 4 8 78 0 1 $T0 $ebp = $eip $T0 4 + ^ = $ebp $T0 ^ = $esp $T0 8 + =  $20 $T0 124 - ^ =  $24 $T0 128 - ^ =
STACK WIN 4 11338 250 0 0 4 c 78 0 1 $T0 $ebp = $eip $T0 4 + ^ = $ebp $T0 ^ = $esp $T0 8 + =  $20 $T0 124 - ^ =  $24 $T0 128 - ^ =  $23 $T0 132 - ^ =
STACK WIN 4 11645 332 21 0 4 0 94 0 1 $T0 $ebp = $eip $T0 4 + ^ = $ebp $T0 ^ = $esp $T0 8 + =
STACK WIN 4 1165e 227 8 0 4 4 94 0 1 $T0 $ebp = $eip $T0 4 + ^ = $ebp $T0 ^ = $esp $T0 8 + =  $20 $T0 152 - ^ =
STACK WIN 4 11662 220 4 0 4 8 94 0 1 $T0 $ebp = $eip $T0 4 + ^ = $ebp $T0 ^ = $esp $T0 8 + =  $20 $T0 152 - ^ =  $23 $T0 156 - ^ =
STACK WIN 4 11666 21b 0 0 4 c 94 0 1 $T0 $ebp = $eip $T0 4 + ^ = $ebp $T0 ^ = $esp $T0 8 + =  $20 $T0 152 - ^ =  $23 $T0 156 - ^ =  $24 $T0 160 - ^ =
STACK WIN 4 11a43 162 e 0 8 0 b0 0 1 $T0 $ebp = $eip $T0 4 + ^ = $ebp $T0 ^ = $esp $T0 8 + =
STACK WIN 4 11a89 102 0 0 8 4 b0 0 1 $T0 $ebp = $eip $T0 4 + ^ = $ebp $T0 ^ = $esp $T0 8 + =  $20 $T0 180 - ^ =
STACK WIN 4 11a97 f3 0 0 8 8 b0 0 1 $T0 $ebp = $eip $T0 4 + ^ = $ebp $T0 ^ = $esp $T0 8 + =  $20 $T0 180 - ^ =  $24 $T0 184 - ^ =
STACK WIN 4 11b0b 34 0 0 8 c b0 0 1 $T0 $ebp = $eip $T0 4 + ^ = $ebp $T0 ^ = $esp $T0 8 + =  $20 $T0 180 - ^ =  $24 $T0 184 - ^ =  $23 $T0 188 - ^ =
STACK WIN 4 11bfd 33 6 0 4 0 10 0 1 $T0 $ebp = $eip $T0 4 + ^ = $ebp $T0 ^ = $esp $T0 8 + =
STACK WIN 4 11c3c 23 3 0 4 0 0 0 1 $T0 $ebp = $eip $T0 4 + ^ = $ebp $T0 ^ = $esp $T0 8 + =
STACK WIN 4 11c67 328 9 0 0 0 0 0 1 $T0 .raSearch = $eip $T0 ^ = $esp $T0 4 + =
STACK WIN 4 11c6e 2fb 2 0 0 4 0 0 1 $T0 .raSearch = $eip $T0 ^ = $esp $T0 4 + =  $20 $T0 4 - ^ =
STACK WIN 4 11c6f 2f9 1 0 0 8 0 0 1 $T0 .raSearch = $eip $T0 ^ = $esp $T0 4 + =  $20 $T0 4 - ^ =  $23 $T0 8 - ^ =
STACK WIN 4 11c70 2f7 0 0 0 c 0 0 1 $T0 .raSearch = $eip $T0 ^ = $esp $T0 4 + =  $20 $T0 4 - ^ =  $23 $T0 8 - ^ =  $24 $T0 12 - ^ =
STACK WIN 4 12059 c4 6 0 8 0 10 0 1 $T0 $ebp = $eip $T0 4 + ^ = $ebp $T0 ^ = $esp $T0 8 + =
STACK WIN 4 120b5 64 0 0 8 4 10 0 1 $T0 $ebp = $eip $T0 4 + ^ = $ebp $T0 ^ = $esp $T0 8 + =  $23 $T0 20 - ^ =
STACK WIN 4 120b9 5d 0 0 8 8 10 0 1 $T0 $ebp = $eip $T0 4 + ^ = $ebp $T0 ^ = $esp $T0 8 + =  $23 $T0 20 - ^ =  $24 $T0 24 - ^ =
STACK WIN 4 1214e 47 3 0 4 0 0 0 1 $T0 $ebp = $eip $T0 4 + ^ = $ebp $T0 ^ = $esp $T0 8 + =
STACK WIN 4 121a6 15 3 0 8 0 0 0 1 $T0 $ebp = $eip $T0 4 + ^ = $ebp $T0 ^ = $esp $T0 8 + =
STACK WIN 4 121c0 54 9 0 8 0 8 0 1 $T0 $ebp = $eip $T0 4 + ^ = $ebp $T0 ^ = $esp $T0 8 + =
STACK WIN 4 121c9 49 0 0 8 4 8 0 1 $T0 $ebp = $eip $T0 4 + ^ = $ebp $T0 ^ = $esp $T0 8 + =  $23 $T0 12 - ^ =
STACK WIN 4 12229 163 c 0 8 0 20 0 1 $T0 $ebp = $eip $T0 4 + ^ = $ebp $T0 ^ = $esp $T0 8 + =
STACK WIN 4 12235 155 0 0 8 4 20 0 1 $T0 $ebp = $eip $T0 4 + ^ = $ebp $T0 ^ = $esp $T0 8 + =  $24 $T0 36 - ^ =
STACK WIN 4 1229d 9b 0 0 8 8 20 0 1 $T0 $ebp = $eip $T0 4 + ^ = $ebp $T0 ^ = $esp $T0 8 + =  $24 $T0 36 - ^ =  $20 $T0 40 - ^ =
STACK WIN 4 1229e 99 0 0 8 c 20 0 1 $T0 $ebp = $eip $T0 4 + ^ = $ebp $T0 ^ = $esp $T0 8 + =  $24 $T0 36 - ^ =  $20 $T0 40 - ^ =  $23 $T0 44 - ^ =
STACK WIN 4 123e4 1ff 18 0 c 0 40 0 1 $T0 $ebp = $eip $T0 4 + ^ = $ebp $T0 ^ = $esp $T0 8 + =
STACK WIN 4 123f5 1e7 7 0 c 4 40 0 1 $T0 $ebp = $eip $T0 4 + ^ = $ebp $T0 ^ = $esp $T0 8 + =  $23 $T0 68 - ^ =
STACK WIN 4 123fc 1dd 0 0 c 8 40 0 1 $T0 $ebp = $eip $T0 4 + ^ = $ebp $T0 ^ = $esp $T0 8 + =  $23 $T0 68 - ^ =  $24 $T0 72 - ^ =
STACK WIN 4 1247f 12f 0 0 c c 40 0 1 $T0 $ebp = $eip $T0 4 + ^ = $ebp $T0 ^ = $esp $T0 8 + =  $23 $T0 68 - ^ =  $24 $T0 72 - ^ =  $20 $T0 76 - ^ =
STACK WIN 4 12662 b 0 0 0 0 0 0 1 $T0 .raSearch = $eip $T0 ^ = $esp $T0 4 + =
STACK WIN 4 1266f a 0 0 0 0 0 0 1 $T0 .raSearch = $eip $T0 ^ = $esp $T0 4 + =
STACK WIN 4 1267b a 0 0 0 0 0 0 1 $T0 .raSearch = $eip $T0 ^ = $esp $T0 4 + =
STACK WIN 4 12687 8 0 0 0 0 0 0 1 $T0 .raSearch = $eip $T0 ^ = $esp $T0 4 + =
STACK WIN 4 12691 9 0 0 0 0 0 0 1 $T0 .raSearch = $eip $T0 ^ = $esp $T0 4 + =
STACK WIN 4 1269c a 0 0 0 0 0 0 1 $T0 .raSearch = $eip $T0 ^ = $esp $T0 4 + =
STACK WIN 4 126a8 a 0 0 0 0 0 0 1 $T0 .raSearch = $eip $T0 ^ = $esp $T0 4 + =
STACK WIN 4 126b4 a 0 0 0 0 0 0 1 $T0 .raSearch = $eip $T0 ^ = $esp $T0 4 + =
STACK WIN 4 126c0 11 0 0 0 0 0 0 1 $T0 .raSearch = $eip $T0 ^ = $esp $T0 4 + =
STACK WIN 4 126d5 11 0 0 0 0 0 0 1 $T0 .raSearch = $eip $T0 ^ = $esp $T0 4 + =
STACK WIN 4 126ea a 0 0 0 0 0 0 1 $T0 .raSearch = $eip $T0 ^ = $esp $T0 4 + =
STACK WIN 4 126f6 a 0 0 0 0 0 0 1 $T0 .raSearch = $eip $T0 ^ = $esp $T0 4 + =
STACK WIN 4 12702 1f 1 0 0 0 0 0 1 $T0 .raSearch = $eip $T0 ^ = $esp $T0 4 + =
STACK WIN 4 12703 1d 0 0 0 4 0 0 1 $T0 .raSearch = $eip $T0 ^ = $esp $T0 4 + =  $24 $T0 4 - ^ =
STACK WIN 4 12710 f 0 0 0 8 0 0 1 $T0 .raSearch = $eip $T0 ^ = $esp $T0 4 + =  $24 $T0 4 - ^ =  $23 $T0 8 - ^ =
STACK WIN 4 12728 4 0 0 0 0 0 0 1 $T0 .raSearch = $eip $T0 ^ = $esp $T0 4 + =
STACK WIN 4 1272c 4 0 0 0 0 0 0 1 $T0 .raSearch = $eip $T0 ^ = $esp $T0 4 + =
STACK WIN 4 12730 e 0 0 0 0 0 0 1 $T0 .raSearch = $eip $T0 ^ = $esp $T0 4 + =
STACK WIN 4 12741 46 a 0 0 0 4 0 1 $T0 $ebp = $eip $T0 4 + ^ = $ebp $T0 ^ = $esp $T0 8 + =
STACK WIN 4 12750 32 0 0 0 4 4 0 1 $T0 $ebp = $eip $T0 4 + ^ = $ebp $T0 ^ = $esp $T0 8 + =  $20 $T0 8 - ^ =
STACK WIN 4 12754 2d 0 0 0 8 4 0 1 $T0 $ebp = $eip $T0 4 + ^ = $ebp $T0 ^ = $esp $T0 8 + =  $20 $T0 8 - ^ =  $23 $T0 12 - ^ =
STACK WIN 4 12755 2b 0 0 0 c 4 0 1 $T0 $ebp = $eip $T0 4 + ^ = $ebp $T0 ^ = $esp $T0 8 + =  $20 $T0 8 - ^ =  $23 $T0 12 - ^ =  $24 $T0 16 - ^ =
STACK WIN 4 12798 4 0 0 0 0 0 0 1 $T0 .raSearch = $eip $T0 ^ = $esp $T0 4 + =
STACK WIN 4 1279c 1c 3 0 4 0 0 0 1 $T0 $ebp = $eip $T0 4 + ^ = $ebp $T0 ^ = $esp $T0 8 + =
STACK WIN 4 127bf ee e 0 4 0 18 0 1 $T0 $ebp = $eip $T0 4 + ^ = $ebp $T0 ^ = $esp $T0 8 + =
STACK WIN 4 127cd de 0 0 4 4 18 0 1 $T0 $ebp = $eip $T0 4 + ^ = $ebp $T0 ^ = $esp $T0 8 + =  $24 $T0 28 - ^ =
STACK WIN 4 127f9 2f 0 0 4 8 18 0 1 $T0 $ebp = $eip $T0 4 + ^ = $ebp $T0 ^ = $esp $T0 8 + =  $24 $T0 28 - ^ =  $23 $T0 32 - ^ =
STACK WIN 4 128e8 8 0 0 0 0 0 0 1 $T0 .raSearch = $eip $T0 ^ = $esp $T0 4 + =
STACK WIN 4 128f2 8 0 0 0 0 0 0 1 $T0 .raSearch = $eip $T0 ^ = $esp $T0 4 + =
STACK WIN 4 128fc 8 0 0 0 0 0 0 1 $T0 .raSearch = $eip $T0 ^ = $esp $T0 4 + =
STACK WIN 4 12906 8 0 0 0 0 0 0 1 $T0 .raSearch = $eip $T0 ^ = $esp $T0 4 + =
STACK WIN 4 12910 d 0 0 0 0 0 0 1 $T0 .raSearch = $eip $T0 ^ = $esp $T0 4 + =
STACK WIN 4 12920 8 0 0 0 0 0 0 1 $T0 .raSearch = $eip $T0 ^ = $esp $T0 4 + =
STACK WIN 4 1292a a 0 0 0 0 0 0 1 $T0 .raSearch = $eip $T0 ^ = $esp $T0 4 + =
STACK WIN 4 12936 5 0 0 0 0 0 0 1 $T0 .raSearch = $eip $T0 ^ = $esp $T0 4 + =
STACK WIN 4 1293b 21 3 0 c 0 0 0 1 $T0 $ebp = $eip $T0 4 + ^ = $ebp $T0 ^ = $esp $T0 8 + =
STACK WIN 4 12949 11 0 0 c 4 0 0 1 $T0 $ebp = $eip $T0 4 + ^ = $ebp $T0 ^ = $esp $T0 8 + =  $23 $T0 4 - ^ =
STACK WIN 4 12964 15 3 0 4 0 0 0 1 $T0 $ebp = $eip $T0 4 + ^ = $ebp $T0 ^ = $esp $T0 8 + =
STACK WIN 4 1297e 31 3 0 c 0 0 0 1 $T0 $ebp = $eip $T0 4 + ^ = $ebp $T0 ^ = $esp $T0 8 + =
STACK WIN 4 12991 1c 0 0 c 4 0 0 1 $T0 $ebp = $eip $T0 4 + ^ = $ebp $T0 ^ = $esp $T0 8 + =  $20 $T0 4 - ^ =
STACK WIN 4 129bb 23 3 0 18 0 0 0 1 $T0 $ebp = $eip $T0 4 + ^ = $ebp $T0 ^ = $esp $T0 8 + =
STACK WIN 4 129e6 9f c 0 1c 10 74 0 1 $T0 $ebp = $eip $T0 4 + ^ = $ebp $T0 ^ = $esp $T0 8 + =  $20 $T0 120 - ^ =  $23 $T0 124 - ^ =  $24 $T0 128 - ^ =
STACK WIN 4 12a78 c 0 0 1c 10 74 0 1 $T0 $ebp = $T2 $esp = $T1 .raSearchStart = $eip $T1 ^ = $ebp $T0 = $esp $T1 4 + =
STACK WIN 4 12aac 2d 3 0 14 0 0 0 1 $T0 $ebp = $eip $T0 4 + ^ = $ebp $T0 ^ = $esp $T0 8 + =
STACK WIN 4 12ae4 1c 3 0 c 0 0 0 1 $T0 $ebp = $eip $T0 4 + ^ = $ebp $T0 ^ = $esp $T0 8 + =
STACK WIN 4 12b07 5c 9 0 18 0 58 0 1 $T0 $ebp = $eip $T0 4 + ^ = $ebp $T0 ^ = $esp $T0 8 + =
STACK WIN 4 12b17 4a 0 0 18 4 58 0 1 $T0 $ebp = $eip $T0 4 + ^ = $ebp $T0 ^ = $esp $T0 8 + =  $23 $T0 92 - ^ =
STACK WIN 4 12b7a 10 3 0 4 0 0 0 1 $T0 $ebp = $eip $T0 4 + ^ = $ebp $T0 ^ = $esp $T0 8 + =
STACK WIN 4 12b8e e 3 0 4 0 0 0 1 $T0 $ebp = $eip $T0 4 + ^ = $ebp $T0 ^ = $esp $T0 8 + =
STACK WIN 4 12b9f f 3 0 0 0 0 0 1 $T0 .raSearch = $eip $T0 ^ = $esp $T0 4 + =
STACK WIN 4 12ba0 d 2 0 0 4 0 0 1 $T0 .raSearch = $eip $T0 ^ = $esp $T0 4 + =  $23 $T0 4 - ^ =
STACK WIN 4 12bb1 10 3 0 0 0 0 0 1 $T0 .raSearch = $eip $T0 ^ = $esp $T0 4 + =
STACK WIN 4 12bb2 e 2 0 0 4 0 0 1 $T0 .raSearch = $eip $T0 ^ = $esp $T0 4 + =  $23 $T0 4 - ^ =
STACK WIN 4 12bc5 9 0 0 0 0 0 0 1 $T0 .raSearch = $eip $T0 ^ = $esp $T0 4 + =
STACK WIN 4 12bd0 7 0 0 0 0 0 0 1 $T0 .raSearch = $eip $T0 ^ = $esp $T0 4 + =
STACK WIN 4 12bd7 6 0 0 0 0 0 0 1 $T0 .raSearch = $eip $T0 ^ = $esp $T0 4 + =
STACK WIN 4 12bdd 3 0 0 0 0 0 0 1 $T0 .raSearch = $eip $T0 ^ = $esp $T0 4 + =
STACK WIN 4 12be0 7 0 0 0 0 0 0 1 $T0 .raSearch = $eip $T0 ^ = $esp $T0 4 + =
STACK WIN 4 12be7 10 3 0 0 0 0 0 1 $T0 .raSearch = $eip $T0 ^ = $esp $T0 4 + =
STACK WIN 4 12be8 e 2 0 0 4 0 0 1 $T0 .raSearch = $eip $T0 ^ = $esp $T0 4 + =  $23 $T0 4 - ^ =
STACK WIN 4 12bfb 1a 3 0 4 0 0 0 1 $T0 $ebp = $eip $T0 4 + ^ = $ebp $T0 ^ = $esp $T0 8 + =
STACK WIN 4 12c1b 1c 3 0 4 0 0 0 1 $T0 $ebp = $eip $T0 4 + ^ = $ebp $T0 ^ = $esp $T0 8 + =
STACK WIN 4 12c3e 36 3 0 4 0 0 0 1 $T0 $ebp = $eip $T0 4 + ^ = $ebp $T0 ^ = $esp $T0 8 + =
STACK WIN 4 12c4c 26 0 0 4 4 0 0 1 $T0 $ebp = $eip $T0 4 + ^ = $ebp $T0 ^ = $esp $T0 8 + =  $23 $T0 4 - ^ =
STACK WIN 4 12c81 e 0 0 0 0 0 0 1 $T0 .raSearch = $eip $T0 ^ = $esp $T0 4 + =
STACK WIN 4 12c92 92 0 0 0 0 0 0 1 $T0 .raSearch = $eip $T0 ^ = $esp $T0 4 + =
STACK WIN 4 12c9f 84 0 0 0 4 0 0 1 $T0 .raSearch = $eip $T0 ^ = $esp $T0 4 + =  $20 $T0 4 - ^ =
STACK WIN 4 12ca0 80 0 0 0 8 0 0 1 $T0 .raSearch = $eip $T0 ^ = $esp $T0 4 + =  $20 $T0 4 - ^ =  $24 $T0 8 - ^ =
STACK WIN 4 12cd7 41 0 0 0 c 0 0 1 $T0 .raSearch = $eip $T0 ^ = $esp $T0 4 + =  $20 $T0 4 - ^ =  $24 $T0 8 - ^ =  $23 $T0 12 - ^ =
STACK WIN 4 12d48 37 0 0 0 0 0 0 1 $T0 .raSearch = $eip $T0 ^ = $esp $T0 4 + =
STACK WIN 4 12d55 29 0 0 0 4 0 0 1 $T0 .raSearch = $eip $T0 ^ = $esp $T0 4 + =  $23 $T0 4 - ^ =
STACK WIN 4 12d56 27 0 0 0 8 0 0 1 $T0 .raSearch = $eip $T0 ^ = $esp $T0 4 + =  $23 $T0 4 - ^ =  $24 $T0 8 - ^ =
STACK WIN 4 12d8c 33 0 0 0 0 0 0 1 $T0 .raSearch = $eip $T0 ^ = $esp $T0 4 + =
STACK WIN 4 12dcb 1b 0 0 0 0 0 0 1 $T0 .raSearch = $eip $T0 ^ = $esp $T0 4 + =
STACK WIN 4 12dec 3c 2 0 0 0 0 0 1 $T0 .raSearch = $eip $T0 ^ = $esp $T0 4 + =
STACK WIN 4 12ded 3a 1 0 0 4 0 0 1 $T0 .raSearch = $eip $T0 ^ = $esp $T0 4 + =  $23 $T0 4 - ^ =
STACK WIN 4 12dee 38 0 0 0 8 0 0 1 $T0 .raSearch = $eip $T0 ^ = $esp $T0 4 + =  $23 $T0 4 - ^ =  $24 $T0 8 - ^ =
STACK WIN 4 12e37 15 3 0 4 0 0 0 1 $T0 $ebp = $eip $T0 4 + ^ = $ebp $T0 ^ = $esp $T0 8 + =
STACK WIN 4 12e51 2f 1 0 0 0 0 0 1 $T0 .raSearch = $eip $T0 ^ = $esp $T0 4 + =
STACK WIN 4 12e52 2d 0 0 0 4 0 0 1 $T0 .raSearch = $eip $T0 ^ = $esp $T0 4 + =  $23 $T0 4 - ^ =
STACK WIN 4 12e60 1c 0 0 0 8 0 0 1 $T0 .raSearch = $eip $T0 ^ = $esp $T0 4 + =  $23 $T0 4 - ^ =  $24 $T0 8 - ^ =
STACK WIN 4 12e8b 15 3 0 4 0 0 0 1 $T0 $ebp = $eip $T0 4 + ^ = $ebp $T0 ^ = $esp $T0 8 + =
STACK WIN 4 12ea5 6 0 0 0 0 0 0 1 $T0 .raSearch = $eip $T0 ^ = $esp $T0 4 + =
STACK WIN 4 12eab 14 3 0 4 0 0 0 1 $T0 $ebp = $eip $T0 4 + ^ = $ebp $T0 ^ = $esp $T0 8 + =
STACK WIN 4 12ec4 1d 3 0 4 0 0 0 1 $T0 $ebp = $eip $T0 4 + ^ = $ebp $T0 ^ = $esp $T0 8 + =
STACK WIN 4 12ee8 d 3 0 8 0 0 0 1 $T0 $ebp = $eip $T0 4 + ^ = $ebp $T0 ^ = $esp $T0 8 + =
STACK WIN 4 12ef8 d 3 0 8 0 0 0 1 $T0 $ebp = $eip $T0 4 + ^ = $ebp $T0 ^ = $esp $T0 8 + =
STACK WIN 4 12f08 d 3 0 8 0 0 0 1 $T0 $ebp = $eip $T0 4 + ^ = $ebp $T0 ^ = $esp $T0 8 + =
STACK WIN 4 12f18 a 3 0 4 0 0 0 1 $T0 $ebp = $eip $T0 4 + ^ = $ebp $T0 ^ = $esp $T0 8 + =
STACK WIN 4 12f24 a 3 0 4 0 0 0 1 $T0 $ebp = $eip $T0 4 + ^ = $ebp $T0 ^ = $esp $T0 8 + =
STACK WIN 4 12f30 9 4 0 4 0 4 0 1 $T0 $ebp = $eip $T0 4 + ^ = $ebp $T0 ^ = $esp $T0 8 + =
STACK WIN 4 12f3b 4 0 0 0 0 0 0 1 $T0 .raSearch = $eip $T0 ^ = $esp $T0 4 + =
STACK WIN 4 12f3f 1a 0 0 0 0 0 0 1 $T0 .raSearch = $eip $T0 ^ = $esp $T0 4 + =
STACK WIN 4 12f5f 1a 0 0 0 0 0 0 1 $T0 .raSearch = $eip $T0 ^ = $esp $T0 4 + =
STACK WIN 4 12f7f 1a 0 0 0 0 0 0 1 $T0 .raSearch = $eip $T0 ^ = $esp $T0 4 + =
STACK WIN 4 12f9f 1a 0 0 0 0 0 0 1 $T0 .raSearch = $eip $T0 ^ = $esp $T0 4 + =
STACK WIN 4 12fbf 1a 0 0 0 0 0 0 1 $T0 .raSearch = $eip $T0 ^ = $esp $T0 4 + =
STACK WIN 4 12fdf c4 7 0 8 0 4 0 1 $T0 $ebp = $eip $T0 4 + ^ = $ebp $T0 ^ = $esp $T0 8 + =
STACK WIN 4 12fe4 b9 2 0 8 4 4 0 1 $T0 $ebp = $eip $T0 4 + ^ = $ebp $T0 ^ = $esp $T0 8 + =  $20 $T0 8 - ^ =
STACK WIN 4 12fe5 b7 1 0 8 8 4 0 1 $T0 $ebp = $eip $T0 4 + ^ = $ebp $T0 ^ = $esp $T0 8 + =  $20 $T0 8 - ^ =  $23 $T0 12 - ^ =
STACK WIN 4 12fe6 b5 0 0 8 c 4 0 1 $T0 $ebp = $eip $T0 4 + ^ = $ebp $T0 ^ = $esp $T0 8 + =  $20 $T0 8 - ^ =  $23 $T0 12 - ^ =  $24 $T0 16 - ^ =
STACK WIN 4 130d4 6f 7 0 10 0 0 0 1 $T0 $ebp = $eip $T0 4 + ^ = $ebp $T0 ^ = $esp $T0 8 + =
STACK WIN 4 130db 66 0 0 10 4 0 0 1 $T0 $ebp = $eip $T0 4 + ^ = $ebp $T0 ^ = $esp $T0 8 + =  $24 $T0 4 - ^ =
STACK WIN 4 13105 3b 0 0 10 8 0 0 1 $T0 $ebp = $eip $T0 4 + ^ = $ebp $T0 ^ = $esp $T0 8 + =  $24 $T0 4 - ^ =  $23 $T0 8 - ^ =
STACK WIN 4 1315e 4f 7 0 4 0 0 0 1 $T0 $ebp = $eip $T0 4 + ^ = $ebp $T0 ^ = $esp $T0 8 + =
STACK WIN 4 13165 46 0 0 4 4 0 0 1 $T0 $ebp = $eip $T0 4 + ^ = $ebp $T0 ^ = $esp $T0 8 + =  $24 $T0 4 - ^ =
STACK WIN 4 1317e 2c 0 0 4 8 0 0 1 $T0 $ebp = $eip $T0 4 + ^ = $ebp $T0 ^ = $esp $T0 8 + =  $24 $T0 4 - ^ =  $23 $T0 8 - ^ =
STACK WIN 4 131c0 22 3 0 c 0 0 0 1 $T0 $ebp = $eip $T0 4 + ^ = $ebp $T0 ^ = $esp $T0 8 + =
STACK WIN 4 131ea 61 3 0 4 0 0 0 1 $T0 $ebp = $eip $T0 4 + ^ = $ebp $T0 ^ = $esp $T0 8 + =
STACK WIN 4 13263 3b 4 0 4 0 0 0 1 $T0 $ebp = $eip $T0 4 + ^ = $ebp $T0 ^ = $esp $T0 8 + =
STACK WIN 4 13267 30 0 0 4 4 0 0 1 $T0 $ebp = $eip $T0 4 + ^ = $ebp $T0 ^ = $esp $T0 8 + =  $23 $T0 4 - ^ =
STACK WIN 4 132ac 3b 4 0 4 0 0 0 1 $T0 $ebp = $eip $T0 4 + ^ = $ebp $T0 ^ = $esp $T0 8 + =
STACK WIN 4 132b0 35 0 0 4 4 0 0 1 $T0 $ebp = $eip $T0 4 + ^ = $ebp $T0 ^ = $esp $T0 8 + =  $23 $T0 4 - ^ =
STACK WIN 4 132f5 3b 4 0 4 0 0 0 1 $T0 $ebp = $eip $T0 4 + ^ = $ebp $T0 ^ = $esp $T0 8 + =
STACK WIN 4 132f9 35 0 0 4 4 0 0 1 $T0 $ebp = $eip $T0 4 + ^ = $ebp $T0 ^ = $esp $T0 8 + =  $23 $T0 4 - ^ =
STACK WIN 4 1333e 3e 4 0 8 0 0 0 1 $T0 $ebp = $eip $T0 4 + ^ = $ebp $T0 ^ = $esp $T0 8 + =
STACK WIN 4 13342 38 0 0 8 4 0 0 1 $T0 $ebp = $eip $T0 4 + ^ = $ebp $T0 ^ = $esp $T0 8 + =  $23 $T0 4 - ^ =
STACK WIN 4 1338b 47 4 0 c 0 0 0 1 $T0 $ebp = $eip $T0 4 + ^ = $ebp $T0 ^ = $esp $T0 8 + =
STACK WIN 4 1338f 41 0 0 c 4 0 0 1 $T0 $ebp = $eip $T0 4 + ^ = $ebp $T0 ^ = $esp $T0 8 + =  $23 $T0 4 - ^ =
STACK WIN 4 133e3 29 f 0 0 0 0 0 1 $T0 .raSearch = $eip $T0 ^ = $esp $T0 4 + =
STACK WIN 4 133f2 19 0 0 0 4 0 0 1 $T0 .raSearch = $eip $T0 ^ = $esp $T0 4 + =  $23 $T0 4 - ^ =
STACK WIN 4 13416 32 3 0 4 0 0 0 1 $T0 $ebp = $eip $T0 4 + ^ = $ebp $T0 ^ = $esp $T0 8 + =
STACK WIN 4 13420 26 0 0 4 4 0 0 1 $T0 $ebp = $eip $T0 4 + ^ = $ebp $T0 ^ = $esp $T0 8 + =  $23 $T0 4 - ^ =
STACK WIN 4 13454 6 0 0 0 0 0 0 1 $T0 .raSearch = $eip $T0 ^ = $esp $T0 4 + =
STACK WIN 4 1345a 1d 3 0 4 0 0 0 1 $T0 $ebp = $eip $T0 4 + ^ = $ebp $T0 ^ = $esp $T0 8 + =
STACK WIN 4 1347e b 0 0 0 0 0 0 1 $T0 .raSearch = $eip $T0 ^ = $esp $T0 4 + =
STACK WIN 0 134f6 84 3 0 8 c 0 0 0 0
STACK WIN 0 1357a 23 0 0 0 0 0 0 0 0
STACK WIN 0 135cb 3 0 0 0 0 0 0 0 0
STACK WIN 4 1361d 14 3 0 4 0 0 0 1 $T0 $ebp = $eip $T0 4 + ^ = $ebp $T0 ^ = $esp $T0 8 + =
STACK WIN 4 13636 d 3 0 8 0 0 0 1 $T0 $ebp = $eip $T0 4 + ^ = $ebp $T0 ^ = $esp $T0 8 + =
STACK WIN 4 13646 a 3 0 4 0 0 0 1 $T0 $ebp = $eip $T0 4 + ^ = $ebp $T0 ^ = $esp $T0 8 + =
STACK WIN 4 13652 15 0 0 0 0 0 0 1 $T0 .raSearch = $eip $T0 ^ = $esp $T0 4 + =
STACK WIN 4 1366c 1c 1 0 0 4 0 0 1 $T0 .raSearch = $eip $T0 ^ = $esp $T0 4 + =  $23 $T0 4 - ^ =
STACK WIN 4 1368f 25 3 0 4 0 0 0 1 $T0 $ebp = $eip $T0 4 + ^ = $ebp $T0 ^ = $esp $T0 8 + =
STACK WIN 4 136bd 24 3 0 8 0 0 0 1 $T0 $ebp = $eip $T0 4 + ^ = $ebp $T0 ^ = $esp $T0 8 + =
STACK WIN 4 136ea 8 3 0 4 0 0 0 1 $T0 $ebp = $eip $T0 4 + ^ = $ebp $T0 ^ = $esp $T0 8 + =
STACK WIN 4 136f4 14 3 0 8 0 0 0 1 $T0 $ebp = $eip $T0 4 + ^ = $ebp $T0 ^ = $esp $T0 8 + =
STACK WIN 4 1370d 82 e 0 10 0 8 0 1 $T0 $ebp = $eip $T0 4 + ^ = $ebp $T0 ^ = $esp $T0 8 + =
STACK WIN 4 13713 74 8 0 10 4 8 0 1 $T0 $ebp = $eip $T0 4 + ^ = $ebp $T0 ^ = $esp $T0 8 + =  $20 $T0 12 - ^ =
STACK WIN 4 13717 64 4 0 10 8 8 0 1 $T0 $ebp = $eip $T0 4 + ^ = $ebp $T0 ^ = $esp $T0 8 + =  $20 $T0 12 - ^ =  $23 $T0 16 - ^ =
STACK WIN 4 1371b 5f 0 0 10 c 8 0 1 $T0 $ebp = $eip $T0 4 + ^ = $ebp $T0 ^ = $esp $T0 8 + =  $20 $T0 12 - ^ =  $23 $T0 16 - ^ =  $24 $T0 20 - ^ =
STACK WIN 4 13789 6 0 0 10 c 8 0 1 $T0 $ebp = $eip $T0 4 + ^ = $ebp $T0 ^ = $esp $T0 8 + =  $20 $T0 12 - ^ =  $23 $T0 16 - ^ =  $24 $T0 20 - ^ =
STACK WIN 4 137af 5e 6 0 14 0 18 0 1 $T0 $ebp = $eip $T0 4 + ^ = $ebp $T0 ^ = $esp $T0 8 + =
STACK WIN 4 13824 db 7 0 1c 4 38 0 1 $T0 $ebp = $eip $T0 4 + ^ = $ebp $T0 ^ = $esp $T0 8 + =  $20 $T0 60 - ^ =
STACK WIN 4 13935 30 5 0 8 4 4 0 1 $T0 $ebp = $eip $T0 4 + ^ = $ebp $T0 ^ = $esp $T0 8 + =  $20 $T0 8 - ^ =
STACK WIN 4 13971 53 8 0 8 c 8 0 1 $T0 $ebp = $eip $T0 4 + ^ = $ebp $T0 ^ = $esp $T0 8 + =  $20 $T0 12 - ^ =  $23 $T0 16 - ^ =  $24 $T0 20 - ^ =
STACK WIN 4 139d8 3 0 0 0 0 0 0 1 $T0 .raSearch = $eip $T0 ^ = $esp $T0 4 + =
STACK WIN 4 139db 31 4 0 10 0 0 0 1 $T0 $ebp = $eip $T0 4 + ^ = $ebp $T0 ^ = $esp $T0 8 + =
STACK WIN 4 139df 2b 0 0 10 4 0 0 1 $T0 $ebp = $eip $T0 4 + ^ = $ebp $T0 ^ = $esp $T0 8 + =  $23 $T0 4 - ^ =
STACK WIN 4 13a18 24 7 0 8 0 0 0 1 $T0 $ebp = $eip $T0 4 + ^ = $ebp $T0 ^ = $esp $T0 8 + =
STACK WIN 4 13a1f 1b 0 0 8 4 0 0 1 $T0 $ebp = $eip $T0 4 + ^ = $ebp $T0 ^ = $esp $T0 8 + =  $23 $T0 4 - ^ =
STACK WIN 4 13a45 45 4 0 4 0 0 0 1 $T0 $ebp = $eip $T0 4 + ^ = $ebp $T0 ^ = $esp $T0 8 + =
STACK WIN 4 13a49 13 0 0 4 4 0 0 1 $T0 $ebp = $eip $T0 4 + ^ = $ebp $T0 ^ = $esp $T0 8 + =  $23 $T0 4 - ^ =
STACK WIN 4 13a9b 9d 5 0 10 4 4 0 1 $T0 $ebp = $eip $T0 4 + ^ = $ebp $T0 ^ = $esp $T0 8 + =  $20 $T0 8 - ^ =
STACK WIN 4 13b5f 36 0 0 10 0 0 0 1 $T0 .raSearch = $eip $T0 ^ = $esp $T0 4 + =
STACK WIN 4 13ba2 36 0 0 10 0 0 0 1 $T0 .raSearch = $eip $T0 ^ = $esp $T0 4 + =
STACK WIN 4 13be5 36 0 0 10 0 0 0 1 $T0 .raSearch = $eip $T0 ^ = $esp $T0 4 + =
STACK WIN 4 13c28 25 4 0 4 0 0 0 1 $T0 $ebp = $eip $T0 4 + ^ = $ebp $T0 ^ = $esp $T0 8 + =
STACK WIN 4 13c2c 1d 0 0 4 4 0 0 1 $T0 $ebp = $eip $T0 4 + ^ = $ebp $T0 ^ = $esp $T0 8 + =  $23 $T0 4 - ^ =
STACK WIN 0 13c62 572 2 0 c 8 0 0 0 0
STACK WIN 4 14331 13f c 0 10 10 20 0 1 $T0 $ebp = $eip $T0 4 + ^ = $ebp $T0 ^ = $esp $T0 8 + =  $20 $T0 36 - ^ =  $23 $T0 40 - ^ =  $24 $T0 44 - ^ =
STACK WIN 4 1444f 4 0 0 10 10 20 0 1 $T0 $ebp = $T2 $esp = $T1 .raSearchStart = $eip $T1 ^ = $ebp $T0 = $esp $T1 4 + =
STACK WIN 4 144bf 99 c 0 10 10 18 0 1 $T0 $ebp = $eip $T0 4 + ^ = $ebp $T0 ^ = $esp $T0 8 + =  $20 $T0 28 - ^ =  $23 $T0 32 - ^ =  $24 $T0 36 - ^ =
STACK WIN 4 1454b 4 0 0 10 10 18 0 1 $T0 $ebp = $T2 $esp = $T1 .raSearchStart = $eip $T1 ^ = $ebp $T0 = $esp $T1 4 + =
STACK WIN 4 1457e 80 d 0 2c 0 0 0 1 $T0 $ebp = $eip $T0 4 + ^ = $ebp $T0 ^ = $esp $T0 8 + =
STACK WIN 4 14586 76 5 0 2c 4 0 0 1 $T0 $ebp = $eip $T0 4 + ^ = $ebp $T0 ^ = $esp $T0 8 + =  $20 $T0 4 - ^ =
STACK WIN 4 1458a 71 1 0 2c 8 0 0 1 $T0 $ebp = $eip $T0 4 + ^ = $ebp $T0 ^ = $esp $T0 8 + =  $20 $T0 4 - ^ =  $23 $T0 8 - ^ =
STACK WIN 4 1458b 6f 0 0 2c c 0 0 1 $T0 $ebp = $eip $T0 4 + ^ = $ebp $T0 ^ = $esp $T0 8 + =  $20 $T0 4 - ^ =  $23 $T0 8 - ^ =  $24 $T0 12 - ^ =
STACK WIN 4 1461e 38e 9 0 20 0 54 0 1 $T0 $ebp = $eip $T0 4 + ^ = $ebp $T0 ^ = $esp $T0 8 + =
STACK WIN 4 14625 320 2 0 20 4 54 0 1 $T0 $ebp = $eip $T0 4 + ^ = $ebp $T0 ^ = $esp $T0 8 + =  $20 $T0 88 - ^ =
STACK WIN 4 14626 31e 1 0 20 8 54 0 1 $T0 $ebp = $eip $T0 4 + ^ = $ebp $T0 ^ = $esp $T0 8 + =  $20 $T0 88 - ^ =  $23 $T0 92 - ^ =
STACK WIN 4 14627 31c 0 0 20 c 54 0 1 $T0 $ebp = $eip $T0 4 + ^ = $ebp $T0 ^ = $esp $T0 8 + =  $20 $T0 88 - ^ =  $23 $T0 92 - ^ =  $24 $T0 96 - ^ =
STACK WIN 4 14a8f 111 7 0 20 0 20 0 1 $T0 $ebp = $eip $T0 4 + ^ = $ebp $T0 ^ = $esp $T0 8 + =
STACK WIN 4 14a96 60 0 0 20 4 20 0 1 $T0 $ebp = $eip $T0 4 + ^ = $ebp $T0 ^ = $esp $T0 8 + =  $24 $T0 36 - ^ =
STACK WIN 4 14aa2 53 0 0 20 8 20 0 1 $T0 $ebp = $eip $T0 4 + ^ = $ebp $T0 ^ = $esp $T0 8 + =  $24 $T0 36 - ^ =  $20 $T0 40 - ^ =
STACK WIN 4 14aa3 51 0 0 20 c 20 0 1 $T0 $ebp = $eip $T0 4 + ^ = $ebp $T0 ^ = $esp $T0 8 + =  $24 $T0 36 - ^ =  $20 $T0 40 - ^ =  $23 $T0 44 - ^ =
STACK WIN 4 14be4 8e 9 0 c 0 0 0 1 $T0 $ebp = $eip $T0 4 + ^ = $ebp $T0 ^ = $esp $T0 8 + =
STACK WIN 4 14beb 85 2 0 c 4 0 0 1 $T0 $ebp = $eip $T0 4 + ^ = $ebp $T0 ^ = $esp $T0 8 + =  $20 $T0 4 - ^ =
STACK WIN 4 14bec 83 1 0 c 8 0 0 1 $T0 $ebp = $eip $T0 4 + ^ = $ebp $T0 ^ = $esp $T0 8 + =  $20 $T0 4 - ^ =  $23 $T0 8 - ^ =
STACK WIN 4 14bed 81 0 0 c c 0 0 1 $T0 $ebp = $eip $T0 4 + ^ = $ebp $T0 ^ = $esp $T0 8 + =  $20 $T0 4 - ^ =  $23 $T0 8 - ^ =  $24 $T0 12 - ^ =
STACK WIN 4 14c95 102 6 0 20 0 0 0 1 $T0 $ebp = $eip $T0 4 + ^ = $ebp $T0 ^ = $esp $T0 8 + =
STACK WIN 4 14c99 fc 2 0 20 4 0 0 1 $T0 $ebp = $eip $T0 4 + ^ = $ebp $T0 ^ = $esp $T0 8 + =  $20 $T0 4 - ^ =
STACK WIN 4 14c9a fa 1 0 20 8 0 0 1 $T0 $ebp = $eip $T0 4 + ^ = $ebp $T0 ^ = $esp $T0 8 + =  $20 $T0 4 - ^ =  $23 $T0 8 - ^ =
STACK WIN 4 14c9b f8 0 0 20 c 0 0 1 $T0 $ebp = $eip $T0 4 + ^ = $ebp $T0 ^ = $esp $T0 8 + =  $20 $T0 4 - ^ =  $23 $T0 8 - ^ =  $24 $T0 12 - ^ =
STACK WIN 4 14dd7 17 3 0 8 0 0 0 1 $T0 $ebp = $eip $T0 4 + ^ = $ebp $T0 ^ = $esp $T0 8 + =
STACK WIN 4 14df3 14 3 0 8 0 0 0 1 $T0 $ebp = $eip $T0 4 + ^ = $ebp $T0 ^ = $esp $T0 8 + =
STACK WIN 4 14e0c 1b 9 0 4 0 0 0 1 $T0 $ebp = $eip $T0 4 + ^ = $ebp $T0 ^ = $esp $T0 8 + =
STACK WIN 4 14e10 13 5 0 4 4 0 0 1 $T0 $ebp = $eip $T0 4 + ^ = $ebp $T0 ^ = $esp $T0 8 + =  $23 $T0 4 - ^ =
STACK WIN 4 14e2d 18 0 0 0 0 0 0 1 $T0 .raSearch = $eip $T0 ^ = $esp $T0 4 + =
STACK WIN 4 14e4b 2c 6 0 4 0 0 0 1 $T0 $ebp = $eip $T0 4 + ^ = $ebp $T0 ^ = $esp $T0 8 + =
STACK WIN 4 14e4f 24 2 0 4 4 0 0 1 $T0 $ebp = $eip $T0 4 + ^ = $ebp $T0 ^ = $esp $T0 8 + =  $23 $T0 4 - ^ =
STACK WIN 4 14e82 1d 3 0 8 0 0 0 1 $T0 $ebp = $eip $T0 4 + ^ = $ebp $T0 ^ = $esp $T0 8 + =
STACK WIN 4 14ea6 14 3 0 8 0 0 0 1 $T0 $ebp = $eip $T0 4 + ^ = $ebp $T0 ^ = $esp $T0 8 + =
STACK WIN 4 14ebf 11 0 0 0 0 0 0 1 $T0 .raSearch = $eip $T0 ^ = $esp $T0 4 + =
STACK WIN 4 14ed4 11 0 0 0 0 0 0 1 $T0 .raSearch = $eip $T0 ^ = $esp $T0 4 + =
STACK WIN 4 14ee9 13 3 0 4 0 0 0 1 $T0 $ebp = $eip $T0 4 + ^ = $ebp $T0 ^ = $esp $T0 8 + =
STACK WIN 4 14f00 1f 3 0 4 0 0 0 1 $T0 $ebp = $eip $T0 4 + ^ = $ebp $T0 ^ = $esp $T0 8 + =
STACK WIN 4 14f26 13 3 0 4 0 0 0 1 $T0 $ebp = $eip $T0 4 + ^ = $ebp $T0 ^ = $esp $T0 8 + =
STACK WIN 4 14f3d c 0 0 0 0 0 0 1 $T0 .raSearch = $eip $T0 ^ = $esp $T0 4 + =
STACK WIN 4 14f4c c 0 0 0 0 0 0 1 $T0 .raSearch = $eip $T0 ^ = $esp $T0 4 + =
STACK WIN 4 14f5b 6 0 0 0 0 0 0 1 $T0 .raSearch = $eip $T0 ^ = $esp $T0 4 + =
STACK WIN 4 14f61 6 0 0 0 0 0 0 1 $T0 .raSearch = $eip $T0 ^ = $esp $T0 4 + =
STACK WIN 4 14f67 13 3 0 4 0 0 0 1 $T0 $ebp = $eip $T0 4 + ^ = $ebp $T0 ^ = $esp $T0 8 + =
STACK WIN 4 14f7e 2d 6 0 4 0 0 0 1 $T0 $ebp = $eip $T0 4 + ^ = $ebp $T0 ^ = $esp $T0 8 + =
STACK WIN 4 14f82 25 2 0 4 4 0 0 1 $T0 $ebp = $eip $T0 4 + ^ = $ebp $T0 ^ = $esp $T0 8 + =  $23 $T0 4 - ^ =
STACK WIN 4 14fb6 2d 6 0 4 0 0 0 1 $T0 $ebp = $eip $T0 4 + ^ = $ebp $T0 ^ = $esp $T0 8 + =
STACK WIN 4 14fba 25 2 0 4 4 0 0 1 $T0 $ebp = $eip $T0 4 + ^ = $ebp $T0 ^ = $esp $T0 8 + =  $23 $T0 4 - ^ =
STACK WIN 4 14fee 5 0 0 10 0 0 0 1 $T0 $ebp = $eip $T0 4 + ^ = $ebp $T0 ^ = $esp $T0 8 + =
STACK WIN 4 14ff3 9 3 0 10 0 0 0 1 $T0 $ebp = $eip $T0 4 + ^ = $ebp $T0 ^ = $esp $T0 8 + =
STACK WIN 4 14ffe 1c4 c 0 1c 10 4c 0 1 $T0 $ebp = $eip $T0 4 + ^ = $ebp $T0 ^ = $esp $T0 8 + =  $20 $T0 80 - ^ =  $23 $T0 84 - ^ =  $24 $T0 88 - ^ =
STACK WIN 4 1508a a 0 0 1c 10 4c 0 1 $T0 $ebp = $T2 $esp = $T1 .raSearchStart = $eip $T1 ^ = $ebp $T0 = $esp $T1 4 + =
STACK WIN 4 15140 81 0 0 1c 10 4c 0 1 $T0 $ebp = $T2 $esp = $T1 .raSearchStart = $eip $T1 ^ = $ebp $T0 = $esp $T1 4 + =
STACK WIN 4 15233 3a c 0 4 10 10 0 1 $T0 $ebp = $eip $T0 4 + ^ = $ebp $T0 ^ = $esp $T0 8 + =  $20 $T0 20 - ^ =  $23 $T0 24 - ^ =  $24 $T0 28 - ^ =
STACK WIN 4 1527b 4a 3 0 4 0 0 0 1 $T0 $ebp = $eip $T0 4 + ^ = $ebp $T0 ^ = $esp $T0 8 + =
STACK WIN 4 152d7 18 3 0 c 0 0 0 1 $T0 $ebp = $eip $T0 4 + ^ = $ebp $T0 ^ = $esp $T0 8 + =
STACK WIN 4 152f5 e8 c 0 10 10 20 0 1 $T0 $ebp = $eip $T0 4 + ^ = $ebp $T0 ^ = $esp $T0 8 + =  $20 $T0 36 - ^ =  $23 $T0 40 - ^ =  $24 $T0 44 - ^ =
STACK WIN 4 15377 a 0 0 10 10 20 0 1 $T0 $ebp = $T2 $esp = $T1 .raSearchStart = $eip $T1 ^ = $ebp $T0 = $esp $T1 4 + =
STACK WIN 4 153c0 16 0 0 10 10 20 0 1 $T0 $ebp = $T2 $esp = $T1 .raSearchStart = $eip $T1 ^ = $ebp $T0 = $esp $T1 4 + =
STACK WIN 4 15417 b 3 0 8 0 0 0 1 $T0 $ebp = $eip $T0 4 + ^ = $ebp $T0 ^ = $esp $T0 8 + =
STACK WIN 4 15424 9a c 0 8 0 18 0 1 $T0 $ebp = $eip $T0 4 + ^ = $ebp $T0 ^ = $esp $T0 8 + =
STACK WIN 4 1542b 8b 5 0 8 4 18 0 1 $T0 $ebp = $eip $T0 4 + ^ = $ebp $T0 ^ = $esp $T0 8 + =  $20 $T0 28 - ^ =
STACK WIN 4 1542c 87 4 0 8 8 18 0 1 $T0 $ebp = $eip $T0 4 + ^ = $ebp $T0 ^ = $esp $T0 8 + =  $20 $T0 28 - ^ =  $23 $T0 32 - ^ =
STACK WIN 4 15430 82 0 0 8 c 18 0 1 $T0 $ebp = $eip $T0 4 + ^ = $ebp $T0 ^ = $esp $T0 8 + =  $20 $T0 28 - ^ =  $23 $T0 32 - ^ =  $24 $T0 36 - ^ =
STACK WIN 4 154e4 39 6 0 4 0 0 0 1 $T0 $ebp = $eip $T0 4 + ^ = $ebp $T0 ^ = $esp $T0 8 + =
STACK WIN 4 154e8 2f 2 0 4 4 0 0 1 $T0 $ebp = $eip $T0 4 + ^ = $ebp $T0 ^ = $esp $T0 8 + =  $20 $T0 4 - ^ =
STACK WIN 4 154e9 2d 1 0 4 8 0 0 1 $T0 $ebp = $eip $T0 4 + ^ = $ebp $T0 ^ = $esp $T0 8 + =  $20 $T0 4 - ^ =  $23 $T0 8 - ^ =
STACK WIN 4 154ea 2b 0 0 4 c 0 0 1 $T0 $ebp = $eip $T0 4 + ^ = $ebp $T0 ^ = $esp $T0 8 + =  $20 $T0 4 - ^ =  $23 $T0 8 - ^ =  $24 $T0 12 - ^ =
STACK WIN 4 1552b 9 3 0 c 0 0 0 1 $T0 $ebp = $eip $T0 4 + ^ = $ebp $T0 ^ = $esp $T0 8 + =
STACK WIN 4 15536 10 3 0 c 0 0 0 1 $T0 $ebp = $eip $T0 4 + ^ = $ebp $T0 ^ = $esp $T0 8 + =
STACK WIN 4 1554a 13 3 0 10 0 0 0 1 $T0 $ebp = $eip $T0 4 + ^ = $ebp $T0 ^ = $esp $T0 8 + =
STACK WIN 4 15561 c 3 0 4 0 0 0 1 $T0 $ebp = $eip $T0 4 + ^ = $ebp $T0 ^ = $esp $T0 8 + =
STACK WIN 4 15570 c 3 0 8 0 0 0 1 $T0 $ebp = $eip $T0 4 + ^ = $ebp $T0 ^ = $esp $T0 8 + =
STACK WIN 4 1557f c 3 0 8 0 0 0 1 $T0 $ebp = $eip $T0 4 + ^ = $ebp $T0 ^ = $esp $T0 8 + =
STACK WIN 4 1558e 10 3 0 4 0 0 0 1 $T0 $ebp = $eip $T0 4 + ^ = $ebp $T0 ^ = $esp $T0 8 + =
STACK WIN 4 155a2 11 3 0 4 0 0 0 1 $T0 $ebp = $eip $T0 4 + ^ = $ebp $T0 ^ = $esp $T0 8 + =
STACK WIN 4 155b7 b 3 0 4 0 0 0 1 $T0 $ebp = $eip $T0 4 + ^ = $ebp $T0 ^ = $esp $T0 8 + =
STACK WIN 4 155c4 e 0 0 0 0 0 0 1 $T0 .raSearch = $eip $T0 ^ = $esp $T0 4 + =
STACK WIN 4 155d5 f 3 0 4 0 0 0 1 $T0 $ebp = $eip $T0 4 + ^ = $ebp $T0 ^ = $esp $T0 8 + =
STACK WIN 4 155e7 6 0 0 0 0 0 0 1 $T0 .raSearch = $eip $T0 ^ = $esp $T0 4 + =
STACK WIN 4 155ed d 3 0 4 0 0 0 1 $T0 $ebp = $eip $T0 4 + ^ = $ebp $T0 ^ = $esp $T0 8 + =
STACK WIN 4 155fd 10 3 0 4 0 0 0 1 $T0 $ebp = $eip $T0 4 + ^ = $ebp $T0 ^ = $esp $T0 8 + =
STACK WIN 4 15611 d 0 0 0 0 0 0 1 $T0 .raSearch = $eip $T0 ^ = $esp $T0 4 + =
STACK WIN 4 15621 5 0 0 10 0 0 0 1 $T0 $ebp = $eip $T0 4 + ^ = $ebp $T0 ^ = $esp $T0 8 + =
STACK WIN 4 15626 9 3 0 10 0 0 0 1 $T0 $ebp = $eip $T0 4 + ^ = $ebp $T0 ^ = $esp $T0 8 + =
STACK WIN 4 15631 9 3 0 c 0 0 0 1 $T0 $ebp = $eip $T0 4 + ^ = $ebp $T0 ^ = $esp $T0 8 + =
STACK WIN 4 1563c e 3 0 4 0 0 0 1 $T0 $ebp = $eip $T0 4 + ^ = $ebp $T0 ^ = $esp $T0 8 + =
STACK WIN 0 15650 4c 8 0 c 10 0 0 0 1
STACK WIN 4 156af 14 3 0 4 0 0 0 1 $T0 $ebp = $eip $T0 4 + ^ = $ebp $T0 ^ = $esp $T0 8 + =
STACK WIN 4 156c8 12 0 0 0 0 0 0 1 $T0 .raSearch = $eip $T0 ^ = $esp $T0 4 + =
STACK WIN 4 156de 1e 3 0 4 0 0 0 1 $T0 $ebp = $eip $T0 4 + ^ = $ebp $T0 ^ = $esp $T0 8 + =
STACK WIN 4 15703 1d 1 0 0 4 0 0 1 $T0 .raSearch = $eip $T0 ^ = $esp $T0 4 + =  $23 $T0 4 - ^ =
STACK WIN 4 15727 1d 3 0 c 0 0 0 1 $T0 $ebp = $eip $T0 4 + ^ = $ebp $T0 ^ = $esp $T0 8 + =
STACK WIN 4 1574b e 3 0 c 0 0 0 1 $T0 $ebp = $eip $T0 4 + ^ = $ebp $T0 ^ = $esp $T0 8 + =
STACK WIN 4 1575c a0 c 0 8 10 18 0 1 $T0 $ebp = $eip $T0 4 + ^ = $ebp $T0 ^ = $esp $T0 8 + =  $20 $T0 28 - ^ =  $23 $T0 32 - ^ =  $24 $T0 36 - ^ =
STACK WIN 4 157bc 9 0 0 8 10 18 0 1 $T0 $ebp = $T2 $esp = $T1 .raSearchStart = $eip $T1 ^ = $ebp $T0 = $esp $T1 4 + =
STACK WIN 4 15824 d 3 0 8 0 0 0 1 $T0 $ebp = $eip $T0 4 + ^ = $ebp $T0 ^ = $esp $T0 8 + =
STACK WIN 4 15834 4 0 0 0 0 0 0 1 $T0 .raSearch = $eip $T0 ^ = $esp $T0 4 + =
STACK WIN 4 15838 26 3 0 4 0 0 0 1 $T0 $ebp = $eip $T0 4 + ^ = $ebp $T0 ^ = $esp $T0 8 + =
STACK WIN 4 15867 d 3 0 4 0 0 0 1 $T0 $ebp = $eip $T0 4 + ^ = $ebp $T0 ^ = $esp $T0 8 + =
STACK WIN 4 15877 25 a 0 8 0 0 0 1 $T0 $ebp = $eip $T0 4 + ^ = $ebp $T0 ^ = $esp $T0 8 + =
STACK WIN 4 15881 19 0 0 8 4 0 0 1 $T0 $ebp = $eip $T0 4 + ^ = $ebp $T0 ^ = $esp $T0 8 + =  $23 $T0 4 - ^ =
STACK WIN 4 158a5 45 3 0 4 0 0 0 1 $T0 $ebp = $eip $T0 4 + ^ = $ebp $T0 ^ = $esp $T0 8 + =
STACK WIN 4 158fb 4c 6 0 4 0 8 0 1 $T0 $ebp = $eip $T0 4 + ^ = $ebp $T0 ^ = $esp $T0 8 + =
STACK WIN 4 15901 44 0 0 4 4 8 0 1 $T0 $ebp = $eip $T0 4 + ^ = $ebp $T0 ^ = $esp $T0 8 + =  $23 $T0 12 - ^ =
STACK WIN 4 1595a 9 0 0 0 0 0 0 1 $T0 .raSearch = $eip $T0 ^ = $esp $T0 4 + =
STACK WIN 4 15965 9 0 0 0 0 0 0 1 $T0 .raSearch = $eip $T0 ^ = $esp $T0 4 + =
STACK WIN 4 15970 9 0 0 0 0 0 0 1 $T0 .raSearch = $eip $T0 ^ = $esp $T0 4 + =
STACK WIN 4 1597b 5 0 0 0 0 0 0 1 $T0 .raSearch = $eip $T0 ^ = $esp $T0 4 + =
STACK WIN 4 15980 a4 3 0 8 0 0 0 1 $T0 $ebp = $eip $T0 4 + ^ = $ebp $T0 ^ = $esp $T0 8 + =
STACK WIN 4 159c5 52 0 0 8 4 0 0 1 $T0 $ebp = $eip $T0 4 + ^ = $ebp $T0 ^ = $esp $T0 8 + =  $20 $T0 4 - ^ =
STACK WIN 4 159c6 50 0 0 8 8 0 0 1 $T0 $ebp = $eip $T0 4 + ^ = $ebp $T0 ^ = $esp $T0 8 + =  $20 $T0 4 - ^ =  $23 $T0 8 - ^ =
STACK WIN 4 159c7 4e 0 0 8 c 0 0 1 $T0 $ebp = $eip $T0 4 + ^ = $ebp $T0 ^ = $esp $T0 8 + =  $20 $T0 4 - ^ =  $23 $T0 8 - ^ =  $24 $T0 12 - ^ =
STACK WIN 4 15a19 b 0 0 8 c 0 0 1 $T0 $ebp = $eip $T0 4 + ^ = $ebp $T0 ^ = $esp $T0 8 + =  $20 $T0 4 - ^ =  $23 $T0 8 - ^ =  $24 $T0 12 - ^ =
STACK WIN 4 15a4d 10 3 0 4 0 0 0 1 $T0 $ebp = $eip $T0 4 + ^ = $ebp $T0 ^ = $esp $T0 8 + =
STACK WIN 4 15a61 e 3 0 4 0 0 0 1 $T0 $ebp = $eip $T0 4 + ^ = $ebp $T0 ^ = $esp $T0 8 + =
STACK WIN 4 15a72 10 3 0 0 0 0 0 1 $T0 .raSearch = $eip $T0 ^ = $esp $T0 4 + =
STACK WIN 4 15a73 e 2 0 0 4 0 0 1 $T0 .raSearch = $eip $T0 ^ = $esp $T0 4 + =  $23 $T0 4 - ^ =
STACK WIN 4 15a86 7 0 0 0 0 0 0 1 $T0 .raSearch = $eip $T0 ^ = $esp $T0 4 + =
STACK WIN 4 15a8d 6 0 0 0 0 0 0 1 $T0 .raSearch = $eip $T0 ^ = $esp $T0 4 + =
STACK WIN 4 15a93 3 0 0 0 0 0 0 1 $T0 .raSearch = $eip $T0 ^ = $esp $T0 4 + =
STACK WIN 4 15a96 7 0 0 0 0 0 0 1 $T0 .raSearch = $eip $T0 ^ = $esp $T0 4 + =
STACK WIN 4 15a9d 10 3 0 0 0 0 0 1 $T0 .raSearch = $eip $T0 ^ = $esp $T0 4 + =
STACK WIN 4 15a9e e 2 0 0 4 0 0 1 $T0 .raSearch = $eip $T0 ^ = $esp $T0 4 + =  $23 $T0 4 - ^ =
STACK WIN 4 15ab1 63 4 0 8 0 0 0 1 $T0 $ebp = $eip $T0 4 + ^ = $ebp $T0 ^ = $esp $T0 8 + =
STACK WIN 4 15ab5 5d 0 0 8 4 0 0 1 $T0 $ebp = $eip $T0 4 + ^ = $ebp $T0 ^ = $esp $T0 8 + =  $24 $T0 4 - ^ =
STACK WIN 4 15ad1 33 0 0 8 8 0 0 1 $T0 $ebp = $eip $T0 4 + ^ = $ebp $T0 ^ = $esp $T0 8 + =  $24 $T0 4 - ^ =  $20 $T0 8 - ^ =
STACK WIN 4 15ad2 31 0 0 8 c 0 0 1 $T0 $ebp = $eip $T0 4 + ^ = $ebp $T0 ^ = $esp $T0 8 + =  $24 $T0 4 - ^ =  $20 $T0 8 - ^ =  $23 $T0 12 - ^ =
STACK WIN 4 15b2c 1f 4 0 4 0 0 0 1 $T0 $ebp = $eip $T0 4 + ^ = $ebp $T0 ^ = $esp $T0 8 + =
STACK WIN 4 15b30 19 0 0 4 4 0 0 1 $T0 $ebp = $eip $T0 4 + ^ = $ebp $T0 ^ = $esp $T0 8 + =  $23 $T0 4 - ^ =
STACK WIN 4 15b52 6d c 0 8 0 20 0 1 $T0 $ebp = $eip $T0 4 + ^ = $ebp $T0 ^ = $esp $T0 8 + =
STACK WIN 4 15b59 62 5 0 8 4 20 0 1 $T0 $ebp = $eip $T0 4 + ^ = $ebp $T0 ^ = $esp $T0 8 + =  $20 $T0 36 - ^ =
STACK WIN 4 15b5d 5d 1 0 8 8 20 0 1 $T0 $ebp = $eip $T0 4 + ^ = $ebp $T0 ^ = $esp $T0 8 + =  $20 $T0 36 - ^ =  $23 $T0 40 - ^ =
STACK WIN 4 15b5e 5b 0 0 8 c 20 0 1 $T0 $ebp = $eip $T0 4 + ^ = $ebp $T0 ^ = $esp $T0 8 + =  $20 $T0 36 - ^ =  $23 $T0 40 - ^ =  $24 $T0 44 - ^ =
STACK WIN 0 15be2 572 2 0 c 8 0 0 0 0
STACK WIN 4 162b1 16 5 0 4 0 0 0 1 $T0 $ebp = $eip $T0 4 + ^ = $ebp $T0 ^ = $esp $T0 8 + =
STACK WIN 4 162cc 1f 5 0 4 0 0 0 1 $T0 $ebp = $eip $T0 4 + ^ = $ebp $T0 ^ = $esp $T0 8 + =
STACK WIN 4 162f2 11 5 0 8 0 0 0 1 $T0 $ebp = $eip $T0 4 + ^ = $ebp $T0 ^ = $esp $T0 8 + =
STACK WIN 4 16307 3 0 0 0 0 0 0 1 $T0 .raSearch = $eip $T0 ^ = $esp $T0 4 + =
STACK WIN 4 1630a 3 0 0 0 0 0 0 1 $T0 .raSearch = $eip $T0 ^ = $esp $T0 4 + =
STACK WIN 4 1630d 3 0 0 0 0 0 0 1 $T0 .raSearch = $eip $T0 ^ = $esp $T0 4 + =
STACK WIN 4 16310 139 1a 0 c 4 328 0 1 $T0 $ebp = $eip $T0 4 + ^ = $ebp $T0 ^ = $esp $T0 8 + =  $24 $T0 812 - ^ =
STACK WIN 4 16497 f 5 0 4 0 0 0 1 $T0 $ebp = $eip $T0 4 + ^ = $ebp $T0 ^ = $esp $T0 8 + =
STACK WIN 4 164a9 13 0 0 0 0 0 0 1 $T0 .raSearch = $eip $T0 ^ = $esp $T0 4 + =
STACK WIN 4 164c0 11 0 0 0 0 0 0 1 $T0 .raSearch = $eip $T0 ^ = $esp $T0 4 + =
STACK WIN 4 164d5 64 6 0 14 0 0 0 1 $T0 $ebp = $eip $T0 4 + ^ = $ebp $T0 ^ = $esp $T0 8 + =
STACK WIN 4 164db 30 0 0 14 4 0 0 1 $T0 $ebp = $eip $T0 4 + ^ = $ebp $T0 ^ = $esp $T0 8 + =  $23 $T0 4 - ^ =
STACK WIN 4 16552 10 0 0 0 0 0 0 1 $T0 .raSearch = $eip $T0 ^ = $esp $T0 4 + =
STACK WIN 4 16566 1d 3 0 0 4 0 0 1 $T0 .raSearch = $eip $T0 ^ = $esp $T0 4 + =  $23 $T0 4 - ^ =
STACK WIN 4 1658a 34 0 0 14 0 0 0 1 $T0 .raSearch = $eip $T0 ^ = $esp $T0 4 + =
STACK WIN 4 1659c 21 0 0 14 4 0 0 1 $T0 .raSearch = $eip $T0 ^ = $esp $T0 4 + =  $23 $T0 4 - ^ =
STACK WIN 4 165cb 30 d 0 4 0 0 0 1 $T0 $ebp = $eip $T0 4 + ^ = $ebp $T0 ^ = $esp $T0 8 + =
STACK WIN 4 165d1 28 7 0 4 4 0 0 1 $T0 $ebp = $eip $T0 4 + ^ = $ebp $T0 ^ = $esp $T0 8 + =  $23 $T0 4 - ^ =
STACK WIN 4 165d8 20 0 0 4 8 0 0 1 $T0 $ebp = $eip $T0 4 + ^ = $ebp $T0 ^ = $esp $T0 8 + =  $23 $T0 4 - ^ =  $24 $T0 8 - ^ =
STACK WIN 4 16607 1d 5 0 4 0 0 0 1 $T0 $ebp = $eip $T0 4 + ^ = $ebp $T0 ^ = $esp $T0 8 + =
STACK WIN 4 1662b 45 14 0 8 0 4 0 1 $T0 $ebp = $eip $T0 4 + ^ = $ebp $T0 ^ = $esp $T0 8 + =
STACK WIN 4 16635 39 a 0 8 4 4 0 1 $T0 $ebp = $eip $T0 4 + ^ = $ebp $T0 ^ = $esp $T0 8 + =  $20 $T0 8 - ^ =
STACK WIN 4 16636 37 9 0 8 8 4 0 1 $T0 $ebp = $eip $T0 4 + ^ = $ebp $T0 ^ = $esp $T0 8 + =  $20 $T0 8 - ^ =  $23 $T0 12 - ^ =
STACK WIN 4 1663f 2d 0 0 8 c 4 0 1 $T0 $ebp = $eip $T0 4 + ^ = $ebp $T0 ^ = $esp $T0 8 + =  $20 $T0 8 - ^ =  $23 $T0 12 - ^ =  $24 $T0 16 - ^ =
STACK WIN 4 16681 2e a 0 8 0 0 0 1 $T0 $ebp = $eip $T0 4 + ^ = $ebp $T0 ^ = $esp $T0 8 + =
STACK WIN 4 16687 26 4 0 8 4 0 0 1 $T0 $ebp = $eip $T0 4 + ^ = $ebp $T0 ^ = $esp $T0 8 + =  $23 $T0 4 - ^ =
STACK WIN 4 1668b 21 0 0 8 8 0 0 1 $T0 $ebp = $eip $T0 4 + ^ = $ebp $T0 ^ = $esp $T0 8 + =  $23 $T0 4 - ^ =  $24 $T0 8 - ^ =
STACK WIN 4 166ba 1b 6 0 4 0 4 0 1 $T0 $ebp = $eip $T0 4 + ^ = $ebp $T0 ^ = $esp $T0 8 + =
STACK WIN 4 166db 24 5 0 8 0 0 0 1 $T0 $ebp = $eip $T0 4 + ^ = $ebp $T0 ^ = $esp $T0 8 + =
STACK WIN 4 16708 20 5 0 8 0 0 0 1 $T0 $ebp = $eip $T0 4 + ^ = $ebp $T0 ^ = $esp $T0 8 + =
STACK WIN 4 16730 158 9 0 8 0 4 0 1 $T0 $ebp = $eip $T0 4 + ^ = $ebp $T0 ^ = $esp $T0 8 + =
STACK WIN 4 16737 14f 2 0 8 4 4 0 1 $T0 $ebp = $eip $T0 4 + ^ = $ebp $T0 ^ = $esp $T0 8 + =  $20 $T0 8 - ^ =
STACK WIN 4 16738 14d 1 0 8 8 4 0 1 $T0 $ebp = $eip $T0 4 + ^ = $ebp $T0 ^ = $esp $T0 8 + =  $20 $T0 8 - ^ =  $23 $T0 12 - ^ =
STACK WIN 4 16739 14b 0 0 8 c 4 0 1 $T0 $ebp = $eip $T0 4 + ^ = $ebp $T0 ^ = $esp $T0 8 + =  $20 $T0 8 - ^ =  $23 $T0 12 - ^ =  $24 $T0 16 - ^ =
STACK WIN 4 168de 6 0 0 0 0 0 0 1 $T0 .raSearch = $eip $T0 ^ = $esp $T0 4 + =
STACK WIN 4 168e4 4d c 0 c 10 18 0 1 $T0 $ebp = $eip $T0 4 + ^ = $ebp $T0 ^ = $esp $T0 8 + =  $20 $T0 28 - ^ =  $23 $T0 32 - ^ =  $24 $T0 36 - ^ =
STACK WIN 4 16925 b 0 0 c 10 18 0 1 $T0 $ebp = $T2 $esp = $T1 .raSearchStart = $eip $T1 ^ = $ebp $T0 = $esp $T1 4 + =
STACK WIN 4 16944 26 8 0 8 0 c 0 1 $T0 $ebp = $eip $T0 4 + ^ = $ebp $T0 ^ = $esp $T0 8 + =
STACK WIN 4 16973 16 5 0 4 0 0 0 1 $T0 $ebp = $eip $T0 4 + ^ = $ebp $T0 ^ = $esp $T0 8 + =
STACK WIN 4 1698e 1f 5 0 4 0 0 0 1 $T0 $ebp = $eip $T0 4 + ^ = $ebp $T0 ^ = $esp $T0 8 + =
STACK WIN 4 169b4 13 5 0 8 0 0 0 1 $T0 $ebp = $eip $T0 4 + ^ = $ebp $T0 ^ = $esp $T0 8 + =
STACK WIN 4 169cb d 5 0 4 0 0 0 1 $T0 $ebp = $eip $T0 4 + ^ = $ebp $T0 ^ = $esp $T0 8 + =
STACK WIN 4 169db 12 5 0 4 0 0 0 1 $T0 $ebp = $eip $T0 4 + ^ = $ebp $T0 ^ = $esp $T0 8 + =
STACK WIN 4 169f1 12 5 0 4 0 0 0 1 $T0 $ebp = $eip $T0 4 + ^ = $ebp $T0 ^ = $esp $T0 8 + =
STACK WIN 4 16a07 1c 5 0 c 0 0 0 1 $T0 $ebp = $eip $T0 4 + ^ = $ebp $T0 ^ = $esp $T0 8 + =
STACK WIN 4 16a2a 10 5 0 4 0 0 0 1 $T0 $ebp = $eip $T0 4 + ^ = $ebp $T0 ^ = $esp $T0 8 + =
STACK WIN 4 16a3e 17 5 0 0 0 0 0 1 $T0 .raSearch = $eip $T0 ^ = $esp $T0 4 + =
STACK WIN 4 16a41 13 2 0 0 4 0 0 1 $T0 .raSearch = $eip $T0 ^ = $esp $T0 4 + =  $23 $T0 4 - ^ =
STACK WIN 4 16a5a 9 0 0 0 0 0 0 1 $T0 .raSearch = $eip $T0 ^ = $esp $T0 4 + =
STACK WIN 4 16a65 9 0 0 0 0 0 0 1 $T0 .raSearch = $eip $T0 ^ = $esp $T0 4 + =
STACK WIN 4 16a70 da e 0 0 10 18 0 1 $T0 $ebp = $eip $T0 4 + ^ = $ebp $T0 ^ = $esp $T0 8 + =  $20 $T0 28 - ^ =  $23 $T0 32 - ^ =  $24 $T0 36 - ^ =
STACK WIN 4 16b31 10 0 0 0 10 18 0 1 $T0 $ebp = $T2 $esp = $T1 .raSearchStart = $eip $T1 ^ = $ebp $T0 = $esp $T1 4 + =
STACK WIN 4 16b80 4 0 0 0 0 0 0 1 $T0 .raSearch = $eip $T0 ^ = $esp $T0 4 + =
STACK WIN 4 16b84 13 5 0 4 0 0 0 1 $T0 $ebp = $eip $T0 4 + ^ = $ebp $T0 ^ = $esp $T0 8 + =
STACK WIN 4 16b9b 17 5 0 0 0 0 0 1 $T0 .raSearch = $eip $T0 ^ = $esp $T0 4 + =
STACK WIN 4 16b9e 13 2 0 0 4 0 0 1 $T0 .raSearch = $eip $T0 ^ = $esp $T0 4 + =  $23 $T0 4 - ^ =
STACK WIN 4 16bb7 15 5 0 4 0 0 0 1 $T0 $ebp = $eip $T0 4 + ^ = $ebp $T0 ^ = $esp $T0 8 + =
STACK WIN 4 16bd1 64 8 0 c 0 18 0 1 $T0 $ebp = $eip $T0 4 + ^ = $ebp $T0 ^ = $esp $T0 8 + =
STACK WIN 4 16c4e 42 5 0 4 0 0 0 1 $T0 $ebp = $eip $T0 4 + ^ = $ebp $T0 ^ = $esp $T0 8 + =
STACK WIN 4 16ca0 3 0 0 0 0 0 0 1 $T0 .raSearch = $eip $T0 ^ = $esp $T0 4 + =
STACK WIN 4 16ca3 3 0 0 0 0 0 0 1 $T0 .raSearch = $eip $T0 ^ = $esp $T0 4 + =
STACK WIN 4 16ca6 3 0 0 0 0 0 0 1 $T0 .raSearch = $eip $T0 ^ = $esp $T0 4 + =
STACK WIN 4 16ca9 43 0 0 0 0 0 0 1 $T0 .raSearch = $eip $T0 ^ = $esp $T0 4 + =
STACK WIN 4 16cfc 22 0 0 0 0 0 0 1 $T0 .raSearch = $eip $T0 ^ = $esp $T0 4 + =
STACK WIN 4 16d26 53 6 0 4 0 4 0 1 $T0 $ebp = $eip $T0 4 + ^ = $ebp $T0 ^ = $esp $T0 8 + =
STACK WIN 4 16d46 22 0 0 4 4 4 0 1 $T0 $ebp = $eip $T0 4 + ^ = $ebp $T0 ^ = $esp $T0 8 + =  $23 $T0 8 - ^ =
STACK WIN 4 16d8d 16 5 0 4 0 0 0 1 $T0 $ebp = $eip $T0 4 + ^ = $ebp $T0 ^ = $esp $T0 8 + =
STACK WIN 4 16da8 f 5 0 4 0 0 0 1 $T0 $ebp = $eip $T0 4 + ^ = $ebp $T0 ^ = $esp $T0 8 + =
STACK WIN 4 16dba f 0 0 0 0 0 0 1 $T0 .raSearch = $eip $T0 ^ = $esp $T0 4 + =
STACK WIN 4 16dcc f 0 0 0 0 0 0 1 $T0 .raSearch = $eip $T0 ^ = $esp $T0 4 + =
STACK WIN 4 16dde 16 5 0 4 0 0 0 1 $T0 $ebp = $eip $T0 4 + ^ = $ebp $T0 ^ = $esp $T0 8 + =
STACK WIN 4 16df9 7 0 0 0 0 0 0 1 $T0 .raSearch = $eip $T0 ^ = $esp $T0 4 + =
STACK WIN 4 16e00 26 5 0 4 0 0 0 1 $T0 $ebp = $eip $T0 4 + ^ = $ebp $T0 ^ = $esp $T0 8 + =
STACK WIN 4 16e2f 16 5 0 4 0 0 0 1 $T0 $ebp = $eip $T0 4 + ^ = $ebp $T0 ^ = $esp $T0 8 + =
STACK WIN 4 16e4a 16 5 0 4 0 0 0 1 $T0 $ebp = $eip $T0 4 + ^ = $ebp $T0 ^ = $esp $T0 8 + =
STACK WIN 4 16e65 12 5 0 4 0 0 0 1 $T0 $ebp = $eip $T0 4 + ^ = $ebp $T0 ^ = $esp $T0 8 + =
STACK WIN 4 16e7b 12 5 0 4 0 0 0 1 $T0 $ebp = $eip $T0 4 + ^ = $ebp $T0 ^ = $esp $T0 8 + =
STACK WIN 4 16e91 12 5 0 4 0 0 0 1 $T0 $ebp = $eip $T0 4 + ^ = $ebp $T0 ^ = $esp $T0 8 + =
STACK WIN 4 16ea7 136 9 0 4 0 10 0 1 $T0 $ebp = $eip $T0 4 + ^ = $ebp $T0 ^ = $esp $T0 8 + =
STACK WIN 4 16eb0 12b 0 0 4 4 10 0 1 $T0 $ebp = $eip $T0 4 + ^ = $ebp $T0 ^ = $esp $T0 8 + =  $20 $T0 20 - ^ =
STACK WIN 4 16ebf 11b 0 0 4 8 10 0 1 $T0 $ebp = $eip $T0 4 + ^ = $ebp $T0 ^ = $esp $T0 8 + =  $20 $T0 20 - ^ =  $23 $T0 24 - ^ =
STACK WIN 4 16ee0 f9 0 0 4 c 10 0 1 $T0 $ebp = $eip $T0 4 + ^ = $ebp $T0 ^ = $esp $T0 8 + =  $20 $T0 20 - ^ =  $23 $T0 24 - ^ =  $24 $T0 28 - ^ =
STACK WIN 4 1702a 12f 9 0 4 0 10 0 1 $T0 $ebp = $eip $T0 4 + ^ = $ebp $T0 ^ = $esp $T0 8 + =
STACK WIN 4 17033 124 0 0 4 4 10 0 1 $T0 $ebp = $eip $T0 4 + ^ = $ebp $T0 ^ = $esp $T0 8 + =  $20 $T0 20 - ^ =
STACK WIN 4 17042 114 0 0 4 8 10 0 1 $T0 $ebp = $eip $T0 4 + ^ = $ebp $T0 ^ = $esp $T0 8 + =  $20 $T0 20 - ^ =  $23 $T0 24 - ^ =
STACK WIN 4 17063 f2 0 0 4 c 10 0 1 $T0 $ebp = $eip $T0 4 + ^ = $ebp $T0 ^ = $esp $T0 8 + =  $20 $T0 20 - ^ =  $23 $T0 24 - ^ =  $24 $T0 28 - ^ =
STACK WIN 4 171a4 1c 5 0 c 0 0 0 1 $T0 $ebp = $eip $T0 4 + ^ = $ebp $T0 ^ = $esp $T0 8 + =
STACK WIN 4 171c7 1a 5 0 c 0 0 0 1 $T0 $ebp = $eip $T0 4 + ^ = $ebp $T0 ^ = $esp $T0 8 + =
STACK WIN 4 171e7 177 12 0 14 0 4 0 1 $T0 $ebp = $eip $T0 4 + ^ = $ebp $T0 ^ = $esp $T0 8 + =
STACK WIN 4 171f1 15f 8 0 14 4 4 0 1 $T0 $ebp = $eip $T0 4 + ^ = $ebp $T0 ^ = $esp $T0 8 + =  $20 $T0 8 - ^ =
STACK WIN 4 171f5 15a 4 0 14 8 4 0 1 $T0 $ebp = $eip $T0 4 + ^ = $ebp $T0 ^ = $esp $T0 8 + =  $20 $T0 8 - ^ =  $23 $T0 12 - ^ =
STACK WIN 4 171f9 155 0 0 14 c 4 0 1 $T0 $ebp = $eip $T0 4 + ^ = $ebp $T0 ^ = $esp $T0 8 + =  $20 $T0 8 - ^ =  $23 $T0 12 - ^ =  $24 $T0 16 - ^ =
STACK WIN 4 173bb 195 16 0 14 0 10 0 1 $T0 $ebp = $eip $T0 4 + ^ = $ebp $T0 ^ = $esp $T0 8 + =
STACK WIN 4 173cd 17f 4 0 14 4 10 0 1 $T0 $ebp = $eip $T0 4 + ^ = $ebp $T0 ^ = $esp $T0 8 + =  $23 $T0 20 - ^ =
STACK WIN 4 173d1 17a 0 0 14 8 10 0 1 $T0 $ebp = $eip $T0 4 + ^ = $ebp $T0 ^ = $esp $T0 8 + =  $23 $T0 20 - ^ =  $24 $T0 24 - ^ =
STACK WIN 4 173ea 156 0 0 14 c 10 0 1 $T0 $ebp = $eip $T0 4 + ^ = $ebp $T0 ^ = $esp $T0 8 + =  $23 $T0 20 - ^ =  $24 $T0 24 - ^ =  $20 $T0 28 - ^ =
STACK WIN 4 175b5 11 5 0 4 0 0 0 1 $T0 $ebp = $eip $T0 4 + ^ = $ebp $T0 ^ = $esp $T0 8 + =
STACK WIN 4 175ca 11 5 0 4 0 0 0 1 $T0 $ebp = $eip $T0 4 + ^ = $ebp $T0 ^ = $esp $T0 8 + =
STACK WIN 4 175df 10 5 0 4 0 0 0 1 $T0 $ebp = $eip $T0 4 + ^ = $ebp $T0 ^ = $esp $T0 8 + =
STACK WIN 4 175f3 10 5 0 4 0 0 0 1 $T0 $ebp = $eip $T0 4 + ^ = $ebp $T0 ^ = $esp $T0 8 + =
STACK WIN 4 17607 10 5 0 4 0 0 0 1 $T0 $ebp = $eip $T0 4 + ^ = $ebp $T0 ^ = $esp $T0 8 + =
STACK WIN 4 1761b 10 5 0 4 0 0 0 1 $T0 $ebp = $eip $T0 4 + ^ = $ebp $T0 ^ = $esp $T0 8 + =
STACK WIN 4 1762f 10 5 0 4 0 0 0 1 $T0 $ebp = $eip $T0 4 + ^ = $ebp $T0 ^ = $esp $T0 8 + =
STACK WIN 4 17643 12 5 0 0 0 0 0 1 $T0 .raSearch = $eip $T0 ^ = $esp $T0 4 + =
STACK WIN 4 17646 e 2 0 0 4 0 0 1 $T0 .raSearch = $eip $T0 ^ = $esp $T0 4 + =  $23 $T0 4 - ^ =
STACK WIN 4 17659 12 5 0 0 0 0 0 1 $T0 .raSearch = $eip $T0 ^ = $esp $T0 4 + =
STACK WIN 4 1765c e 2 0 0 4 0 0 1 $T0 .raSearch = $eip $T0 ^ = $esp $T0 4 + =  $23 $T0 4 - ^ =
STACK WIN 4 1766f 12 5 0 0 0 0 0 1 $T0 .raSearch = $eip $T0 ^ = $esp $T0 4 + =
STACK WIN 4 17672 e 2 0 0 4 0 0 1 $T0 .raSearch = $eip $T0 ^ = $esp $T0 4 + =  $23 $T0 4 - ^ =
STACK WIN 4 17685 7 0 0 0 0 0 0 1 $T0 .raSearch = $eip $T0 ^ = $esp $T0 4 + =
STACK WIN 4 1768c 16 0 0 0 0 0 0 1 $T0 .raSearch = $eip $T0 ^ = $esp $T0 4 + =
STACK WIN 4 176a7 16 0 0 0 0 0 0 1 $T0 .raSearch = $eip $T0 ^ = $esp $T0 4 + =
STACK WIN 4 176c2 6 0 0 0 0 0 0 1 $T0 .raSearch = $eip $T0 ^ = $esp $T0 4 + =
STACK WIN 4 176c8 6 0 0 0 0 0 0 1 $T0 .raSearch = $eip $T0 ^ = $esp $T0 4 + =
STACK WIN 4 176ce 6 0 0 0 0 0 0 1 $T0 .raSearch = $eip $T0 ^ = $esp $T0 4 + =
STACK WIN 4 176d4 5 0 0 4 0 0 0 1 $T0 .raSearch = $eip $T0 ^ = $esp $T0 4 + =
STACK WIN 4 176d9 3 0 0 4 0 0 0 1 $T0 .raSearch = $eip $T0 ^ = $esp $T0 4 + =
STACK WIN 4 176dc b 5 0 8 0 0 0 1 $T0 $ebp = $eip $T0 4 + ^ = $ebp $T0 ^ = $esp $T0 8 + =
STACK WIN 4 176e9 b 5 0 8 0 0 0 1 $T0 $ebp = $eip $T0 4 + ^ = $ebp $T0 ^ = $esp $T0 8 + =
STACK WIN 4 176f6 3 0 0 0 0 0 0 1 $T0 .raSearch = $eip $T0 ^ = $esp $T0 4 + =
STACK WIN 4 176f9 3 0 0 0 0 0 0 1 $T0 .raSearch = $eip $T0 ^ = $esp $T0 4 + =
STACK WIN 4 176fc 3 0 0 0 0 0 0 1 $T0 .raSearch = $eip $T0 ^ = $esp $T0 4 + =
STACK WIN 4 176ff 3 0 0 0 0 0 0 1 $T0 .raSearch = $eip $T0 ^ = $esp $T0 4 + =
STACK WIN 4 17702 3 0 0 0 0 0 0 1 $T0 .raSearch = $eip $T0 ^ = $esp $T0 4 + =
STACK WIN 4 17705 6 0 0 4 0 0 0 1 $T0 .raSearch = $eip $T0 ^ = $esp $T0 4 + =
STACK WIN 4 1770b 6 0 0 4 0 0 0 1 $T0 .raSearch = $eip $T0 ^ = $esp $T0 4 + =
STACK WIN 4 17711 6 0 0 4 0 0 0 1 $T0 .raSearch = $eip $T0 ^ = $esp $T0 4 + =
STACK WIN 4 17717 6 0 0 4 0 0 0 1 $T0 .raSearch = $eip $T0 ^ = $esp $T0 4 + =
STACK WIN 4 1771d 7 0 0 0 0 0 0 1 $T0 .raSearch = $eip $T0 ^ = $esp $T0 4 + =
STACK WIN 4 17724 12 5 0 0 0 0 0 1 $T0 .raSearch = $eip $T0 ^ = $esp $T0 4 + =
STACK WIN 4 17727 e 2 0 0 4 0 0 1 $T0 .raSearch = $eip $T0 ^ = $esp $T0 4 + =  $23 $T0 4 - ^ =
STACK WIN 4 1773a 12 5 0 0 0 0 0 1 $T0 .raSearch = $eip $T0 ^ = $esp $T0 4 + =
STACK WIN 4 1773d e 2 0 0 4 0 0 1 $T0 .raSearch = $eip $T0 ^ = $esp $T0 4 + =  $23 $T0 4 - ^ =
STACK WIN 4 17750 12 5 0 0 0 0 0 1 $T0 .raSearch = $eip $T0 ^ = $esp $T0 4 + =
STACK WIN 4 17753 e 2 0 0 4 0 0 1 $T0 .raSearch = $eip $T0 ^ = $esp $T0 4 + =  $23 $T0 4 - ^ =
STACK WIN 4 17766 17 5 0 4 0 0 0 1 $T0 $ebp = $eip $T0 4 + ^ = $ebp $T0 ^ = $esp $T0 8 + =
STACK WIN 4 17782 3 0 0 4 0 0 0 1 $T0 .raSearch = $eip $T0 ^ = $esp $T0 4 + =
STACK WIN 4 17785 4f 6 0 c 0 0 0 1 $T0 $ebp = $eip $T0 4 + ^ = $ebp $T0 ^ = $esp $T0 8 + =
STACK WIN 4 1778b 47 0 0 c 4 0 0 1 $T0 $ebp = $eip $T0 4 + ^ = $ebp $T0 ^ = $esp $T0 8 + =  $23 $T0 4 - ^ =
STACK WIN 4 177e7 b 5 0 4 0 0 0 1 $T0 $ebp = $eip $T0 4 + ^ = $ebp $T0 ^ = $esp $T0 8 + =
STACK WIN 4 177f4 b 5 0 4 0 0 0 1 $T0 $ebp = $eip $T0 4 + ^ = $ebp $T0 ^ = $esp $T0 8 + =
STACK WIN 4 17801 f 5 0 4 0 0 0 1 $T0 $ebp = $eip $T0 4 + ^ = $ebp $T0 ^ = $esp $T0 8 + =
STACK WIN 4 17813 f 5 0 4 0 0 0 1 $T0 $ebp = $eip $T0 4 + ^ = $ebp $T0 ^ = $esp $T0 8 + =
STACK WIN 4 17825 12 5 0 4 0 0 0 1 $T0 $ebp = $eip $T0 4 + ^ = $ebp $T0 ^ = $esp $T0 8 + =
STACK WIN 4 1783b 14 0 0 0 0 0 0 1 $T0 .raSearch = $eip $T0 ^ = $esp $T0 4 + =
STACK WIN 4 17854 14 0 0 0 0 0 0 1 $T0 .raSearch = $eip $T0 ^ = $esp $T0 4 + =
STACK WIN 4 1786d 2c 0 0 0 0 0 0 1 $T0 .raSearch = $eip $T0 ^ = $esp $T0 4 + =
STACK WIN 4 178a4 2c 0 0 0 0 0 0 1 $T0 .raSearch = $eip $T0 ^ = $esp $T0 4 + =
STACK WIN 4 178db 53 0 0 0 0 0 0 1 $T0 .raSearch = $eip $T0 ^ = $esp $T0 4 + =
STACK WIN 4 178e8 45 0 0 0 4 0 0 1 $T0 .raSearch = $eip $T0 ^ = $esp $T0 4 + =  $23 $T0 4 - ^ =
STACK WIN 4 178e9 43 0 0 0 8 0 0 1 $T0 .raSearch = $eip $T0 ^ = $esp $T0 4 + =  $23 $T0 4 - ^ =  $24 $T0 8 - ^ =
STACK WIN 4 17942 4e 0 0 0 0 0 0 1 $T0 .raSearch = $eip $T0 ^ = $esp $T0 4 + =
STACK WIN 4 1794f 40 0 0 0 4 0 0 1 $T0 .raSearch = $eip $T0 ^ = $esp $T0 4 + =  $23 $T0 4 - ^ =
STACK WIN 4 17950 3e 0 0 0 8 0 0 1 $T0 .raSearch = $eip $T0 ^ = $esp $T0 4 + =  $23 $T0 4 - ^ =  $24 $T0 8 - ^ =
STACK WIN 4 179a3 34 6 0 4 0 0 0 1 $T0 $ebp = $eip $T0 4 + ^ = $ebp $T0 ^ = $esp $T0 8 + =
STACK WIN 4 179a9 2c 0 0 4 4 0 0 1 $T0 $ebp = $eip $T0 4 + ^ = $ebp $T0 ^ = $esp $T0 8 + =  $23 $T0 4 - ^ =
STACK WIN 4 179b5 1d 0 0 4 8 0 0 1 $T0 $ebp = $eip $T0 4 + ^ = $ebp $T0 ^ = $esp $T0 8 + =  $23 $T0 4 - ^ =  $24 $T0 8 - ^ =
STACK WIN 4 179e4 49 7 0 4 0 0 0 1 $T0 $ebp = $eip $T0 4 + ^ = $ebp $T0 ^ = $esp $T0 8 + =
STACK WIN 4 179ea 41 1 0 4 4 0 0 1 $T0 $ebp = $eip $T0 4 + ^ = $ebp $T0 ^ = $esp $T0 8 + =  $20 $T0 4 - ^ =
STACK WIN 4 179eb 3d 0 0 4 8 0 0 1 $T0 $ebp = $eip $T0 4 + ^ = $ebp $T0 ^ = $esp $T0 8 + =  $20 $T0 4 - ^ =  $23 $T0 8 - ^ =
STACK WIN 4 179fb 2c 0 0 4 c 0 0 1 $T0 $ebp = $eip $T0 4 + ^ = $ebp $T0 ^ = $esp $T0 8 + =  $20 $T0 4 - ^ =  $23 $T0 8 - ^ =  $24 $T0 12 - ^ =
STACK WIN 4 17a3f d0 f 0 4 0 8 0 1 $T0 $ebp = $eip $T0 4 + ^ = $ebp $T0 ^ = $esp $T0 8 + =
STACK WIN 4 17a47 b9 7 0 4 4 8 0 1 $T0 $ebp = $eip $T0 4 + ^ = $ebp $T0 ^ = $esp $T0 8 + =  $20 $T0 12 - ^ =
STACK WIN 4 17a4d b2 1 0 4 8 8 0 1 $T0 $ebp = $eip $T0 4 + ^ = $ebp $T0 ^ = $esp $T0 8 + =  $20 $T0 12 - ^ =  $23 $T0 16 - ^ =
STACK WIN 4 17a4e b0 0 0 4 c 8 0 1 $T0 $ebp = $eip $T0 4 + ^ = $ebp $T0 ^ = $esp $T0 8 + =  $20 $T0 12 - ^ =  $23 $T0 16 - ^ =  $24 $T0 20 - ^ =
STACK WIN 4 17b43 10d 15 0 4 0 c 0 1 $T0 $ebp = $eip $T0 4 + ^ = $ebp $T0 ^ = $esp $T0 8 + =
STACK WIN 4 17b4c f5 c 0 4 4 c 0 1 $T0 $ebp = $eip $T0 4 + ^ = $ebp $T0 ^ = $esp $T0 8 + =  $20 $T0 16 - ^ =
STACK WIN 4 17b57 e9 1 0 4 8 c 0 1 $T0 $ebp = $eip $T0 4 + ^ = $ebp $T0 ^ = $esp $T0 8 + =  $20 $T0 16 - ^ =  $23 $T0 20 - ^ =
STACK WIN 4 17b58 e7 0 0 4 c c 0 1 $T0 $ebp = $eip $T0 4 + ^ = $ebp $T0 ^ = $esp $T0 8 + =  $20 $T0 16 - ^ =  $23 $T0 20 - ^ =  $24 $T0 24 - ^ =
STACK WIN 4 17c93 2f 6 0 4 0 0 0 1 $T0 $ebp = $eip $T0 4 + ^ = $ebp $T0 ^ = $esp $T0 8 + =
STACK WIN 4 17c99 27 0 0 4 4 0 0 1 $T0 $ebp = $eip $T0 4 + ^ = $ebp $T0 ^ = $esp $T0 8 + =  $23 $T0 4 - ^ =
STACK WIN 4 17ca3 1c 0 0 4 8 0 0 1 $T0 $ebp = $eip $T0 4 + ^ = $ebp $T0 ^ = $esp $T0 8 + =  $23 $T0 4 - ^ =  $24 $T0 8 - ^ =
STACK WIN 4 17ccd 2f 6 0 4 0 0 0 1 $T0 $ebp = $eip $T0 4 + ^ = $ebp $T0 ^ = $esp $T0 8 + =
STACK WIN 4 17cd3 27 0 0 4 4 0 0 1 $T0 $ebp = $eip $T0 4 + ^ = $ebp $T0 ^ = $esp $T0 8 + =  $23 $T0 4 - ^ =
STACK WIN 4 17cdd 1c 0 0 4 8 0 0 1 $T0 $ebp = $eip $T0 4 + ^ = $ebp $T0 ^ = $esp $T0 8 + =  $23 $T0 4 - ^ =  $24 $T0 8 - ^ =
STACK WIN 4 17d07 5 0 0 0 0 0 0 1 $T0 .raSearch = $eip $T0 ^ = $esp $T0 4 + =
STACK WIN 4 17d0c 5 0 0 0 0 0 0 1 $T0 .raSearch = $eip $T0 ^ = $esp $T0 4 + =
STACK WIN 4 17d11 83 5 0 0 0 0 0 1 $T0 .raSearch = $eip $T0 ^ = $esp $T0 4 + =
STACK WIN 4 17d14 7f 2 0 0 4 0 0 1 $T0 .raSearch = $eip $T0 ^ = $esp $T0 4 + =  $20 $T0 4 - ^ =
STACK WIN 4 17d15 7d 1 0 0 8 0 0 1 $T0 .raSearch = $eip $T0 ^ = $esp $T0 4 + =  $20 $T0 4 - ^ =  $23 $T0 8 - ^ =
STACK WIN 4 17d16 7b 0 0 0 c 0 0 1 $T0 .raSearch = $eip $T0 ^ = $esp $T0 4 + =  $20 $T0 4 - ^ =  $23 $T0 8 - ^ =  $24 $T0 12 - ^ =
STACK WIN 4 17db4 7d 5 0 0 0 0 0 1 $T0 .raSearch = $eip $T0 ^ = $esp $T0 4 + =
STACK WIN 4 17db7 79 2 0 0 4 0 0 1 $T0 .raSearch = $eip $T0 ^ = $esp $T0 4 + =  $20 $T0 4 - ^ =
STACK WIN 4 17db8 77 1 0 0 8 0 0 1 $T0 .raSearch = $eip $T0 ^ = $esp $T0 4 + =  $20 $T0 4 - ^ =  $23 $T0 8 - ^ =
STACK WIN 4 17db9 75 0 0 0 c 0 0 1 $T0 .raSearch = $eip $T0 ^ = $esp $T0 4 + =  $20 $T0 4 - ^ =  $23 $T0 8 - ^ =  $24 $T0 12 - ^ =
STACK WIN 4 17e50 18 5 0 8 0 0 0 1 $T0 $ebp = $eip $T0 4 + ^ = $ebp $T0 ^ = $esp $T0 8 + =
STACK WIN 4 17e6e 18 5 0 8 0 0 0 1 $T0 $ebp = $eip $T0 4 + ^ = $ebp $T0 ^ = $esp $T0 8 + =
STACK WIN 4 17e8c 1e 5 0 c 0 0 0 1 $T0 $ebp = $eip $T0 4 + ^ = $ebp $T0 ^ = $esp $T0 8 + =
STACK WIN 4 17eb1 1e 5 0 c 0 0 0 1 $T0 $ebp = $eip $T0 4 + ^ = $ebp $T0 ^ = $esp $T0 8 + =
STACK WIN 4 17ed6 18 5 0 4 0 0 0 1 $T0 $ebp = $eip $T0 4 + ^ = $ebp $T0 ^ = $esp $T0 8 + =
STACK WIN 4 17ef4 1e 5 0 4 0 0 0 1 $T0 $ebp = $eip $T0 4 + ^ = $ebp $T0 ^ = $esp $T0 8 + =
STACK WIN 4 17f19 29 8 0 4 0 0 0 1 $T0 $ebp = $eip $T0 4 + ^ = $ebp $T0 ^ = $esp $T0 8 + =
STACK WIN 4 17f1f 1f 2 0 4 4 0 0 1 $T0 $ebp = $eip $T0 4 + ^ = $ebp $T0 ^ = $esp $T0 8 + =  $23 $T0 4 - ^ =
STACK WIN 4 17f22 1b 0 0 4 8 0 0 1 $T0 $ebp = $eip $T0 4 + ^ = $ebp $T0 ^ = $esp $T0 8 + =  $23 $T0 4 - ^ =  $24 $T0 8 - ^ =
STACK WIN 4 17f4c 29 8 0 4 0 0 0 1 $T0 $ebp = $eip $T0 4 + ^ = $ebp $T0 ^ = $esp $T0 8 + =
STACK WIN 4 17f52 1f 2 0 4 4 0 0 1 $T0 $ebp = $eip $T0 4 + ^ = $ebp $T0 ^ = $esp $T0 8 + =  $23 $T0 4 - ^ =
STACK WIN 4 17f55 1b 0 0 4 8 0 0 1 $T0 $ebp = $eip $T0 4 + ^ = $ebp $T0 ^ = $esp $T0 8 + =  $23 $T0 4 - ^ =  $24 $T0 8 - ^ =
STACK WIN 4 17f7f 1b 5 0 4 0 0 0 1 $T0 $ebp = $eip $T0 4 + ^ = $ebp $T0 ^ = $esp $T0 8 + =
STACK WIN 4 17fa0 1b 5 0 4 0 0 0 1 $T0 $ebp = $eip $T0 4 + ^ = $ebp $T0 ^ = $esp $T0 8 + =
STACK WIN 4 17fc1 10 5 0 4 0 0 0 1 $T0 $ebp = $eip $T0 4 + ^ = $ebp $T0 ^ = $esp $T0 8 + =
STACK WIN 4 17fd5 12 5 0 0 0 0 0 1 $T0 .raSearch = $eip $T0 ^ = $esp $T0 4 + =
STACK WIN 4 17fd8 e 2 0 0 4 0 0 1 $T0 .raSearch = $eip $T0 ^ = $esp $T0 4 + =  $23 $T0 4 - ^ =
STACK WIN 4 17feb 7 0 0 0 0 0 0 1 $T0 .raSearch = $eip $T0 ^ = $esp $T0 4 + =
STACK WIN 4 17ff2 7 0 0 0 0 0 0 1 $T0 .raSearch = $eip $T0 ^ = $esp $T0 4 + =
STACK WIN 4 17ff9 7 0 0 0 0 0 0 1 $T0 .raSearch = $eip $T0 ^ = $esp $T0 4 + =
STACK WIN 4 18000 1c 5 0 8 0 0 0 1 $T0 $ebp = $eip $T0 4 + ^ = $ebp $T0 ^ = $esp $T0 8 + =
STACK WIN 4 18023 1e 5 0 8 0 0 0 1 $T0 $ebp = $eip $T0 4 + ^ = $ebp $T0 ^ = $esp $T0 8 + =
STACK WIN 4 18048 1f 5 0 10 0 0 0 1 $T0 $ebp = $eip $T0 4 + ^ = $ebp $T0 ^ = $esp $T0 8 + =
STACK WIN 4 1806e 22 5 0 10 0 0 0 1 $T0 $ebp = $eip $T0 4 + ^ = $ebp $T0 ^ = $esp $T0 8 + =
STACK WIN 4 18098 6 0 0 0 0 0 0 1 $T0 .raSearch = $eip $T0 ^ = $esp $T0 4 + =
STACK WIN 4 1809e 6 0 0 0 0 0 0 1 $T0 .raSearch = $eip $T0 ^ = $esp $T0 4 + =
STACK WIN 4 180a4 3 0 0 0 0 0 0 1 $T0 .raSearch = $eip $T0 ^ = $esp $T0 4 + =
STACK WIN 4 180a7 6 0 0 4 0 0 0 1 $T0 .raSearch = $eip $T0 ^ = $esp $T0 4 + =
STACK WIN 4 180ad 6 0 0 4 0 0 0 1 $T0 .raSearch = $eip $T0 ^ = $esp $T0 4 + =
STACK WIN 4 180b3 6 0 0 4 0 0 0 1 $T0 .raSearch = $eip $T0 ^ = $esp $T0 4 + =
STACK WIN 4 180b9 6 0 0 4 0 0 0 1 $T0 .raSearch = $eip $T0 ^ = $esp $T0 4 + =
STACK WIN 4 180bf 6 0 0 4 0 0 0 1 $T0 .raSearch = $eip $T0 ^ = $esp $T0 4 + =
STACK WIN 4 180c5 6 0 0 4 0 0 0 1 $T0 .raSearch = $eip $T0 ^ = $esp $T0 4 + =
STACK WIN 4 180cb 26 d 0 4 0 0 0 1 $T0 $ebp = $eip $T0 4 + ^ = $ebp $T0 ^ = $esp $T0 8 + =
STACK WIN 4 180d8 15 0 0 4 4 0 0 1 $T0 $ebp = $eip $T0 4 + ^ = $ebp $T0 ^ = $esp $T0 8 + =  $23 $T0 4 - ^ =
STACK WIN 4 180fa 26 d 0 4 0 0 0 1 $T0 $ebp = $eip $T0 4 + ^ = $ebp $T0 ^ = $esp $T0 8 + =
STACK WIN 4 18107 15 0 0 4 4 0 0 1 $T0 $ebp = $eip $T0 4 + ^ = $ebp $T0 ^ = $esp $T0 8 + =  $23 $T0 4 - ^ =
STACK WIN 4 18129 7 0 0 0 0 0 0 1 $T0 .raSearch = $eip $T0 ^ = $esp $T0 4 + =
STACK WIN 4 18130 7 0 0 0 0 0 0 1 $T0 .raSearch = $eip $T0 ^ = $esp $T0 4 + =
STACK WIN 4 18137 7 0 0 0 0 0 0 1 $T0 .raSearch = $eip $T0 ^ = $esp $T0 4 + =
STACK WIN 4 1813e 5 0 0 4 0 0 0 1 $T0 .raSearch = $eip $T0 ^ = $esp $T0 4 + =
STACK WIN 4 18143 3 0 0 4 0 0 0 1 $T0 .raSearch = $eip $T0 ^ = $esp $T0 4 + =
STACK WIN 4 18146 12 5 0 0 0 0 0 1 $T0 .raSearch = $eip $T0 ^ = $esp $T0 4 + =
STACK WIN 4 18149 e 2 0 0 4 0 0 1 $T0 .raSearch = $eip $T0 ^ = $esp $T0 4 + =  $23 $T0 4 - ^ =
STACK WIN 4 1815c 3 0 0 0 0 0 0 1 $T0 .raSearch = $eip $T0 ^ = $esp $T0 4 + =
STACK WIN 4 1815f 3 0 0 0 0 0 0 1 $T0 .raSearch = $eip $T0 ^ = $esp $T0 4 + =
STACK WIN 4 18162 5 0 0 0 0 0 0 1 $T0 .raSearch = $eip $T0 ^ = $esp $T0 4 + =
STACK WIN 4 18167 5 0 0 0 0 0 0 1 $T0 .raSearch = $eip $T0 ^ = $esp $T0 4 + =
STACK WIN 4 1816c 37 0 0 0 0 0 0 1 $T0 .raSearch = $eip $T0 ^ = $esp $T0 4 + =
STACK WIN 4 181b0 6 0 0 0 0 0 0 1 $T0 .raSearch = $eip $T0 ^ = $esp $T0 4 + =
STACK WIN 4 181b6 6 0 0 0 0 0 0 1 $T0 .raSearch = $eip $T0 ^ = $esp $T0 4 + =
STACK WIN 4 181bc 14 0 0 0 0 0 0 1 $T0 .raSearch = $eip $T0 ^ = $esp $T0 4 + =
STACK WIN 4 181d5 14 0 0 0 0 0 0 1 $T0 .raSearch = $eip $T0 ^ = $esp $T0 4 + =
STACK WIN 4 181ee 5 0 0 0 0 0 0 1 $T0 .raSearch = $eip $T0 ^ = $esp $T0 4 + =
STACK WIN 4 181f3 5 0 0 0 0 0 0 1 $T0 .raSearch = $eip $T0 ^ = $esp $T0 4 + =
STACK WIN 4 181f8 22 5 0 18 0 0 0 1 $T0 $ebp = $eip $T0 4 + ^ = $ebp $T0 ^ = $esp $T0 8 + =
STACK WIN 4 18222 6 0 0 0 0 0 0 1 $T0 .raSearch = $eip $T0 ^ = $esp $T0 4 + =
STACK WIN 4 18228 12 5 0 4 0 0 0 1 $T0 $ebp = $eip $T0 4 + ^ = $ebp $T0 ^ = $esp $T0 8 + =
STACK WIN 4 1823e 5b c 0 c 10 1c 0 1 $T0 $ebp = $eip $T0 4 + ^ = $ebp $T0 ^ = $esp $T0 8 + =  $20 $T0 32 - ^ =  $23 $T0 36 - ^ =  $24 $T0 40 - ^ =
STACK WIN 4 1828a e 0 0 c 10 1c 0 1 $T0 $ebp = $T2 $esp = $T1 .raSearchStart = $eip $T1 ^ = $ebp $T0 = $esp $T1 4 + =
STACK WIN 4 182af 5b c 0 c 10 1c 0 1 $T0 $ebp = $eip $T0 4 + ^ = $ebp $T0 ^ = $esp $T0 8 + =  $20 $T0 32 - ^ =  $23 $T0 36 - ^ =  $24 $T0 40 - ^ =
STACK WIN 4 182fb e 0 0 c 10 1c 0 1 $T0 $ebp = $T2 $esp = $T1 .raSearchStart = $eip $T1 ^ = $ebp $T0 = $esp $T1 4 + =
STACK WIN 4 18320 26 8 0 8 0 c 0 1 $T0 $ebp = $eip $T0 4 + ^ = $ebp $T0 ^ = $esp $T0 8 + =
STACK WIN 4 1834f 26 8 0 8 0 c 0 1 $T0 $ebp = $eip $T0 4 + ^ = $ebp $T0 ^ = $esp $T0 8 + =
STACK WIN 4 1837e 1f 5 0 4 0 0 0 1 $T0 $ebp = $eip $T0 4 + ^ = $ebp $T0 ^ = $esp $T0 8 + =
STACK WIN 4 183a4 12 5 0 4 0 0 0 1 $T0 $ebp = $eip $T0 4 + ^ = $ebp $T0 ^ = $esp $T0 8 + =
STACK WIN 4 183ba 12 5 0 4 0 0 0 1 $T0 $ebp = $eip $T0 4 + ^ = $ebp $T0 ^ = $esp $T0 8 + =
STACK WIN 4 183d0 16 5 0 8 0 0 0 1 $T0 $ebp = $eip $T0 4 + ^ = $ebp $T0 ^ = $esp $T0 8 + =
STACK WIN 4 183eb 12 5 0 4 0 0 0 1 $T0 $ebp = $eip $T0 4 + ^ = $ebp $T0 ^ = $esp $T0 8 + =
STACK WIN 4 18401 12 5 0 4 0 0 0 1 $T0 $ebp = $eip $T0 4 + ^ = $ebp $T0 ^ = $esp $T0 8 + =
STACK WIN 4 18417 10 5 0 4 0 0 0 1 $T0 $ebp = $eip $T0 4 + ^ = $ebp $T0 ^ = $esp $T0 8 + =
STACK WIN 4 1842b 10 5 0 4 0 0 0 1 $T0 $ebp = $eip $T0 4 + ^ = $ebp $T0 ^ = $esp $T0 8 + =
STACK WIN 4 1843f 12 5 0 0 0 0 0 1 $T0 .raSearch = $eip $T0 ^ = $esp $T0 4 + =
STACK WIN 4 18442 e 2 0 0 4 0 0 1 $T0 .raSearch = $eip $T0 ^ = $esp $T0 4 + =  $23 $T0 4 - ^ =
STACK WIN 4 18455 3 0 0 0 0 0 0 1 $T0 .raSearch = $eip $T0 ^ = $esp $T0 4 + =
STACK WIN 4 18458 9 0 0 0 0 0 0 1 $T0 .raSearch = $eip $T0 ^ = $esp $T0 4 + =
STACK WIN 4 18463 9 0 0 0 0 0 0 1 $T0 .raSearch = $eip $T0 ^ = $esp $T0 4 + =
STACK WIN 4 1846e 129 d 0 0 0 c 0 1 $T0 $ebp = $eip $T0 4 + ^ = $ebp $T0 ^ = $esp $T0 8 + =
STACK WIN 4 1847c 119 0 0 0 4 c 0 1 $T0 $ebp = $eip $T0 4 + ^ = $ebp $T0 ^ = $esp $T0 8 + =  $20 $T0 16 - ^ =
STACK WIN 4 1847d 117 0 0 0 8 c 0 1 $T0 $ebp = $eip $T0 4 + ^ = $ebp $T0 ^ = $esp $T0 8 + =  $20 $T0 16 - ^ =  $23 $T0 20 - ^ =
STACK WIN 4 18480 113 0 0 0 c c 0 1 $T0 $ebp = $eip $T0 4 + ^ = $ebp $T0 ^ = $esp $T0 8 + =  $20 $T0 16 - ^ =  $23 $T0 20 - ^ =  $24 $T0 24 - ^ =
STACK WIN 4 185e1 9 0 0 0 0 0 0 1 $T0 .raSearch = $eip $T0 ^ = $esp $T0 4 + =
STACK WIN 4 185ec 9 0 0 0 0 0 0 1 $T0 .raSearch = $eip $T0 ^ = $esp $T0 4 + =
STACK WIN 4 185f7 da f 0 0 0 14 0 1 $T0 $ebp = $eip $T0 4 + ^ = $ebp $T0 ^ = $esp $T0 8 + =
STACK WIN 4 18600 cf 6 0 0 4 14 0 1 $T0 $ebp = $eip $T0 4 + ^ = $ebp $T0 ^ = $esp $T0 8 + =  $20 $T0 24 - ^ =
STACK WIN 4 18603 cb 3 0 0 8 14 0 1 $T0 $ebp = $eip $T0 4 + ^ = $ebp $T0 ^ = $esp $T0 8 + =  $20 $T0 24 - ^ =  $24 $T0 28 - ^ =
STACK WIN 4 1861f ae 0 0 0 c 14 0 1 $T0 $ebp = $eip $T0 4 + ^ = $ebp $T0 ^ = $esp $T0 8 + =  $20 $T0 24 - ^ =  $24 $T0 28 - ^ =  $23 $T0 32 - ^ =
STACK WIN 4 18707 6 0 0 0 0 0 0 1 $T0 .raSearch = $eip $T0 ^ = $esp $T0 4 + =
STACK WIN 4 1870d 12 5 0 0 0 0 0 1 $T0 .raSearch = $eip $T0 ^ = $esp $T0 4 + =
STACK WIN 4 18710 e 2 0 0 4 0 0 1 $T0 .raSearch = $eip $T0 ^ = $esp $T0 4 + =  $23 $T0 4 - ^ =
STACK WIN 4 18723 16 5 0 4 0 0 0 1 $T0 $ebp = $eip $T0 4 + ^ = $ebp $T0 ^ = $esp $T0 8 + =
STACK WIN 4 1873e 16 5 0 4 0 0 0 1 $T0 $ebp = $eip $T0 4 + ^ = $ebp $T0 ^ = $esp $T0 8 + =
STACK WIN 4 18759 2d 8 0 4 0 10 0 1 $T0 $ebp = $eip $T0 4 + ^ = $ebp $T0 ^ = $esp $T0 8 + =
STACK WIN 4 18791 29 5 0 4 0 0 0 1 $T0 $ebp = $eip $T0 4 + ^ = $ebp $T0 ^ = $esp $T0 8 + =
STACK WIN 4 187c4 33 8 0 8 0 14 0 1 $T0 $ebp = $eip $T0 4 + ^ = $ebp $T0 ^ = $esp $T0 8 + =
STACK WIN 4 18803 3 0 0 4 0 0 0 1 $T0 .raSearch = $eip $T0 ^ = $esp $T0 4 + =
STACK WIN 4 18806 d 0 0 0 0 0 0 1 $T0 .raSearch = $eip $T0 ^ = $esp $T0 4 + =
STACK WIN 4 18816 1a 0 0 0 0 0 0 1 $T0 .raSearch = $eip $T0 ^ = $esp $T0 4 + =
STACK WIN 4 18836 3 0 0 4 0 0 0 1 $T0 .raSearch = $eip $T0 ^ = $esp $T0 4 + =
STACK WIN 4 18839 3 0 0 0 0 0 0 1 $T0 .raSearch = $eip $T0 ^ = $esp $T0 4 + =
STACK WIN 4 1883c 8 0 0 4 0 0 0 1 $T0 .raSearch = $eip $T0 ^ = $esp $T0 4 + =
STACK WIN 4 18846 3 0 0 0 0 0 0 1 $T0 .raSearch = $eip $T0 ^ = $esp $T0 4 + =
STACK WIN 4 18849 3 0 0 4 0 0 0 1 $T0 .raSearch = $eip $T0 ^ = $esp $T0 4 + =
STACK WIN 4 1884c 2e 3 0 0 0 0 0 1 $T0 .raSearch = $eip $T0 ^ = $esp $T0 4 + =
STACK WIN 4 1884f 2a 0 0 0 4 0 0 1 $T0 .raSearch = $eip $T0 ^ = $esp $T0 4 + =  $23 $T0 4 - ^ =
STACK WIN 4 18885 9 0 0 4 0 0 0 1 $T0 .raSearch = $eip $T0 ^ = $esp $T0 4 + =
STACK WIN 4 18890 17 6 0 4 0 4 0 1 $T0 $ebp = $eip $T0 4 + ^ = $ebp $T0 ^ = $esp $T0 8 + =
STACK WIN 4 188ac 50 3 0 4 0 0 0 1 $T0 .raSearch = $eip $T0 ^ = $esp $T0 4 + =
STACK WIN 4 188af 4c 0 0 4 4 0 0 1 $T0 .raSearch = $eip $T0 ^ = $esp $T0 4 + =  $23 $T0 4 - ^ =
STACK WIN 4 18910 24 8 0 4 0 0 0 1 $T0 $ebp = $eip $T0 4 + ^ = $ebp $T0 ^ = $esp $T0 8 + =
STACK WIN 4 18916 1a 2 0 4 4 0 0 1 $T0 $ebp = $eip $T0 4 + ^ = $ebp $T0 ^ = $esp $T0 8 + =  $23 $T0 4 - ^ =
STACK WIN 4 18919 16 0 0 4 8 0 0 1 $T0 $ebp = $eip $T0 4 + ^ = $ebp $T0 ^ = $esp $T0 8 + =  $23 $T0 4 - ^ =  $24 $T0 8 - ^ =
STACK WIN 4 1893d 2e 6 0 4 0 0 0 1 $T0 $ebp = $eip $T0 4 + ^ = $ebp $T0 ^ = $esp $T0 8 + =
STACK WIN 4 18943 24 0 0 4 4 0 0 1 $T0 $ebp = $eip $T0 4 + ^ = $ebp $T0 ^ = $esp $T0 8 + =  $23 $T0 4 - ^ =
STACK WIN 4 18952 14 0 0 4 8 0 0 1 $T0 $ebp = $eip $T0 4 + ^ = $ebp $T0 ^ = $esp $T0 8 + =  $23 $T0 4 - ^ =  $24 $T0 8 - ^ =
STACK WIN 4 18976 b 0 0 0 0 0 0 1 $T0 .raSearch = $eip $T0 ^ = $esp $T0 4 + =
STACK WIN 4 18983 26 d 0 4 0 0 0 1 $T0 $ebp = $eip $T0 4 + ^ = $ebp $T0 ^ = $esp $T0 8 + =
STACK WIN 4 18990 15 0 0 4 4 0 0 1 $T0 $ebp = $eip $T0 4 + ^ = $ebp $T0 ^ = $esp $T0 8 + =  $23 $T0 4 - ^ =
STACK WIN 4 189b2 12 0 0 0 0 0 0 1 $T0 .raSearch = $eip $T0 ^ = $esp $T0 4 + =
STACK WIN 4 189c8 b 0 0 0 0 0 0 1 $T0 .raSearch = $eip $T0 ^ = $esp $T0 4 + =
STACK WIN 4 189d5 8 0 0 0 0 0 0 1 $T0 .raSearch = $eip $T0 ^ = $esp $T0 4 + =
STACK WIN 4 189df 30 5 0 4 0 0 0 1 $T0 $ebp = $eip $T0 4 + ^ = $ebp $T0 ^ = $esp $T0 8 + =
STACK WIN 4 18a1b 12 5 0 4 0 0 0 1 $T0 $ebp = $eip $T0 4 + ^ = $ebp $T0 ^ = $esp $T0 8 + =
STACK WIN 4 18a31 16 5 0 4 0 0 0 1 $T0 $ebp = $eip $T0 4 + ^ = $ebp $T0 ^ = $esp $T0 8 + =
STACK WIN 4 18a4c 12 0 0 0 0 0 0 1 $T0 .raSearch = $eip $T0 ^ = $esp $T0 4 + =
STACK WIN 4 18a62 20 5 0 4 0 0 0 1 $T0 $ebp = $eip $T0 4 + ^ = $ebp $T0 ^ = $esp $T0 8 + =
STACK WIN 4 18a8a 3c c 0 0 10 18 0 1 $T0 $ebp = $eip $T0 4 + ^ = $ebp $T0 ^ = $esp $T0 8 + =  $20 $T0 28 - ^ =  $23 $T0 32 - ^ =  $24 $T0 36 - ^ =
STACK WIN 4 18ab2 4 0 0 0 10 18 0 1 $T0 $ebp = $T2 $esp = $T1 .raSearchStart = $eip $T1 ^ = $ebp $T0 = $esp $T1 4 + =
STACK WIN 4 18ad5 b 5 0 4 0 0 0 1 $T0 $ebp = $eip $T0 4 + ^ = $ebp $T0 ^ = $esp $T0 8 + =
STACK WIN 4 18ae2 5a 9 0 c 0 0 0 1 $T0 $ebp = $eip $T0 4 + ^ = $ebp $T0 ^ = $esp $T0 8 + =
STACK WIN 4 18aeb 27 0 0 c 4 0 0 1 $T0 $ebp = $eip $T0 4 + ^ = $ebp $T0 ^ = $esp $T0 8 + =  $23 $T0 4 - ^ =
STACK WIN 4 18b15 14 0 0 c 8 0 0 1 $T0 $ebp = $eip $T0 4 + ^ = $ebp $T0 ^ = $esp $T0 8 + =  $23 $T0 4 - ^ =  $24 $T0 8 - ^ =
STACK WIN 4 18b52 5a 9 0 c 0 0 0 1 $T0 $ebp = $eip $T0 4 + ^ = $ebp $T0 ^ = $esp $T0 8 + =
STACK WIN 4 18b5b 27 0 0 c 4 0 0 1 $T0 $ebp = $eip $T0 4 + ^ = $ebp $T0 ^ = $esp $T0 8 + =  $23 $T0 4 - ^ =
STACK WIN 4 18b85 14 0 0 c 8 0 0 1 $T0 $ebp = $eip $T0 4 + ^ = $ebp $T0 ^ = $esp $T0 8 + =  $23 $T0 4 - ^ =  $24 $T0 8 - ^ =
STACK WIN 4 18bc2 23 b 0 14 0 0 0 1 $T0 $ebp = $eip $T0 4 + ^ = $ebp $T0 ^ = $esp $T0 8 + =
STACK WIN 4 18bc8 19 5 0 14 4 0 0 1 $T0 $ebp = $eip $T0 4 + ^ = $ebp $T0 ^ = $esp $T0 8 + =  $23 $T0 4 - ^ =
STACK WIN 4 18bed 48 b 0 14 0 0 0 1 $T0 $ebp = $eip $T0 4 + ^ = $ebp $T0 ^ = $esp $T0 8 + =
STACK WIN 4 18bf3 3e 5 0 14 4 0 0 1 $T0 $ebp = $eip $T0 4 + ^ = $ebp $T0 ^ = $esp $T0 8 + =  $23 $T0 4 - ^ =
STACK WIN 4 18c47 35 b 0 14 0 0 0 1 $T0 $ebp = $eip $T0 4 + ^ = $ebp $T0 ^ = $esp $T0 8 + =
STACK WIN 4 18c50 28 2 0 14 4 0 0 1 $T0 $ebp = $eip $T0 4 + ^ = $ebp $T0 ^ = $esp $T0 8 + =  $23 $T0 4 - ^ =
STACK WIN 4 18c89 23 b 0 14 0 0 0 1 $T0 $ebp = $eip $T0 4 + ^ = $ebp $T0 ^ = $esp $T0 8 + =
STACK WIN 4 18c8f 19 5 0 14 4 0 0 1 $T0 $ebp = $eip $T0 4 + ^ = $ebp $T0 ^ = $esp $T0 8 + =  $23 $T0 4 - ^ =
STACK WIN 4 18cb4 48 b 0 14 0 0 0 1 $T0 $ebp = $eip $T0 4 + ^ = $ebp $T0 ^ = $esp $T0 8 + =
STACK WIN 4 18cba 3e 5 0 14 4 0 0 1 $T0 $ebp = $eip $T0 4 + ^ = $ebp $T0 ^ = $esp $T0 8 + =  $23 $T0 4 - ^ =
