MODULE windows x86_64 2B02EEDFFB7C497B9F3A107E5193B3652 basic-opt64.pdb
INFO CODE_ID 5DDC1E9E8B000 basic-opt64.dll
INFO GENERATOR mozilla/dump_syms XYZ
FUNC 6ab0 7 0 test1(int*)
FUNC 6ac0 1 0 test2(int, unsigned int)
FUNC 6ad0 1 0 test3(int, unsigned int, short)
FUNC 6ae0 1 0 test4(int, unsigned int, unsigned short, double*)
FUNC 6af0 68 0 test5(int*, unsigned int, unsigned short, double const*, const std::basic_string<char,std::char_traits<char>,std::allocator<char> >)
FUNC 6b80 1 0 test6(double const* const, std::basic_string<char,std::char_traits<char>,std::allocator<char> > const&, std::basic_string<char,std::char_traits<char>,std::allocator<char> >&&)
FUNC 6b90 3 0 test7(void (*)(int, unsigned int, unsigned short, double*))
FUNC 6ba0 3 0 test8(int (*)(void (*)(int, unsigned int, unsigned short, double*)))
FUNC 6bb0 3 0 test9(int (*)(int (*)(void (*)(int, unsigned int, unsigned short, double*))))
FUNC 6bc0 3 0 test10(char*&)
FUNC 6bd0 3 0 test_array(char*, int[34]*, std::basic_string<char,std::char_traits<char>,std::allocator<char> >[34][56]*, double*[34][56][78]*)
FUNC 6be0 3 0 test_array_empty_struct(Empty*, Empty[]*, Empty[][]*, Empty[][][]*)
FUNC 6bf0 4 0 A::A()
FUNC 6c00 4 0 A::A(A&&)
FUNC 6c10 1 0 A::~A()
FUNC 6c20 1 0 A::meth1(int)
FUNC 6c30 1 0 A::meth1(double)
FUNC 6c40 1 0 A::meth1(short, signed char)
FUNC 6c50 1 0 A::meth2(int)
FUNC 6c60 4 0 A::meth2(double)
FUNC 6c70 1 0 A::meth2(short, signed char)
FUNC 6c80 4 0 A::meth4(A*, A::B&&)
FUNC 9390 5 0 operator delete(void*, unsigned long long)
FUNC 9398 50 0 dllmain_crt_dispatch(HINSTANCE__* const, const unsigned long, void* const)
FUNC 93fc 119 0 dllmain_crt_process_attach(HINSTANCE__* const, void* const)
FUNC 955c 8e 0 dllmain_crt_process_detach(const bool)
FUNC 9610 133 0 dllmain_dispatch(HINSTANCE__* const, const unsigned long, void* const)
FUNC 9790 19 0 dllmain_raw(HINSTANCE__* const, const unsigned long, void* const)
FUNC 97b0 5 0 _CRT_INIT(HINSTANCE__* const, const unsigned long, void* const)
FUNC 97b8 3d 0 _DllMainCRTStartup(HINSTANCE__* const, const unsigned long, void* const)
FUNC 9804 5 0 operator delete(void*)
FUNC 980c 6b 0 __get_entropy()
FUNC 9894 ac 0 __security_init_cookie()
FUNC 996c 6 0 DllMain(HINSTANCE__*, unsigned long, void*)
FUNC 9974 e 0 __scrt_initialize_type_info()
FUNC 9988 c 0 __scrt_uninitialize_type_info()
FUNC 9998 8 0 __local_stdio_printf_options()
FUNC 99a4 8 0 __local_stdio_scanf_options()
FUNC 99b0 1b 0 __scrt_initialize_default_local_stdio_options()
FUNC 99d4 16 0 __crt_fast_decode_pointer<void (__cdecl**)(void)>(void (** const)())
FUNC 99f0 1e 0 __crt_fast_encode_pointer<void (__cdecl**)(void)>(void (** const)())
FUNC 9a18 9 0 __crt_rotate_pointer_value(const unsigned long long, const int)
FUNC 9a24 14 0 __scrt_narrow_argv_policy::configure_argv()
FUNC 9a40 49 0 find_pe_section(unsigned char* const, const unsigned long long)
FUNC 9a9c 5 0 __scrt_narrow_environment_policy::initialize_environment()
FUNC 9aa4 2f 0 is_potentially_valid_image_base(void* const)
FUNC 9ae0 a 0 NtCurrentTeb()
FUNC 9aec 39 0 __scrt_acquire_startup_lock()
FUNC 9b34 34 0 __scrt_dllmain_after_initialize_c()
FUNC 9b78 15 0 __scrt_dllmain_before_initialize_c()
FUNC 9b94 28 0 __scrt_dllmain_crt_thread_attach()
FUNC 9bc8 15 0 __scrt_dllmain_crt_thread_detach()
FUNC 9be4 60 0 __scrt_dllmain_exception_filter(HINSTANCE__*, unsigned long, void*, int (*)(HINSTANCE__*, unsigned long, void*), unsigned long, _EXCEPTION_POINTERS*)
FUNC 9c5c 30 0 __scrt_dllmain_uninitialize_c()
FUNC 9c98 14 0 __scrt_dllmain_uninitialize_critical()
FUNC 9cb4 49 0 __scrt_initialize_crt(__scrt_module_type)
FUNC 9d10 d8 0 __scrt_initialize_onexit_tables(__scrt_module_type)
FUNC 9e20 99 0 __scrt_is_nonwritable_in_current_image(void const*)
FUNC 9ee0 24 0 __scrt_release_startup_lock(bool)
FUNC 9f10 2b 0 __scrt_uninitialize_crt(bool, bool)
FUNC 9f48 4f 0 _onexit(int (*)())
FUNC 9fac 36 0 at_quick_exit(void (*)())
FUNC 9ff0 17 0 atexit(void (*)())
FUNC a00c 8 0 __scrt_get_dyn_tls_init_callback(<NoType>)
FUNC a018 8 0 __crt_debugger_hook(int)
FUNC a024 14a 0 __scrt_fastfail(unsigned int)
FUNC a1c0 3a 0 __scrt_get_show_window_mode()
FUNC a208 5 0 __scrt_initialize_mta()
FUNC a210 3 0 __scrt_initialize_winrt()
FUNC a214 52 0 __scrt_is_managed_app()
FUNC a27c e 0 __scrt_set_unhandled_exception_filter()
FUNC a290 3 0 __scrt_stub_for_initialize_mta()
FUNC a294 38 0 __scrt_unhandled_exception_filter(_EXCEPTION_POINTERS* const)
FUNC a2dc 3c 0 _RTC_Initialize()
FUNC a328 3c 0 _RTC_Terminate()
FUNC a374 3 0 _guard_check_icall_nop(unsigned long long)
FUNC a378 4 0 ReadNoFence64(long long const*)
FUNC a37c 4 0 ReadPointerNoFence(void* const*)
FUNC a380 17 0 _guard_icall_checks_enforced()
FUNC a39c 3 0 _guard_rf_checks_enforced()
FUNC a3a0 1b9 0 __isa_available_init(<NoType>)
FUNC a5c8 6 0 _get_startup_argv_mode()
FUNC a5d0 c 0 __scrt_is_ucrt_dll_in_use(<NoType>)
PUBLIC a5e0 0 QueryPerformanceCounter
PUBLIC a5e6 0 GetCurrentProcessId
PUBLIC a5ec 0 GetCurrentThreadId
PUBLIC a5f2 0 GetSystemTimeAsFileTime
PUBLIC a5f8 0 InitializeSListHead
PUBLIC a5fe 0 RtlCaptureContext
PUBLIC a604 0 RtlLookupFunctionEntry
PUBLIC a60a 0 RtlVirtualUnwind
PUBLIC a610 0 IsDebuggerPresent
PUBLIC a616 0 UnhandledExceptionFilter
PUBLIC a61c 0 SetUnhandledExceptionFilter
PUBLIC a622 0 GetStartupInfoW
PUBLIC a628 0 IsProcessorFeaturePresent
PUBLIC a62e 0 GetModuleHandleW
FUNC a634 20b 0 __C_specific_handler(_EXCEPTION_RECORD*, void*, _CONTEXT*, _DISPATCHER_CONTEXT*)
FUNC a8c4 5 0 <lambda_02a71323d951a238fa4826e9f186893b>::<lambda_invoker_cdecl>(void* const)
FUNC a8cc 5 0 <lambda_ab747d7d039e86ead2ea2c584b0f6318>::<lambda_invoker_cdecl>(const unsigned long long)
FUNC a8d4 8 0 __crt_internal_free_policy::operator()<char>(char const* const) const
FUNC a8e0 8 0 __crt_internal_free_policy::operator()<void>(void const* const) const
FUNC a8ec 9 0 __crt_interlocked_compare_exchange_pointer<char const ,char *,std::nullptr_t>(char const* const*, char* const, void const*)
FUNC a8f8 4 0 __crt_interlocked_read_pointer<char const >(char const* const*)
FUNC a8fc 7 0 __crt_unique_heap_ptr<char,__crt_internal_free_policy>::__crt_unique_heap_ptr<char,__crt_internal_free_policy>(char* const)
FUNC a904 7 0 __crt_unique_heap_ptr<void,__crt_internal_free_policy>::__crt_unique_heap_ptr<void,__crt_internal_free_policy>(void* const)
FUNC a90c 1b 0 __crt_unique_heap_ptr<char,__crt_internal_free_policy>::~__crt_unique_heap_ptr<char,__crt_internal_free_policy>()
FUNC a930 1b 0 __crt_unique_heap_ptr<void,__crt_internal_free_policy>::~__crt_unique_heap_ptr<void,__crt_internal_free_policy>()
FUNC a954 8 0 <lambda_02a71323d951a238fa4826e9f186893b>::operator void (__cdecl*)(void * const)() const
FUNC a960 8 0 <lambda_ab747d7d039e86ead2ea2c584b0f6318>::operator void * (__cdecl*)(unsigned __int64)() const
FUNC a96c 8 0 __crt_unique_heap_ptr<char,__crt_internal_free_policy>::operator bool() const
FUNC a978 8 0 __crt_unique_heap_ptr<void,__crt_internal_free_policy>::operator bool() const
FUNC a984 8 0 <lambda_02a71323d951a238fa4826e9f186893b>::operator()(void* const) const
FUNC a990 8 0 <lambda_ab747d7d039e86ead2ea2c584b0f6318>::operator()(const unsigned long long) const
FUNC a99c 4 0 __crt_interlocked_read_64(long long const*)
FUNC a9a0 8 0 __crt_unique_heap_ptr<void,__crt_internal_free_policy>::detach()
FUNC a9ac 4 0 __crt_unique_heap_ptr<char,__crt_internal_free_policy>::get() const
FUNC a9b0 4 0 __crt_unique_heap_ptr<void,__crt_internal_free_policy>::get() const
FUNC a9b4 8 0 __crt_unique_heap_ptr<char,__crt_internal_free_policy>::is_valid() const
FUNC a9c0 8 0 __crt_unique_heap_ptr<void,__crt_internal_free_policy>::is_valid() const
FUNC a9cc 1b 0 __crt_unique_heap_ptr<char,__crt_internal_free_policy>::release()
FUNC a9f0 1b 0 __crt_unique_heap_ptr<void,__crt_internal_free_policy>::release()
FUNC aa14 27 0 __std_type_info_compare(__std_type_info_data const*, __std_type_info_data const*)
FUNC aa44 2a 0 __std_type_info_destroy_list(__type_info_node*)
FUNC aa78 3b 0 __std_type_info_hash(__std_type_info_data const*)
FUNC aac4 11c 0 __std_type_info_name(__std_type_info_data*, __type_info_node*)
FUNC ac28 32 0 __vcrt_initialize()
FUNC ac68 14 0 __vcrt_thread_attach()
FUNC ac84 12 0 __vcrt_thread_detach()
FUNC ac9c 20 0 __vcrt_uninitialize(bool)
FUNC acc4 10 0 __vcrt_uninitialize_critical()
FUNC acd8 3 0 init_memcpy_functions()
FUNC acf0 10 0 memset_repmovs()
FUNC ad10 190 0 memset()
FUNC af20 18 0 _NLG_Notify()
FUNC af40 1 0 __NLG_Dispatch2()
FUNC af50 1 0 __NLG_Return2()
FUNC af64 5 0 __except_get_jumpbuf_sp(_SETJMP_FLOAT128*)
FUNC af6c 37 0 __except_validate_context_record(_CONTEXT*)
FUNC afb0 3f 0 __except_validate_jump_buffer(_SETJMP_FLOAT128*)
FUNC b000 5b 0 __except_validate_jump_buffer_common(_SETJMP_FLOAT128*, void* (*)(_SETJMP_FLOAT128*))
FUNC b074 71 0 __DestructExceptionObject(EHExceptionRecord*, unsigned char)
FUNC b104 3 0 _CallMemberFunction0(void* const, void* const)
FUNC b108 5 0 type_info::raw_name() const
FUNC b110 2f 0 _IsExceptionObjectToBeDestroyed(void*)
FUNC b14c 8 0 _SetWinRTOutOfMemoryExceptionCallback(void* (*)())
FUNC b158 23 0 __AdjustPointer(void*, PMD const&)
FUNC b184 4a 0 __FrameUnwindFilter(_EXCEPTION_POINTERS*)
FUNC b1e0 5b 0 __GetPlatformExceptionInfo(int*)
FUNC b254 12 0 __current_exception()
FUNC b26c 12 0 __current_exception_context()
FUNC b284 12 0 __processing_throw()
FUNC b29c a 0 __std_terminate()
FUNC b2a8 a5 0 _is_exception_typeof(type_info const&, _EXCEPTION_POINTERS*)
FUNC b378 8 0 _HeapManager::Block::Block()
FUNC b384 cc 0 DName::DName(char const*&, char)
FUNC b484 10 0 DName::DName(DName const&)
FUNC b498 31 0 DName::DName(char)
FUNC b4d8 84 0 DName::DName(DName*)
FUNC b580 40 0 DName::DName(char const*)
FUNC b5d0 2d 0 DName::DName(DNameStatus)
FUNC b608 c 0 DName::DName()
FUNC b618 a6 0 DName::DName(long long)
FUNC b6e8 88 0 DName::DName(unsigned long long)
FUNC b794 e 0 DNameNode::DNameNode()
FUNC b7a8 7 0 Replicator::Replicator()
FUNC b7b0 a 0 `UnDecorator::getDecoratedName'::`2'::TrackRecursion::TrackRecursion()
FUNC b7bc 50 0 UnDecorator::UnDecorator(char const*, char* (*)(long), unsigned long)
FUNC b820 11 0 charNode::charNode(char)
FUNC b838 26 0 pDNameNode::pDNameNode(DName*)
FUNC b868 1a 0 pairNode::pairNode(DNameNode const*, DNameNode const*)
FUNC b888 88 0 pcharNode::pcharNode(char const*, int)
FUNC b934 7 0 `UnDecorator::getDecoratedName'::`2'::TrackRecursion::~TrackRecursion()
FUNC b93c f 0 operator new(unsigned long long, _HeapManager&, int)
FUNC b950 10 0 DName::operator=(DName const&)
FUNC b964 31 0 DName::operator=(char)
FUNC b9a4 7e 0 DName::operator=(DName*)
FUNC ba44 36 0 DName::operator=(char const*)
FUNC ba88 1f 0 DName::operator=(DNameStatus)
FUNC bab0 40 0 Replicator::operator[](int) const
FUNC bb00 36 0 operator+(char, DName const&)
FUNC bb44 36 0 operator+(char const*, DName const&)
FUNC bb88 49 0 operator+(DNameStatus, DName const&)
FUNC bbe4 29 0 DName::operator+(DName const&) const
FUNC bc18 29 0 DName::operator+(char) const
FUNC bc4c 29 0 DName::operator+(DName*) const
FUNC bc80 29 0 DName::operator+(char const*) const
FUNC bcb4 29 0 DName::operator+(DNameStatus) const
FUNC bce8 44 0 DName::operator+=(DName const&)
FUNC bd40 7d 0 DName::operator+=(char)
FUNC bddc 95 0 DName::operator+=(DName*)
FUNC be98 8a 0 DName::operator+=(char const*)
FUNC bf44 6b 0 DName::operator+=(DNameStatus)
FUNC bfcc 67 0 Replicator::operator+=(DName const&)
FUNC c04c 14 0 DName::operator|=(DName const&)
FUNC c068 16 0 _HeapManager::Constructor(void* (*)(unsigned long long), void (*)(void*))
FUNC c084 42 0 _HeapManager::Destructor()
FUNC c0d8 20 0 UnDecorator::UScore(Tokens)
FUNC c100 63 0 DName::append(DNameNode const*)
FUNC c17c db3 0 UnDecorator::composeDeclaration(DName const&)
FUNC d29c f 0 UnDecorator::doAccessSpecifiers()
FUNC d2b0 f 0 UnDecorator::doAllocationLanguage()
FUNC d2c4 f 0 UnDecorator::doAllocationModel()
FUNC d2d8 f 0 UnDecorator::doEcsu()
FUNC d2ec f 0 UnDecorator::doEllipsis()
FUNC d300 f 0 UnDecorator::doFunctionReturns()
FUNC d314 e 0 UnDecorator::doMSKeywords()
FUNC d328 f 0 UnDecorator::doMemberTypes()
FUNC d33c c 0 UnDecorator::doNameOnly()
FUNC d34c c 0 UnDecorator::doNoIdentCharCheck()
FUNC d35c a6 0 DName::doPchar(char const*, int)
FUNC d42c f 0 UnDecorator::doPtr64()
FUNC d440 f 0 UnDecorator::doRestrictionSpec()
FUNC d454 12 0 UnDecorator::doThisTypes()
FUNC d46c f 0 UnDecorator::doThrowTypes()
FUNC d480 c 0 UnDecorator::doTypeOnly()
FUNC d490 c 0 UnDecorator::doUnderScore()
FUNC d4a0 12b 0 UnDecorator::getArgumentList()
FUNC d618 f3 0 UnDecorator::getArgumentTypes()
FUNC d748 253 0 UnDecorator::getArrayType(DName const&)
FUNC da30 c8 0 UnDecorator::getBasedType()
FUNC db2c 468 0 UnDecorator::getBasicDataType(DName const&)
FUNC e0b0 11d 0 UnDecorator::getCHPEName(char*, int)
FUNC e214 19 0 UnDecorator::getCallIndex()
FUNC e234 13e 0 UnDecorator::getCallingConvention()
FUNC e3c4 7b8 0 UnDecorator::getDataIndirectType(DName const&, char const*, DName const&, int)
FUNC ed6c 3e 0 UnDecorator::getDataIndirectType()
FUNC edbc e6 0 UnDecorator::getDataType(DName*)
FUNC eedc 2a8 0 UnDecorator::getDecoratedName()
FUNC f230 179 0 UnDecorator::getDimension(bool)
FUNC f408 4c 0 UnDecorator::getDispatchTarget()
FUNC f468 19 0 UnDecorator::getDisplacement()
FUNC f488 160 0 UnDecorator::getECSUDataType()
FUNC f640 17 0 UnDecorator::getECSUName()
FUNC f65c fc 0 UnDecorator::getEnumType()
FUNC f798 214 0 UnDecorator::getExtendedDataIndirectType(char const*&, bool&, int)
FUNC fa34 c6 0 UnDecorator::getExternalDataType(DName const&)
FUNC fb2c 556 0 UnDecorator::getFunctionIndirectType(DName const&)
FUNC 101d8 19 0 UnDecorator::getGuardNumber()
FUNC 101f8 19 0 DName::getLastChar() const
FUNC 10218 c 0 DNameStatusNode::getLastChar() const
FUNC 10228 4 0 charNode::getLastChar() const
FUNC 1022c 29 0 pDNameNode::getLastChar() const
FUNC 10260 35 0 pairNode::getLastChar() const
FUNC 102a4 14 0 pcharNode::getLastChar() const
FUNC 102c0 71 0 UnDecorator::getLexicalFrame()
FUNC 10350 a9 0 _HeapManager::getMemory(unsigned long long, int)
FUNC 10424 45 0 UnDecorator::getNoexcept()
FUNC 1047c 73 0 UnDecorator::getNumberOfDimensions()
FUNC 1050c 76d 0 UnDecorator::getOperatorName(bool, bool*)
FUNC 10e54 1e 0 UnDecorator::getPointerType(DName const&, DName const&)
FUNC 10e7c 1e 0 UnDecorator::getPointerTypeArray(DName const&, DName const&)
FUNC 10ea4 24d 0 UnDecorator::getPrimaryDataType(DName const&)
FUNC 11184 162 0 UnDecorator::getPtrRefDataType(DName const&, int)
FUNC 11340 136 0 UnDecorator::getPtrRefType(DName const&, DName const&, char const*)
FUNC 114c4 17 0 UnDecorator::getReferenceType(DName const&, DName const&, char const*)
FUNC 114e0 13d 0 UnDecorator::getRestrictionSpec()
FUNC 1166c 34 0 UnDecorator::getReturnType(DName*)
FUNC 116b0 478 0 UnDecorator::getScope()
FUNC 11c48 103 0 UnDecorator::getScopedName()
FUNC 11d8c 94 0 UnDecorator::getSignedDimension()
FUNC 11e48 3e 0 UnDecorator::getStorageConvention()
FUNC 11e98 1a 0 DName::getString(char*, char*) const
FUNC 11eb8 94 0 DName::getString(char*, int) const
FUNC 11f74 46 0 DNameStatusNode::getString(char*, char*) const
FUNC 11fcc 11 0 charNode::getString(char*, char*) const
FUNC 11fe4 2d 0 pDNameNode::getString(char*, char*) const
FUNC 1201c 4b 0 pairNode::getString(char*, char*) const
FUNC 1207c 36 0 pcharNode::getString(char*, char*) const
FUNC 120c0 d0 0 UnDecorator::getStringEncoding(char const*, int)
FUNC 121c4 2d 0 getStringHelper(char*, char const*, char const*, int)
FUNC 121fc 4c 0 UnDecorator::getSymbolName()
FUNC 1225c 31a 0 UnDecorator::getTemplateArgumentList()
FUNC 1263c 3a0 0 UnDecorator::getTemplateConstant()
FUNC 12ac4 1fa 0 UnDecorator::getTemplateName(bool)
FUNC 12d3c 42 0 UnDecorator::getThisType()
FUNC 12d90 23 0 UnDecorator::getThrowTypes()
FUNC 12dbc 35e 0 UnDecorator::getTypeEncoding()
FUNC 131f4 109 0 UnDecorator::getUndecoratedName(char*, int)
FUNC 13340 58 0 UnDecorator::getVCallThunkType()
FUNC 133b0 17 0 UnDecorator::getVbTableType(DName const&)
FUNC 133cc 5f 0 UnDecorator::getVdispMapType(DName const&)
FUNC 13444 1fd 0 UnDecorator::getVfTableType(DName const&)
FUNC 136c0 2d9 0 UnDecorator::getZName(bool, bool)
FUNC 13a50 c 0 UnDecorator::haveTemplateParameters()
FUNC 13a60 a 0 DName::isArray() const
FUNC 13a6c a 0 DName::isComArray() const
FUNC 13a78 9 0 DName::isEmpty() const
FUNC 13a84 9 0 Replicator::isFull() const
FUNC 13a90 a 0 DName::isNoTE() const
FUNC 13a9c a 0 DName::isPinPtr() const
FUNC 13aa8 a 0 DName::isPtrRef() const
FUNC 13ab4 16 0 DName::isUDC() const
FUNC 13ad0 16 0 DName::isUDTThunk() const
FUNC 13aec a 0 DName::isVCallThunk() const
FUNC 13af8 a 0 DName::isValid() const
FUNC 13b04 18 0 DName::length() const
FUNC 13b24 4 0 DNameStatusNode::length() const
FUNC 13b28 6 0 charNode::length() const
FUNC 13b30 28 0 pDNameNode::length() const
FUNC 13b64 53 0 pairNode::length() const
FUNC 13bcc 4 0 pcharNode::length() const
FUNC 13bd0 1f 0 DNameStatusNode::make(DNameStatus)
FUNC 13bf8 f5 0 UnDecorator::parseDecoratedName()
FUNC 13d2c 6 0 DName::setIsArray()
FUNC 13d34 6 0 DName::setIsComArray()
FUNC 13d3c 6 0 DName::setIsNoTE()
FUNC 13d44 6 0 DName::setIsPinPtr()
FUNC 13d4c c 0 DName::setIsUDC()
FUNC 13d5c 6 0 DName::setIsVCallThunk()
FUNC 13d64 9 0 DName::setPtrRef()
FUNC 13d70 5 0 DName::status() const
FUNC 13d78 1a 0 und_memcpy(char*, char const*, unsigned int)
FUNC 13d98 11 0 und_strlen(char const*)
FUNC 13db0 2c 0 und_strncmp(char const*, char const*, unsigned int)
FUNC 13de8 27 0 __unDName(char*, char const*, int, void* (*)(unsigned long long), void (*)(void*), unsigned short)
FUNC 13e18 132 0 __unDNameEx(char*, char const*, int, void* (*)(unsigned long long), void (*)(void*), char* (*)(long), unsigned long)
FUNC 13f98 62 0 _vsprintf_s_l(char* const, const unsigned long long, char const* const, __crt_locale_pointers* const, char*)
FUNC 14014 52 0 sprintf_s(char* const, const unsigned long long, char const* const, <NoType>)
FUNC 1407c 106 0 unDNameGenerateCHPE(char*, char const*, int, void* (*)(unsigned long long), void (*)(void*), unsigned long)
FUNC 141c4 8 0 __crt_internal_free_policy::operator()<__vcrt_ptd>(__vcrt_ptd const* const) const
FUNC 141d0 7 0 __crt_unique_heap_ptr<__vcrt_ptd,__crt_internal_free_policy>::__crt_unique_heap_ptr<__vcrt_ptd,__crt_internal_free_policy>(__vcrt_ptd* const)
FUNC 141d8 1a 0 (anonymous namespace)::scoped_get_last_error_reset::scoped_get_last_error_reset()
FUNC 141f8 1b 0 __crt_unique_heap_ptr<__vcrt_ptd,__crt_internal_free_policy>::~__crt_unique_heap_ptr<__vcrt_ptd,__crt_internal_free_policy>()
FUNC 1421c 9 0 (anonymous namespace)::scoped_get_last_error_reset::~scoped_get_last_error_reset()
FUNC 14228 8 0 __crt_unique_heap_ptr<__vcrt_ptd,__crt_internal_free_policy>::operator bool() const
FUNC 14234 8 0 __crt_unique_heap_ptr<__vcrt_ptd,__crt_internal_free_policy>::detach()
FUNC 14240 4 0 __crt_unique_heap_ptr<__vcrt_ptd,__crt_internal_free_policy>::get() const
FUNC 14244 8 0 __crt_unique_heap_ptr<__vcrt_ptd,__crt_internal_free_policy>::is_valid() const
FUNC 14250 1b 0 __crt_unique_heap_ptr<__vcrt_ptd,__crt_internal_free_policy>::release()
FUNC 14274 34 0 store_and_initialize_ptd(__vcrt_ptd* const)
FUNC 142b8 1f 0 __vcrt_freefls(void*)
FUNC 142e0 4d 0 __vcrt_freeptd(__vcrt_ptd*)
FUNC 14340 19 0 __vcrt_getptd()
FUNC 14360 cb 0 __vcrt_getptd_noexit()
FUNC 14460 4d 0 __vcrt_getptd_noinit()
FUNC 144c0 51 0 __vcrt_initialize_ptd()
FUNC 14528 22 0 __vcrt_uninitialize_ptd()
FUNC 14554 46 0 __vcrt_initialize_locks()
FUNC 145ac 19 0 __vcrt_lock(__vcrt_lock_id)
FUNC 145cc 37 0 __vcrt_uninitialize_locks()
FUNC 14610 19 0 __vcrt_unlock(__vcrt_lock_id)
FUNC 14630 8 0 __crt_fast_encoded_nullptr_t::operator<void> void *() const
FUNC 1463c 16 0 __crt_fast_decode_pointer<void *>(void* const)
FUNC 14658 1e 0 __crt_fast_encode_pointer<void *>(void* const)
FUNC 14680 7 0 __crt_interlocked_exchange_pointer<HINSTANCE__,HINSTANCE__ *>(HINSTANCE__* const*, HINSTANCE__* const)
FUNC 14688 7 0 __crt_interlocked_exchange_pointer<HINSTANCE__,void *>(HINSTANCE__* const*, void* const)
FUNC 14690 7 0 __crt_interlocked_exchange_pointer<void,void *>(void* const*, void* const)
FUNC 14698 4 0 __crt_interlocked_read_pointer<HINSTANCE__>(HINSTANCE__* const*)
FUNC 1469c 4 0 __crt_interlocked_read_pointer<void>(void* const*)
FUNC 146a0 5 0 __crt_fast_encode_pointer(void*)
FUNC 146a8 5 0 invalid_function_sentinel()
FUNC 146b0 1c 0 try_get_FlsAlloc()
FUNC 146d4 1f 0 try_get_FlsFree()
FUNC 146fc 1f 0 try_get_FlsGetValue()
FUNC 14724 1f 0 try_get_FlsSetValue()
FUNC 1474c 1f 0 try_get_InitializeCriticalSectionEx()
FUNC 14774 119 0 try_get_first_available_module(`anonymous-namespace'::module_id const* const, `anonymous-namespace'::module_id const* const)
FUNC 148d4 1d6 0 try_get_function(const `anonymous-namespace'::function_id, char const* const, `anonymous-namespace'::module_id const* const, `anonymous-namespace'::module_id const* const)
FUNC 14b20 fe 0 try_get_module(const `anonymous-namespace'::module_id)
FUNC 14c60 137 0 try_get_proc_address_from_first_available_module(char const* const, `anonymous-namespace'::module_id const* const, `anonymous-namespace'::module_id const* const)
FUNC 14de4 73 0 try_load_library_from_system_directory(wchar_t const* const)
FUNC 14e74 45 0 __vcrt_FlsAlloc(void (*)(void*))
FUNC 14ecc 46 0 __vcrt_FlsFree(unsigned long)
FUNC 14f24 46 0 __vcrt_FlsGetValue(unsigned long)
FUNC 14f7c 51 0 __vcrt_FlsSetValue(unsigned long, void*)
FUNC 14fe4 61 0 __vcrt_InitializeCriticalSectionEx(_RTL_CRITICAL_SECTION*, unsigned long, unsigned long)
FUNC 15060 2f 0 __vcrt_initialize_winapi_thunks()
FUNC 1509c 3e 0 __vcrt_uninitialize_winapi_thunks(bool)
FUNC 150ec 8 0 __crt_fast_encoded_nullptr_t::operator<void __cdecl(void)> void (__cdecl*)(void)() const
FUNC 150f8 1e 0 __crt_fast_encode_pointer<void (__cdecl*)(void)>(void (* const)())
FUNC 15120 f 0 __vcrt_initialize_pure_virtual_call_handler()
FUNC 15134 16 0 __crt_fast_decode_pointer<void (__cdecl*)(void)>(void (* const)())
FUNC 15150 7 0 __crt_interlocked_exchange_pointer<void __cdecl(void),void (__cdecl*)(void)>(void (* const*)(), void (* const)())
FUNC 15158 4 0 __crt_interlocked_read_pointer<void __cdecl(void)>(void (* const*)())
FUNC 1515c 1a 0 _get_purecall_handler()
FUNC 1517c 2e 0 _purecall()
FUNC 151b8 37 0 _set_purecall_handler(void (*)())
FUNC 151fc 14 0 std::pair<__FrameHandler3::TryBlockMap::iterator,__FrameHandler3::TryBlockMap::iterator>::pair<__FrameHandler3::TryBlockMap::iterator,__FrameHandler3::TryBlockMap::iterator><__FrameHandler3::TryBlockMap::iterator &,__FrameHandler3::TryBlockMap::iterator &,0>(__FrameHandler3::TryBlockMap::iterator&, __FrameHandler3::TryBlockMap::iterator&)
FUNC 15218 14 0 std::pair<__FrameHandler4::TryBlockMap::iterator,__FrameHandler4::TryBlockMap::iterator>::pair<__FrameHandler4::TryBlockMap::iterator,__FrameHandler4::TryBlockMap::iterator><__FrameHandler4::TryBlockMap::iterator &,__FrameHandler4::TryBlockMap::iterator &,0>(__FrameHandler4::TryBlockMap::iterator&, __FrameHandler4::TryBlockMap::iterator&)
FUNC 15234 95 0 SehTransFilter<__FrameHandler3>(_EXCEPTION_POINTERS*, EHExceptionRecord*, unsigned long long*, _CONTEXT*, _xDISPATCHER_CONTEXT*, _s_FuncInfo const*, int*)
FUNC 152f0 95 0 SehTransFilter<__FrameHandler4>(_EXCEPTION_POINTERS*, EHExceptionRecord*, unsigned long long*, _CONTEXT*, _xDISPATCHER_CONTEXT*, FuncInfo4*, int*)
FUNC 153ac 51 0 _CallSETranslator<__FrameHandler3>(EHExceptionRecord*, unsigned long long*, _CONTEXT*, _xDISPATCHER_CONTEXT*, _s_FuncInfo const*, unsigned long, unsigned long long*)
FUNC 15414 51 0 _CallSETranslator<__FrameHandler4>(EHExceptionRecord*, unsigned long long*, _CONTEXT*, _xDISPATCHER_CONTEXT*, FuncInfo4*, unsigned long, unsigned long long*)
FUNC 1547c 4 0 std::forward<__FrameHandler3::TryBlockMap::iterator &>(__FrameHandler3::TryBlockMap::iterator&)
FUNC 15480 4 0 std::forward<__FrameHandler4::TryBlockMap::iterator &>(__FrameHandler4::TryBlockMap::iterator&)
FUNC 15484 13 0 FuncInfo4::FuncInfo4()
FUNC 1549c b 0 __FrameHandler3::TryBlockMap::iterator::iterator(__FrameHandler3::TryBlockMap&, unsigned int)
FUNC 154ac b 0 __FrameHandler4::TryBlockMap::iterator::iterator(__FrameHandler4::TryBlockMap&, unsigned int)
FUNC 154bc a 0 __FrameHandler4::TryBlockMap::iterator::operator=(__FrameHandler4::TryBlockMap::iterator const&)
FUNC 154c8 a 0 __FrameHandler4::TryBlockMap::iterator::operator!=(__FrameHandler4::TryBlockMap::iterator const&) const
FUNC 154d4 8 0 __FrameHandler4::TryBlockMap::iterator::operator*()
FUNC 154e0 a8 0 __FrameHandler4::TryBlockMap::iterator::operator++()
FUNC 155b4 56 0 __FrameHandler3::CatchTryBlock(_s_FuncInfo const*, int)
FUNC 15620 94 0 DecompFuncInfo(unsigned char*, FuncInfo4&)
FUNC 156dc 9e 0 __FrameHandler4::TryBlockMap::DecompTryBlock()
FUNC 157a4 2a 0 __FrameHandler3::ExecutionInCatch(_xDISPATCHER_CONTEXT*, _s_FuncInfo const*)
FUNC 157d8 a 0 __FrameHandler4::ExecutionInCatch(_xDISPATCHER_CONTEXT*, FuncInfo4*)
FUNC 157e4 64 0 __FrameHandler3::FrameUnwindToEmptyState(unsigned long long*, _xDISPATCHER_CONTEXT*, _s_FuncInfo const*)
FUNC 15864 35 0 __FrameHandler4::FrameUnwindToEmptyState(unsigned long long*, _xDISPATCHER_CONTEXT*, FuncInfo4*)
FUNC 158a8 c9 0 __FrameHandler3::GetEstablisherFrame(unsigned long long*, _xDISPATCHER_CONTEXT*, _s_FuncInfo const*, unsigned long long*)
FUNC 159a4 24 0 __FrameHandler4::GetEstablisherFrame(unsigned long long*, _xDISPATCHER_CONTEXT*, FuncInfo4*, unsigned long long*)
FUNC 159d4 159 0 __FrameHandler3::GetRangeOfTrysToCheck(__FrameHandler3::TryBlockMap&, int, int)
FUNC 15b84 d3 0 __FrameHandler4::GetRangeOfTrysToCheck(__FrameHandler4::TryBlockMap&, int, int)
FUNC 15c8c d 0 ReadInt(unsigned char**)
FUNC 15c9c 30 0 ReadUnsigned(unsigned char**)
FUNC 15cd8 121 0 __FrameHandler3::UnwindNestedFrames(unsigned long long*, EHExceptionRecord*, _CONTEXT*, unsigned long long*, void*, _s_FuncInfo const*, int, int, _s_HandlerType const*, _xDISPATCHER_CONTEXT*, unsigned char)
FUNC 15e44 170 0 __FrameHandler4::UnwindNestedFrames(unsigned long long*, EHExceptionRecord*, _CONTEXT*, unsigned long long*, void*, FuncInfo4*, int, int, HandlerType4*, _xDISPATCHER_CONTEXT*, unsigned char)
FUNC 16010 10 0 __FuncToImageRelOffset(_xDISPATCHER_CONTEXT*, unsigned int)
FUNC 16024 b 0 __FrameHandler4::TryBlockMap::begin()
FUNC 16034 c 0 __FrameHandler4::TryBlockMap::end()
FUNC 16044 4 0 __FrameHandler3::TryBlockMap::getFuncInfo()
FUNC 16048 5 0 __FrameHandler3::TryBlockMap::getpDC()
FUNC 16050 4 0 __FrameHandler4::TryBlockMap::iterator::incrementToSentinel()
FUNC 16054 175 0 __FrameHandler4::TryBlockMap::setBuffer(__FrameHandler4::TryBlockMap::iterator)
FUNC 16228 3a 0 _CreateFrameInfo(FrameInfo*, void*)
FUNC 16270 53 0 _FindAndUnlinkFrame(FrameInfo*)
FUNC 162d8 12 0 _GetImageBase()
FUNC 162f0 12 0 _GetThrowImageBase()
FUNC 16308 18 0 _SetImageBase(unsigned long long)
FUNC 16328 18 0 _SetThrowImageBase(unsigned long long)
FUNC 16348 5 0 __CxxFrameHandler(EHExceptionRecord*, unsigned long long, _CONTEXT*, _xDISPATCHER_CONTEXT*)
FUNC 16350 5 0 __CxxFrameHandler2(EHExceptionRecord*, unsigned long long, _CONTEXT*, _xDISPATCHER_CONTEXT*)
FUNC 16358 7d 0 __CxxFrameHandler3(EHExceptionRecord*, unsigned long long, _CONTEXT*, _xDISPATCHER_CONTEXT*)
FUNC 163f4 a1 0 __CxxFrameHandler4(EHExceptionRecord*, unsigned long long, _CONTEXT*, _xDISPATCHER_CONTEXT*)
FUNC 164d0 13 0 memcpy_repmovs()
FUNC 164f0 435 0 memcpy()
FUNC 16a40 27 0 __FrameHandler3::GetCurrentState(unsigned long long*, _xDISPATCHER_CONTEXT*, _s_FuncInfo const*)
FUNC 16a70 29 0 __FrameHandler3::GetUnwindTryBlock(unsigned long long*, _xDISPATCHER_CONTEXT*, _s_FuncInfo const*)
FUNC 16aa4 c 0 __FrameHandler3::SetState(unsigned long long*, _s_FuncInfo const*, int)
FUNC 16ab4 3b 0 __FrameHandler3::SetUnwindTryBlock(unsigned long long*, _xDISPATCHER_CONTEXT*, _s_FuncInfo const*, int)
FUNC 16b00 8 0 __FrameHandler3::StateFromControlPc(_s_FuncInfo const*, _xDISPATCHER_CONTEXT*)
FUNC 16b0c 8 0 __FrameHandler4::StateFromControlPc(FuncInfo4*, _xDISPATCHER_CONTEXT*)
FUNC 16b18 66 0 __FrameHandler3::StateFromIp(_s_FuncInfo const*, _xDISPATCHER_CONTEXT*, unsigned long long)
FUNC 16b98 ed 0 __FrameHandler4::StateFromIp(FuncInfo4*, _xDISPATCHER_CONTEXT*, unsigned long long)
FUNC 16cc0 4 0 adjustIp(_xDISPATCHER_CONTEXT*, unsigned long long)
FUNC 16cc4 1fd 0 BuildCatchObjectHelperInternal<_s_HandlerType const >(EHExceptionRecord*, void*, _s_HandlerType const*, _s_CatchableType const*)
FUNC 16f40 201 0 BuildCatchObjectHelperInternal<HandlerType4>(EHExceptionRecord*, void*, HandlerType4*, _s_CatchableType const*)
FUNC 171c4 c0 0 BuildCatchObjectInternal<_s_HandlerType const >(EHExceptionRecord*, void*, _s_HandlerType const*, _s_CatchableType const*)
FUNC 172b4 c1 0 BuildCatchObjectInternal<HandlerType4>(EHExceptionRecord*, void*, HandlerType4*, _s_CatchableType const*)
FUNC 173a8 cd 0 CatchIt<__FrameHandler3>(EHExceptionRecord*, unsigned long long*, _CONTEXT*, _xDISPATCHER_CONTEXT*, _s_FuncInfo const*, _s_HandlerType const*, _s_CatchableType const*, _s_TryBlockMapEntry const*, int, unsigned long long*, unsigned char, unsigned char)
FUNC 174a8 cd 0 CatchIt<__FrameHandler4>(EHExceptionRecord*, unsigned long long*, _CONTEXT*, _xDISPATCHER_CONTEXT*, FuncInfo4*, HandlerType4*, _s_CatchableType const*, TryBlockMapEntry4*, int, unsigned long long*, unsigned char, unsigned char)
FUNC 175a8 461 0 FindHandler<__FrameHandler3>(EHExceptionRecord*, unsigned long long*, _CONTEXT*, _xDISPATCHER_CONTEXT*, _s_FuncInfo const*, unsigned char, int, unsigned long long*)
FUNC 17b24 400 0 FindHandler<__FrameHandler4>(EHExceptionRecord*, unsigned long long*, _CONTEXT*, _xDISPATCHER_CONTEXT*, FuncInfo4*, unsigned char, int, unsigned long long*)
FUNC 18024 22e 0 FindHandlerForForeignException<__FrameHandler3>(EHExceptionRecord*, unsigned long long*, _CONTEXT*, _xDISPATCHER_CONTEXT*, _s_FuncInfo const*, int, int, unsigned long long*)
FUNC 182e0 237 0 FindHandlerForForeignException<__FrameHandler4>(EHExceptionRecord*, unsigned long long*, _CONTEXT*, _xDISPATCHER_CONTEXT*, FuncInfo4*, int, int, unsigned long long*)
FUNC 185a4 141 0 TypeMatchHelper<_s_HandlerType const >(_s_HandlerType const*, _s_CatchableType const*, _s_ThrowInfo const*)
FUNC 18738 146 0 TypeMatchHelper<HandlerType4>(HandlerType4*, _s_CatchableType const*, _s_ThrowInfo const*)
FUNC 188d0 246 0 __InternalCxxFrameHandler<__FrameHandler3>(EHExceptionRecord*, unsigned long long*, _CONTEXT*, _xDISPATCHER_CONTEXT*, _s_FuncInfo const*, int, unsigned long long*, unsigned char)
FUNC 18ba8 29f 0 __InternalCxxFrameHandler<__FrameHandler4>(EHExceptionRecord*, unsigned long long*, _CONTEXT*, _xDISPATCHER_CONTEXT*, FuncInfo4*, int, unsigned long long*, unsigned char)
FUNC 18ef0 15 0 __FrameHandler3::HandlerMap::HandlerMap(_s_TryBlockMapEntry const*, _xDISPATCHER_CONTEXT*)
FUNC 18f0c 6b 0 __FrameHandler4::HandlerMap::HandlerMap(TryBlockMapEntry4*, _xDISPATCHER_CONTEXT*)
FUNC 18f94 14 0 HandlerType4::HandlerType4()
FUNC 18fb0 b 0 __FrameHandler3::TryBlockMap::TryBlockMap(_s_FuncInfo const*, _xDISPATCHER_CONTEXT*)
FUNC 18fc0 eb 0 __FrameHandler4::TryBlockMap::TryBlockMap(FuncInfo4*, _xDISPATCHER_CONTEXT*)
FUNC 190e8 38 0 UWMap::UWMap(unsigned char*)
FUNC 19130 3f 0 std::bad_exception::bad_exception(std::bad_exception const&)
FUNC 19180 1e 0 std::bad_exception::bad_exception()
FUNC 191a8 35 0 std::exception::exception(std::exception const&)
FUNC 191ec 17 0 std::exception::exception(char const* const, int)
FUNC 19208 b 0 __FrameHandler3::HandlerMap::iterator::iterator(__FrameHandler3::HandlerMap&, unsigned int)
FUNC 19218 b 0 __FrameHandler4::HandlerMap::iterator::iterator(__FrameHandler4::HandlerMap&, unsigned int)
FUNC 19228 b 0 UWMap::iterator::iterator(UWMap&, unsigned char*)
FUNC 19238 13 0 std::bad_exception::~bad_exception()
FUNC 19250 13 0 std::exception::~exception()
FUNC 19268 c 0 UWMap::iterator::operator=(UWMap::iterator const&)
FUNC 19278 a 0 __FrameHandler3::HandlerMap::iterator::operator==(__FrameHandler3::HandlerMap::iterator const&) const
FUNC 19284 a 0 __FrameHandler4::HandlerMap::iterator::operator==(__FrameHandler4::HandlerMap::iterator const&) const
FUNC 19290 1b 0 type_info::operator==(type_info const&) const
FUNC 192b4 a 0 __FrameHandler3::HandlerMap::iterator::operator!=(__FrameHandler3::HandlerMap::iterator const&) const
FUNC 192c0 a 0 __FrameHandler4::HandlerMap::iterator::operator!=(__FrameHandler4::HandlerMap::iterator const&) const
FUNC 192cc 13 0 __FrameHandler3::HandlerMap::iterator::operator*()
FUNC 192e4 8 0 __FrameHandler4::HandlerMap::iterator::operator*()
FUNC 192f0 1e 0 __FrameHandler3::TryBlockMap::iterator::operator*()
FUNC 19318 3c 0 UWMap::iterator::operator*()
FUNC 19364 7 0 __FrameHandler3::HandlerMap::iterator::operator++()
FUNC 1936c 1d 0 __FrameHandler4::HandlerMap::iterator::operator++()
FUNC 19390 7 0 __FrameHandler3::TryBlockMap::iterator::operator++()
FUNC 19398 4d 0 UWMap::iterator::operator++()
FUNC 193f8 9 0 UWMap::iterator::operator-(UWMap::iterator const&) const
FUNC 19404 a 0 __FrameHandler3::TryBlockMap::iterator::operator<(__FrameHandler3::TryBlockMap::iterator const&) const
FUNC 19410 a 0 __FrameHandler4::TryBlockMap::iterator::operator<(__FrameHandler4::TryBlockMap::iterator const&) const
FUNC 1941c c 0 UWMap::iterator::operator>(UWMap::iterator const&) const
FUNC 1942c c 0 UWMap::iterator::operator>=(UWMap::iterator const&) const
FUNC 1943c 42 0 std::bad_exception::`scalar deleting destructor'(unsigned int)
FUNC 19490 42 0 std::exception::`scalar deleting destructor'(unsigned int)
FUNC 194e4 5 0 __FrameHandler3::BuildCatchObject(EHExceptionRecord*, void*, _s_HandlerType const*, _s_CatchableType const*)
FUNC 194ec 5 0 __FrameHandler4::BuildCatchObject(EHExceptionRecord*, void*, HandlerType4*, _s_CatchableType const*)
FUNC 194f4 5 0 __FrameHandler3::BuildCatchObjectHelper(EHExceptionRecord*, void*, _s_HandlerType const*, _s_CatchableType const*)
FUNC 194fc 5 0 __FrameHandler4::BuildCatchObjectHelper(EHExceptionRecord*, void*, HandlerType4*, _s_CatchableType const*)
FUNC 19504 1ea 0 __FrameHandler3::CxxCallCatchBlock(_EXCEPTION_RECORD*)
FUNC 19768 240 0 __FrameHandler4::CxxCallCatchBlock(_EXCEPTION_RECORD*)
FUNC 19a38 147 0 __FrameHandler4::HandlerMap::DecompHandler()
FUNC 19bd0 87 0 ExFilterRethrow(_EXCEPTION_POINTERS*, EHExceptionRecord*, int*)
FUNC 19c78 193 0 __FrameHandler3::FrameUnwindToState(unsigned long long*, _xDISPATCHER_CONTEXT*, _s_FuncInfo const*, int)
FUNC 19e70 2d9 0 __FrameHandler4::FrameUnwindToState(unsigned long long*, _xDISPATCHER_CONTEXT*, FuncInfo4*, int)
FUNC 1a200 96 0 __FrameHandler3::GetHandlerSearchState(unsigned long long*, _xDISPATCHER_CONTEXT*, _s_FuncInfo const*)
FUNC 1a2bc 37 0 __FrameHandler4::GetHandlerSearchState(unsigned long long*, _xDISPATCHER_CONTEXT*, FuncInfo4*)
FUNC 1a300 4 0 __FrameHandler3::GetMaxState(_xDISPATCHER_CONTEXT*, _s_FuncInfo const*)
FUNC 1a304 38 0 __FrameHandler4::GetMaxState(_xDISPATCHER_CONTEXT*, FuncInfo4*)
FUNC 1a34c d6 0 IsInExceptionSpec(EHExceptionRecord*, _s_ESTypeList const*)
FUNC 1a458 91 0 Is_bad_exception_allowed(_s_ESTypeList const*)
FUNC 1a510 99 0 UWMap::ReadEntry()
FUNC 1a5d0 5 0 __FrameHandler3::TypeMatch(_s_HandlerType const*, _s_CatchableType const*, _s_ThrowInfo const*)
FUNC 1a5d8 5 0 __FrameHandler4::TypeMatch(HandlerType4*, _s_CatchableType const*, _s_ThrowInfo const*)
FUNC 1a5e0 2e 0 UWMap::WalkBack()
FUNC 1a61c 9 0 _CallMemberFunction1(void* const, void* const, void* const)
FUNC 1a628 f 0 _CallMemberFunction2(void* const, void* const, void* const, const int)
FUNC 1a63c 7 0 _ValidateExecute(long long (*)())
FUNC 1a644 7 0 _ValidateRead(void const*, unsigned int)
FUNC 1a64c 7 0 _ValidateWrite(void*, unsigned int)
FUNC 1a654 14 0 __RethrowException(EHExceptionRecord*)
FUNC 1a670 b 0 __FrameHandler3::HandlerMap::begin()
FUNC 1a680 b 0 __FrameHandler4::HandlerMap::begin()
FUNC 1a690 f 0 UWMap::begin()
FUNC 1a6a4 c 0 __FrameHandler3::HandlerMap::end()
FUNC 1a6b4 c 0 __FrameHandler4::HandlerMap::end()
FUNC 1a6c4 28 0 __FrameHandler3::getESTypes(_s_FuncInfo const*)
FUNC 1a6f8 3 0 __FrameHandler4::getESTypes(FuncInfo4*)
FUNC 1a6fc 13 0 __FrameHandler3::HandlerMap::getLastEntry()
FUNC 1a714 4e 0 __FrameHandler4::HandlerMap::getLastEntry()
FUNC 1a778 8 0 __FrameHandler3::getMagicNum(_s_FuncInfo const*)
FUNC 1a784 6 0 __FrameHandler4::getMagicNum(FuncInfo4*)
FUNC 1a78c 7 0 __FrameHandler3::TryBlockMap::getNumTryBlocks()
FUNC 1a794 3 0 __FrameHandler4::TryBlockMap::getNumTryBlocks()
FUNC 1a798 12 0 UWMap::getOffsetIter(long long)
FUNC 1a7b0 a1 0 UWMap::getStartStop(int, int, UWMap::iterator&, UWMap::iterator&)
FUNC 1a87c 86 0 UWMap::getStateIter(int)
FUNC 1a924 6 0 __FrameHandler3::isEHs(_s_FuncInfo const*)
FUNC 1a92c 8 0 __FrameHandler4::isEHs(FuncInfo4*)
FUNC 1a938 9 0 __FrameHandler3::isNoExcept(_s_FuncInfo const*)
FUNC 1a944 8 0 __FrameHandler4::isNoExcept(FuncInfo4*)
FUNC 1a950 11 0 HandlerType4::reset()
FUNC 1a968 d 0 __FrameHandler4::HandlerMap::resetBuffer()
FUNC 1a978 39 0 __FrameHandler4::HandlerMap::setBuffer(unsigned int)
FUNC 1a9c0 12 0 std::exception::what() const
FUNC 1a9d8 5 0 __BuildCatchObject(EHExceptionRecord*, void*, _s_HandlerType const*, _s_CatchableType const*)
FUNC 1a9e0 5 0 __BuildCatchObjectHelper(EHExceptionRecord*, void*, _s_HandlerType const*, _s_CatchableType const*)
FUNC 1a9e8 5 0 __TypeMatch(_s_HandlerType const*, _s_CatchableType const*, _s_ThrowInfo const*)
FUNC 1a9f0 7 0 __vcrt_EncodePointer(void* const)
FUNC 1aa10 40 0 _CallSettingFrame()
FUNC 1aa60 47 0 _CallSettingFrameEncoded()
FUNC 1aad0 8 0 __crt_public_free_policy::operator()<char>(char const* const) const
FUNC 1aadc 7 0 __crt_unique_heap_ptr<char,__crt_public_free_policy>::__crt_unique_heap_ptr<char,__crt_public_free_policy>(char* const)
FUNC 1aae4 1b 0 __crt_unique_heap_ptr<char,__crt_public_free_policy>::~__crt_unique_heap_ptr<char,__crt_public_free_policy>()
FUNC 1ab08 8 0 __crt_unique_heap_ptr<char,__crt_public_free_policy>::operator bool() const
FUNC 1ab14 8 0 __crt_unique_heap_ptr<char,__crt_public_free_policy>::detach()
FUNC 1ab20 4 0 __crt_unique_heap_ptr<char,__crt_public_free_policy>::get() const
FUNC 1ab24 8 0 __crt_unique_heap_ptr<char,__crt_public_free_policy>::is_valid() const
FUNC 1ab30 1b 0 __crt_unique_heap_ptr<char,__crt_public_free_policy>::release()
FUNC 1ab54 8d 0 __std_exception_copy(__std_exception_data const*, __std_exception_data*)
FUNC 1ac04 25 0 __std_exception_destroy(__std_exception_data*)
FUNC 1ac34 bf 0 _CxxThrowException(void*, _s__ThrowInfo const*)
FUNC 1ad24 16 0 __crt_fast_decode_pointer<void (__cdecl*)(wchar_t const *,wchar_t const *,wchar_t const *,unsigned int,unsigned __int64)>(void (* const)(wchar_t const*, wchar_t const*, wchar_t const*, unsigned int, unsigned long long))
FUNC 1ad40 1e 0 __crt_fast_encode_pointer<void (__cdecl*)(wchar_t const *,wchar_t const *,wchar_t const *,unsigned int,unsigned __int64)>(void (* const)(wchar_t const*, wchar_t const*, wchar_t const*, unsigned int, unsigned long long))
FUNC 1ad68 7 0 __crt_state_management::dual_state_global<void (__cdecl*)(wchar_t const *,wchar_t const *,wchar_t const *,unsigned int,unsigned __int64)>::initialize_from_array<void (__cdecl*[1])(wchar_t const *,wchar_t const *,wchar_t const *,unsigned int,unsigned __int64)>(void (* const)(wchar_t const*, wchar_t const*, wchar_t const*, unsigned int, unsigned long long)[1]&)
FUNC 1ad70 6d 0 capture_current_context(_CONTEXT* const)
FUNC 1adf8 4 0 __crt_state_management::dual_state_global<void (__cdecl*)(wchar_t const *,wchar_t const *,wchar_t const *,unsigned int,unsigned __int64)>::dangerous_get_state_array()
FUNC 1adfc 3 0 __crt_state_management::get_current_state_index()
FUNC 1ae00 4 0 __crt_state_management::dual_state_global<void (__cdecl*)(wchar_t const *,wchar_t const *,wchar_t const *,unsigned int,unsigned __int64)>::value()
FUNC 1ae04 15b 0 __acrt_call_reportfault(int, unsigned long, unsigned long)
FUNC 1afb8 8 0 __acrt_initialize_invalid_parameter_handler(void*)
FUNC 1afc4 17 0 _get_invalid_parameter_handler()
FUNC 1afe0 1a 0 _get_thread_local_invalid_parameter_handler()
FUNC 1b000 ae 0 _invalid_parameter(wchar_t const* const, wchar_t const* const, wchar_t const* const, const unsigned int, const unsigned long long)
FUNC 1b0dc 1e 0 _invalid_parameter_noinfo()
FUNC 1b104 2f 0 _invalid_parameter_noinfo_noreturn()
FUNC 1b140 47 0 _invoke_watson(wchar_t const*, wchar_t const*, wchar_t const*, unsigned int, unsigned long long)
FUNC 1b198 34 0 _set_invalid_parameter_handler(void (*)(wchar_t const*, wchar_t const*, wchar_t const*, unsigned int, unsigned long long))
FUNC 1b1dc 25 0 _set_thread_local_invalid_parameter_handler(void (*)(wchar_t const*, wchar_t const*, wchar_t const*, unsigned int, unsigned long long))
FUNC 1b20c 64 0 _initterm(void (**)(), void (**)())
FUNC 1b28c 3d 0 _initterm_e(int (**)(), int (**)())
FUNC 1b2d8 11 0 free(void*)
FUNC 1b2f0 1d 0 xcptlookup(const unsigned long, __crt_signal_action_t* const)
FUNC 1b314 13 0 _seh_filter_dll(unsigned long, _EXCEPTION_POINTERS*)
FUNC 1b32c 182 0 _seh_filter_exe(unsigned long, _EXCEPTION_POINTERS*)
FUNC 1b510 8 0 __crt_fast_encoded_nullptr_t::operator<void __cdecl(void *,unsigned long,void *)> void (__cdecl*)(void *,unsigned long,void *)() const
FUNC 1b51c 38 0 __crt_seh_guarded_call<void>::operator()<<lambda_d80eeec6fff315bfe5c115232f3240e3>,<lambda_6e4b09c48022b2350581041d5f6b0c4c> &,<lambda_2358e3775559c9db80273638284d5e45> >(__acrt_lock_and_call::__l2::<lambda_d80eeec6fff315bfe5c115232f3240e3>&&, common_exit::__l2::<lambda_6e4b09c48022b2350581041d5f6b0c4c>&, __acrt_lock_and_call::__l2::<lambda_2358e3775559c9db80273638284d5e45>&&)
FUNC 1b564 26 0 __acrt_lock_and_call<<lambda_6e4b09c48022b2350581041d5f6b0c4c> >(const __acrt_lock_id, common_exit::__l2::<lambda_6e4b09c48022b2350581041d5f6b0c4c>&&)
FUNC 1b594 16 0 __crt_fast_decode_pointer<void (__cdecl*)(void *,unsigned long,void *)>(void (* const)(void*, unsigned long, void*))
FUNC 1b5b0 1e 0 __crt_fast_encode_pointer<void (__cdecl*)(void *,unsigned long,void *)>(void (* const)(void*, unsigned long, void*))
FUNC 1b5d8 7 0 __crt_get_proc_address<void (__cdecl*)(unsigned int)>(HINSTANCE__* const, char const* const)
FUNC 1b5e0 3 0 __crt_interlocked_read<long>(long const*)
FUNC 1b5e4 8 0 <lambda_2358e3775559c9db80273638284d5e45>::<lambda_2358e3775559c9db80273638284d5e45>(__acrt_lock_id const&)
FUNC 1b5f0 f 0 <lambda_6e4b09c48022b2350581041d5f6b0c4c>::<lambda_6e4b09c48022b2350581041d5f6b0c4c>(_crt_exit_cleanup_mode const&, _crt_exit_return_mode const&, bool&)
FUNC 1b604 8 0 <lambda_d80eeec6fff315bfe5c115232f3240e3>::<lambda_d80eeec6fff315bfe5c115232f3240e3>(__acrt_lock_id const&)
FUNC 1b610 7 0 __crt_unique_handle_t<__crt_hmodule_traits>::__crt_unique_handle_t<__crt_hmodule_traits>(HINSTANCE__* const)
FUNC 1b618 21 0 __crt_unique_handle_t<__crt_hmodule_traits>::~__crt_unique_handle_t<__crt_hmodule_traits>()
FUNC 1b644 7 0 <lambda_2358e3775559c9db80273638284d5e45>::operator()() const
FUNC 1b64c c1 0 <lambda_6e4b09c48022b2350581041d5f6b0c4c>::operator()() const
FUNC 1b740 7 0 <lambda_d80eeec6fff315bfe5c115232f3240e3>::operator()() const
FUNC 1b748 6 0 __acrt_select_exit_lock()
FUNC 1b750 3 0 __crt_interlocked_read_32(int const*)
FUNC 1b754 c 0 atexit_exception_filter(const unsigned long)
FUNC 1b764 21 0 __crt_unique_handle_t<__crt_hmodule_traits>::close()
FUNC 1b790 14 0 __crt_hmodule_traits::close(HINSTANCE__*)
FUNC 1b7ac bc 0 common_exit(const int, const _crt_exit_cleanup_mode, const _crt_exit_return_mode)
FUNC 1b898 4a 0 exit_or_terminate_process(const unsigned int)
FUNC 1b8f4 4 0 __crt_unique_handle_t<__crt_hmodule_traits>::get() const
FUNC 1b8f8 4 0 __crt_unique_handle_t<__crt_hmodule_traits>::get_address_of()
FUNC 1b8fc 3 0 __crt_hmodule_traits::get_invalid_value()
FUNC 1b900 52 0 is_managed_app()
FUNC 1b968 30 0 should_call_terminate_process()
FUNC 1b9a4 5b 0 try_cor_exit_process(const unsigned int)
FUNC 1ba18 c 0 _Exit(int)
FUNC 1ba28 8 0 __acrt_initialize_thread_local_exit_callback(void*)
FUNC 1ba34 10 0 _c_exit()
FUNC 1ba48 d 0 _cexit()
FUNC 1ba58 c 0 _exit(int)
FUNC 1ba68 7 0 _is_c_termination_complete()
FUNC 1ba70 3c 0 _register_thread_local_exe_atexit_callback(void (*)(void*, unsigned long, void*))
FUNC 1babc a 0 exit(int)
FUNC 1bac8 c 0 quick_exit(int)
FUNC 1bad8 8 0 __crt_internal_free_policy::operator()<unsigned char>(unsigned char const* const) const
FUNC 1bae4 8 0 __crt_internal_free_policy::operator()<char *>(char* const* const) const
FUNC 1baf0 8 0 __crt_internal_free_policy::operator()<wchar_t *>(wchar_t* const* const) const
FUNC 1bafc 175 0 common_configure_argv<char>(const _crt_argv_mode)
FUNC 1bcd0 171 0 common_configure_argv<wchar_t>(const _crt_argv_mode)
FUNC 1bea0 b 0 __crt_char_traits<char>::get_module_file_name<std::nullptr_t,char (&)[261],int>(void*&&, char[261]&, int&&)
FUNC 1beb0 d 0 __crt_char_traits<wchar_t>::get_module_file_name<std::nullptr_t,wchar_t (&)[261],int>(void*&&, wchar_t[261]&, int&&)
FUNC 1bec0 1c3 0 parse_command_line<char>(char*, char**, char*, unsigned long long*, unsigned long long*)
FUNC 1c0f4 1a2 0 parse_command_line<wchar_t>(wchar_t*, wchar_t**, wchar_t*, unsigned long long*, unsigned long long*)
FUNC 1c300 b 0 __crt_char_traits<char>::set_program_name<char *>(char*&&)
FUNC 1c310 b 0 __crt_char_traits<wchar_t>::set_program_name<wchar_t *>(wchar_t*&&)
FUNC 1c320 7 0 <lambda_a36aafc41185bea294aaaa3896c79ecc>::<lambda_a36aafc41185bea294aaaa3896c79ecc>(__crt_unique_heap_ptr<wchar_t *,__crt_internal_free_policy>&)
FUNC 1c328 7 0 <lambda_df1553121bfa390f1154bd84936f2730>::<lambda_df1553121bfa390f1154bd84936f2730>(__crt_unique_heap_ptr<char *,__crt_internal_free_policy>&)
FUNC 1c330 7 0 __crt_unique_heap_ptr<unsigned char,__crt_internal_free_policy>::__crt_unique_heap_ptr<unsigned char,__crt_internal_free_policy>(unsigned char* const)
FUNC 1c338 7 0 __crt_unique_heap_ptr<char *,__crt_internal_free_policy>::__crt_unique_heap_ptr<char *,__crt_internal_free_policy>(char** const)
FUNC 1c340 7 0 __crt_unique_heap_ptr<wchar_t *,__crt_internal_free_policy>::__crt_unique_heap_ptr<wchar_t *,__crt_internal_free_policy>(wchar_t** const)
FUNC 1c348 1b 0 __crt_unique_heap_ptr<unsigned char,__crt_internal_free_policy>::~__crt_unique_heap_ptr<unsigned char,__crt_internal_free_policy>()
FUNC 1c36c 1b 0 __crt_unique_heap_ptr<char *,__crt_internal_free_policy>::~__crt_unique_heap_ptr<char *,__crt_internal_free_policy>()
FUNC 1c390 1b 0 __crt_unique_heap_ptr<wchar_t *,__crt_internal_free_policy>::~__crt_unique_heap_ptr<wchar_t *,__crt_internal_free_policy>()
FUNC 1c3b4 8 0 __crt_unique_heap_ptr<unsigned char,__crt_internal_free_policy>::operator bool() const
FUNC 1c3c0 1b 0 <lambda_a36aafc41185bea294aaaa3896c79ecc>::operator()() const
FUNC 1c3e4 1b 0 <lambda_df1553121bfa390f1154bd84936f2730>::operator()() const
FUNC 1c408 8 0 __crt_unique_heap_ptr<unsigned char,__crt_internal_free_policy>::detach()
FUNC 1c414 8 0 __crt_unique_heap_ptr<char *,__crt_internal_free_policy>::detach()
FUNC 1c420 8 0 __crt_unique_heap_ptr<wchar_t *,__crt_internal_free_policy>::detach()
FUNC 1c42c 5 0 do_locale_initialization(char)
FUNC 1c434 3 0 do_locale_initialization(wchar_t)
FUNC 1c438 5 0 expand_argv_wildcards(char** const, char*** const)
FUNC 1c440 5 0 expand_argv_wildcards(wchar_t** const, wchar_t*** const)
FUNC 1c448 4 0 __crt_unique_heap_ptr<unsigned char,__crt_internal_free_policy>::get() const
FUNC 1c44c 4 0 __crt_unique_heap_ptr<char *,__crt_internal_free_policy>::get() const
FUNC 1c450 4 0 __crt_unique_heap_ptr<wchar_t *,__crt_internal_free_policy>::get() const
FUNC 1c454 4 0 __crt_unique_heap_ptr<char *,__crt_internal_free_policy>::get_address_of()
FUNC 1c458 4 0 __crt_unique_heap_ptr<wchar_t *,__crt_internal_free_policy>::get_address_of()
FUNC 1c45c 8 0 get_argv(char)
FUNC 1c468 8 0 get_argv(wchar_t)
FUNC 1c474 8 0 get_command_line(char)
FUNC 1c480 8 0 get_command_line(wchar_t)
FUNC 1c48c 8 0 __crt_unique_heap_ptr<unsigned char,__crt_internal_free_policy>::is_valid() const
FUNC 1c498 1b 0 __crt_unique_heap_ptr<unsigned char,__crt_internal_free_policy>::release()
FUNC 1c4bc 1b 0 __crt_unique_heap_ptr<char *,__crt_internal_free_policy>::release()
FUNC 1c4e0 1b 0 __crt_unique_heap_ptr<wchar_t *,__crt_internal_free_policy>::release()
FUNC 1c504 16 0 should_copy_another_character(const char)
FUNC 1c520 3 0 should_copy_another_character(wchar_t)
FUNC 1c524 5d 0 __acrt_allocate_buffer_for_argv(unsigned long long, unsigned long long, unsigned long long)
FUNC 1c598 186 0 _configure_narrow_argv(_crt_argv_mode)
FUNC 1c780 182 0 _configure_wide_argv(_crt_argv_mode)
FUNC 1c964 8 0 _set_pgmptr(char*)
FUNC 1c970 8 0 _set_wpgmptr(wchar_t*)
FUNC 1c97c 8 0 __crt_internal_free_policy::operator()<wchar_t>(wchar_t const* const) const
FUNC 1c988 4e 0 common_get_initial_environment<char>()
FUNC 1c9ec 4e 0 common_get_initial_environment<wchar_t>()
FUNC 1ca50 3b 0 common_get_or_create_environment_nolock<char>()
FUNC 1ca9c 3b 0 common_get_or_create_environment_nolock<wchar_t>()
FUNC 1cae8 6c 0 common_initialize_environment_nolock<char>()
FUNC 1cb70 67 0 common_initialize_environment_nolock<wchar_t>()
FUNC 1cbf0 32 0 count_variables_in_environment_block<char>(char* const)
FUNC 1cc30 3c 0 count_variables_in_environment_block<wchar_t>(wchar_t* const)
FUNC 1cc7c 106 0 create_environment<char>(char* const)
FUNC 1cdc4 113 0 create_environment<wchar_t>(wchar_t* const)
FUNC 1cf1c 41 0 free_environment<char>(char** const)
FUNC 1cf70 41 0 free_environment<wchar_t>(wchar_t** const)
FUNC 1cfc4 5 0 __crt_char_traits<char>::get_environment_from_os<>()
FUNC 1cfcc 5 0 __crt_char_traits<wchar_t>::get_environment_from_os<>()
FUNC 1cfd4 d1 0 initialize_environment_by_cloning_nolock<char>()
FUNC 1d0dc b1 0 initialize_environment_by_cloning_nolock<wchar_t>()
FUNC 1d1bc a 0 __crt_char_traits<char>::set_variable_in_environment_nolock<char *,int>(char*&&, int&&)
FUNC 1d1c8 a 0 __crt_char_traits<wchar_t>::set_variable_in_environment_nolock<wchar_t *,int>(wchar_t*&&, int&&)
FUNC 1d1d4 e 0 __crt_char_traits<char>::tcscpy_s<char *,unsigned __int64 const &,char * &>(char*&&, unsigned long long const&, char*&)
FUNC 1d1e8 e 0 __crt_char_traits<wchar_t>::tcscpy_s<wchar_t *,unsigned __int64 const &,wchar_t * &>(wchar_t*&&, unsigned long long const&, wchar_t*&)
FUNC 1d1fc 11 0 __crt_char_traits<char>::tcslen<char * &>(char*&)
FUNC 1d214 12 0 __crt_char_traits<wchar_t>::tcslen<wchar_t * &>(wchar_t*&)
FUNC 1d22c 43 0 __crt_state_management::dual_state_global<char * *>::uninitialize<void (__cdecl&)(char * * &)>(void (&)(char**&))
FUNC 1d280 43 0 __crt_state_management::dual_state_global<wchar_t * *>::uninitialize<void (__cdecl&)(wchar_t * * &)>(void (&)(wchar_t**&))
FUNC 1d2d4 1a 0 uninitialize_environment_internal<char>(char**&)
FUNC 1d2f4 1a 0 uninitialize_environment_internal<wchar_t>(wchar_t**&)
FUNC 1d314 7 0 __crt_unique_heap_ptr<wchar_t,__crt_internal_free_policy>::__crt_unique_heap_ptr<wchar_t,__crt_internal_free_policy>(wchar_t* const)
FUNC 1d31c 1b 0 __crt_unique_heap_ptr<wchar_t,__crt_internal_free_policy>::~__crt_unique_heap_ptr<wchar_t,__crt_internal_free_policy>()
FUNC 1d340 8 0 __crt_unique_heap_ptr<char *,__crt_internal_free_policy>::operator bool() const
FUNC 1d34c 8 0 __crt_unique_heap_ptr<wchar_t *,__crt_internal_free_policy>::operator bool() const
FUNC 1d358 8 0 __crt_unique_heap_ptr<wchar_t,__crt_internal_free_policy>::operator bool() const
FUNC 1d364 24 0 __crt_compute_required_transform_buffer_count(const unsigned int, char const* const)
FUNC 1d394 2e 0 __crt_compute_required_transform_buffer_count(const unsigned int, wchar_t const* const)
FUNC 1d3d0 23 0 __crt_transform_string(const unsigned int, char const* const, wchar_t* const, const unsigned long long)
FUNC 1d3fc 2e 0 __crt_transform_string(const unsigned int, wchar_t const* const, char* const, const unsigned long long)
FUNC 1d438 8 0 __crt_unique_heap_ptr<char,__crt_internal_free_policy>::detach()
FUNC 1d444 8 0 __crt_unique_heap_ptr<wchar_t,__crt_internal_free_policy>::detach()
FUNC 1d450 4 0 __crt_unique_heap_ptr<wchar_t,__crt_internal_free_policy>::get() const
FUNC 1d454 8 0 get_dual_state_environment_nolock(char)
FUNC 1d460 8 0 get_dual_state_environment_nolock(wchar_t)
FUNC 1d46c 8 0 get_environment_nolock(char)
FUNC 1d478 8 0 get_environment_nolock(wchar_t)
FUNC 1d484 8 0 get_initial_environment(char)
FUNC 1d490 8 0 get_initial_environment(wchar_t)
FUNC 1d49c 27 0 __crt_state_management::dual_state_global<char * *>::initialize(char** const)
FUNC 1d4cc 27 0 __crt_state_management::dual_state_global<wchar_t * *>::initialize(wchar_t** const)
FUNC 1d4fc 8 0 __crt_unique_heap_ptr<char *,__crt_internal_free_policy>::is_valid() const
FUNC 1d508 8 0 __crt_unique_heap_ptr<wchar_t *,__crt_internal_free_policy>::is_valid() const
FUNC 1d514 8 0 __crt_unique_heap_ptr<wchar_t,__crt_internal_free_policy>::is_valid() const
FUNC 1d520 5 0 pre_initialize(char)
FUNC 1d528 3 0 pre_initialize(wchar_t)
FUNC 1d52c 1b 0 __crt_unique_heap_ptr<wchar_t,__crt_internal_free_policy>::release()
FUNC 1d550 4 0 __crt_state_management::dual_state_global<char * *>::value()
FUNC 1d554 4 0 __crt_state_management::dual_state_global<wchar_t * *>::value()
FUNC 1d558 3b 0 __dcrt_get_or_create_narrow_environment_nolock()
FUNC 1d5a4 3b 0 __dcrt_get_or_create_wide_environment_nolock()
FUNC 1d5f0 38 0 __dcrt_uninitialize_environments_nolock()
FUNC 1d638 8 0 __p__environ()
FUNC 1d644 8 0 __p__wenviron()
FUNC 1d650 4e 0 _get_initial_narrow_environment()
FUNC 1d6b4 4e 0 _get_initial_wide_environment()
FUNC 1d718 5 0 _initialize_narrow_environment()
FUNC 1d720 5 0 _initialize_wide_environment()
FUNC 1d728 31 0 _invoke_watson_if_error(int, wchar_t const*, wchar_t const*, wchar_t const*, unsigned int, unsigned long long)
FUNC 1d768 8 0 __crt_fast_encoded_nullptr_t::operator<void (__cdecl*)(void)> void (__cdecl**)(void)() const
FUNC 1d774 8 0 __crt_internal_free_policy::operator()<void (__cdecl*)(void)>(void (* const* const)()) const
FUNC 1d780 3b 0 __crt_seh_guarded_call<int>::operator()<<lambda_638799b9deba96c50f710eeac98168cd>,<lambda_22ebabd17bc4fa466a2aca6d8deb888d> &,<lambda_a6f7d7db0129f75315ebf26d50c089f1> >(__acrt_lock_and_call::__l2::<lambda_638799b9deba96c50f710eeac98168cd>&&, _register_onexit_function::__l2::<lambda_22ebabd17bc4fa466a2aca6d8deb888d>&, __acrt_lock_and_call::__l2::<lambda_a6f7d7db0129f75315ebf26d50c089f1>&&)
FUNC 1d7cc 3b 0 __crt_seh_guarded_call<int>::operator()<<lambda_7777bce6b2f8c936911f934f8298dc43>,<lambda_f03950bc5685219e0bcd2087efbe011e> &,<lambda_3883c3dff614d5e0c5f61bb1ac94921c> >(__acrt_lock_and_call::__l2::<lambda_7777bce6b2f8c936911f934f8298dc43>&&, _execute_onexit_table::__l2::<lambda_f03950bc5685219e0bcd2087efbe011e>&, __acrt_lock_and_call::__l2::<lambda_3883c3dff614d5e0c5f61bb1ac94921c>&&)
FUNC 1d818 26 0 __acrt_lock_and_call<<lambda_22ebabd17bc4fa466a2aca6d8deb888d> >(const __acrt_lock_id, _register_onexit_function::__l2::<lambda_22ebabd17bc4fa466a2aca6d8deb888d>&&)
FUNC 1d848 26 0 __acrt_lock_and_call<<lambda_f03950bc5685219e0bcd2087efbe011e> >(const __acrt_lock_id, _execute_onexit_table::__l2::<lambda_f03950bc5685219e0bcd2087efbe011e>&&)
FUNC 1d878 1e 0 __crt_fast_encode_pointer<int (__cdecl*)(void)>(int (* const)())
FUNC 1d8a0 b 0 <lambda_22ebabd17bc4fa466a2aca6d8deb888d>::<lambda_22ebabd17bc4fa466a2aca6d8deb888d>(_onexit_table_t* const&, int (* const&)())
FUNC 1d8b0 8 0 <lambda_3883c3dff614d5e0c5f61bb1ac94921c>::<lambda_3883c3dff614d5e0c5f61bb1ac94921c>(__acrt_lock_id const&)
FUNC 1d8bc 8 0 <lambda_638799b9deba96c50f710eeac98168cd>::<lambda_638799b9deba96c50f710eeac98168cd>(__acrt_lock_id const&)
FUNC 1d8c8 8 0 <lambda_7777bce6b2f8c936911f934f8298dc43>::<lambda_7777bce6b2f8c936911f934f8298dc43>(__acrt_lock_id const&)
FUNC 1d8d4 8 0 <lambda_a6f7d7db0129f75315ebf26d50c089f1>::<lambda_a6f7d7db0129f75315ebf26d50c089f1>(__acrt_lock_id const&)
FUNC 1d8e0 7 0 <lambda_f03950bc5685219e0bcd2087efbe011e>::<lambda_f03950bc5685219e0bcd2087efbe011e>(_onexit_table_t* const&)
FUNC 1d8e8 7 0 __crt_unique_heap_ptr<void (__cdecl*)(void),__crt_internal_free_policy>::__crt_unique_heap_ptr<void (__cdecl*)(void),__crt_internal_free_policy>(void (** const)())
FUNC 1d8f0 1b 0 __crt_unique_heap_ptr<void (__cdecl*)(void),__crt_internal_free_policy>::~__crt_unique_heap_ptr<void (__cdecl*)(void),__crt_internal_free_policy>()
FUNC 1d914 3 0 __crt_state_management::scoped_global_state_reset::~scoped_global_state_reset()
FUNC 1d918 1b0 0 <lambda_22ebabd17bc4fa466a2aca6d8deb888d>::operator()() const
FUNC 1db34 7 0 <lambda_3883c3dff614d5e0c5f61bb1ac94921c>::operator()() const
FUNC 1db3c 7 0 <lambda_638799b9deba96c50f710eeac98168cd>::operator()() const
FUNC 1db44 7 0 <lambda_7777bce6b2f8c936911f934f8298dc43>::operator()() const
FUNC 1db4c 7 0 <lambda_a6f7d7db0129f75315ebf26d50c089f1>::operator()() const
FUNC 1db54 116 0 <lambda_f03950bc5685219e0bcd2087efbe011e>::operator()() const
FUNC 1dcb0 8 0 __crt_unique_heap_ptr<void (__cdecl*)(void),__crt_internal_free_policy>::detach()
FUNC 1dcbc 1b 0 __crt_unique_heap_ptr<void (__cdecl*)(void),__crt_internal_free_policy>::release()
FUNC 1dce0 f 0 _crt_at_quick_exit(void (*)())
FUNC 1dcf4 f 0 _crt_atexit(void (*)())
FUNC 1dd08 3a 0 _execute_onexit_table(_onexit_table_t*)
FUNC 1dd50 27 0 _initialize_onexit_table(_onexit_table_t*)
FUNC 1dd80 48 0 _register_onexit_function(_onexit_table_t*, int (*)())
FUNC 1dddc 11 0 initialize_global_variables()
FUNC 1ddf4 23 0 initialize_c()
FUNC 1de20 3 0 uninitialize_c(bool)
FUNC 1de24 3 0 initialize_environment()
FUNC 1de28 10 0 uninitialize_environment(const bool)
FUNC 1de3c 3 0 initialize_global_state_isolation()
FUNC 1de40 3 0 uninitialize_global_state_isolation(const bool)
FUNC 1de44 3d 0 initialize_pointers()
FUNC 1de90 7 0 uninitialize_vcruntime(const bool)
FUNC 1de98 40 0 uninitialize_allocated_memory(const bool)
FUNC 1dee8 5b 0 uninitialize_allocated_io_buffers(const bool)
FUNC 1df5c 3 0 report_memory_leaks(const bool)
FUNC 1df60 6f 0 __crt_state_management::dual_state_global<__crt_multibyte_data *>::uninitialize<<lambda_af42a3ee9806e9a7305d451646e05244> >(uninitialize_allocated_memory::__l2::<lambda_af42a3ee9806e9a7305d451646e05244>&&)
FUNC 1dfec 3e 0 <lambda_af42a3ee9806e9a7305d451646e05244>::operator()(__crt_multibyte_data*&) const
FUNC 1e03c c 0 __acrt_stdio_is_initialized()
FUNC 1e04c 27 0 __crt_state_management::dual_state_global<__crt_locale_data *>::initialize(__crt_locale_data* const)
FUNC 1e07c 13 0 __acrt_initialize()
FUNC 1e094 14 0 __acrt_thread_attach()
FUNC 1e0b0 10 0 __acrt_thread_detach()
FUNC 1e0c4 35 0 __acrt_uninitialize(bool)
FUNC 1e108 10 0 __acrt_uninitialize_critical(bool)
FUNC 1e11c 12 0 get_terminate_or_default(__acrt_ptd const* const)
FUNC 1e134 22 0 _get_terminate()
FUNC 1e160 2c 0 set_terminate(void (*)())
FUNC 1e198 20 0 terminate()
FUNC 1e1c0 5 0 malloc(unsigned long long)
FUNC 1e1c8 62 0 common_tcscpy_s<char>(char* const, const unsigned long long, char const* const)
FUNC 1e244 5f 0 strcpy_s(char*, unsigned long long, char const*)
FUNC 1e2bc 81 0 __crt_stdio_output::format_validation_base<char,__crt_stdio_output::stream_output_adapter<char> >::format_validation_base<char,__crt_stdio_output::stream_output_adapter<char> ><__crt_stdio_output::stream_output_adapter<char> const &,unsigned __int64 const &,char const * const &,__crt_locale_pointers * const &,char * const &>(__crt_stdio_output::stream_output_adapter<char> const&, unsigned long long const&, char const* const&, __crt_locale_pointers* const&, char* const&)
FUNC 1e360 9e 0 __crt_stdio_output::positional_parameter_base<char,__crt_stdio_output::stream_output_adapter<char> >::positional_parameter_base<char,__crt_stdio_output::stream_output_adapter<char> ><__crt_stdio_output::stream_output_adapter<char> const &,unsigned __int64 const &,char const * const &,__crt_locale_pointers * const &,char * const &>(__crt_stdio_output::stream_output_adapter<char> const&, unsigned long long const&, char const* const&, __crt_locale_pointers* const&, char* const&)
FUNC 1e428 81 0 __crt_stdio_output::standard_base<char,__crt_stdio_output::stream_output_adapter<char> >::standard_base<char,__crt_stdio_output::stream_output_adapter<char> ><__crt_stdio_output::stream_output_adapter<char> const &,unsigned __int64 const &,char const * const &,__crt_locale_pointers * const &,char * const &>(__crt_stdio_output::stream_output_adapter<char> const&, unsigned long long const&, char const* const&, __crt_locale_pointers* const&, char* const&)
FUNC 1e4cc 85 0 __crt_stdio_output::format_validation_base<wchar_t,__crt_stdio_output::stream_output_adapter<wchar_t> >::format_validation_base<wchar_t,__crt_stdio_output::stream_output_adapter<wchar_t> ><__crt_stdio_output::stream_output_adapter<wchar_t> const &,unsigned __int64 const &,wchar_t const * const &,__crt_locale_pointers * const &,char * const &>(__crt_stdio_output::stream_output_adapter<wchar_t> const&, unsigned long long const&, wchar_t const* const&, __crt_locale_pointers* const&, char* const&)
FUNC 1e574 a2 0 __crt_stdio_output::positional_parameter_base<wchar_t,__crt_stdio_output::stream_output_adapter<wchar_t> >::positional_parameter_base<wchar_t,__crt_stdio_output::stream_output_adapter<wchar_t> ><__crt_stdio_output::stream_output_adapter<wchar_t> const &,unsigned __int64 const &,wchar_t const * const &,__crt_locale_pointers * const &,char * const &>(__crt_stdio_output::stream_output_adapter<wchar_t> const&, unsigned long long const&, wchar_t const* const&, __crt_locale_pointers* const&, char* const&)
FUNC 1e640 85 0 __crt_stdio_output::standard_base<wchar_t,__crt_stdio_output::stream_output_adapter<wchar_t> >::standard_base<wchar_t,__crt_stdio_output::stream_output_adapter<wchar_t> ><__crt_stdio_output::stream_output_adapter<wchar_t> const &,unsigned __int64 const &,wchar_t const * const &,__crt_locale_pointers * const &,char * const &>(__crt_stdio_output::stream_output_adapter<wchar_t> const&, unsigned long long const&, wchar_t const* const&, __crt_locale_pointers* const&, char* const&)
FUNC 1e6e8 81 0 __crt_stdio_output::format_validation_base<char,__crt_stdio_output::string_output_adapter<char> >::format_validation_base<char,__crt_stdio_output::string_output_adapter<char> ><__crt_stdio_output::string_output_adapter<char> const &,unsigned __int64 const &,char const * const &,__crt_locale_pointers * const &,char * const &>(__crt_stdio_output::string_output_adapter<char> const&, unsigned long long const&, char const* const&, __crt_locale_pointers* const&, char* const&)
FUNC 1e78c 9e 0 __crt_stdio_output::positional_parameter_base<char,__crt_stdio_output::string_output_adapter<char> >::positional_parameter_base<char,__crt_stdio_output::string_output_adapter<char> ><__crt_stdio_output::string_output_adapter<char> const &,unsigned __int64 const &,char const * const &,__crt_locale_pointers * const &,char * const &>(__crt_stdio_output::string_output_adapter<char> const&, unsigned long long const&, char const* const&, __crt_locale_pointers* const&, char* const&)
FUNC 1e854 81 0 __crt_stdio_output::standard_base<char,__crt_stdio_output::string_output_adapter<char> >::standard_base<char,__crt_stdio_output::string_output_adapter<char> ><__crt_stdio_output::string_output_adapter<char> const &,unsigned __int64 const &,char const * const &,__crt_locale_pointers * const &,char * const &>(__crt_stdio_output::string_output_adapter<char> const&, unsigned long long const&, char const* const&, __crt_locale_pointers* const&, char* const&)
FUNC 1e8f8 85 0 __crt_stdio_output::format_validation_base<wchar_t,__crt_stdio_output::string_output_adapter<wchar_t> >::format_validation_base<wchar_t,__crt_stdio_output::string_output_adapter<wchar_t> ><__crt_stdio_output::string_output_adapter<wchar_t> const &,unsigned __int64 const &,wchar_t const * const &,__crt_locale_pointers * const &,char * const &>(__crt_stdio_output::string_output_adapter<wchar_t> const&, unsigned long long const&, wchar_t const* const&, __crt_locale_pointers* const&, char* const&)
FUNC 1e9a0 a2 0 __crt_stdio_output::positional_parameter_base<wchar_t,__crt_stdio_output::string_output_adapter<wchar_t> >::positional_parameter_base<wchar_t,__crt_stdio_output::string_output_adapter<wchar_t> ><__crt_stdio_output::string_output_adapter<wchar_t> const &,unsigned __int64 const &,wchar_t const * const &,__crt_locale_pointers * const &,char * const &>(__crt_stdio_output::string_output_adapter<wchar_t> const&, unsigned long long const&, wchar_t const* const&, __crt_locale_pointers* const&, char* const&)
FUNC 1ea6c 85 0 __crt_stdio_output::standard_base<wchar_t,__crt_stdio_output::string_output_adapter<wchar_t> >::standard_base<wchar_t,__crt_stdio_output::string_output_adapter<wchar_t> ><__crt_stdio_output::string_output_adapter<wchar_t> const &,unsigned __int64 const &,wchar_t const * const &,__crt_locale_pointers * const &,char * const &>(__crt_stdio_output::string_output_adapter<wchar_t> const&, unsigned long long const&, wchar_t const* const&, __crt_locale_pointers* const&, char* const&)
FUNC 1eb14 3d 0 __crt_seh_guarded_call<int>::operator()<<lambda_63c71d947f2ce890aa4aac7392f1cbed>,<lambda_e3269ba96939e7713c73908c0d757d25> &,<lambda_3776af017df72547960a8ac98bb265e7> >(__acrt_lock_stream_and_call::__l2::<lambda_63c71d947f2ce890aa4aac7392f1cbed>&&, common_vfprintf::__l2::<lambda_e3269ba96939e7713c73908c0d757d25>&, __acrt_lock_stream_and_call::__l2::<lambda_3776af017df72547960a8ac98bb265e7>&&)
FUNC 1eb60 3d 0 __crt_seh_guarded_call<int>::operator()<<lambda_676bd5779251ec186b530f0a904b4b35>,<lambda_b579ea784fd840951dfbcbdaebf709fd> &,<lambda_10027885da78ada7fb00668d7e2e96b5> >(__acrt_lock_stream_and_call::__l2::<lambda_676bd5779251ec186b530f0a904b4b35>&&, common_vfprintf::__l2::<lambda_b579ea784fd840951dfbcbdaebf709fd>&, __acrt_lock_stream_and_call::__l2::<lambda_10027885da78ada7fb00668d7e2e96b5>&&)
FUNC 1ebac 3d 0 __crt_seh_guarded_call<int>::operator()<<lambda_8be82e0ce9ca3860586e20edfb7a650e>,<lambda_673ffc0dc9412a0afcf2088e0e1b9bdc> &,<lambda_c997b1ad71a4c19edf3d1d12a5864641> >(__acrt_lock_stream_and_call::__l2::<lambda_8be82e0ce9ca3860586e20edfb7a650e>&&, common_vfprintf::__l2::<lambda_673ffc0dc9412a0afcf2088e0e1b9bdc>&, __acrt_lock_stream_and_call::__l2::<lambda_c997b1ad71a4c19edf3d1d12a5864641>&&)
FUNC 1ebf8 3d 0 __crt_seh_guarded_call<int>::operator()<<lambda_d1b8e9147f7260ae436300a3cb83e6d4>,<lambda_e638437c4db75b75056fab6aaf7e4f15> &,<lambda_8c9f37a989ed2ac074735e5b535e306a> >(__acrt_lock_stream_and_call::__l2::<lambda_d1b8e9147f7260ae436300a3cb83e6d4>&&, common_vfprintf::__l2::<lambda_e638437c4db75b75056fab6aaf7e4f15>&, __acrt_lock_stream_and_call::__l2::<lambda_8c9f37a989ed2ac074735e5b535e306a>&&)
FUNC 1ec44 3d 0 __crt_seh_guarded_call<int>::operator()<<lambda_e746820a99d01fe878d2dbd7f1018dff>,<lambda_a993425e72f5bd8b40f5859286f153c4> &,<lambda_4dad5d88921143c78c186dc2683775b0> >(__acrt_lock_stream_and_call::__l2::<lambda_e746820a99d01fe878d2dbd7f1018dff>&&, common_vfprintf::__l2::<lambda_a993425e72f5bd8b40f5859286f153c4>&, __acrt_lock_stream_and_call::__l2::<lambda_4dad5d88921143c78c186dc2683775b0>&&)
FUNC 1ec90 3d 0 __crt_seh_guarded_call<int>::operator()<<lambda_fe5404e9642edbb7c8ae71e1dcfa4018>,<lambda_36eeb330e99a4f0bf8a7da86d0894cb9> &,<lambda_2fa474834de80dc12f7a3c6eddd7a366> >(__acrt_lock_stream_and_call::__l2::<lambda_fe5404e9642edbb7c8ae71e1dcfa4018>&&, common_vfprintf::__l2::<lambda_36eeb330e99a4f0bf8a7da86d0894cb9>&, __acrt_lock_stream_and_call::__l2::<lambda_2fa474834de80dc12f7a3c6eddd7a366>&&)
FUNC 1ecdc 28 0 __acrt_lock_stream_and_call<<lambda_36eeb330e99a4f0bf8a7da86d0894cb9> >(_iobuf* const, common_vfprintf::__l2::<lambda_36eeb330e99a4f0bf8a7da86d0894cb9>&&)
FUNC 1ed10 28 0 __acrt_lock_stream_and_call<<lambda_673ffc0dc9412a0afcf2088e0e1b9bdc> >(_iobuf* const, common_vfprintf::__l2::<lambda_673ffc0dc9412a0afcf2088e0e1b9bdc>&&)
FUNC 1ed44 28 0 __acrt_lock_stream_and_call<<lambda_a993425e72f5bd8b40f5859286f153c4> >(_iobuf* const, common_vfprintf::__l2::<lambda_a993425e72f5bd8b40f5859286f153c4>&&)
FUNC 1ed78 28 0 __acrt_lock_stream_and_call<<lambda_b579ea784fd840951dfbcbdaebf709fd> >(_iobuf* const, common_vfprintf::__l2::<lambda_b579ea784fd840951dfbcbdaebf709fd>&&)
FUNC 1edac 28 0 __acrt_lock_stream_and_call<<lambda_e3269ba96939e7713c73908c0d757d25> >(_iobuf* const, common_vfprintf::__l2::<lambda_e3269ba96939e7713c73908c0d757d25>&&)
FUNC 1ede0 28 0 __acrt_lock_stream_and_call<<lambda_e638437c4db75b75056fab6aaf7e4f15> >(_iobuf* const, common_vfprintf::__l2::<lambda_e638437c4db75b75056fab6aaf7e4f15>&&)
FUNC 1ee14 85 0 common_vfprintf<__crt_stdio_output::format_validation_base,char>(const unsigned long long, _iobuf* const, char const* const, __crt_locale_pointers* const, char* const)
FUNC 1eebc 85 0 common_vfprintf<__crt_stdio_output::format_validation_base,wchar_t>(const unsigned long long, _iobuf* const, wchar_t const* const, __crt_locale_pointers* const, char* const)
FUNC 1ef64 85 0 common_vfprintf<__crt_stdio_output::positional_parameter_base,char>(const unsigned long long, _iobuf* const, char const* const, __crt_locale_pointers* const, char* const)
FUNC 1f00c 85 0 common_vfprintf<__crt_stdio_output::positional_parameter_base,wchar_t>(const unsigned long long, _iobuf* const, wchar_t const* const, __crt_locale_pointers* const, char* const)
FUNC 1f0b4 85 0 common_vfprintf<__crt_stdio_output::standard_base,char>(const unsigned long long, _iobuf* const, char const* const, __crt_locale_pointers* const, char* const)
FUNC 1f15c 85 0 common_vfprintf<__crt_stdio_output::standard_base,wchar_t>(const unsigned long long, _iobuf* const, wchar_t const* const, __crt_locale_pointers* const, char* const)
FUNC 1f204 114 0 common_vsnprintf_s<char>(const unsigned long long, char* const, const unsigned long long, const unsigned long long, char const* const, __crt_locale_pointers* const, char* const)
FUNC 1f360 117 0 common_vsnprintf_s<wchar_t>(const unsigned long long, wchar_t* const, const unsigned long long, const unsigned long long, wchar_t const* const, __crt_locale_pointers* const, char* const)
FUNC 1f4bc 1cb 0 common_vsprintf<__crt_stdio_output::format_validation_base,char>(const unsigned long long, char* const, const unsigned long long, char const* const, __crt_locale_pointers* const, char* const)
FUNC 1f6fc 1d2 0 common_vsprintf<__crt_stdio_output::format_validation_base,wchar_t>(const unsigned long long, wchar_t* const, const unsigned long long, wchar_t const* const, __crt_locale_pointers* const, char* const)
FUNC 1f944 1e7 0 common_vsprintf<__crt_stdio_output::positional_parameter_base,char>(const unsigned long long, char* const, const unsigned long long, char const* const, __crt_locale_pointers* const, char* const)
FUNC 1fba4 1ee 0 common_vsprintf<__crt_stdio_output::positional_parameter_base,wchar_t>(const unsigned long long, wchar_t* const, const unsigned long long, wchar_t const* const, __crt_locale_pointers* const, char* const)
FUNC 1fe10 1cb 0 common_vsprintf<__crt_stdio_output::standard_base,char>(const unsigned long long, char* const, const unsigned long long, char const* const, __crt_locale_pointers* const, char* const)
FUNC 20050 1d2 0 common_vsprintf<__crt_stdio_output::standard_base,wchar_t>(const unsigned long long, wchar_t* const, const unsigned long long, wchar_t const* const, __crt_locale_pointers* const, char* const)
FUNC 20298 63 0 common_vsprintf_s<char>(const unsigned long long, char* const, const unsigned long long, char const* const, __crt_locale_pointers* const, char* const)
FUNC 20314 6e 0 common_vsprintf_s<wchar_t>(const unsigned long long, wchar_t* const, const unsigned long long, wchar_t const* const, __crt_locale_pointers* const, char* const)
FUNC 203a0 1b 0 __crt_stdio_output::formatting_buffer::count<char>() const
FUNC 203c4 1c 0 __crt_stdio_output::formatting_buffer::count<wchar_t>() const
FUNC 203e8 f 0 __crt_stdio_output::formatting_buffer::data<char>()
FUNC 203fc f 0 __crt_stdio_output::formatting_buffer::data<wchar_t>()
FUNC 20410 a6 0 __crt_stdio_output::formatting_buffer::ensure_buffer_is_big_enough<char>(const unsigned long long)
FUNC 204e0 a9 0 __crt_stdio_output::formatting_buffer::ensure_buffer_is_big_enough<wchar_t>(const unsigned long long)
FUNC 205b4 bc 0 __crt_stdio_output::positional_parameter_base<char,__crt_stdio_output::stream_output_adapter<char> >::extract_argument_from_va_list<signed char,__int64>(long long&)
FUNC 206a0 bc 0 __crt_stdio_output::positional_parameter_base<char,__crt_stdio_output::string_output_adapter<char> >::extract_argument_from_va_list<signed char,__int64>(long long&)
FUNC 2078c be 0 __crt_stdio_output::positional_parameter_base<wchar_t,__crt_stdio_output::stream_output_adapter<wchar_t> >::extract_argument_from_va_list<signed char,__int64>(long long&)
FUNC 2087c be 0 __crt_stdio_output::positional_parameter_base<wchar_t,__crt_stdio_output::string_output_adapter<wchar_t> >::extract_argument_from_va_list<signed char,__int64>(long long&)
FUNC 2096c 14 0 __crt_stdio_output::standard_base<char,__crt_stdio_output::stream_output_adapter<char> >::extract_argument_from_va_list<signed char,__int64>(long long&)
FUNC 20988 14 0 __crt_stdio_output::standard_base<char,__crt_stdio_output::string_output_adapter<char> >::extract_argument_from_va_list<signed char,__int64>(long long&)
FUNC 209a4 14 0 __crt_stdio_output::standard_base<wchar_t,__crt_stdio_output::stream_output_adapter<wchar_t> >::extract_argument_from_va_list<signed char,__int64>(long long&)
FUNC 209c0 14 0 __crt_stdio_output::standard_base<wchar_t,__crt_stdio_output::string_output_adapter<wchar_t> >::extract_argument_from_va_list<signed char,__int64>(long long&)
FUNC 209dc bb 0 __crt_stdio_output::positional_parameter_base<char,__crt_stdio_output::stream_output_adapter<char> >::extract_argument_from_va_list<unsigned char,__int64>(long long&)
FUNC 20ac8 bb 0 __crt_stdio_output::positional_parameter_base<char,__crt_stdio_output::string_output_adapter<char> >::extract_argument_from_va_list<unsigned char,__int64>(long long&)
FUNC 20bb4 bd 0 __crt_stdio_output::positional_parameter_base<wchar_t,__crt_stdio_output::stream_output_adapter<wchar_t> >::extract_argument_from_va_list<unsigned char,__int64>(long long&)
FUNC 20ca0 bd 0 __crt_stdio_output::positional_parameter_base<wchar_t,__crt_stdio_output::string_output_adapter<wchar_t> >::extract_argument_from_va_list<unsigned char,__int64>(long long&)
FUNC 20d8c 13 0 __crt_stdio_output::standard_base<char,__crt_stdio_output::stream_output_adapter<char> >::extract_argument_from_va_list<unsigned char,__int64>(long long&)
FUNC 20da4 13 0 __crt_stdio_output::standard_base<char,__crt_stdio_output::string_output_adapter<char> >::extract_argument_from_va_list<unsigned char,__int64>(long long&)
FUNC 20dbc 13 0 __crt_stdio_output::standard_base<wchar_t,__crt_stdio_output::stream_output_adapter<wchar_t> >::extract_argument_from_va_list<unsigned char,__int64>(long long&)
FUNC 20dd4 13 0 __crt_stdio_output::standard_base<wchar_t,__crt_stdio_output::string_output_adapter<wchar_t> >::extract_argument_from_va_list<unsigned char,__int64>(long long&)
FUNC 20dec bc 0 __crt_stdio_output::positional_parameter_base<char,__crt_stdio_output::stream_output_adapter<char> >::extract_argument_from_va_list<short,__int64>(long long&)
FUNC 20ed8 bc 0 __crt_stdio_output::positional_parameter_base<char,__crt_stdio_output::string_output_adapter<char> >::extract_argument_from_va_list<short,__int64>(long long&)
FUNC 20fc4 be 0 __crt_stdio_output::positional_parameter_base<wchar_t,__crt_stdio_output::stream_output_adapter<wchar_t> >::extract_argument_from_va_list<short,__int64>(long long&)
FUNC 210b4 be 0 __crt_stdio_output::positional_parameter_base<wchar_t,__crt_stdio_output::string_output_adapter<wchar_t> >::extract_argument_from_va_list<short,__int64>(long long&)
FUNC 211a4 14 0 __crt_stdio_output::standard_base<char,__crt_stdio_output::stream_output_adapter<char> >::extract_argument_from_va_list<short,__int64>(long long&)
FUNC 211c0 14 0 __crt_stdio_output::standard_base<char,__crt_stdio_output::string_output_adapter<char> >::extract_argument_from_va_list<short,__int64>(long long&)
FUNC 211dc 14 0 __crt_stdio_output::standard_base<wchar_t,__crt_stdio_output::stream_output_adapter<wchar_t> >::extract_argument_from_va_list<short,__int64>(long long&)
FUNC 211f8 14 0 __crt_stdio_output::standard_base<wchar_t,__crt_stdio_output::string_output_adapter<wchar_t> >::extract_argument_from_va_list<short,__int64>(long long&)
FUNC 21214 b8 0 __crt_stdio_output::positional_parameter_base<char,__crt_stdio_output::stream_output_adapter<char> >::extract_argument_from_va_list<unsigned short,char>(char&)
FUNC 212fc b8 0 __crt_stdio_output::positional_parameter_base<char,__crt_stdio_output::string_output_adapter<char> >::extract_argument_from_va_list<unsigned short,char>(char&)
FUNC 213e4 11 0 __crt_stdio_output::standard_base<char,__crt_stdio_output::stream_output_adapter<char> >::extract_argument_from_va_list<unsigned short,char>(char&)
FUNC 213fc 11 0 __crt_stdio_output::standard_base<char,__crt_stdio_output::string_output_adapter<char> >::extract_argument_from_va_list<unsigned short,char>(char&)
FUNC 21414 bb 0 __crt_stdio_output::positional_parameter_base<char,__crt_stdio_output::stream_output_adapter<char> >::extract_argument_from_va_list<unsigned short,__int64>(long long&)
FUNC 21500 bb 0 __crt_stdio_output::positional_parameter_base<char,__crt_stdio_output::string_output_adapter<char> >::extract_argument_from_va_list<unsigned short,__int64>(long long&)
FUNC 215ec bd 0 __crt_stdio_output::positional_parameter_base<wchar_t,__crt_stdio_output::stream_output_adapter<wchar_t> >::extract_argument_from_va_list<unsigned short,__int64>(long long&)
FUNC 216d8 bd 0 __crt_stdio_output::positional_parameter_base<wchar_t,__crt_stdio_output::string_output_adapter<wchar_t> >::extract_argument_from_va_list<unsigned short,__int64>(long long&)
FUNC 217c4 13 0 __crt_stdio_output::standard_base<char,__crt_stdio_output::stream_output_adapter<char> >::extract_argument_from_va_list<unsigned short,__int64>(long long&)
FUNC 217dc 13 0 __crt_stdio_output::standard_base<char,__crt_stdio_output::string_output_adapter<char> >::extract_argument_from_va_list<unsigned short,__int64>(long long&)
FUNC 217f4 13 0 __crt_stdio_output::standard_base<wchar_t,__crt_stdio_output::stream_output_adapter<wchar_t> >::extract_argument_from_va_list<unsigned short,__int64>(long long&)
FUNC 2180c 13 0 __crt_stdio_output::standard_base<wchar_t,__crt_stdio_output::string_output_adapter<wchar_t> >::extract_argument_from_va_list<unsigned short,__int64>(long long&)
FUNC 21824 ba 0 __crt_stdio_output::positional_parameter_base<char,__crt_stdio_output::stream_output_adapter<char> >::extract_argument_from_va_list<int,__int64>(long long&)
FUNC 2190c ba 0 __crt_stdio_output::positional_parameter_base<char,__crt_stdio_output::string_output_adapter<char> >::extract_argument_from_va_list<int,__int64>(long long&)
FUNC 219f4 bc 0 __crt_stdio_output::positional_parameter_base<wchar_t,__crt_stdio_output::stream_output_adapter<wchar_t> >::extract_argument_from_va_list<int,__int64>(long long&)
FUNC 21ae0 bc 0 __crt_stdio_output::positional_parameter_base<wchar_t,__crt_stdio_output::string_output_adapter<wchar_t> >::extract_argument_from_va_list<int,__int64>(long long&)
FUNC 21bcc 13 0 __crt_stdio_output::standard_base<char,__crt_stdio_output::stream_output_adapter<char> >::extract_argument_from_va_list<int,__int64>(long long&)
FUNC 21be4 13 0 __crt_stdio_output::standard_base<char,__crt_stdio_output::string_output_adapter<char> >::extract_argument_from_va_list<int,__int64>(long long&)
FUNC 21bfc 13 0 __crt_stdio_output::standard_base<wchar_t,__crt_stdio_output::stream_output_adapter<wchar_t> >::extract_argument_from_va_list<int,__int64>(long long&)
FUNC 21c14 13 0 __crt_stdio_output::standard_base<wchar_t,__crt_stdio_output::string_output_adapter<wchar_t> >::extract_argument_from_va_list<int,__int64>(long long&)
FUNC 21c2c b9 0 __crt_stdio_output::positional_parameter_base<char,__crt_stdio_output::stream_output_adapter<char> >::extract_argument_from_va_list<unsigned int,__int64>(long long&)
FUNC 21d14 b9 0 __crt_stdio_output::positional_parameter_base<char,__crt_stdio_output::string_output_adapter<char> >::extract_argument_from_va_list<unsigned int,__int64>(long long&)
FUNC 21dfc bb 0 __crt_stdio_output::positional_parameter_base<wchar_t,__crt_stdio_output::stream_output_adapter<wchar_t> >::extract_argument_from_va_list<unsigned int,__int64>(long long&)
FUNC 21ee8 bb 0 __crt_stdio_output::positional_parameter_base<wchar_t,__crt_stdio_output::string_output_adapter<wchar_t> >::extract_argument_from_va_list<unsigned int,__int64>(long long&)
FUNC 21fd4 12 0 __crt_stdio_output::standard_base<char,__crt_stdio_output::stream_output_adapter<char> >::extract_argument_from_va_list<unsigned int,__int64>(long long&)
FUNC 21fec 12 0 __crt_stdio_output::standard_base<char,__crt_stdio_output::string_output_adapter<char> >::extract_argument_from_va_list<unsigned int,__int64>(long long&)
FUNC 22004 12 0 __crt_stdio_output::standard_base<wchar_t,__crt_stdio_output::stream_output_adapter<wchar_t> >::extract_argument_from_va_list<unsigned int,__int64>(long long&)
FUNC 2201c 12 0 __crt_stdio_output::standard_base<wchar_t,__crt_stdio_output::string_output_adapter<wchar_t> >::extract_argument_from_va_list<unsigned int,__int64>(long long&)
FUNC 22034 ba 0 __crt_stdio_output::positional_parameter_base<char,__crt_stdio_output::stream_output_adapter<char> >::extract_argument_from_va_list<char *,char *>(char*&)
FUNC 2211c ba 0 __crt_stdio_output::positional_parameter_base<char,__crt_stdio_output::string_output_adapter<char> >::extract_argument_from_va_list<char *,char *>(char*&)
FUNC 22204 bc 0 __crt_stdio_output::positional_parameter_base<wchar_t,__crt_stdio_output::stream_output_adapter<wchar_t> >::extract_argument_from_va_list<char *,char *>(char*&)
FUNC 222f0 bc 0 __crt_stdio_output::positional_parameter_base<wchar_t,__crt_stdio_output::string_output_adapter<wchar_t> >::extract_argument_from_va_list<char *,char *>(char*&)
FUNC 223dc 13 0 __crt_stdio_output::standard_base<char,__crt_stdio_output::stream_output_adapter<char> >::extract_argument_from_va_list<char *,char *>(char*&)
FUNC 223f4 13 0 __crt_stdio_output::standard_base<char,__crt_stdio_output::string_output_adapter<char> >::extract_argument_from_va_list<char *,char *>(char*&)
FUNC 2240c 13 0 __crt_stdio_output::standard_base<wchar_t,__crt_stdio_output::stream_output_adapter<wchar_t> >::extract_argument_from_va_list<char *,char *>(char*&)
FUNC 22424 13 0 __crt_stdio_output::standard_base<wchar_t,__crt_stdio_output::string_output_adapter<wchar_t> >::extract_argument_from_va_list<char *,char *>(char*&)
FUNC 2243c 13 0 __crt_stdio_output::standard_base<char,__crt_stdio_output::stream_output_adapter<char> >::extract_argument_from_va_list<`__crt_stdio_output::output_processor<char,__crt_stdio_output::stream_output_adapter<char>,__crt_stdio_output::format_validation_base<char,__crt_stdio_output::stream_output_adapter<char> > >::type_case_Z'::`2'::ansi_string *,`__crt_stdio_output::output_processor<char,__crt_stdio_output::stream_output_adapter<char>,__crt_stdio_output::format_validation_base<char,__crt_stdio_output::stream_output_adapter<char> > >::type_case_Z'::`2'::ansi_string *>(__crt_stdio_output::output_processor<char,__crt_stdio_output::stream_output_adapter<char>,__crt_stdio_output::format_validation_base<char,__crt_stdio_output::stream_output_adapter<char> > >::type_case_Z::__l2::ansi_string*&)
FUNC 22454 ba 0 __crt_stdio_output::positional_parameter_base<char,__crt_stdio_output::stream_output_adapter<char> >::extract_argument_from_va_list<`__crt_stdio_output::output_processor<char,__crt_stdio_output::stream_output_adapter<char>,__crt_stdio_output::positional_parameter_base<char,__crt_stdio_output::stream_output_adapter<char> > >::type_case_Z'::`2'::ansi_string *,`__crt_stdio_output::output_processor<char,__crt_stdio_output::stream_output_adapter<char>,__crt_stdio_output::positional_parameter_base<char,__crt_stdio_output::stream_output_adapter<char> > >::type_case_Z'::`2'::ansi_string *>(__crt_stdio_output::output_processor<char,__crt_stdio_output::stream_output_adapter<char>,__crt_stdio_output::positional_parameter_base<char,__crt_stdio_output::stream_output_adapter<char> > >::type_case_Z::__l2::ansi_string*&)
FUNC 2253c 13 0 __crt_stdio_output::standard_base<char,__crt_stdio_output::stream_output_adapter<char> >::extract_argument_from_va_list<`__crt_stdio_output::output_processor<char,__crt_stdio_output::stream_output_adapter<char>,__crt_stdio_output::positional_parameter_base<char,__crt_stdio_output::stream_output_adapter<char> > >::type_case_Z'::`2'::ansi_string *,`__crt_stdio_output::output_processor<char,__crt_stdio_output::stream_output_adapter<char>,__crt_stdio_output::positional_parameter_base<char,__crt_stdio_output::stream_output_adapter<char> > >::type_case_Z'::`2'::ansi_string *>(__crt_stdio_output::output_processor<char,__crt_stdio_output::stream_output_adapter<char>,__crt_stdio_output::positional_parameter_base<char,__crt_stdio_output::stream_output_adapter<char> > >::type_case_Z::__l2::ansi_string*&)
FUNC 22554 13 0 __crt_stdio_output::standard_base<char,__crt_stdio_output::stream_output_adapter<char> >::extract_argument_from_va_list<`__crt_stdio_output::output_processor<char,__crt_stdio_output::stream_output_adapter<char>,__crt_stdio_output::standard_base<char,__crt_stdio_output::stream_output_adapter<char> > >::type_case_Z'::`2'::ansi_string *,`__crt_stdio_output::output_processor<char,__crt_stdio_output::stream_output_adapter<char>,__crt_stdio_output::standard_base<char,__crt_stdio_output::stream_output_adapter<char> > >::type_case_Z'::`2'::ansi_string *>(__crt_stdio_output::output_processor<char,__crt_stdio_output::stream_output_adapter<char>,__crt_stdio_output::standard_base<char,__crt_stdio_output::stream_output_adapter<char> > >::type_case_Z::__l2::ansi_string*&)
FUNC 2256c 13 0 __crt_stdio_output::standard_base<char,__crt_stdio_output::string_output_adapter<char> >::extract_argument_from_va_list<`__crt_stdio_output::output_processor<char,__crt_stdio_output::string_output_adapter<char>,__crt_stdio_output::format_validation_base<char,__crt_stdio_output::string_output_adapter<char> > >::type_case_Z'::`2'::ansi_string *,`__crt_stdio_output::output_processor<char,__crt_stdio_output::string_output_adapter<char>,__crt_stdio_output::format_validation_base<char,__crt_stdio_output::string_output_adapter<char> > >::type_case_Z'::`2'::ansi_string *>(__crt_stdio_output::output_processor<char,__crt_stdio_output::string_output_adapter<char>,__crt_stdio_output::format_validation_base<char,__crt_stdio_output::string_output_adapter<char> > >::type_case_Z::__l2::ansi_string*&)
FUNC 22584 ba 0 __crt_stdio_output::positional_parameter_base<char,__crt_stdio_output::string_output_adapter<char> >::extract_argument_from_va_list<`__crt_stdio_output::output_processor<char,__crt_stdio_output::string_output_adapter<char>,__crt_stdio_output::positional_parameter_base<char,__crt_stdio_output::string_output_adapter<char> > >::type_case_Z'::`2'::ansi_string *,`__crt_stdio_output::output_processor<char,__crt_stdio_output::string_output_adapter<char>,__crt_stdio_output::positional_parameter_base<char,__crt_stdio_output::string_output_adapter<char> > >::type_case_Z'::`2'::ansi_string *>(__crt_stdio_output::output_processor<char,__crt_stdio_output::string_output_adapter<char>,__crt_stdio_output::positional_parameter_base<char,__crt_stdio_output::string_output_adapter<char> > >::type_case_Z::__l2::ansi_string*&)
FUNC 2266c 13 0 __crt_stdio_output::standard_base<char,__crt_stdio_output::string_output_adapter<char> >::extract_argument_from_va_list<`__crt_stdio_output::output_processor<char,__crt_stdio_output::string_output_adapter<char>,__crt_stdio_output::positional_parameter_base<char,__crt_stdio_output::string_output_adapter<char> > >::type_case_Z'::`2'::ansi_string *,`__crt_stdio_output::output_processor<char,__crt_stdio_output::string_output_adapter<char>,__crt_stdio_output::positional_parameter_base<char,__crt_stdio_output::string_output_adapter<char> > >::type_case_Z'::`2'::ansi_string *>(__crt_stdio_output::output_processor<char,__crt_stdio_output::string_output_adapter<char>,__crt_stdio_output::positional_parameter_base<char,__crt_stdio_output::string_output_adapter<char> > >::type_case_Z::__l2::ansi_string*&)
FUNC 22684 13 0 __crt_stdio_output::standard_base<char,__crt_stdio_output::string_output_adapter<char> >::extract_argument_from_va_list<`__crt_stdio_output::output_processor<char,__crt_stdio_output::string_output_adapter<char>,__crt_stdio_output::standard_base<char,__crt_stdio_output::string_output_adapter<char> > >::type_case_Z'::`2'::ansi_string *,`__crt_stdio_output::output_processor<char,__crt_stdio_output::string_output_adapter<char>,__crt_stdio_output::standard_base<char,__crt_stdio_output::string_output_adapter<char> > >::type_case_Z'::`2'::ansi_string *>(__crt_stdio_output::output_processor<char,__crt_stdio_output::string_output_adapter<char>,__crt_stdio_output::standard_base<char,__crt_stdio_output::string_output_adapter<char> > >::type_case_Z::__l2::ansi_string*&)
FUNC 2269c 13 0 __crt_stdio_output::standard_base<wchar_t,__crt_stdio_output::stream_output_adapter<wchar_t> >::extract_argument_from_va_list<`__crt_stdio_output::output_processor<wchar_t,__crt_stdio_output::stream_output_adapter<wchar_t>,__crt_stdio_output::format_validation_base<wchar_t,__crt_stdio_output::stream_output_adapter<wchar_t> > >::type_case_Z'::`2'::ansi_string *,`__crt_stdio_output::output_processor<wchar_t,__crt_stdio_output::stream_output_adapter<wchar_t>,__crt_stdio_output::format_validation_base<wchar_t,__crt_stdio_output::stream_output_adapter<wchar_t> > >::type_case_Z'::`2'::ansi_string *>(__crt_stdio_output::output_processor<wchar_t,__crt_stdio_output::stream_output_adapter<wchar_t>,__crt_stdio_output::format_validation_base<wchar_t,__crt_stdio_output::stream_output_adapter<wchar_t> > >::type_case_Z::__l2::ansi_string*&)
FUNC 226b4 bc 0 __crt_stdio_output::positional_parameter_base<wchar_t,__crt_stdio_output::stream_output_adapter<wchar_t> >::extract_argument_from_va_list<`__crt_stdio_output::output_processor<wchar_t,__crt_stdio_output::stream_output_adapter<wchar_t>,__crt_stdio_output::positional_parameter_base<wchar_t,__crt_stdio_output::stream_output_adapter<wchar_t> > >::type_case_Z'::`2'::ansi_string *,`__crt_stdio_output::output_processor<wchar_t,__crt_stdio_output::stream_output_adapter<wchar_t>,__crt_stdio_output::positional_parameter_base<wchar_t,__crt_stdio_output::stream_output_adapter<wchar_t> > >::type_case_Z'::`2'::ansi_string *>(__crt_stdio_output::output_processor<wchar_t,__crt_stdio_output::stream_output_adapter<wchar_t>,__crt_stdio_output::positional_parameter_base<wchar_t,__crt_stdio_output::stream_output_adapter<wchar_t> > >::type_case_Z::__l2::ansi_string*&)
FUNC 227a0 13 0 __crt_stdio_output::standard_base<wchar_t,__crt_stdio_output::stream_output_adapter<wchar_t> >::extract_argument_from_va_list<`__crt_stdio_output::output_processor<wchar_t,__crt_stdio_output::stream_output_adapter<wchar_t>,__crt_stdio_output::positional_parameter_base<wchar_t,__crt_stdio_output::stream_output_adapter<wchar_t> > >::type_case_Z'::`2'::ansi_string *,`__crt_stdio_output::output_processor<wchar_t,__crt_stdio_output::stream_output_adapter<wchar_t>,__crt_stdio_output::positional_parameter_base<wchar_t,__crt_stdio_output::stream_output_adapter<wchar_t> > >::type_case_Z'::`2'::ansi_string *>(__crt_stdio_output::output_processor<wchar_t,__crt_stdio_output::stream_output_adapter<wchar_t>,__crt_stdio_output::positional_parameter_base<wchar_t,__crt_stdio_output::stream_output_adapter<wchar_t> > >::type_case_Z::__l2::ansi_string*&)
FUNC 227b8 13 0 __crt_stdio_output::standard_base<wchar_t,__crt_stdio_output::stream_output_adapter<wchar_t> >::extract_argument_from_va_list<`__crt_stdio_output::output_processor<wchar_t,__crt_stdio_output::stream_output_adapter<wchar_t>,__crt_stdio_output::standard_base<wchar_t,__crt_stdio_output::stream_output_adapter<wchar_t> > >::type_case_Z'::`2'::ansi_string *,`__crt_stdio_output::output_processor<wchar_t,__crt_stdio_output::stream_output_adapter<wchar_t>,__crt_stdio_output::standard_base<wchar_t,__crt_stdio_output::stream_output_adapter<wchar_t> > >::type_case_Z'::`2'::ansi_string *>(__crt_stdio_output::output_processor<wchar_t,__crt_stdio_output::stream_output_adapter<wchar_t>,__crt_stdio_output::standard_base<wchar_t,__crt_stdio_output::stream_output_adapter<wchar_t> > >::type_case_Z::__l2::ansi_string*&)
FUNC 227d0 13 0 __crt_stdio_output::standard_base<wchar_t,__crt_stdio_output::string_output_adapter<wchar_t> >::extract_argument_from_va_list<`__crt_stdio_output::output_processor<wchar_t,__crt_stdio_output::string_output_adapter<wchar_t>,__crt_stdio_output::format_validation_base<wchar_t,__crt_stdio_output::string_output_adapter<wchar_t> > >::type_case_Z'::`2'::ansi_string *,`__crt_stdio_output::output_processor<wchar_t,__crt_stdio_output::string_output_adapter<wchar_t>,__crt_stdio_output::format_validation_base<wchar_t,__crt_stdio_output::string_output_adapter<wchar_t> > >::type_case_Z'::`2'::ansi_string *>(__crt_stdio_output::output_processor<wchar_t,__crt_stdio_output::string_output_adapter<wchar_t>,__crt_stdio_output::format_validation_base<wchar_t,__crt_stdio_output::string_output_adapter<wchar_t> > >::type_case_Z::__l2::ansi_string*&)
FUNC 227e8 bc 0 __crt_stdio_output::positional_parameter_base<wchar_t,__crt_stdio_output::string_output_adapter<wchar_t> >::extract_argument_from_va_list<`__crt_stdio_output::output_processor<wchar_t,__crt_stdio_output::string_output_adapter<wchar_t>,__crt_stdio_output::positional_parameter_base<wchar_t,__crt_stdio_output::string_output_adapter<wchar_t> > >::type_case_Z'::`2'::ansi_string *,`__crt_stdio_output::output_processor<wchar_t,__crt_stdio_output::string_output_adapter<wchar_t>,__crt_stdio_output::positional_parameter_base<wchar_t,__crt_stdio_output::string_output_adapter<wchar_t> > >::type_case_Z'::`2'::ansi_string *>(__crt_stdio_output::output_processor<wchar_t,__crt_stdio_output::string_output_adapter<wchar_t>,__crt_stdio_output::positional_parameter_base<wchar_t,__crt_stdio_output::string_output_adapter<wchar_t> > >::type_case_Z::__l2::ansi_string*&)
FUNC 228d4 13 0 __crt_stdio_output::standard_base<wchar_t,__crt_stdio_output::string_output_adapter<wchar_t> >::extract_argument_from_va_list<`__crt_stdio_output::output_processor<wchar_t,__crt_stdio_output::string_output_adapter<wchar_t>,__crt_stdio_output::positional_parameter_base<wchar_t,__crt_stdio_output::string_output_adapter<wchar_t> > >::type_case_Z'::`2'::ansi_string *,`__crt_stdio_output::output_processor<wchar_t,__crt_stdio_output::string_output_adapter<wchar_t>,__crt_stdio_output::positional_parameter_base<wchar_t,__crt_stdio_output::string_output_adapter<wchar_t> > >::type_case_Z'::`2'::ansi_string *>(__crt_stdio_output::output_processor<wchar_t,__crt_stdio_output::string_output_adapter<wchar_t>,__crt_stdio_output::positional_parameter_base<wchar_t,__crt_stdio_output::string_output_adapter<wchar_t> > >::type_case_Z::__l2::ansi_string*&)
FUNC 228ec 13 0 __crt_stdio_output::standard_base<wchar_t,__crt_stdio_output::string_output_adapter<wchar_t> >::extract_argument_from_va_list<`__crt_stdio_output::output_processor<wchar_t,__crt_stdio_output::string_output_adapter<wchar_t>,__crt_stdio_output::standard_base<wchar_t,__crt_stdio_output::string_output_adapter<wchar_t> > >::type_case_Z'::`2'::ansi_string *,`__crt_stdio_output::output_processor<wchar_t,__crt_stdio_output::string_output_adapter<wchar_t>,__crt_stdio_output::standard_base<wchar_t,__crt_stdio_output::string_output_adapter<wchar_t> > >::type_case_Z'::`2'::ansi_string *>(__crt_stdio_output::output_processor<wchar_t,__crt_stdio_output::string_output_adapter<wchar_t>,__crt_stdio_output::standard_base<wchar_t,__crt_stdio_output::string_output_adapter<wchar_t> > >::type_case_Z::__l2::ansi_string*&)
FUNC 22904 ba 0 __crt_stdio_output::positional_parameter_base<char,__crt_stdio_output::stream_output_adapter<char> >::extract_argument_from_va_list<void *,void *>(void*&)
FUNC 229ec ba 0 __crt_stdio_output::positional_parameter_base<char,__crt_stdio_output::string_output_adapter<char> >::extract_argument_from_va_list<void *,void *>(void*&)
FUNC 22ad4 bc 0 __crt_stdio_output::positional_parameter_base<wchar_t,__crt_stdio_output::stream_output_adapter<wchar_t> >::extract_argument_from_va_list<void *,void *>(void*&)
FUNC 22bc0 bc 0 __crt_stdio_output::positional_parameter_base<wchar_t,__crt_stdio_output::string_output_adapter<wchar_t> >::extract_argument_from_va_list<void *,void *>(void*&)
FUNC 22cac 13 0 __crt_stdio_output::standard_base<char,__crt_stdio_output::stream_output_adapter<char> >::extract_argument_from_va_list<void *,void *>(void*&)
FUNC 22cc4 13 0 __crt_stdio_output::standard_base<char,__crt_stdio_output::string_output_adapter<char> >::extract_argument_from_va_list<void *,void *>(void*&)
FUNC 22cdc 13 0 __crt_stdio_output::standard_base<wchar_t,__crt_stdio_output::stream_output_adapter<wchar_t> >::extract_argument_from_va_list<void *,void *>(void*&)
FUNC 22cf4 13 0 __crt_stdio_output::standard_base<wchar_t,__crt_stdio_output::string_output_adapter<wchar_t> >::extract_argument_from_va_list<void *,void *>(void*&)
FUNC 22d0c ba 0 __crt_stdio_output::positional_parameter_base<char,__crt_stdio_output::stream_output_adapter<char> >::extract_argument_from_va_list<_CRT_DOUBLE,_CRT_DOUBLE>(_CRT_DOUBLE&)
FUNC 22df4 ba 0 __crt_stdio_output::positional_parameter_base<char,__crt_stdio_output::string_output_adapter<char> >::extract_argument_from_va_list<_CRT_DOUBLE,_CRT_DOUBLE>(_CRT_DOUBLE&)
FUNC 22edc bc 0 __crt_stdio_output::positional_parameter_base<wchar_t,__crt_stdio_output::stream_output_adapter<wchar_t> >::extract_argument_from_va_list<_CRT_DOUBLE,_CRT_DOUBLE>(_CRT_DOUBLE&)
FUNC 22fc8 bc 0 __crt_stdio_output::positional_parameter_base<wchar_t,__crt_stdio_output::string_output_adapter<wchar_t> >::extract_argument_from_va_list<_CRT_DOUBLE,_CRT_DOUBLE>(_CRT_DOUBLE&)
FUNC 230b4 15 0 __crt_stdio_output::standard_base<char,__crt_stdio_output::stream_output_adapter<char> >::extract_argument_from_va_list<_CRT_DOUBLE,_CRT_DOUBLE>(_CRT_DOUBLE&)
FUNC 230d0 15 0 __crt_stdio_output::standard_base<char,__crt_stdio_output::string_output_adapter<char> >::extract_argument_from_va_list<_CRT_DOUBLE,_CRT_DOUBLE>(_CRT_DOUBLE&)
FUNC 230ec 15 0 __crt_stdio_output::standard_base<wchar_t,__crt_stdio_output::stream_output_adapter<wchar_t> >::extract_argument_from_va_list<_CRT_DOUBLE,_CRT_DOUBLE>(_CRT_DOUBLE&)
FUNC 23108 15 0 __crt_stdio_output::standard_base<wchar_t,__crt_stdio_output::string_output_adapter<wchar_t> >::extract_argument_from_va_list<_CRT_DOUBLE,_CRT_DOUBLE>(_CRT_DOUBLE&)
FUNC 23124 ba 0 __crt_stdio_output::positional_parameter_base<char,__crt_stdio_output::stream_output_adapter<char> >::extract_argument_from_va_list<__int64,__int64>(long long&)
FUNC 2320c ba 0 __crt_stdio_output::positional_parameter_base<char,__crt_stdio_output::string_output_adapter<char> >::extract_argument_from_va_list<__int64,__int64>(long long&)
FUNC 232f4 bc 0 __crt_stdio_output::positional_parameter_base<wchar_t,__crt_stdio_output::stream_output_adapter<wchar_t> >::extract_argument_from_va_list<__int64,__int64>(long long&)
FUNC 233e0 bc 0 __crt_stdio_output::positional_parameter_base<wchar_t,__crt_stdio_output::string_output_adapter<wchar_t> >::extract_argument_from_va_list<__int64,__int64>(long long&)
FUNC 234cc 13 0 __crt_stdio_output::standard_base<char,__crt_stdio_output::stream_output_adapter<char> >::extract_argument_from_va_list<__int64,__int64>(long long&)
FUNC 234e4 13 0 __crt_stdio_output::standard_base<char,__crt_stdio_output::string_output_adapter<char> >::extract_argument_from_va_list<__int64,__int64>(long long&)
FUNC 234fc 13 0 __crt_stdio_output::standard_base<wchar_t,__crt_stdio_output::stream_output_adapter<wchar_t> >::extract_argument_from_va_list<__int64,__int64>(long long&)
FUNC 23514 13 0 __crt_stdio_output::standard_base<wchar_t,__crt_stdio_output::string_output_adapter<wchar_t> >::extract_argument_from_va_list<__int64,__int64>(long long&)
FUNC 2352c ba 0 __crt_stdio_output::positional_parameter_base<char,__crt_stdio_output::stream_output_adapter<char> >::extract_argument_from_va_list<unsigned __int64,__int64>(long long&)
FUNC 23614 ba 0 __crt_stdio_output::positional_parameter_base<char,__crt_stdio_output::string_output_adapter<char> >::extract_argument_from_va_list<unsigned __int64,__int64>(long long&)
FUNC 236fc bc 0 __crt_stdio_output::positional_parameter_base<wchar_t,__crt_stdio_output::stream_output_adapter<wchar_t> >::extract_argument_from_va_list<unsigned __int64,__int64>(long long&)
FUNC 237e8 bc 0 __crt_stdio_output::positional_parameter_base<wchar_t,__crt_stdio_output::string_output_adapter<wchar_t> >::extract_argument_from_va_list<unsigned __int64,__int64>(long long&)
FUNC 238d4 13 0 __crt_stdio_output::standard_base<char,__crt_stdio_output::stream_output_adapter<char> >::extract_argument_from_va_list<unsigned __int64,__int64>(long long&)
FUNC 238ec 13 0 __crt_stdio_output::standard_base<char,__crt_stdio_output::string_output_adapter<char> >::extract_argument_from_va_list<unsigned __int64,__int64>(long long&)
FUNC 23904 13 0 __crt_stdio_output::standard_base<wchar_t,__crt_stdio_output::stream_output_adapter<wchar_t> >::extract_argument_from_va_list<unsigned __int64,__int64>(long long&)
FUNC 2391c 13 0 __crt_stdio_output::standard_base<wchar_t,__crt_stdio_output::string_output_adapter<wchar_t> >::extract_argument_from_va_list<unsigned __int64,__int64>(long long&)
FUNC 23934 bc 0 __crt_stdio_output::positional_parameter_base<char,__crt_stdio_output::stream_output_adapter<char> >::extract_argument_from_va_list<wchar_t,wchar_t>(wchar_t&)
FUNC 23a20 bc 0 __crt_stdio_output::positional_parameter_base<char,__crt_stdio_output::string_output_adapter<char> >::extract_argument_from_va_list<wchar_t,wchar_t>(wchar_t&)
FUNC 23b0c be 0 __crt_stdio_output::positional_parameter_base<wchar_t,__crt_stdio_output::stream_output_adapter<wchar_t> >::extract_argument_from_va_list<wchar_t,wchar_t>(wchar_t&)
FUNC 23bfc be 0 __crt_stdio_output::positional_parameter_base<wchar_t,__crt_stdio_output::string_output_adapter<wchar_t> >::extract_argument_from_va_list<wchar_t,wchar_t>(wchar_t&)
FUNC 23cec 13 0 __crt_stdio_output::standard_base<char,__crt_stdio_output::stream_output_adapter<char> >::extract_argument_from_va_list<wchar_t,wchar_t>(wchar_t&)
FUNC 23d04 13 0 __crt_stdio_output::standard_base<char,__crt_stdio_output::string_output_adapter<char> >::extract_argument_from_va_list<wchar_t,wchar_t>(wchar_t&)
FUNC 23d1c 13 0 __crt_stdio_output::standard_base<wchar_t,__crt_stdio_output::stream_output_adapter<wchar_t> >::extract_argument_from_va_list<wchar_t,wchar_t>(wchar_t&)
FUNC 23d34 13 0 __crt_stdio_output::standard_base<wchar_t,__crt_stdio_output::string_output_adapter<wchar_t> >::extract_argument_from_va_list<wchar_t,wchar_t>(wchar_t&)
FUNC 23d4c 6 0 __crt_stdio_output::positional_parameter_base<char,__crt_stdio_output::stream_output_adapter<char> >::get_parameter_type<char>(char*)
FUNC 23d54 6 0 __crt_stdio_output::positional_parameter_base<char,__crt_stdio_output::string_output_adapter<char> >::get_parameter_type<char>(char*)
FUNC 23d5c 6 0 __crt_stdio_output::positional_parameter_base<wchar_t,__crt_stdio_output::stream_output_adapter<wchar_t> >::get_parameter_type<char>(char*)
FUNC 23d64 6 0 __crt_stdio_output::positional_parameter_base<wchar_t,__crt_stdio_output::string_output_adapter<wchar_t> >::get_parameter_type<char>(char*)
FUNC 23d6c 6 0 __crt_stdio_output::positional_parameter_base<char,__crt_stdio_output::stream_output_adapter<char> >::get_parameter_type<`__crt_stdio_output::output_processor<char,__crt_stdio_output::stream_output_adapter<char>,__crt_stdio_output::positional_parameter_base<char,__crt_stdio_output::stream_output_adapter<char> > >::type_case_Z'::`2'::ansi_string>(__crt_stdio_output::output_processor<char,__crt_stdio_output::stream_output_adapter<char>,__crt_stdio_output::positional_parameter_base<char,__crt_stdio_output::stream_output_adapter<char> > >::type_case_Z::__l2::ansi_string*)
FUNC 23d74 6 0 __crt_stdio_output::positional_parameter_base<char,__crt_stdio_output::string_output_adapter<char> >::get_parameter_type<`__crt_stdio_output::output_processor<char,__crt_stdio_output::string_output_adapter<char>,__crt_stdio_output::positional_parameter_base<char,__crt_stdio_output::string_output_adapter<char> > >::type_case_Z'::`2'::ansi_string>(__crt_stdio_output::output_processor<char,__crt_stdio_output::string_output_adapter<char>,__crt_stdio_output::positional_parameter_base<char,__crt_stdio_output::string_output_adapter<char> > >::type_case_Z::__l2::ansi_string*)
FUNC 23d7c 6 0 __crt_stdio_output::positional_parameter_base<wchar_t,__crt_stdio_output::stream_output_adapter<wchar_t> >::get_parameter_type<`__crt_stdio_output::output_processor<wchar_t,__crt_stdio_output::stream_output_adapter<wchar_t>,__crt_stdio_output::positional_parameter_base<wchar_t,__crt_stdio_output::stream_output_adapter<wchar_t> > >::type_case_Z'::`2'::ansi_string>(__crt_stdio_output::output_processor<wchar_t,__crt_stdio_output::stream_output_adapter<wchar_t>,__crt_stdio_output::positional_parameter_base<wchar_t,__crt_stdio_output::stream_output_adapter<wchar_t> > >::type_case_Z::__l2::ansi_string*)
FUNC 23d84 6 0 __crt_stdio_output::positional_parameter_base<wchar_t,__crt_stdio_output::string_output_adapter<wchar_t> >::get_parameter_type<`__crt_stdio_output::output_processor<wchar_t,__crt_stdio_output::string_output_adapter<wchar_t>,__crt_stdio_output::positional_parameter_base<wchar_t,__crt_stdio_output::string_output_adapter<wchar_t> > >::type_case_Z'::`2'::ansi_string>(__crt_stdio_output::output_processor<wchar_t,__crt_stdio_output::string_output_adapter<wchar_t>,__crt_stdio_output::positional_parameter_base<wchar_t,__crt_stdio_output::string_output_adapter<wchar_t> > >::type_case_Z::__l2::ansi_string*)
FUNC 23d8c 6 0 __crt_stdio_output::positional_parameter_base<char,__crt_stdio_output::stream_output_adapter<char> >::get_parameter_type<void>(void*)
FUNC 23d94 6 0 __crt_stdio_output::positional_parameter_base<char,__crt_stdio_output::string_output_adapter<char> >::get_parameter_type<void>(void*)
FUNC 23d9c 6 0 __crt_stdio_output::positional_parameter_base<wchar_t,__crt_stdio_output::stream_output_adapter<wchar_t> >::get_parameter_type<void>(void*)
FUNC 23da4 6 0 __crt_stdio_output::positional_parameter_base<wchar_t,__crt_stdio_output::string_output_adapter<wchar_t> >::get_parameter_type<void>(void*)
FUNC 23dac a 0 __crt_stdio_output::positional_parameter_base<char,__crt_stdio_output::stream_output_adapter<char> >::is_character_specifier<char>(const char)
FUNC 23db8 a 0 __crt_stdio_output::positional_parameter_base<char,__crt_stdio_output::string_output_adapter<char> >::is_character_specifier<char>(const char)
FUNC 23dc4 10 0 __crt_stdio_output::positional_parameter_base<wchar_t,__crt_stdio_output::stream_output_adapter<wchar_t> >::is_character_specifier<wchar_t>(const wchar_t)
FUNC 23dd8 10 0 __crt_stdio_output::positional_parameter_base<wchar_t,__crt_stdio_output::string_output_adapter<wchar_t> >::is_character_specifier<wchar_t>(const wchar_t)
FUNC 23dec 26 0 __crt_stdio_output::positional_parameter_base<char,__crt_stdio_output::stream_output_adapter<char> >::is_integral_specifier<char>(const char)
FUNC 23e1c 26 0 __crt_stdio_output::positional_parameter_base<char,__crt_stdio_output::string_output_adapter<char> >::is_integral_specifier<char>(const char)
FUNC 23e4c 28 0 __crt_stdio_output::positional_parameter_base<wchar_t,__crt_stdio_output::stream_output_adapter<wchar_t> >::is_integral_specifier<wchar_t>(const wchar_t)
FUNC 23e80 28 0 __crt_stdio_output::positional_parameter_base<wchar_t,__crt_stdio_output::string_output_adapter<wchar_t> >::is_integral_specifier<wchar_t>(const wchar_t)
FUNC 23eb4 7 0 __crt_stdio_output::positional_parameter_base<char,__crt_stdio_output::stream_output_adapter<char> >::is_pointer_specifier<char>(const char)
FUNC 23ebc 7 0 __crt_stdio_output::positional_parameter_base<char,__crt_stdio_output::string_output_adapter<char> >::is_pointer_specifier<char>(const char)
FUNC 23ec4 8 0 __crt_stdio_output::positional_parameter_base<wchar_t,__crt_stdio_output::stream_output_adapter<wchar_t> >::is_pointer_specifier<wchar_t>(const wchar_t)
FUNC 23ed0 8 0 __crt_stdio_output::positional_parameter_base<wchar_t,__crt_stdio_output::string_output_adapter<wchar_t> >::is_pointer_specifier<wchar_t>(const wchar_t)
FUNC 23edc a 0 __crt_stdio_output::positional_parameter_base<char,__crt_stdio_output::stream_output_adapter<char> >::is_string_specifier<char>(const char)
FUNC 23ee8 a 0 __crt_stdio_output::positional_parameter_base<char,__crt_stdio_output::string_output_adapter<char> >::is_string_specifier<char>(const char)
FUNC 23ef4 10 0 __crt_stdio_output::positional_parameter_base<wchar_t,__crt_stdio_output::stream_output_adapter<wchar_t> >::is_string_specifier<wchar_t>(const wchar_t)
FUNC 23f08 10 0 __crt_stdio_output::positional_parameter_base<wchar_t,__crt_stdio_output::string_output_adapter<wchar_t> >::is_string_specifier<wchar_t>(const wchar_t)
FUNC 23f1c 28 0 __crt_stdio_output::is_wide_character_specifier<char>(const unsigned long long, const char, const __crt_stdio_output::length_modifier)
FUNC 23f50 3e 0 __crt_stdio_output::is_wide_character_specifier<wchar_t>(const unsigned long long, const wchar_t, const __crt_stdio_output::length_modifier)
FUNC 23fa0 3 0 __crt_stdio_output::peek_va_arg<signed char>(char*)
FUNC 23fa4 3 0 __crt_stdio_output::peek_va_arg<unsigned char>(char*)
FUNC 23fa8 4 0 __crt_stdio_output::peek_va_arg<short>(char*)
FUNC 23fac 4 0 __crt_stdio_output::peek_va_arg<unsigned short>(char*)
FUNC 23fb0 3 0 __crt_stdio_output::peek_va_arg<int>(char*)
FUNC 23fb4 3 0 __crt_stdio_output::peek_va_arg<unsigned int>(char*)
FUNC 23fb8 4 0 __crt_stdio_output::peek_va_arg<char *>(char*)
FUNC 23fbc 4 0 __crt_stdio_output::peek_va_arg<`__crt_stdio_output::output_processor<char,__crt_stdio_output::stream_output_adapter<char>,__crt_stdio_output::positional_parameter_base<char,__crt_stdio_output::stream_output_adapter<char> > >::type_case_Z'::`2'::ansi_string *>(char*)
FUNC 23fc0 4 0 __crt_stdio_output::peek_va_arg<`__crt_stdio_output::output_processor<char,__crt_stdio_output::string_output_adapter<char>,__crt_stdio_output::positional_parameter_base<char,__crt_stdio_output::string_output_adapter<char> > >::type_case_Z'::`2'::ansi_string *>(char*)
FUNC 23fc4 4 0 __crt_stdio_output::peek_va_arg<`__crt_stdio_output::output_processor<wchar_t,__crt_stdio_output::stream_output_adapter<wchar_t>,__crt_stdio_output::positional_parameter_base<wchar_t,__crt_stdio_output::stream_output_adapter<wchar_t> > >::type_case_Z'::`2'::ansi_string *>(char*)
FUNC 23fc8 4 0 __crt_stdio_output::peek_va_arg<`__crt_stdio_output::output_processor<wchar_t,__crt_stdio_output::string_output_adapter<wchar_t>,__crt_stdio_output::positional_parameter_base<wchar_t,__crt_stdio_output::string_output_adapter<wchar_t> > >::type_case_Z'::`2'::ansi_string *>(char*)
FUNC 23fcc 4 0 __crt_stdio_output::peek_va_arg<void *>(char*)
FUNC 23fd0 4 0 __crt_stdio_output::peek_va_arg<_CRT_DOUBLE>(char*)
FUNC 23fd4 4 0 __crt_stdio_output::peek_va_arg<__int64>(char*)
FUNC 23fd8 4 0 __crt_stdio_output::peek_va_arg<unsigned __int64>(char*)
FUNC 23fdc 4 0 __crt_stdio_output::peek_va_arg<wchar_t>(char*)
FUNC 23fe0 b 0 __crt_char_traits<char>::puttc_nolock<char const &,_iobuf *>(char const&, _iobuf*&&)
FUNC 23ff0 b 0 __crt_char_traits<wchar_t>::puttc_nolock<wchar_t const &,_iobuf *>(wchar_t const&, _iobuf*&&)
FUNC 24000 b 0 __crt_stdio_output::read_va_arg<signed char>(char*&)
FUNC 24010 b 0 __crt_stdio_output::read_va_arg<unsigned char>(char*&)
FUNC 24020 c 0 __crt_stdio_output::read_va_arg<short>(char*&)
FUNC 24030 c 0 __crt_stdio_output::read_va_arg<unsigned short>(char*&)
FUNC 24040 b 0 __crt_stdio_output::read_va_arg<int>(char*&)
FUNC 24050 b 0 __crt_stdio_output::read_va_arg<unsigned int>(char*&)
FUNC 24060 c 0 __crt_stdio_output::read_va_arg<char *>(char*&)
FUNC 24070 c 0 __crt_stdio_output::read_va_arg<`__crt_stdio_output::output_processor<char,__crt_stdio_output::stream_output_adapter<char>,__crt_stdio_output::format_validation_base<char,__crt_stdio_output::stream_output_adapter<char> > >::type_case_Z'::`2'::ansi_string *>(char*&)
FUNC 24080 c 0 __crt_stdio_output::read_va_arg<`__crt_stdio_output::output_processor<char,__crt_stdio_output::stream_output_adapter<char>,__crt_stdio_output::positional_parameter_base<char,__crt_stdio_output::stream_output_adapter<char> > >::type_case_Z'::`2'::ansi_string *>(char*&)
FUNC 24090 c 0 __crt_stdio_output::read_va_arg<`__crt_stdio_output::output_processor<char,__crt_stdio_output::stream_output_adapter<char>,__crt_stdio_output::standard_base<char,__crt_stdio_output::stream_output_adapter<char> > >::type_case_Z'::`2'::ansi_string *>(char*&)
FUNC 240a0 c 0 __crt_stdio_output::read_va_arg<`__crt_stdio_output::output_processor<char,__crt_stdio_output::string_output_adapter<char>,__crt_stdio_output::format_validation_base<char,__crt_stdio_output::string_output_adapter<char> > >::type_case_Z'::`2'::ansi_string *>(char*&)
FUNC 240b0 c 0 __crt_stdio_output::read_va_arg<`__crt_stdio_output::output_processor<char,__crt_stdio_output::string_output_adapter<char>,__crt_stdio_output::positional_parameter_base<char,__crt_stdio_output::string_output_adapter<char> > >::type_case_Z'::`2'::ansi_string *>(char*&)
FUNC 240c0 c 0 __crt_stdio_output::read_va_arg<`__crt_stdio_output::output_processor<char,__crt_stdio_output::string_output_adapter<char>,__crt_stdio_output::standard_base<char,__crt_stdio_output::string_output_adapter<char> > >::type_case_Z'::`2'::ansi_string *>(char*&)
FUNC 240d0 c 0 __crt_stdio_output::read_va_arg<`__crt_stdio_output::output_processor<wchar_t,__crt_stdio_output::stream_output_adapter<wchar_t>,__crt_stdio_output::format_validation_base<wchar_t,__crt_stdio_output::stream_output_adapter<wchar_t> > >::type_case_Z'::`2'::ansi_string *>(char*&)
FUNC 240e0 c 0 __crt_stdio_output::read_va_arg<`__crt_stdio_output::output_processor<wchar_t,__crt_stdio_output::stream_output_adapter<wchar_t>,__crt_stdio_output::positional_parameter_base<wchar_t,__crt_stdio_output::stream_output_adapter<wchar_t> > >::type_case_Z'::`2'::ansi_string *>(char*&)
FUNC 240f0 c 0 __crt_stdio_output::read_va_arg<`__crt_stdio_output::output_processor<wchar_t,__crt_stdio_output::stream_output_adapter<wchar_t>,__crt_stdio_output::standard_base<wchar_t,__crt_stdio_output::stream_output_adapter<wchar_t> > >::type_case_Z'::`2'::ansi_string *>(char*&)
FUNC 24100 c 0 __crt_stdio_output::read_va_arg<`__crt_stdio_output::output_processor<wchar_t,__crt_stdio_output::string_output_adapter<wchar_t>,__crt_stdio_output::format_validation_base<wchar_t,__crt_stdio_output::string_output_adapter<wchar_t> > >::type_case_Z'::`2'::ansi_string *>(char*&)
FUNC 24110 c 0 __crt_stdio_output::read_va_arg<`__crt_stdio_output::output_processor<wchar_t,__crt_stdio_output::string_output_adapter<wchar_t>,__crt_stdio_output::positional_parameter_base<wchar_t,__crt_stdio_output::string_output_adapter<wchar_t> > >::type_case_Z'::`2'::ansi_string *>(char*&)
FUNC 24120 c 0 __crt_stdio_output::read_va_arg<`__crt_stdio_output::output_processor<wchar_t,__crt_stdio_output::string_output_adapter<wchar_t>,__crt_stdio_output::standard_base<wchar_t,__crt_stdio_output::string_output_adapter<wchar_t> > >::type_case_Z'::`2'::ansi_string *>(char*&)
FUNC 24130 c 0 __crt_stdio_output::read_va_arg<void *>(char*&)
FUNC 24140 c 0 __crt_stdio_output::read_va_arg<_CRT_DOUBLE>(char*&)
FUNC 24150 c 0 __crt_stdio_output::read_va_arg<__int64>(char*&)
FUNC 24160 c 0 __crt_stdio_output::read_va_arg<unsigned __int64>(char*&)
FUNC 24170 c 0 __crt_stdio_output::read_va_arg<wchar_t>(char*&)
FUNC 24180 1b 0 __crt_stdio_output::formatting_buffer::scratch_count<char>() const
FUNC 241a4 22 0 __crt_stdio_output::formatting_buffer::scratch_data<char>()
FUNC 241d0 e 0 __crt_char_traits<char>::tcstol<char const * &,char * *,int>(char const*&, char**&&, int&&)
FUNC 241e4 e 0 __crt_char_traits<wchar_t>::tcstol<wchar_t const * &,wchar_t * *,int>(wchar_t const*&, wchar_t**&&, int&&)
FUNC 241f8 e 0 __crt_char_traits<char>::tcstol<char const *,char * *,int>(char const*&&, char**&&, int&&)
FUNC 2420c e 0 __crt_char_traits<wchar_t>::tcstol<wchar_t const *,wchar_t * *,int>(wchar_t const*&&, wchar_t**&&, int&&)
FUNC 24220 87 0 __crt_stdio_output::output_processor<char,__crt_stdio_output::stream_output_adapter<char>,__crt_stdio_output::format_validation_base<char,__crt_stdio_output::stream_output_adapter<char> > >::type_case_integer_parse_into_buffer<unsigned int>(unsigned int, const unsigned int, const bool)
FUNC 242c8 87 0 __crt_stdio_output::output_processor<char,__crt_stdio_output::stream_output_adapter<char>,__crt_stdio_output::positional_parameter_base<char,__crt_stdio_output::stream_output_adapter<char> > >::type_case_integer_parse_into_buffer<unsigned int>(unsigned int, const unsigned int, const bool)
FUNC 24370 87 0 __crt_stdio_output::output_processor<char,__crt_stdio_output::stream_output_adapter<char>,__crt_stdio_output::standard_base<char,__crt_stdio_output::stream_output_adapter<char> > >::type_case_integer_parse_into_buffer<unsigned int>(unsigned int, const unsigned int, const bool)
FUNC 24418 87 0 __crt_stdio_output::output_processor<char,__crt_stdio_output::string_output_adapter<char>,__crt_stdio_output::format_validation_base<char,__crt_stdio_output::string_output_adapter<char> > >::type_case_integer_parse_into_buffer<unsigned int>(unsigned int, const unsigned int, const bool)
FUNC 244c0 87 0 __crt_stdio_output::output_processor<char,__crt_stdio_output::string_output_adapter<char>,__crt_stdio_output::positional_parameter_base<char,__crt_stdio_output::string_output_adapter<char> > >::type_case_integer_parse_into_buffer<unsigned int>(unsigned int, const unsigned int, const bool)
FUNC 24568 87 0 __crt_stdio_output::output_processor<char,__crt_stdio_output::string_output_adapter<char>,__crt_stdio_output::standard_base<char,__crt_stdio_output::string_output_adapter<char> > >::type_case_integer_parse_into_buffer<unsigned int>(unsigned int, const unsigned int, const bool)
FUNC 24610 a3 0 __crt_stdio_output::output_processor<wchar_t,__crt_stdio_output::stream_output_adapter<wchar_t>,__crt_stdio_output::format_validation_base<wchar_t,__crt_stdio_output::stream_output_adapter<wchar_t> > >::type_case_integer_parse_into_buffer<unsigned int>(unsigned int, const unsigned int, const bool)
FUNC 246dc a3 0 __crt_stdio_output::output_processor<wchar_t,__crt_stdio_output::stream_output_adapter<wchar_t>,__crt_stdio_output::positional_parameter_base<wchar_t,__crt_stdio_output::stream_output_adapter<wchar_t> > >::type_case_integer_parse_into_buffer<unsigned int>(unsigned int, const unsigned int, const bool)
FUNC 247a8 a3 0 __crt_stdio_output::output_processor<wchar_t,__crt_stdio_output::stream_output_adapter<wchar_t>,__crt_stdio_output::standard_base<wchar_t,__crt_stdio_output::stream_output_adapter<wchar_t> > >::type_case_integer_parse_into_buffer<unsigned int>(unsigned int, const unsigned int, const bool)
FUNC 24874 a3 0 __crt_stdio_output::output_processor<wchar_t,__crt_stdio_output::string_output_adapter<wchar_t>,__crt_stdio_output::format_validation_base<wchar_t,__crt_stdio_output::string_output_adapter<wchar_t> > >::type_case_integer_parse_into_buffer<unsigned int>(unsigned int, const unsigned int, const bool)
FUNC 24940 a3 0 __crt_stdio_output::output_processor<wchar_t,__crt_stdio_output::string_output_adapter<wchar_t>,__crt_stdio_output::positional_parameter_base<wchar_t,__crt_stdio_output::string_output_adapter<wchar_t> > >::type_case_integer_parse_into_buffer<unsigned int>(unsigned int, const unsigned int, const bool)
FUNC 24a0c a3 0 __crt_stdio_output::output_processor<wchar_t,__crt_stdio_output::string_output_adapter<wchar_t>,__crt_stdio_output::standard_base<wchar_t,__crt_stdio_output::string_output_adapter<wchar_t> > >::type_case_integer_parse_into_buffer<unsigned int>(unsigned int, const unsigned int, const bool)
FUNC 24ad8 8d 0 __crt_stdio_output::output_processor<char,__crt_stdio_output::stream_output_adapter<char>,__crt_stdio_output::format_validation_base<char,__crt_stdio_output::stream_output_adapter<char> > >::type_case_integer_parse_into_buffer<unsigned __int64>(unsigned long long, const unsigned int, const bool)
FUNC 24b88 8d 0 __crt_stdio_output::output_processor<char,__crt_stdio_output::stream_output_adapter<char>,__crt_stdio_output::positional_parameter_base<char,__crt_stdio_output::stream_output_adapter<char> > >::type_case_integer_parse_into_buffer<unsigned __int64>(unsigned long long, const unsigned int, const bool)
FUNC 24c38 8d 0 __crt_stdio_output::output_processor<char,__crt_stdio_output::stream_output_adapter<char>,__crt_stdio_output::standard_base<char,__crt_stdio_output::stream_output_adapter<char> > >::type_case_integer_parse_into_buffer<unsigned __int64>(unsigned long long, const unsigned int, const bool)
FUNC 24ce8 8d 0 __crt_stdio_output::output_processor<char,__crt_stdio_output::string_output_adapter<char>,__crt_stdio_output::format_validation_base<char,__crt_stdio_output::string_output_adapter<char> > >::type_case_integer_parse_into_buffer<unsigned __int64>(unsigned long long, const unsigned int, const bool)
FUNC 24d98 8d 0 __crt_stdio_output::output_processor<char,__crt_stdio_output::string_output_adapter<char>,__crt_stdio_output::positional_parameter_base<char,__crt_stdio_output::string_output_adapter<char> > >::type_case_integer_parse_into_buffer<unsigned __int64>(unsigned long long, const unsigned int, const bool)
FUNC 24e48 8d 0 __crt_stdio_output::output_processor<char,__crt_stdio_output::string_output_adapter<char>,__crt_stdio_output::standard_base<char,__crt_stdio_output::string_output_adapter<char> > >::type_case_integer_parse_into_buffer<unsigned __int64>(unsigned long long, const unsigned int, const bool)
FUNC 24ef8 a4 0 __crt_stdio_output::output_processor<wchar_t,__crt_stdio_output::stream_output_adapter<wchar_t>,__crt_stdio_output::format_validation_base<wchar_t,__crt_stdio_output::stream_output_adapter<wchar_t> > >::type_case_integer_parse_into_buffer<unsigned __int64>(unsigned long long, const unsigned int, const bool)
FUNC 24fc8 a4 0 __crt_stdio_output::output_processor<wchar_t,__crt_stdio_output::stream_output_adapter<wchar_t>,__crt_stdio_output::positional_parameter_base<wchar_t,__crt_stdio_output::stream_output_adapter<wchar_t> > >::type_case_integer_parse_into_buffer<unsigned __int64>(unsigned long long, const unsigned int, const bool)
FUNC 25098 a4 0 __crt_stdio_output::output_processor<wchar_t,__crt_stdio_output::stream_output_adapter<wchar_t>,__crt_stdio_output::standard_base<wchar_t,__crt_stdio_output::stream_output_adapter<wchar_t> > >::type_case_integer_parse_into_buffer<unsigned __int64>(unsigned long long, const unsigned int, const bool)
FUNC 25168 a4 0 __crt_stdio_output::output_processor<wchar_t,__crt_stdio_output::string_output_adapter<wchar_t>,__crt_stdio_output::format_validation_base<wchar_t,__crt_stdio_output::string_output_adapter<wchar_t> > >::type_case_integer_parse_into_buffer<unsigned __int64>(unsigned long long, const unsigned int, const bool)
FUNC 25238 a4 0 __crt_stdio_output::output_processor<wchar_t,__crt_stdio_output::string_output_adapter<wchar_t>,__crt_stdio_output::positional_parameter_base<wchar_t,__crt_stdio_output::string_output_adapter<wchar_t> > >::type_case_integer_parse_into_buffer<unsigned __int64>(unsigned long long, const unsigned int, const bool)
FUNC 25308 a4 0 __crt_stdio_output::output_processor<wchar_t,__crt_stdio_output::string_output_adapter<wchar_t>,__crt_stdio_output::standard_base<wchar_t,__crt_stdio_output::string_output_adapter<wchar_t> > >::type_case_integer_parse_into_buffer<unsigned __int64>(unsigned long long, const unsigned int, const bool)
FUNC 253d8 8b 0 __crt_stdio_output::write_multiple_characters<__crt_stdio_output::stream_output_adapter<char>,char>(__crt_stdio_output::stream_output_adapter<char> const&, const char, const int, int* const)
FUNC 25488 91 0 __crt_stdio_output::write_multiple_characters<__crt_stdio_output::stream_output_adapter<wchar_t>,char>(__crt_stdio_output::stream_output_adapter<wchar_t> const&, const char, const int, int* const)
FUNC 25540 75 0 __crt_stdio_output::write_multiple_characters<__crt_stdio_output::string_output_adapter<char>,char>(__crt_stdio_output::string_output_adapter<char> const&, const char, const int, int* const)
FUNC 255d4 7a 0 __crt_stdio_output::write_multiple_characters<__crt_stdio_output::string_output_adapter<wchar_t>,char>(__crt_stdio_output::string_output_adapter<wchar_t> const&, const char, const int, int* const)
FUNC 2566c a 0 <lambda_10027885da78ada7fb00668d7e2e96b5>::<lambda_10027885da78ada7fb00668d7e2e96b5>(_iobuf* const&)
FUNC 25678 a 0 <lambda_2fa474834de80dc12f7a3c6eddd7a366>::<lambda_2fa474834de80dc12f7a3c6eddd7a366>(_iobuf* const&)
FUNC 25684 21 0 <lambda_36eeb330e99a4f0bf8a7da86d0894cb9>::<lambda_36eeb330e99a4f0bf8a7da86d0894cb9>(_iobuf* const&, __crt_locale_pointers* const&, unsigned long long const&, char const* const&, char* const&)
FUNC 256b0 a 0 <lambda_3776af017df72547960a8ac98bb265e7>::<lambda_3776af017df72547960a8ac98bb265e7>(_iobuf* const&)
FUNC 256bc a 0 <lambda_4dad5d88921143c78c186dc2683775b0>::<lambda_4dad5d88921143c78c186dc2683775b0>(_iobuf* const&)
FUNC 256c8 a 0 <lambda_63c71d947f2ce890aa4aac7392f1cbed>::<lambda_63c71d947f2ce890aa4aac7392f1cbed>(_iobuf* const&)
FUNC 256d4 21 0 <lambda_673ffc0dc9412a0afcf2088e0e1b9bdc>::<lambda_673ffc0dc9412a0afcf2088e0e1b9bdc>(_iobuf* const&, __crt_locale_pointers* const&, unsigned long long const&, wchar_t const* const&, char* const&)
FUNC 25700 a 0 <lambda_676bd5779251ec186b530f0a904b4b35>::<lambda_676bd5779251ec186b530f0a904b4b35>(_iobuf* const&)
FUNC 2570c a 0 <lambda_8be82e0ce9ca3860586e20edfb7a650e>::<lambda_8be82e0ce9ca3860586e20edfb7a650e>(_iobuf* const&)
FUNC 25718 a 0 <lambda_8c9f37a989ed2ac074735e5b535e306a>::<lambda_8c9f37a989ed2ac074735e5b535e306a>(_iobuf* const&)
FUNC 25724 21 0 <lambda_a993425e72f5bd8b40f5859286f153c4>::<lambda_a993425e72f5bd8b40f5859286f153c4>(_iobuf* const&, __crt_locale_pointers* const&, unsigned long long const&, char const* const&, char* const&)
FUNC 25750 21 0 <lambda_b579ea784fd840951dfbcbdaebf709fd>::<lambda_b579ea784fd840951dfbcbdaebf709fd>(_iobuf* const&, __crt_locale_pointers* const&, unsigned long long const&, wchar_t const* const&, char* const&)
FUNC 2577c a 0 <lambda_c997b1ad71a4c19edf3d1d12a5864641>::<lambda_c997b1ad71a4c19edf3d1d12a5864641>(_iobuf* const&)
FUNC 25788 a 0 <lambda_d1b8e9147f7260ae436300a3cb83e6d4>::<lambda_d1b8e9147f7260ae436300a3cb83e6d4>(_iobuf* const&)
FUNC 25794 21 0 <lambda_e3269ba96939e7713c73908c0d757d25>::<lambda_e3269ba96939e7713c73908c0d757d25>(_iobuf* const&, __crt_locale_pointers* const&, unsigned long long const&, wchar_t const* const&, char* const&)
FUNC 257c0 21 0 <lambda_e638437c4db75b75056fab6aaf7e4f15>::<lambda_e638437c4db75b75056fab6aaf7e4f15>(_iobuf* const&, __crt_locale_pointers* const&, unsigned long long const&, char const* const&, char* const&)
FUNC 257ec a 0 <lambda_e746820a99d01fe878d2dbd7f1018dff>::<lambda_e746820a99d01fe878d2dbd7f1018dff>(_iobuf* const&)
FUNC 257f8 a 0 <lambda_fe5404e9642edbb7c8ae71e1dcfa4018>::<lambda_fe5404e9642edbb7c8ae71e1dcfa4018>(_iobuf* const&)
FUNC 25804 3c 0 __crt_stdio_output::common_data<char>::common_data<char>()
FUNC 25850 3f 0 __crt_stdio_output::common_data<wchar_t>::common_data<wchar_t>()
FUNC 258a0 5f 0 __crt_stdio_output::output_adapter_data<char,__crt_stdio_output::stream_output_adapter<char> >::output_adapter_data<char,__crt_stdio_output::stream_output_adapter<char> >(__crt_stdio_output::stream_output_adapter<char> const&, const unsigned long long, char const* const, __crt_locale_pointers* const, char* const)
FUNC 25918 5f 0 __crt_stdio_output::output_adapter_data<char,__crt_stdio_output::string_output_adapter<char> >::output_adapter_data<char,__crt_stdio_output::string_output_adapter<char> >(__crt_stdio_output::string_output_adapter<char> const&, const unsigned long long, char const* const, __crt_locale_pointers* const, char* const)
FUNC 25990 62 0 __crt_stdio_output::output_adapter_data<wchar_t,__crt_stdio_output::stream_output_adapter<wchar_t> >::output_adapter_data<wchar_t,__crt_stdio_output::stream_output_adapter<wchar_t> >(__crt_stdio_output::stream_output_adapter<wchar_t> const&, const unsigned long long, wchar_t const* const, __crt_locale_pointers* const, char* const)
FUNC 25a0c 62 0 __crt_stdio_output::output_adapter_data<wchar_t,__crt_stdio_output::string_output_adapter<wchar_t> >::output_adapter_data<wchar_t,__crt_stdio_output::string_output_adapter<wchar_t> >(__crt_stdio_output::string_output_adapter<wchar_t> const&, const unsigned long long, wchar_t const* const, __crt_locale_pointers* const, char* const)
FUNC 25a88 6b 0 __crt_stdio_output::output_processor<char,__crt_stdio_output::stream_output_adapter<char>,__crt_stdio_output::format_validation_base<char,__crt_stdio_output::stream_output_adapter<char> > >::output_processor<char,__crt_stdio_output::stream_output_adapter<char>,__crt_stdio_output::format_validation_base<char,__crt_stdio_output::stream_output_adapter<char> > >(__crt_stdio_output::stream_output_adapter<char> const&, const unsigned long long, char const* const, __crt_locale_pointers* const, char* const)
FUNC 25b10 88 0 __crt_stdio_output::output_processor<char,__crt_stdio_output::stream_output_adapter<char>,__crt_stdio_output::positional_parameter_base<char,__crt_stdio_output::stream_output_adapter<char> > >::output_processor<char,__crt_stdio_output::stream_output_adapter<char>,__crt_stdio_output::positional_parameter_base<char,__crt_stdio_output::stream_output_adapter<char> > >(__crt_stdio_output::stream_output_adapter<char> const&, const unsigned long long, char const* const, __crt_locale_pointers* const, char* const)
FUNC 25bbc 6b 0 __crt_stdio_output::output_processor<char,__crt_stdio_output::stream_output_adapter<char>,__crt_stdio_output::standard_base<char,__crt_stdio_output::stream_output_adapter<char> > >::output_processor<char,__crt_stdio_output::stream_output_adapter<char>,__crt_stdio_output::standard_base<char,__crt_stdio_output::stream_output_adapter<char> > >(__crt_stdio_output::stream_output_adapter<char> const&, const unsigned long long, char const* const, __crt_locale_pointers* const, char* const)
FUNC 25c44 6b 0 __crt_stdio_output::output_processor<char,__crt_stdio_output::string_output_adapter<char>,__crt_stdio_output::format_validation_base<char,__crt_stdio_output::string_output_adapter<char> > >::output_processor<char,__crt_stdio_output::string_output_adapter<char>,__crt_stdio_output::format_validation_base<char,__crt_stdio_output::string_output_adapter<char> > >(__crt_stdio_output::string_output_adapter<char> const&, const unsigned long long, char const* const, __crt_locale_pointers* const, char* const)
FUNC 25ccc 88 0 __crt_stdio_output::output_processor<char,__crt_stdio_output::string_output_adapter<char>,__crt_stdio_output::positional_parameter_base<char,__crt_stdio_output::string_output_adapter<char> > >::output_processor<char,__crt_stdio_output::string_output_adapter<char>,__crt_stdio_output::positional_parameter_base<char,__crt_stdio_output::string_output_adapter<char> > >(__crt_stdio_output::string_output_adapter<char> const&, const unsigned long long, char const* const, __crt_locale_pointers* const, char* const)
FUNC 25d78 6b 0 __crt_stdio_output::output_processor<char,__crt_stdio_output::string_output_adapter<char>,__crt_stdio_output::standard_base<char,__crt_stdio_output::string_output_adapter<char> > >::output_processor<char,__crt_stdio_output::string_output_adapter<char>,__crt_stdio_output::standard_base<char,__crt_stdio_output::string_output_adapter<char> > >(__crt_stdio_output::string_output_adapter<char> const&, const unsigned long long, char const* const, __crt_locale_pointers* const, char* const)
FUNC 25e00 6f 0 __crt_stdio_output::output_processor<wchar_t,__crt_stdio_output::stream_output_adapter<wchar_t>,__crt_stdio_output::format_validation_base<wchar_t,__crt_stdio_output::stream_output_adapter<wchar_t> > >::output_processor<wchar_t,__crt_stdio_output::stream_output_adapter<wchar_t>,__crt_stdio_output::format_validation_base<wchar_t,__crt_stdio_output::stream_output_adapter<wchar_t> > >(__crt_stdio_output::stream_output_adapter<wchar_t> const&, const unsigned long long, wchar_t const* const, __crt_locale_pointers* const, char* const)
FUNC 25e8c 8c 0 __crt_stdio_output::output_processor<wchar_t,__crt_stdio_output::stream_output_adapter<wchar_t>,__crt_stdio_output::positional_parameter_base<wchar_t,__crt_stdio_output::stream_output_adapter<wchar_t> > >::output_processor<wchar_t,__crt_stdio_output::stream_output_adapter<wchar_t>,__crt_stdio_output::positional_parameter_base<wchar_t,__crt_stdio_output::stream_output_adapter<wchar_t> > >(__crt_stdio_output::stream_output_adapter<wchar_t> const&, const unsigned long long, wchar_t const* const, __crt_locale_pointers* const, char* const)
FUNC 25f3c 6f 0 __crt_stdio_output::output_processor<wchar_t,__crt_stdio_output::stream_output_adapter<wchar_t>,__crt_stdio_output::standard_base<wchar_t,__crt_stdio_output::stream_output_adapter<wchar_t> > >::output_processor<wchar_t,__crt_stdio_output::stream_output_adapter<wchar_t>,__crt_stdio_output::standard_base<wchar_t,__crt_stdio_output::stream_output_adapter<wchar_t> > >(__crt_stdio_output::stream_output_adapter<wchar_t> const&, const unsigned long long, wchar_t const* const, __crt_locale_pointers* const, char* const)
FUNC 25fc8 6f 0 __crt_stdio_output::output_processor<wchar_t,__crt_stdio_output::string_output_adapter<wchar_t>,__crt_stdio_output::format_validation_base<wchar_t,__crt_stdio_output::string_output_adapter<wchar_t> > >::output_processor<wchar_t,__crt_stdio_output::string_output_adapter<wchar_t>,__crt_stdio_output::format_validation_base<wchar_t,__crt_stdio_output::string_output_adapter<wchar_t> > >(__crt_stdio_output::string_output_adapter<wchar_t> const&, const unsigned long long, wchar_t const* const, __crt_locale_pointers* const, char* const)
FUNC 26054 8c 0 __crt_stdio_output::output_processor<wchar_t,__crt_stdio_output::string_output_adapter<wchar_t>,__crt_stdio_output::positional_parameter_base<wchar_t,__crt_stdio_output::string_output_adapter<wchar_t> > >::output_processor<wchar_t,__crt_stdio_output::string_output_adapter<wchar_t>,__crt_stdio_output::positional_parameter_base<wchar_t,__crt_stdio_output::string_output_adapter<wchar_t> > >(__crt_stdio_output::string_output_adapter<wchar_t> const&, const unsigned long long, wchar_t const* const, __crt_locale_pointers* const, char* const)
FUNC 26104 6f 0 __crt_stdio_output::output_processor<wchar_t,__crt_stdio_output::string_output_adapter<wchar_t>,__crt_stdio_output::standard_base<wchar_t,__crt_stdio_output::string_output_adapter<wchar_t> > >::output_processor<wchar_t,__crt_stdio_output::string_output_adapter<wchar_t>,__crt_stdio_output::standard_base<wchar_t,__crt_stdio_output::string_output_adapter<wchar_t> > >(__crt_stdio_output::string_output_adapter<wchar_t> const&, const unsigned long long, wchar_t const* const, __crt_locale_pointers* const, char* const)
FUNC 26190 7 0 __crt_stdio_output::stream_output_adapter<char>::stream_output_adapter<char>(_iobuf* const)
FUNC 26198 7 0 __crt_stdio_output::stream_output_adapter<wchar_t>::stream_output_adapter<wchar_t>(_iobuf* const)
FUNC 261a0 7 0 __crt_stdio_output::string_output_adapter<char>::string_output_adapter<char>(__crt_stdio_output::string_output_adapter_context<char>* const)
FUNC 261a8 7 0 __crt_stdio_output::string_output_adapter<wchar_t>::string_output_adapter<wchar_t>(__crt_stdio_output::string_output_adapter_context<wchar_t>* const)
FUNC 261b0 9b 0 _LocaleUpdate::_LocaleUpdate(__crt_locale_pointers* const)
FUNC 26274 20 0 __acrt_stdio_temporary_buffering_guard::__acrt_stdio_temporary_buffering_guard(_iobuf* const)
FUNC 2629c 8 0 __crt_deferred_errno_cache::__crt_deferred_errno_cache()
FUNC 262a8 f 0 __crt_errno_guard::__crt_errno_guard(int* const)
FUNC 262bc 7 0 __crt_stdio_stream::__crt_stdio_stream(_iobuf* const)
FUNC 262c4 14 0 __crt_stdio_output::formatting_buffer::formatting_buffer()
FUNC 262e0 23 0 __crt_stdio_output::common_data<char>::~common_data<char>()
FUNC 2630c 23 0 __crt_stdio_output::common_data<wchar_t>::~common_data<wchar_t>()
FUNC 26338 23 0 __crt_stdio_output::format_validation_base<char,__crt_stdio_output::stream_output_adapter<char> >::~format_validation_base<char,__crt_stdio_output::stream_output_adapter<char> >()
FUNC 26364 23 0 __crt_stdio_output::format_validation_base<char,__crt_stdio_output::string_output_adapter<char> >::~format_validation_base<char,__crt_stdio_output::string_output_adapter<char> >()
FUNC 26390 23 0 __crt_stdio_output::format_validation_base<wchar_t,__crt_stdio_output::stream_output_adapter<wchar_t> >::~format_validation_base<wchar_t,__crt_stdio_output::stream_output_adapter<wchar_t> >()
FUNC 263bc 23 0 __crt_stdio_output::format_validation_base<wchar_t,__crt_stdio_output::string_output_adapter<wchar_t> >::~format_validation_base<wchar_t,__crt_stdio_output::string_output_adapter<wchar_t> >()
FUNC 263e8 23 0 __crt_stdio_output::output_adapter_data<char,__crt_stdio_output::stream_output_adapter<char> >::~output_adapter_data<char,__crt_stdio_output::stream_output_adapter<char> >()
FUNC 26414 23 0 __crt_stdio_output::output_adapter_data<char,__crt_stdio_output::string_output_adapter<char> >::~output_adapter_data<char,__crt_stdio_output::string_output_adapter<char> >()
FUNC 26440 23 0 __crt_stdio_output::output_adapter_data<wchar_t,__crt_stdio_output::stream_output_adapter<wchar_t> >::~output_adapter_data<wchar_t,__crt_stdio_output::stream_output_adapter<wchar_t> >()
FUNC 2646c 23 0 __crt_stdio_output::output_adapter_data<wchar_t,__crt_stdio_output::string_output_adapter<wchar_t> >::~output_adapter_data<wchar_t,__crt_stdio_output::string_output_adapter<wchar_t> >()
FUNC 26498 23 0 __crt_stdio_output::output_processor<char,__crt_stdio_output::stream_output_adapter<char>,__crt_stdio_output::format_validation_base<char,__crt_stdio_output::stream_output_adapter<char> > >::~output_processor<char,__crt_stdio_output::stream_output_adapter<char>,__crt_stdio_output::format_validation_base<char,__crt_stdio_output::stream_output_adapter<char> > >()
FUNC 264c4 23 0 __crt_stdio_output::output_processor<char,__crt_stdio_output::stream_output_adapter<char>,__crt_stdio_output::positional_parameter_base<char,__crt_stdio_output::stream_output_adapter<char> > >::~output_processor<char,__crt_stdio_output::stream_output_adapter<char>,__crt_stdio_output::positional_parameter_base<char,__crt_stdio_output::stream_output_adapter<char> > >()
FUNC 264f0 23 0 __crt_stdio_output::output_processor<char,__crt_stdio_output::stream_output_adapter<char>,__crt_stdio_output::standard_base<char,__crt_stdio_output::stream_output_adapter<char> > >::~output_processor<char,__crt_stdio_output::stream_output_adapter<char>,__crt_stdio_output::standard_base<char,__crt_stdio_output::stream_output_adapter<char> > >()
FUNC 2651c 23 0 __crt_stdio_output::output_processor<char,__crt_stdio_output::string_output_adapter<char>,__crt_stdio_output::format_validation_base<char,__crt_stdio_output::string_output_adapter<char> > >::~output_processor<char,__crt_stdio_output::string_output_adapter<char>,__crt_stdio_output::format_validation_base<char,__crt_stdio_output::string_output_adapter<char> > >()
FUNC 26548 23 0 __crt_stdio_output::output_processor<char,__crt_stdio_output::string_output_adapter<char>,__crt_stdio_output::positional_parameter_base<char,__crt_stdio_output::string_output_adapter<char> > >::~output_processor<char,__crt_stdio_output::string_output_adapter<char>,__crt_stdio_output::positional_parameter_base<char,__crt_stdio_output::string_output_adapter<char> > >()
FUNC 26574 23 0 __crt_stdio_output::output_processor<char,__crt_stdio_output::string_output_adapter<char>,__crt_stdio_output::standard_base<char,__crt_stdio_output::string_output_adapter<char> > >::~output_processor<char,__crt_stdio_output::string_output_adapter<char>,__crt_stdio_output::standard_base<char,__crt_stdio_output::string_output_adapter<char> > >()
FUNC 265a0 23 0 __crt_stdio_output::output_processor<wchar_t,__crt_stdio_output::stream_output_adapter<wchar_t>,__crt_stdio_output::format_validation_base<wchar_t,__crt_stdio_output::stream_output_adapter<wchar_t> > >::~output_processor<wchar_t,__crt_stdio_output::stream_output_adapter<wchar_t>,__crt_stdio_output::format_validation_base<wchar_t,__crt_stdio_output::stream_output_adapter<wchar_t> > >()
FUNC 265cc 23 0 __crt_stdio_output::output_processor<wchar_t,__crt_stdio_output::stream_output_adapter<wchar_t>,__crt_stdio_output::positional_parameter_base<wchar_t,__crt_stdio_output::stream_output_adapter<wchar_t> > >::~output_processor<wchar_t,__crt_stdio_output::stream_output_adapter<wchar_t>,__crt_stdio_output::positional_parameter_base<wchar_t,__crt_stdio_output::stream_output_adapter<wchar_t> > >()
FUNC 265f8 23 0 __crt_stdio_output::output_processor<wchar_t,__crt_stdio_output::stream_output_adapter<wchar_t>,__crt_stdio_output::standard_base<wchar_t,__crt_stdio_output::stream_output_adapter<wchar_t> > >::~output_processor<wchar_t,__crt_stdio_output::stream_output_adapter<wchar_t>,__crt_stdio_output::standard_base<wchar_t,__crt_stdio_output::stream_output_adapter<wchar_t> > >()
FUNC 26624 23 0 __crt_stdio_output::output_processor<wchar_t,__crt_stdio_output::string_output_adapter<wchar_t>,__crt_stdio_output::format_validation_base<wchar_t,__crt_stdio_output::string_output_adapter<wchar_t> > >::~output_processor<wchar_t,__crt_stdio_output::string_output_adapter<wchar_t>,__crt_stdio_output::format_validation_base<wchar_t,__crt_stdio_output::string_output_adapter<wchar_t> > >()
FUNC 26650 23 0 __crt_stdio_output::output_processor<wchar_t,__crt_stdio_output::string_output_adapter<wchar_t>,__crt_stdio_output::positional_parameter_base<wchar_t,__crt_stdio_output::string_output_adapter<wchar_t> > >::~output_processor<wchar_t,__crt_stdio_output::string_output_adapter<wchar_t>,__crt_stdio_output::positional_parameter_base<wchar_t,__crt_stdio_output::string_output_adapter<wchar_t> > >()
FUNC 2667c 23 0 __crt_stdio_output::output_processor<wchar_t,__crt_stdio_output::string_output_adapter<wchar_t>,__crt_stdio_output::standard_base<wchar_t,__crt_stdio_output::string_output_adapter<wchar_t> > >::~output_processor<wchar_t,__crt_stdio_output::string_output_adapter<wchar_t>,__crt_stdio_output::standard_base<wchar_t,__crt_stdio_output::string_output_adapter<wchar_t> > >()
FUNC 266a8 23 0 __crt_stdio_output::positional_parameter_base<char,__crt_stdio_output::stream_output_adapter<char> >::~positional_parameter_base<char,__crt_stdio_output::stream_output_adapter<char> >()
FUNC 266d4 23 0 __crt_stdio_output::positional_parameter_base<char,__crt_stdio_output::string_output_adapter<char> >::~positional_parameter_base<char,__crt_stdio_output::string_output_adapter<char> >()
FUNC 26700 23 0 __crt_stdio_output::positional_parameter_base<wchar_t,__crt_stdio_output::stream_output_adapter<wchar_t> >::~positional_parameter_base<wchar_t,__crt_stdio_output::stream_output_adapter<wchar_t> >()
FUNC 2672c 23 0 __crt_stdio_output::positional_parameter_base<wchar_t,__crt_stdio_output::string_output_adapter<wchar_t> >::~positional_parameter_base<wchar_t,__crt_stdio_output::string_output_adapter<wchar_t> >()
FUNC 26758 23 0 __crt_stdio_output::standard_base<char,__crt_stdio_output::stream_output_adapter<char> >::~standard_base<char,__crt_stdio_output::stream_output_adapter<char> >()
FUNC 26784 23 0 __crt_stdio_output::standard_base<char,__crt_stdio_output::string_output_adapter<char> >::~standard_base<char,__crt_stdio_output::string_output_adapter<char> >()
FUNC 267b0 23 0 __crt_stdio_output::standard_base<wchar_t,__crt_stdio_output::stream_output_adapter<wchar_t> >::~standard_base<wchar_t,__crt_stdio_output::stream_output_adapter<wchar_t> >()
FUNC 267dc 23 0 __crt_stdio_output::standard_base<wchar_t,__crt_stdio_output::string_output_adapter<wchar_t> >::~standard_base<wchar_t,__crt_stdio_output::string_output_adapter<wchar_t> >()
FUNC 26808 11 0 _LocaleUpdate::~_LocaleUpdate()
FUNC 26820 b 0 __acrt_stdio_temporary_buffering_guard::~__acrt_stdio_temporary_buffering_guard()
FUNC 26830 12 0 __crt_errno_guard::~__crt_errno_guard()
FUNC 26848 23 0 __crt_stdio_output::formatting_buffer::~formatting_buffer()
FUNC 26874 34 0 __crt_unique_heap_ptr<char,__crt_internal_free_policy>::operator=(__crt_unique_heap_ptr<char,__crt_internal_free_policy>&&)
FUNC 268b8 4 0 __crt_stdio_stream::operator->() const
FUNC 268bc 8 0 <lambda_10027885da78ada7fb00668d7e2e96b5>::operator()() const
FUNC 268c8 8 0 <lambda_2fa474834de80dc12f7a3c6eddd7a366>::operator()() const
FUNC 268d4 12d 0 <lambda_36eeb330e99a4f0bf8a7da86d0894cb9>::operator()() const
FUNC 26a4c 8 0 <lambda_3776af017df72547960a8ac98bb265e7>::operator()() const
FUNC 26a58 8 0 <lambda_4dad5d88921143c78c186dc2683775b0>::operator()() const
FUNC 26a64 8 0 <lambda_63c71d947f2ce890aa4aac7392f1cbed>::operator()() const
FUNC 26a70 14e 0 <lambda_673ffc0dc9412a0afcf2088e0e1b9bdc>::operator()() const
FUNC 26c14 8 0 <lambda_676bd5779251ec186b530f0a904b4b35>::operator()() const
FUNC 26c20 8 0 <lambda_8be82e0ce9ca3860586e20edfb7a650e>::operator()() const
FUNC 26c2c 8 0 <lambda_8c9f37a989ed2ac074735e5b535e306a>::operator()() const
FUNC 26c38 14a 0 <lambda_a993425e72f5bd8b40f5859286f153c4>::operator()() const
FUNC 26dd4 131 0 <lambda_b579ea784fd840951dfbcbdaebf709fd>::operator()() const
FUNC 26f54 8 0 <lambda_c997b1ad71a4c19edf3d1d12a5864641>::operator()() const
FUNC 26f60 8 0 <lambda_d1b8e9147f7260ae436300a3cb83e6d4>::operator()() const
FUNC 26f6c 131 0 <lambda_e3269ba96939e7713c73908c0d757d25>::operator()() const
FUNC 270ec 12d 0 <lambda_e638437c4db75b75056fab6aaf7e4f15>::operator()() const
FUNC 27264 8 0 <lambda_e746820a99d01fe878d2dbd7f1018dff>::operator()() const
FUNC 27270 8 0 <lambda_fe5404e9642edbb7c8ae71e1dcfa4018>::operator()() const
FUNC 2727c 5 0 _LocaleUpdate::GetLocaleT()
FUNC 27284 c 0 __crt_stdio_output::output_processor<char,__crt_stdio_output::stream_output_adapter<char>,__crt_stdio_output::format_validation_base<char,__crt_stdio_output::stream_output_adapter<char> > >::adjust_hexit(const int, const bool)
FUNC 27294 c 0 __crt_stdio_output::output_processor<char,__crt_stdio_output::stream_output_adapter<char>,__crt_stdio_output::positional_parameter_base<char,__crt_stdio_output::stream_output_adapter<char> > >::adjust_hexit(const int, const bool)
FUNC 272a4 c 0 __crt_stdio_output::output_processor<char,__crt_stdio_output::stream_output_adapter<char>,__crt_stdio_output::standard_base<char,__crt_stdio_output::stream_output_adapter<char> > >::adjust_hexit(const int, const bool)
FUNC 272b4 c 0 __crt_stdio_output::output_processor<char,__crt_stdio_output::string_output_adapter<char>,__crt_stdio_output::format_validation_base<char,__crt_stdio_output::string_output_adapter<char> > >::adjust_hexit(const int, const bool)
FUNC 272c4 c 0 __crt_stdio_output::output_processor<char,__crt_stdio_output::string_output_adapter<char>,__crt_stdio_output::positional_parameter_base<char,__crt_stdio_output::string_output_adapter<char> > >::adjust_hexit(const int, const bool)
FUNC 272d4 c 0 __crt_stdio_output::output_processor<char,__crt_stdio_output::string_output_adapter<char>,__crt_stdio_output::standard_base<char,__crt_stdio_output::string_output_adapter<char> > >::adjust_hexit(const int, const bool)
FUNC 272e4 c 0 __crt_stdio_output::output_processor<wchar_t,__crt_stdio_output::stream_output_adapter<wchar_t>,__crt_stdio_output::format_validation_base<wchar_t,__crt_stdio_output::stream_output_adapter<wchar_t> > >::adjust_hexit(const int, const bool)
FUNC 272f4 c 0 __crt_stdio_output::output_processor<wchar_t,__crt_stdio_output::stream_output_adapter<wchar_t>,__crt_stdio_output::positional_parameter_base<wchar_t,__crt_stdio_output::stream_output_adapter<wchar_t> > >::adjust_hexit(const int, const bool)
FUNC 27304 c 0 __crt_stdio_output::output_processor<wchar_t,__crt_stdio_output::stream_output_adapter<wchar_t>,__crt_stdio_output::standard_base<wchar_t,__crt_stdio_output::stream_output_adapter<wchar_t> > >::adjust_hexit(const int, const bool)
FUNC 27314 c 0 __crt_stdio_output::output_processor<wchar_t,__crt_stdio_output::string_output_adapter<wchar_t>,__crt_stdio_output::format_validation_base<wchar_t,__crt_stdio_output::string_output_adapter<wchar_t> > >::adjust_hexit(const int, const bool)
FUNC 27324 c 0 __crt_stdio_output::output_processor<wchar_t,__crt_stdio_output::string_output_adapter<wchar_t>,__crt_stdio_output::positional_parameter_base<wchar_t,__crt_stdio_output::string_output_adapter<wchar_t> > >::adjust_hexit(const int, const bool)
FUNC 27334 c 0 __crt_stdio_output::output_processor<wchar_t,__crt_stdio_output::string_output_adapter<wchar_t>,__crt_stdio_output::standard_base<wchar_t,__crt_stdio_output::string_output_adapter<wchar_t> > >::adjust_hexit(const int, const bool)
FUNC 27344 50 0 __crt_stdio_output::positional_parameter_base<char,__crt_stdio_output::stream_output_adapter<char> >::advance_to_next_pass()
FUNC 273a8 50 0 __crt_stdio_output::positional_parameter_base<char,__crt_stdio_output::string_output_adapter<char> >::advance_to_next_pass()
FUNC 2740c 50 0 __crt_stdio_output::positional_parameter_base<wchar_t,__crt_stdio_output::stream_output_adapter<wchar_t> >::advance_to_next_pass()
FUNC 27470 50 0 __crt_stdio_output::positional_parameter_base<wchar_t,__crt_stdio_output::string_output_adapter<wchar_t> >::advance_to_next_pass()
FUNC 274d4 11 0 __crt_stdio_output::standard_base<char,__crt_stdio_output::stream_output_adapter<char> >::advance_to_next_pass()
FUNC 274ec 11 0 __crt_stdio_output::standard_base<char,__crt_stdio_output::string_output_adapter<char> >::advance_to_next_pass()
FUNC 27504 11 0 __crt_stdio_output::standard_base<wchar_t,__crt_stdio_output::stream_output_adapter<wchar_t> >::advance_to_next_pass()
FUNC 2751c 11 0 __crt_stdio_output::standard_base<wchar_t,__crt_stdio_output::string_output_adapter<wchar_t> >::advance_to_next_pass()
FUNC 27534 69 0 __crt_stdio_output::crop_zeroes(char*, __crt_locale_pointers* const)
FUNC 275b8 31 0 __crt_stdio_output::output_processor<char,__crt_stdio_output::stream_output_adapter<char>,__crt_stdio_output::format_validation_base<char,__crt_stdio_output::stream_output_adapter<char> > >::find_next_state(const char, const __crt_stdio_output::state) const
FUNC 275f8 31 0 __crt_stdio_output::output_processor<char,__crt_stdio_output::stream_output_adapter<char>,__crt_stdio_output::positional_parameter_base<char,__crt_stdio_output::stream_output_adapter<char> > >::find_next_state(const char, const __crt_stdio_output::state) const
FUNC 27638 2f 0 __crt_stdio_output::output_processor<char,__crt_stdio_output::stream_output_adapter<char>,__crt_stdio_output::standard_base<char,__crt_stdio_output::stream_output_adapter<char> > >::find_next_state(const char, const __crt_stdio_output::state) const
FUNC 27674 31 0 __crt_stdio_output::output_processor<char,__crt_stdio_output::string_output_adapter<char>,__crt_stdio_output::format_validation_base<char,__crt_stdio_output::string_output_adapter<char> > >::find_next_state(const char, const __crt_stdio_output::state) const
FUNC 276b4 31 0 __crt_stdio_output::output_processor<char,__crt_stdio_output::string_output_adapter<char>,__crt_stdio_output::positional_parameter_base<char,__crt_stdio_output::string_output_adapter<char> > >::find_next_state(const char, const __crt_stdio_output::state) const
FUNC 276f4 2f 0 __crt_stdio_output::output_processor<char,__crt_stdio_output::string_output_adapter<char>,__crt_stdio_output::standard_base<char,__crt_stdio_output::string_output_adapter<char> > >::find_next_state(const char, const __crt_stdio_output::state) const
FUNC 27730 32 0 __crt_stdio_output::output_processor<wchar_t,__crt_stdio_output::stream_output_adapter<wchar_t>,__crt_stdio_output::format_validation_base<wchar_t,__crt_stdio_output::stream_output_adapter<wchar_t> > >::find_next_state(const wchar_t, const __crt_stdio_output::state) const
FUNC 27770 32 0 __crt_stdio_output::output_processor<wchar_t,__crt_stdio_output::stream_output_adapter<wchar_t>,__crt_stdio_output::positional_parameter_base<wchar_t,__crt_stdio_output::stream_output_adapter<wchar_t> > >::find_next_state(const wchar_t, const __crt_stdio_output::state) const
FUNC 277b0 30 0 __crt_stdio_output::output_processor<wchar_t,__crt_stdio_output::stream_output_adapter<wchar_t>,__crt_stdio_output::standard_base<wchar_t,__crt_stdio_output::stream_output_adapter<wchar_t> > >::find_next_state(const wchar_t, const __crt_stdio_output::state) const
FUNC 277ec 32 0 __crt_stdio_output::output_processor<wchar_t,__crt_stdio_output::string_output_adapter<wchar_t>,__crt_stdio_output::format_validation_base<wchar_t,__crt_stdio_output::string_output_adapter<wchar_t> > >::find_next_state(const wchar_t, const __crt_stdio_output::state) const
FUNC 2782c 32 0 __crt_stdio_output::output_processor<wchar_t,__crt_stdio_output::string_output_adapter<wchar_t>,__crt_stdio_output::positional_parameter_base<wchar_t,__crt_stdio_output::string_output_adapter<wchar_t> > >::find_next_state(const wchar_t, const __crt_stdio_output::state) const
FUNC 2786c 30 0 __crt_stdio_output::output_processor<wchar_t,__crt_stdio_output::string_output_adapter<wchar_t>,__crt_stdio_output::standard_base<wchar_t,__crt_stdio_output::string_output_adapter<wchar_t> > >::find_next_state(const wchar_t, const __crt_stdio_output::state) const
FUNC 278a8 68 0 __crt_stdio_output::force_decimal_point(char*, __crt_locale_pointers* const)
FUNC 2792c 1f 0 __crt_deferred_errno_cache::get()
FUNC 27954 7 0 __crt_stdio_stream::get_flags() const
FUNC 2795c 6 0 __crt_stdio_output::positional_parameter_base<char,__crt_stdio_output::stream_output_adapter<char> >::get_parameter_type(short)
FUNC 27964 6 0 __crt_stdio_output::positional_parameter_base<char,__crt_stdio_output::stream_output_adapter<char> >::get_parameter_type(unsigned short)
FUNC 2796c 6 0 __crt_stdio_output::positional_parameter_base<char,__crt_stdio_output::stream_output_adapter<char> >::get_parameter_type(int)
FUNC 27974 6 0 __crt_stdio_output::positional_parameter_base<char,__crt_stdio_output::stream_output_adapter<char> >::get_parameter_type(unsigned int)
FUNC 2797c 6 0 __crt_stdio_output::positional_parameter_base<char,__crt_stdio_output::stream_output_adapter<char> >::get_parameter_type(_CRT_DOUBLE)
FUNC 27984 6 0 __crt_stdio_output::positional_parameter_base<char,__crt_stdio_output::stream_output_adapter<char> >::get_parameter_type(long long)
FUNC 2798c 6 0 __crt_stdio_output::positional_parameter_base<char,__crt_stdio_output::stream_output_adapter<char> >::get_parameter_type(unsigned long long)
FUNC 27994 6 0 __crt_stdio_output::positional_parameter_base<char,__crt_stdio_output::stream_output_adapter<char> >::get_parameter_type(wchar_t)
FUNC 2799c 6 0 __crt_stdio_output::positional_parameter_base<char,__crt_stdio_output::string_output_adapter<char> >::get_parameter_type(short)
FUNC 279a4 6 0 __crt_stdio_output::positional_parameter_base<char,__crt_stdio_output::string_output_adapter<char> >::get_parameter_type(unsigned short)
FUNC 279ac 6 0 __crt_stdio_output::positional_parameter_base<char,__crt_stdio_output::string_output_adapter<char> >::get_parameter_type(int)
FUNC 279b4 6 0 __crt_stdio_output::positional_parameter_base<char,__crt_stdio_output::string_output_adapter<char> >::get_parameter_type(unsigned int)
FUNC 279bc 6 0 __crt_stdio_output::positional_parameter_base<char,__crt_stdio_output::string_output_adapter<char> >::get_parameter_type(_CRT_DOUBLE)
FUNC 279c4 6 0 __crt_stdio_output::positional_parameter_base<char,__crt_stdio_output::string_output_adapter<char> >::get_parameter_type(long long)
FUNC 279cc 6 0 __crt_stdio_output::positional_parameter_base<char,__crt_stdio_output::string_output_adapter<char> >::get_parameter_type(unsigned long long)
FUNC 279d4 6 0 __crt_stdio_output::positional_parameter_base<char,__crt_stdio_output::string_output_adapter<char> >::get_parameter_type(wchar_t)
FUNC 279dc 6 0 __crt_stdio_output::positional_parameter_base<wchar_t,__crt_stdio_output::stream_output_adapter<wchar_t> >::get_parameter_type(short)
FUNC 279e4 6 0 __crt_stdio_output::positional_parameter_base<wchar_t,__crt_stdio_output::stream_output_adapter<wchar_t> >::get_parameter_type(unsigned short)
FUNC 279ec 6 0 __crt_stdio_output::positional_parameter_base<wchar_t,__crt_stdio_output::stream_output_adapter<wchar_t> >::get_parameter_type(int)
FUNC 279f4 6 0 __crt_stdio_output::positional_parameter_base<wchar_t,__crt_stdio_output::stream_output_adapter<wchar_t> >::get_parameter_type(unsigned int)
FUNC 279fc 6 0 __crt_stdio_output::positional_parameter_base<wchar_t,__crt_stdio_output::stream_output_adapter<wchar_t> >::get_parameter_type(_CRT_DOUBLE)
FUNC 27a04 6 0 __crt_stdio_output::positional_parameter_base<wchar_t,__crt_stdio_output::stream_output_adapter<wchar_t> >::get_parameter_type(long long)
FUNC 27a0c 6 0 __crt_stdio_output::positional_parameter_base<wchar_t,__crt_stdio_output::stream_output_adapter<wchar_t> >::get_parameter_type(unsigned long long)
FUNC 27a14 6 0 __crt_stdio_output::positional_parameter_base<wchar_t,__crt_stdio_output::stream_output_adapter<wchar_t> >::get_parameter_type(wchar_t)
FUNC 27a1c 6 0 __crt_stdio_output::positional_parameter_base<wchar_t,__crt_stdio_output::string_output_adapter<wchar_t> >::get_parameter_type(short)
FUNC 27a24 6 0 __crt_stdio_output::positional_parameter_base<wchar_t,__crt_stdio_output::string_output_adapter<wchar_t> >::get_parameter_type(unsigned short)
FUNC 27a2c 6 0 __crt_stdio_output::positional_parameter_base<wchar_t,__crt_stdio_output::string_output_adapter<wchar_t> >::get_parameter_type(int)
FUNC 27a34 6 0 __crt_stdio_output::positional_parameter_base<wchar_t,__crt_stdio_output::string_output_adapter<wchar_t> >::get_parameter_type(unsigned int)
FUNC 27a3c 6 0 __crt_stdio_output::positional_parameter_base<wchar_t,__crt_stdio_output::string_output_adapter<wchar_t> >::get_parameter_type(_CRT_DOUBLE)
FUNC 27a44 6 0 __crt_stdio_output::positional_parameter_base<wchar_t,__crt_stdio_output::string_output_adapter<wchar_t> >::get_parameter_type(long long)
FUNC 27a4c 6 0 __crt_stdio_output::positional_parameter_base<wchar_t,__crt_stdio_output::string_output_adapter<wchar_t> >::get_parameter_type(unsigned long long)
FUNC 27a54 6 0 __crt_stdio_output::positional_parameter_base<wchar_t,__crt_stdio_output::string_output_adapter<wchar_t> >::get_parameter_type(wchar_t)
FUNC 27a5c 7 0 __crt_stdio_output::output_processor<char,__crt_stdio_output::stream_output_adapter<char>,__crt_stdio_output::format_validation_base<char,__crt_stdio_output::stream_output_adapter<char> > >::has_flag(const unsigned int) const
FUNC 27a64 7 0 __crt_stdio_output::output_processor<char,__crt_stdio_output::stream_output_adapter<char>,__crt_stdio_output::positional_parameter_base<char,__crt_stdio_output::stream_output_adapter<char> > >::has_flag(const unsigned int) const
FUNC 27a6c 7 0 __crt_stdio_output::output_processor<char,__crt_stdio_output::stream_output_adapter<char>,__crt_stdio_output::standard_base<char,__crt_stdio_output::stream_output_adapter<char> > >::has_flag(const unsigned int) const
FUNC 27a74 7 0 __crt_stdio_output::output_processor<char,__crt_stdio_output::string_output_adapter<char>,__crt_stdio_output::format_validation_base<char,__crt_stdio_output::string_output_adapter<char> > >::has_flag(const unsigned int) const
FUNC 27a7c 7 0 __crt_stdio_output::output_processor<char,__crt_stdio_output::string_output_adapter<char>,__crt_stdio_output::positional_parameter_base<char,__crt_stdio_output::string_output_adapter<char> > >::has_flag(const unsigned int) const
FUNC 27a84 7 0 __crt_stdio_output::output_processor<char,__crt_stdio_output::string_output_adapter<char>,__crt_stdio_output::standard_base<char,__crt_stdio_output::string_output_adapter<char> > >::has_flag(const unsigned int) const
FUNC 27a8c 7 0 __crt_stdio_output::output_processor<wchar_t,__crt_stdio_output::stream_output_adapter<wchar_t>,__crt_stdio_output::format_validation_base<wchar_t,__crt_stdio_output::stream_output_adapter<wchar_t> > >::has_flag(const unsigned int) const
FUNC 27a94 7 0 __crt_stdio_output::output_processor<wchar_t,__crt_stdio_output::stream_output_adapter<wchar_t>,__crt_stdio_output::positional_parameter_base<wchar_t,__crt_stdio_output::stream_output_adapter<wchar_t> > >::has_flag(const unsigned int) const
FUNC 27a9c 7 0 __crt_stdio_output::output_processor<wchar_t,__crt_stdio_output::stream_output_adapter<wchar_t>,__crt_stdio_output::standard_base<wchar_t,__crt_stdio_output::stream_output_adapter<wchar_t> > >::has_flag(const unsigned int) const
FUNC 27aa4 7 0 __crt_stdio_output::output_processor<wchar_t,__crt_stdio_output::string_output_adapter<wchar_t>,__crt_stdio_output::format_validation_base<wchar_t,__crt_stdio_output::string_output_adapter<wchar_t> > >::has_flag(const unsigned int) const
FUNC 27aac 7 0 __crt_stdio_output::output_processor<wchar_t,__crt_stdio_output::string_output_adapter<wchar_t>,__crt_stdio_output::positional_parameter_base<wchar_t,__crt_stdio_output::string_output_adapter<wchar_t> > >::has_flag(const unsigned int) const
FUNC 27ab4 7 0 __crt_stdio_output::output_processor<wchar_t,__crt_stdio_output::string_output_adapter<wchar_t>,__crt_stdio_output::standard_base<wchar_t,__crt_stdio_output::string_output_adapter<wchar_t> > >::has_flag(const unsigned int) const
FUNC 27abc 230 0 __crt_stdio_output::positional_parameter_base<char,__crt_stdio_output::stream_output_adapter<char> >::is_positional_parameter_reappearance_consistent(__crt_stdio_output::positional_parameter_base<char,__crt_stdio_output::stream_output_adapter<char> >::parameter_data const&, const __crt_stdio_output::positional_parameter_base<char,__crt_stdio_output::stream_output_adapter<char> >::parameter_type, const char, const __crt_stdio_output::length_modifier)
FUNC 27d78 230 0 __crt_stdio_output::positional_parameter_base<char,__crt_stdio_output::string_output_adapter<char> >::is_positional_parameter_reappearance_consistent(__crt_stdio_output::positional_parameter_base<char,__crt_stdio_output::string_output_adapter<char> >::parameter_data const&, const __crt_stdio_output::positional_parameter_base<char,__crt_stdio_output::string_output_adapter<char> >::parameter_type, const char, const __crt_stdio_output::length_modifier)
FUNC 28034 200 0 __crt_stdio_output::positional_parameter_base<wchar_t,__crt_stdio_output::stream_output_adapter<wchar_t> >::is_positional_parameter_reappearance_consistent(__crt_stdio_output::positional_parameter_base<wchar_t,__crt_stdio_output::stream_output_adapter<wchar_t> >::parameter_data const&, const __crt_stdio_output::positional_parameter_base<wchar_t,__crt_stdio_output::stream_output_adapter<wchar_t> >::parameter_type, const wchar_t, const __crt_stdio_output::length_modifier)
FUNC 282b4 200 0 __crt_stdio_output::positional_parameter_base<wchar_t,__crt_stdio_output::string_output_adapter<wchar_t> >::is_positional_parameter_reappearance_consistent(__crt_stdio_output::positional_parameter_base<wchar_t,__crt_stdio_output::string_output_adapter<wchar_t> >::parameter_data const&, const __crt_stdio_output::positional_parameter_base<wchar_t,__crt_stdio_output::string_output_adapter<wchar_t> >::parameter_type, const wchar_t, const __crt_stdio_output::length_modifier)
FUNC 28534 c 0 __crt_stdio_stream::is_string_backed() const
FUNC 28544 8 0 __crt_stdio_output::output_processor<char,__crt_stdio_output::stream_output_adapter<char>,__crt_stdio_output::format_validation_base<char,__crt_stdio_output::stream_output_adapter<char> > >::narrow_null_string()
FUNC 28550 8 0 __crt_stdio_output::output_processor<char,__crt_stdio_output::stream_output_adapter<char>,__crt_stdio_output::positional_parameter_base<char,__crt_stdio_output::stream_output_adapter<char> > >::narrow_null_string()
FUNC 2855c 8 0 __crt_stdio_output::output_processor<char,__crt_stdio_output::stream_output_adapter<char>,__crt_stdio_output::standard_base<char,__crt_stdio_output::stream_output_adapter<char> > >::narrow_null_string()
FUNC 28568 8 0 __crt_stdio_output::output_processor<char,__crt_stdio_output::string_output_adapter<char>,__crt_stdio_output::format_validation_base<char,__crt_stdio_output::string_output_adapter<char> > >::narrow_null_string()
FUNC 28574 8 0 __crt_stdio_output::output_processor<char,__crt_stdio_output::string_output_adapter<char>,__crt_stdio_output::positional_parameter_base<char,__crt_stdio_output::string_output_adapter<char> > >::narrow_null_string()
FUNC 28580 8 0 __crt_stdio_output::output_processor<char,__crt_stdio_output::string_output_adapter<char>,__crt_stdio_output::standard_base<char,__crt_stdio_output::string_output_adapter<char> > >::narrow_null_string()
FUNC 2858c 8 0 __crt_stdio_output::output_processor<wchar_t,__crt_stdio_output::stream_output_adapter<wchar_t>,__crt_stdio_output::format_validation_base<wchar_t,__crt_stdio_output::stream_output_adapter<wchar_t> > >::narrow_null_string()
FUNC 28598 8 0 __crt_stdio_output::output_processor<wchar_t,__crt_stdio_output::stream_output_adapter<wchar_t>,__crt_stdio_output::positional_parameter_base<wchar_t,__crt_stdio_output::stream_output_adapter<wchar_t> > >::narrow_null_string()
FUNC 285a4 8 0 __crt_stdio_output::output_processor<wchar_t,__crt_stdio_output::stream_output_adapter<wchar_t>,__crt_stdio_output::standard_base<wchar_t,__crt_stdio_output::stream_output_adapter<wchar_t> > >::narrow_null_string()
FUNC 285b0 8 0 __crt_stdio_output::output_processor<wchar_t,__crt_stdio_output::string_output_adapter<wchar_t>,__crt_stdio_output::format_validation_base<wchar_t,__crt_stdio_output::string_output_adapter<wchar_t> > >::narrow_null_string()
FUNC 285bc 8 0 __crt_stdio_output::output_processor<wchar_t,__crt_stdio_output::string_output_adapter<wchar_t>,__crt_stdio_output::positional_parameter_base<wchar_t,__crt_stdio_output::string_output_adapter<wchar_t> > >::narrow_null_string()
FUNC 285c8 8 0 __crt_stdio_output::output_processor<wchar_t,__crt_stdio_output::string_output_adapter<wchar_t>,__crt_stdio_output::standard_base<wchar_t,__crt_stdio_output::string_output_adapter<wchar_t> > >::narrow_null_string()
FUNC 285d4 a1 0 __crt_stdio_output::output_processor<char,__crt_stdio_output::stream_output_adapter<char>,__crt_stdio_output::format_validation_base<char,__crt_stdio_output::stream_output_adapter<char> > >::parse_int_from_format_string(int* const)
FUNC 286a0 a1 0 __crt_stdio_output::output_processor<char,__crt_stdio_output::stream_output_adapter<char>,__crt_stdio_output::positional_parameter_base<char,__crt_stdio_output::stream_output_adapter<char> > >::parse_int_from_format_string(int* const)
FUNC 2876c a1 0 __crt_stdio_output::output_processor<char,__crt_stdio_output::stream_output_adapter<char>,__crt_stdio_output::standard_base<char,__crt_stdio_output::stream_output_adapter<char> > >::parse_int_from_format_string(int* const)
FUNC 28838 a1 0 __crt_stdio_output::output_processor<char,__crt_stdio_output::string_output_adapter<char>,__crt_stdio_output::format_validation_base<char,__crt_stdio_output::string_output_adapter<char> > >::parse_int_from_format_string(int* const)
FUNC 28904 a1 0 __crt_stdio_output::output_processor<char,__crt_stdio_output::string_output_adapter<char>,__crt_stdio_output::positional_parameter_base<char,__crt_stdio_output::string_output_adapter<char> > >::parse_int_from_format_string(int* const)
FUNC 289d0 a1 0 __crt_stdio_output::output_processor<char,__crt_stdio_output::string_output_adapter<char>,__crt_stdio_output::standard_base<char,__crt_stdio_output::string_output_adapter<char> > >::parse_int_from_format_string(int* const)
FUNC 28a9c a3 0 __crt_stdio_output::output_processor<wchar_t,__crt_stdio_output::stream_output_adapter<wchar_t>,__crt_stdio_output::format_validation_base<wchar_t,__crt_stdio_output::stream_output_adapter<wchar_t> > >::parse_int_from_format_string(int* const)
FUNC 28b68 a3 0 __crt_stdio_output::output_processor<wchar_t,__crt_stdio_output::stream_output_adapter<wchar_t>,__crt_stdio_output::positional_parameter_base<wchar_t,__crt_stdio_output::stream_output_adapter<wchar_t> > >::parse_int_from_format_string(int* const)
FUNC 28c34 a3 0 __crt_stdio_output::output_processor<wchar_t,__crt_stdio_output::stream_output_adapter<wchar_t>,__crt_stdio_output::standard_base<wchar_t,__crt_stdio_output::stream_output_adapter<wchar_t> > >::parse_int_from_format_string(int* const)
FUNC 28d00 a3 0 __crt_stdio_output::output_processor<wchar_t,__crt_stdio_output::string_output_adapter<wchar_t>,__crt_stdio_output::format_validation_base<wchar_t,__crt_stdio_output::string_output_adapter<wchar_t> > >::parse_int_from_format_string(int* const)
FUNC 28dcc a3 0 __crt_stdio_output::output_processor<wchar_t,__crt_stdio_output::string_output_adapter<wchar_t>,__crt_stdio_output::positional_parameter_base<wchar_t,__crt_stdio_output::string_output_adapter<wchar_t> > >::parse_int_from_format_string(int* const)
FUNC 28e98 a3 0 __crt_stdio_output::output_processor<wchar_t,__crt_stdio_output::string_output_adapter<wchar_t>,__crt_stdio_output::standard_base<wchar_t,__crt_stdio_output::string_output_adapter<wchar_t> > >::parse_int_from_format_string(int* const)
FUNC 28f64 227 0 __crt_stdio_output::output_processor<char,__crt_stdio_output::stream_output_adapter<char>,__crt_stdio_output::format_validation_base<char,__crt_stdio_output::stream_output_adapter<char> > >::process()
FUNC 29214 2a6 0 __crt_stdio_output::output_processor<char,__crt_stdio_output::stream_output_adapter<char>,__crt_stdio_output::positional_parameter_base<char,__crt_stdio_output::stream_output_adapter<char> > >::process()
FUNC 29564 216 0 __crt_stdio_output::output_processor<char,__crt_stdio_output::stream_output_adapter<char>,__crt_stdio_output::standard_base<char,__crt_stdio_output::stream_output_adapter<char> > >::process()
FUNC 29800 218 0 __crt_stdio_output::output_processor<char,__crt_stdio_output::string_output_adapter<char>,__crt_stdio_output::format_validation_base<char,__crt_stdio_output::string_output_adapter<char> > >::process()
FUNC 29aa0 295 0 __crt_stdio_output::output_processor<char,__crt_stdio_output::string_output_adapter<char>,__crt_stdio_output::positional_parameter_base<char,__crt_stdio_output::string_output_adapter<char> > >::process()
FUNC 29ddc 20a 0 __crt_stdio_output::output_processor<char,__crt_stdio_output::string_output_adapter<char>,__crt_stdio_output::standard_base<char,__crt_stdio_output::string_output_adapter<char> > >::process()
FUNC 2a068 277 0 __crt_stdio_output::output_processor<wchar_t,__crt_stdio_output::stream_output_adapter<wchar_t>,__crt_stdio_output::format_validation_base<wchar_t,__crt_stdio_output::stream_output_adapter<wchar_t> > >::process()
FUNC 2a37c 2b2 0 __crt_stdio_output::output_processor<wchar_t,__crt_stdio_output::stream_output_adapter<wchar_t>,__crt_stdio_output::positional_parameter_base<wchar_t,__crt_stdio_output::stream_output_adapter<wchar_t> > >::process()
FUNC 2a6dc 26a 0 __crt_stdio_output::output_processor<wchar_t,__crt_stdio_output::stream_output_adapter<wchar_t>,__crt_stdio_output::standard_base<wchar_t,__crt_stdio_output::stream_output_adapter<wchar_t> > >::process()
FUNC 2a9e0 288 0 __crt_stdio_output::output_processor<wchar_t,__crt_stdio_output::string_output_adapter<wchar_t>,__crt_stdio_output::format_validation_base<wchar_t,__crt_stdio_output::string_output_adapter<wchar_t> > >::process()
FUNC 2ad0c 2b2 0 __crt_stdio_output::output_processor<wchar_t,__crt_stdio_output::string_output_adapter<wchar_t>,__crt_stdio_output::positional_parameter_base<wchar_t,__crt_stdio_output::string_output_adapter<wchar_t> > >::process()
FUNC 2b06c 27b 0 __crt_stdio_output::output_processor<wchar_t,__crt_stdio_output::string_output_adapter<wchar_t>,__crt_stdio_output::standard_base<wchar_t,__crt_stdio_output::string_output_adapter<wchar_t> > >::process()
FUNC 2b388 4 0 __crt_stdio_stream::public_stream() const
FUNC 2b38c 4 0 __crt_stdio_output::output_processor<char,__crt_stdio_output::stream_output_adapter<char>,__crt_stdio_output::format_validation_base<char,__crt_stdio_output::stream_output_adapter<char> > >::set_flag(const unsigned int)
FUNC 2b390 4 0 __crt_stdio_output::output_processor<char,__crt_stdio_output::stream_output_adapter<char>,__crt_stdio_output::positional_parameter_base<char,__crt_stdio_output::stream_output_adapter<char> > >::set_flag(const unsigned int)
FUNC 2b394 4 0 __crt_stdio_output::output_processor<char,__crt_stdio_output::stream_output_adapter<char>,__crt_stdio_output::standard_base<char,__crt_stdio_output::stream_output_adapter<char> > >::set_flag(const unsigned int)
FUNC 2b398 4 0 __crt_stdio_output::output_processor<char,__crt_stdio_output::string_output_adapter<char>,__crt_stdio_output::format_validation_base<char,__crt_stdio_output::string_output_adapter<char> > >::set_flag(const unsigned int)
FUNC 2b39c 4 0 __crt_stdio_output::output_processor<char,__crt_stdio_output::string_output_adapter<char>,__crt_stdio_output::positional_parameter_base<char,__crt_stdio_output::string_output_adapter<char> > >::set_flag(const unsigned int)
FUNC 2b3a0 4 0 __crt_stdio_output::output_processor<char,__crt_stdio_output::string_output_adapter<char>,__crt_stdio_output::standard_base<char,__crt_stdio_output::string_output_adapter<char> > >::set_flag(const unsigned int)
FUNC 2b3a4 4 0 __crt_stdio_output::output_processor<wchar_t,__crt_stdio_output::stream_output_adapter<wchar_t>,__crt_stdio_output::format_validation_base<wchar_t,__crt_stdio_output::stream_output_adapter<wchar_t> > >::set_flag(const unsigned int)
FUNC 2b3a8 4 0 __crt_stdio_output::output_processor<wchar_t,__crt_stdio_output::stream_output_adapter<wchar_t>,__crt_stdio_output::positional_parameter_base<wchar_t,__crt_stdio_output::stream_output_adapter<wchar_t> > >::set_flag(const unsigned int)
FUNC 2b3ac 4 0 __crt_stdio_output::output_processor<wchar_t,__crt_stdio_output::stream_output_adapter<wchar_t>,__crt_stdio_output::standard_base<wchar_t,__crt_stdio_output::stream_output_adapter<wchar_t> > >::set_flag(const unsigned int)
FUNC 2b3b0 4 0 __crt_stdio_output::output_processor<wchar_t,__crt_stdio_output::string_output_adapter<wchar_t>,__crt_stdio_output::format_validation_base<wchar_t,__crt_stdio_output::string_output_adapter<wchar_t> > >::set_flag(const unsigned int)
FUNC 2b3b4 4 0 __crt_stdio_output::output_processor<wchar_t,__crt_stdio_output::string_output_adapter<wchar_t>,__crt_stdio_output::positional_parameter_base<wchar_t,__crt_stdio_output::string_output_adapter<wchar_t> > >::set_flag(const unsigned int)
FUNC 2b3b8 4 0 __crt_stdio_output::output_processor<wchar_t,__crt_stdio_output::string_output_adapter<wchar_t>,__crt_stdio_output::standard_base<wchar_t,__crt_stdio_output::string_output_adapter<wchar_t> > >::set_flag(const unsigned int)
FUNC 2b3bc 18 0 __crt_stdio_output::positional_parameter_base<char,__crt_stdio_output::stream_output_adapter<char> >::should_format()
FUNC 2b3dc 18 0 __crt_stdio_output::positional_parameter_base<char,__crt_stdio_output::string_output_adapter<char> >::should_format()
FUNC 2b3fc 18 0 __crt_stdio_output::positional_parameter_base<wchar_t,__crt_stdio_output::stream_output_adapter<wchar_t> >::should_format()
FUNC 2b41c 18 0 __crt_stdio_output::positional_parameter_base<wchar_t,__crt_stdio_output::string_output_adapter<wchar_t> >::should_format()
FUNC 2b43c 3 0 __crt_stdio_output::standard_base<char,__crt_stdio_output::stream_output_adapter<char> >::should_format()
FUNC 2b440 3 0 __crt_stdio_output::standard_base<char,__crt_stdio_output::string_output_adapter<char> >::should_format()
FUNC 2b444 3 0 __crt_stdio_output::standard_base<wchar_t,__crt_stdio_output::stream_output_adapter<wchar_t> >::should_format()
FUNC 2b448 3 0 __crt_stdio_output::standard_base<wchar_t,__crt_stdio_output::string_output_adapter<wchar_t> >::should_format()
FUNC 2b44c 28 0 __crt_stdio_output::positional_parameter_base<char,__crt_stdio_output::stream_output_adapter<char> >::should_skip_normal_state_processing()
FUNC 2b480 28 0 __crt_stdio_output::positional_parameter_base<char,__crt_stdio_output::string_output_adapter<char> >::should_skip_normal_state_processing()
FUNC 2b4b4 28 0 __crt_stdio_output::positional_parameter_base<wchar_t,__crt_stdio_output::stream_output_adapter<wchar_t> >::should_skip_normal_state_processing()
FUNC 2b4e8 28 0 __crt_stdio_output::positional_parameter_base<wchar_t,__crt_stdio_output::string_output_adapter<wchar_t> >::should_skip_normal_state_processing()
FUNC 2b51c 3 0 __crt_stdio_output::standard_base<char,__crt_stdio_output::stream_output_adapter<char> >::should_skip_normal_state_processing()
FUNC 2b520 3 0 __crt_stdio_output::standard_base<char,__crt_stdio_output::string_output_adapter<char> >::should_skip_normal_state_processing()
FUNC 2b524 3 0 __crt_stdio_output::standard_base<wchar_t,__crt_stdio_output::stream_output_adapter<wchar_t> >::should_skip_normal_state_processing()
FUNC 2b528 3 0 __crt_stdio_output::standard_base<wchar_t,__crt_stdio_output::string_output_adapter<wchar_t> >::should_skip_normal_state_processing()
FUNC 2b52c 19 0 __crt_stdio_output::positional_parameter_base<char,__crt_stdio_output::stream_output_adapter<char> >::should_skip_type_state_output() const
FUNC 2b54c 19 0 __crt_stdio_output::positional_parameter_base<char,__crt_stdio_output::string_output_adapter<char> >::should_skip_type_state_output() const
FUNC 2b56c 19 0 __crt_stdio_output::positional_parameter_base<wchar_t,__crt_stdio_output::stream_output_adapter<wchar_t> >::should_skip_type_state_output() const
FUNC 2b58c 19 0 __crt_stdio_output::positional_parameter_base<wchar_t,__crt_stdio_output::string_output_adapter<wchar_t> >::should_skip_type_state_output() const
FUNC 2b5ac 3 0 __crt_stdio_output::standard_base<char,__crt_stdio_output::stream_output_adapter<char> >::should_skip_type_state_output() const
FUNC 2b5b0 3 0 __crt_stdio_output::standard_base<char,__crt_stdio_output::string_output_adapter<char> >::should_skip_type_state_output() const
FUNC 2b5b4 3 0 __crt_stdio_output::standard_base<wchar_t,__crt_stdio_output::stream_output_adapter<wchar_t> >::should_skip_type_state_output() const
FUNC 2b5b8 3 0 __crt_stdio_output::standard_base<wchar_t,__crt_stdio_output::string_output_adapter<wchar_t> >::should_skip_type_state_output() const
FUNC 2b5bc 7 0 __crt_stdio_output::output_processor<char,__crt_stdio_output::stream_output_adapter<char>,__crt_stdio_output::format_validation_base<char,__crt_stdio_output::stream_output_adapter<char> > >::state_case_dot()
FUNC 2b5c4 7 0 __crt_stdio_output::output_processor<char,__crt_stdio_output::stream_output_adapter<char>,__crt_stdio_output::positional_parameter_base<char,__crt_stdio_output::stream_output_adapter<char> > >::state_case_dot()
FUNC 2b5cc 7 0 __crt_stdio_output::output_processor<char,__crt_stdio_output::stream_output_adapter<char>,__crt_stdio_output::standard_base<char,__crt_stdio_output::stream_output_adapter<char> > >::state_case_dot()
FUNC 2b5d4 7 0 __crt_stdio_output::output_processor<char,__crt_stdio_output::string_output_adapter<char>,__crt_stdio_output::format_validation_base<char,__crt_stdio_output::string_output_adapter<char> > >::state_case_dot()
FUNC 2b5dc 7 0 __crt_stdio_output::output_processor<char,__crt_stdio_output::string_output_adapter<char>,__crt_stdio_output::positional_parameter_base<char,__crt_stdio_output::string_output_adapter<char> > >::state_case_dot()
FUNC 2b5e4 7 0 __crt_stdio_output::output_processor<char,__crt_stdio_output::string_output_adapter<char>,__crt_stdio_output::standard_base<char,__crt_stdio_output::string_output_adapter<char> > >::state_case_dot()
FUNC 2b5ec 7 0 __crt_stdio_output::output_processor<wchar_t,__crt_stdio_output::stream_output_adapter<wchar_t>,__crt_stdio_output::format_validation_base<wchar_t,__crt_stdio_output::stream_output_adapter<wchar_t> > >::state_case_dot()
FUNC 2b5f4 7 0 __crt_stdio_output::output_processor<wchar_t,__crt_stdio_output::stream_output_adapter<wchar_t>,__crt_stdio_output::positional_parameter_base<wchar_t,__crt_stdio_output::stream_output_adapter<wchar_t> > >::state_case_dot()
FUNC 2b5fc 7 0 __crt_stdio_output::output_processor<wchar_t,__crt_stdio_output::stream_output_adapter<wchar_t>,__crt_stdio_output::standard_base<wchar_t,__crt_stdio_output::stream_output_adapter<wchar_t> > >::state_case_dot()
FUNC 2b604 7 0 __crt_stdio_output::output_processor<wchar_t,__crt_stdio_output::string_output_adapter<wchar_t>,__crt_stdio_output::format_validation_base<wchar_t,__crt_stdio_output::string_output_adapter<wchar_t> > >::state_case_dot()
FUNC 2b60c 7 0 __crt_stdio_output::output_processor<wchar_t,__crt_stdio_output::string_output_adapter<wchar_t>,__crt_stdio_output::positional_parameter_base<wchar_t,__crt_stdio_output::string_output_adapter<wchar_t> > >::state_case_dot()
FUNC 2b614 7 0 __crt_stdio_output::output_processor<wchar_t,__crt_stdio_output::string_output_adapter<wchar_t>,__crt_stdio_output::standard_base<wchar_t,__crt_stdio_output::string_output_adapter<wchar_t> > >::state_case_dot()
FUNC 2b61c 36 0 __crt_stdio_output::output_processor<char,__crt_stdio_output::stream_output_adapter<char>,__crt_stdio_output::format_validation_base<char,__crt_stdio_output::stream_output_adapter<char> > >::state_case_flag()
FUNC 2b660 36 0 __crt_stdio_output::output_processor<char,__crt_stdio_output::stream_output_adapter<char>,__crt_stdio_output::positional_parameter_base<char,__crt_stdio_output::stream_output_adapter<char> > >::state_case_flag()
FUNC 2b6a4 36 0 __crt_stdio_output::output_processor<char,__crt_stdio_output::stream_output_adapter<char>,__crt_stdio_output::standard_base<char,__crt_stdio_output::stream_output_adapter<char> > >::state_case_flag()
FUNC 2b6e8 36 0 __crt_stdio_output::output_processor<char,__crt_stdio_output::string_output_adapter<char>,__crt_stdio_output::format_validation_base<char,__crt_stdio_output::string_output_adapter<char> > >::state_case_flag()
FUNC 2b72c 36 0 __crt_stdio_output::output_processor<char,__crt_stdio_output::string_output_adapter<char>,__crt_stdio_output::positional_parameter_base<char,__crt_stdio_output::string_output_adapter<char> > >::state_case_flag()
FUNC 2b770 36 0 __crt_stdio_output::output_processor<char,__crt_stdio_output::string_output_adapter<char>,__crt_stdio_output::standard_base<char,__crt_stdio_output::string_output_adapter<char> > >::state_case_flag()
FUNC 2b7b4 44 0 __crt_stdio_output::output_processor<wchar_t,__crt_stdio_output::stream_output_adapter<wchar_t>,__crt_stdio_output::format_validation_base<wchar_t,__crt_stdio_output::stream_output_adapter<wchar_t> > >::state_case_flag()
FUNC 2b80c 44 0 __crt_stdio_output::output_processor<wchar_t,__crt_stdio_output::stream_output_adapter<wchar_t>,__crt_stdio_output::positional_parameter_base<wchar_t,__crt_stdio_output::stream_output_adapter<wchar_t> > >::state_case_flag()
FUNC 2b864 44 0 __crt_stdio_output::output_processor<wchar_t,__crt_stdio_output::stream_output_adapter<wchar_t>,__crt_stdio_output::standard_base<wchar_t,__crt_stdio_output::stream_output_adapter<wchar_t> > >::state_case_flag()
FUNC 2b8bc 44 0 __crt_stdio_output::output_processor<wchar_t,__crt_stdio_output::string_output_adapter<wchar_t>,__crt_stdio_output::format_validation_base<wchar_t,__crt_stdio_output::string_output_adapter<wchar_t> > >::state_case_flag()
FUNC 2b914 44 0 __crt_stdio_output::output_processor<wchar_t,__crt_stdio_output::string_output_adapter<wchar_t>,__crt_stdio_output::positional_parameter_base<wchar_t,__crt_stdio_output::string_output_adapter<wchar_t> > >::state_case_flag()
FUNC 2b96c 44 0 __crt_stdio_output::output_processor<wchar_t,__crt_stdio_output::string_output_adapter<wchar_t>,__crt_stdio_output::standard_base<wchar_t,__crt_stdio_output::string_output_adapter<wchar_t> > >::state_case_flag()
FUNC 2b9c4 70 0 __crt_stdio_output::output_processor<char,__crt_stdio_output::stream_output_adapter<char>,__crt_stdio_output::format_validation_base<char,__crt_stdio_output::stream_output_adapter<char> > >::state_case_normal()
FUNC 2ba50 94 0 __crt_stdio_output::output_processor<char,__crt_stdio_output::stream_output_adapter<char>,__crt_stdio_output::positional_parameter_base<char,__crt_stdio_output::stream_output_adapter<char> > >::state_case_normal()
FUNC 2bb0c 70 0 __crt_stdio_output::output_processor<char,__crt_stdio_output::stream_output_adapter<char>,__crt_stdio_output::standard_base<char,__crt_stdio_output::stream_output_adapter<char> > >::state_case_normal()
FUNC 2bb98 74 0 __crt_stdio_output::output_processor<char,__crt_stdio_output::string_output_adapter<char>,__crt_stdio_output::format_validation_base<char,__crt_stdio_output::string_output_adapter<char> > >::state_case_normal()
FUNC 2bc2c 98 0 __crt_stdio_output::output_processor<char,__crt_stdio_output::string_output_adapter<char>,__crt_stdio_output::positional_parameter_base<char,__crt_stdio_output::string_output_adapter<char> > >::state_case_normal()
FUNC 2bcec 74 0 __crt_stdio_output::output_processor<char,__crt_stdio_output::string_output_adapter<char>,__crt_stdio_output::standard_base<char,__crt_stdio_output::string_output_adapter<char> > >::state_case_normal()
FUNC 2bd80 58 0 __crt_stdio_output::output_processor<wchar_t,__crt_stdio_output::stream_output_adapter<wchar_t>,__crt_stdio_output::format_validation_base<wchar_t,__crt_stdio_output::stream_output_adapter<wchar_t> > >::state_case_normal()
FUNC 2bdf0 7c 0 __crt_stdio_output::output_processor<wchar_t,__crt_stdio_output::stream_output_adapter<wchar_t>,__crt_stdio_output::positional_parameter_base<wchar_t,__crt_stdio_output::stream_output_adapter<wchar_t> > >::state_case_normal()
FUNC 2be8c 58 0 __crt_stdio_output::output_processor<wchar_t,__crt_stdio_output::stream_output_adapter<wchar_t>,__crt_stdio_output::standard_base<wchar_t,__crt_stdio_output::stream_output_adapter<wchar_t> > >::state_case_normal()
FUNC 2befc 54 0 __crt_stdio_output::output_processor<wchar_t,__crt_stdio_output::string_output_adapter<wchar_t>,__crt_stdio_output::format_validation_base<wchar_t,__crt_stdio_output::string_output_adapter<wchar_t> > >::state_case_normal()
FUNC 2bf68 78 0 __crt_stdio_output::output_processor<wchar_t,__crt_stdio_output::string_output_adapter<wchar_t>,__crt_stdio_output::positional_parameter_base<wchar_t,__crt_stdio_output::string_output_adapter<wchar_t> > >::state_case_normal()
FUNC 2c000 54 0 __crt_stdio_output::output_processor<wchar_t,__crt_stdio_output::string_output_adapter<wchar_t>,__crt_stdio_output::standard_base<wchar_t,__crt_stdio_output::string_output_adapter<wchar_t> > >::state_case_normal()
FUNC 2c06c 5c 0 __crt_stdio_output::output_processor<char,__crt_stdio_output::stream_output_adapter<char>,__crt_stdio_output::format_validation_base<char,__crt_stdio_output::stream_output_adapter<char> > >::state_case_normal_common()
FUNC 2c0e0 5c 0 __crt_stdio_output::output_processor<char,__crt_stdio_output::stream_output_adapter<char>,__crt_stdio_output::positional_parameter_base<char,__crt_stdio_output::stream_output_adapter<char> > >::state_case_normal_common()
FUNC 2c154 5c 0 __crt_stdio_output::output_processor<char,__crt_stdio_output::stream_output_adapter<char>,__crt_stdio_output::standard_base<char,__crt_stdio_output::stream_output_adapter<char> > >::state_case_normal_common()
FUNC 2c1c8 60 0 __crt_stdio_output::output_processor<char,__crt_stdio_output::string_output_adapter<char>,__crt_stdio_output::format_validation_base<char,__crt_stdio_output::string_output_adapter<char> > >::state_case_normal_common()
FUNC 2c240 60 0 __crt_stdio_output::output_processor<char,__crt_stdio_output::string_output_adapter<char>,__crt_stdio_output::positional_parameter_base<char,__crt_stdio_output::string_output_adapter<char> > >::state_case_normal_common()
FUNC 2c2b8 60 0 __crt_stdio_output::output_processor<char,__crt_stdio_output::string_output_adapter<char>,__crt_stdio_output::standard_base<char,__crt_stdio_output::string_output_adapter<char> > >::state_case_normal_common()
FUNC 2c330 58 0 __crt_stdio_output::output_processor<wchar_t,__crt_stdio_output::stream_output_adapter<wchar_t>,__crt_stdio_output::format_validation_base<wchar_t,__crt_stdio_output::stream_output_adapter<wchar_t> > >::state_case_normal_common()
FUNC 2c3a0 58 0 __crt_stdio_output::output_processor<wchar_t,__crt_stdio_output::stream_output_adapter<wchar_t>,__crt_stdio_output::positional_parameter_base<wchar_t,__crt_stdio_output::stream_output_adapter<wchar_t> > >::state_case_normal_common()
FUNC 2c410 58 0 __crt_stdio_output::output_processor<wchar_t,__crt_stdio_output::stream_output_adapter<wchar_t>,__crt_stdio_output::standard_base<wchar_t,__crt_stdio_output::stream_output_adapter<wchar_t> > >::state_case_normal_common()
FUNC 2c480 54 0 __crt_stdio_output::output_processor<wchar_t,__crt_stdio_output::string_output_adapter<wchar_t>,__crt_stdio_output::format_validation_base<wchar_t,__crt_stdio_output::string_output_adapter<wchar_t> > >::state_case_normal_common()
FUNC 2c4ec 54 0 __crt_stdio_output::output_processor<wchar_t,__crt_stdio_output::string_output_adapter<wchar_t>,__crt_stdio_output::positional_parameter_base<wchar_t,__crt_stdio_output::string_output_adapter<wchar_t> > >::state_case_normal_common()
FUNC 2c558 54 0 __crt_stdio_output::output_processor<wchar_t,__crt_stdio_output::string_output_adapter<wchar_t>,__crt_stdio_output::standard_base<wchar_t,__crt_stdio_output::string_output_adapter<wchar_t> > >::state_case_normal_common()
FUNC 2c5c4 a2 0 __crt_stdio_output::output_processor<char,__crt_stdio_output::stream_output_adapter<char>,__crt_stdio_output::format_validation_base<char,__crt_stdio_output::stream_output_adapter<char> > >::state_case_normal_tchar(char)
FUNC 2c690 a2 0 __crt_stdio_output::output_processor<char,__crt_stdio_output::stream_output_adapter<char>,__crt_stdio_output::positional_parameter_base<char,__crt_stdio_output::stream_output_adapter<char> > >::state_case_normal_tchar(char)
FUNC 2c75c a2 0 __crt_stdio_output::output_processor<char,__crt_stdio_output::stream_output_adapter<char>,__crt_stdio_output::standard_base<char,__crt_stdio_output::stream_output_adapter<char> > >::state_case_normal_tchar(char)
FUNC 2c828 a8 0 __crt_stdio_output::output_processor<char,__crt_stdio_output::string_output_adapter<char>,__crt_stdio_output::format_validation_base<char,__crt_stdio_output::string_output_adapter<char> > >::state_case_normal_tchar(char)
FUNC 2c8fc a8 0 __crt_stdio_output::output_processor<char,__crt_stdio_output::string_output_adapter<char>,__crt_stdio_output::positional_parameter_base<char,__crt_stdio_output::string_output_adapter<char> > >::state_case_normal_tchar(char)
FUNC 2c9d0 a8 0 __crt_stdio_output::output_processor<char,__crt_stdio_output::string_output_adapter<char>,__crt_stdio_output::standard_base<char,__crt_stdio_output::string_output_adapter<char> > >::state_case_normal_tchar(char)
FUNC 2caa4 7 0 __crt_stdio_output::output_processor<wchar_t,__crt_stdio_output::stream_output_adapter<wchar_t>,__crt_stdio_output::format_validation_base<wchar_t,__crt_stdio_output::stream_output_adapter<wchar_t> > >::state_case_normal_tchar(wchar_t)
FUNC 2caac 7 0 __crt_stdio_output::output_processor<wchar_t,__crt_stdio_output::stream_output_adapter<wchar_t>,__crt_stdio_output::positional_parameter_base<wchar_t,__crt_stdio_output::stream_output_adapter<wchar_t> > >::state_case_normal_tchar(wchar_t)
FUNC 2cab4 7 0 __crt_stdio_output::output_processor<wchar_t,__crt_stdio_output::stream_output_adapter<wchar_t>,__crt_stdio_output::standard_base<wchar_t,__crt_stdio_output::stream_output_adapter<wchar_t> > >::state_case_normal_tchar(wchar_t)
FUNC 2cabc 7 0 __crt_stdio_output::output_processor<wchar_t,__crt_stdio_output::string_output_adapter<wchar_t>,__crt_stdio_output::format_validation_base<wchar_t,__crt_stdio_output::string_output_adapter<wchar_t> > >::state_case_normal_tchar(wchar_t)
FUNC 2cac4 7 0 __crt_stdio_output::output_processor<wchar_t,__crt_stdio_output::string_output_adapter<wchar_t>,__crt_stdio_output::positional_parameter_base<wchar_t,__crt_stdio_output::string_output_adapter<wchar_t> > >::state_case_normal_tchar(wchar_t)
FUNC 2cacc 7 0 __crt_stdio_output::output_processor<wchar_t,__crt_stdio_output::string_output_adapter<wchar_t>,__crt_stdio_output::standard_base<wchar_t,__crt_stdio_output::string_output_adapter<wchar_t> > >::state_case_normal_tchar(wchar_t)
FUNC 2cad4 16 0 __crt_stdio_output::output_processor<char,__crt_stdio_output::stream_output_adapter<char>,__crt_stdio_output::format_validation_base<char,__crt_stdio_output::stream_output_adapter<char> > >::state_case_percent()
FUNC 2caf0 16 0 __crt_stdio_output::output_processor<char,__crt_stdio_output::stream_output_adapter<char>,__crt_stdio_output::positional_parameter_base<char,__crt_stdio_output::stream_output_adapter<char> > >::state_case_percent()
FUNC 2cb0c 16 0 __crt_stdio_output::output_processor<char,__crt_stdio_output::stream_output_adapter<char>,__crt_stdio_output::standard_base<char,__crt_stdio_output::stream_output_adapter<char> > >::state_case_percent()
FUNC 2cb28 16 0 __crt_stdio_output::output_processor<char,__crt_stdio_output::string_output_adapter<char>,__crt_stdio_output::format_validation_base<char,__crt_stdio_output::string_output_adapter<char> > >::state_case_percent()
FUNC 2cb44 16 0 __crt_stdio_output::output_processor<char,__crt_stdio_output::string_output_adapter<char>,__crt_stdio_output::positional_parameter_base<char,__crt_stdio_output::string_output_adapter<char> > >::state_case_percent()
FUNC 2cb60 16 0 __crt_stdio_output::output_processor<char,__crt_stdio_output::string_output_adapter<char>,__crt_stdio_output::standard_base<char,__crt_stdio_output::string_output_adapter<char> > >::state_case_percent()
FUNC 2cb7c 16 0 __crt_stdio_output::output_processor<wchar_t,__crt_stdio_output::stream_output_adapter<wchar_t>,__crt_stdio_output::format_validation_base<wchar_t,__crt_stdio_output::stream_output_adapter<wchar_t> > >::state_case_percent()
FUNC 2cb98 16 0 __crt_stdio_output::output_processor<wchar_t,__crt_stdio_output::stream_output_adapter<wchar_t>,__crt_stdio_output::positional_parameter_base<wchar_t,__crt_stdio_output::stream_output_adapter<wchar_t> > >::state_case_percent()
FUNC 2cbb4 16 0 __crt_stdio_output::output_processor<wchar_t,__crt_stdio_output::stream_output_adapter<wchar_t>,__crt_stdio_output::standard_base<wchar_t,__crt_stdio_output::stream_output_adapter<wchar_t> > >::state_case_percent()
FUNC 2cbd0 16 0 __crt_stdio_output::output_processor<wchar_t,__crt_stdio_output::string_output_adapter<wchar_t>,__crt_stdio_output::format_validation_base<wchar_t,__crt_stdio_output::string_output_adapter<wchar_t> > >::state_case_percent()
FUNC 2cbec 16 0 __crt_stdio_output::output_processor<wchar_t,__crt_stdio_output::string_output_adapter<wchar_t>,__crt_stdio_output::positional_parameter_base<wchar_t,__crt_stdio_output::string_output_adapter<wchar_t> > >::state_case_percent()
FUNC 2cc08 16 0 __crt_stdio_output::output_processor<wchar_t,__crt_stdio_output::string_output_adapter<wchar_t>,__crt_stdio_output::standard_base<wchar_t,__crt_stdio_output::string_output_adapter<wchar_t> > >::state_case_percent()
FUNC 2cc24 27 0 __crt_stdio_output::output_processor<char,__crt_stdio_output::stream_output_adapter<char>,__crt_stdio_output::format_validation_base<char,__crt_stdio_output::stream_output_adapter<char> > >::state_case_precision()
FUNC 2cc54 4a 0 __crt_stdio_output::output_processor<char,__crt_stdio_output::stream_output_adapter<char>,__crt_stdio_output::positional_parameter_base<char,__crt_stdio_output::stream_output_adapter<char> > >::state_case_precision()
FUNC 2ccb0 27 0 __crt_stdio_output::output_processor<char,__crt_stdio_output::stream_output_adapter<char>,__crt_stdio_output::standard_base<char,__crt_stdio_output::stream_output_adapter<char> > >::state_case_precision()
FUNC 2cce0 27 0 __crt_stdio_output::output_processor<char,__crt_stdio_output::string_output_adapter<char>,__crt_stdio_output::format_validation_base<char,__crt_stdio_output::string_output_adapter<char> > >::state_case_precision()
FUNC 2cd10 4a 0 __crt_stdio_output::output_processor<char,__crt_stdio_output::string_output_adapter<char>,__crt_stdio_output::positional_parameter_base<char,__crt_stdio_output::string_output_adapter<char> > >::state_case_precision()
FUNC 2cd6c 27 0 __crt_stdio_output::output_processor<char,__crt_stdio_output::string_output_adapter<char>,__crt_stdio_output::standard_base<char,__crt_stdio_output::string_output_adapter<char> > >::state_case_precision()
FUNC 2cd9c 28 0 __crt_stdio_output::output_processor<wchar_t,__crt_stdio_output::stream_output_adapter<wchar_t>,__crt_stdio_output::format_validation_base<wchar_t,__crt_stdio_output::stream_output_adapter<wchar_t> > >::state_case_precision()
FUNC 2cdd0 4b 0 __crt_stdio_output::output_processor<wchar_t,__crt_stdio_output::stream_output_adapter<wchar_t>,__crt_stdio_output::positional_parameter_base<wchar_t,__crt_stdio_output::stream_output_adapter<wchar_t> > >::state_case_precision()
FUNC 2ce30 28 0 __crt_stdio_output::output_processor<wchar_t,__crt_stdio_output::stream_output_adapter<wchar_t>,__crt_stdio_output::standard_base<wchar_t,__crt_stdio_output::stream_output_adapter<wchar_t> > >::state_case_precision()
FUNC 2ce64 28 0 __crt_stdio_output::output_processor<wchar_t,__crt_stdio_output::string_output_adapter<wchar_t>,__crt_stdio_output::format_validation_base<wchar_t,__crt_stdio_output::string_output_adapter<wchar_t> > >::state_case_precision()
FUNC 2ce98 4b 0 __crt_stdio_output::output_processor<wchar_t,__crt_stdio_output::string_output_adapter<wchar_t>,__crt_stdio_output::positional_parameter_base<wchar_t,__crt_stdio_output::string_output_adapter<wchar_t> > >::state_case_precision()
FUNC 2cef8 28 0 __crt_stdio_output::output_processor<wchar_t,__crt_stdio_output::string_output_adapter<wchar_t>,__crt_stdio_output::standard_base<wchar_t,__crt_stdio_output::string_output_adapter<wchar_t> > >::state_case_precision()
FUNC 2cf2c 171 0 __crt_stdio_output::output_processor<char,__crt_stdio_output::stream_output_adapter<char>,__crt_stdio_output::format_validation_base<char,__crt_stdio_output::stream_output_adapter<char> > >::state_case_size()
FUNC 2d0fc 171 0 __crt_stdio_output::output_processor<char,__crt_stdio_output::stream_output_adapter<char>,__crt_stdio_output::positional_parameter_base<char,__crt_stdio_output::stream_output_adapter<char> > >::state_case_size()
FUNC 2d2cc 171 0 __crt_stdio_output::output_processor<char,__crt_stdio_output::stream_output_adapter<char>,__crt_stdio_output::standard_base<char,__crt_stdio_output::stream_output_adapter<char> > >::state_case_size()
FUNC 2d49c 171 0 __crt_stdio_output::output_processor<char,__crt_stdio_output::string_output_adapter<char>,__crt_stdio_output::format_validation_base<char,__crt_stdio_output::string_output_adapter<char> > >::state_case_size()
FUNC 2d66c 171 0 __crt_stdio_output::output_processor<char,__crt_stdio_output::string_output_adapter<char>,__crt_stdio_output::positional_parameter_base<char,__crt_stdio_output::string_output_adapter<char> > >::state_case_size()
FUNC 2d83c 171 0 __crt_stdio_output::output_processor<char,__crt_stdio_output::string_output_adapter<char>,__crt_stdio_output::standard_base<char,__crt_stdio_output::string_output_adapter<char> > >::state_case_size()
FUNC 2da0c 196 0 __crt_stdio_output::output_processor<wchar_t,__crt_stdio_output::stream_output_adapter<wchar_t>,__crt_stdio_output::format_validation_base<wchar_t,__crt_stdio_output::stream_output_adapter<wchar_t> > >::state_case_size()
FUNC 2dc08 196 0 __crt_stdio_output::output_processor<wchar_t,__crt_stdio_output::stream_output_adapter<wchar_t>,__crt_stdio_output::positional_parameter_base<wchar_t,__crt_stdio_output::stream_output_adapter<wchar_t> > >::state_case_size()
FUNC 2de04 196 0 __crt_stdio_output::output_processor<wchar_t,__crt_stdio_output::stream_output_adapter<wchar_t>,__crt_stdio_output::standard_base<wchar_t,__crt_stdio_output::stream_output_adapter<wchar_t> > >::state_case_size()
FUNC 2e000 196 0 __crt_stdio_output::output_processor<wchar_t,__crt_stdio_output::string_output_adapter<wchar_t>,__crt_stdio_output::format_validation_base<wchar_t,__crt_stdio_output::string_output_adapter<wchar_t> > >::state_case_size()
FUNC 2e1fc 196 0 __crt_stdio_output::output_processor<wchar_t,__crt_stdio_output::string_output_adapter<wchar_t>,__crt_stdio_output::positional_parameter_base<wchar_t,__crt_stdio_output::string_output_adapter<wchar_t> > >::state_case_size()
FUNC 2e3f8 196 0 __crt_stdio_output::output_processor<wchar_t,__crt_stdio_output::string_output_adapter<wchar_t>,__crt_stdio_output::standard_base<wchar_t,__crt_stdio_output::string_output_adapter<wchar_t> > >::state_case_size()
FUNC 2e5f4 284 0 __crt_stdio_output::output_processor<char,__crt_stdio_output::stream_output_adapter<char>,__crt_stdio_output::format_validation_base<char,__crt_stdio_output::stream_output_adapter<char> > >::state_case_type()
FUNC 2e91c 29a 0 __crt_stdio_output::output_processor<char,__crt_stdio_output::stream_output_adapter<char>,__crt_stdio_output::positional_parameter_base<char,__crt_stdio_output::stream_output_adapter<char> > >::state_case_type()
FUNC 2ec5c 284 0 __crt_stdio_output::output_processor<char,__crt_stdio_output::stream_output_adapter<char>,__crt_stdio_output::standard_base<char,__crt_stdio_output::stream_output_adapter<char> > >::state_case_type()
FUNC 2ef84 266 0 __crt_stdio_output::output_processor<char,__crt_stdio_output::string_output_adapter<char>,__crt_stdio_output::format_validation_base<char,__crt_stdio_output::string_output_adapter<char> > >::state_case_type()
FUNC 2f284 27c 0 __crt_stdio_output::output_processor<char,__crt_stdio_output::string_output_adapter<char>,__crt_stdio_output::positional_parameter_base<char,__crt_stdio_output::string_output_adapter<char> > >::state_case_type()
FUNC 2f5a0 266 0 __crt_stdio_output::output_processor<char,__crt_stdio_output::string_output_adapter<char>,__crt_stdio_output::standard_base<char,__crt_stdio_output::string_output_adapter<char> > >::state_case_type()
FUNC 2f8a0 2dd 0 __crt_stdio_output::output_processor<wchar_t,__crt_stdio_output::stream_output_adapter<wchar_t>,__crt_stdio_output::format_validation_base<wchar_t,__crt_stdio_output::stream_output_adapter<wchar_t> > >::state_case_type()
FUNC 2fc34 2f3 0 __crt_stdio_output::output_processor<wchar_t,__crt_stdio_output::stream_output_adapter<wchar_t>,__crt_stdio_output::positional_parameter_base<wchar_t,__crt_stdio_output::stream_output_adapter<wchar_t> > >::state_case_type()
FUNC 2ffe4 2dd 0 __crt_stdio_output::output_processor<wchar_t,__crt_stdio_output::stream_output_adapter<wchar_t>,__crt_stdio_output::standard_base<wchar_t,__crt_stdio_output::stream_output_adapter<wchar_t> > >::state_case_type()
FUNC 30378 2ca 0 __crt_stdio_output::output_processor<wchar_t,__crt_stdio_output::string_output_adapter<wchar_t>,__crt_stdio_output::format_validation_base<wchar_t,__crt_stdio_output::string_output_adapter<wchar_t> > >::state_case_type()
FUNC 306f4 2e0 0 __crt_stdio_output::output_processor<wchar_t,__crt_stdio_output::string_output_adapter<wchar_t>,__crt_stdio_output::positional_parameter_base<wchar_t,__crt_stdio_output::string_output_adapter<wchar_t> > >::state_case_type()
FUNC 30a8c 2ca 0 __crt_stdio_output::output_processor<wchar_t,__crt_stdio_output::string_output_adapter<wchar_t>,__crt_stdio_output::standard_base<wchar_t,__crt_stdio_output::string_output_adapter<wchar_t> > >::state_case_type()
FUNC 30e08 31 0 __crt_stdio_output::output_processor<char,__crt_stdio_output::stream_output_adapter<char>,__crt_stdio_output::format_validation_base<char,__crt_stdio_output::stream_output_adapter<char> > >::state_case_width()
FUNC 30e48 50 0 __crt_stdio_output::output_processor<char,__crt_stdio_output::stream_output_adapter<char>,__crt_stdio_output::positional_parameter_base<char,__crt_stdio_output::stream_output_adapter<char> > >::state_case_width()
FUNC 30eac 31 0 __crt_stdio_output::output_processor<char,__crt_stdio_output::stream_output_adapter<char>,__crt_stdio_output::standard_base<char,__crt_stdio_output::stream_output_adapter<char> > >::state_case_width()
FUNC 30eec 31 0 __crt_stdio_output::output_processor<char,__crt_stdio_output::string_output_adapter<char>,__crt_stdio_output::format_validation_base<char,__crt_stdio_output::string_output_adapter<char> > >::state_case_width()
FUNC 30f2c 50 0 __crt_stdio_output::output_processor<char,__crt_stdio_output::string_output_adapter<char>,__crt_stdio_output::positional_parameter_base<char,__crt_stdio_output::string_output_adapter<char> > >::state_case_width()
FUNC 30f90 31 0 __crt_stdio_output::output_processor<char,__crt_stdio_output::string_output_adapter<char>,__crt_stdio_output::standard_base<char,__crt_stdio_output::string_output_adapter<char> > >::state_case_width()
FUNC 30fd0 32 0 __crt_stdio_output::output_processor<wchar_t,__crt_stdio_output::stream_output_adapter<wchar_t>,__crt_stdio_output::format_validation_base<wchar_t,__crt_stdio_output::stream_output_adapter<wchar_t> > >::state_case_width()
FUNC 31010 51 0 __crt_stdio_output::output_processor<wchar_t,__crt_stdio_output::stream_output_adapter<wchar_t>,__crt_stdio_output::positional_parameter_base<wchar_t,__crt_stdio_output::stream_output_adapter<wchar_t> > >::state_case_width()
FUNC 31078 32 0 __crt_stdio_output::output_processor<wchar_t,__crt_stdio_output::stream_output_adapter<wchar_t>,__crt_stdio_output::standard_base<wchar_t,__crt_stdio_output::stream_output_adapter<wchar_t> > >::state_case_width()
FUNC 310b8 32 0 __crt_stdio_output::output_processor<wchar_t,__crt_stdio_output::string_output_adapter<wchar_t>,__crt_stdio_output::format_validation_base<wchar_t,__crt_stdio_output::string_output_adapter<wchar_t> > >::state_case_width()
FUNC 310f8 51 0 __crt_stdio_output::output_processor<wchar_t,__crt_stdio_output::string_output_adapter<wchar_t>,__crt_stdio_output::positional_parameter_base<wchar_t,__crt_stdio_output::string_output_adapter<wchar_t> > >::state_case_width()
FUNC 31160 32 0 __crt_stdio_output::output_processor<wchar_t,__crt_stdio_output::string_output_adapter<wchar_t>,__crt_stdio_output::standard_base<wchar_t,__crt_stdio_output::string_output_adapter<wchar_t> > >::state_case_width()
FUNC 311a0 6 0 __crt_stdio_output::format_validation_base<char,__crt_stdio_output::stream_output_adapter<char> >::state_count()
FUNC 311a8 6 0 __crt_stdio_output::format_validation_base<char,__crt_stdio_output::string_output_adapter<char> >::state_count()
FUNC 311b0 6 0 __crt_stdio_output::format_validation_base<wchar_t,__crt_stdio_output::stream_output_adapter<wchar_t> >::state_count()
FUNC 311b8 6 0 __crt_stdio_output::format_validation_base<wchar_t,__crt_stdio_output::string_output_adapter<wchar_t> >::state_count()
FUNC 311c0 6 0 __crt_stdio_output::standard_base<char,__crt_stdio_output::stream_output_adapter<char> >::state_count()
FUNC 311c8 6 0 __crt_stdio_output::standard_base<char,__crt_stdio_output::string_output_adapter<char> >::state_count()
FUNC 311d0 6 0 __crt_stdio_output::standard_base<wchar_t,__crt_stdio_output::stream_output_adapter<wchar_t> >::state_count()
FUNC 311d8 6 0 __crt_stdio_output::standard_base<wchar_t,__crt_stdio_output::string_output_adapter<wchar_t> >::state_count()
FUNC 311e0 8 0 __crt_stdio_output::format_validation_base<char,__crt_stdio_output::stream_output_adapter<char> >::state_transition_table()
FUNC 311ec 8 0 __crt_stdio_output::format_validation_base<char,__crt_stdio_output::string_output_adapter<char> >::state_transition_table()
FUNC 311f8 8 0 __crt_stdio_output::format_validation_base<wchar_t,__crt_stdio_output::stream_output_adapter<wchar_t> >::state_transition_table()
FUNC 31204 8 0 __crt_stdio_output::format_validation_base<wchar_t,__crt_stdio_output::string_output_adapter<wchar_t> >::state_transition_table()
FUNC 31210 8 0 __crt_stdio_output::standard_base<char,__crt_stdio_output::stream_output_adapter<char> >::state_transition_table()
FUNC 3121c 8 0 __crt_stdio_output::standard_base<char,__crt_stdio_output::string_output_adapter<char> >::state_transition_table()
FUNC 31228 8 0 __crt_stdio_output::standard_base<wchar_t,__crt_stdio_output::stream_output_adapter<wchar_t> >::state_transition_table()
FUNC 31234 8 0 __crt_stdio_output::standard_base<wchar_t,__crt_stdio_output::string_output_adapter<wchar_t> >::state_transition_table()
FUNC 31240 5 0 __crt_stdio_output::common_data<char>::tchar_string(char)
FUNC 31248 5 0 __crt_stdio_output::common_data<char>::tchar_string()
FUNC 31250 5 0 __crt_stdio_output::common_data<wchar_t>::tchar_string()
FUNC 31258 5 0 __crt_stdio_output::common_data<wchar_t>::tchar_string(wchar_t)
FUNC 31260 47 0 __crt_stdio_output::to_integer_size(const __crt_stdio_output::length_modifier)
FUNC 312b8 d 0 __crt_stdio_output::output_processor<char,__crt_stdio_output::stream_output_adapter<char>,__crt_stdio_output::format_validation_base<char,__crt_stdio_output::stream_output_adapter<char> > >::type_case_X()
FUNC 312c8 d 0 __crt_stdio_output::output_processor<char,__crt_stdio_output::stream_output_adapter<char>,__crt_stdio_output::positional_parameter_base<char,__crt_stdio_output::stream_output_adapter<char> > >::type_case_X()
FUNC 312d8 d 0 __crt_stdio_output::output_processor<char,__crt_stdio_output::stream_output_adapter<char>,__crt_stdio_output::standard_base<char,__crt_stdio_output::stream_output_adapter<char> > >::type_case_X()
FUNC 312e8 d 0 __crt_stdio_output::output_processor<char,__crt_stdio_output::string_output_adapter<char>,__crt_stdio_output::format_validation_base<char,__crt_stdio_output::string_output_adapter<char> > >::type_case_X()
FUNC 312f8 d 0 __crt_stdio_output::output_processor<char,__crt_stdio_output::string_output_adapter<char>,__crt_stdio_output::positional_parameter_base<char,__crt_stdio_output::string_output_adapter<char> > >::type_case_X()
FUNC 31308 d 0 __crt_stdio_output::output_processor<char,__crt_stdio_output::string_output_adapter<char>,__crt_stdio_output::standard_base<char,__crt_stdio_output::string_output_adapter<char> > >::type_case_X()
FUNC 31318 d 0 __crt_stdio_output::output_processor<wchar_t,__crt_stdio_output::stream_output_adapter<wchar_t>,__crt_stdio_output::format_validation_base<wchar_t,__crt_stdio_output::stream_output_adapter<wchar_t> > >::type_case_X()
FUNC 31328 d 0 __crt_stdio_output::output_processor<wchar_t,__crt_stdio_output::stream_output_adapter<wchar_t>,__crt_stdio_output::positional_parameter_base<wchar_t,__crt_stdio_output::stream_output_adapter<wchar_t> > >::type_case_X()
FUNC 31338 d 0 __crt_stdio_output::output_processor<wchar_t,__crt_stdio_output::stream_output_adapter<wchar_t>,__crt_stdio_output::standard_base<wchar_t,__crt_stdio_output::stream_output_adapter<wchar_t> > >::type_case_X()
FUNC 31348 d 0 __crt_stdio_output::output_processor<wchar_t,__crt_stdio_output::string_output_adapter<wchar_t>,__crt_stdio_output::format_validation_base<wchar_t,__crt_stdio_output::string_output_adapter<wchar_t> > >::type_case_X()
FUNC 31358 d 0 __crt_stdio_output::output_processor<wchar_t,__crt_stdio_output::string_output_adapter<wchar_t>,__crt_stdio_output::positional_parameter_base<wchar_t,__crt_stdio_output::string_output_adapter<wchar_t> > >::type_case_X()
FUNC 31368 d 0 __crt_stdio_output::output_processor<wchar_t,__crt_stdio_output::string_output_adapter<wchar_t>,__crt_stdio_output::standard_base<wchar_t,__crt_stdio_output::string_output_adapter<wchar_t> > >::type_case_X()
FUNC 31378 73 0 __crt_stdio_output::output_processor<char,__crt_stdio_output::stream_output_adapter<char>,__crt_stdio_output::format_validation_base<char,__crt_stdio_output::stream_output_adapter<char> > >::type_case_Z()
FUNC 31408 158 0 __crt_stdio_output::output_processor<char,__crt_stdio_output::stream_output_adapter<char>,__crt_stdio_output::positional_parameter_base<char,__crt_stdio_output::stream_output_adapter<char> > >::type_case_Z()
FUNC 315b8 73 0 __crt_stdio_output::output_processor<char,__crt_stdio_output::stream_output_adapter<char>,__crt_stdio_output::standard_base<char,__crt_stdio_output::stream_output_adapter<char> > >::type_case_Z()
FUNC 31648 73 0 __crt_stdio_output::output_processor<char,__crt_stdio_output::string_output_adapter<char>,__crt_stdio_output::format_validation_base<char,__crt_stdio_output::string_output_adapter<char> > >::type_case_Z()
FUNC 316d8 158 0 __crt_stdio_output::output_processor<char,__crt_stdio_output::string_output_adapter<char>,__crt_stdio_output::positional_parameter_base<char,__crt_stdio_output::string_output_adapter<char> > >::type_case_Z()
FUNC 31888 73 0 __crt_stdio_output::output_processor<char,__crt_stdio_output::string_output_adapter<char>,__crt_stdio_output::standard_base<char,__crt_stdio_output::string_output_adapter<char> > >::type_case_Z()
FUNC 31918 79 0 __crt_stdio_output::output_processor<wchar_t,__crt_stdio_output::stream_output_adapter<wchar_t>,__crt_stdio_output::format_validation_base<wchar_t,__crt_stdio_output::stream_output_adapter<wchar_t> > >::type_case_Z()
FUNC 319b0 13e 0 __crt_stdio_output::output_processor<wchar_t,__crt_stdio_output::stream_output_adapter<wchar_t>,__crt_stdio_output::positional_parameter_base<wchar_t,__crt_stdio_output::stream_output_adapter<wchar_t> > >::type_case_Z()
FUNC 31b40 79 0 __crt_stdio_output::output_processor<wchar_t,__crt_stdio_output::stream_output_adapter<wchar_t>,__crt_stdio_output::standard_base<wchar_t,__crt_stdio_output::stream_output_adapter<wchar_t> > >::type_case_Z()
FUNC 31bd8 79 0 __crt_stdio_output::output_processor<wchar_t,__crt_stdio_output::string_output_adapter<wchar_t>,__crt_stdio_output::format_validation_base<wchar_t,__crt_stdio_output::string_output_adapter<wchar_t> > >::type_case_Z()
FUNC 31c70 13e 0 __crt_stdio_output::output_processor<wchar_t,__crt_stdio_output::string_output_adapter<wchar_t>,__crt_stdio_output::positional_parameter_base<wchar_t,__crt_stdio_output::string_output_adapter<wchar_t> > >::type_case_Z()
FUNC 31e00 79 0 __crt_stdio_output::output_processor<wchar_t,__crt_stdio_output::string_output_adapter<wchar_t>,__crt_stdio_output::standard_base<wchar_t,__crt_stdio_output::string_output_adapter<wchar_t> > >::type_case_Z()
FUNC 31e98 215 0 __crt_stdio_output::output_processor<char,__crt_stdio_output::stream_output_adapter<char>,__crt_stdio_output::format_validation_base<char,__crt_stdio_output::stream_output_adapter<char> > >::type_case_a()
FUNC 32134 252 0 __crt_stdio_output::output_processor<char,__crt_stdio_output::stream_output_adapter<char>,__crt_stdio_output::positional_parameter_base<char,__crt_stdio_output::stream_output_adapter<char> > >::type_case_a()
FUNC 3241c 215 0 __crt_stdio_output::output_processor<char,__crt_stdio_output::stream_output_adapter<char>,__crt_stdio_output::standard_base<char,__crt_stdio_output::stream_output_adapter<char> > >::type_case_a()
FUNC 326b8 215 0 __crt_stdio_output::output_processor<char,__crt_stdio_output::string_output_adapter<char>,__crt_stdio_output::format_validation_base<char,__crt_stdio_output::string_output_adapter<char> > >::type_case_a()
FUNC 32954 252 0 __crt_stdio_output::output_processor<char,__crt_stdio_output::string_output_adapter<char>,__crt_stdio_output::positional_parameter_base<char,__crt_stdio_output::string_output_adapter<char> > >::type_case_a()
FUNC 32c3c 215 0 __crt_stdio_output::output_processor<char,__crt_stdio_output::string_output_adapter<char>,__crt_stdio_output::standard_base<char,__crt_stdio_output::string_output_adapter<char> > >::type_case_a()
FUNC 32ed8 239 0 __crt_stdio_output::output_processor<wchar_t,__crt_stdio_output::stream_output_adapter<wchar_t>,__crt_stdio_output::format_validation_base<wchar_t,__crt_stdio_output::stream_output_adapter<wchar_t> > >::type_case_a()
FUNC 331a0 276 0 __crt_stdio_output::output_processor<wchar_t,__crt_stdio_output::stream_output_adapter<wchar_t>,__crt_stdio_output::positional_parameter_base<wchar_t,__crt_stdio_output::stream_output_adapter<wchar_t> > >::type_case_a()
FUNC 334b4 239 0 __crt_stdio_output::output_processor<wchar_t,__crt_stdio_output::stream_output_adapter<wchar_t>,__crt_stdio_output::standard_base<wchar_t,__crt_stdio_output::stream_output_adapter<wchar_t> > >::type_case_a()
FUNC 3377c 239 0 __crt_stdio_output::output_processor<wchar_t,__crt_stdio_output::string_output_adapter<wchar_t>,__crt_stdio_output::format_validation_base<wchar_t,__crt_stdio_output::string_output_adapter<wchar_t> > >::type_case_a()
FUNC 33a44 276 0 __crt_stdio_output::output_processor<wchar_t,__crt_stdio_output::string_output_adapter<wchar_t>,__crt_stdio_output::positional_parameter_base<wchar_t,__crt_stdio_output::string_output_adapter<wchar_t> > >::type_case_a()
FUNC 33d58 239 0 __crt_stdio_output::output_processor<wchar_t,__crt_stdio_output::string_output_adapter<wchar_t>,__crt_stdio_output::standard_base<wchar_t,__crt_stdio_output::string_output_adapter<wchar_t> > >::type_case_a()
FUNC 34020 7 0 __crt_stdio_output::output_processor<char,__crt_stdio_output::stream_output_adapter<char>,__crt_stdio_output::format_validation_base<char,__crt_stdio_output::stream_output_adapter<char> > >::type_case_c()
FUNC 34028 7 0 __crt_stdio_output::output_processor<char,__crt_stdio_output::stream_output_adapter<char>,__crt_stdio_output::positional_parameter_base<char,__crt_stdio_output::stream_output_adapter<char> > >::type_case_c()
FUNC 34030 7 0 __crt_stdio_output::output_processor<char,__crt_stdio_output::stream_output_adapter<char>,__crt_stdio_output::standard_base<char,__crt_stdio_output::stream_output_adapter<char> > >::type_case_c()
FUNC 34038 7 0 __crt_stdio_output::output_processor<char,__crt_stdio_output::string_output_adapter<char>,__crt_stdio_output::format_validation_base<char,__crt_stdio_output::string_output_adapter<char> > >::type_case_c()
FUNC 34040 7 0 __crt_stdio_output::output_processor<char,__crt_stdio_output::string_output_adapter<char>,__crt_stdio_output::positional_parameter_base<char,__crt_stdio_output::string_output_adapter<char> > >::type_case_c()
FUNC 34048 7 0 __crt_stdio_output::output_processor<char,__crt_stdio_output::string_output_adapter<char>,__crt_stdio_output::standard_base<char,__crt_stdio_output::string_output_adapter<char> > >::type_case_c()
FUNC 34050 7 0 __crt_stdio_output::output_processor<wchar_t,__crt_stdio_output::stream_output_adapter<wchar_t>,__crt_stdio_output::format_validation_base<wchar_t,__crt_stdio_output::stream_output_adapter<wchar_t> > >::type_case_c()
FUNC 34058 7 0 __crt_stdio_output::output_processor<wchar_t,__crt_stdio_output::stream_output_adapter<wchar_t>,__crt_stdio_output::positional_parameter_base<wchar_t,__crt_stdio_output::stream_output_adapter<wchar_t> > >::type_case_c()
FUNC 34060 7 0 __crt_stdio_output::output_processor<wchar_t,__crt_stdio_output::stream_output_adapter<wchar_t>,__crt_stdio_output::standard_base<wchar_t,__crt_stdio_output::stream_output_adapter<wchar_t> > >::type_case_c()
FUNC 34068 7 0 __crt_stdio_output::output_processor<wchar_t,__crt_stdio_output::string_output_adapter<wchar_t>,__crt_stdio_output::format_validation_base<wchar_t,__crt_stdio_output::string_output_adapter<wchar_t> > >::type_case_c()
FUNC 34070 7 0 __crt_stdio_output::output_processor<wchar_t,__crt_stdio_output::string_output_adapter<wchar_t>,__crt_stdio_output::positional_parameter_base<wchar_t,__crt_stdio_output::string_output_adapter<wchar_t> > >::type_case_c()
FUNC 34078 7 0 __crt_stdio_output::output_processor<wchar_t,__crt_stdio_output::string_output_adapter<wchar_t>,__crt_stdio_output::standard_base<wchar_t,__crt_stdio_output::string_output_adapter<wchar_t> > >::type_case_c()
FUNC 34080 bc 0 __crt_stdio_output::output_processor<char,__crt_stdio_output::stream_output_adapter<char>,__crt_stdio_output::format_validation_base<char,__crt_stdio_output::stream_output_adapter<char> > >::type_case_c_tchar(char)
FUNC 3416c ff 0 __crt_stdio_output::output_processor<char,__crt_stdio_output::stream_output_adapter<char>,__crt_stdio_output::positional_parameter_base<char,__crt_stdio_output::stream_output_adapter<char> > >::type_case_c_tchar(char)
FUNC 342ac bc 0 __crt_stdio_output::output_processor<char,__crt_stdio_output::stream_output_adapter<char>,__crt_stdio_output::standard_base<char,__crt_stdio_output::stream_output_adapter<char> > >::type_case_c_tchar(char)
FUNC 34398 bc 0 __crt_stdio_output::output_processor<char,__crt_stdio_output::string_output_adapter<char>,__crt_stdio_output::format_validation_base<char,__crt_stdio_output::string_output_adapter<char> > >::type_case_c_tchar(char)
FUNC 34484 ff 0 __crt_stdio_output::output_processor<char,__crt_stdio_output::string_output_adapter<char>,__crt_stdio_output::positional_parameter_base<char,__crt_stdio_output::string_output_adapter<char> > >::type_case_c_tchar(char)
FUNC 345c4 bc 0 __crt_stdio_output::output_processor<char,__crt_stdio_output::string_output_adapter<char>,__crt_stdio_output::standard_base<char,__crt_stdio_output::string_output_adapter<char> > >::type_case_c_tchar(char)
FUNC 346b0 a6 0 __crt_stdio_output::output_processor<wchar_t,__crt_stdio_output::stream_output_adapter<wchar_t>,__crt_stdio_output::format_validation_base<wchar_t,__crt_stdio_output::stream_output_adapter<wchar_t> > >::type_case_c_tchar(wchar_t)
FUNC 34780 cc 0 __crt_stdio_output::output_processor<wchar_t,__crt_stdio_output::stream_output_adapter<wchar_t>,__crt_stdio_output::positional_parameter_base<wchar_t,__crt_stdio_output::stream_output_adapter<wchar_t> > >::type_case_c_tchar(wchar_t)
FUNC 34880 a6 0 __crt_stdio_output::output_processor<wchar_t,__crt_stdio_output::stream_output_adapter<wchar_t>,__crt_stdio_output::standard_base<wchar_t,__crt_stdio_output::stream_output_adapter<wchar_t> > >::type_case_c_tchar(wchar_t)
FUNC 34950 a6 0 __crt_stdio_output::output_processor<wchar_t,__crt_stdio_output::string_output_adapter<wchar_t>,__crt_stdio_output::format_validation_base<wchar_t,__crt_stdio_output::string_output_adapter<wchar_t> > >::type_case_c_tchar(wchar_t)
FUNC 34a20 cc 0 __crt_stdio_output::output_processor<wchar_t,__crt_stdio_output::string_output_adapter<wchar_t>,__crt_stdio_output::positional_parameter_base<wchar_t,__crt_stdio_output::string_output_adapter<wchar_t> > >::type_case_c_tchar(wchar_t)
FUNC 34b20 a6 0 __crt_stdio_output::output_processor<wchar_t,__crt_stdio_output::string_output_adapter<wchar_t>,__crt_stdio_output::standard_base<wchar_t,__crt_stdio_output::string_output_adapter<wchar_t> > >::type_case_c_tchar(wchar_t)
FUNC 34bf0 10 0 __crt_stdio_output::output_processor<char,__crt_stdio_output::stream_output_adapter<char>,__crt_stdio_output::format_validation_base<char,__crt_stdio_output::stream_output_adapter<char> > >::type_case_d()
FUNC 34c04 10 0 __crt_stdio_output::output_processor<char,__crt_stdio_output::stream_output_adapter<char>,__crt_stdio_output::positional_parameter_base<char,__crt_stdio_output::stream_output_adapter<char> > >::type_case_d()
FUNC 34c18 10 0 __crt_stdio_output::output_processor<char,__crt_stdio_output::stream_output_adapter<char>,__crt_stdio_output::standard_base<char,__crt_stdio_output::stream_output_adapter<char> > >::type_case_d()
FUNC 34c2c 10 0 __crt_stdio_output::output_processor<char,__crt_stdio_output::string_output_adapter<char>,__crt_stdio_output::format_validation_base<char,__crt_stdio_output::string_output_adapter<char> > >::type_case_d()
FUNC 34c40 10 0 __crt_stdio_output::output_processor<char,__crt_stdio_output::string_output_adapter<char>,__crt_stdio_output::positional_parameter_base<char,__crt_stdio_output::string_output_adapter<char> > >::type_case_d()
FUNC 34c54 10 0 __crt_stdio_output::output_processor<char,__crt_stdio_output::string_output_adapter<char>,__crt_stdio_output::standard_base<char,__crt_stdio_output::string_output_adapter<char> > >::type_case_d()
FUNC 34c68 10 0 __crt_stdio_output::output_processor<wchar_t,__crt_stdio_output::stream_output_adapter<wchar_t>,__crt_stdio_output::format_validation_base<wchar_t,__crt_stdio_output::stream_output_adapter<wchar_t> > >::type_case_d()
FUNC 34c7c 10 0 __crt_stdio_output::output_processor<wchar_t,__crt_stdio_output::stream_output_adapter<wchar_t>,__crt_stdio_output::positional_parameter_base<wchar_t,__crt_stdio_output::stream_output_adapter<wchar_t> > >::type_case_d()
FUNC 34c90 10 0 __crt_stdio_output::output_processor<wchar_t,__crt_stdio_output::stream_output_adapter<wchar_t>,__crt_stdio_output::standard_base<wchar_t,__crt_stdio_output::stream_output_adapter<wchar_t> > >::type_case_d()
FUNC 34ca4 10 0 __crt_stdio_output::output_processor<wchar_t,__crt_stdio_output::string_output_adapter<wchar_t>,__crt_stdio_output::format_validation_base<wchar_t,__crt_stdio_output::string_output_adapter<wchar_t> > >::type_case_d()
FUNC 34cb8 10 0 __crt_stdio_output::output_processor<wchar_t,__crt_stdio_output::string_output_adapter<wchar_t>,__crt_stdio_output::positional_parameter_base<wchar_t,__crt_stdio_output::string_output_adapter<wchar_t> > >::type_case_d()
FUNC 34ccc 10 0 __crt_stdio_output::output_processor<wchar_t,__crt_stdio_output::string_output_adapter<wchar_t>,__crt_stdio_output::standard_base<wchar_t,__crt_stdio_output::string_output_adapter<wchar_t> > >::type_case_d()
FUNC 34ce0 1c5 0 __crt_stdio_output::output_processor<char,__crt_stdio_output::stream_output_adapter<char>,__crt_stdio_output::format_validation_base<char,__crt_stdio_output::stream_output_adapter<char> > >::type_case_integer(const unsigned int, const bool)
FUNC 34f18 202 0 __crt_stdio_output::output_processor<char,__crt_stdio_output::stream_output_adapter<char>,__crt_stdio_output::positional_parameter_base<char,__crt_stdio_output::stream_output_adapter<char> > >::type_case_integer(const unsigned int, const bool)
FUNC 3519c 1c5 0 __crt_stdio_output::output_processor<char,__crt_stdio_output::stream_output_adapter<char>,__crt_stdio_output::standard_base<char,__crt_stdio_output::stream_output_adapter<char> > >::type_case_integer(const unsigned int, const bool)
FUNC 353d4 1c5 0 __crt_stdio_output::output_processor<char,__crt_stdio_output::string_output_adapter<char>,__crt_stdio_output::format_validation_base<char,__crt_stdio_output::string_output_adapter<char> > >::type_case_integer(const unsigned int, const bool)
FUNC 3560c 202 0 __crt_stdio_output::output_processor<char,__crt_stdio_output::string_output_adapter<char>,__crt_stdio_output::positional_parameter_base<char,__crt_stdio_output::string_output_adapter<char> > >::type_case_integer(const unsigned int, const bool)
FUNC 35890 1c5 0 __crt_stdio_output::output_processor<char,__crt_stdio_output::string_output_adapter<char>,__crt_stdio_output::standard_base<char,__crt_stdio_output::string_output_adapter<char> > >::type_case_integer(const unsigned int, const bool)
FUNC 35ac8 1cb 0 __crt_stdio_output::output_processor<wchar_t,__crt_stdio_output::stream_output_adapter<wchar_t>,__crt_stdio_output::format_validation_base<wchar_t,__crt_stdio_output::stream_output_adapter<wchar_t> > >::type_case_integer(const unsigned int, const bool)
FUNC 35d08 208 0 __crt_stdio_output::output_processor<wchar_t,__crt_stdio_output::stream_output_adapter<wchar_t>,__crt_stdio_output::positional_parameter_base<wchar_t,__crt_stdio_output::stream_output_adapter<wchar_t> > >::type_case_integer(const unsigned int, const bool)
FUNC 35f94 1cb 0 __crt_stdio_output::output_processor<wchar_t,__crt_stdio_output::stream_output_adapter<wchar_t>,__crt_stdio_output::standard_base<wchar_t,__crt_stdio_output::stream_output_adapter<wchar_t> > >::type_case_integer(const unsigned int, const bool)
FUNC 361d4 1cb 0 __crt_stdio_output::output_processor<wchar_t,__crt_stdio_output::string_output_adapter<wchar_t>,__crt_stdio_output::format_validation_base<wchar_t,__crt_stdio_output::string_output_adapter<wchar_t> > >::type_case_integer(const unsigned int, const bool)
FUNC 36414 208 0 __crt_stdio_output::output_processor<wchar_t,__crt_stdio_output::string_output_adapter<wchar_t>,__crt_stdio_output::positional_parameter_base<wchar_t,__crt_stdio_output::string_output_adapter<wchar_t> > >::type_case_integer(const unsigned int, const bool)
FUNC 366a0 1cb 0 __crt_stdio_output::output_processor<wchar_t,__crt_stdio_output::string_output_adapter<wchar_t>,__crt_stdio_output::standard_base<wchar_t,__crt_stdio_output::string_output_adapter<wchar_t> > >::type_case_integer(const unsigned int, const bool)
FUNC 368e0 db 0 __crt_stdio_output::output_processor<char,__crt_stdio_output::stream_output_adapter<char>,__crt_stdio_output::format_validation_base<char,__crt_stdio_output::stream_output_adapter<char> > >::type_case_n()
FUNC 369f4 104 0 __crt_stdio_output::output_processor<char,__crt_stdio_output::stream_output_adapter<char>,__crt_stdio_output::positional_parameter_base<char,__crt_stdio_output::stream_output_adapter<char> > >::type_case_n()
FUNC 36b3c db 0 __crt_stdio_output::output_processor<char,__crt_stdio_output::stream_output_adapter<char>,__crt_stdio_output::standard_base<char,__crt_stdio_output::stream_output_adapter<char> > >::type_case_n()
FUNC 36c50 db 0 __crt_stdio_output::output_processor<char,__crt_stdio_output::string_output_adapter<char>,__crt_stdio_output::format_validation_base<char,__crt_stdio_output::string_output_adapter<char> > >::type_case_n()
FUNC 36d64 104 0 __crt_stdio_output::output_processor<char,__crt_stdio_output::string_output_adapter<char>,__crt_stdio_output::positional_parameter_base<char,__crt_stdio_output::string_output_adapter<char> > >::type_case_n()
FUNC 36eac db 0 __crt_stdio_output::output_processor<char,__crt_stdio_output::string_output_adapter<char>,__crt_stdio_output::standard_base<char,__crt_stdio_output::string_output_adapter<char> > >::type_case_n()
FUNC 36fc0 db 0 __crt_stdio_output::output_processor<wchar_t,__crt_stdio_output::stream_output_adapter<wchar_t>,__crt_stdio_output::format_validation_base<wchar_t,__crt_stdio_output::stream_output_adapter<wchar_t> > >::type_case_n()
FUNC 370d4 104 0 __crt_stdio_output::output_processor<wchar_t,__crt_stdio_output::stream_output_adapter<wchar_t>,__crt_stdio_output::positional_parameter_base<wchar_t,__crt_stdio_output::stream_output_adapter<wchar_t> > >::type_case_n()
FUNC 3721c db 0 __crt_stdio_output::output_processor<wchar_t,__crt_stdio_output::stream_output_adapter<wchar_t>,__crt_stdio_output::standard_base<wchar_t,__crt_stdio_output::stream_output_adapter<wchar_t> > >::type_case_n()
FUNC 37330 db 0 __crt_stdio_output::output_processor<wchar_t,__crt_stdio_output::string_output_adapter<wchar_t>,__crt_stdio_output::format_validation_base<wchar_t,__crt_stdio_output::string_output_adapter<wchar_t> > >::type_case_n()
FUNC 37444 104 0 __crt_stdio_output::output_processor<wchar_t,__crt_stdio_output::string_output_adapter<wchar_t>,__crt_stdio_output::positional_parameter_base<wchar_t,__crt_stdio_output::string_output_adapter<wchar_t> > >::type_case_n()
FUNC 3758c db 0 __crt_stdio_output::output_processor<wchar_t,__crt_stdio_output::string_output_adapter<wchar_t>,__crt_stdio_output::standard_base<wchar_t,__crt_stdio_output::string_output_adapter<wchar_t> > >::type_case_n()
FUNC 376a0 1f 0 __crt_stdio_output::output_processor<char,__crt_stdio_output::stream_output_adapter<char>,__crt_stdio_output::format_validation_base<char,__crt_stdio_output::stream_output_adapter<char> > >::type_case_o()
FUNC 376c8 1f 0 __crt_stdio_output::output_processor<char,__crt_stdio_output::stream_output_adapter<char>,__crt_stdio_output::positional_parameter_base<char,__crt_stdio_output::stream_output_adapter<char> > >::type_case_o()
FUNC 376f0 1f 0 __crt_stdio_output::output_processor<char,__crt_stdio_output::stream_output_adapter<char>,__crt_stdio_output::standard_base<char,__crt_stdio_output::stream_output_adapter<char> > >::type_case_o()
FUNC 37718 1f 0 __crt_stdio_output::output_processor<char,__crt_stdio_output::string_output_adapter<char>,__crt_stdio_output::format_validation_base<char,__crt_stdio_output::string_output_adapter<char> > >::type_case_o()
FUNC 37740 1f 0 __crt_stdio_output::output_processor<char,__crt_stdio_output::string_output_adapter<char>,__crt_stdio_output::positional_parameter_base<char,__crt_stdio_output::string_output_adapter<char> > >::type_case_o()
FUNC 37768 1f 0 __crt_stdio_output::output_processor<char,__crt_stdio_output::string_output_adapter<char>,__crt_stdio_output::standard_base<char,__crt_stdio_output::string_output_adapter<char> > >::type_case_o()
FUNC 37790 1f 0 __crt_stdio_output::output_processor<wchar_t,__crt_stdio_output::stream_output_adapter<wchar_t>,__crt_stdio_output::format_validation_base<wchar_t,__crt_stdio_output::stream_output_adapter<wchar_t> > >::type_case_o()
FUNC 377b8 1f 0 __crt_stdio_output::output_processor<wchar_t,__crt_stdio_output::stream_output_adapter<wchar_t>,__crt_stdio_output::positional_parameter_base<wchar_t,__crt_stdio_output::stream_output_adapter<wchar_t> > >::type_case_o()
FUNC 377e0 1f 0 __crt_stdio_output::output_processor<wchar_t,__crt_stdio_output::stream_output_adapter<wchar_t>,__crt_stdio_output::standard_base<wchar_t,__crt_stdio_output::stream_output_adapter<wchar_t> > >::type_case_o()
FUNC 37808 1f 0 __crt_stdio_output::output_processor<wchar_t,__crt_stdio_output::string_output_adapter<wchar_t>,__crt_stdio_output::format_validation_base<wchar_t,__crt_stdio_output::string_output_adapter<wchar_t> > >::type_case_o()
FUNC 37830 1f 0 __crt_stdio_output::output_processor<wchar_t,__crt_stdio_output::string_output_adapter<wchar_t>,__crt_stdio_output::positional_parameter_base<wchar_t,__crt_stdio_output::string_output_adapter<wchar_t> > >::type_case_o()
FUNC 37858 1f 0 __crt_stdio_output::output_processor<wchar_t,__crt_stdio_output::string_output_adapter<wchar_t>,__crt_stdio_output::standard_base<wchar_t,__crt_stdio_output::string_output_adapter<wchar_t> > >::type_case_o()
FUNC 37880 17 0 __crt_stdio_output::output_processor<char,__crt_stdio_output::stream_output_adapter<char>,__crt_stdio_output::format_validation_base<char,__crt_stdio_output::stream_output_adapter<char> > >::type_case_p()
FUNC 3789c 17 0 __crt_stdio_output::output_processor<char,__crt_stdio_output::stream_output_adapter<char>,__crt_stdio_output::positional_parameter_base<char,__crt_stdio_output::stream_output_adapter<char> > >::type_case_p()
FUNC 378b8 17 0 __crt_stdio_output::output_processor<char,__crt_stdio_output::stream_output_adapter<char>,__crt_stdio_output::standard_base<char,__crt_stdio_output::stream_output_adapter<char> > >::type_case_p()
FUNC 378d4 17 0 __crt_stdio_output::output_processor<char,__crt_stdio_output::string_output_adapter<char>,__crt_stdio_output::format_validation_base<char,__crt_stdio_output::string_output_adapter<char> > >::type_case_p()
FUNC 378f0 17 0 __crt_stdio_output::output_processor<char,__crt_stdio_output::string_output_adapter<char>,__crt_stdio_output::positional_parameter_base<char,__crt_stdio_output::string_output_adapter<char> > >::type_case_p()
FUNC 3790c 17 0 __crt_stdio_output::output_processor<char,__crt_stdio_output::string_output_adapter<char>,__crt_stdio_output::standard_base<char,__crt_stdio_output::string_output_adapter<char> > >::type_case_p()
FUNC 37928 17 0 __crt_stdio_output::output_processor<wchar_t,__crt_stdio_output::stream_output_adapter<wchar_t>,__crt_stdio_output::format_validation_base<wchar_t,__crt_stdio_output::stream_output_adapter<wchar_t> > >::type_case_p()
FUNC 37944 17 0 __crt_stdio_output::output_processor<wchar_t,__crt_stdio_output::stream_output_adapter<wchar_t>,__crt_stdio_output::positional_parameter_base<wchar_t,__crt_stdio_output::stream_output_adapter<wchar_t> > >::type_case_p()
FUNC 37960 17 0 __crt_stdio_output::output_processor<wchar_t,__crt_stdio_output::stream_output_adapter<wchar_t>,__crt_stdio_output::standard_base<wchar_t,__crt_stdio_output::stream_output_adapter<wchar_t> > >::type_case_p()
FUNC 3797c 17 0 __crt_stdio_output::output_processor<wchar_t,__crt_stdio_output::string_output_adapter<wchar_t>,__crt_stdio_output::format_validation_base<wchar_t,__crt_stdio_output::string_output_adapter<wchar_t> > >::type_case_p()
FUNC 37998 17 0 __crt_stdio_output::output_processor<wchar_t,__crt_stdio_output::string_output_adapter<wchar_t>,__crt_stdio_output::positional_parameter_base<wchar_t,__crt_stdio_output::string_output_adapter<wchar_t> > >::type_case_p()
FUNC 379b4 17 0 __crt_stdio_output::output_processor<wchar_t,__crt_stdio_output::string_output_adapter<wchar_t>,__crt_stdio_output::standard_base<wchar_t,__crt_stdio_output::string_output_adapter<wchar_t> > >::type_case_p()
FUNC 379d0 96 0 __crt_stdio_output::output_processor<char,__crt_stdio_output::stream_output_adapter<char>,__crt_stdio_output::format_validation_base<char,__crt_stdio_output::stream_output_adapter<char> > >::type_case_s()
FUNC 37a8c b5 0 __crt_stdio_output::output_processor<char,__crt_stdio_output::stream_output_adapter<char>,__crt_stdio_output::positional_parameter_base<char,__crt_stdio_output::stream_output_adapter<char> > >::type_case_s()
FUNC 37b70 96 0 __crt_stdio_output::output_processor<char,__crt_stdio_output::stream_output_adapter<char>,__crt_stdio_output::standard_base<char,__crt_stdio_output::stream_output_adapter<char> > >::type_case_s()
FUNC 37c2c 96 0 __crt_stdio_output::output_processor<char,__crt_stdio_output::string_output_adapter<char>,__crt_stdio_output::format_validation_base<char,__crt_stdio_output::string_output_adapter<char> > >::type_case_s()
FUNC 37ce8 b5 0 __crt_stdio_output::output_processor<char,__crt_stdio_output::string_output_adapter<char>,__crt_stdio_output::positional_parameter_base<char,__crt_stdio_output::string_output_adapter<char> > >::type_case_s()
FUNC 37dcc 96 0 __crt_stdio_output::output_processor<char,__crt_stdio_output::string_output_adapter<char>,__crt_stdio_output::standard_base<char,__crt_stdio_output::string_output_adapter<char> > >::type_case_s()
FUNC 37e88 c7 0 __crt_stdio_output::output_processor<wchar_t,__crt_stdio_output::stream_output_adapter<wchar_t>,__crt_stdio_output::format_validation_base<wchar_t,__crt_stdio_output::stream_output_adapter<wchar_t> > >::type_case_s()
FUNC 37f80 e9 0 __crt_stdio_output::output_processor<wchar_t,__crt_stdio_output::stream_output_adapter<wchar_t>,__crt_stdio_output::positional_parameter_base<wchar_t,__crt_stdio_output::stream_output_adapter<wchar_t> > >::type_case_s()
FUNC 380a4 c7 0 __crt_stdio_output::output_processor<wchar_t,__crt_stdio_output::stream_output_adapter<wchar_t>,__crt_stdio_output::standard_base<wchar_t,__crt_stdio_output::stream_output_adapter<wchar_t> > >::type_case_s()
FUNC 3819c c7 0 __crt_stdio_output::output_processor<wchar_t,__crt_stdio_output::string_output_adapter<wchar_t>,__crt_stdio_output::format_validation_base<wchar_t,__crt_stdio_output::string_output_adapter<wchar_t> > >::type_case_s()
FUNC 38294 e9 0 __crt_stdio_output::output_processor<wchar_t,__crt_stdio_output::string_output_adapter<wchar_t>,__crt_stdio_output::positional_parameter_base<wchar_t,__crt_stdio_output::string_output_adapter<wchar_t> > >::type_case_s()
FUNC 383b8 c7 0 __crt_stdio_output::output_processor<wchar_t,__crt_stdio_output::string_output_adapter<wchar_t>,__crt_stdio_output::standard_base<wchar_t,__crt_stdio_output::string_output_adapter<wchar_t> > >::type_case_s()
FUNC 384b0 c 0 __crt_stdio_output::output_processor<char,__crt_stdio_output::stream_output_adapter<char>,__crt_stdio_output::format_validation_base<char,__crt_stdio_output::stream_output_adapter<char> > >::type_case_s_compute_narrow_string_length(const int, char) const
FUNC 384c0 c 0 __crt_stdio_output::output_processor<char,__crt_stdio_output::stream_output_adapter<char>,__crt_stdio_output::positional_parameter_base<char,__crt_stdio_output::stream_output_adapter<char> > >::type_case_s_compute_narrow_string_length(const int, char) const
FUNC 384d0 c 0 __crt_stdio_output::output_processor<char,__crt_stdio_output::stream_output_adapter<char>,__crt_stdio_output::standard_base<char,__crt_stdio_output::stream_output_adapter<char> > >::type_case_s_compute_narrow_string_length(const int, char) const
FUNC 384e0 c 0 __crt_stdio_output::output_processor<char,__crt_stdio_output::string_output_adapter<char>,__crt_stdio_output::format_validation_base<char,__crt_stdio_output::string_output_adapter<char> > >::type_case_s_compute_narrow_string_length(const int, char) const
FUNC 384f0 c 0 __crt_stdio_output::output_processor<char,__crt_stdio_output::string_output_adapter<char>,__crt_stdio_output::positional_parameter_base<char,__crt_stdio_output::string_output_adapter<char> > >::type_case_s_compute_narrow_string_length(const int, char) const
FUNC 38500 c 0 __crt_stdio_output::output_processor<char,__crt_stdio_output::string_output_adapter<char>,__crt_stdio_output::standard_base<char,__crt_stdio_output::string_output_adapter<char> > >::type_case_s_compute_narrow_string_length(const int, char) const
FUNC 38510 53 0 __crt_stdio_output::output_processor<wchar_t,__crt_stdio_output::stream_output_adapter<wchar_t>,__crt_stdio_output::format_validation_base<wchar_t,__crt_stdio_output::stream_output_adapter<wchar_t> > >::type_case_s_compute_narrow_string_length(const int, wchar_t) const
FUNC 38578 53 0 __crt_stdio_output::output_processor<wchar_t,__crt_stdio_output::stream_output_adapter<wchar_t>,__crt_stdio_output::positional_parameter_base<wchar_t,__crt_stdio_output::stream_output_adapter<wchar_t> > >::type_case_s_compute_narrow_string_length(const int, wchar_t) const
FUNC 385e0 53 0 __crt_stdio_output::output_processor<wchar_t,__crt_stdio_output::stream_output_adapter<wchar_t>,__crt_stdio_output::standard_base<wchar_t,__crt_stdio_output::stream_output_adapter<wchar_t> > >::type_case_s_compute_narrow_string_length(const int, wchar_t) const
FUNC 38648 53 0 __crt_stdio_output::output_processor<wchar_t,__crt_stdio_output::string_output_adapter<wchar_t>,__crt_stdio_output::format_validation_base<wchar_t,__crt_stdio_output::string_output_adapter<wchar_t> > >::type_case_s_compute_narrow_string_length(const int, wchar_t) const
FUNC 386b0 53 0 __crt_stdio_output::output_processor<wchar_t,__crt_stdio_output::string_output_adapter<wchar_t>,__crt_stdio_output::positional_parameter_base<wchar_t,__crt_stdio_output::string_output_adapter<wchar_t> > >::type_case_s_compute_narrow_string_length(const int, wchar_t) const
FUNC 38718 53 0 __crt_stdio_output::output_processor<wchar_t,__crt_stdio_output::string_output_adapter<wchar_t>,__crt_stdio_output::standard_base<wchar_t,__crt_stdio_output::string_output_adapter<wchar_t> > >::type_case_s_compute_narrow_string_length(const int, wchar_t) const
FUNC 38780 c 0 __crt_stdio_output::output_processor<char,__crt_stdio_output::stream_output_adapter<char>,__crt_stdio_output::format_validation_base<char,__crt_stdio_output::stream_output_adapter<char> > >::type_case_u()
FUNC 38790 c 0 __crt_stdio_output::output_processor<char,__crt_stdio_output::stream_output_adapter<char>,__crt_stdio_output::positional_parameter_base<char,__crt_stdio_output::stream_output_adapter<char> > >::type_case_u()
FUNC 387a0 c 0 __crt_stdio_output::output_processor<char,__crt_stdio_output::stream_output_adapter<char>,__crt_stdio_output::standard_base<char,__crt_stdio_output::stream_output_adapter<char> > >::type_case_u()
FUNC 387b0 c 0 __crt_stdio_output::output_processor<char,__crt_stdio_output::string_output_adapter<char>,__crt_stdio_output::format_validation_base<char,__crt_stdio_output::string_output_adapter<char> > >::type_case_u()
FUNC 387c0 c 0 __crt_stdio_output::output_processor<char,__crt_stdio_output::string_output_adapter<char>,__crt_stdio_output::positional_parameter_base<char,__crt_stdio_output::string_output_adapter<char> > >::type_case_u()
FUNC 387d0 c 0 __crt_stdio_output::output_processor<char,__crt_stdio_output::string_output_adapter<char>,__crt_stdio_output::standard_base<char,__crt_stdio_output::string_output_adapter<char> > >::type_case_u()
FUNC 387e0 c 0 __crt_stdio_output::output_processor<wchar_t,__crt_stdio_output::stream_output_adapter<wchar_t>,__crt_stdio_output::format_validation_base<wchar_t,__crt_stdio_output::stream_output_adapter<wchar_t> > >::type_case_u()
FUNC 387f0 c 0 __crt_stdio_output::output_processor<wchar_t,__crt_stdio_output::stream_output_adapter<wchar_t>,__crt_stdio_output::positional_parameter_base<wchar_t,__crt_stdio_output::stream_output_adapter<wchar_t> > >::type_case_u()
FUNC 38800 c 0 __crt_stdio_output::output_processor<wchar_t,__crt_stdio_output::stream_output_adapter<wchar_t>,__crt_stdio_output::standard_base<wchar_t,__crt_stdio_output::stream_output_adapter<wchar_t> > >::type_case_u()
FUNC 38810 c 0 __crt_stdio_output::output_processor<wchar_t,__crt_stdio_output::string_output_adapter<wchar_t>,__crt_stdio_output::format_validation_base<wchar_t,__crt_stdio_output::string_output_adapter<wchar_t> > >::type_case_u()
FUNC 38820 c 0 __crt_stdio_output::output_processor<wchar_t,__crt_stdio_output::string_output_adapter<wchar_t>,__crt_stdio_output::positional_parameter_base<wchar_t,__crt_stdio_output::string_output_adapter<wchar_t> > >::type_case_u()
FUNC 38830 c 0 __crt_stdio_output::output_processor<wchar_t,__crt_stdio_output::string_output_adapter<wchar_t>,__crt_stdio_output::standard_base<wchar_t,__crt_stdio_output::string_output_adapter<wchar_t> > >::type_case_u()
FUNC 38840 c 0 __crt_stdio_output::output_processor<char,__crt_stdio_output::stream_output_adapter<char>,__crt_stdio_output::format_validation_base<char,__crt_stdio_output::stream_output_adapter<char> > >::type_case_x()
FUNC 38850 c 0 __crt_stdio_output::output_processor<char,__crt_stdio_output::stream_output_adapter<char>,__crt_stdio_output::positional_parameter_base<char,__crt_stdio_output::stream_output_adapter<char> > >::type_case_x()
FUNC 38860 c 0 __crt_stdio_output::output_processor<char,__crt_stdio_output::stream_output_adapter<char>,__crt_stdio_output::standard_base<char,__crt_stdio_output::stream_output_adapter<char> > >::type_case_x()
FUNC 38870 c 0 __crt_stdio_output::output_processor<char,__crt_stdio_output::string_output_adapter<char>,__crt_stdio_output::format_validation_base<char,__crt_stdio_output::string_output_adapter<char> > >::type_case_x()
FUNC 38880 c 0 __crt_stdio_output::output_processor<char,__crt_stdio_output::string_output_adapter<char>,__crt_stdio_output::positional_parameter_base<char,__crt_stdio_output::string_output_adapter<char> > >::type_case_x()
FUNC 38890 c 0 __crt_stdio_output::output_processor<char,__crt_stdio_output::string_output_adapter<char>,__crt_stdio_output::standard_base<char,__crt_stdio_output::string_output_adapter<char> > >::type_case_x()
FUNC 388a0 c 0 __crt_stdio_output::output_processor<wchar_t,__crt_stdio_output::stream_output_adapter<wchar_t>,__crt_stdio_output::format_validation_base<wchar_t,__crt_stdio_output::stream_output_adapter<wchar_t> > >::type_case_x()
FUNC 388b0 c 0 __crt_stdio_output::output_processor<wchar_t,__crt_stdio_output::stream_output_adapter<wchar_t>,__crt_stdio_output::positional_parameter_base<wchar_t,__crt_stdio_output::stream_output_adapter<wchar_t> > >::type_case_x()
FUNC 388c0 c 0 __crt_stdio_output::output_processor<wchar_t,__crt_stdio_output::stream_output_adapter<wchar_t>,__crt_stdio_output::standard_base<wchar_t,__crt_stdio_output::stream_output_adapter<wchar_t> > >::type_case_x()
FUNC 388d0 c 0 __crt_stdio_output::output_processor<wchar_t,__crt_stdio_output::string_output_adapter<wchar_t>,__crt_stdio_output::format_validation_base<wchar_t,__crt_stdio_output::string_output_adapter<wchar_t> > >::type_case_x()
FUNC 388e0 c 0 __crt_stdio_output::output_processor<wchar_t,__crt_stdio_output::string_output_adapter<wchar_t>,__crt_stdio_output::positional_parameter_base<wchar_t,__crt_stdio_output::string_output_adapter<wchar_t> > >::type_case_x()
FUNC 388f0 c 0 __crt_stdio_output::output_processor<wchar_t,__crt_stdio_output::string_output_adapter<wchar_t>,__crt_stdio_output::standard_base<wchar_t,__crt_stdio_output::string_output_adapter<wchar_t> > >::type_case_x()
FUNC 38900 6 0 __crt_stdio_output::output_processor<char,__crt_stdio_output::stream_output_adapter<char>,__crt_stdio_output::format_validation_base<char,__crt_stdio_output::stream_output_adapter<char> > >::unset_flag(const unsigned int)
FUNC 38908 6 0 __crt_stdio_output::output_processor<char,__crt_stdio_output::stream_output_adapter<char>,__crt_stdio_output::positional_parameter_base<char,__crt_stdio_output::stream_output_adapter<char> > >::unset_flag(const unsigned int)
FUNC 38910 6 0 __crt_stdio_output::output_processor<char,__crt_stdio_output::stream_output_adapter<char>,__crt_stdio_output::standard_base<char,__crt_stdio_output::stream_output_adapter<char> > >::unset_flag(const unsigned int)
FUNC 38918 6 0 __crt_stdio_output::output_processor<char,__crt_stdio_output::string_output_adapter<char>,__crt_stdio_output::format_validation_base<char,__crt_stdio_output::string_output_adapter<char> > >::unset_flag(const unsigned int)
FUNC 38920 6 0 __crt_stdio_output::output_processor<char,__crt_stdio_output::string_output_adapter<char>,__crt_stdio_output::positional_parameter_base<char,__crt_stdio_output::string_output_adapter<char> > >::unset_flag(const unsigned int)
FUNC 38928 6 0 __crt_stdio_output::output_processor<char,__crt_stdio_output::string_output_adapter<char>,__crt_stdio_output::standard_base<char,__crt_stdio_output::string_output_adapter<char> > >::unset_flag(const unsigned int)
FUNC 38930 6 0 __crt_stdio_output::output_processor<wchar_t,__crt_stdio_output::stream_output_adapter<wchar_t>,__crt_stdio_output::format_validation_base<wchar_t,__crt_stdio_output::stream_output_adapter<wchar_t> > >::unset_flag(const unsigned int)
FUNC 38938 6 0 __crt_stdio_output::output_processor<wchar_t,__crt_stdio_output::stream_output_adapter<wchar_t>,__crt_stdio_output::positional_parameter_base<wchar_t,__crt_stdio_output::stream_output_adapter<wchar_t> > >::unset_flag(const unsigned int)
FUNC 38940 6 0 __crt_stdio_output::output_processor<wchar_t,__crt_stdio_output::stream_output_adapter<wchar_t>,__crt_stdio_output::standard_base<wchar_t,__crt_stdio_output::stream_output_adapter<wchar_t> > >::unset_flag(const unsigned int)
FUNC 38948 6 0 __crt_stdio_output::output_processor<wchar_t,__crt_stdio_output::string_output_adapter<wchar_t>,__crt_stdio_output::format_validation_base<wchar_t,__crt_stdio_output::string_output_adapter<wchar_t> > >::unset_flag(const unsigned int)
FUNC 38950 6 0 __crt_stdio_output::output_processor<wchar_t,__crt_stdio_output::string_output_adapter<wchar_t>,__crt_stdio_output::positional_parameter_base<wchar_t,__crt_stdio_output::string_output_adapter<wchar_t> > >::unset_flag(const unsigned int)
FUNC 38958 6 0 __crt_stdio_output::output_processor<wchar_t,__crt_stdio_output::string_output_adapter<wchar_t>,__crt_stdio_output::standard_base<wchar_t,__crt_stdio_output::string_output_adapter<wchar_t> > >::unset_flag(const unsigned int)
FUNC 38960 115 0 __crt_stdio_output::positional_parameter_base<char,__crt_stdio_output::stream_output_adapter<char> >::update_field_width()
FUNC 38abc 115 0 __crt_stdio_output::positional_parameter_base<char,__crt_stdio_output::string_output_adapter<char> >::update_field_width()
FUNC 38c18 118 0 __crt_stdio_output::positional_parameter_base<wchar_t,__crt_stdio_output::stream_output_adapter<wchar_t> >::update_field_width()
FUNC 38d78 118 0 __crt_stdio_output::positional_parameter_base<wchar_t,__crt_stdio_output::string_output_adapter<wchar_t> >::update_field_width()
FUNC 38ed8 12 0 __crt_stdio_output::standard_base<char,__crt_stdio_output::stream_output_adapter<char> >::update_field_width()
FUNC 38ef0 12 0 __crt_stdio_output::standard_base<char,__crt_stdio_output::string_output_adapter<char> >::update_field_width()
FUNC 38f08 12 0 __crt_stdio_output::standard_base<wchar_t,__crt_stdio_output::stream_output_adapter<wchar_t> >::update_field_width()
FUNC 38f20 12 0 __crt_stdio_output::standard_base<wchar_t,__crt_stdio_output::string_output_adapter<wchar_t> >::update_field_width()
FUNC 38f38 115 0 __crt_stdio_output::positional_parameter_base<char,__crt_stdio_output::stream_output_adapter<char> >::update_precision()
FUNC 39094 115 0 __crt_stdio_output::positional_parameter_base<char,__crt_stdio_output::string_output_adapter<char> >::update_precision()
FUNC 391f0 118 0 __crt_stdio_output::positional_parameter_base<wchar_t,__crt_stdio_output::stream_output_adapter<wchar_t> >::update_precision()
FUNC 39350 118 0 __crt_stdio_output::positional_parameter_base<wchar_t,__crt_stdio_output::string_output_adapter<wchar_t> >::update_precision()
FUNC 394b0 12 0 __crt_stdio_output::standard_base<char,__crt_stdio_output::stream_output_adapter<char> >::update_precision()
FUNC 394c8 12 0 __crt_stdio_output::standard_base<char,__crt_stdio_output::string_output_adapter<char> >::update_precision()
FUNC 394e0 12 0 __crt_stdio_output::standard_base<wchar_t,__crt_stdio_output::stream_output_adapter<wchar_t> >::update_precision()
FUNC 394f8 12 0 __crt_stdio_output::standard_base<wchar_t,__crt_stdio_output::string_output_adapter<wchar_t> >::update_precision()
FUNC 39510 8 0 __crt_stdio_stream::valid() const
FUNC 3951c 2c 0 __crt_stdio_output::stream_output_adapter<char>::validate() const
FUNC 39554 25 0 __crt_stdio_output::stream_output_adapter<wchar_t>::validate() const
FUNC 39584 25 0 __crt_stdio_output::string_output_adapter<char>::validate() const
FUNC 395b4 25 0 __crt_stdio_output::string_output_adapter<wchar_t>::validate() const
FUNC 395e4 3f 0 __crt_stdio_output::positional_parameter_base<char,__crt_stdio_output::stream_output_adapter<char> >::validate_and_store_parameter_data(__crt_stdio_output::positional_parameter_base<char,__crt_stdio_output::stream_output_adapter<char> >::parameter_data&, const __crt_stdio_output::positional_parameter_base<char,__crt_stdio_output::stream_output_adapter<char> >::parameter_type, const char, const __crt_stdio_output::length_modifier)
FUNC 39634 3f 0 __crt_stdio_output::positional_parameter_base<char,__crt_stdio_output::string_output_adapter<char> >::validate_and_store_parameter_data(__crt_stdio_output::positional_parameter_base<char,__crt_stdio_output::string_output_adapter<char> >::parameter_data&, const __crt_stdio_output::positional_parameter_base<char,__crt_stdio_output::string_output_adapter<char> >::parameter_type, const char, const __crt_stdio_output::length_modifier)
FUNC 39684 40 0 __crt_stdio_output::positional_parameter_base<wchar_t,__crt_stdio_output::stream_output_adapter<wchar_t> >::validate_and_store_parameter_data(__crt_stdio_output::positional_parameter_base<wchar_t,__crt_stdio_output::stream_output_adapter<wchar_t> >::parameter_data&, const __crt_stdio_output::positional_parameter_base<wchar_t,__crt_stdio_output::stream_output_adapter<wchar_t> >::parameter_type, const wchar_t, const __crt_stdio_output::length_modifier)
FUNC 396d4 40 0 __crt_stdio_output::positional_parameter_base<wchar_t,__crt_stdio_output::string_output_adapter<wchar_t> >::validate_and_store_parameter_data(__crt_stdio_output::positional_parameter_base<wchar_t,__crt_stdio_output::string_output_adapter<wchar_t> >::parameter_data&, const __crt_stdio_output::positional_parameter_base<wchar_t,__crt_stdio_output::string_output_adapter<wchar_t> >::parameter_type, const wchar_t, const __crt_stdio_output::length_modifier)
FUNC 39724 10b 0 __crt_stdio_output::positional_parameter_base<char,__crt_stdio_output::stream_output_adapter<char> >::validate_and_update_state_at_beginning_of_format_character()
FUNC 39874 10b 0 __crt_stdio_output::positional_parameter_base<char,__crt_stdio_output::string_output_adapter<char> >::validate_and_update_state_at_beginning_of_format_character()
FUNC 399c4 114 0 __crt_stdio_output::positional_parameter_base<wchar_t,__crt_stdio_output::stream_output_adapter<wchar_t> >::validate_and_update_state_at_beginning_of_format_character()
FUNC 39b20 114 0 __crt_stdio_output::positional_parameter_base<wchar_t,__crt_stdio_output::string_output_adapter<wchar_t> >::validate_and_update_state_at_beginning_of_format_character()
FUNC 39c7c 3 0 __crt_stdio_output::standard_base<char,__crt_stdio_output::stream_output_adapter<char> >::validate_and_update_state_at_beginning_of_format_character()
FUNC 39c80 3 0 __crt_stdio_output::standard_base<char,__crt_stdio_output::string_output_adapter<char> >::validate_and_update_state_at_beginning_of_format_character()
FUNC 39c84 3 0 __crt_stdio_output::standard_base<wchar_t,__crt_stdio_output::stream_output_adapter<wchar_t> >::validate_and_update_state_at_beginning_of_format_character()
FUNC 39c88 3 0 __crt_stdio_output::standard_base<wchar_t,__crt_stdio_output::string_output_adapter<wchar_t> >::validate_and_update_state_at_beginning_of_format_character()
FUNC 39c8c 2b 0 __crt_stdio_output::format_validation_base<char,__crt_stdio_output::stream_output_adapter<char> >::validate_and_update_state_at_end_of_format_string() const
FUNC 39cc4 2b 0 __crt_stdio_output::format_validation_base<char,__crt_stdio_output::string_output_adapter<char> >::validate_and_update_state_at_end_of_format_string() const
FUNC 39cfc 2b 0 __crt_stdio_output::format_validation_base<wchar_t,__crt_stdio_output::stream_output_adapter<wchar_t> >::validate_and_update_state_at_end_of_format_string() const
FUNC 39d34 2b 0 __crt_stdio_output::format_validation_base<wchar_t,__crt_stdio_output::string_output_adapter<wchar_t> >::validate_and_update_state_at_end_of_format_string() const
FUNC 39d6c 9b 0 __crt_stdio_output::positional_parameter_base<char,__crt_stdio_output::stream_output_adapter<char> >::validate_and_update_state_at_end_of_format_string()
FUNC 39e30 9b 0 __crt_stdio_output::positional_parameter_base<char,__crt_stdio_output::string_output_adapter<char> >::validate_and_update_state_at_end_of_format_string()
FUNC 39ef4 9b 0 __crt_stdio_output::positional_parameter_base<wchar_t,__crt_stdio_output::stream_output_adapter<wchar_t> >::validate_and_update_state_at_end_of_format_string()
FUNC 39fb8 9b 0 __crt_stdio_output::positional_parameter_base<wchar_t,__crt_stdio_output::string_output_adapter<wchar_t> >::validate_and_update_state_at_end_of_format_string()
FUNC 3a07c 3 0 __crt_stdio_output::standard_base<char,__crt_stdio_output::stream_output_adapter<char> >::validate_and_update_state_at_end_of_format_string() const
FUNC 3a080 3 0 __crt_stdio_output::standard_base<char,__crt_stdio_output::string_output_adapter<char> >::validate_and_update_state_at_end_of_format_string() const
FUNC 3a084 3 0 __crt_stdio_output::standard_base<wchar_t,__crt_stdio_output::stream_output_adapter<wchar_t> >::validate_and_update_state_at_end_of_format_string() const
FUNC 3a088 3 0 __crt_stdio_output::standard_base<wchar_t,__crt_stdio_output::string_output_adapter<wchar_t> >::validate_and_update_state_at_end_of_format_string() const
FUNC 3a08c 9b 0 __crt_stdio_output::positional_parameter_base<char,__crt_stdio_output::stream_output_adapter<char> >::validate_state_for_type_case_a()
FUNC 3a150 9b 0 __crt_stdio_output::positional_parameter_base<char,__crt_stdio_output::string_output_adapter<char> >::validate_state_for_type_case_a()
FUNC 3a214 9d 0 __crt_stdio_output::positional_parameter_base<wchar_t,__crt_stdio_output::stream_output_adapter<wchar_t> >::validate_state_for_type_case_a()
FUNC 3a2d8 9d 0 __crt_stdio_output::positional_parameter_base<wchar_t,__crt_stdio_output::string_output_adapter<wchar_t> >::validate_state_for_type_case_a()
FUNC 3a39c 3 0 __crt_stdio_output::standard_base<char,__crt_stdio_output::stream_output_adapter<char> >::validate_state_for_type_case_a() const
FUNC 3a3a0 3 0 __crt_stdio_output::standard_base<char,__crt_stdio_output::string_output_adapter<char> >::validate_state_for_type_case_a() const
FUNC 3a3a4 3 0 __crt_stdio_output::standard_base<wchar_t,__crt_stdio_output::stream_output_adapter<wchar_t> >::validate_state_for_type_case_a() const
FUNC 3a3a8 3 0 __crt_stdio_output::standard_base<wchar_t,__crt_stdio_output::string_output_adapter<wchar_t> >::validate_state_for_type_case_a() const
FUNC 3a3ac 9a 0 __acrt_stdio_char_traits<char>::validate_stream_is_ansi_if_required(_iobuf* const)
FUNC 3a46c 3 0 __acrt_stdio_char_traits<wchar_t>::validate_stream_is_ansi_if_required(_iobuf* const)
FUNC 3a470 8 0 __crt_stdio_output::output_processor<char,__crt_stdio_output::stream_output_adapter<char>,__crt_stdio_output::format_validation_base<char,__crt_stdio_output::stream_output_adapter<char> > >::wide_null_string()
FUNC 3a47c 8 0 __crt_stdio_output::output_processor<char,__crt_stdio_output::stream_output_adapter<char>,__crt_stdio_output::positional_parameter_base<char,__crt_stdio_output::stream_output_adapter<char> > >::wide_null_string()
FUNC 3a488 8 0 __crt_stdio_output::output_processor<char,__crt_stdio_output::stream_output_adapter<char>,__crt_stdio_output::standard_base<char,__crt_stdio_output::stream_output_adapter<char> > >::wide_null_string()
FUNC 3a494 8 0 __crt_stdio_output::output_processor<char,__crt_stdio_output::string_output_adapter<char>,__crt_stdio_output::format_validation_base<char,__crt_stdio_output::string_output_adapter<char> > >::wide_null_string()
FUNC 3a4a0 8 0 __crt_stdio_output::output_processor<char,__crt_stdio_output::string_output_adapter<char>,__crt_stdio_output::positional_parameter_base<char,__crt_stdio_output::string_output_adapter<char> > >::wide_null_string()
FUNC 3a4ac 8 0 __crt_stdio_output::output_processor<char,__crt_stdio_output::string_output_adapter<char>,__crt_stdio_output::standard_base<char,__crt_stdio_output::string_output_adapter<char> > >::wide_null_string()
FUNC 3a4b8 8 0 __crt_stdio_output::output_processor<wchar_t,__crt_stdio_output::stream_output_adapter<wchar_t>,__crt_stdio_output::format_validation_base<wchar_t,__crt_stdio_output::stream_output_adapter<wchar_t> > >::wide_null_string()
FUNC 3a4c4 8 0 __crt_stdio_output::output_processor<wchar_t,__crt_stdio_output::stream_output_adapter<wchar_t>,__crt_stdio_output::positional_parameter_base<wchar_t,__crt_stdio_output::stream_output_adapter<wchar_t> > >::wide_null_string()
FUNC 3a4d0 8 0 __crt_stdio_output::output_processor<wchar_t,__crt_stdio_output::stream_output_adapter<wchar_t>,__crt_stdio_output::standard_base<wchar_t,__crt_stdio_output::stream_output_adapter<wchar_t> > >::wide_null_string()
FUNC 3a4dc 8 0 __crt_stdio_output::output_processor<wchar_t,__crt_stdio_output::string_output_adapter<wchar_t>,__crt_stdio_output::format_validation_base<wchar_t,__crt_stdio_output::string_output_adapter<wchar_t> > >::wide_null_string()
FUNC 3a4e8 8 0 __crt_stdio_output::output_processor<wchar_t,__crt_stdio_output::string_output_adapter<wchar_t>,__crt_stdio_output::positional_parameter_base<wchar_t,__crt_stdio_output::string_output_adapter<wchar_t> > >::wide_null_string()
FUNC 3a4f4 8 0 __crt_stdio_output::output_processor<wchar_t,__crt_stdio_output::string_output_adapter<wchar_t>,__crt_stdio_output::standard_base<wchar_t,__crt_stdio_output::string_output_adapter<wchar_t> > >::wide_null_string()
FUNC 3a500 48 0 __crt_stdio_output::output_adapter_common<char,__crt_stdio_output::stream_output_adapter<char> >::write_character(const char, int* const) const
FUNC 3a55c 4b 0 __crt_stdio_output::output_adapter_common<wchar_t,__crt_stdio_output::stream_output_adapter<wchar_t> >::write_character(const wchar_t, int* const) const
FUNC 3a5bc 45 0 __crt_stdio_output::string_output_adapter<char>::write_character(const char, int* const) const
FUNC 3a614 48 0 __crt_stdio_output::string_output_adapter<wchar_t>::write_character(const wchar_t, int* const) const
FUNC 3a670 40 0 __crt_stdio_output::stream_output_adapter<char>::write_character_without_count_update(const char) const
FUNC 3a6c0 43 0 __crt_stdio_output::stream_output_adapter<wchar_t>::write_character_without_count_update(const wchar_t) const
FUNC 3a714 121 0 __crt_stdio_output::output_processor<char,__crt_stdio_output::stream_output_adapter<char>,__crt_stdio_output::format_validation_base<char,__crt_stdio_output::stream_output_adapter<char> > >::write_stored_string_tchar(char)
FUNC 3a880 121 0 __crt_stdio_output::output_processor<char,__crt_stdio_output::stream_output_adapter<char>,__crt_stdio_output::positional_parameter_base<char,__crt_stdio_output::stream_output_adapter<char> > >::write_stored_string_tchar(char)
FUNC 3a9ec 121 0 __crt_stdio_output::output_processor<char,__crt_stdio_output::stream_output_adapter<char>,__crt_stdio_output::standard_base<char,__crt_stdio_output::stream_output_adapter<char> > >::write_stored_string_tchar(char)
FUNC 3ab58 d5 0 __crt_stdio_output::output_processor<char,__crt_stdio_output::string_output_adapter<char>,__crt_stdio_output::format_validation_base<char,__crt_stdio_output::string_output_adapter<char> > >::write_stored_string_tchar(char)
FUNC 3ac64 d5 0 __crt_stdio_output::output_processor<char,__crt_stdio_output::string_output_adapter<char>,__crt_stdio_output::positional_parameter_base<char,__crt_stdio_output::string_output_adapter<char> > >::write_stored_string_tchar(char)
FUNC 3ad70 d5 0 __crt_stdio_output::output_processor<char,__crt_stdio_output::string_output_adapter<char>,__crt_stdio_output::standard_base<char,__crt_stdio_output::string_output_adapter<char> > >::write_stored_string_tchar(char)
FUNC 3ae7c 106 0 __crt_stdio_output::output_processor<wchar_t,__crt_stdio_output::stream_output_adapter<wchar_t>,__crt_stdio_output::format_validation_base<wchar_t,__crt_stdio_output::stream_output_adapter<wchar_t> > >::write_stored_string_tchar(wchar_t)
FUNC 3afc4 106 0 __crt_stdio_output::output_processor<wchar_t,__crt_stdio_output::stream_output_adapter<wchar_t>,__crt_stdio_output::positional_parameter_base<wchar_t,__crt_stdio_output::stream_output_adapter<wchar_t> > >::write_stored_string_tchar(wchar_t)
FUNC 3b10c 106 0 __crt_stdio_output::output_processor<wchar_t,__crt_stdio_output::stream_output_adapter<wchar_t>,__crt_stdio_output::standard_base<wchar_t,__crt_stdio_output::stream_output_adapter<wchar_t> > >::write_stored_string_tchar(wchar_t)
FUNC 3b254 eb 0 __crt_stdio_output::output_processor<wchar_t,__crt_stdio_output::string_output_adapter<wchar_t>,__crt_stdio_output::format_validation_base<wchar_t,__crt_stdio_output::string_output_adapter<wchar_t> > >::write_stored_string_tchar(wchar_t)
FUNC 3b37c eb 0 __crt_stdio_output::output_processor<wchar_t,__crt_stdio_output::string_output_adapter<wchar_t>,__crt_stdio_output::positional_parameter_base<wchar_t,__crt_stdio_output::string_output_adapter<wchar_t> > >::write_stored_string_tchar(wchar_t)
FUNC 3b4a4 eb 0 __crt_stdio_output::output_processor<wchar_t,__crt_stdio_output::string_output_adapter<wchar_t>,__crt_stdio_output::standard_base<wchar_t,__crt_stdio_output::string_output_adapter<wchar_t> > >::write_stored_string_tchar(wchar_t)
FUNC 3b5cc 24 0 __crt_stdio_output::stream_output_adapter<char>::write_string(char const* const, const int, int* const, __crt_deferred_errno_cache&) const
FUNC 3b5fc 24 0 __crt_stdio_output::stream_output_adapter<wchar_t>::write_string(wchar_t const* const, const int, int* const, __crt_deferred_errno_cache&) const
FUNC 3b62c a3 0 __crt_stdio_output::string_output_adapter<char>::write_string(char const* const, const int, int* const, __crt_deferred_errno_cache&) const
FUNC 3b6f8 a5 0 __crt_stdio_output::string_output_adapter<wchar_t>::write_string(wchar_t const* const, const int, int* const, __crt_deferred_errno_cache&) const
FUNC 3b7c8 f5 0 __crt_stdio_output::output_adapter_common<char,__crt_stdio_output::stream_output_adapter<char> >::write_string_impl(char const* const, const int, int* const, __crt_deferred_errno_cache&) const
FUNC 3b8fc 103 0 __crt_stdio_output::output_adapter_common<wchar_t,__crt_stdio_output::stream_output_adapter<wchar_t> >::write_string_impl(wchar_t const* const, const int, int* const, __crt_deferred_errno_cache&) const
FUNC 3ba40 21 0 __acrt_isleadbyte_l_noupdate(const int, __crt_locale_pointers* const)
FUNC 3ba6c b 0 __acrt_locale_changed()
FUNC 3ba7c 18 0 __acrt_locale_get_ctype_array_value(unsigned short const* const, const int, const int)
FUNC 3ba9c 8b 0 __stdio_common_vfprintf(unsigned long long, _iobuf*, char const*, __crt_locale_pointers*, char*)
FUNC 3bb4c 8b 0 __stdio_common_vfprintf_p(unsigned long long, _iobuf*, char const*, __crt_locale_pointers*, char*)
FUNC 3bbfc 8b 0 __stdio_common_vfprintf_s(unsigned long long, _iobuf*, char const*, __crt_locale_pointers*, char*)
FUNC 3bcac 8b 0 __stdio_common_vfwprintf(unsigned long long, _iobuf*, wchar_t const*, __crt_locale_pointers*, char*)
FUNC 3bd5c 8b 0 __stdio_common_vfwprintf_p(unsigned long long, _iobuf*, wchar_t const*, __crt_locale_pointers*, char*)
FUNC 3be0c 8b 0 __stdio_common_vfwprintf_s(unsigned long long, _iobuf*, wchar_t const*, __crt_locale_pointers*, char*)
FUNC 3bebc 134 0 __stdio_common_vsnprintf_s(unsigned long long, char*, unsigned long long, unsigned long long, char const*, __crt_locale_pointers*, char*)
FUNC 3c040 143 0 __stdio_common_vsnwprintf_s(unsigned long long, wchar_t*, unsigned long long, unsigned long long, wchar_t const*, __crt_locale_pointers*, char*)
FUNC 3c1d4 5 0 __stdio_common_vsprintf(unsigned long long, char*, unsigned long long, char const*, __crt_locale_pointers*, char*)
FUNC 3c1dc 5 0 __stdio_common_vsprintf_p(unsigned long long, char*, unsigned long long, char const*, __crt_locale_pointers*, char*)
FUNC 3c1e4 63 0 __stdio_common_vsprintf_s(unsigned long long, char*, unsigned long long, char const*, __crt_locale_pointers*, char*)
FUNC 3c260 5 0 __stdio_common_vswprintf(unsigned long long, wchar_t*, unsigned long long, wchar_t const*, __crt_locale_pointers*, char*)
FUNC 3c268 5 0 __stdio_common_vswprintf_p(unsigned long long, wchar_t*, unsigned long long, wchar_t const*, __crt_locale_pointers*, char*)
FUNC 3c270 6e 0 __stdio_common_vswprintf_s(unsigned long long, wchar_t*, unsigned long long, wchar_t const*, __crt_locale_pointers*, char*)
FUNC 3c2fc 13 0 _ctype_fast_check_internal(const unsigned char, const int, __crt_locale_pointers* const)
FUNC 3c314 14 0 _isdigit_fast_internal(const unsigned char, __crt_locale_pointers* const)
FUNC 3c330 11 0 _tolower_fast_internal(const unsigned char, __crt_locale_pointers* const)
FUNC 3c348 24 0 __crt_strtox::is_overflow_condition<unsigned long>(const unsigned int, const unsigned long)
FUNC 3c378 30 0 __crt_strtox::is_overflow_condition<unsigned __int64>(const unsigned int, const unsigned long long)
FUNC 3c3b4 13 0 __crt_strtox::make_c_string_character_source<char,std::nullptr_t>(char const* const, void const*)
FUNC 3c3cc 13 0 __crt_strtox::make_c_string_character_source<wchar_t,std::nullptr_t>(wchar_t const* const, void const*)
FUNC 3c3e4 305 0 __crt_strtox::parse_integer<unsigned long,__crt_strtox::c_string_character_source<char> >(__crt_locale_pointers* const, __crt_strtox::c_string_character_source<char>, int, const bool)
FUNC 3c7ac 6a8 0 __crt_strtox::parse_integer<unsigned long,__crt_strtox::c_string_character_source<wchar_t> >(__crt_locale_pointers* const, __crt_strtox::c_string_character_source<wchar_t>, int, const bool)
FUNC 3d000 2f0 0 __crt_strtox::parse_integer<unsigned __int64,__crt_strtox::c_string_character_source<char> >(__crt_locale_pointers* const, __crt_strtox::c_string_character_source<char>, int, const bool)
FUNC 3d3ac 758 0 __crt_strtox::parse_integer<unsigned __int64,__crt_strtox::c_string_character_source<wchar_t> >(__crt_locale_pointers* const, __crt_strtox::c_string_character_source<wchar_t>, int, const bool)
FUNC 3dcdc 2e 0 __crt_strtox::parse_integer_from_string<long,char,std::nullptr_t>(char const* const, void const*, const int, __crt_locale_pointers* const)
FUNC 3dd18 2e 0 __crt_strtox::parse_integer_from_string<long,wchar_t,std::nullptr_t>(wchar_t const* const, void const*, const int, __crt_locale_pointers* const)
FUNC 3dd54 2e 0 __crt_strtox::parse_integer_from_string<__int64,char,std::nullptr_t>(char const* const, void const*, const int, __crt_locale_pointers* const)
FUNC 3dd90 2e 0 __crt_strtox::parse_integer_from_string<__int64,wchar_t,std::nullptr_t>(wchar_t const* const, void const*, const int, __crt_locale_pointers* const)
FUNC 3ddcc 13 0 __crt_strtox::c_string_character_source<char>::c_string_character_source<char>(char const* const, char const** const)
FUNC 3dde4 13 0 __crt_strtox::c_string_character_source<wchar_t>::c_string_character_source<wchar_t>(wchar_t const* const, wchar_t const** const)
FUNC 3ddfc 10 0 __crt_strtox::c_string_character_source<char>::~c_string_character_source<char>()
FUNC 3de10 10 0 __crt_strtox::c_string_character_source<wchar_t>::~c_string_character_source<wchar_t>()
FUNC 3de24 c 0 __crt_strtox::c_string_character_source<char>::get()
FUNC 3de34 e 0 __crt_strtox::c_string_character_source<wchar_t>::get()
FUNC 3de48 1e 0 __crt_strtox::is_space(const char, __crt_locale_pointers* const)
FUNC 3de70 18 0 __crt_strtox::is_space(const wchar_t, __crt_locale_pointers*)
FUNC 3de90 6 0 __crt_strtox::maximum_signed_value(unsigned long)
FUNC 3de98 b 0 __crt_strtox::maximum_signed_value(unsigned long long)
FUNC 3dea8 6 0 __crt_strtox::minimum_signed_value(unsigned long)
FUNC 3deb0 b 0 __crt_strtox::minimum_signed_value(unsigned long long)
FUNC 3dec0 2e 0 __crt_strtox::parse_digit(const char)
FUNC 3defc 1d0 0 __crt_strtox::parse_digit(const wchar_t)
FUNC 3e140 6 0 __crt_strtox::c_string_character_source<char>::restore_state(char const* const)
FUNC 3e148 6 0 __crt_strtox::c_string_character_source<wchar_t>::restore_state(wchar_t const* const)
FUNC 3e150 4 0 __crt_strtox::c_string_character_source<char>::save_state() const
FUNC 3e154 4 0 __crt_strtox::c_string_character_source<wchar_t>::save_state() const
FUNC 3e158 2a 0 __crt_strtox::c_string_character_source<char>::unget(const char)
FUNC 3e18c 2d 0 __crt_strtox::c_string_character_source<wchar_t>::unget(const wchar_t)
FUNC 3e1c4 25 0 __crt_strtox::c_string_character_source<char>::validate() const
FUNC 3e1f4 25 0 __crt_strtox::c_string_character_source<wchar_t>::validate() const
FUNC 3e224 1a0 0 __crt_strtox::wide_character_to_digit(const wchar_t)
FUNC 3e42c 4 0 __acrt_get_locale_data_prefix(void const* const)
FUNC 3e430 19 0 __ascii_iswalpha(const int)
FUNC 3e450 e 0 __ascii_toupper(const int)
FUNC 3e464 d 0 __ascii_towupper(const int)
FUNC 3e474 29 0 _atoi64(char const*)
FUNC 3e4a8 2d 0 _atoi64_l(char const*, __crt_locale_pointers*)
FUNC 3e4e0 2d 0 _atoi_l(char const*, __crt_locale_pointers*)
FUNC 3e518 2d 0 _atol_l(char const*, __crt_locale_pointers*)
FUNC 3e550 2d 0 _atoll_l(char const*, __crt_locale_pointers*)
FUNC 3e588 61 0 _chvalidchk_l(const int, const int, __crt_locale_pointers* const)
FUNC 3e604 76 0 _ischartype_l(const int, const int, __crt_locale_pointers* const)
FUNC 3e698 29 0 _wtoi(wchar_t const*)
FUNC 3e6cc 29 0 _wtoi64(wchar_t const*)
FUNC 3e700 2d 0 _wtoi64_l(wchar_t const*, __crt_locale_pointers*)
FUNC 3e738 2d 0 _wtoi_l(wchar_t const*, __crt_locale_pointers*)
FUNC 3e770 29 0 _wtol(wchar_t const*)
FUNC 3e7a4 2d 0 _wtol_l(wchar_t const*, __crt_locale_pointers*)
FUNC 3e7dc 29 0 _wtoll(wchar_t const*)
FUNC 3e810 2d 0 _wtoll_l(wchar_t const*, __crt_locale_pointers*)
FUNC 3e848 29 0 atoi(char const*)
FUNC 3e87c 29 0 atol(char const*)
FUNC 3e8b0 29 0 atoll(char const*)
FUNC 3e900 7d 0 strncmp()
FUNC 3e9a0 1c 0 _set_abort_behavior(unsigned int, unsigned int)
FUNC 3e9c4 56 0 abort()
FUNC 3ea30 5 0 calloc(unsigned long long, unsigned long long)
FUNC 3ea38 2c 0 wcsncmp(wchar_t const*, wchar_t const*, unsigned long long)
FUNC 3ea70 8 0 __crt_internal_free_policy::operator()<__acrt_ptd>(__acrt_ptd const* const) const
FUNC 3ea7c 3f 0 __crt_seh_guarded_call<void>::operator()<<lambda_0ae27a3a962d80f24befdcbee591983d>,<lambda_8d0ee55de4b1038c4002e0adecdf1839> &,<lambda_dc504788e8f1664fe9b84e20bfb512f2> >(__acrt_lock_and_call::__l2::<lambda_0ae27a3a962d80f24befdcbee591983d>&&, construct_ptd::__l2::<lambda_8d0ee55de4b1038c4002e0adecdf1839>&, __acrt_lock_and_call::__l2::<lambda_dc504788e8f1664fe9b84e20bfb512f2>&&)
FUNC 3eacc 3d 0 __crt_seh_guarded_call<void>::operator()<<lambda_2d41944a1d46af3157314b8a01080d33>,<lambda_8f455de75cd7d7f24b4096f044d8b9e6> &,<lambda_aa500f224e6afead328df44964fe2772> >(__acrt_lock_and_call::__l2::<lambda_2d41944a1d46af3157314b8a01080d33>&&, destroy_ptd::__l2::<lambda_8f455de75cd7d7f24b4096f044d8b9e6>&, __acrt_lock_and_call::__l2::<lambda_aa500f224e6afead328df44964fe2772>&&)
FUNC 3eb18 45 0 __crt_seh_guarded_call<void>::operator()<<lambda_aa87e3671a710a21b5dc78c0bdf72e11>,<lambda_92619d2358a28f41a33ba319515a20b9> &,<lambda_6992ecaafeb10aed2b74cb1fae11a551> >(__acrt_lock_and_call::__l2::<lambda_aa87e3671a710a21b5dc78c0bdf72e11>&&, construct_ptd::__l2::<lambda_92619d2358a28f41a33ba319515a20b9>&, __acrt_lock_and_call::__l2::<lambda_6992ecaafeb10aed2b74cb1fae11a551>&&)
FUNC 3eb70 5f 0 __crt_seh_guarded_call<void>::operator()<<lambda_f2e299630e499de9f9a165e60fcd3db5>,<lambda_2ae9d31cdba2644fcbeaf08da7c24588> &,<lambda_40d01ff24d0e7b3814fdbdcee8eab3c7> >(__acrt_lock_and_call::__l2::<lambda_f2e299630e499de9f9a165e60fcd3db5>&&, destroy_ptd::__l2::<lambda_2ae9d31cdba2644fcbeaf08da7c24588>&, __acrt_lock_and_call::__l2::<lambda_40d01ff24d0e7b3814fdbdcee8eab3c7>&&)
FUNC 3ebe8 26 0 __acrt_lock_and_call<<lambda_2ae9d31cdba2644fcbeaf08da7c24588> >(const __acrt_lock_id, destroy_ptd::__l2::<lambda_2ae9d31cdba2644fcbeaf08da7c24588>&&)
FUNC 3ec18 26 0 __acrt_lock_and_call<<lambda_8d0ee55de4b1038c4002e0adecdf1839> >(const __acrt_lock_id, construct_ptd::__l2::<lambda_8d0ee55de4b1038c4002e0adecdf1839>&&)
FUNC 3ec48 26 0 __acrt_lock_and_call<<lambda_8f455de75cd7d7f24b4096f044d8b9e6> >(const __acrt_lock_id, destroy_ptd::__l2::<lambda_8f455de75cd7d7f24b4096f044d8b9e6>&&)
FUNC 3ec78 26 0 __acrt_lock_and_call<<lambda_92619d2358a28f41a33ba319515a20b9> >(const __acrt_lock_id, construct_ptd::__l2::<lambda_92619d2358a28f41a33ba319515a20b9>&&)
FUNC 3eca8 8 0 <lambda_0ae27a3a962d80f24befdcbee591983d>::<lambda_0ae27a3a962d80f24befdcbee591983d>(__acrt_lock_id const&)
FUNC 3ecb4 7 0 <lambda_2ae9d31cdba2644fcbeaf08da7c24588>::<lambda_2ae9d31cdba2644fcbeaf08da7c24588>(__acrt_ptd* const&)
FUNC 3ecbc 8 0 <lambda_2d41944a1d46af3157314b8a01080d33>::<lambda_2d41944a1d46af3157314b8a01080d33>(__acrt_lock_id const&)
FUNC 3ecc8 8 0 <lambda_40d01ff24d0e7b3814fdbdcee8eab3c7>::<lambda_40d01ff24d0e7b3814fdbdcee8eab3c7>(__acrt_lock_id const&)
FUNC 3ecd4 8 0 <lambda_6992ecaafeb10aed2b74cb1fae11a551>::<lambda_6992ecaafeb10aed2b74cb1fae11a551>(__acrt_lock_id const&)
FUNC 3ece0 7 0 <lambda_8d0ee55de4b1038c4002e0adecdf1839>::<lambda_8d0ee55de4b1038c4002e0adecdf1839>(__acrt_ptd* const&)
FUNC 3ece8 7 0 <lambda_8f455de75cd7d7f24b4096f044d8b9e6>::<lambda_8f455de75cd7d7f24b4096f044d8b9e6>(__acrt_ptd* const&)
FUNC 3ecf0 b 0 <lambda_92619d2358a28f41a33ba319515a20b9>::<lambda_92619d2358a28f41a33ba319515a20b9>(__acrt_ptd* const&, __crt_locale_data** const&)
FUNC 3ed00 8 0 <lambda_aa500f224e6afead328df44964fe2772>::<lambda_aa500f224e6afead328df44964fe2772>(__acrt_lock_id const&)
FUNC 3ed0c 8 0 <lambda_aa87e3671a710a21b5dc78c0bdf72e11>::<lambda_aa87e3671a710a21b5dc78c0bdf72e11>(__acrt_lock_id const&)
FUNC 3ed18 8 0 <lambda_dc504788e8f1664fe9b84e20bfb512f2>::<lambda_dc504788e8f1664fe9b84e20bfb512f2>(__acrt_lock_id const&)
FUNC 3ed24 8 0 <lambda_f2e299630e499de9f9a165e60fcd3db5>::<lambda_f2e299630e499de9f9a165e60fcd3db5>(__acrt_lock_id const&)
FUNC 3ed30 7 0 __crt_unique_heap_ptr<__acrt_ptd,__crt_internal_free_policy>::__crt_unique_heap_ptr<__acrt_ptd,__crt_internal_free_policy>(__acrt_ptd* const)
FUNC 3ed38 1a 0 __crt_scoped_get_last_error_reset::__crt_scoped_get_last_error_reset()
FUNC 3ed58 1b 0 __crt_unique_heap_ptr<__acrt_ptd,__crt_internal_free_policy>::~__crt_unique_heap_ptr<__acrt_ptd,__crt_internal_free_policy>()
FUNC 3ed7c 9 0 __crt_scoped_get_last_error_reset::~__crt_scoped_get_last_error_reset()
FUNC 3ed88 8 0 __crt_unique_heap_ptr<__acrt_ptd,__crt_internal_free_policy>::operator bool() const
FUNC 3ed94 7 0 <lambda_0ae27a3a962d80f24befdcbee591983d>::operator()() const
FUNC 3ed9c 38 0 <lambda_2ae9d31cdba2644fcbeaf08da7c24588>::operator()() const
FUNC 3ede4 7 0 <lambda_2d41944a1d46af3157314b8a01080d33>::operator()() const
FUNC 3edec 7 0 <lambda_40d01ff24d0e7b3814fdbdcee8eab3c7>::operator()() const
FUNC 3edf4 7 0 <lambda_6992ecaafeb10aed2b74cb1fae11a551>::operator()() const
FUNC 3edfc 11 0 <lambda_8d0ee55de4b1038c4002e0adecdf1839>::operator()() const
FUNC 3ee14 d 0 <lambda_8f455de75cd7d7f24b4096f044d8b9e6>::operator()() const
FUNC 3ee24 15 0 <lambda_92619d2358a28f41a33ba319515a20b9>::operator()() const
FUNC 3ee40 7 0 <lambda_aa500f224e6afead328df44964fe2772>::operator()() const
FUNC 3ee48 7 0 <lambda_aa87e3671a710a21b5dc78c0bdf72e11>::operator()() const
FUNC 3ee50 7 0 <lambda_dc504788e8f1664fe9b84e20bfb512f2>::operator()() const
FUNC 3ee58 7 0 <lambda_f2e299630e499de9f9a165e60fcd3db5>::operator()() const
FUNC 3ee60 c5 0 construct_ptd(__acrt_ptd* const, __crt_locale_data** const)
FUNC 3ef58 cd 0 construct_ptd_array(__acrt_ptd* const)
FUNC 3f058 4 0 __crt_state_management::dual_state_global<__crt_locale_data *>::dangerous_get_state_array()
FUNC 3f05c 20 0 destroy_fls(void*)
FUNC 3f084 f5 0 destroy_ptd(__acrt_ptd* const)
FUNC 3f1b8 f5 0 destroy_ptd_array(__acrt_ptd* const)
FUNC 3f2ec 8 0 __crt_unique_heap_ptr<__acrt_ptd,__crt_internal_free_policy>::detach()
FUNC 3f2f8 4 0 __crt_unique_heap_ptr<__acrt_ptd,__crt_internal_free_policy>::get() const
FUNC 3f2fc 3 0 __crt_state_management::get_current_state_index(__crt_scoped_get_last_error_reset const&)
FUNC 3f300 9f 0 internal_get_ptd_head()
FUNC 3f3c8 c8 0 internal_getptd_noexit()
FUNC 3f4c4 8 0 __crt_unique_heap_ptr<__acrt_ptd,__crt_internal_free_policy>::is_valid() const
FUNC 3f4d0 1b 0 __crt_unique_heap_ptr<__acrt_ptd,__crt_internal_free_policy>::release()
FUNC 3f4f4 67 0 replace_current_thread_locale_nolock(__acrt_ptd* const, __crt_locale_data* const)
FUNC 3f574 20 0 try_get_ptd_head()
FUNC 3f59c 4 0 __crt_state_management::dual_state_global<__crt_locale_data *>::value()
FUNC 3f5a0 41 0 __acrt_freeptd()
FUNC 3f5f4 d4 0 __acrt_getptd()
FUNC 3f700 a7 0 __acrt_getptd_head()
FUNC 3f7d0 cc 0 __acrt_getptd_noexit()
FUNC 3f8d0 39 0 __acrt_initialize_ptd()
FUNC 3f918 22 0 __acrt_uninitialize_ptd(bool)
FUNC 3f944 7 0 __threadhandle()
FUNC 3f94c 7 0 __threadid()
FUNC 3f954 8 0 select_heap(void* const)
FUNC 3f960 3d 0 _free_base(void*)
FUNC 3f9ac 48 0 __acrt_initialize_locks()
FUNC 3fa08 19 0 __acrt_lock(__acrt_lock_id)
FUNC 3fa28 37 0 __acrt_uninitialize_locks(bool)
FUNC 3fa6c 19 0 __acrt_unlock(__acrt_lock_id)
FUNC 3fa8c 1b 0 _lock_locales()
FUNC 3fab0 e 0 _unlock_locales()
FUNC 3fac4 4c 0 get_cached_win_policy<`__acrt_get_begin_thread_init_policy'::`2'::begin_thread_init_policy_properties>(AppPolicyThreadInitializationType)
FUNC 3fb24 4c 0 get_cached_win_policy<`__acrt_get_developer_information_policy'::`2'::developer_information_policy_properties>(AppPolicyShowDeveloperDiagnostic)
FUNC 3fb84 69 0 get_cached_win_policy<`__acrt_get_windowing_model_policy'::`2'::windowing_model_policy_properties>(AppPolicyWindowingModel)
FUNC 3fc08 38 0 get_win_policy<`__acrt_get_process_end_policy'::`2'::process_end_policy_properties>(AppPolicyProcessTerminationMethod)
FUNC 3fc50 5 0 `__acrt_get_begin_thread_init_policy'::`2'::begin_thread_init_policy_properties::appmodel_get_policy(AppPolicyThreadInitializationType*)
FUNC 3fc58 5 0 `__acrt_get_developer_information_policy'::`2'::developer_information_policy_properties::appmodel_get_policy(AppPolicyShowDeveloperDiagnostic*)
FUNC 3fc60 5 0 `__acrt_get_process_end_policy'::`2'::process_end_policy_properties::appmodel_get_policy(AppPolicyProcessTerminationMethod*)
FUNC 3fc68 5 0 `__acrt_get_windowing_model_policy'::`2'::windowing_model_policy_properties::appmodel_get_policy(AppPolicyWindowingModel*)
FUNC 3fc70 b 0 `__acrt_get_begin_thread_init_policy'::`2'::begin_thread_init_policy_properties::appmodel_policy_to_policy_type(const long)
FUNC 3fc80 b 0 `__acrt_get_developer_information_policy'::`2'::developer_information_policy_properties::appmodel_policy_to_policy_type(const long)
FUNC 3fc90 9 0 `__acrt_get_process_end_policy'::`2'::process_end_policy_properties::appmodel_policy_to_policy_type(const AppPolicyProcessTerminationMethod)
FUNC 3fc9c 27 0 `__acrt_get_windowing_model_policy'::`2'::windowing_model_policy_properties::appmodel_policy_to_policy_type(const long)
FUNC 3fccc 51 0 __acrt_get_begin_thread_init_policy()
FUNC 3fd34 51 0 __acrt_get_developer_information_policy()
FUNC 3fd9c 3c 0 __acrt_get_process_end_policy()
FUNC 3fde8 6c 0 __acrt_get_windowing_model_policy()
FUNC 3fe70 45 0 __acrt_errno_from_os_error(unsigned long)
FUNC 3fec8 4e 0 __acrt_errno_map_os_error(unsigned long)
FUNC 3ff2c 20 0 __doserrno()
FUNC 3ff54 20 0 _errno()
FUNC 3ff7c 3b 0 _get_doserrno(unsigned long*)
FUNC 3ffc8 3b 0 _get_errno(int*)
FUNC 40014 3a 0 _set_doserrno(unsigned long)
FUNC 4005c 3a 0 _set_errno(int)
FUNC 400a4 75 0 _calloc_base(unsigned long long, unsigned long long)
FUNC 40138 12 0 <lambda_861af8918f661c876f88da8747958ced>::<lambda_invoker_cdecl>(void const*, void const*)
FUNC 40150 12 0 <lambda_a1ce4c8ae42411fd470c77163914f50e>::<lambda_invoker_cdecl>(void const*, void const*)
FUNC 40168 179 0 __acrt_convert_wcs_mbs_cp<char,wchar_t,<lambda_7c9dea7b4ca7285d2cdb541a38da6275>,__crt_win32_buffer_internal_dynamic_resizing>(char const* const, __crt_win32_buffer<wchar_t,__crt_win32_buffer_internal_dynamic_resizing>&, __acrt_mbs_to_wcs_cp::__l2::<lambda_7c9dea7b4ca7285d2cdb541a38da6275> const&, const unsigned int)
FUNC 40340 18b 0 __acrt_convert_wcs_mbs_cp<wchar_t,char,<lambda_d8593a27d1aa8c02be35c86a17d324c4>,__crt_win32_buffer_internal_dynamic_resizing>(wchar_t const* const, __crt_win32_buffer<char,__crt_win32_buffer_internal_dynamic_resizing>&, __acrt_wcs_to_mbs_cp::__l2::<lambda_d8593a27d1aa8c02be35c86a17d324c4> const&, const unsigned int)
FUNC 40530 176 0 __acrt_mbs_to_wcs_cp<__crt_win32_buffer_internal_dynamic_resizing>(char const* const, __crt_win32_buffer<wchar_t,__crt_win32_buffer_internal_dynamic_resizing>&, const unsigned int)
FUNC 40704 18a 0 __acrt_wcs_to_mbs_cp<__crt_win32_buffer_internal_dynamic_resizing>(wchar_t const* const, __crt_win32_buffer<char,__crt_win32_buffer_internal_dynamic_resizing>&, const unsigned int)
FUNC 408f0 209 0 common_expand_argv_wildcards<char>(char** const, char*** const)
FUNC 40b7c 3ca 0 common_expand_argv_wildcards<wchar_t>(wchar_t** const, wchar_t*** const)
FUNC 41038 187 0 copy_and_add_argument_to_buffer<char>(char const* const, char const* const, const unsigned long long, `anonymous-namespace'::argument_list<char>&)
FUNC 41220 189 0 copy_and_add_argument_to_buffer<wchar_t>(wchar_t const* const, wchar_t const* const, const unsigned long long, `anonymous-namespace'::argument_list<wchar_t>&)
FUNC 4140c 30e 0 expand_argument_wildcards<char>(char* const, char* const, `anonymous-namespace'::argument_list<char>&)
FUNC 417e0 19b 0 expand_argument_wildcards<wchar_t>(wchar_t* const, wchar_t* const, `anonymous-namespace'::argument_list<wchar_t>&)
FUNC 419e4 11 0 __crt_char_traits<char>::tcslen<char const * const &>(char const* const&)
FUNC 419fc 12 0 __crt_char_traits<wchar_t>::tcslen<wchar_t const * const &>(wchar_t const* const&)
FUNC 41a14 11 0 __crt_char_traits<char>::tcsncpy_s<char * &,unsigned __int64,char * &,unsigned __int64 const &>(char*&, unsigned long long&&, char*&, unsigned long long const&)
FUNC 41a2c 11 0 __crt_char_traits<wchar_t>::tcsncpy_s<wchar_t * &,unsigned __int64,wchar_t * &,unsigned __int64 const &>(wchar_t*&, unsigned long long&&, wchar_t*&, unsigned long long const&)
FUNC 41a44 11 0 __crt_char_traits<char>::tcsncpy_s<char *,unsigned __int64 const &,char const * const &,unsigned __int64 const &>(char*&&, unsigned long long const&, char const* const&, unsigned long long const&)
FUNC 41a5c 11 0 __crt_char_traits<char>::tcsncpy_s<char *,unsigned __int64,char const * const &,unsigned __int64 const &>(char*&&, unsigned long long&&, char const* const&, unsigned long long const&)
FUNC 41a74 11 0 __crt_char_traits<wchar_t>::tcsncpy_s<wchar_t *,unsigned __int64 const &,wchar_t const * const &,unsigned __int64 const &>(wchar_t*&&, unsigned long long const&, wchar_t const* const&, unsigned long long const&)
FUNC 41a8c 11 0 __crt_char_traits<wchar_t>::tcsncpy_s<wchar_t *,unsigned __int64,wchar_t const * const &,unsigned __int64 const &>(wchar_t*&&, unsigned long long&&, wchar_t const* const&, unsigned long long const&)
FUNC 41aa4 8 0 __crt_char_traits<char>::tcspbrk<char * &,char const (&)[3]>(char*&, const char[3]&)
FUNC 41ab0 8 0 __crt_char_traits<wchar_t>::tcspbrk<wchar_t * &,wchar_t const (&)[3]>(wchar_t*&, const wchar_t[3]&)
FUNC 41abc 7 0 __crt_unique_handle_t<__crt_findfile_traits>::__crt_unique_handle_t<__crt_findfile_traits>(void* const)
FUNC 41ac4 1c 0 __crt_win32_buffer<char,__crt_win32_buffer_internal_dynamic_resizing>::__crt_win32_buffer<char,__crt_win32_buffer_internal_dynamic_resizing>()
FUNC 41ae8 1c 0 __crt_win32_buffer<wchar_t,__crt_win32_buffer_internal_dynamic_resizing>::__crt_win32_buffer<wchar_t,__crt_win32_buffer_internal_dynamic_resizing>()
FUNC 41b0c 11 0 (anonymous namespace)::argument_list<char>::argument_list<char>()
FUNC 41b24 11 0 (anonymous namespace)::argument_list<wchar_t>::argument_list<wchar_t>()
FUNC 41b3c 22 0 __crt_unique_handle_t<__crt_findfile_traits>::~__crt_unique_handle_t<__crt_findfile_traits>()
FUNC 41b68 22 0 __crt_win32_buffer<char,__crt_win32_buffer_internal_dynamic_resizing>::~__crt_win32_buffer<char,__crt_win32_buffer_internal_dynamic_resizing>()
FUNC 41b94 22 0 __crt_win32_buffer<wchar_t,__crt_win32_buffer_internal_dynamic_resizing>::~__crt_win32_buffer<wchar_t,__crt_win32_buffer_internal_dynamic_resizing>()
FUNC 41bc0 3d 0 (anonymous namespace)::argument_list<char>::~argument_list<char>()
FUNC 41c0c 3d 0 (anonymous namespace)::argument_list<wchar_t>::~argument_list<wchar_t>()
FUNC 41c58 8 0 <lambda_861af8918f661c876f88da8747958ced>::operator int (__cdecl*)(void const *,void const *)() const
FUNC 41c64 8 0 <lambda_a1ce4c8ae42411fd470c77163914f50e>::operator int (__cdecl*)(void const *,void const *)() const
FUNC 41c70 25 0 <lambda_7c9dea7b4ca7285d2cdb541a38da6275>::operator()(const unsigned int, char const* const, wchar_t* const, const unsigned long long) const
FUNC 41ca0 12 0 <lambda_861af8918f661c876f88da8747958ced>::operator()(void const*, void const*) const
FUNC 41cb8 12 0 <lambda_a1ce4c8ae42411fd470c77163914f50e>::operator()(void const*, void const*) const
FUNC 41cd0 23 0 <lambda_cc44a96f04e0393500626269309609b4>::operator()(const wchar_t) const
FUNC 41cfc 22 0 <lambda_cfae5a0e6efa98e0d1aa03c4cec8f74e>::operator()(const char) const
FUNC 41d28 2f 0 <lambda_d8593a27d1aa8c02be35c86a17d324c4>::operator()(const unsigned int, wchar_t const* const, char* const, const unsigned long long) const
FUNC 41d64 49 0 __acrt_get_utf8_acp_compatibility_codepage()
FUNC 41dc0 22 0 __crt_win32_buffer<char,__crt_win32_buffer_internal_dynamic_resizing>::_deallocate()
FUNC 41dec 22 0 __crt_win32_buffer<wchar_t,__crt_win32_buffer_internal_dynamic_resizing>::_deallocate()
FUNC 41e18 5b 0 __crt_win32_buffer<char,__crt_win32_buffer_internal_dynamic_resizing>::allocate(unsigned long long)
FUNC 41e8c 5c 0 __crt_win32_buffer<wchar_t,__crt_win32_buffer_internal_dynamic_resizing>::allocate(unsigned long long)
FUNC 41f00 24 0 __crt_win32_buffer_internal_dynamic_resizing::allocate(void** const, const unsigned long long, __crt_win32_buffer_empty_debug_info const&)
FUNC 41f30 de 0 (anonymous namespace)::argument_list<char>::append(char* const)
FUNC 42048 de 0 (anonymous namespace)::argument_list<wchar_t>::append(wchar_t* const)
FUNC 42160 4 0 (anonymous namespace)::argument_list<char>::begin() const
FUNC 42164 4 0 (anonymous namespace)::argument_list<wchar_t>::begin() const
FUNC 42168 5 0 __crt_win32_buffer<char,__crt_win32_buffer_internal_dynamic_resizing>::capacity() const
FUNC 42170 5 0 __crt_win32_buffer<wchar_t,__crt_win32_buffer_internal_dynamic_resizing>::capacity() const
FUNC 42178 22 0 __crt_unique_handle_t<__crt_findfile_traits>::close()
FUNC 421a4 14 0 __crt_findfile_traits::close(void*)
FUNC 421c0 5 0 __crt_win32_buffer<char,__crt_win32_buffer_internal_dynamic_resizing>::data()
FUNC 421c8 5 0 __crt_win32_buffer<wchar_t,__crt_win32_buffer_internal_dynamic_resizing>::data()
FUNC 421d0 5 0 __crt_win32_buffer_internal_dynamic_resizing::deallocate(void* const, __crt_win32_buffer_empty_debug_info const&)
FUNC 421d8 4 0 __crt_win32_buffer<char,__crt_win32_buffer_internal_dynamic_resizing>::debug_info() const
FUNC 421dc 4 0 __crt_win32_buffer<wchar_t,__crt_win32_buffer_internal_dynamic_resizing>::debug_info() const
FUNC 421e0 5 0 (anonymous namespace)::argument_list<char>::end() const
FUNC 421e8 5 0 (anonymous namespace)::argument_list<wchar_t>::end() const
FUNC 421f0 c7 0 (anonymous namespace)::argument_list<char>::expand_if_necessary()
FUNC 422e8 c7 0 (anonymous namespace)::argument_list<wchar_t>::expand_if_necessary()
FUNC 423e0 4 0 __crt_unique_handle_t<__crt_findfile_traits>::get() const
FUNC 423e4 9d 0 get_file_name(__crt_win32_buffer<char,__crt_win32_buffer_internal_dynamic_resizing>* const, wchar_t* const)
FUNC 424a8 4 0 get_file_name(__crt_win32_buffer<wchar_t,__crt_win32_buffer_internal_dynamic_resizing>*, wchar_t* const)
FUNC 424ac 5 0 __crt_findfile_traits::get_invalid_value()
FUNC 424b4 4 0 get_wide(__crt_win32_buffer<wchar_t,__crt_win32_buffer_internal_dynamic_resizing>*, wchar_t* const)
FUNC 424b8 9d 0 get_wide(__crt_win32_buffer<wchar_t,__crt_win32_buffer_internal_dynamic_resizing>* const, char* const)
FUNC 4257c 5 0 previous_character(char* const, char* const)
FUNC 42584 5 0 previous_character(wchar_t*, wchar_t* const)
FUNC 4258c 31 0 __crt_win32_buffer<char,__crt_win32_buffer_internal_dynamic_resizing>::set_to_nullptr()
FUNC 425cc 31 0 __crt_win32_buffer<wchar_t,__crt_win32_buffer_internal_dynamic_resizing>::set_to_nullptr()
FUNC 4260c 5 0 __crt_win32_buffer<char,__crt_win32_buffer_internal_dynamic_resizing>::size(unsigned long long)
FUNC 42614 5 0 __crt_win32_buffer<wchar_t,__crt_win32_buffer_internal_dynamic_resizing>::size(unsigned long long)
FUNC 4261c c 0 (anonymous namespace)::argument_list<char>::size() const
FUNC 4262c c 0 (anonymous namespace)::argument_list<wchar_t>::size() const
FUNC 4263c 5 0 strpbrk(char* const, char const* const)
FUNC 42644 5 0 wcspbrk(wchar_t*, wchar_t const*)
FUNC 4264c 5 0 __acrt_expand_narrow_argv_wildcards(char**, char***)
FUNC 42654 5 0 __acrt_expand_wide_argv_wildcards(wchar_t**, wchar_t***)
FUNC 4265c 119 0 __acrt_convert_wcs_mbs_cp<wchar_t,char,<lambda_f788ae46380686e8b737efdd8c720d07>,__crt_win32_buffer_no_resizing>(wchar_t const* const, __crt_win32_buffer<char,__crt_win32_buffer_no_resizing>&, __acrt_wcs_to_mbs_cp::__l2::<lambda_f788ae46380686e8b737efdd8c720d07> const&, const unsigned int)
FUNC 427bc 111 0 __acrt_wcs_to_mbs_cp<__crt_win32_buffer_no_resizing>(wchar_t const* const, __crt_win32_buffer<char,__crt_win32_buffer_no_resizing>&, const unsigned int)
FUNC 42914 1c 0 __crt_win32_buffer<char,__crt_win32_buffer_no_resizing>::__crt_win32_buffer<char,__crt_win32_buffer_no_resizing>(char* const, const unsigned long long)
FUNC 42938 b 0 __crt_win32_buffer<char,__crt_win32_buffer_no_resizing>::~__crt_win32_buffer<char,__crt_win32_buffer_no_resizing>()
FUNC 42948 2f 0 <lambda_f788ae46380686e8b737efdd8c720d07>::operator()(const unsigned int, wchar_t const* const, char* const, const unsigned long long) const
FUNC 42984 b 0 __crt_win32_buffer<char,__crt_win32_buffer_no_resizing>::_deallocate()
FUNC 42994 30 0 __crt_win32_buffer<char,__crt_win32_buffer_no_resizing>::allocate(unsigned long long)
FUNC 429d0 17 0 __crt_win32_buffer_no_resizing::allocate(void** const, const unsigned long long, __crt_win32_buffer_empty_debug_info const&)
FUNC 429ec 5 0 __crt_win32_buffer<char,__crt_win32_buffer_no_resizing>::capacity() const
FUNC 429f4 5 0 __crt_win32_buffer<char,__crt_win32_buffer_no_resizing>::data()
FUNC 429fc 3 0 __crt_win32_buffer_no_resizing::deallocate(void* const, __crt_win32_buffer_empty_debug_info const&)
FUNC 42a00 4 0 __crt_win32_buffer<char,__crt_win32_buffer_no_resizing>::debug_info() const
FUNC 42a04 17 0 __crt_win32_buffer<char,__crt_win32_buffer_no_resizing>::set_to_nullptr()
FUNC 42a20 5 0 __crt_win32_buffer<char,__crt_win32_buffer_no_resizing>::size(unsigned long long)
FUNC 42a28 5 0 __crt_win32_buffer<char,__crt_win32_buffer_no_resizing>::size() const
FUNC 42a30 11e 0 __acrt_GetModuleFileNameA(HINSTANCE__*, char*, unsigned long)
FUNC 42b98 8 0 __crt_internal_free_policy::operator()<__crt_multibyte_data>(__crt_multibyte_data const* const) const
FUNC 42ba4 1ba 0 __crt_seh_guarded_call<void>::operator()<<lambda_efdfa57d1f175319df784efa44bb7b81>,<lambda_5f0a4c1567f8adc6734073e5d1e1b35c> &,<lambda_2e8a7d3640ea6ccb4c2413664c2db6fd> >(__acrt_lock_and_call::__l2::<lambda_efdfa57d1f175319df784efa44bb7b81>&&, setmbcp_internal::__l2::<lambda_5f0a4c1567f8adc6734073e5d1e1b35c>&, __acrt_lock_and_call::__l2::<lambda_2e8a7d3640ea6ccb4c2413664c2db6fd>&&)
FUNC 42dcc 26 0 __acrt_lock_and_call<<lambda_5f0a4c1567f8adc6734073e5d1e1b35c> >(const __acrt_lock_id, setmbcp_internal::__l2::<lambda_5f0a4c1567f8adc6734073e5d1e1b35c>&&)
FUNC 42dfc 4 0 __crt_state_management::dual_state_global<unsigned char *>::initialize_from_array<unsigned char [1][256]>(unsigned char[1][256]&)
FUNC 42e00 4 0 __crt_state_management::dual_state_global<unsigned char *>::initialize_from_array<unsigned char [1][257]>(unsigned char[1][257]&)
FUNC 42e04 8 0 <lambda_2e8a7d3640ea6ccb4c2413664c2db6fd>::<lambda_2e8a7d3640ea6ccb4c2413664c2db6fd>(__acrt_lock_id const&)
FUNC 42e10 b 0 <lambda_5f0a4c1567f8adc6734073e5d1e1b35c>::<lambda_5f0a4c1567f8adc6734073e5d1e1b35c>(__acrt_ptd* const&, __crt_multibyte_data** const&)
FUNC 42e20 8 0 <lambda_efdfa57d1f175319df784efa44bb7b81>::<lambda_efdfa57d1f175319df784efa44bb7b81>(__acrt_lock_id const&)
FUNC 42e2c 7 0 __crt_unique_heap_ptr<__crt_multibyte_data,__crt_internal_free_policy>::__crt_unique_heap_ptr<__crt_multibyte_data,__crt_internal_free_policy>(__crt_multibyte_data* const)
FUNC 42e34 1b 0 __crt_unique_heap_ptr<__crt_multibyte_data,__crt_internal_free_policy>::~__crt_unique_heap_ptr<__crt_multibyte_data,__crt_internal_free_policy>()
FUNC 42e58 8 0 __crt_unique_heap_ptr<__crt_multibyte_data,__crt_internal_free_policy>::operator bool() const
FUNC 42e64 7 0 <lambda_2e8a7d3640ea6ccb4c2413664c2db6fd>::operator()() const
FUNC 42e6c 1a0 0 <lambda_5f0a4c1567f8adc6734073e5d1e1b35c>::operator()() const
FUNC 43074 7 0 <lambda_efdfa57d1f175319df784efa44bb7b81>::operator()() const
FUNC 4307c 3a 0 CPtoLocaleName(int)
FUNC 430c4 4 0 __crt_state_management::dual_state_global<unsigned char *>::dangerous_get_state_array()
FUNC 430c8 4 0 __crt_state_management::dual_state_global<__crt_multibyte_data *>::dangerous_get_state_array()
FUNC 430cc 8 0 __crt_unique_heap_ptr<__crt_multibyte_data,__crt_internal_free_policy>::detach()
FUNC 430d8 4 0 __crt_unique_heap_ptr<__crt_multibyte_data,__crt_internal_free_policy>::get() const
FUNC 430dc 7d 0 getSystemCP(int)
FUNC 43178 27 0 __crt_state_management::dual_state_global<__crt_multibyte_data *>::initialize(__crt_multibyte_data* const)
FUNC 431a8 8 0 __crt_unique_heap_ptr<__crt_multibyte_data,__crt_internal_free_policy>::is_valid() const
FUNC 431b4 1b 0 __crt_unique_heap_ptr<__crt_multibyte_data,__crt_internal_free_policy>::release()
FUNC 431d8 90 0 setSBCS(__crt_multibyte_data*)
FUNC 4328c 1e3 0 setSBUpLow(__crt_multibyte_data*)
FUNC 434e8 1c2 0 setmbcp_internal(const int, const bool, __acrt_ptd* const, __crt_multibyte_data** const)
FUNC 4371c b8 0 update_thread_multibyte_data_internal(__acrt_ptd* const, __crt_multibyte_data** const)
FUNC 43804 4 0 __crt_state_management::dual_state_global<unsigned char *>::value()
FUNC 43808 4 0 __crt_state_management::dual_state_global<__crt_multibyte_data *>::value()
FUNC 4380c 60 0 __acrt_initialize_multibyte()
FUNC 43884 1c 0 __acrt_update_thread_multibyte_data()
FUNC 438a8 8 0 __p__mbcasemap()
FUNC 438b4 8 0 __p__mbctype()
FUNC 438c0 3a 0 _getmbcp()
FUNC 43908 25 0 _setmbcp(int)
FUNC 43938 2b9 0 _setmbcp_nolock(int, __crt_multibyte_data*)
FUNC 43ca0 87 0 memcpy_s(void* const, const unsigned long long, void const* const, const unsigned long long)
FUNC 43d48 75 0 x_ismbbtype_l(__crt_locale_pointers*, unsigned int, int, int)
FUNC 43ddc 15 0 _ismbbalnum(unsigned int)
FUNC 43df8 19 0 _ismbbalnum_l(unsigned int, __crt_locale_pointers*)
FUNC 43e18 15 0 _ismbbalpha(unsigned int)
FUNC 43e34 19 0 _ismbbalpha_l(unsigned int, __crt_locale_pointers*)
FUNC 43e54 1c 0 _ismbbblank(unsigned int)
FUNC 43e78 20 0 _ismbbblank_l(unsigned int, __crt_locale_pointers*)
FUNC 43ea0 15 0 _ismbbgraph(unsigned int)
FUNC 43ebc 19 0 _ismbbgraph_l(unsigned int, __crt_locale_pointers*)
FUNC 43edc 12 0 _ismbbkalnum(unsigned int)
FUNC 43ef4 16 0 _ismbbkalnum_l(unsigned int, __crt_locale_pointers*)
FUNC 43f10 7 0 _ismbbkana(unsigned int)
FUNC 43f18 65 0 _ismbbkana_l(unsigned int, __crt_locale_pointers*)
FUNC 43f98 12 0 _ismbbkprint(unsigned int)
FUNC 43fb0 16 0 _ismbbkprint_l(unsigned int, __crt_locale_pointers*)
FUNC 43fcc 12 0 _ismbbkpunct(unsigned int)
FUNC 43fe4 16 0 _ismbbkpunct_l(unsigned int, __crt_locale_pointers*)
FUNC 44000 12 0 _ismbblead(unsigned int)
FUNC 44018 16 0 _ismbblead_l(unsigned int, __crt_locale_pointers*)
FUNC 44034 15 0 _ismbbprint(unsigned int)
FUNC 44050 19 0 _ismbbprint_l(unsigned int, __crt_locale_pointers*)
FUNC 44070 13 0 _ismbbpunct(unsigned int)
FUNC 44088 17 0 _ismbbpunct_l(unsigned int, __crt_locale_pointers*)
FUNC 440a4 12 0 _ismbbtrail(unsigned int)
FUNC 440bc 16 0 _ismbbtrail_l(unsigned int, __crt_locale_pointers*)
FUNC 440d8 25 0 __acrt_initialize_command_line()
FUNC 44108 3 0 __acrt_uninitialize_command_line(bool)
FUNC 4410c 8 0 __p___argc()
FUNC 44118 8 0 __p___argv()
FUNC 44124 8 0 __p___wargv()
FUNC 44130 8 0 __p__acmdln()
FUNC 4413c 8 0 __p__pgmptr()
FUNC 44148 8 0 __p__wcmdln()
FUNC 44154 8 0 __p__wpgmptr()
FUNC 44160 36 0 _get_pgmptr(char**)
FUNC 441a4 36 0 _get_wpgmptr(wchar_t**)
FUNC 441e8 6c 0 common_tcscpy_s<wchar_t>(wchar_t* const, const unsigned long long, wchar_t const* const)
FUNC 44270 65 0 wcscpy_s(wchar_t*, unsigned long long, wchar_t const*)
FUNC 442f0 55 0 filter_mbtowcs_flags(const unsigned int, const unsigned long)
FUNC 4435c 5a 0 __acrt_MultiByteToWideChar(unsigned int, unsigned long, char const*, int, wchar_t*, int)
FUNC 443cc 44 0 filter_wcstomb_flags(const unsigned int, const unsigned long)
FUNC 44424 96 0 __acrt_WideCharToMultiByte(unsigned int, unsigned long, wchar_t const*, int, char*, int, char const*, int*)
FUNC 444e0 7 0 __crt_unique_handle_t<(anonymous namespace)::environment_strings_traits>::__crt_unique_handle_t<(anonymous namespace)::environment_strings_traits>(wchar_t* const)
FUNC 444e8 21 0 __crt_unique_handle_t<(anonymous namespace)::environment_strings_traits>::~__crt_unique_handle_t<(anonymous namespace)::environment_strings_traits>()
FUNC 44514 8 0 __crt_unique_handle_t<(anonymous namespace)::environment_strings_traits>::operator bool() const
FUNC 44520 21 0 __crt_unique_handle_t<(anonymous namespace)::environment_strings_traits>::close()
FUNC 4454c 11 0 (anonymous namespace)::environment_strings_traits::close(wchar_t*)
FUNC 44564 23 0 find_end_of_double_null_terminated_sequence(wchar_t const* const)
FUNC 44590 4 0 __crt_unique_handle_t<(anonymous namespace)::environment_strings_traits>::get() const
FUNC 44594 3 0 (anonymous namespace)::environment_strings_traits::get_invalid_value()
FUNC 44598 8 0 __crt_unique_handle_t<(anonymous namespace)::environment_strings_traits>::is_valid() const
FUNC 445a4 101 0 __dcrt_get_narrow_environment_from_os()
FUNC 446e8 9f 0 __dcrt_get_wide_environment_from_os()
FUNC 447b0 320 0 common_set_variable_in_environment_nolock<char>(char* const, const int)
FUNC 44b98 322 0 common_set_variable_in_environment_nolock<wchar_t>(wchar_t* const, const int)
FUNC 44f84 e5 0 copy_environment<char>(char** const)
FUNC 450a4 ef 0 copy_environment<wchar_t>(wchar_t** const)
FUNC 451d0 25 0 ensure_current_environment_is_not_initial_environment_nolock<char>()
FUNC 45200 25 0 ensure_current_environment_is_not_initial_environment_nolock<wchar_t>()
FUNC 45230 81 0 find_in_environment_nolock<char>(char const* const, const unsigned long long)
FUNC 452d4 91 0 find_in_environment_nolock<wchar_t>(wchar_t const* const, const unsigned long long)
FUNC 4538c 5 0 __crt_char_traits<char>::get_or_create_environment_nolock<>()
FUNC 45394 5 0 __crt_char_traits<wchar_t>::get_or_create_environment_nolock<>()
FUNC 4539c b 0 __crt_char_traits<char>::set_environment_variable<char * const &,char * const>(char* const&, char* const&&)
FUNC 453ac d 0 __crt_char_traits<wchar_t>::set_environment_variable<wchar_t * const &,wchar_t * const>(wchar_t* const&, wchar_t* const&&)
FUNC 453bc b 0 __crt_char_traits<char>::tcschr<char * const &,char>(char* const&, char&&)
FUNC 453cc b 0 __crt_char_traits<wchar_t>::tcschr<wchar_t * const &,char>(wchar_t* const&, char&&)
FUNC 453dc e 0 __crt_char_traits<char>::tcscpy_s<char * &,unsigned __int64 const &,char * &>(char*&, unsigned long long const&, char*&)
FUNC 453f0 e 0 __crt_char_traits<wchar_t>::tcscpy_s<wchar_t * &,unsigned __int64 const &,wchar_t * &>(wchar_t*&, unsigned long long const&, wchar_t*&)
FUNC 45404 e 0 __crt_char_traits<char>::tcscpy_s<char * const &,unsigned __int64 const &,char * const &>(char* const&, unsigned long long const&, char* const&)
FUNC 45418 e 0 __crt_char_traits<wchar_t>::tcscpy_s<wchar_t * const &,unsigned __int64 const &,wchar_t * const &>(wchar_t* const&, unsigned long long const&, wchar_t* const&)
FUNC 4542c 11 0 __crt_char_traits<char>::tcslen<char * const &>(char* const&)
FUNC 45444 12 0 __crt_char_traits<wchar_t>::tcslen<wchar_t * const &>(wchar_t* const&)
FUNC 4545c e 0 __crt_char_traits<char>::tcsnicoll<char const * const &,char * &,unsigned __int64 const &>(char const* const&, char*&, unsigned long long const&)
FUNC 45470 e 0 __crt_char_traits<wchar_t>::tcsnicoll<wchar_t const * const &,wchar_t * &,unsigned __int64 const &>(wchar_t const* const&, wchar_t*&, unsigned long long const&)
FUNC 45484 8 0 get_environment(char)
FUNC 45490 8 0 get_environment(wchar_t)
FUNC 4549c 8 0 get_initial_environment(char)
FUNC 454a8 8 0 get_initial_environment(wchar_t)
FUNC 454b4 8 0 get_other_environment(wchar_t)
FUNC 454c0 8 0 get_other_environment(char)
FUNC 454cc 5 0 strchr(char* const, const int)
FUNC 454d4 5 0 wcschr(wchar_t*, wchar_t)
FUNC 454dc 5 0 __dcrt_set_variable_in_narrow_environment_nolock(char*, int)
FUNC 454e4 5 0 __dcrt_set_variable_in_wide_environment_nolock(wchar_t*, int)
FUNC 454ec 5 0 _recalloc(void*, unsigned long long, unsigned long long)
FUNC 454f4 95 0 _recalloc_base(void*, unsigned long long, unsigned long long)
FUNC 455b0 28 0 <lambda_795c6bd18aed400428efeb9a5f0e1479>::<lambda_invoker_cdecl>(wchar_t*)
FUNC 455e4 8 0 __crt_fast_encoded_nullptr_t::operator<int __cdecl(wchar_t *,unsigned long,__int64)> int (__cdecl*)(wchar_t *,unsigned long,__int64)() const
FUNC 455f0 79 0 __crt_seh_guarded_call<int>::operator()<<lambda_48fc4a32460bb0512d3b13f8499328be>,<lambda_6c3dac0a4f3f9cefca9bb494422f9b77> &,<lambda_0a2f2c9f9a56eb2b08bfa6ff61d331c5> >(__acrt_lock_and_call::__l2::<lambda_48fc4a32460bb0512d3b13f8499328be>&&, __acrt_EnumSystemLocalesEx::__l2::<lambda_6c3dac0a4f3f9cefca9bb494422f9b77>&, __acrt_lock_and_call::__l2::<lambda_0a2f2c9f9a56eb2b08bfa6ff61d331c5>&&)
FUNC 45688 26 0 __acrt_lock_and_call<<lambda_6c3dac0a4f3f9cefca9bb494422f9b77> >(const __acrt_lock_id, __acrt_EnumSystemLocalesEx::__l2::<lambda_6c3dac0a4f3f9cefca9bb494422f9b77>&&)
FUNC 456b8 16 0 __crt_fast_decode_pointer<int (__cdecl*)(wchar_t *,unsigned long,__int64)>(int (* const)(wchar_t*, unsigned long, long long))
FUNC 456d4 1e 0 __crt_fast_encode_pointer<int (__cdecl*)(wchar_t *,unsigned long,__int64)>(int (* const)(wchar_t*, unsigned long, long long))
FUNC 456fc 8 0 <lambda_0a2f2c9f9a56eb2b08bfa6ff61d331c5>::<lambda_0a2f2c9f9a56eb2b08bfa6ff61d331c5>(__acrt_lock_id const&)
FUNC 45708 8 0 <lambda_48fc4a32460bb0512d3b13f8499328be>::<lambda_48fc4a32460bb0512d3b13f8499328be>(__acrt_lock_id const&)
FUNC 45714 7 0 <lambda_6c3dac0a4f3f9cefca9bb494422f9b77>::<lambda_6c3dac0a4f3f9cefca9bb494422f9b77>(int (* const&)(wchar_t*, unsigned long, long long))
FUNC 4571c 8 0 <lambda_795c6bd18aed400428efeb9a5f0e1479>::operator int (__cdecl*)(wchar_t *)() const
FUNC 45728 7 0 <lambda_0a2f2c9f9a56eb2b08bfa6ff61d331c5>::operator()() const
FUNC 45730 7 0 <lambda_48fc4a32460bb0512d3b13f8499328be>::operator()() const
FUNC 45738 53 0 <lambda_6c3dac0a4f3f9cefca9bb494422f9b77>::operator()() const
FUNC 457a0 28 0 <lambda_795c6bd18aed400428efeb9a5f0e1479>::operator()(wchar_t*) const
FUNC 457d4 4d 0 enum_system_locales_ex_nolock(int (* const)(wchar_t*, unsigned long, long long))
FUNC 45834 5 0 invalid_function_sentinel()
FUNC 4583c 1f 0 try_get_AppPolicyGetProcessTerminationMethod()
FUNC 45864 1f 0 try_get_AppPolicyGetShowDeveloperDiagnostic()
FUNC 4588c 1f 0 try_get_AppPolicyGetThreadInitializationType()
FUNC 458b4 1f 0 try_get_AppPolicyGetWindowingModel()
FUNC 458dc 1c 0 try_get_AreFileApisANSI()
FUNC 45900 1f 0 try_get_CompareStringEx()
FUNC 45928 1f 0 try_get_EnumSystemLocalesEx()
FUNC 45950 1f 0 try_get_FlsAlloc()
FUNC 45978 1f 0 try_get_FlsFree()
FUNC 459a0 1f 0 try_get_FlsGetValue()
FUNC 459c8 1f 0 try_get_FlsSetValue()
FUNC 459f0 1f 0 try_get_GetActiveWindow()
FUNC 45a18 1f 0 try_get_GetDateFormatEx()
FUNC 45a40 1f 0 try_get_GetEnabledXStateFeatures()
FUNC 45a68 1f 0 try_get_GetLastActivePopup()
FUNC 45a90 1f 0 try_get_GetLocaleInfoEx()
FUNC 45ab8 1f 0 try_get_GetProcessWindowStation()
FUNC 45ae0 1f 0 try_get_GetSystemTimePreciseAsFileTime()
FUNC 45b08 1f 0 try_get_GetTimeFormatEx()
FUNC 45b30 1f 0 try_get_GetUserDefaultLocaleName()
FUNC 45b58 1f 0 try_get_GetUserObjectInformationW()
FUNC 45b80 1f 0 try_get_GetXStateFeaturesMask()
FUNC 45ba8 1f 0 try_get_InitializeCriticalSectionEx()
FUNC 45bd0 1f 0 try_get_IsValidLocaleName()
FUNC 45bf8 1f 0 try_get_LCIDToLocaleName()
FUNC 45c20 1f 0 try_get_LCMapStringEx()
FUNC 45c48 1f 0 try_get_LocaleNameToLCID()
FUNC 45c70 1f 0 try_get_LocateXStateFeature()
FUNC 45c98 1f 0 try_get_MessageBoxA()
FUNC 45cc0 1f 0 try_get_MessageBoxW()
FUNC 45ce8 1f 0 try_get_RoInitialize()
FUNC 45d10 1f 0 try_get_RoUninitialize()
FUNC 45d38 1f 0 try_get_SetThreadStackGuarantee()
FUNC 45d60 1f 0 try_get_SystemFunction036()
FUNC 45d88 119 0 try_get_first_available_module(`anonymous-namespace'::module_id const* const, `anonymous-namespace'::module_id const* const)
FUNC 45ee8 1d6 0 try_get_function(const `anonymous-namespace'::function_id, char const* const, `anonymous-namespace'::module_id const* const, `anonymous-namespace'::module_id const* const)
FUNC 46134 fe 0 try_get_module(const `anonymous-namespace'::module_id)
FUNC 46274 137 0 try_get_proc_address_from_first_available_module(char const* const, `anonymous-namespace'::module_id const* const, `anonymous-namespace'::module_id const* const)
FUNC 463f8 73 0 try_load_library_from_system_directory(wchar_t const* const)
FUNC 46488 8 0 GetCurrentThreadEffectiveToken()
FUNC 46494 4e 0 __acrt_AppPolicyGetProcessTerminationMethodInternal(AppPolicyProcessTerminationMethod*)
FUNC 464f8 4e 0 __acrt_AppPolicyGetShowDeveloperDiagnosticInternal(AppPolicyShowDeveloperDiagnostic*)
FUNC 4655c 4e 0 __acrt_AppPolicyGetThreadInitializationTypeInternal(AppPolicyThreadInitializationType*)
FUNC 465c0 4e 0 __acrt_AppPolicyGetWindowingModelInternal(AppPolicyWindowingModel*)
FUNC 46624 3a 0 __acrt_AreFileApisANSI()
FUNC 4666c dc 0 __acrt_CompareStringEx(wchar_t const*, unsigned long, wchar_t const*, int, wchar_t const*, int, _nlsversioninfo*, void*, long long)
FUNC 46780 95 0 __acrt_EnumSystemLocalesEx(int (*)(wchar_t*, unsigned long, long long), unsigned long, long long, void*)
FUNC 4683c 48 0 __acrt_FlsAlloc(void (*)(void*))
FUNC 46898 46 0 __acrt_FlsFree(unsigned long)
FUNC 468f0 46 0 __acrt_FlsGetValue(unsigned long)
FUNC 46948 51 0 __acrt_FlsSetValue(unsigned long, void*)
FUNC 469b0 b6 0 __acrt_GetDateFormatEx(wchar_t const*, unsigned long, _SYSTEMTIME const*, wchar_t const*, wchar_t*, int, wchar_t const*)
FUNC 46a94 39 0 __acrt_GetEnabledXStateFeatures()
FUNC 46adc 82 0 __acrt_GetLocaleInfoEx(wchar_t const*, unsigned long, wchar_t*, int)
FUNC 46b80 48 0 __acrt_GetSystemTimePreciseAsFileTime(_FILETIME*)
FUNC 46bdc ab 0 __acrt_GetTimeFormatEx(wchar_t const*, unsigned long, _SYSTEMTIME const*, wchar_t const*, wchar_t*, int)
FUNC 46cb4 61 0 __acrt_GetUserDefaultLocaleName(wchar_t*, int)
FUNC 46d30 51 0 __acrt_GetXStateFeaturesMask(_CONTEXT*, unsigned long long*)
FUNC 46d98 61 0 __acrt_InitializeCriticalSectionEx(_RTL_CRITICAL_SECTION*, unsigned long, unsigned long)
FUNC 46e14 56 0 __acrt_IsValidLocaleName(wchar_t const*)
FUNC 46e80 70 0 __acrt_LCIDToLocaleName(unsigned long, wchar_t*, int, unsigned long)
FUNC 46f0c dc 0 __acrt_LCMapStringEx(wchar_t const*, unsigned long, wchar_t const*, int, wchar_t*, int, _nlsversioninfo*, void*, long long)
FUNC 47020 50 0 __acrt_LocaleNameToLCID(wchar_t const*, unsigned long)
FUNC 47084 5f 0 __acrt_LocateXStateFeature(_CONTEXT*, unsigned long, unsigned long*)
FUNC 470fc 71 0 __acrt_MessageBoxA(HWND__*, char const*, char const*, unsigned int)
FUNC 4718c 71 0 __acrt_MessageBoxW(HWND__*, wchar_t const*, wchar_t const*, unsigned int)
FUNC 4721c 40 0 __acrt_RoInitialize(RO_INIT_TYPE)
FUNC 4726c 33 0 __acrt_RoUninitialize()
FUNC 472ac 4f 0 __acrt_RtlGenRandom(void*, unsigned long)
FUNC 47310 42 0 __acrt_SetThreadStackGuarantee(unsigned long*)
FUNC 47364 6d 0 __acrt_can_show_message_box()
FUNC 473ec 2e 0 __acrt_can_use_vista_locale_apis()
FUNC 47428 2e 0 __acrt_can_use_xstate_apis()
FUNC 47464 15a 0 __acrt_eagerly_load_locale_apis()
FUNC 47614 78 0 __acrt_get_parent_window()
FUNC 476ac 31 0 __acrt_initialize_winapi_thunks()
FUNC 476ec c6 0 __acrt_is_interactive()
FUNC 477e4 41 0 __acrt_uninitialize_winapi_thunks(bool)
FUNC 47838 8 0 __acrt_getheap()
FUNC 47844 1c 0 __acrt_initialize_heap()
FUNC 47868 b 0 __acrt_uninitialize_heap(bool)
FUNC 47878 8 0 _get_heap_handle()
FUNC 47884 1b 0 get_std_handle_id(const int)
FUNC 478a8 ed 0 initialize_inherited_file_handles_nolock()
FUNC 479d0 10c 0 initialize_stdio_handles_nolock()
FUNC 47b20 3b 0 __acrt_initialize_lowio()
FUNC 47b6c 40 0 __acrt_uninitialize_lowio(bool)
FUNC 47bbc 80 0 __acrt_execute_initializers(__acrt_initializer const*, __acrt_initializer const*)
FUNC 47c5c 3c 0 __acrt_execute_uninitializers(__acrt_initializer const*, __acrt_initializer const*)
FUNC 47ca8 8 0 __crt_fast_encoded_nullptr_t::operator<int __cdecl(unsigned __int64)> int (__cdecl*)(unsigned __int64)() const
FUNC 47cb4 16 0 __crt_fast_decode_pointer<int (__cdecl*)(unsigned __int64)>(int (* const)(unsigned long long))
FUNC 47cd0 1e 0 __crt_fast_encode_pointer<int (__cdecl*)(unsigned __int64)>(int (* const)(unsigned long long))
FUNC 47cf8 c 0 _set_new_handler(const int)
FUNC 47d08 27 0 __crt_state_management::dual_state_global<int (__cdecl*)(unsigned __int64)>::initialize(int (* const)(unsigned long long))
FUNC 47d38 4 0 __crt_state_management::dual_state_global<int (__cdecl*)(unsigned __int64)>::value()
FUNC 47d3c 8 0 __acrt_initialize_new_handler(void*)
FUNC 47d48 2f 0 _callnewh(unsigned long long)
FUNC 47d84 34 0 _query_new_handler()
FUNC 47dc8 59 0 _set_new_handler(int (*)(unsigned long long))
FUNC 47e38 8 0 __crt_fast_encoded_nullptr_t::operator<void __cdecl(int)> void (__cdecl*)(int)() const
FUNC 47e44 45 0 __crt_seh_guarded_call<void (__cdecl*)(int)>::operator()<<lambda_450d765d439847d4c735a33c368b5fc0>,<lambda_44731a7d0e6d81c3e6aa82d741081786> &,<lambda_601a2a7da3b7a96e9554ac7215c4b07c> >(__acrt_lock_and_call::__l2::<lambda_450d765d439847d4c735a33c368b5fc0>&&, __acrt_get_sigabrt_handler::__l2::<lambda_44731a7d0e6d81c3e6aa82d741081786>&, __acrt_lock_and_call::__l2::<lambda_601a2a7da3b7a96e9554ac7215c4b07c>&&)
FUNC 47e9c 26 0 __acrt_lock_and_call<<lambda_44731a7d0e6d81c3e6aa82d741081786> >(const __acrt_lock_id, __acrt_get_sigabrt_handler::__l2::<lambda_44731a7d0e6d81c3e6aa82d741081786>&&)
FUNC 47ecc 16 0 __crt_fast_decode_pointer<void (__cdecl*)(int)>(void (* const)(int))
FUNC 47ee8 1e 0 __crt_fast_encode_pointer<void (__cdecl*)(int)>(void (* const)(int))
FUNC 47f10 8 0 <lambda_450d765d439847d4c735a33c368b5fc0>::<lambda_450d765d439847d4c735a33c368b5fc0>(__acrt_lock_id const&)
FUNC 47f1c 8 0 <lambda_601a2a7da3b7a96e9554ac7215c4b07c>::<lambda_601a2a7da3b7a96e9554ac7215c4b07c>(__acrt_lock_id const&)
FUNC 47f28 17 0 <lambda_44731a7d0e6d81c3e6aa82d741081786>::operator()() const
FUNC 47f44 7 0 <lambda_450d765d439847d4c735a33c368b5fc0>::operator()() const
FUNC 47f4c 7 0 <lambda_601a2a7da3b7a96e9554ac7215c4b07c>::operator()() const
FUNC 47f54 92 0 ctrlevent_capture(const unsigned long)
FUNC 4800c 3c 0 get_global_action_nolock(const int)
FUNC 48058 27 0 __crt_state_management::dual_state_global<void (__cdecl*)(int)>::initialize(void (* const)(int))
FUNC 48088 13 0 is_console_signal(const int)
FUNC 480a0 e 0 is_unsupported_signal(const int, void (* const)(int))
FUNC 480b4 25 0 siglookup(const int, __crt_signal_action_t* const)
FUNC 480e4 27 0 signal_failed(const int)
FUNC 48114 4 0 __crt_state_management::dual_state_global<void (__cdecl*)(int)>::value()
FUNC 48118 2e 0 __acrt_get_sigabrt_handler()
FUNC 48154 1d 0 __acrt_initialize_signal_handlers(void*)
FUNC 48178 12 0 __fpecode()
FUNC 48190 12 0 __pxcptinfoptrs()
FUNC 481a8 26c 0 raise(int)
FUNC 484b0 1da 0 signal(int, void (*)(int))
FUNC 48700 16 0 __crt_fast_decode_pointer<int (__cdecl*)(_exception *)>(int (* const)(_exception*))
FUNC 4871c 1e 0 __crt_fast_encode_pointer<int (__cdecl*)(_exception *)>(int (* const)(_exception*))
FUNC 48744 27 0 __crt_state_management::dual_state_global<int (__cdecl*)(_exception *)>::initialize(int (* const)(_exception*))
FUNC 48774 4 0 __crt_state_management::dual_state_global<int (__cdecl*)(_exception *)>::value()
FUNC 48778 1d 0 __acrt_has_user_matherr()
FUNC 4879c 8 0 __acrt_initialize_user_matherr(void*)
FUNC 487a8 2e 0 __acrt_invoke_user_matherr(_exception*)
FUNC 487e4 25 0 __setusermatherr(int (*)(_exception*))
FUNC 48814 9a 0 __crt_seh_guarded_call<void>::operator()<<lambda_842d9ff0dc9ef11c61343bbaebe7f885>,<lambda_c5860995281e5c4ce005b3de8f5874ee> &,<lambda_d90129c13df834fdcbf8d2b88dafcf2d> >(__acrt_lock_stream_and_call::__l2::<lambda_842d9ff0dc9ef11c61343bbaebe7f885>&&, common_flush_all::__l2::<lambda_ab61a845afdef5b7c387490eaf3616ee>::()::__l4::<lambda_c5860995281e5c4ce005b3de8f5874ee>&, __acrt_lock_stream_and_call::__l2::<lambda_d90129c13df834fdcbf8d2b88dafcf2d>&&)
FUNC 488d4 e0 0 __crt_seh_guarded_call<void>::operator()<<lambda_886d6c58226a84441f68b9f2b8217b83>,<lambda_ab61a845afdef5b7c387490eaf3616ee> &,<lambda_f7f22ab5edc0698d5f6905b0d3f44752> >(__acrt_lock_and_call::__l2::<lambda_886d6c58226a84441f68b9f2b8217b83>&&, common_flush_all::__l2::<lambda_ab61a845afdef5b7c387490eaf3616ee>&, __acrt_lock_and_call::__l2::<lambda_f7f22ab5edc0698d5f6905b0d3f44752>&&)
FUNC 489ec 40 0 __crt_seh_guarded_call<int>::operator()<<lambda_c376a267cfb53b6959b3b692ec76b120>,<lambda_9a32fed5bf61b6b509b2d3f6003082a1> &,<lambda_572fbb9fa0ab338edf41edfd4b5fcc8d> >(__acrt_lock_stream_and_call::__l2::<lambda_c376a267cfb53b6959b3b692ec76b120>&&, fflush::__l2::<lambda_9a32fed5bf61b6b509b2d3f6003082a1>&, __acrt_lock_stream_and_call::__l2::<lambda_572fbb9fa0ab338edf41edfd4b5fcc8d>&&)
FUNC 48a3c 26 0 __acrt_lock_and_call<<lambda_ab61a845afdef5b7c387490eaf3616ee> >(const __acrt_lock_id, common_flush_all::__l2::<lambda_ab61a845afdef5b7c387490eaf3616ee>&&)
FUNC 48a6c 28 0 __acrt_lock_stream_and_call<<lambda_9a32fed5bf61b6b509b2d3f6003082a1> >(_iobuf* const, fflush::__l2::<lambda_9a32fed5bf61b6b509b2d3f6003082a1>&&)
FUNC 48aa0 28 0 __acrt_lock_stream_and_call<<lambda_c5860995281e5c4ce005b3de8f5874ee> >(_iobuf* const, common_flush_all::__l2::<lambda_ab61a845afdef5b7c387490eaf3616ee>::()::__l4::<lambda_c5860995281e5c4ce005b3de8f5874ee>&&)
FUNC 48ad4 a 0 <lambda_572fbb9fa0ab338edf41edfd4b5fcc8d>::<lambda_572fbb9fa0ab338edf41edfd4b5fcc8d>(_iobuf* const&)
FUNC 48ae0 a 0 <lambda_842d9ff0dc9ef11c61343bbaebe7f885>::<lambda_842d9ff0dc9ef11c61343bbaebe7f885>(_iobuf* const&)
FUNC 48aec 8 0 <lambda_886d6c58226a84441f68b9f2b8217b83>::<lambda_886d6c58226a84441f68b9f2b8217b83>(__acrt_lock_id const&)
FUNC 48af8 7 0 <lambda_9a32fed5bf61b6b509b2d3f6003082a1>::<lambda_9a32fed5bf61b6b509b2d3f6003082a1>(__crt_stdio_stream const&)
FUNC 48b00 f 0 <lambda_ab61a845afdef5b7c387490eaf3616ee>::<lambda_ab61a845afdef5b7c387490eaf3616ee>(int&, bool const&, int&)
FUNC 48b14 a 0 <lambda_c376a267cfb53b6959b3b692ec76b120>::<lambda_c376a267cfb53b6959b3b692ec76b120>(_iobuf* const&)
FUNC 48b20 18 0 <lambda_c5860995281e5c4ce005b3de8f5874ee>::<lambda_c5860995281e5c4ce005b3de8f5874ee>(__crt_stdio_stream const&, int&, bool const&, int&)
FUNC 48b40 a 0 <lambda_d90129c13df834fdcbf8d2b88dafcf2d>::<lambda_d90129c13df834fdcbf8d2b88dafcf2d>(_iobuf* const&)
FUNC 48b4c 8 0 <lambda_f7f22ab5edc0698d5f6905b0d3f44752>::<lambda_f7f22ab5edc0698d5f6905b0d3f44752>(__acrt_lock_id const&)
FUNC 48b58 7 0 __crt_stdio_stream::__crt_stdio_stream(__crt_stdio_stream_data* const)
FUNC 48b60 8 0 <lambda_572fbb9fa0ab338edf41edfd4b5fcc8d>::operator()() const
FUNC 48b6c 8 0 <lambda_842d9ff0dc9ef11c61343bbaebe7f885>::operator()() const
FUNC 48b78 7 0 <lambda_886d6c58226a84441f68b9f2b8217b83>::operator()() const
FUNC 48b80 b 0 <lambda_9a32fed5bf61b6b509b2d3f6003082a1>::operator()() const
FUNC 48b90 ae 0 <lambda_ab61a845afdef5b7c387490eaf3616ee>::operator()() const
FUNC 48c6c 8 0 <lambda_c376a267cfb53b6959b3b692ec76b120>::operator()() const
FUNC 48c78 78 0 <lambda_c5860995281e5c4ce005b3de8f5874ee>::operator()() const
FUNC 48d10 8 0 <lambda_d90129c13df834fdcbf8d2b88dafcf2d>::operator()() const
FUNC 48d1c 7 0 <lambda_f7f22ab5edc0698d5f6905b0d3f44752>::operator()() const
FUNC 48d24 c 0 __acrt_stdio_reset_buffer(const __crt_stdio_stream)
FUNC 48d34 5d 0 common_flush_all(const bool)
FUNC 48da8 31 0 common_flush_all_should_try_to_flush_stream(const __crt_stdio_stream, int* const)
FUNC 48de8 e 0 __crt_stdio_stream::has_all_of(const long) const
FUNC 48dfc 9 0 is_stream_allocated(const long)
FUNC 48e08 13 0 is_stream_flushable(const long)
FUNC 48e20 19 0 is_stream_flushable_or_commitable(const long)
FUNC 48e40 1e 0 __crt_stdio_stream::set_flags(const long) const
FUNC 48e68 25 0 __crt_stdio_stream::unset_flags(const long) const
FUNC 48e98 7a 0 __acrt_stdio_flush_nolock(_iobuf*)
FUNC 48f30 4b 0 _fflush_nolock(_iobuf*)
FUNC 48f90 7 0 _flushall()
FUNC 48f98 66 0 fflush(_iobuf*)
FUNC 49018 30 0 __p___mb_cur_max()
FUNC 49054 8 0 __crt_internal_free_policy::operator()<__crt_stdio_stream_data *>(__crt_stdio_stream_data* const* const) const
FUNC 49060 7 0 __crt_unique_heap_ptr<__crt_stdio_stream_data *,__crt_internal_free_policy>::__crt_unique_heap_ptr<__crt_stdio_stream_data *,__crt_internal_free_policy>(__crt_stdio_stream_data** const)
FUNC 49068 1b 0 __crt_unique_heap_ptr<__crt_stdio_stream_data *,__crt_internal_free_policy>::~__crt_unique_heap_ptr<__crt_stdio_stream_data *,__crt_internal_free_policy>()
FUNC 4908c 8 0 __crt_unique_heap_ptr<__crt_stdio_stream_data *,__crt_internal_free_policy>::detach()
FUNC 49098 1b 0 __crt_unique_heap_ptr<__crt_stdio_stream_data *,__crt_internal_free_policy>::release()
FUNC 490bc 11f 0 __acrt_initialize_stdio()
FUNC 49224 11 0 __acrt_iob_func(unsigned int)
FUNC 4923c 5b 0 __acrt_uninitialize_stdio()
FUNC 492b0 47 0 _get_stream_buffer_pointers(_iobuf*, char***, char***, int**)
FUNC 49308 b 0 _lock_file(_iobuf*)
FUNC 49318 b 0 _unlock_file(_iobuf*)
FUNC 49328 10 0 __crt_stdio_stream::has_any_buffer() const
FUNC 4933c c 0 __crt_stdio_stream::has_any_of(const long) const
FUNC 4934c c 0 __crt_stdio_stream::has_temporary_buffer() const
FUNC 4935c cf 0 __acrt_stdio_begin_temporary_buffering_nolock(_iobuf*)
FUNC 49460 39 0 __acrt_stdio_end_temporary_buffering_nolock(bool, _iobuf*)
FUNC 494a8 5e 0 _malloc_base(unsigned long long)
FUNC 49520 13 0 __crt_strtox::make_c_string_character_source<char,char * *>(char const* const, char** const)
FUNC 49538 13 0 __crt_strtox::make_c_string_character_source<wchar_t,wchar_t * *>(wchar_t const* const, wchar_t** const)
FUNC 49550 2e 0 __crt_strtox::parse_integer_from_string<long,char,char * *>(char const* const, char** const, const int, __crt_locale_pointers* const)
FUNC 4958c 2e 0 __crt_strtox::parse_integer_from_string<long,wchar_t,wchar_t * *>(wchar_t const* const, wchar_t** const, const int, __crt_locale_pointers* const)
FUNC 495c8 2e 0 __crt_strtox::parse_integer_from_string<unsigned long,char,char * *>(char const* const, char** const, const int, __crt_locale_pointers* const)
FUNC 49604 2e 0 __crt_strtox::parse_integer_from_string<unsigned long,wchar_t,wchar_t * *>(wchar_t const* const, wchar_t** const, const int, __crt_locale_pointers* const)
FUNC 49640 2e 0 __crt_strtox::parse_integer_from_string<__int64,char,char * *>(char const* const, char** const, const int, __crt_locale_pointers* const)
FUNC 4967c 2e 0 __crt_strtox::parse_integer_from_string<__int64,wchar_t,wchar_t * *>(wchar_t const* const, wchar_t** const, const int, __crt_locale_pointers* const)
FUNC 496b8 2e 0 __crt_strtox::parse_integer_from_string<unsigned __int64,char,char * *>(char const* const, char** const, const int, __crt_locale_pointers* const)
FUNC 496f4 2e 0 __crt_strtox::parse_integer_from_string<unsigned __int64,wchar_t,wchar_t * *>(wchar_t const* const, wchar_t** const, const int, __crt_locale_pointers* const)
FUNC 49730 2a 0 _strtoi64(char const*, char**, int)
FUNC 49764 2e 0 _strtoi64_l(char const*, char**, int, __crt_locale_pointers*)
FUNC 497a0 2e 0 _strtoimax_l(char const*, char**, int, __crt_locale_pointers*)
FUNC 497dc 2e 0 _strtol_l(char const*, char**, int, __crt_locale_pointers*)
FUNC 49818 2e 0 _strtoll_l(char const*, char**, int, __crt_locale_pointers*)
FUNC 49854 2a 0 _strtoui64(char const*, char**, int)
FUNC 49888 2e 0 _strtoui64_l(char const*, char**, int, __crt_locale_pointers*)
FUNC 498c4 2e 0 _strtoul_l(char const*, char**, int, __crt_locale_pointers*)
FUNC 49900 2e 0 _strtoull_l(char const*, char**, int, __crt_locale_pointers*)
FUNC 4993c 2e 0 _strtoumax_l(char const*, char**, int, __crt_locale_pointers*)
FUNC 49978 2a 0 _wcstoi64(wchar_t const*, wchar_t**, int)
FUNC 499ac 2e 0 _wcstoi64_l(wchar_t const*, wchar_t**, int, __crt_locale_pointers*)
FUNC 499e8 2e 0 _wcstoimax_l(wchar_t const*, wchar_t**, int, __crt_locale_pointers*)
FUNC 49a24 2e 0 _wcstol_l(wchar_t const*, wchar_t**, int, __crt_locale_pointers*)
FUNC 49a60 2e 0 _wcstoll_l(wchar_t const*, wchar_t**, int, __crt_locale_pointers*)
FUNC 49a9c 2a 0 _wcstoui64(wchar_t const*, wchar_t**, int)
FUNC 49ad0 2e 0 _wcstoui64_l(wchar_t const*, wchar_t**, int, __crt_locale_pointers*)
FUNC 49b0c 2e 0 _wcstoul_l(wchar_t const*, wchar_t**, int, __crt_locale_pointers*)
FUNC 49b48 2e 0 _wcstoull_l(wchar_t const*, wchar_t**, int, __crt_locale_pointers*)
FUNC 49b84 2e 0 _wcstoumax_l(wchar_t const*, wchar_t**, int, __crt_locale_pointers*)
FUNC 49bc0 2a 0 strtoimax(char const*, char**, int)
FUNC 49bf4 2a 0 strtol(char const*, char**, int)
FUNC 49c28 2a 0 strtoll(char const*, char**, int)
FUNC 49c5c 2a 0 strtoul(char const*, char**, int)
FUNC 49c90 2a 0 strtoull(char const*, char**, int)
FUNC 49cc4 2a 0 strtoumax(char const*, char**, int)
FUNC 49cf8 2a 0 wcstoimax(wchar_t const*, wchar_t**, int)
FUNC 49d2c 2a 0 wcstol(wchar_t const*, wchar_t**, int)
FUNC 49d60 2a 0 wcstoll(wchar_t const*, wchar_t**, int)
FUNC 49d94 2a 0 wcstoul(wchar_t const*, wchar_t**, int)
FUNC 49dc8 2a 0 wcstoull(wchar_t const*, wchar_t**, int)
FUNC 49dfc 2a 0 wcstoumax(wchar_t const*, wchar_t**, int)
FUNC 49e30 17e 0 _mbtowc_l(wchar_t*, char const*, unsigned long long, __crt_locale_pointers*)
FUNC 4a010 8 0 mbtowc(wchar_t*, char const*, unsigned long long)
FUNC 4a01c 72 0 _wctomb_l(char*, wchar_t, __crt_locale_pointers*)
FUNC 4a0ac 19c 0 _wctomb_s_l(int*, char*, unsigned long long, wchar_t, __crt_locale_pointers*)
FUNC 4a2b0 4d 0 wctomb(char*, wchar_t)
FUNC 4a310 14 0 wctomb_s(int*, char*, unsigned long long, wchar_t)
FUNC 4a32c 155 0 common_strnlen<1,unsigned short>(unsigned short const* const, const unsigned long long)
FUNC 4a4d8 150 0 common_strnlen<0,unsigned char>(unsigned char const* const, const unsigned long long)
FUNC 4a67c 1c3 0 common_strnlen<0,unsigned short>(unsigned short const* const, const unsigned long long)
FUNC 4a8b0 16 0 common_strnlen_c<1,unsigned short>(unsigned short const* const, const unsigned long long)
FUNC 4a8cc 1d 0 common_strnlen_c<0,unsigned char>(unsigned char const* const, const unsigned long long)
FUNC 4a8f0 22 0 common_strnlen_c<0,unsigned short>(unsigned short const* const, const unsigned long long)
FUNC 4a91c 96 0 common_strnlen_simd<1,1,unsigned short>(unsigned short const* const, const unsigned long long)
FUNC 4a9d8 96 0 common_strnlen_simd<1,0,unsigned short>(unsigned short const* const, const unsigned long long)
FUNC 4aa94 88 0 common_strnlen_simd<0,1,unsigned char>(unsigned char const* const, const unsigned long long)
FUNC 4ab40 d0 0 common_strnlen_simd<0,1,unsigned short>(unsigned short const* const, const unsigned long long)
FUNC 4ac44 85 0 common_strnlen_simd<0,0,unsigned char>(unsigned char const* const, const unsigned long long)
FUNC 4acec cd 0 common_strnlen_simd<0,0,unsigned short>(unsigned short const* const, const unsigned long long)
FUNC 4adec 3 0 last_reached<1>(void const* const, void const* const)
FUNC 4adf0 7 0 last_reached<0>(void const* const, void const* const)
FUNC 4adf8 4 0 __crt_simd_cleanup_guard<1>::~__crt_simd_cleanup_guard<1>()
FUNC 4adfc 3 0 __crt_simd_cleanup_guard<0>::~__crt_simd_cleanup_guard<0>()
FUNC 4ae00 9 0 __crt_simd_traits<1,unsigned char>::compare_equals(const __m256i, const __m256i)
FUNC 4ae0c 9 0 __crt_simd_traits<1,unsigned short>::compare_equals(const __m256i, const __m256i)
FUNC 4ae18 9 0 __crt_simd_traits<0,unsigned char>::compare_equals(const __m128i, const __m128i)
FUNC 4ae24 9 0 __crt_simd_traits<0,unsigned short>::compare_equals(const __m128i, const __m128i)
FUNC 4ae30 c 0 __crt_simd_pack_traits<1>::compute_byte_mask(const __m256i)
FUNC 4ae40 9 0 __crt_simd_pack_traits<0>::compute_byte_mask(const __m128i)
FUNC 4ae4c 5 0 __crt_simd_pack_traits<1>::get_zero_pack()
FUNC 4ae54 4 0 __crt_simd_pack_traits<0>::get_zero_pack()
FUNC 4ae58 150 0 strnlen(char const*, unsigned long long)
FUNC 4affc 129 0 wcslen(wchar_t const*)
FUNC 4b170 1d6 0 wcsnlen(wchar_t const*, unsigned long long)
FUNC 4b3bc 31 0 __acrt_update_locale_info(__acrt_ptd* const, __crt_locale_data** const)
FUNC 4b3fc 31 0 __acrt_update_multibyte_info(__acrt_ptd* const, __crt_multibyte_data** const)
FUNC 4b43c 5b 0 __acrt_fp_classify(double const&)
FUNC 4b4b0 8 0 __acrt_fp_is_negative(double const&)
FUNC 4b4bc 36d 0 fp_format_a(double const* const, char*, const unsigned long long, char* const, const unsigned long long, int, const bool, const unsigned int, __crt_locale_pointers* const)
FUNC 4b904 db 0 fp_format_e(double const* const, char* const, const unsigned long long, char* const, const unsigned long long, const int, const bool, const unsigned int, __crt_locale_pointers* const)
FUNC 4ba18 1d2 0 fp_format_e_internal(char* const, const unsigned long long, const int, const bool, const unsigned int, _strflt* const, const bool, __crt_locale_pointers* const)
FUNC 4bc60 a6 0 fp_format_f(double const* const, char* const, const unsigned long long, char* const, const unsigned long long, const int, __crt_locale_pointers* const)
FUNC 4bd30 143 0 fp_format_f_internal(char* const, const unsigned long long, const int, _strflt* const, const bool, __crt_locale_pointers* const)
FUNC 4bec4 132 0 fp_format_g(double const* const, char* const, const unsigned long long, char* const, const unsigned long long, const int, const bool, const unsigned int, __crt_locale_pointers* const)
FUNC 4c044 a5 0 fp_format_nan_or_infinity(const __acrt_fp_class, const bool, char*, unsigned long long, const bool)
FUNC 4c114 30 0 shift_bytes(char* const, const unsigned long long, char* const, const int)
FUNC 4c150 5 0 strrchr(char* const, const int)
FUNC 4c158 304 0 __acrt_fp_format(double const*, char*, unsigned long long, char*, unsigned long long, int, int, unsigned long long, __crt_locale_pointers*)
FUNC 4c520 1c 0 fputwc_binary_nolock(const wchar_t, const __crt_stdio_stream)
FUNC 4c544 17c 0 _fputwc_nolock(wchar_t, _iobuf*)
FUNC 4c720 23 0 _fputwchar(wchar_t)
FUNC 4c74c 5 0 _putwc_nolock(wchar_t, _iobuf*)
FUNC 4c754 5e 0 fputwc(wchar_t, _iobuf*)
FUNC 4c7cc 5 0 putwc(wchar_t, _iobuf*)
FUNC 4c7d4 5 0 putwchar(wchar_t)
FUNC 4c7dc 7 0 __crt_stdio_stream::lowio_handle() const
FUNC 4c7e4 26 0 _fileno(_iobuf*)
FUNC 4c814 16 0 _fputc_nolock(int, _iobuf*)
FUNC 4c830 21 0 _fputchar(int)
FUNC 4c85c 16 0 _putc_nolock(int, _iobuf*)
FUNC 4c878 124 0 fputc(int, _iobuf*)
FUNC 4c9e8 5 0 putc(int, _iobuf*)
FUNC 4c9f0 5 0 putchar(int)
FUNC 4c9f8 18 0 _get_printf_count_output()
FUNC 4ca18 27 0 _set_printf_count_output(int)
FUNC 4ca48 3 0 no_op_initialize(__crt_locale_data*)
FUNC 4ca4c 8 0 __crt_internal_free_policy::operator()<__crt_locale_data>(__crt_locale_data const* const) const
FUNC 4ca58 8 0 __crt_internal_free_policy::operator()<__crt_locale_pointers>(__crt_locale_pointers const* const) const
FUNC 4ca64 3e 0 __crt_seh_guarded_call<void>::operator()<<lambda_0a55505eb881d180377eb1fc64ffb544>,<lambda_862e9a3f04921db6ca1ce3faa2bf3edf> &,<lambda_c91f0b5e4ab41df1063aa1a95f49bd71> >(__acrt_lock_and_call::__l2::<lambda_0a55505eb881d180377eb1fc64ffb544>&&, _get_current_locale::__l2::<lambda_862e9a3f04921db6ca1ce3faa2bf3edf>&, __acrt_lock_and_call::__l2::<lambda_c91f0b5e4ab41df1063aa1a95f49bd71>&&)
FUNC 4cab4 13a 0 __crt_seh_guarded_call<void>::operator()<<lambda_1d892b297fdedeee07ed8124eeb2f2fa>,<lambda_ffc046909424fd52df0ac47e64813305> &,<lambda_01a7098693036236037e7cdb9bca3d73> >(__acrt_lock_and_call::__l2::<lambda_1d892b297fdedeee07ed8124eeb2f2fa>&&, _wsetlocale::__l2::<lambda_2a444430fde8c29194d880d93eed5e8f>::()::__l5::<lambda_ffc046909424fd52df0ac47e64813305>&, __acrt_lock_and_call::__l2::<lambda_01a7098693036236037e7cdb9bca3d73>&&)
FUNC 4cc3c 6e 0 __crt_seh_guarded_call<void>::operator()<<lambda_410d79af7f07d98d83a3f525b3859a53>,<lambda_3e16ef9562a7dcce91392c22ab16ea36> &,<lambda_38119f0e861e05405d8a144b9b982f0a> >(__acrt_lock_and_call::__l2::<lambda_410d79af7f07d98d83a3f525b3859a53>&&, __acrt_uninitialize_locale::__l2::<lambda_3e16ef9562a7dcce91392c22ab16ea36>&, __acrt_lock_and_call::__l2::<lambda_38119f0e861e05405d8a144b9b982f0a>&&)
FUNC 4ccc8 29 0 __crt_seh_guarded_call<void>::operator()<<lambda_7f2adfce497ff2baa965cd4f576ecfd1>,<lambda_2a444430fde8c29194d880d93eed5e8f> &,<lambda_8dff2cf36a5417162780cd64fa2883ef> &>(__crt_call_and_cleanup::__l2::<lambda_7f2adfce497ff2baa965cd4f576ecfd1>&&, _wsetlocale::__l2::<lambda_2a444430fde8c29194d880d93eed5e8f>&, _wsetlocale::__l2::<lambda_8dff2cf36a5417162780cd64fa2883ef>&)
FUNC 4ccfc 41 0 __crt_seh_guarded_call<void>::operator()<<lambda_a48fd90c2dacdd6561e44078457d03a7>,<lambda_ebab98244f73a74f49db879bf13fa982> &,<lambda_8b3bdacfa7480f205f16cb49964db269> >(__acrt_lock_and_call::__l2::<lambda_a48fd90c2dacdd6561e44078457d03a7>&&, _get_current_locale::__l2::<lambda_ebab98244f73a74f49db879bf13fa982>&, __acrt_lock_and_call::__l2::<lambda_8b3bdacfa7480f205f16cb49964db269>&&)
FUNC 4cd50 26 0 __acrt_lock_and_call<<lambda_3e16ef9562a7dcce91392c22ab16ea36> >(const __acrt_lock_id, __acrt_uninitialize_locale::__l2::<lambda_3e16ef9562a7dcce91392c22ab16ea36>&&)
FUNC 4cd80 26 0 __acrt_lock_and_call<<lambda_862e9a3f04921db6ca1ce3faa2bf3edf> >(const __acrt_lock_id, _get_current_locale::__l2::<lambda_862e9a3f04921db6ca1ce3faa2bf3edf>&&)
FUNC 4cdb0 26 0 __acrt_lock_and_call<<lambda_ebab98244f73a74f49db879bf13fa982> >(const __acrt_lock_id, _get_current_locale::__l2::<lambda_ebab98244f73a74f49db879bf13fa982>&&)
FUNC 4cde0 26 0 __acrt_lock_and_call<<lambda_ffc046909424fd52df0ac47e64813305> >(const __acrt_lock_id, _wsetlocale::__l2::<lambda_2a444430fde8c29194d880d93eed5e8f>::()::__l5::<lambda_ffc046909424fd52df0ac47e64813305>&&)
FUNC 4ce10 15 0 __crt_call_and_cleanup<<lambda_2a444430fde8c29194d880d93eed5e8f>,<lambda_8dff2cf36a5417162780cd64fa2883ef> >(_wsetlocale::__l2::<lambda_2a444430fde8c29194d880d93eed5e8f>&&, _wsetlocale::__l2::<lambda_8dff2cf36a5417162780cd64fa2883ef>&&)
FUNC 4ce2c 4e 0 __crt_state_management::dual_state_global<__crt_locale_data *>::uninitialize<<lambda_363eea9039da1e8169e2d060c7fe5cbc> >(__acrt_uninitialize_locale::__l2::<lambda_3e16ef9562a7dcce91392c22ab16ea36>::()::__l2::<lambda_363eea9039da1e8169e2d060c7fe5cbc>&&)
FUNC 4ce90 8 0 <lambda_01a7098693036236037e7cdb9bca3d73>::<lambda_01a7098693036236037e7cdb9bca3d73>(__acrt_lock_id const&)
FUNC 4ce9c 8 0 <lambda_0a55505eb881d180377eb1fc64ffb544>::<lambda_0a55505eb881d180377eb1fc64ffb544>(__acrt_lock_id const&)
FUNC 4cea8 8 0 <lambda_1d892b297fdedeee07ed8124eeb2f2fa>::<lambda_1d892b297fdedeee07ed8124eeb2f2fa>(__acrt_lock_id const&)
FUNC 4ceb4 21 0 <lambda_2a444430fde8c29194d880d93eed5e8f>::<lambda_2a444430fde8c29194d880d93eed5e8f>(__crt_locale_data*&, __acrt_ptd* const&, wchar_t*&, int&, wchar_t const*&)
FUNC 4cee0 8 0 <lambda_38119f0e861e05405d8a144b9b982f0a>::<lambda_38119f0e861e05405d8a144b9b982f0a>(__acrt_lock_id const&)
FUNC 4ceec 8 0 <lambda_410d79af7f07d98d83a3f525b3859a53>::<lambda_410d79af7f07d98d83a3f525b3859a53>(__acrt_lock_id const&)
FUNC 4cef8 7 0 <lambda_862e9a3f04921db6ca1ce3faa2bf3edf>::<lambda_862e9a3f04921db6ca1ce3faa2bf3edf>(__crt_unique_heap_ptr<__crt_locale_pointers,__crt_internal_free_policy>&)
FUNC 4cf00 8 0 <lambda_8b3bdacfa7480f205f16cb49964db269>::<lambda_8b3bdacfa7480f205f16cb49964db269>(__acrt_lock_id const&)
FUNC 4cf0c 7 0 <lambda_8dff2cf36a5417162780cd64fa2883ef>::<lambda_8dff2cf36a5417162780cd64fa2883ef>(__acrt_ptd* const&)
FUNC 4cf14 8 0 <lambda_a48fd90c2dacdd6561e44078457d03a7>::<lambda_a48fd90c2dacdd6561e44078457d03a7>(__acrt_lock_id const&)
FUNC 4cf20 8 0 <lambda_c91f0b5e4ab41df1063aa1a95f49bd71>::<lambda_c91f0b5e4ab41df1063aa1a95f49bd71>(__acrt_lock_id const&)
FUNC 4cf2c 7 0 <lambda_ebab98244f73a74f49db879bf13fa982>::<lambda_ebab98244f73a74f49db879bf13fa982>(__crt_unique_heap_ptr<__crt_locale_pointers,__crt_internal_free_policy>&)
FUNC 4cf34 21 0 <lambda_ffc046909424fd52df0ac47e64813305>::<lambda_ffc046909424fd52df0ac47e64813305>(__crt_locale_data*&, __acrt_ptd* const&, wchar_t*&, int&, wchar_t const*&)
FUNC 4cf60 7 0 __crt_unique_heap_ptr<__crt_locale_data,__crt_internal_free_policy>::__crt_unique_heap_ptr<__crt_locale_data,__crt_internal_free_policy>(__crt_locale_data* const)
FUNC 4cf68 7 0 __crt_unique_heap_ptr<__crt_locale_pointers,__crt_internal_free_policy>::__crt_unique_heap_ptr<__crt_locale_pointers,__crt_internal_free_policy>(__crt_locale_pointers* const)
FUNC 4cf70 59 0 _expandlocale_locale_name_cache::_expandlocale_locale_name_cache(wchar_t* const, const unsigned long long, __crt_qualified_locale_data* const)
FUNC 4cfe0 1b 0 __crt_unique_heap_ptr<__crt_locale_data,__crt_internal_free_policy>::~__crt_unique_heap_ptr<__crt_locale_data,__crt_internal_free_policy>()
FUNC 4d004 1b 0 __crt_unique_heap_ptr<__crt_locale_pointers,__crt_internal_free_policy>::~__crt_unique_heap_ptr<__crt_locale_pointers,__crt_internal_free_policy>()
FUNC 4d028 48 0 _expandlocale_locale_name_cache::~_expandlocale_locale_name_cache()
FUNC 4d084 8 0 __crt_unique_heap_ptr<__crt_locale_data,__crt_internal_free_policy>::operator bool() const
FUNC 4d090 8 0 __crt_unique_heap_ptr<__crt_locale_pointers,__crt_internal_free_policy>::operator bool() const
FUNC 4d09c 7 0 <lambda_01a7098693036236037e7cdb9bca3d73>::operator()() const
FUNC 4d0a4 7 0 <lambda_0a55505eb881d180377eb1fc64ffb544>::operator()() const
FUNC 4d0ac 7 0 <lambda_1d892b297fdedeee07ed8124eeb2f2fa>::operator()() const
FUNC 4d0b4 8e 0 <lambda_2a444430fde8c29194d880d93eed5e8f>::operator()() const
FUNC 4d168 26 0 <lambda_363eea9039da1e8169e2d060c7fe5cbc>::operator()(__crt_locale_data*&) const
FUNC 4d198 7 0 <lambda_38119f0e861e05405d8a144b9b982f0a>::operator()() const
FUNC 4d1a0 2c 0 <lambda_3e16ef9562a7dcce91392c22ab16ea36>::operator()() const
FUNC 4d1d8 7 0 <lambda_410d79af7f07d98d83a3f525b3859a53>::operator()() const
FUNC 4d1e0 3 0 <lambda_7f2adfce497ff2baa965cd4f576ecfd1>::operator()() const
FUNC 4d1e4 e 0 <lambda_862e9a3f04921db6ca1ce3faa2bf3edf>::operator()() const
FUNC 4d1f8 7 0 <lambda_8b3bdacfa7480f205f16cb49964db269>::operator()() const
FUNC 4d200 e 0 <lambda_8dff2cf36a5417162780cd64fa2883ef>::operator()() const
FUNC 4d214 7 0 <lambda_a48fd90c2dacdd6561e44078457d03a7>::operator()() const
FUNC 4d21c 7 0 <lambda_c91f0b5e4ab41df1063aa1a95f49bd71>::operator()() const
FUNC 4d224 e 0 <lambda_ebab98244f73a74f49db879bf13fa982>::operator()() const
FUNC 4d238 11d 0 <lambda_ffc046909424fd52df0ac47e64813305>::operator()() const
FUNC 4d39c 77 0 _expandlocale_locale_name_cache::commit_locale_name(wchar_t const* const, const unsigned long long)
FUNC 4d430 3f 0 _expandlocale_locale_name_cache::commit_locale_name_cache_already_updated(wchar_t const* const, const unsigned long long)
FUNC 4d480 8 0 __crt_unique_heap_ptr<__crt_locale_data,__crt_internal_free_policy>::detach()
FUNC 4d48c 8 0 __crt_unique_heap_ptr<__crt_locale_pointers,__crt_internal_free_policy>::detach()
FUNC 4d498 4 0 __crt_unique_heap_ptr<__crt_locale_data,__crt_internal_free_policy>::get() const
FUNC 4d49c 4 0 __crt_unique_heap_ptr<__crt_locale_pointers,__crt_internal_free_policy>::get() const
FUNC 4d4a0 8 0 __crt_unique_heap_ptr<__crt_locale_data,__crt_internal_free_policy>::is_valid() const
FUNC 4d4ac 8 0 __crt_unique_heap_ptr<__crt_locale_pointers,__crt_internal_free_policy>::is_valid() const
FUNC 4d4b8 1b 0 __crt_unique_heap_ptr<__crt_locale_data,__crt_internal_free_policy>::release()
FUNC 4d4dc 1b 0 __crt_unique_heap_ptr<__crt_locale_pointers,__crt_internal_free_policy>::release()
FUNC 4d500 82 0 __acrt_copy_locale_name(wchar_t const*)
FUNC 4d5a4 c 0 __acrt_set_locale_changed()
FUNC 4d5b4 2e 0 __acrt_uninitialize_locale()
FUNC 4d5f0 e 0 __ascii_tolower(const int)
FUNC 4d604 d 0 __ascii_towlower(const int)
FUNC 4d614 a2 0 __lc_lctowcs(wchar_t*, unsigned long long, __crt_locale_strings const*)
FUNC 4d6e0 166 0 __lc_wcstolc(__crt_locale_strings*, wchar_t const*)
FUNC 4d8a0 69 0 _configthreadlocale(int)
FUNC 4d924 be 0 _copytlocinfo_nolock(__crt_locale_data*, __crt_locale_data*)
FUNC 4da14 76 0 _create_locale(int, char const*)
FUNC 4daa8 47f 0 _expandlocale(wchar_t const*, wchar_t*, unsigned long long, wchar_t*, unsigned long long, unsigned int&)
FUNC 4e048 a2 0 _free_locale(__crt_locale_pointers*)
FUNC 4e114 bb 0 _get_current_locale()
FUNC 4e200 148 0 _wcreate_locale(int, wchar_t const*)
FUNC 4e39c 65 0 _wcscats(wchar_t*, unsigned long long, int, <NoType>)
FUNC 4e41c a1 0 _wsetlocale(int, wchar_t const*)
FUNC 4e4e8 1ea 0 _wsetlocale_get_all(__crt_locale_data*)
FUNC 4e74c 296 0 _wsetlocale_nolock(__crt_locale_data*, int, wchar_t const*)
FUNC 4ea88 352 0 _wsetlocale_set_cat(__crt_locale_data*, int, wchar_t const*)
FUNC 4eeb0 21 0 categorize_delimiter(const wchar_t)
FUNC 4eedc 34 0 get_default_code_page(wchar_t const* const)
FUNC 4ef20 1ff 0 parse_bcp47(__crt_locale_strings* const, wchar_t const* const)
FUNC 4f1a0 47 0 parse_bcp47_code_page(__crt_locale_strings* const, _bcp47_section const&)
FUNC 4f1f8 89 0 parse_bcp47_language(__crt_locale_strings* const, _bcp47_section const&)
FUNC 4f2a4 10a 0 parse_bcp47_region(__crt_locale_strings* const, _bcp47_section const&)
FUNC 4f3f0 8f 0 parse_bcp47_script(__crt_locale_strings* const, _bcp47_section const&)
FUNC 4f4a4 72 0 string_is_alpha(wchar_t const* const, const unsigned long long)
FUNC 4f534 6f 0 string_is_digit(wchar_t const* const, const unsigned long long)
FUNC 4f5c0 29 0 sync_legacy_variables_lk()
FUNC 4f5f4 2f 0 __pctype_func()
FUNC 4f630 8 0 __pwctype_func()
FUNC 4f63c 5 0 _iswctype_l(unsigned short, unsigned short, __crt_locale_pointers*)
FUNC 4f644 6f 0 iswctype(unsigned short, unsigned short)
FUNC 4f6d0 30 0 _isctype(int, int)
FUNC 4f70c 108 0 _isctype_l(int, int, __crt_locale_pointers*)
FUNC 4f858 18 0 _isleadbyte_fast_internal(const unsigned char, __crt_locale_pointers* const)
FUNC 4f878 8b 0 __acrt_add_locale_ref(__crt_locale_data*)
FUNC 4f928 176 0 __acrt_free_locale(__crt_locale_data*)
FUNC 4fafc 27 0 __acrt_locale_add_lc_time_reference(__crt_lc_time_data const*)
FUNC 4fb2c 36 0 __acrt_locale_free_lc_time_if_unreferenced(__crt_lc_time_data const*)
FUNC 4fb70 25 0 __acrt_locale_release_lc_time_reference(__crt_lc_time_data const*)
FUNC 4fba0 a8 0 __acrt_release_locale_ref(__crt_locale_data*)
FUNC 4fc74 6c 0 __acrt_update_thread_locale_data()
FUNC 4fcfc 65 0 _updatetlocinfoEx_nolock(__crt_locale_data**, __crt_locale_data*)
FUNC 4fd7c 4 0 __crt_state_management::dual_state_global<long>::value()
FUNC 4fd80 7 0 _query_new_mode()
FUNC 4fd88 2b 0 _set_new_mode(int)
FUNC 4fdc0 bc 0 shortsort(char*, char*, const unsigned long long, int (*)(void const*, void const*))
FUNC 4feb0 29 0 swap(char*, char*, unsigned long long)
FUNC 4fef0 3ad 0 qsort(void*, unsigned long long, unsigned long long, int (*)(void const*, void const*))
FUNC 50388 db 0 common_tcsncpy_s<wchar_t>(wchar_t* const, const unsigned long long, wchar_t const* const, const unsigned long long)
FUNC 5049c e4 0 wcsncpy_s(wchar_t*, unsigned long long, wchar_t const*, unsigned long long)
FUNC 505bc 34 0 wcspbrk(wchar_t const*, wchar_t const*)
FUNC 50600 c6 0 common_tcsncpy_s<char>(char* const, const unsigned long long, char const* const, const unsigned long long)
FUNC 506f8 d3 0 strncpy_s(char*, unsigned long long, char const*, unsigned long long)
FUNC 50800 9e 0 fallbackMethod(char const*, char const*)
FUNC 508d0 3e0 0 strpbrk(char const*, char const*)
FUNC 50da8 8 0 _mbsdec(unsigned char const*, unsigned char const*)
FUNC 50db4 94 0 _mbsdec_l(unsigned char const*, unsigned char const*, __crt_locale_pointers*)
FUNC 50e70 7 0 __crt_scoped_stack_ptr<wchar_t>::__crt_scoped_stack_ptr<wchar_t>(const __crt_scoped_stack_ptr_tag<wchar_t>)
FUNC 50e78 7 0 __crt_scoped_stack_ptr_tag<wchar_t>::__crt_scoped_stack_ptr_tag<wchar_t>(wchar_t* const)
FUNC 50e80 22 0 __crt_scoped_stack_ptr<wchar_t>::~__crt_scoped_stack_ptr<wchar_t>()
FUNC 50eac 4 0 __crt_scoped_stack_ptr<wchar_t>::get() const
FUNC 50eb0 e 0 _MallocaComputeSize(unsigned long long)
FUNC 50ec4 f 0 _MarkAllocaS(void*, unsigned int)
FUNC 50ed8 18d 0 __acrt_GetStringTypeA(__crt_locale_pointers*, unsigned long, char const*, int, unsigned short*, int, int)
FUNC 510c8 1f 0 _freea_crt(void*)
FUNC 510f0 8 0 __crt_scoped_stack_ptr<wchar_t>::operator bool() const
FUNC 510fc 315 0 __acrt_LCMapStringA_stat(__crt_locale_pointers*, wchar_t const*, unsigned long, char const*, int, char*, int, int, int)
FUNC 514d8 96 0 __acrt_LCMapStringA(__crt_locale_pointers*, wchar_t const*, unsigned long, char const*, int, char*, int, int, int)
FUNC 51594 17 0 initialize_multibyte()
FUNC 515b0 4f 0 _wcsnicoll(wchar_t const*, wchar_t const*, unsigned long long)
FUNC 51614 f0 0 _wcsnicoll_l(wchar_t const*, wchar_t const*, unsigned long long, __crt_locale_pointers*)
FUNC 51740 15 0 _strnicoll(char const*, char const*, unsigned long long)
FUNC 5175c 100 0 _strnicoll_l(char const*, char const*, unsigned long long, __crt_locale_pointers*)
FUNC 5189c 179 0 __acrt_convert_wcs_mbs_cp<char,wchar_t,<lambda_7c9dea7b4ca7285d2cdb541a38da6275>,__crt_win32_buffer_internal_dynamic_resizing>(char const* const, __crt_win32_buffer<wchar_t,__crt_win32_buffer_internal_dynamic_resizing>&, __acrt_mbs_to_wcs_cp::__l2::<lambda_7c9dea7b4ca7285d2cdb541a38da6275> const&, const unsigned int)
FUNC 51a74 25 0 <lambda_7c9dea7b4ca7285d2cdb541a38da6275>::operator()(const unsigned int, char const* const, wchar_t* const, const unsigned long long) const
FUNC 51aa4 197 0 __acrt_SetEnvironmentVariableA(char const*, char const*)
FUNC 51ca0 5 0 _msize(void*)
FUNC 51ca8 39 0 _msize_base(void*)
FUNC 51cf0 7a 0 _realloc_base(void*, unsigned long long)
FUNC 51d88 4b 0 GetTableIndexFromLcid(unsigned long)
FUNC 51de8 87 0 GetTableIndexFromLocaleName(wchar_t const*)
FUNC 51e90 f4 0 __acrt_DownlevelLCIDToLocaleName(unsigned long, wchar_t*, int)
FUNC 51fc4 af 0 __acrt_DownlevelLocaleNameToLCID(wchar_t const*)
FUNC 520a0 8 0 __crt_internal_free_policy::operator()<__crt_lowio_handle_data>(__crt_lowio_handle_data const* const) const
FUNC 520ac 7 0 __crt_unique_heap_ptr<__crt_lowio_handle_data,__crt_internal_free_policy>::__crt_unique_heap_ptr<__crt_lowio_handle_data,__crt_internal_free_policy>(__crt_lowio_handle_data* const)
FUNC 520b4 1b 0 __crt_unique_heap_ptr<__crt_lowio_handle_data,__crt_internal_free_policy>::~__crt_unique_heap_ptr<__crt_lowio_handle_data,__crt_internal_free_policy>()
FUNC 520d8 8 0 __crt_unique_heap_ptr<__crt_lowio_handle_data,__crt_internal_free_policy>::operator bool() const
FUNC 520e4 8 0 __crt_unique_heap_ptr<__crt_lowio_handle_data,__crt_internal_free_policy>::detach()
FUNC 520f0 4 0 __crt_unique_heap_ptr<__crt_lowio_handle_data,__crt_internal_free_policy>::get() const
FUNC 520f4 8 0 __crt_unique_heap_ptr<__crt_lowio_handle_data,__crt_internal_free_policy>::is_valid() const
FUNC 52100 1b 0 __crt_unique_heap_ptr<__crt_lowio_handle_data,__crt_internal_free_policy>::release()
FUNC 52124 a5 0 __acrt_lowio_create_handle_array()
FUNC 521f4 50 0 __acrt_lowio_destroy_handle_array(__crt_lowio_handle_data*)
FUNC 52258 a8 0 __acrt_lowio_ensure_fh_exists(int)
FUNC 5232c 27 0 __acrt_lowio_lock_fh(int)
FUNC 5235c bf 0 __acrt_lowio_set_os_handle(int, long long)
FUNC 5244c 27 0 __acrt_lowio_unlock_fh(int)
FUNC 5247c 13e 0 _alloc_osfhnd()
FUNC 5260c ba 0 _free_osfhnd(int)
FUNC 526f4 75 0 _get_osfhandle(int)
FUNC 52788 101 0 _open_osfhandle(long long, int)
FUNC 528cc 8c 0 __crt_seh_guarded_call<int>::operator()<<lambda_a37b2b86f63e897a80ea819b0eb08c01>,<lambda_38ce7e780aa69e748d6df282ebc68efe> &,<lambda_99fb1378e971ab6e7edea83e3a7a83a2> >(__acrt_lowio_lock_fh_and_call::__l2::<lambda_a37b2b86f63e897a80ea819b0eb08c01>&&, _commit::__l2::<lambda_38ce7e780aa69e748d6df282ebc68efe>&, __acrt_lowio_lock_fh_and_call::__l2::<lambda_99fb1378e971ab6e7edea83e3a7a83a2>&&)
FUNC 5297c 26 0 __acrt_lowio_lock_fh_and_call<<lambda_38ce7e780aa69e748d6df282ebc68efe> >(const int, _commit::__l2::<lambda_38ce7e780aa69e748d6df282ebc68efe>&&)
FUNC 529ac 7 0 <lambda_38ce7e780aa69e748d6df282ebc68efe>::<lambda_38ce7e780aa69e748d6df282ebc68efe>(int const&)
FUNC 529b4 8 0 <lambda_99fb1378e971ab6e7edea83e3a7a83a2>::<lambda_99fb1378e971ab6e7edea83e3a7a83a2>(int const&)
FUNC 529c0 8 0 <lambda_a37b2b86f63e897a80ea819b0eb08c01>::<lambda_a37b2b86f63e897a80ea819b0eb08c01>(int const&)
FUNC 529cc 69 0 <lambda_38ce7e780aa69e748d6df282ebc68efe>::operator()() const
FUNC 52a50 7 0 <lambda_99fb1378e971ab6e7edea83e3a7a83a2>::operator()() const
FUNC 52a58 7 0 <lambda_a37b2b86f63e897a80ea819b0eb08c01>::operator()() const
FUNC 52a60 91 0 _commit(int)
FUNC 52b18 6c 0 write_binary_nolock(const int, char const* const, const unsigned int)
FUNC 52ba0 4d0 0 write_double_translated_ansi_nolock(const int, char const* const, const unsigned int)
FUNC 531a4 95 0 write_double_translated_unicode_nolock(char const* const, const unsigned int)
FUNC 53260 8e 0 write_requires_double_translation_nolock(const int)
FUNC 53314 102 0 write_text_ansi_nolock(const int, char const* const, const unsigned int)
FUNC 53458 119 0 write_text_utf16le_nolock(const int, char const* const, const unsigned int)
FUNC 535b8 170 0 write_text_utf8_nolock(const int, char const* const, const unsigned int)
FUNC 53784 e 0 _utf8_no_of_trailbytes(const unsigned char)
FUNC 53798 eb 0 _write(int, void const*, unsigned int)
FUNC 538c0 2da 0 _write_nolock(int, void const*, unsigned int)
FUNC 53c50 33 0 localeconv()
FUNC 53c90 c 0 __crt_stdio_stream::is_in_use() const
FUNC 53ca0 b1 0 _fcloseall()
FUNC 53d80 c 0 __crt_stdio_stream::has_crt_buffer() const
FUNC 53d90 40 0 __acrt_stdio_free_buffer_nolock(_iobuf*)
FUNC 53de0 5f 0 _isatty(int)
FUNC 53e58 2c 0 __iswcsym(unsigned short)
FUNC 53e90 2c 0 __iswcsymf(unsigned short)
FUNC 53ec8 4b 0 _isleadbyte_l(int, __crt_locale_pointers*)
FUNC 53f28 a 0 _iswalnum_l(unsigned short, __crt_locale_pointers*)
FUNC 53f34 a 0 _iswalpha_l(unsigned short, __crt_locale_pointers*)
FUNC 53f40 16 0 _iswblank_l(unsigned short, __crt_locale_pointers*)
FUNC 53f5c a 0 _iswcntrl_l(unsigned short, __crt_locale_pointers*)
FUNC 53f68 2c 0 _iswcsym_l(unsigned short, __crt_locale_pointers*)
FUNC 53fa0 2c 0 _iswcsymf_l(unsigned short, __crt_locale_pointers*)
FUNC 53fd8 a 0 _iswdigit_l(unsigned short, __crt_locale_pointers*)
FUNC 53fe4 a 0 _iswgraph_l(unsigned short, __crt_locale_pointers*)
FUNC 53ff0 a 0 _iswlower_l(unsigned short, __crt_locale_pointers*)
FUNC 53ffc a 0 _iswprint_l(unsigned short, __crt_locale_pointers*)
FUNC 54008 a 0 _iswpunct_l(unsigned short, __crt_locale_pointers*)
FUNC 54014 a 0 _iswspace_l(unsigned short, __crt_locale_pointers*)
FUNC 54020 a 0 _iswupper_l(unsigned short, __crt_locale_pointers*)
FUNC 5402c a 0 _iswxdigit_l(unsigned short, __crt_locale_pointers*)
FUNC 54038 4d 0 isleadbyte(int)
FUNC 54098 a 0 iswalnum(unsigned short)
FUNC 540a4 a 0 iswalpha(unsigned short)
FUNC 540b0 e 0 iswascii(unsigned short)
FUNC 540c4 16 0 iswblank(unsigned short)
FUNC 540e0 a 0 iswcntrl(unsigned short)
FUNC 540ec a 0 iswdigit(unsigned short)
FUNC 540f8 a 0 iswgraph(unsigned short)
FUNC 54104 a 0 iswlower(unsigned short)
FUNC 54110 a 0 iswprint(unsigned short)
FUNC 5411c a 0 iswpunct(unsigned short)
FUNC 54128 a 0 iswspace(unsigned short)
FUNC 54134 a 0 iswupper(unsigned short)
FUNC 54140 a 0 iswxdigit(unsigned short)
FUNC 5414c 27 0 <lambda_88e6d024674186fe9d3f7283b675e4c3>::operator()(char const*) const
FUNC 5417c 39 0 __crt_mbstring::__mbrtowc_utf8(wchar_t*, char const*, unsigned long long, _Mbstatet*)
FUNC 541c4 176 0 __crt_mbstring::__mbsrtowcs_utf8(wchar_t*, char const**, unsigned long long, _Mbstatet*)
FUNC 54398 251 0 _mbrtowc_s_l(int*, wchar_t*, char const*, unsigned long long, _Mbstatet*, __crt_locale_pointers*)
FUNC 54680 15e 0 _mbsrtowcs_helper(wchar_t*, char const**, unsigned long long, _Mbstatet*)
FUNC 54838 66 0 btowc(int)
FUNC 548b8 3e 0 mbrlen(char const*, unsigned long long, _Mbstatet*)
FUNC 54908 60 0 mbrtowc(wchar_t*, char const*, unsigned long long, _Mbstatet*)
FUNC 54980 5 0 mbsrtowcs(wchar_t*, char const**, unsigned long long, _Mbstatet*)
FUNC 54988 d1 0 mbsrtowcs_s(unsigned long long*, wchar_t*, unsigned long long, char const**, unsigned long long, _Mbstatet*)
FUNC 54a90 8 0 __crt_internal_free_policy::operator()<unsigned short>(unsigned short const* const) const
FUNC 54a9c 8 0 __crt_internal_free_policy::operator()<long>(long const* const) const
FUNC 54aa8 7 0 __crt_unique_heap_ptr<unsigned short,__crt_internal_free_policy>::__crt_unique_heap_ptr<unsigned short,__crt_internal_free_policy>(unsigned short* const)
FUNC 54ab0 7 0 __crt_unique_heap_ptr<long,__crt_internal_free_policy>::__crt_unique_heap_ptr<long,__crt_internal_free_policy>(long* const)
FUNC 54ab8 1b 0 __crt_unique_heap_ptr<unsigned short,__crt_internal_free_policy>::~__crt_unique_heap_ptr<unsigned short,__crt_internal_free_policy>()
FUNC 54adc 1b 0 __crt_unique_heap_ptr<long,__crt_internal_free_policy>::~__crt_unique_heap_ptr<long,__crt_internal_free_policy>()
FUNC 54b00 8 0 __crt_unique_heap_ptr<unsigned short,__crt_internal_free_policy>::detach()
FUNC 54b0c 8 0 __crt_unique_heap_ptr<long,__crt_internal_free_policy>::detach()
FUNC 54b18 1b 0 __crt_unique_heap_ptr<unsigned short,__crt_internal_free_policy>::release()
FUNC 54b3c 1b 0 __crt_unique_heap_ptr<long,__crt_internal_free_policy>::release()
FUNC 54b60 2f 0 ___lc_codepage_func()
FUNC 54b9c 2f 0 ___lc_collate_cp_func()
FUNC 54bd8 32 0 ___lc_locale_name_func()
FUNC 54c18 2f 0 ___mb_cur_max_func()
FUNC 54c54 10 0 ___mb_cur_max_l_func(__crt_locale_pointers*)
FUNC 54c68 661 0 __acrt_locale_initialize_ctype(__crt_locale_data*)
FUNC 55464 b3 0 __crt_mbstring::__c32rtomb_utf8(char*, char32_t, _Mbstatet*)
FUNC 55544 8 0 __crt_mbstring::reset_and_return(unsigned long long, _Mbstatet*)
FUNC 55550 1c 0 __crt_mbstring::return_illegal_sequence(_Mbstatet*)
FUNC 55574 5 0 c32rtomb(char*, char32_t, _Mbstatet*)
FUNC 5557c e2 0 __acrt_fp_strflt_to_string(char*, unsigned long long, int, _strflt*)
FUNC 55698 114d 0 convert_to_fos_high_precision<double>(const double, const unsigned int, int* const, char* const, const unsigned long long)
FUNC 56c40 2f 0 __crt_strtox::big_integer::big_integer(__crt_strtox::big_integer const&)
FUNC 56c80 a 0 __crt_strtox::big_integer::big_integer()
FUNC 56c8c 3b 0 (anonymous namespace)::scoped_fp_state_reset::scoped_fp_state_reset()
FUNC 56cd8 14 0 (anonymous namespace)::scoped_fp_state_reset::~scoped_fp_state_reset()
FUNC 56d00 2f 0 __crt_strtox::big_integer::operator=(__crt_strtox::big_integer const&)
FUNC 56d40 2a 0 __crt_strtox::operator==(__crt_strtox::big_integer const&, __crt_strtox::big_integer const&)
FUNC 56d80 3e 0 __crt_strtox::operator!=(__crt_strtox::big_integer const&, __crt_strtox::big_integer const&)
FUNC 56dd0 14 0 __crt_strtox::add_carry(unsigned int&, const unsigned int, const unsigned int)
FUNC 56df0 20 0 __crt_strtox::add_multiply_carry(unsigned int&, const unsigned int, const unsigned int, const unsigned int)
FUNC 56e20 13 0 __crt_strtox::bit_scan_reverse(const unsigned int)
FUNC 56e40 13 0 __crt_strtox::count_sequential_high_zeroes(const unsigned int)
FUNC 56e60 429 0 __crt_strtox::divide(__crt_strtox::big_integer&, __crt_strtox::big_integer const&)
FUNC 573a0 7 0 __crt_strtox::is_zero(__crt_strtox::big_integer const&)
FUNC 573b0 19 0 __crt_strtox::make_big_integer(const unsigned long long)
FUNC 573d0 67 0 __crt_strtox::make_big_integer_power_of_two(const unsigned int)
FUNC 57450 3a8 0 __crt_strtox::multiply(__crt_strtox::big_integer&, __crt_strtox::big_integer const&)
FUNC 578f0 ed 0 __crt_strtox::multiply(__crt_strtox::big_integer&, const unsigned int)
FUNC 57a20 7 0 __crt_strtox::multiply_64_32(const unsigned long long, const unsigned int)
FUNC 57a30 5a8 0 __crt_strtox::multiply_by_power_of_ten(__crt_strtox::big_integer&, const unsigned int)
FUNC 58150 49 0 __crt_strtox::multiply_core(unsigned int* const, const unsigned int, const unsigned int)
FUNC 581b0 14d 0 __crt_strtox::shift_left(__crt_strtox::big_integer&, const unsigned int)
FUNC 58350 1231 0 __acrt_fltout(_CRT_DOUBLE, unsigned int, _strflt*, char*, unsigned long long)
FUNC 59a10 87 0 memcpy_s(void* const, const unsigned long long, void const* const, const unsigned long long)
FUNC 59ab8 e8 0 common_flush_and_write_nolock<char>(const int, const __crt_stdio_stream)
FUNC 59bdc e9 0 common_flush_and_write_nolock<wchar_t>(const int, const __crt_stdio_stream)
FUNC 59d00 e4 0 write_buffer_nolock<char>(const char, const __crt_stdio_stream)
FUNC 59e20 e8 0 write_buffer_nolock<wchar_t>(const wchar_t, const __crt_stdio_stream)
FUNC 59f44 d 0 __crt_stdio_stream::has_big_buffer() const
FUNC 59f54 79 0 stream_is_at_end_of_file_nolock(const __crt_stdio_stream)
FUNC 59fec ea 0 __acrt_stdio_flush_and_write_narrow_nolock(int, _iobuf*)
FUNC 5a110 eb 0 __acrt_stdio_flush_and_write_wide_nolock(int, _iobuf*)
FUNC 5a238 8 0 __crt_internal_free_policy::operator()<lconv>(lconv const* const) const
FUNC 5a244 7 0 __crt_unique_heap_ptr<lconv,__crt_internal_free_policy>::__crt_unique_heap_ptr<lconv,__crt_internal_free_policy>(lconv* const)
FUNC 5a24c 1b 0 __crt_unique_heap_ptr<lconv,__crt_internal_free_policy>::~__crt_unique_heap_ptr<lconv,__crt_internal_free_policy>()
FUNC 5a270 8 0 __crt_unique_heap_ptr<lconv,__crt_internal_free_policy>::detach()
FUNC 5a27c 1b 0 __crt_unique_heap_ptr<lconv,__crt_internal_free_policy>::release()
FUNC 5a2a0 10a 0 __acrt_locale_free_monetary(lconv*)
FUNC 5a3ec 533 0 __acrt_locale_initialize_monetary(__crt_locale_data*)
FUNC 5aa6c 34 0 fix_grouping(char*)
FUNC 5aab0 6c 0 __acrt_locale_free_numeric(lconv*)
FUNC 5ab38 2e8 0 __acrt_locale_initialize_numeric(__crt_locale_data*)
FUNC 5aedc 34 0 fix_grouping(char*)
FUNC 5af20 8 0 __crt_internal_free_policy::operator()<__crt_lc_time_data>(__crt_lc_time_data const* const) const
FUNC 5af2c a 0 free_crt_array<char,2>(char*[2]&)
FUNC 5af38 a 0 free_crt_array<char,7>(char*[7]&)
FUNC 5af44 a 0 free_crt_array<char,12>(char*[12]&)
FUNC 5af50 a 0 free_crt_array<wchar_t,2>(wchar_t*[2]&)
FUNC 5af5c a 0 free_crt_array<wchar_t,7>(wchar_t*[7]&)
FUNC 5af68 a 0 free_crt_array<wchar_t,12>(wchar_t*[12]&)
FUNC 5af74 7 0 __crt_unique_heap_ptr<__crt_lc_time_data,__crt_internal_free_policy>::__crt_unique_heap_ptr<__crt_lc_time_data,__crt_internal_free_policy>(__crt_lc_time_data* const)
FUNC 5af7c 1b 0 __crt_unique_heap_ptr<__crt_lc_time_data,__crt_internal_free_policy>::~__crt_unique_heap_ptr<__crt_lc_time_data,__crt_internal_free_policy>()
FUNC 5afa0 8 0 __crt_unique_heap_ptr<__crt_lc_time_data,__crt_internal_free_policy>::operator bool() const
FUNC 5afac 8 0 __crt_unique_heap_ptr<__crt_lc_time_data,__crt_internal_free_policy>::detach()
FUNC 5afb8 58 0 free_crt_array_internal(void const** const, const unsigned long long)
FUNC 5b028 4 0 __crt_unique_heap_ptr<__crt_lc_time_data,__crt_internal_free_policy>::get() const
FUNC 5b02c 77 0 get_or_create_lc_time(__crt_locale_data* const)
FUNC 5b0c0 33e 0 initialize_lc_time(__crt_lc_time_data* const, __crt_locale_data* const)
FUNC 5b4d0 8 0 __crt_unique_heap_ptr<__crt_lc_time_data,__crt_internal_free_policy>::is_valid() const
FUNC 5b4dc 1b 0 __crt_unique_heap_ptr<__crt_lc_time_data,__crt_internal_free_policy>::release()
FUNC 5b500 108 0 __acrt_locale_free_time(__crt_lc_time_data*)
FUNC 5b64c 9c 0 __acrt_locale_initialize_time(__crt_locale_data*)
FUNC 5b710 86 0 common_tcscat_s<wchar_t>(wchar_t* const, const unsigned long long, wchar_t const* const)
FUNC 5b7b8 7f 0 wcscat_s(wchar_t*, unsigned long long, wchar_t const*)
FUNC 5b858 f6 0 common_tcsncat_s<wchar_t>(wchar_t* const, const unsigned long long, wchar_t const* const, const unsigned long long)
FUNC 5b98c fd 0 wcsncat_s(wchar_t*, unsigned long long, wchar_t const*, unsigned long long)
FUNC 5bac8 3f 0 wcscspn(wchar_t const*, wchar_t const*)
FUNC 5bb18 a5 0 GetLocaleNameFromDefault(__crt_qualified_locale_data*)
FUNC 5bbe8 cf 0 GetLocaleNameFromLangCountry(__crt_qualified_locale_data*)
FUNC 5bcec 98 0 GetLocaleNameFromLanguage(__crt_qualified_locale_data*)
FUNC 5bdac 2f 0 GetPrimaryLen(wchar_t const*)
FUNC 5bde8 2ea 0 LangCountryEnumProcEx(wchar_t*, unsigned long, long long)
FUNC 5c18c ea 0 LanguageEnumProcEx(wchar_t*, unsigned long, long long)
FUNC 5c2b0 c9 0 ProcessCodePage(wchar_t const*, __crt_qualified_locale_data*)
FUNC 5c3ac 63 0 TestDefaultCountry(wchar_t const*)
FUNC 5c428 77 0 TestDefaultLanguage(wchar_t const*, int, __crt_qualified_locale_data*)
FUNC 5c4bc 99 0 TranslateName(__crt_locale_string_table const*, int, wchar_t const**)
FUNC 5c57c 263 0 __acrt_get_qualified_locale(__crt_locale_strings const*, unsigned int*, __crt_locale_strings*)
FUNC 5c878 e8 0 CountryEnumProc(wchar_t*)
FUNC 5c99c 5f 0 GetLcidFromCountry(__crt_qualified_locale_data_downlevel*)
FUNC 5ca14 21 0 GetLcidFromDefault(__crt_qualified_locale_data_downlevel*)
FUNC 5ca40 cd 0 GetLcidFromLangCountry(__crt_qualified_locale_data_downlevel*)
FUNC 5cb40 96 0 GetLcidFromLanguage(__crt_qualified_locale_data_downlevel*)
FUNC 5cbfc 26 0 GetPrimaryLen(wchar_t const*)
FUNC 5cc2c 24a 0 LangCountryEnumProc(wchar_t*)
FUNC 5cf08 108 0 LanguageEnumProc(wchar_t*)
FUNC 5d054 4e 0 LcidFromHexString(wchar_t const*)
FUNC 5d0b8 ae 0 ProcessCodePage(wchar_t const*, __crt_qualified_locale_data_downlevel*)
FUNC 5d194 24 0 TestDefaultCountry(unsigned long)
FUNC 5d1c4 ab 0 TestDefaultLanguage(unsigned long, int, __crt_qualified_locale_data_downlevel*)
FUNC 5d29c 7f 0 TranslateName(__crt_locale_string_table const*, int, wchar_t const**)
FUNC 5d33c 27e 0 __acrt_get_qualified_locale_downlevel(__crt_locale_strings const*, unsigned int*, __crt_locale_strings*)
FUNC 5d65c 7 0 __acrt_GetStringTypeW(unsigned long, wchar_t const*, int, unsigned short*)
FUNC 5d664 15 0 __strncnt(char const*, unsigned long long)
FUNC 5d680 bd 0 __acrt_CompareStringW(wchar_t const*, unsigned long, wchar_t const*, int, wchar_t const*, int)
FUNC 5d76c 4b 0 __ascii_wcsnicmp(wchar_t const*, wchar_t const*, unsigned long long)
FUNC 5d7cc 26 0 _towlower_fast_internal(const unsigned char, __crt_locale_pointers* const)
FUNC 5d7fc 34 0 _towlower_internal(const unsigned short, __crt_locale_pointers* const)
FUNC 5d840 46 0 _wcsnicmp(wchar_t const*, wchar_t const*, unsigned long long)
FUNC 5d898 150 0 _wcsnicmp_l(wchar_t const*, wchar_t const*, unsigned long long, __crt_locale_pointers*)
FUNC 5da3c 49 0 __ascii_strnicmp(char const*, char const*, unsigned long long)
FUNC 5da98 4f 0 _strnicmp(char const*, char const*, unsigned long long)
FUNC 5dafc ad 0 _strnicmp_l(char const*, char const*, unsigned long long, __crt_locale_pointers*)
FUNC 5dbd4 35d 0 InternalCompareStringA(__crt_locale_pointers*, wchar_t const*, unsigned long, char const*, int, char const*, int, int)
FUNC 5e008 89 0 __acrt_CompareStringA(__crt_locale_pointers*, wchar_t const*, unsigned long, char const*, int, char const*, int, int)
FUNC 5e0b4 3 0 issue_debug_notification(wchar_t const* const)
FUNC 5e0b8 2b 0 should_write_error_to_console()
FUNC 5e0f0 a7 0 write_string_to_console(wchar_t const* const)
FUNC 5e1c0 15d 0 __acrt_report_runtime_error(wchar_t const*)
FUNC 5e374 7 0 _query_app_type()
FUNC 5e37c 7 0 _set_app_type(_crt_app_type)
FUNC 5e384 eb 0 common_lseek<long>(const int, const long, const int)
FUNC 5e4ac ef 0 common_lseek<__int64>(const int, const long long, const int)
FUNC 5e5d8 f3 0 common_lseek_nolock<long>(const int, const long, const int)
FUNC 5e708 99 0 common_lseek_nolock<__int64>(const int, const long long, const int)
FUNC 5e7c8 9e 0 common_lseek_do_seek_nolock(void* const, const long, const int)
FUNC 5e890 33 0 common_lseek_do_seek_nolock(void* const, const long long, const int)
FUNC 5e8d0 5 0 _lseek(int, long, int)
FUNC 5e8d8 5 0 _lseek_nolock(int, long, int)
FUNC 5e8e0 5 0 _lseeki64(int, long long, int)
FUNC 5e8e8 5 0 _lseeki64_nolock(int, long long, int)
FUNC 5e8f0 40 0 __crt_seh_guarded_call<unsigned short>::operator()<<lambda_0384895ae1aa6ccbfe369a30d6ca2ef7>,<lambda_9e0b6ab72a5b3ae37ad997d08b519f50> &,<lambda_7e22f70504d73c22058e5832bde5914f> >(__acrt_lock_and_call::__l2::<lambda_0384895ae1aa6ccbfe369a30d6ca2ef7>&&, _putwch::__l2::<lambda_9e0b6ab72a5b3ae37ad997d08b519f50>&, __acrt_lock_and_call::__l2::<lambda_7e22f70504d73c22058e5832bde5914f>&&)
FUNC 5e940 26 0 __acrt_lock_and_call<<lambda_9e0b6ab72a5b3ae37ad997d08b519f50> >(const __acrt_lock_id, _putwch::__l2::<lambda_9e0b6ab72a5b3ae37ad997d08b519f50>&&)
FUNC 5e970 8 0 <lambda_0384895ae1aa6ccbfe369a30d6ca2ef7>::<lambda_0384895ae1aa6ccbfe369a30d6ca2ef7>(__acrt_lock_id const&)
FUNC 5e97c 8 0 <lambda_7e22f70504d73c22058e5832bde5914f>::<lambda_7e22f70504d73c22058e5832bde5914f>(__acrt_lock_id const&)
FUNC 5e988 7 0 <lambda_9e0b6ab72a5b3ae37ad997d08b519f50>::<lambda_9e0b6ab72a5b3ae37ad997d08b519f50>(wchar_t const&)
FUNC 5e990 7 0 <lambda_0384895ae1aa6ccbfe369a30d6ca2ef7>::operator()() const
FUNC 5e998 7 0 <lambda_7e22f70504d73c22058e5832bde5914f>::operator()() const
FUNC 5e9a0 b 0 <lambda_9e0b6ab72a5b3ae37ad997d08b519f50>::operator()() const
FUNC 5e9b0 3b 0 _putwch(wchar_t)
FUNC 5e9fc 3b 0 _putwch_nolock(wchar_t)
FUNC 5ea48 1bd 0 translate_text_mode_nolock<char>(const int, char* const, const unsigned long long)
FUNC 5ec74 27b 0 translate_text_mode_nolock<wchar_t>(const int, wchar_t* const, const unsigned long long)
FUNC 5ef90 22 0 store_lookahead(const int, const char)
FUNC 5efbc 43 0 store_lookahead(const int, const wchar_t)
FUNC 5f010 19b 0 translate_ansi_or_utf8_nolock(const int, char* const, const unsigned long long, wchar_t* const, const unsigned long long)
FUNC 5f214 8f 0 translate_utf16_from_console_nolock(const int, wchar_t* const, const unsigned long long)
FUNC 5f2c8 119 0 _read(int, void*, unsigned int)
FUNC 5f428 456 0 _read_nolock(int, void*, unsigned int)
FUNC 5f994 83 0 _fclose_nolock(_iobuf*)
FUNC 5fa38 62 0 fclose(_iobuf*)
FUNC 5fab4 1dc 0 __crt_mbstring::__mbrtoc32_utf8(char32_t*, char const*, unsigned long long, _Mbstatet*)
FUNC 5fd08 5 0 mbrtoc32(char32_t*, char const*, unsigned long long, _Mbstatet*)
FUNC 5fd10 179 0 InternalGetLocaleInfoA(__crt_locale_pointers* const, wchar_t const* const, const unsigned long, char* const, const int)
FUNC 5fee8 1c8 0 __acrt_GetLocaleInfoA(__crt_locale_pointers*, int, wchar_t const*, unsigned long, void*)
FUNC 60124 20 0 fegetenv(fenv_t*)
FUNC 6014c 4c 0 fesetenv(fenv_t const*)
FUNC 601ac 50 0 feholdexcept(fenv_t*)
FUNC 60210 c2 0 ceil(double)
FUNC 60310 5ab 0 log10()
FUNC 60a28 66 0 __acrt_stdio_allocate_buffer_nolock(_iobuf*)
FUNC 60aa8 c6 0 common_xtox<unsigned long,char>(const unsigned long, char* const, const unsigned long long, const unsigned int, const bool)
FUNC 60ba0 d4 0 common_xtox<unsigned long,wchar_t>(const unsigned long, wchar_t* const, const unsigned long long, const unsigned int, const bool)
FUNC 60cac cb 0 common_xtox<unsigned __int64,char>(const unsigned long long, char* const, const unsigned long long, const unsigned int, const bool)
FUNC 60dac d9 0 common_xtox<unsigned __int64,wchar_t>(const unsigned long long, wchar_t* const, const unsigned long long, const unsigned int, const bool)
FUNC 60ebc 67 0 common_xtox_s<unsigned long,char>(const unsigned long, char* const, const unsigned long long, const unsigned int, const bool)
FUNC 60f3c 69 0 common_xtox_s<unsigned long,wchar_t>(const unsigned long, wchar_t* const, const unsigned long long, const unsigned int, const bool)
FUNC 60fc0 67 0 common_xtox_s<unsigned __int64,char>(const unsigned long long, char* const, const unsigned long long, const unsigned int, const bool)
FUNC 61040 69 0 common_xtox_s<unsigned __int64,wchar_t>(const unsigned long long, wchar_t* const, const unsigned long long, const unsigned int, const bool)
FUNC 610c4 31 0 _i64toa(long long, char*, int)
FUNC 61104 21 0 _i64toa_s(long long, char*, unsigned long long, int)
FUNC 61130 31 0 _i64tow(long long, wchar_t*, int)
FUNC 61170 21 0 _i64tow_s(long long, wchar_t*, unsigned long long, int)
FUNC 6119c 30 0 _itoa(int, char*, int)
FUNC 611d8 20 0 _itoa_s(int, char*, unsigned long long, int)
FUNC 61200 30 0 _itow(int, wchar_t*, int)
FUNC 6123c 20 0 _itow_s(int, wchar_t*, unsigned long long, int)
FUNC 61264 30 0 _ltoa(long, char*, int)
FUNC 612a0 20 0 _ltoa_s(long, char*, unsigned long long, int)
FUNC 612c8 30 0 _ltow(long, wchar_t*, int)
FUNC 61304 20 0 _ltow_s(long, wchar_t*, unsigned long long, int)
FUNC 6132c 23 0 _ui64toa(unsigned long long, char*, int)
FUNC 61358 13 0 _ui64toa_s(unsigned long long, char*, unsigned long long, int)
FUNC 61370 23 0 _ui64tow(unsigned long long, wchar_t*, int)
FUNC 6139c 13 0 _ui64tow_s(unsigned long long, wchar_t*, unsigned long long, int)
FUNC 613b4 23 0 _ultoa(unsigned long, char*, int)
FUNC 613e0 13 0 _ultoa_s(unsigned long, char*, unsigned long long, int)
FUNC 613f8 23 0 _ultow(unsigned long, wchar_t*, int)
FUNC 61424 13 0 _ultow_s(unsigned long, wchar_t*, unsigned long long, int)
FUNC 6143c 3e 0 __ascii_wcsicmp(wchar_t const*, wchar_t const*)
FUNC 6148c 46 0 _wcsicmp(wchar_t const*, wchar_t const*)
FUNC 614e4 127 0 _wcsicmp_l(wchar_t const*, wchar_t const*, __crt_locale_pointers*)
FUNC 61654 35 0 wcscmp(wchar_t const*, wchar_t const*)
FUNC 61698 bb 0 _towlower_l(unsigned short, __crt_locale_pointers*)
FUNC 61784 7 0 towlower(unsigned short)
FUNC 6178c 40 0 _set_error_mode(int)
FUNC 617dc a3 0 common_show_message_box<char>(char const* const, char const* const, const unsigned int)
FUNC 618a8 a4 0 common_show_message_box<wchar_t>(wchar_t const* const, wchar_t const* const, const unsigned int)
FUNC 61978 11 0 __crt_char_traits<char>::message_box<std::nullptr_t,char const * const &,char const * const &,unsigned long>(void*&&, char const* const&, char const* const&, unsigned long&&)
FUNC 61990 11 0 __crt_char_traits<wchar_t>::message_box<std::nullptr_t,wchar_t const * const &,wchar_t const * const &,unsigned long>(void*&&, wchar_t const* const&, wchar_t const* const&, unsigned long&&)
FUNC 619a8 11 0 __crt_char_traits<char>::message_box<HWND__ *,char const * const &,char const * const &,unsigned int const &>(HWND__*&&, char const* const&, char const* const&, unsigned int const&)
FUNC 619c0 11 0 __crt_char_traits<wchar_t>::message_box<HWND__ *,wchar_t const * const &,wchar_t const * const &,unsigned int const &>(HWND__*&&, wchar_t const* const&, wchar_t const* const&, unsigned int const&)
FUNC 619d8 8 0 __crt_char_traits<char>::output_debug_string<char const * const &>(char const* const&)
FUNC 619e4 a 0 __crt_char_traits<wchar_t>::output_debug_string<wchar_t const * const &>(wchar_t const* const&)
FUNC 619f0 a3 0 __acrt_show_narrow_message_box(char const*, char const*, unsigned int)
FUNC 61abc a4 0 __acrt_show_wide_message_box(wchar_t const*, wchar_t const*, unsigned int)
FUNC 61b8c aa 0 console_output_reopen_and_retry<<lambda_61c1b8a38cedca4df5fdc542e6ccae6d> >(__dcrt_write_console::__l2::<lambda_61c1b8a38cedca4df5fdc542e6ccae6d> const&)
FUNC 61c60 17 0 <lambda_61c1b8a38cedca4df5fdc542e6ccae6d>::<lambda_61c1b8a38cedca4df5fdc542e6ccae6d>(void const* const&, unsigned long const&, unsigned long* const&)
FUNC 61c7c 27 0 <lambda_61c1b8a38cedca4df5fdc542e6ccae6d>::operator()() const
FUNC 61cac 3b 0 __dcrt_lowio_initialize_console_output()
FUNC 61cf8 52 0 __dcrt_lowio_ensure_console_output_initialized()
FUNC 61d60 1c 0 __dcrt_terminate_console_output()
FUNC 61d84 be 0 __dcrt_write_console(void const*, unsigned long, unsigned long*)
FUNC 61e74 71 0 __crt_seh_guarded_call<int>::operator()<<lambda_751a882b2c74d4b022dec766aa51a29a>,<lambda_628dfdc04ba53c8bfc02c9951375f3f5> &,<lambda_f6c7be5f7998530c34de24c7437d6b54> >(__acrt_lowio_lock_fh_and_call::__l2::<lambda_751a882b2c74d4b022dec766aa51a29a>&&, _close::__l2::<lambda_628dfdc04ba53c8bfc02c9951375f3f5>&, __acrt_lowio_lock_fh_and_call::__l2::<lambda_f6c7be5f7998530c34de24c7437d6b54>&&)
FUNC 61f04 26 0 __acrt_lowio_lock_fh_and_call<<lambda_628dfdc04ba53c8bfc02c9951375f3f5> >(const int, _close::__l2::<lambda_628dfdc04ba53c8bfc02c9951375f3f5>&&)
FUNC 61f34 7 0 <lambda_628dfdc04ba53c8bfc02c9951375f3f5>::<lambda_628dfdc04ba53c8bfc02c9951375f3f5>(int const&)
FUNC 61f3c 8 0 <lambda_751a882b2c74d4b022dec766aa51a29a>::<lambda_751a882b2c74d4b022dec766aa51a29a>(int const&)
FUNC 61f48 8 0 <lambda_f6c7be5f7998530c34de24c7437d6b54>::<lambda_f6c7be5f7998530c34de24c7437d6b54>(int const&)
FUNC 61f54 49 0 <lambda_628dfdc04ba53c8bfc02c9951375f3f5>::operator()() const
FUNC 61fb0 7 0 <lambda_751a882b2c74d4b022dec766aa51a29a>::operator()() const
FUNC 61fb8 7 0 <lambda_f6c7be5f7998530c34de24c7437d6b54>::operator()() const
FUNC 61fc0 7e 0 close_os_handle_nolock(const int)
FUNC 62060 a1 0 _close(int)
FUNC 6212c bd 0 _close_nolock(int)
FUNC 62218 8 0 __crt_internal_free_policy::operator()<__crt_stdio_stream_data>(__crt_stdio_stream_data const* const) const
FUNC 62224 7 0 __crt_unique_heap_ptr<__crt_stdio_stream_data,__crt_internal_free_policy>::__crt_unique_heap_ptr<__crt_stdio_stream_data,__crt_internal_free_policy>(__crt_stdio_stream_data* const)
FUNC 6222c 8 0 __crt_stdio_stream::__crt_stdio_stream()
FUNC 62238 1b 0 __crt_unique_heap_ptr<__crt_stdio_stream_data,__crt_internal_free_policy>::~__crt_unique_heap_ptr<__crt_stdio_stream_data,__crt_internal_free_policy>()
FUNC 6225c 56 0 __acrt_stdio_allocate_stream()
FUNC 622c8 1c 0 __acrt_stdio_free_stream(__crt_stdio_stream)
FUNC 622ec 9 0 __crt_stdio_stream::deallocate()
FUNC 622f8 8 0 __crt_unique_heap_ptr<__crt_stdio_stream_data,__crt_internal_free_policy>::detach()
FUNC 62304 ea 0 find_or_allocate_unused_stream_nolock()
FUNC 62428 8 0 __crt_stdio_stream::lock() const
FUNC 62434 1b 0 __crt_unique_heap_ptr<__crt_stdio_stream_data,__crt_internal_free_policy>::release()
FUNC 62458 1f 0 __crt_stdio_stream::try_allocate()
FUNC 62480 8 0 __crt_stdio_stream::unlock() const
FUNC 6248c a 0 __acrt_fenv_shift_bits<enum __acrt_fenv_abstract_control>(const __acrt_fenv_abstract_control, const __acrt_fenv_abstract_control, const unsigned int)
FUNC 62498 a 0 __acrt_fenv_shift_bits<enum __acrt_fenv_abstract_status>(const __acrt_fenv_abstract_status, const __acrt_fenv_abstract_status, const unsigned int)
FUNC 624a4 b 0 __acrt_fenv_translate_bit<enum __acrt_fenv_abstract_control,enum __acrt_fenv_machine_sse_control>(const __acrt_fenv_machine_sse_control, const __acrt_fenv_machine_sse_control, const __acrt_fenv_abstract_control, const __acrt_fenv_abstract_control)
FUNC 624b4 a 0 __acrt_fenv_translate_bit<enum __acrt_fenv_abstract_status,enum __acrt_fenv_machine_sse_status>(const __acrt_fenv_machine_sse_status, const __acrt_fenv_machine_sse_status, const __acrt_fenv_abstract_status, const __acrt_fenv_abstract_status)
FUNC 624c0 c 0 __acrt_fenv_translate_bit<enum __acrt_fenv_machine_sse_control,enum __acrt_fenv_abstract_control>(const __acrt_fenv_abstract_control, const __acrt_fenv_abstract_control, const __acrt_fenv_machine_sse_control, const __acrt_fenv_machine_sse_control)
FUNC 624d0 a 0 __acrt_fenv_translate_bit<enum __acrt_fenv_machine_sse_status,enum __acrt_fenv_abstract_status>(const __acrt_fenv_abstract_status, const __acrt_fenv_abstract_status, const __acrt_fenv_machine_sse_status, const __acrt_fenv_machine_sse_status)
FUNC 624dc a 0 __acrt_fenv_unshift_bits<enum __acrt_fenv_abstract_control>(const __acrt_fenv_abstract_control, const __acrt_fenv_abstract_control, const unsigned int)
FUNC 624e8 a 0 __acrt_fenv_unshift_bits<enum __acrt_fenv_abstract_status>(const __acrt_fenv_abstract_status, const __acrt_fenv_abstract_status, const unsigned int)
FUNC 624f4 4d 0 to_abstract_status<enum __acrt_fenv_machine_sse_status>(const __acrt_fenv_machine_sse_status)
FUNC 62554 58 0 translate_control_exception_mask<enum __acrt_fenv_abstract_control,enum __acrt_fenv_machine_sse_control>(const __acrt_fenv_machine_sse_control)
FUNC 625c4 99 0 translate_control_exception_mask<enum __acrt_fenv_machine_sse_control,enum __acrt_fenv_abstract_control>(const __acrt_fenv_abstract_control)
FUNC 62684 33 0 translate_control_rounding_control<enum __acrt_fenv_abstract_control,enum __acrt_fenv_machine_sse_control>(const __acrt_fenv_machine_sse_control)
FUNC 626c4 32 0 translate_control_rounding_control<enum __acrt_fenv_machine_sse_control,enum __acrt_fenv_abstract_control>(const __acrt_fenv_abstract_control)
FUNC 62704 4d 0 translate_status<enum __acrt_fenv_abstract_status,enum __acrt_fenv_machine_sse_status>(const __acrt_fenv_machine_sse_status)
FUNC 62764 4d 0 translate_status<enum __acrt_fenv_machine_sse_status,enum __acrt_fenv_abstract_status>(const __acrt_fenv_abstract_status)
FUNC 627c4 5 0 operator&(__acrt_fenv_abstract_control, __acrt_fenv_abstract_control)
FUNC 627cc 5 0 operator&(__acrt_fenv_abstract_status, __acrt_fenv_abstract_status)
FUNC 627d4 7 0 operator&(__acrt_fenv_machine_sse_control, __acrt_fenv_machine_sse_control)
FUNC 627dc 5 0 operator&(__acrt_fenv_machine_sse_status, __acrt_fenv_machine_sse_status)
FUNC 627e4 5 0 operator|(__acrt_fenv_abstract_control, __acrt_fenv_abstract_control)
FUNC 627ec 5 0 operator|(__acrt_fenv_abstract_status, __acrt_fenv_abstract_status)
FUNC 627f4 7 0 operator|(__acrt_fenv_machine_sse_control, __acrt_fenv_machine_sse_control)
FUNC 627fc 6 0 operator|=(__acrt_fenv_abstract_control&, __acrt_fenv_abstract_control)
FUNC 62804 6 0 operator|=(__acrt_fenv_abstract_status&, __acrt_fenv_abstract_status)
FUNC 6280c 7 0 operator|=(__acrt_fenv_machine_sse_control&, __acrt_fenv_machine_sse_control)
FUNC 62814 6 0 operator|=(__acrt_fenv_machine_sse_status&, __acrt_fenv_machine_sse_status)
FUNC 6281c 13 0 __acrt_fenv_shift_abstract_sse_control(const __acrt_fenv_abstract_control)
FUNC 62834 9 0 __acrt_fenv_shift_abstract_sse_status(const __acrt_fenv_abstract_status)
FUNC 62840 16 0 __acrt_fenv_unshift_abstract_sse_control(const __acrt_fenv_abstract_control)
FUNC 6285c 9 0 __acrt_fenv_unshift_abstract_sse_status(const __acrt_fenv_abstract_status)
FUNC 62868 12 0 get_machine_sse_control()
FUNC 62880 d 0 get_machine_sse_status()
FUNC 62890 23 0 set_machine_sse_control(const __acrt_fenv_machine_sse_control)
FUNC 628bc 1b 0 set_machine_sse_status(const __acrt_fenv_machine_sse_status)
FUNC 628e0 df 0 to_abstract_control(const __acrt_fenv_machine_sse_control)
FUNC 629f8 137 0 to_machine_sse_control(const __acrt_fenv_abstract_control)
FUNC 62b7c 57 0 to_machine_sse_status(const __acrt_fenv_abstract_status)
FUNC 62be8 34 0 translate_control_denormal_control_from_sse(const __acrt_fenv_machine_sse_control)
FUNC 62c2c 30 0 translate_control_denormal_control_to_sse(const __acrt_fenv_abstract_control)
FUNC 62c68 17 0 __acrt_fenv_expand_round_control(__acrt_fenv_abstract_control)
FUNC 62c84 9 0 __acrt_fenv_get_common_round_control(__acrt_fenv_abstract_control)
FUNC 62c90 f1 0 __acrt_fenv_get_control()
FUNC 62dc0 b 0 __acrt_fenv_get_fp_status_word_from_exception_mask(__acrt_fenv_abstract_status)
FUNC 62dd0 53 0 __acrt_fenv_get_status()
FUNC 62e38 147 0 __acrt_fenv_set_control(__acrt_fenv_abstract_control)
FUNC 62fd0 83 0 __acrt_fenv_set_status(__acrt_fenv_abstract_status)
FUNC 63074 c6 0 _abstract_cw(unsigned int)
FUNC 6316c 5b 0 _abstract_sw(unsigned int)
FUNC 631e0 6e 0 _clearfp(<NoType>)
FUNC 6326c 5 0 _control87(unsigned int, unsigned int)
FUNC 63274 9 0 _controlfp(unsigned int, unsigned int)
FUNC 63280 a 0 _fpreset(<NoType>)
FUNC 6328c bf 0 _hw_cw(unsigned int)
FUNC 6337c 34 0 _set_controlfp(unsigned int, unsigned int)
FUNC 633c0 62 0 _statusfp(<NoType>)
FUNC 6343c 2be 0 common_control87(unsigned int, unsigned int)
FUNC 637ac 65 0 _call_matherr(int, int, char*, double, double, double, unsigned long long)
FUNC 6382c ba 0 _exception_enabled(unsigned int, unsigned long long)
FUNC 63914 127 0 _handle_error(char*, int, unsigned long long, int, int, int, double, double, int)
FUNC 63a84 133 0 _handle_errorf(char*, int, unsigned long long, int, int, int, float, float, int)
FUNC 63c04 19 0 _handle_nan(unsigned long long)
FUNC 63c24 f 0 _handle_nanf(unsigned int)
FUNC 63c40 70 0 __acrt_initialize_fma3(<NoType>)
FUNC 63ccc 7 0 _get_FMA3_enable(<NoType>)
FUNC 63cd4 17 0 _set_FMA3_enable(int)
FUNC 63cf0 20 0 _log10_special(double, double, unsigned int)
FUNC 63d18 20 0 _log10f_special(float, float, unsigned int)
FUNC 63d40 20 0 _log_special(double, double, unsigned int)
FUNC 63d68 96 0 _log_special_common(double, double, unsigned int, unsigned int, char*)
FUNC 63e24 20 0 _logf_special(float, float, unsigned int)
FUNC 63e4c 9c 0 _logf_special_common(float, float, unsigned int, unsigned int, char*)
FUNC 63f10 87 0 __acrt_LCMapStringW(wchar_t const*, unsigned long, wchar_t const*, int, wchar_t*, int)
FUNC 63fb8 9c 0 __acrt_OutputDebugStringA(char const*)
FUNC 64090 10 0 _get_fpsr()
FUNC 640a0 a 0 _set_fpsr()
FUNC 640aa 14 0 _fclrf()
FUNC 640be 1f 0 _frnd()
FUNC 640f4 43 0 _errcode(unsigned int)
FUNC 64148 f1 0 _except1(int, int, double, double, unsigned long long)
FUNC 64278 106 0 _except2(int, int, double, double, double, unsigned long long)
FUNC 643c0 31 0 _get_fname(unsigned int)
FUNC 64400 267 0 _handle_exc(unsigned int, double*, unsigned long long)
FUNC 64700 5 0 _handle_qnan2(double, double)
FUNC 64708 27 0 _raise_exc(_FPIEEE_RECORD*, unsigned long long*, int, int, double*, double*)
FUNC 64738 30d 0 _raise_exc_ex(_FPIEEE_RECORD*, unsigned long long*, int, int, void*, void*, int)
FUNC 64b08 2a 0 _raise_excf(_FPIEEE_RECORD*, unsigned long long*, int, int, float*, float*)
FUNC 64b3c 2e 0 _set_errno_from_matherr(int)
FUNC 64b78 d4 0 _umatherr(int, unsigned int, double, double, double, unsigned long long)
FUNC 64c84 1d 0 _clrfp(<NoType>)
FUNC 64ca8 7c 0 _ctrlfp(unsigned long long, unsigned long long)
FUNC 64d44 1f 0 _set_statfp(unsigned long long)
FUNC 64d6c 11 0 _statfp(<NoType>)
FUNC 64d84 200 0 _mbstowcs_l_helper(wchar_t*, char const*, unsigned long long, __crt_locale_pointers*)
FUNC 65004 5 0 _mbstowcs_l(wchar_t*, char const*, unsigned long long, __crt_locale_pointers*)
FUNC 6500c 133 0 _mbstowcs_s_l(unsigned long long*, wchar_t*, unsigned long long, char const*, unsigned long long, __crt_locale_pointers*)
FUNC 6518c 1a 0 mbstowcs(wchar_t*, char const*, unsigned long long)
FUNC 651ac 1e 0 mbstowcs_s(unsigned long long*, wchar_t*, unsigned long long, char const*, unsigned long long)
FUNC 651d4 4e 0 _add_exp(double, int)
FUNC 65238 12e 0 _decomp(double, int*)
FUNC 653b4 1d 0 _get_exp(double)
FUNC 653d8 30 0 _set_bexp(double, int)
FUNC 65414 38 0 _set_exp(double, int)
FUNC 6545c 74 0 _sptype(double)
FUNC 654f0 44 0 _FindPESection(unsigned char*, unsigned long long)
FUNC 65550 4d 0 _IsNonwritableInCurrentImage(void const*)
FUNC 655b0 2d 0 _ValidateImageBase(unsigned char*)
FUNC 655e8 b 0 type_info::~type_info()
FUNC 655f8 2b 0 type_info::`scalar deleting destructor'(unsigned int)
FUNC 65630 1d 0 __GSHandlerCheck(_EXCEPTION_RECORD*, void*, _CONTEXT*, _DISPATCHER_CONTEXT*)
FUNC 65654 5b 0 __GSHandlerCheckCommon(void*, _DISPATCHER_CONTEXT*, _GS_HANDLER_DATA*)
FUNC 656e0 21 0 __security_check_cookie()
FUNC 65710 85 0 __GSHandlerCheck_SEH(_EXCEPTION_RECORD*, void*, _CONTEXT*, _DISPATCHER_CONTEXT*)
FUNC 657b8 34 0 __raise_securityfailure(_EXCEPTION_POINTERS* const)
FUNC 657fc d1 0 __report_gsfailure(unsigned long long)
FUNC 65904 13 0 __report_rangecheckfailure(<NoType>)
FUNC 6591c 9b 0 __report_securityfailure(unsigned long)
FUNC 659e0 10e 0 __report_securityfailureEx(unsigned long, unsigned long, void**)
FUNC 65b34 6d 0 capture_current_context(_CONTEXT*)
FUNC 65bbc 71 0 capture_previous_context(_CONTEXT*)
FUNC 65c60 51 0 __chkstk()
PUBLIC 65cc9 0 RtlUnwindEx
PUBLIC 65ccf 0 InterlockedPushEntrySList
PUBLIC 65cd5 0 InterlockedFlushSList
PUBLIC 65cdb 0 GetLastError
PUBLIC 65ce1 0 SetLastError
PUBLIC 65ce7 0 EnterCriticalSection
PUBLIC 65ced 0 LeaveCriticalSection
PUBLIC 65cf3 0 DeleteCriticalSection
PUBLIC 65cf9 0 InitializeCriticalSectionAndSpinCount
PUBLIC 65cff 0 TlsAlloc
PUBLIC 65d05 0 TlsGetValue
PUBLIC 65d0b 0 TlsSetValue
PUBLIC 65d11 0 TlsFree
PUBLIC 65d17 0 FreeLibrary
PUBLIC 65d1d 0 GetProcAddress
PUBLIC 65d23 0 LoadLibraryExW
PUBLIC 65d29 0 EncodePointer
PUBLIC 65d2f 0 RaiseException
PUBLIC 65d35 0 RtlPcToFileHeader
PUBLIC 65d3b 0 GetCurrentProcess
PUBLIC 65d41 0 TerminateProcess
PUBLIC 65d47 0 ExitProcess
PUBLIC 65d4d 0 GetModuleHandleExW
PUBLIC 65d53 0 GetModuleFileNameW
PUBLIC 65d59 0 GetCurrentThread
PUBLIC 65d5f 0 HeapFree
PUBLIC 65d65 0 HeapAlloc
PUBLIC 65d6b 0 FindClose
PUBLIC 65d71 0 FindFirstFileExW
PUBLIC 65d77 0 FindNextFileW
PUBLIC 65d7d 0 IsValidCodePage
PUBLIC 65d83 0 GetACP
PUBLIC 65d89 0 GetOEMCP
PUBLIC 65d8f 0 GetCPInfo
PUBLIC 65d95 0 GetCommandLineA
PUBLIC 65d9b 0 GetCommandLineW
PUBLIC 65da1 0 MultiByteToWideChar
PUBLIC 65da7 0 WideCharToMultiByte
PUBLIC 65dad 0 GetEnvironmentStringsW
PUBLIC 65db3 0 FreeEnvironmentStringsW
PUBLIC 65db9 0 SetEnvironmentVariableW
PUBLIC 65dbf 0 GetDateFormatW
PUBLIC 65dc5 0 GetTimeFormatW
PUBLIC 65dcb 0 CompareStringW
PUBLIC 65dd1 0 LCMapStringW
PUBLIC 65dd7 0 GetLocaleInfoW
PUBLIC 65ddd 0 IsValidLocale
PUBLIC 65de3 0 GetUserDefaultLCID
PUBLIC 65de9 0 EnumSystemLocalesW
PUBLIC 65def 0 GetProcessHeap
PUBLIC 65df5 0 GetStdHandle
PUBLIC 65dfb 0 GetFileType
PUBLIC 65e01 0 SetConsoleCtrlHandler
PUBLIC 65e07 0 GetStringTypeW
PUBLIC 65e0d 0 HeapSize
PUBLIC 65e13 0 HeapReAlloc
PUBLIC 65e19 0 SetStdHandle
PUBLIC 65e1f 0 FlushFileBuffers
PUBLIC 65e25 0 WriteFile
PUBLIC 65e2b 0 GetConsoleCP
PUBLIC 65e31 0 GetConsoleMode
PUBLIC 65e37 0 GetFileSizeEx
PUBLIC 65e3d 0 SetFilePointerEx
PUBLIC 65e43 0 ReadFile
PUBLIC 65e49 0 ReadConsoleW
PUBLIC 65e4f 0 OutputDebugStringW
PUBLIC 65e55 0 CreateFileW
PUBLIC 65e5b 0 CloseHandle
PUBLIC 65e61 0 WriteConsoleW
FUNC 65e68 89 0 strchr(char const*, int)
FUNC 65f14 91 0 wcschr(wchar_t const*, wchar_t)
FUNC 65fcc 149 0 strrchr(char const*, int)
FUNC 66168 29 0 _local_unwind(void*, void*)
FUNC 661b0 c7 0 memcmp()
PUBLIC 662ac 0 RtlUnwind
FUNC 67e10 2 0 _guard_dispatch_icall_nop()
FUNC 68e20 17 0 `dllmain_crt_process_attach'::`1'::fin$0
FUNC 68e3c 1c 0 `dllmain_crt_process_detach'::`1'::fin$0
FUNC 68e5f 36 0 `dllmain_dispatch'::`1'::filt$0
FUNC 68ea2 18 0 __scrt_is_nonwritable_in_current_image$filt$0
FUNC 68ec0 18 0 __DestructExceptionObject$filt$0
FUNC 68ede c 0 `UnDecorator::getDecoratedName'::`1'::dtor$0
FUNC 68eed 16 0 __unDNameEx$fin$0
FUNC 68f08 91 0 `_CallSETranslator<__FrameHandler3>'::`1'::filt$0
FUNC 68fbd 91 0 `_CallSETranslator<__FrameHandler4>'::`1'::filt$0
FUNC 69072 25 0 `__FrameHandler3::CxxCallCatchBlock'::`1'::filt$0
FUNC 69097 78 0 `__FrameHandler3::CxxCallCatchBlock'::`1'::fin$1
FUNC 69136 3e 0 `__FrameHandler4::CxxCallCatchBlock'::`1'::filt$0
FUNC 69174 94 0 `__FrameHandler4::CxxCallCatchBlock'::`1'::fin$1
FUNC 6923c 16 0 `__FrameHandler3::FrameUnwindToState'::`1'::filt$0
FUNC 69252 23 0 `__FrameHandler3::FrameUnwindToState'::`1'::fin$1
FUNC 69283 16 0 `__FrameHandler4::FrameUnwindToState'::`1'::filt$0
FUNC 69299 23 0 `__FrameHandler4::FrameUnwindToState'::`1'::fin$1
FUNC 692ca 1a 0 `__crt_seh_guarded_call<void>::operator()<<lambda_d80eeec6fff315bfe5c115232f3240e3>,<lambda_6e4b09c48022b2350581041d5f6b0c4c> &,<lambda_2358e3775559c9db80273638284d5e45> >'::`1'::fin$0
FUNC 692ea 1b 0 `<lambda_6e4b09c48022b2350581041d5f6b0c4c>::operator()'::`1'::filt$0
FUNC 6930b 1a 0 `__crt_seh_guarded_call<int>::operator()<<lambda_638799b9deba96c50f710eeac98168cd>,<lambda_22ebabd17bc4fa466a2aca6d8deb888d> &,<lambda_a6f7d7db0129f75315ebf26d50c089f1> >'::`1'::fin$0
FUNC 6932b 1a 0 `__crt_seh_guarded_call<int>::operator()<<lambda_7777bce6b2f8c936911f934f8298dc43>,<lambda_f03950bc5685219e0bcd2087efbe011e> &,<lambda_3883c3dff614d5e0c5f61bb1ac94921c> >'::`1'::fin$0
FUNC 6934b 1b 0 `__crt_seh_guarded_call<int>::operator()<<lambda_63c71d947f2ce890aa4aac7392f1cbed>,<lambda_e3269ba96939e7713c73908c0d757d25> &,<lambda_3776af017df72547960a8ac98bb265e7> >'::`1'::fin$0
FUNC 6936c 1b 0 `__crt_seh_guarded_call<int>::operator()<<lambda_676bd5779251ec186b530f0a904b4b35>,<lambda_b579ea784fd840951dfbcbdaebf709fd> &,<lambda_10027885da78ada7fb00668d7e2e96b5> >'::`1'::fin$0
FUNC 6938d 1b 0 `__crt_seh_guarded_call<int>::operator()<<lambda_8be82e0ce9ca3860586e20edfb7a650e>,<lambda_673ffc0dc9412a0afcf2088e0e1b9bdc> &,<lambda_c997b1ad71a4c19edf3d1d12a5864641> >'::`1'::fin$0
FUNC 693ae 1b 0 `__crt_seh_guarded_call<int>::operator()<<lambda_d1b8e9147f7260ae436300a3cb83e6d4>,<lambda_e638437c4db75b75056fab6aaf7e4f15> &,<lambda_8c9f37a989ed2ac074735e5b535e306a> >'::`1'::fin$0
FUNC 693cf 1b 0 `__crt_seh_guarded_call<int>::operator()<<lambda_e746820a99d01fe878d2dbd7f1018dff>,<lambda_a993425e72f5bd8b40f5859286f153c4> &,<lambda_4dad5d88921143c78c186dc2683775b0> >'::`1'::fin$0
FUNC 693f0 1b 0 `__crt_seh_guarded_call<int>::operator()<<lambda_fe5404e9642edbb7c8ae71e1dcfa4018>,<lambda_36eeb330e99a4f0bf8a7da86d0894cb9> &,<lambda_2fa474834de80dc12f7a3c6eddd7a366> >'::`1'::fin$0
FUNC 69411 1a 0 `__crt_seh_guarded_call<void>::operator()<<lambda_0ae27a3a962d80f24befdcbee591983d>,<lambda_8d0ee55de4b1038c4002e0adecdf1839> &,<lambda_dc504788e8f1664fe9b84e20bfb512f2> >'::`1'::fin$0
FUNC 69431 1a 0 `__crt_seh_guarded_call<void>::operator()<<lambda_2d41944a1d46af3157314b8a01080d33>,<lambda_8f455de75cd7d7f24b4096f044d8b9e6> &,<lambda_aa500f224e6afead328df44964fe2772> >'::`1'::fin$0
FUNC 69451 1a 0 `__crt_seh_guarded_call<void>::operator()<<lambda_aa87e3671a710a21b5dc78c0bdf72e11>,<lambda_92619d2358a28f41a33ba319515a20b9> &,<lambda_6992ecaafeb10aed2b74cb1fae11a551> >'::`1'::fin$0
FUNC 69471 1a 0 `__crt_seh_guarded_call<void>::operator()<<lambda_f2e299630e499de9f9a165e60fcd3db5>,<lambda_2ae9d31cdba2644fcbeaf08da7c24588> &,<lambda_40d01ff24d0e7b3814fdbdcee8eab3c7> >'::`1'::fin$0
FUNC 69491 1a 0 `__crt_seh_guarded_call<void>::operator()<<lambda_efdfa57d1f175319df784efa44bb7b81>,<lambda_5f0a4c1567f8adc6734073e5d1e1b35c> &,<lambda_2e8a7d3640ea6ccb4c2413664c2db6fd> >'::`1'::fin$0
FUNC 694b1 19 0 `update_thread_multibyte_data_internal'::`1'::fin$0
FUNC 694d0 1a 0 `__crt_seh_guarded_call<int>::operator()<<lambda_48fc4a32460bb0512d3b13f8499328be>,<lambda_6c3dac0a4f3f9cefca9bb494422f9b77> &,<lambda_0a2f2c9f9a56eb2b08bfa6ff61d331c5> >'::`1'::fin$0
FUNC 694f0 19 0 __acrt_initialize_lowio$fin$0
FUNC 6950f 16 0 _query_new_handler$fin$0
FUNC 6952a 16 0 _set_new_handler$fin$0
FUNC 69545 1a 0 `__crt_seh_guarded_call<void (__cdecl*)(int)>::operator()<<lambda_450d765d439847d4c735a33c368b5fc0>,<lambda_44731a7d0e6d81c3e6aa82d741081786> &,<lambda_601a2a7da3b7a96e9554ac7215c4b07c> >'::`1'::fin$0
FUNC 69565 19 0 `ctrlevent_capture'::`1'::fin$0
FUNC 69584 21 0 raise$fin$0
FUNC 695ad 19 0 signal$fin$0
FUNC 695cc 1b 0 `__crt_seh_guarded_call<void>::operator()<<lambda_842d9ff0dc9ef11c61343bbaebe7f885>,<lambda_c5860995281e5c4ce005b3de8f5874ee> &,<lambda_d90129c13df834fdcbf8d2b88dafcf2d> >'::`1'::fin$0
FUNC 695ed 1d 0 `__crt_seh_guarded_call<void>::operator()<<lambda_886d6c58226a84441f68b9f2b8217b83>,<lambda_ab61a845afdef5b7c387490eaf3616ee> &,<lambda_f7f22ab5edc0698d5f6905b0d3f44752> >'::`1'::fin$0
FUNC 69611 1b 0 `__crt_seh_guarded_call<int>::operator()<<lambda_c376a267cfb53b6959b3b692ec76b120>,<lambda_9a32fed5bf61b6b509b2d3f6003082a1> &,<lambda_572fbb9fa0ab338edf41edfd4b5fcc8d> >'::`1'::fin$0
FUNC 69632 18 0 fputwc$fin$0
FUNC 69650 1a 0 fputc$fin$0
FUNC 69670 1a 0 `__crt_seh_guarded_call<void>::operator()<<lambda_0a55505eb881d180377eb1fc64ffb544>,<lambda_862e9a3f04921db6ca1ce3faa2bf3edf> &,<lambda_c91f0b5e4ab41df1063aa1a95f49bd71> >'::`1'::fin$0
FUNC 69690 1a 0 `__crt_seh_guarded_call<void>::operator()<<lambda_1d892b297fdedeee07ed8124eeb2f2fa>,<lambda_ffc046909424fd52df0ac47e64813305> &,<lambda_01a7098693036236037e7cdb9bca3d73> >'::`1'::fin$0
FUNC 696b0 1a 0 `__crt_seh_guarded_call<void>::operator()<<lambda_410d79af7f07d98d83a3f525b3859a53>,<lambda_3e16ef9562a7dcce91392c22ab16ea36> &,<lambda_38119f0e861e05405d8a144b9b982f0a> >'::`1'::fin$0
FUNC 696d0 21 0 `__crt_seh_guarded_call<void>::operator()<<lambda_7f2adfce497ff2baa965cd4f576ecfd1>,<lambda_2a444430fde8c29194d880d93eed5e8f> &,<lambda_8dff2cf36a5417162780cd64fa2883ef> &>'::`1'::fin$0
FUNC 696f9 1a 0 `__crt_seh_guarded_call<void>::operator()<<lambda_a48fd90c2dacdd6561e44078457d03a7>,<lambda_ebab98244f73a74f49db879bf13fa982> &,<lambda_8b3bdacfa7480f205f16cb49964db269> >'::`1'::fin$0
FUNC 69719 19 0 _free_locale$fin$1
FUNC 69732 19 0 _free_locale$fin$0
FUNC 69757 19 0 __acrt_update_thread_locale_data$fin$0
FUNC 69776 19 0 __acrt_lowio_ensure_fh_exists$fin$0
FUNC 69795 19 0 _alloc_osfhnd$fin$0
FUNC 697b4 41 0 _open_osfhandle$fin$0
FUNC 69805 1a 0 `__crt_seh_guarded_call<int>::operator()<<lambda_a37b2b86f63e897a80ea819b0eb08c01>,<lambda_38ce7e780aa69e748d6df282ebc68efe> &,<lambda_99fb1378e971ab6e7edea83e3a7a83a2> >'::`1'::fin$0
FUNC 69825 17 0 _write$fin$0
FUNC 69841 19 0 _fcloseall$fin$0
FUNC 69860 17 0 `common_lseek<long>'::`1'::fin$0
FUNC 6987c 17 0 `common_lseek<__int64>'::`1'::fin$0
FUNC 69898 1a 0 `__crt_seh_guarded_call<unsigned short>::operator()<<lambda_0384895ae1aa6ccbfe369a30d6ca2ef7>,<lambda_9e0b6ab72a5b3ae37ad997d08b519f50> &,<lambda_7e22f70504d73c22058e5832bde5914f> >'::`1'::fin$0
FUNC 698b8 17 0 _read$fin$0
FUNC 698d4 18 0 fclose$fin$0
FUNC 698f2 1a 0 `__crt_seh_guarded_call<int>::operator()<<lambda_751a882b2c74d4b022dec766aa51a29a>,<lambda_628dfdc04ba53c8bfc02c9951375f3f5> &,<lambda_f6c7be5f7998530c34de24c7437d6b54> >'::`1'::fin$0
FUNC 69912 19 0 `__acrt_stdio_allocate_stream'::`1'::fin$0
FUNC 69931 2c 0 common_control87$filt$0
FUNC 69968 2c 0 _ctrlfp$filt$0
FUNC 699a0 20 0 _IsNonwritableInCurrentImage$filt$0
PUBLIC 699c0 0 <unknown in basic-opt64.dll>
STACK CFI INIT 6af0 68 .cfa: $rsp 48 + $rsi: .cfa 16 - ^ .ra: .cfa 8 - ^
STACK CFI INIT 9398 50 .cfa: $rsp 48 + .ra: .cfa 8 - ^
STACK CFI INIT 93fc 119 .cfa: $rsp 48 + $r14: .cfa 16 - ^ $rbx: .cfa 0 - ^ $rsi: .cfa 0 - ^ $rdi: .cfa 0 - ^ .ra: .cfa 8 - ^
STACK CFI INIT 955c 8e .cfa: $rsp 48 + $rdi: .cfa 16 - ^ $rbx: .cfa 0 - ^ $rsi: .cfa 0 - ^ .ra: .cfa 8 - ^
STACK CFI INIT 9610 133 .cfa: $rsp 96 + $rsi: .cfa 16 - ^ $rdi: .cfa 24 - ^ $r14: .cfa 32 - ^ $rbx: .cfa 0 - ^ .ra: .cfa 8 - ^
STACK CFI INIT 97b8 3d .cfa: $rsp 48 + $rdi: .cfa 16 - ^ $rbx: .cfa 0 - ^ $rsi: .cfa 0 - ^ .ra: .cfa 8 - ^
STACK CFI INIT 980c 6b .cfa: $rsp 48 + $rbp: .cfa 16 - ^ .ra: .cfa 8 - ^
STACK CFI INIT 9894 ac .cfa: $rsp 48 + $rbp: .cfa 16 - ^ $rbx: .cfa 0 - ^ .ra: .cfa 8 - ^
STACK CFI INIT 99b0 1b .cfa: $rsp 48 + .ra: .cfa 8 - ^
STACK CFI INIT 9a24 14 .cfa: $rsp 48 + .ra: .cfa 8 - ^
STACK CFI INIT 9aec 39 .cfa: $rsp 48 + .ra: .cfa 8 - ^
STACK CFI INIT 9b34 34 .cfa: $rsp 48 + .ra: .cfa 8 - ^
STACK CFI INIT 9b78 15 .cfa: $rsp 48 + .ra: .cfa 8 - ^
STACK CFI INIT 9b94 28 .cfa: $rsp 48 + .ra: .cfa 8 - ^
STACK CFI INIT 9bc8 15 .cfa: $rsp 48 + .ra: .cfa 8 - ^
STACK CFI INIT 9be4 60 .cfa: $rsp 48 + $rdi: .cfa 16 - ^ $rbx: .cfa 0 - ^ $rbp: .cfa 0 - ^ $rsi: .cfa 0 - ^ .ra: .cfa 8 - ^
STACK CFI INIT 9c5c 30 .cfa: $rsp 48 + .ra: .cfa 8 - ^
STACK CFI INIT 9c98 14 .cfa: $rsp 48 + .ra: .cfa 8 - ^
STACK CFI INIT 9cb4 49 .cfa: $rsp 48 + $rbx: .cfa 16 - ^ .ra: .cfa 8 - ^
STACK CFI INIT 9d10 d8 .cfa: $rsp 80 + $rbx: .cfa 16 - ^ .ra: .cfa 8 - ^
STACK CFI INIT 9e20 99 .cfa: $rsp 32 + .ra: .cfa 8 - ^
STACK CFI INIT 9ee0 24 .cfa: $rsp 48 + $rbx: .cfa 16 - ^ .ra: .cfa 8 - ^
STACK CFI INIT 9f10 2b .cfa: $rsp 48 + $rbx: .cfa 16 - ^ .ra: .cfa 8 - ^
STACK CFI INIT 9f48 4f .cfa: $rsp 48 + $rbx: .cfa 16 - ^ .ra: .cfa 8 - ^
STACK CFI INIT 9ff0 17 .cfa: $rsp 48 + .ra: .cfa 8 - ^
STACK CFI INIT a024 14a .cfa: $rsp 1488 + $rbp: .cfa 16 - ^ $rbx: .cfa 0 - ^ .ra: .cfa 8 - ^
STACK CFI INIT a1c0 3a .cfa: $rsp 160 + .ra: .cfa 8 - ^
STACK CFI INIT a214 52 .cfa: $rsp 48 + .ra: .cfa 8 - ^
STACK CFI INIT a294 38 .cfa: $rsp 48 + .ra: .cfa 8 - ^
STACK CFI INIT a2dc 3c .cfa: $rsp 48 + $rdi: .cfa 16 - ^ $rbx: .cfa 0 - ^ .ra: .cfa 8 - ^
STACK CFI INIT a328 3c .cfa: $rsp 48 + $rdi: .cfa 16 - ^ $rbx: .cfa 0 - ^ .ra: .cfa 8 - ^
STACK CFI INIT a3a0 1b9 .cfa: $rsp 48 + $rsi: .cfa 16 - ^ $rdi: .cfa 24 - ^ $r14: .cfa 32 - ^ $rbx: .cfa 0 - ^ $rbp: .cfa 0 - ^ .ra: .cfa 8 - ^
STACK CFI INIT a634 20b .cfa: $rsp 112 + $rdi: .cfa 16 - ^ $r12: .cfa 24 - ^ $r13: .cfa 32 - ^ $r14: .cfa 40 - ^ $r15: .cfa 48 - ^ $rbx: .cfa 0 - ^ $rbp: .cfa 0 - ^ $rsi: .cfa 0 - ^ .ra: .cfa 8 - ^
STACK CFI INIT a90c 1b .cfa: $rsp 48 + $rbx: .cfa 16 - ^ .ra: .cfa 8 - ^
STACK CFI INIT a930 1b .cfa: $rsp 48 + $rbx: .cfa 16 - ^ .ra: .cfa 8 - ^
STACK CFI INIT a9cc 1b .cfa: $rsp 48 + $rbx: .cfa 16 - ^ .ra: .cfa 8 - ^
STACK CFI INIT a9f0 1b .cfa: $rsp 48 + $rbx: .cfa 16 - ^ .ra: .cfa 8 - ^
STACK CFI INIT aa44 2a .cfa: $rsp 48 + $rbx: .cfa 16 - ^ .ra: .cfa 8 - ^
STACK CFI INIT aac4 11c .cfa: $rsp 112 + $rdi: .cfa 16 - ^ $r12: .cfa 24 - ^ $r13: .cfa 32 - ^ $r14: .cfa 40 - ^ $r15: .cfa 48 - ^ $rbx: .cfa 0 - ^ $rbp: .cfa 0 - ^ $rsi: .cfa 0 - ^ .ra: .cfa 8 - ^
STACK CFI INIT ac28 32 .cfa: $rsp 48 + .ra: .cfa 8 - ^
STACK CFI INIT ac68 14 .cfa: $rsp 48 + .ra: .cfa 8 - ^
STACK CFI INIT ac84 12 .cfa: $rsp 48 + .ra: .cfa 8 - ^
STACK CFI INIT ac9c 20 .cfa: $rsp 48 + .ra: .cfa 8 - ^
STACK CFI INIT acc4 10 .cfa: $rsp 48 + .ra: .cfa 8 - ^
STACK CFI INIT acf0 10 .cfa: $rsp 16 + $rdi: .cfa 16 - ^ .ra: .cfa 8 - ^
STACK CFI INIT ad10 190 .cfa: $rsp 8 + .ra: .cfa 8 - ^
STACK CFI INIT af20 18 .cfa: $rsp 8 + .ra: .cfa 8 - ^
STACK CFI INIT af40 1 .cfa: $rsp 8 + .ra: .cfa 8 - ^
STACK CFI INIT af50 1 .cfa: $rsp 8 + .ra: .cfa 8 - ^
STACK CFI INIT b000 5b .cfa: $rsp 48 + $rdi: .cfa 16 - ^ $rbx: .cfa 0 - ^ .ra: .cfa 8 - ^
STACK CFI INIT b074 71 .cfa: $rsp 48 + .ra: .cfa 8 - ^
STACK CFI INIT b110 2f .cfa: $rsp 48 + $rbx: .cfa 16 - ^ .ra: .cfa 8 - ^
STACK CFI INIT b184 4a .cfa: $rsp 48 + .ra: .cfa 8 - ^
STACK CFI INIT b1e0 5b .cfa: $rsp 64 + $rbx: .cfa 16 - ^ .ra: .cfa 8 - ^
STACK CFI INIT b254 12 .cfa: $rsp 48 + .ra: .cfa 8 - ^
STACK CFI INIT b26c 12 .cfa: $rsp 48 + .ra: .cfa 8 - ^
STACK CFI INIT b284 12 .cfa: $rsp 48 + .ra: .cfa 8 - ^
STACK CFI INIT b29c a .cfa: $rsp 48 + .ra: .cfa 8 - ^
STACK CFI INIT b2a8 a5 .cfa: $rsp 48 + $rbx: .cfa 16 - ^ .ra: .cfa 8 - ^
STACK CFI INIT b384 cc .cfa: $rsp 48 + $rdi: .cfa 16 - ^ $rbx: .cfa 0 - ^ $rsi: .cfa 0 - ^ .ra: .cfa 8 - ^
STACK CFI INIT b498 31 .cfa: $rsp 48 + $rbx: .cfa 16 - ^ .ra: .cfa 8 - ^
STACK CFI INIT b4d8 84 .cfa: $rsp 48 + $rdi: .cfa 16 - ^ $rbx: .cfa 0 - ^ $rsi: .cfa 0 - ^ .ra: .cfa 8 - ^
STACK CFI INIT b580 40 .cfa: $rsp 48 + $rbx: .cfa 16 - ^ .ra: .cfa 8 - ^
STACK CFI INIT b618 a6 .cfa: $rsp 80 + $rbx: .cfa 16 - ^ .ra: .cfa 8 - ^
STACK CFI INIT b6e8 88 .cfa: $rsp 80 + $rbx: .cfa 16 - ^ .ra: .cfa 8 - ^
STACK CFI INIT b888 88 .cfa: $rsp 48 + $rdi: .cfa 16 - ^ $rbx: .cfa 0 - ^ $rsi: .cfa 0 - ^ .ra: .cfa 8 - ^
STACK CFI INIT b964 31 .cfa: $rsp 48 + $rbx: .cfa 16 - ^ .ra: .cfa 8 - ^
STACK CFI INIT b9a4 7e .cfa: $rsp 48 + $rdi: .cfa 16 - ^ $rbx: .cfa 0 - ^ $rsi: .cfa 0 - ^ .ra: .cfa 8 - ^
STACK CFI INIT ba44 36 .cfa: $rsp 48 + $rbx: .cfa 16 - ^ .ra: .cfa 8 - ^
STACK CFI INIT bb00 36 .cfa: $rsp 64 + $rdi: .cfa 16 - ^ $rbx: .cfa 0 - ^ .ra: .cfa 8 - ^
STACK CFI INIT bb44 36 .cfa: $rsp 64 + $rdi: .cfa 16 - ^ $rbx: .cfa 0 - ^ .ra: .cfa 8 - ^
STACK CFI INIT bb88 49 .cfa: $rsp 64 + $rbx: .cfa 16 - ^ .ra: .cfa 8 - ^
STACK CFI INIT bbe4 29 .cfa: $rsp 48 + $rbx: .cfa 16 - ^ .ra: .cfa 8 - ^
STACK CFI INIT bc18 29 .cfa: $rsp 48 + $rbx: .cfa 16 - ^ .ra: .cfa 8 - ^
STACK CFI INIT bc4c 29 .cfa: $rsp 48 + $rbx: .cfa 16 - ^ .ra: .cfa 8 - ^
STACK CFI INIT bc80 29 .cfa: $rsp 48 + $rbx: .cfa 16 - ^ .ra: .cfa 8 - ^
STACK CFI INIT bcb4 29 .cfa: $rsp 48 + $rbx: .cfa 16 - ^ .ra: .cfa 8 - ^
STACK CFI INIT bce8 44 .cfa: $rsp 48 + $rbx: .cfa 16 - ^ .ra: .cfa 8 - ^
STACK CFI INIT bd40 7d .cfa: $rsp 48 + $rdi: .cfa 16 - ^ $rbx: .cfa 0 - ^ .ra: .cfa 8 - ^
STACK CFI INIT bddc 95 .cfa: $rsp 48 + $rdi: .cfa 16 - ^ $rbx: .cfa 0 - ^ $rsi: .cfa 0 - ^ .ra: .cfa 8 - ^
STACK CFI INIT be98 8a .cfa: $rsp 48 + $rdi: .cfa 16 - ^ $rbx: .cfa 0 - ^ $rsi: .cfa 0 - ^ .ra: .cfa 8 - ^
STACK CFI INIT bf44 6b .cfa: $rsp 48 + $rbx: .cfa 16 - ^ .ra: .cfa 8 - ^
STACK CFI INIT bfcc 67 .cfa: $rsp 48 + $rdi: .cfa 16 - ^ $rbx: .cfa 0 - ^ .ra: .cfa 8 - ^
STACK CFI INIT c084 42 .cfa: $rsp 48 + $rbx: .cfa 16 - ^ .ra: .cfa 8 - ^
STACK CFI INIT c100 63 .cfa: $rsp 48 + $rdi: .cfa 16 - ^ $rbx: .cfa 0 - ^ .ra: .cfa 8 - ^
STACK CFI INIT c17c db3 .cfa: $rsp 352 + $rbp: .cfa 16 - ^ $rsi: .cfa 24 - ^ $rdi: .cfa 32 - ^ $r12: .cfa 40 - ^ $r13: .cfa 48 - ^ $r14: .cfa 56 - ^ $r15: .cfa 64 - ^ $rbx: .cfa 0 - ^ .ra: .cfa 8 - ^
STACK CFI INIT d35c a6 .cfa: $rsp 48 + $rdi: .cfa 16 - ^ $rbx: .cfa 0 - ^ $rsi: .cfa 0 - ^ .ra: .cfa 8 - ^
STACK CFI INIT d4a0 12b .cfa: $rsp 96 + $rdi: .cfa 16 - ^ $rbx: .cfa 0 - ^ $rsi: .cfa 0 - ^ .ra: .cfa 8 - ^
STACK CFI INIT d618 f3 .cfa: $rsp 64 + $rbx: .cfa 16 - ^ .ra: .cfa 8 - ^
STACK CFI INIT d748 253 .cfa: $rsp 160 + $rbp: .cfa 16 - ^ $r14: .cfa 24 - ^ $r15: .cfa 32 - ^ $rbx: .cfa 0 - ^ $rdi: .cfa 0 - ^ $r12: .cfa 0 - ^ .ra: .cfa 8 - ^
STACK CFI INIT da30 c8 .cfa: $rsp 80 + $rbx: .cfa 16 - ^ .ra: .cfa 8 - ^
STACK CFI INIT db2c 468 .cfa: $rsp 112 + $rbp: .cfa 16 - ^ $r14: .cfa 24 - ^ $r15: .cfa 32 - ^ $rbx: .cfa 0 - ^ $rsi: .cfa 0 - ^ $rdi: .cfa 0 - ^ .ra: .cfa 8 - ^
STACK CFI INIT e0b0 11d .cfa: $rsp 64 + $rdi: .cfa 16 - ^ $rbx: .cfa 0 - ^ $rbp: .cfa 0 - ^ $rsi: .cfa 0 - ^ .ra: .cfa 8 - ^
STACK CFI INIT e214 19 .cfa: $rsp 48 + $rbx: .cfa 16 - ^ .ra: .cfa 8 - ^
STACK CFI INIT e234 13e .cfa: $rsp 64 + $rbp: .cfa 16 - ^ $rbx: .cfa 0 - ^ .ra: .cfa 8 - ^
STACK CFI INIT e3c4 7b8 .cfa: $rsp 288 + $rbp: .cfa 16 - ^ $rsi: .cfa 24 - ^ $rdi: .cfa 32 - ^ $r12: .cfa 40 - ^ $r13: .cfa 48 - ^ $r14: .cfa 56 - ^ $r15: .cfa 64 - ^ $rbx: .cfa 0 - ^ .ra: .cfa 8 - ^
STACK CFI INIT ed6c 3e .cfa: $rsp 96 + $rbx: .cfa 16 - ^ .ra: .cfa 8 - ^
STACK CFI INIT edbc e6 .cfa: $rsp 112 + $rbp: .cfa 16 - ^ $rbx: .cfa 0 - ^ .ra: .cfa 8 - ^
STACK CFI INIT eedc 2a8 .cfa: $rsp 144 + $rbp: .cfa 16 - ^ $r14: .cfa 24 - ^ $r15: .cfa 32 - ^ $rbx: .cfa 0 - ^ $rsi: .cfa 0 - ^ $r12: .cfa 0 - ^ .ra: .cfa 8 - ^
STACK CFI INIT f230 179 .cfa: $rsp 112 + $rbp: .cfa 16 - ^ $rbx: .cfa 0 - ^ $rsi: .cfa 0 - ^ $rdi: .cfa 0 - ^ .ra: .cfa 8 - ^
STACK CFI INIT f468 19 .cfa: $rsp 48 + $rbx: .cfa 16 - ^ .ra: .cfa 8 - ^
STACK CFI INIT f488 160 .cfa: $rsp 112 + $rbp: .cfa 16 - ^ $rbx: .cfa 0 - ^ $rsi: .cfa 0 - ^ $rdi: .cfa 0 - ^ .ra: .cfa 8 - ^
STACK CFI INIT f640 17 .cfa: $rsp 48 + $rbx: .cfa 16 - ^ .ra: .cfa 8 - ^
STACK CFI INIT f65c fc .cfa: $rsp 96 + $rbp: .cfa 16 - ^ $rbx: .cfa 0 - ^ .ra: .cfa 8 - ^
STACK CFI INIT f798 214 .cfa: $rsp 112 + $rbp: .cfa 16 - ^ $rbx: .cfa 0 - ^ $rdi: .cfa 0 - ^ .ra: .cfa 8 - ^
STACK CFI INIT fa34 c6 .cfa: $rsp 144 + $rdi: .cfa 16 - ^ $rbx: .cfa 0 - ^ $rsi: .cfa 0 - ^ .ra: .cfa 8 - ^
STACK CFI INIT fb2c 556 .cfa: $rsp 208 + $rbp: .cfa 16 - ^ $r12: .cfa 24 - ^ $r13: .cfa 32 - ^ $r14: .cfa 40 - ^ $r15: .cfa 48 - ^ $rbx: .cfa 0 - ^ $rsi: .cfa 0 - ^ $rdi: .cfa 0 - ^ .ra: .cfa 8 - ^
STACK CFI INIT 101d8 19 .cfa: $rsp 48 + $rbx: .cfa 16 - ^ .ra: .cfa 8 - ^
STACK CFI INIT 1022c 29 .cfa: $rsp 48 + .ra: .cfa 8 - ^
STACK CFI INIT 10260 35 .cfa: $rsp 48 + $rbx: .cfa 16 - ^ .ra: .cfa 8 - ^
STACK CFI INIT 102c0 71 .cfa: $rsp 96 + $rdi: .cfa 16 - ^ $rbx: .cfa 0 - ^ .ra: .cfa 8 - ^
STACK CFI INIT 10350 a9 .cfa: $rsp 48 + $rdi: .cfa 16 - ^ $rbx: .cfa 0 - ^ $rsi: .cfa 0 - ^ .ra: .cfa 8 - ^
STACK CFI INIT 10424 45 .cfa: $rsp 48 + $rbx: .cfa 16 - ^ .ra: .cfa 8 - ^
STACK CFI INIT 1050c 76d .cfa: $rsp 160 + $rbp: .cfa 16 - ^ $rdi: .cfa 24 - ^ $r12: .cfa 32 - ^ $r14: .cfa 40 - ^ $r15: .cfa 48 - ^ $rbx: .cfa 0 - ^ $rsi: .cfa 0 - ^ .ra: .cfa 8 - ^
STACK CFI INIT 10e54 1e .cfa: $rsp 48 + $rbx: .cfa 16 - ^ .ra: .cfa 8 - ^
STACK CFI INIT 10e7c 1e .cfa: $rsp 48 + $rbx: .cfa 16 - ^ .ra: .cfa 8 - ^
STACK CFI INIT 10ea4 24d .cfa: $rsp 96 + $rbp: .cfa 16 - ^ $rbx: .cfa 0 - ^ $rsi: .cfa 0 - ^ $rdi: .cfa 0 - ^ .ra: .cfa 8 - ^
STACK CFI INIT 11184 162 .cfa: $rsp 96 + $rbp: .cfa 16 - ^ $rbx: .cfa 0 - ^ $rdi: .cfa 0 - ^ .ra: .cfa 8 - ^
STACK CFI INIT 11340 136 .cfa: $rsp 96 + $rbp: .cfa 16 - ^ $r14: .cfa 24 - ^ $r15: .cfa 32 - ^ $rbx: .cfa 0 - ^ $rsi: .cfa 0 - ^ $rdi: .cfa 0 - ^ .ra: .cfa 8 - ^
STACK CFI INIT 114c4 17 .cfa: $rsp 48 + $rbx: .cfa 16 - ^ .ra: .cfa 8 - ^
STACK CFI INIT 114e0 13d .cfa: $rsp 64 + $rdi: .cfa 16 - ^ $rbx: .cfa 0 - ^ $rbp: .cfa 0 - ^ $rsi: .cfa 0 - ^ .ra: .cfa 8 - ^
STACK CFI INIT 1166c 34 .cfa: $rsp 48 + $rbx: .cfa 16 - ^ .ra: .cfa 8 - ^
STACK CFI INIT 116b0 478 .cfa: $rsp 544 + $rbp: .cfa 16 - ^ $rdi: .cfa 24 - ^ $r14: .cfa 32 - ^ $rbx: .cfa 0 - ^ $rsi: .cfa 0 - ^ .ra: .cfa 8 - ^
STACK CFI INIT 11c48 103 .cfa: $rsp 96 + $rbx: .cfa 16 - ^ .ra: .cfa 8 - ^
STACK CFI INIT 11d8c 94 .cfa: $rsp 80 + $rdi: .cfa 16 - ^ $rbx: .cfa 0 - ^ .ra: .cfa 8 - ^
STACK CFI INIT 11e48 3e .cfa: $rsp 96 + $rbx: .cfa 16 - ^ .ra: .cfa 8 - ^
STACK CFI INIT 11eb8 94 .cfa: $rsp 48 + $rdi: .cfa 16 - ^ $rbx: .cfa 0 - ^ $rsi: .cfa 0 - ^ .ra: .cfa 8 - ^
STACK CFI INIT 11fe4 2d .cfa: $rsp 48 + .ra: .cfa 8 - ^
STACK CFI INIT 1201c 4b .cfa: $rsp 48 + $rdi: .cfa 16 - ^ $rbx: .cfa 0 - ^ .ra: .cfa 8 - ^
STACK CFI INIT 120c0 d0 .cfa: $rsp 80 + $rbx: .cfa 16 - ^ .ra: .cfa 8 - ^
STACK CFI INIT 121fc 4c .cfa: $rsp 48 + $rbx: .cfa 16 - ^ .ra: .cfa 8 - ^
STACK CFI INIT 1225c 31a .cfa: $rsp 288 + $rbp: .cfa 16 - ^ $r14: .cfa 24 - ^ $r15: .cfa 32 - ^ $rbx: .cfa 0 - ^ $rsi: .cfa 0 - ^ $rdi: .cfa 0 - ^ .ra: .cfa 8 - ^
STACK CFI INIT 1263c 3a0 .cfa: $rsp 256 + $rbp: .cfa 16 - ^ $rbx: .cfa 0 - ^ $rsi: .cfa 0 - ^ $rdi: .cfa 0 - ^ .ra: .cfa 8 - ^
STACK CFI INIT 12ac4 1fa .cfa: $rsp 432 + $rbp: .cfa 16 - ^ $r12: .cfa 24 - ^ $r13: .cfa 32 - ^ $r14: .cfa 40 - ^ $r15: .cfa 48 - ^ $rbx: .cfa 0 - ^ $rsi: .cfa 0 - ^ .ra: .cfa 8 - ^
STACK CFI INIT 12d3c 42 .cfa: $rsp 96 + $rbx: .cfa 16 - ^ .ra: .cfa 8 - ^
STACK CFI INIT 12dbc 35e .cfa: $rsp 48 + .ra: .cfa 8 - ^
STACK CFI INIT 131f4 109 .cfa: $rsp 80 + $rdi: .cfa 16 - ^ $rbx: .cfa 0 - ^ .ra: .cfa 8 - ^
STACK CFI INIT 13340 58 .cfa: $rsp 48 + $rbx: .cfa 16 - ^ .ra: .cfa 8 - ^
STACK CFI INIT 133b0 17 .cfa: $rsp 48 + $rbx: .cfa 16 - ^ .ra: .cfa 8 - ^
STACK CFI INIT 133cc 5f .cfa: $rsp 64 + $rbx: .cfa 16 - ^ .ra: .cfa 8 - ^
STACK CFI INIT 13444 1fd .cfa: $rsp 144 + $rbp: .cfa 16 - ^ $rbx: .cfa 0 - ^ $rdi: .cfa 0 - ^ .ra: .cfa 8 - ^
STACK CFI INIT 136c0 2d9 .cfa: $rsp 176 + $rbp: .cfa 16 - ^ $rdi: .cfa 24 - ^ $r14: .cfa 32 - ^ $rbx: .cfa 0 - ^ $rsi: .cfa 0 - ^ .ra: .cfa 8 - ^
STACK CFI INIT 13b30 28 .cfa: $rsp 48 + .ra: .cfa 8 - ^
STACK CFI INIT 13b64 53 .cfa: $rsp 48 + $rdi: .cfa 16 - ^ $rbx: .cfa 0 - ^ $rsi: .cfa 0 - ^ .ra: .cfa 8 - ^
STACK CFI INIT 13bf8 f5 .cfa: $rsp 96 + $rdi: .cfa 16 - ^ $rbx: .cfa 0 - ^ .ra: .cfa 8 - ^
STACK CFI INIT 13de8 27 .cfa: $rsp 80 + .ra: .cfa 8 - ^
STACK CFI INIT 13e18 132 .cfa: $rsp 224 + $r14: .cfa 16 - ^ $rbx: .cfa 0 - ^ $rsi: .cfa 0 - ^ $rdi: .cfa 0 - ^ .ra: .cfa 8 - ^
STACK CFI INIT 13f98 62 .cfa: $rsp 64 + $rdi: .cfa 16 - ^ $rbx: .cfa 0 - ^ $rbp: .cfa 0 - ^ $rsi: .cfa 0 - ^ .ra: .cfa 8 - ^
STACK CFI INIT 14014 52 .cfa: $rsp 96 + $rbx: .cfa 16 - ^ $rbp: .cfa 24 - ^ $rsi: .cfa 32 - ^ $rdi: .cfa 40 - ^ .ra: .cfa 8 - ^
STACK CFI INIT 1407c 106 .cfa: $rsp 224 + $rbx: .cfa 16 - ^ .ra: .cfa 8 - ^
STACK CFI INIT 141d8 1a .cfa: $rsp 48 + $rbx: .cfa 16 - ^ .ra: .cfa 8 - ^
STACK CFI INIT 141f8 1b .cfa: $rsp 48 + $rbx: .cfa 16 - ^ .ra: .cfa 8 - ^
STACK CFI INIT 14250 1b .cfa: $rsp 48 + $rbx: .cfa 16 - ^ .ra: .cfa 8 - ^
STACK CFI INIT 14274 34 .cfa: $rsp 48 + $rbx: .cfa 16 - ^ .ra: .cfa 8 - ^
STACK CFI INIT 142b8 1f .cfa: $rsp 48 + .ra: .cfa 8 - ^
STACK CFI INIT 142e0 4d .cfa: $rsp 48 + $rbx: .cfa 16 - ^ .ra: .cfa 8 - ^
STACK CFI INIT 14340 19 .cfa: $rsp 48 + .ra: .cfa 8 - ^
STACK CFI INIT 14360 cb .cfa: $rsp 48 + $rdi: .cfa 16 - ^ $rbx: .cfa 0 - ^ $rsi: .cfa 0 - ^ .ra: .cfa 8 - ^
STACK CFI INIT 14460 4d .cfa: $rsp 48 + $rdi: .cfa 16 - ^ $rbx: .cfa 0 - ^ .ra: .cfa 8 - ^
STACK CFI INIT 144c0 51 .cfa: $rsp 48 + .ra: .cfa 8 - ^
STACK CFI INIT 14528 22 .cfa: $rsp 48 + .ra: .cfa 8 - ^
STACK CFI INIT 14554 46 .cfa: $rsp 48 + $rbx: .cfa 16 - ^ .ra: .cfa 8 - ^
STACK CFI INIT 145cc 37 .cfa: $rsp 48 + $rbx: .cfa 16 - ^ .ra: .cfa 8 - ^
STACK CFI INIT 14774 119 .cfa: $rsp 64 + $rdi: .cfa 16 - ^ $r14: .cfa 24 - ^ $r15: .cfa 32 - ^ $rbx: .cfa 0 - ^ $rbp: .cfa 0 - ^ $rsi: .cfa 0 - ^ .ra: .cfa 8 - ^
STACK CFI INIT 148d4 1d6 .cfa: $rsp 80 + $rdi: .cfa 16 - ^ $r12: .cfa 24 - ^ $r13: .cfa 32 - ^ $r14: .cfa 40 - ^ $r15: .cfa 48 - ^ $rbx: .cfa 0 - ^ $rbp: .cfa 0 - ^ $rsi: .cfa 0 - ^ .ra: .cfa 8 - ^
STACK CFI INIT 14b20 fe .cfa: $rsp 48 + $r14: .cfa 16 - ^ $rbx: .cfa 0 - ^ $rbp: .cfa 0 - ^ $rsi: .cfa 0 - ^ $rdi: .cfa 0 - ^ .ra: .cfa 8 - ^
STACK CFI INIT 14c60 137 .cfa: $rsp 64 + $r12: .cfa 16 - ^ $r14: .cfa 24 - ^ $r15: .cfa 32 - ^ $rbx: .cfa 0 - ^ $rbp: .cfa 0 - ^ $rsi: .cfa 0 - ^ $rdi: .cfa 0 - ^ .ra: .cfa 8 - ^
STACK CFI INIT 14de4 73 .cfa: $rsp 48 + $rbx: .cfa 16 - ^ .ra: .cfa 8 - ^
STACK CFI INIT 14e74 45 .cfa: $rsp 48 + $rbx: .cfa 16 - ^ .ra: .cfa 8 - ^
STACK CFI INIT 14ecc 46 .cfa: $rsp 48 + $rbx: .cfa 16 - ^ .ra: .cfa 8 - ^
STACK CFI INIT 14f24 46 .cfa: $rsp 48 + $rbx: .cfa 16 - ^ .ra: .cfa 8 - ^
STACK CFI INIT 14f7c 51 .cfa: $rsp 48 + $rdi: .cfa 16 - ^ $rbx: .cfa 0 - ^ .ra: .cfa 8 - ^
STACK CFI INIT 14fe4 61 .cfa: $rsp 48 + $rdi: .cfa 16 - ^ $rbx: .cfa 0 - ^ $rsi: .cfa 0 - ^ .ra: .cfa 8 - ^
STACK CFI INIT 15060 2f .cfa: $rsp 8 + $rdi: .cfa 0 - ^ .ra: .cfa 8 - ^
STACK CFI INIT 1509c 3e .cfa: $rsp 48 + $rbx: .cfa 16 - ^ .ra: .cfa 8 - ^
STACK CFI INIT 1517c 2e .cfa: $rsp 48 + .ra: .cfa 8 - ^
STACK CFI INIT 15234 95 .cfa: $rsp 80 + $rdi: .cfa 16 - ^ $rbx: .cfa 0 - ^ $rbp: .cfa 0 - ^ $rsi: .cfa 0 - ^ .ra: .cfa 8 - ^
STACK CFI INIT 152f0 95 .cfa: $rsp 80 + $rdi: .cfa 16 - ^ $rbx: .cfa 0 - ^ $rbp: .cfa 0 - ^ $rsi: .cfa 0 - ^ .ra: .cfa 8 - ^
STACK CFI INIT 153ac 51 .cfa: $rsp 128 + $rbx: .cfa 16 - ^ .ra: .cfa 8 - ^
STACK CFI INIT 15414 51 .cfa: $rsp 128 + $rbx: .cfa 16 - ^ .ra: .cfa 8 - ^
STACK CFI INIT 155b4 56 .cfa: $rsp 48 + $rdi: .cfa 16 - ^ $rbx: .cfa 0 - ^ $rsi: .cfa 0 - ^ .ra: .cfa 8 - ^
STACK CFI INIT 157a4 2a .cfa: $rsp 48 + $rbx: .cfa 16 - ^ .ra: .cfa 8 - ^
STACK CFI INIT 157e4 64 .cfa: $rsp 48 + $rdi: .cfa 16 - ^ $rbx: .cfa 0 - ^ $rsi: .cfa 0 - ^ .ra: .cfa 8 - ^
STACK CFI INIT 15864 35 .cfa: $rsp 48 + .ra: .cfa 8 - ^
STACK CFI INIT 158a8 c9 .cfa: $rsp 80 + $rsi: .cfa 16 - ^ $rdi: .cfa 24 - ^ $r12: .cfa 32 - ^ $r14: .cfa 40 - ^ $r15: .cfa 48 - ^ $rbx: .cfa 0 - ^ $rbp: .cfa 0 - ^ .ra: .cfa 8 - ^
STACK CFI INIT 159d4 159 .cfa: $rsp 128 + $rbp: .cfa 16 - ^ $rsi: .cfa 24 - ^ $rdi: .cfa 32 - ^ $r12: .cfa 40 - ^ $r13: .cfa 48 - ^ $r14: .cfa 56 - ^ $r15: .cfa 64 - ^ $rbx: .cfa 0 - ^ .ra: .cfa 8 - ^
STACK CFI INIT 15b84 d3 .cfa: $rsp 128 + $rbp: .cfa 16 - ^ $r14: .cfa 24 - ^ $r15: .cfa 32 - ^ $rbx: .cfa 0 - ^ $rsi: .cfa 0 - ^ $rdi: .cfa 0 - ^ .ra: .cfa 8 - ^
STACK CFI INIT 15cd8 121 .cfa: $rsp 1472 + $rbp: .cfa 16 - ^ .ra: .cfa 8 - ^
STACK CFI INIT 15e44 170 .cfa: $rsp 1472 + $rbp: .cfa 16 - ^ $rbx: .cfa 0 - ^ .ra: .cfa 8 - ^
STACK CFI INIT 16054 175 .cfa: $rsp 64 + $rdi: .cfa 16 - ^ $rbx: .cfa 0 - ^ $rsi: .cfa 0 - ^ .ra: .cfa 8 - ^
STACK CFI INIT 16228 3a .cfa: $rsp 48 + $rbx: .cfa 16 - ^ .ra: .cfa 8 - ^
STACK CFI INIT 16270 53 .cfa: $rsp 48 + $rdi: .cfa 16 - ^ $rbx: .cfa 0 - ^ .ra: .cfa 8 - ^
STACK CFI INIT 162d8 12 .cfa: $rsp 48 + .ra: .cfa 8 - ^
STACK CFI INIT 162f0 12 .cfa: $rsp 48 + .ra: .cfa 8 - ^
STACK CFI INIT 16308 18 .cfa: $rsp 48 + $rbx: .cfa 16 - ^ .ra: .cfa 8 - ^
STACK CFI INIT 16328 18 .cfa: $rsp 48 + $rbx: .cfa 16 - ^ .ra: .cfa 8 - ^
STACK CFI INIT 16358 7d .cfa: $rsp 80 + $rdi: .cfa 16 - ^ $rbx: .cfa 0 - ^ $rsi: .cfa 0 - ^ .ra: .cfa 8 - ^
STACK CFI INIT 163f4 a1 .cfa: $rsp 112 + $rdi: .cfa 16 - ^ $rbx: .cfa 0 - ^ $rsi: .cfa 0 - ^ .ra: .cfa 8 - ^
STACK CFI INIT 164d0 13 .cfa: $rsp 24 + $rdi: .cfa 16 - ^ $rsi: .cfa 24 - ^ .ra: .cfa 8 - ^
STACK CFI INIT 164f0 435 .cfa: $rsp 8 + .ra: .cfa 8 - ^
STACK CFI INIT 16a40 27 .cfa: $rsp 48 + .ra: .cfa 8 - ^
STACK CFI INIT 16a70 29 .cfa: $rsp 48 + $rbx: .cfa 16 - ^ .ra: .cfa 8 - ^
STACK CFI INIT 16ab4 3b .cfa: $rsp 48 + $rdi: .cfa 16 - ^ $rbx: .cfa 0 - ^ .ra: .cfa 8 - ^
STACK CFI INIT 16b18 66 .cfa: $rsp 48 + $rbx: .cfa 16 - ^ .ra: .cfa 8 - ^
STACK CFI INIT 16b98 ed .cfa: $rsp 80 + $rdi: .cfa 16 - ^ $r12: .cfa 24 - ^ $r13: .cfa 32 - ^ $r14: .cfa 40 - ^ $r15: .cfa 48 - ^ $rbx: .cfa 0 - ^ $rbp: .cfa 0 - ^ $rsi: .cfa 0 - ^ .ra: .cfa 8 - ^
STACK CFI INIT 16cc4 1fd .cfa: $rsp 80 + $r13: .cfa 16 - ^ $r14: .cfa 24 - ^ $r15: .cfa 32 - ^ $rbx: .cfa 0 - ^ $rsi: .cfa 0 - ^ $rdi: .cfa 0 - ^ .ra: .cfa 8 - ^
STACK CFI INIT 16f40 201 .cfa: $rsp 80 + $r13: .cfa 16 - ^ $r14: .cfa 24 - ^ $r15: .cfa 32 - ^ $rbx: .cfa 0 - ^ $rsi: .cfa 0 - ^ $rdi: .cfa 0 - ^ .ra: .cfa 8 - ^
STACK CFI INIT 171c4 c0 .cfa: $rsp 48 + $r14: .cfa 16 - ^ $rbx: .cfa 0 - ^ $rsi: .cfa 0 - ^ $rdi: .cfa 0 - ^ .ra: .cfa 8 - ^
STACK CFI INIT 172b4 c1 .cfa: $rsp 48 + $r14: .cfa 16 - ^ $rbx: .cfa 0 - ^ $rsi: .cfa 0 - ^ $rdi: .cfa 0 - ^ .ra: .cfa 8 - ^
STACK CFI INIT 173a8 cd .cfa: $rsp 144 + $rsi: .cfa 16 - ^ $rdi: .cfa 24 - ^ $r12: .cfa 32 - ^ $r14: .cfa 40 - ^ $r15: .cfa 48 - ^ $rbx: .cfa 0 - ^ $rbp: .cfa 0 - ^ .ra: .cfa 8 - ^
STACK CFI INIT 174a8 cd .cfa: $rsp 144 + $rsi: .cfa 16 - ^ $rdi: .cfa 24 - ^ $r12: .cfa 32 - ^ $r14: .cfa 40 - ^ $r15: .cfa 48 - ^ $rbx: .cfa 0 - ^ $rbp: .cfa 0 - ^ .ra: .cfa 8 - ^
STACK CFI INIT 175a8 461 .cfa: $rsp 288 + $rbp: .cfa 16 - ^ $rsi: .cfa 24 - ^ $rdi: .cfa 32 - ^ $r12: .cfa 40 - ^ $r13: .cfa 48 - ^ $r14: .cfa 56 - ^ $r15: .cfa 64 - ^ $rbx: .cfa 0 - ^ .ra: .cfa 8 - ^
STACK CFI INIT 17b24 400 .cfa: $rsp 384 + $rbp: .cfa 16 - ^ $rbx: .cfa 24 - ^ $rsi: .cfa 32 - ^ $rdi: .cfa 40 - ^ $r12: .cfa 48 - ^ $r13: .cfa 56 - ^ $r14: .cfa 64 - ^ $r15: .cfa 72 - ^ .ra: .cfa 8 - ^
STACK CFI INIT 18024 22e .cfa: $rsp 224 + $rbp: .cfa 16 - ^ $rsi: .cfa 24 - ^ $rdi: .cfa 32 - ^ $r12: .cfa 40 - ^ $r13: .cfa 48 - ^ $r14: .cfa 56 - ^ $r15: .cfa 64 - ^ $rbx: .cfa 0 - ^ .ra: .cfa 8 - ^
STACK CFI INIT 182e0 237 .cfa: $rsp 352 + $rbp: .cfa 16 - ^ $rbx: .cfa 24 - ^ $rsi: .cfa 32 - ^ $rdi: .cfa 40 - ^ $r12: .cfa 48 - ^ $r13: .cfa 56 - ^ $r14: .cfa 64 - ^ $r15: .cfa 72 - ^ .ra: .cfa 8 - ^
STACK CFI INIT 185a4 141 .cfa: $rsp 48 + $r14: .cfa 16 - ^ $rbx: .cfa 0 - ^ $rbp: .cfa 0 - ^ $rsi: .cfa 0 - ^ $rdi: .cfa 0 - ^ .ra: .cfa 8 - ^
STACK CFI INIT 18738 146 .cfa: $rsp 48 + $r14: .cfa 16 - ^ $rbx: .cfa 0 - ^ $rbp: .cfa 0 - ^ $rsi: .cfa 0 - ^ $rdi: .cfa 0 - ^ .ra: .cfa 8 - ^
STACK CFI INIT 188d0 246 .cfa: $rsp 96 + $r14: .cfa 16 - ^ $rbx: .cfa 0 - ^ $rbp: .cfa 0 - ^ $rsi: .cfa 0 - ^ $rdi: .cfa 0 - ^ .ra: .cfa 8 - ^
STACK CFI INIT 18ba8 29f .cfa: $rsp 160 + $rdi: .cfa 16 - ^ $r14: .cfa 24 - ^ $r15: .cfa 32 - ^ $rbx: .cfa 0 - ^ $rbp: .cfa 0 - ^ $rsi: .cfa 0 - ^ .ra: .cfa 8 - ^
STACK CFI INIT 18f0c 6b .cfa: $rsp 48 + $rbx: .cfa 16 - ^ .ra: .cfa 8 - ^
STACK CFI INIT 19130 3f .cfa: $rsp 48 + $rbx: .cfa 16 - ^ .ra: .cfa 8 - ^
STACK CFI INIT 191a8 35 .cfa: $rsp 48 + $rbx: .cfa 16 - ^ .ra: .cfa 8 - ^
STACK CFI INIT 19290 1b .cfa: $rsp 48 + .ra: .cfa 8 - ^
STACK CFI INIT 19318 3c .cfa: $rsp 48 + $rdi: .cfa 16 - ^ $rbx: .cfa 0 - ^ .ra: .cfa 8 - ^
STACK CFI INIT 1936c 1d .cfa: $rsp 48 + $rbx: .cfa 16 - ^ .ra: .cfa 8 - ^
STACK CFI INIT 19398 4d .cfa: $rsp 48 + $rdi: .cfa 16 - ^ $rbx: .cfa 0 - ^ $rsi: .cfa 0 - ^ .ra: .cfa 8 - ^
STACK CFI INIT 1943c 42 .cfa: $rsp 48 + $rdi: .cfa 16 - ^ $rbx: .cfa 0 - ^ .ra: .cfa 8 - ^
STACK CFI INIT 19490 42 .cfa: $rsp 48 + $rdi: .cfa 16 - ^ $rbx: .cfa 0 - ^ .ra: .cfa 8 - ^
STACK CFI INIT 19504 1ea .cfa: $rsp 176 + $rbx: .cfa 16 - ^ $rsi: .cfa 24 - ^ $rdi: .cfa 32 - ^ $r12: .cfa 40 - ^ $r13: .cfa 48 - ^ $r14: .cfa 56 - ^ $r15: .cfa 64 - ^ .ra: .cfa 8 - ^
STACK CFI INIT 19768 240 .cfa: $rsp 224 + $rbx: .cfa 16 - ^ $rsi: .cfa 24 - ^ $rdi: .cfa 32 - ^ $r12: .cfa 40 - ^ $r13: .cfa 48 - ^ $r15: .cfa 56 - ^ .ra: .cfa 8 - ^
STACK CFI INIT 19bd0 87 .cfa: $rsp 48 + $rbx: .cfa 16 - ^ .ra: .cfa 8 - ^
STACK CFI INIT 19c78 193 .cfa: $rsp 112 + $rbx: .cfa 16 - ^ $rsi: .cfa 24 - ^ $rdi: .cfa 32 - ^ $r12: .cfa 40 - ^ $r13: .cfa 48 - ^ $r14: .cfa 56 - ^ $r15: .cfa 64 - ^ .ra: .cfa 8 - ^
STACK CFI INIT 19e70 2d9 .cfa: $rsp 288 + $rbx: .cfa 16 - ^ $rsi: .cfa 24 - ^ $rdi: .cfa 32 - ^ $r12: .cfa 40 - ^ $r13: .cfa 48 - ^ $r14: .cfa 56 - ^ $r15: .cfa 64 - ^ .ra: .cfa 8 - ^
STACK CFI INIT 1a200 96 .cfa: $rsp 48 + $rdi: .cfa 16 - ^ $rbx: .cfa 0 - ^ $rbp: .cfa 0 - ^ $rsi: .cfa 0 - ^ .ra: .cfa 8 - ^
STACK CFI INIT 1a2bc 37 .cfa: $rsp 48 + $rbx: .cfa 16 - ^ .ra: .cfa 8 - ^
STACK CFI INIT 1a34c d6 .cfa: $rsp 80 + $rdi: .cfa 16 - ^ $r12: .cfa 24 - ^ $r13: .cfa 32 - ^ $r14: .cfa 40 - ^ $r15: .cfa 48 - ^ $rbx: .cfa 0 - ^ $rbp: .cfa 0 - ^ $rsi: .cfa 0 - ^ .ra: .cfa 8 - ^
STACK CFI INIT 1a458 91 .cfa: $rsp 48 + $rdi: .cfa 16 - ^ $rbx: .cfa 0 - ^ $rbp: .cfa 0 - ^ $rsi: .cfa 0 - ^ .ra: .cfa 8 - ^
STACK CFI INIT 1a5e0 2e .cfa: $rsp 48 + $rdi: .cfa 16 - ^ $rbx: .cfa 0 - ^ .ra: .cfa 8 - ^
STACK CFI INIT 1a6c4 28 .cfa: $rsp 48 + $rbx: .cfa 16 - ^ .ra: .cfa 8 - ^
STACK CFI INIT 1a714 4e .cfa: $rsp 48 + $rdi: .cfa 16 - ^ $rbx: .cfa 0 - ^ .ra: .cfa 8 - ^
STACK CFI INIT 1a7b0 a1 .cfa: $rsp 96 + $rbp: .cfa 16 - ^ $rsi: .cfa 24 - ^ $rdi: .cfa 32 - ^ $r12: .cfa 40 - ^ $r13: .cfa 48 - ^ $r14: .cfa 56 - ^ $r15: .cfa 64 - ^ $rbx: .cfa 0 - ^ .ra: .cfa 8 - ^
STACK CFI INIT 1a87c 86 .cfa: $rsp 48 + $r14: .cfa 16 - ^ $rbx: .cfa 0 - ^ $rbp: .cfa 0 - ^ $rsi: .cfa 0 - ^ $rdi: .cfa 0 - ^ .ra: .cfa 8 - ^
STACK CFI INIT 1a978 39 .cfa: $rsp 48 + $rdi: .cfa 16 - ^ $rbx: .cfa 0 - ^ .ra: .cfa 8 - ^
STACK CFI INIT 1aa10 40 .cfa: $rsp 48 + .ra: .cfa 8 - ^
STACK CFI INIT 1aa60 47 .cfa: $rsp 48 + .ra: .cfa 8 - ^
STACK CFI INIT 1aae4 1b .cfa: $rsp 48 + $rbx: .cfa 16 - ^ .ra: .cfa 8 - ^
STACK CFI INIT 1ab30 1b .cfa: $rsp 48 + $rbx: .cfa 16 - ^ .ra: .cfa 8 - ^
STACK CFI INIT 1ab54 8d .cfa: $rsp 48 + $r14: .cfa 16 - ^ $rbx: .cfa 0 - ^ $rsi: .cfa 0 - ^ $rdi: .cfa 0 - ^ .ra: .cfa 8 - ^
STACK CFI INIT 1ac04 25 .cfa: $rsp 48 + $rbx: .cfa 16 - ^ .ra: .cfa 8 - ^
STACK CFI INIT 1ac34 bf .cfa: $rsp 112 + $rbp: .cfa 16 - ^ $rbx: .cfa 0 - ^ $rdi: .cfa 0 - ^ .ra: .cfa 8 - ^
STACK CFI INIT 1ad70 6d .cfa: $rsp 80 + $rdi: .cfa 16 - ^ $rbx: .cfa 0 - ^ .ra: .cfa 8 - ^
STACK CFI INIT 1ae04 15b .cfa: $rsp 1552 + $rbp: .cfa 16 - ^ $rdi: .cfa 24 - ^ $r14: .cfa 32 - ^ $rbx: .cfa 0 - ^ $rsi: .cfa 0 - ^ .ra: .cfa 8 - ^
STACK CFI INIT 1afe0 1a .cfa: $rsp 48 + .ra: .cfa 8 - ^
STACK CFI INIT 1b000 ae .cfa: $rsp 64 + $rdi: .cfa 16 - ^ $rbx: .cfa 0 - ^ $rbp: .cfa 0 - ^ $rsi: .cfa 0 - ^ .ra: .cfa 8 - ^
STACK CFI INIT 1b0dc 1e .cfa: $rsp 64 + .ra: .cfa 8 - ^
STACK CFI INIT 1b104 2f .cfa: $rsp 64 + .ra: .cfa 8 - ^
STACK CFI INIT 1b140 47 .cfa: $rsp 48 + .ra: .cfa 8 - ^
STACK CFI INIT 1b1dc 25 .cfa: $rsp 48 + $rbx: .cfa 16 - ^ .ra: .cfa 8 - ^
STACK CFI INIT 1b20c 64 .cfa: $rsp 48 + $rdi: .cfa 16 - ^ $rbx: .cfa 0 - ^ $rbp: .cfa 0 - ^ $rsi: .cfa 0 - ^ .ra: .cfa 8 - ^
STACK CFI INIT 1b28c 3d .cfa: $rsp 48 + $rdi: .cfa 16 - ^ $rbx: .cfa 0 - ^ .ra: .cfa 8 - ^
STACK CFI INIT 1b32c 182 .cfa: $rsp 48 + $rdi: .cfa 16 - ^ $rbx: .cfa 0 - ^ $rbp: .cfa 0 - ^ $rsi: .cfa 0 - ^ .ra: .cfa 8 - ^
STACK CFI INIT 1b51c 38 .cfa: $rsp 48 + $rdi: .cfa 16 - ^ $rbx: .cfa 0 - ^ .ra: .cfa 8 - ^
STACK CFI INIT 1b564 26 .cfa: $rsp 48 + .ra: .cfa 8 - ^
STACK CFI INIT 1b618 21 .cfa: $rsp 48 + $rbx: .cfa 16 - ^ .ra: .cfa 8 - ^
STACK CFI INIT 1b64c c1 .cfa: $rsp 48 + $rbx: .cfa 16 - ^ .ra: .cfa 8 - ^
STACK CFI INIT 1b764 21 .cfa: $rsp 48 + $rbx: .cfa 16 - ^ .ra: .cfa 8 - ^
STACK CFI INIT 1b790 14 .cfa: $rsp 48 + .ra: .cfa 8 - ^
STACK CFI INIT 1b7ac bc .cfa: $rsp 96 + $rbp: .cfa 16 - ^ $rbx: .cfa 0 - ^ .ra: .cfa 8 - ^
STACK CFI INIT 1b898 4a .cfa: $rsp 48 + $rbx: .cfa 16 - ^ .ra: .cfa 8 - ^
STACK CFI INIT 1b900 52 .cfa: $rsp 48 + .ra: .cfa 8 - ^
STACK CFI INIT 1b968 30 .cfa: $rsp 48 + .ra: .cfa 8 - ^
STACK CFI INIT 1b9a4 5b .cfa: $rsp 48 + $rbx: .cfa 16 - ^ .ra: .cfa 8 - ^
STACK CFI INIT 1ba70 3c .cfa: $rsp 48 + .ra: .cfa 8 - ^
STACK CFI INIT 1bafc 175 .cfa: $rsp 96 + $rbp: .cfa 16 - ^ $rsi: .cfa 24 - ^ $rdi: .cfa 32 - ^ $r14: .cfa 40 - ^ $r15: .cfa 48 - ^ $rbx: .cfa 0 - ^ .ra: .cfa 8 - ^
STACK CFI INIT 1bcd0 171 .cfa: $rsp 96 + $rbp: .cfa 16 - ^ $rsi: .cfa 24 - ^ $rdi: .cfa 32 - ^ $r14: .cfa 40 - ^ $r15: .cfa 48 - ^ $rbx: .cfa 0 - ^ .ra: .cfa 8 - ^
STACK CFI INIT 1bec0 1c3 .cfa: $rsp 64 + $r12: .cfa 16 - ^ $r14: .cfa 24 - ^ $r15: .cfa 32 - ^ $rbx: .cfa 0 - ^ $rbp: .cfa 0 - ^ $rsi: .cfa 0 - ^ $rdi: .cfa 0 - ^ .ra: .cfa 8 - ^
STACK CFI INIT 1c0f4 1a2 .cfa: $rsp 16 + $r15: .cfa 16 - ^ $rbx: .cfa 0 - ^ $rsi: .cfa 0 - ^ $rdi: .cfa 0 - ^ $r12: .cfa 0 - ^ .ra: .cfa 8 - ^
STACK CFI INIT 1c348 1b .cfa: $rsp 48 + $rbx: .cfa 16 - ^ .ra: .cfa 8 - ^
STACK CFI INIT 1c36c 1b .cfa: $rsp 48 + $rbx: .cfa 16 - ^ .ra: .cfa 8 - ^
STACK CFI INIT 1c390 1b .cfa: $rsp 48 + $rbx: .cfa 16 - ^ .ra: .cfa 8 - ^
STACK CFI INIT 1c498 1b .cfa: $rsp 48 + $rbx: .cfa 16 - ^ .ra: .cfa 8 - ^
STACK CFI INIT 1c4bc 1b .cfa: $rsp 48 + $rbx: .cfa 16 - ^ .ra: .cfa 8 - ^
STACK CFI INIT 1c4e0 1b .cfa: $rsp 48 + $rbx: .cfa 16 - ^ .ra: .cfa 8 - ^
STACK CFI INIT 1c504 16 .cfa: $rsp 48 + .ra: .cfa 8 - ^
STACK CFI INIT 1c524 5d .cfa: $rsp 48 + $rbx: .cfa 16 - ^ .ra: .cfa 8 - ^
STACK CFI INIT 1c598 186 .cfa: $rsp 96 + $rbp: .cfa 16 - ^ $rsi: .cfa 24 - ^ $rdi: .cfa 32 - ^ $r14: .cfa 40 - ^ $r15: .cfa 48 - ^ $rbx: .cfa 0 - ^ .ra: .cfa 8 - ^
STACK CFI INIT 1c780 182 .cfa: $rsp 96 + $rbp: .cfa 16 - ^ $rsi: .cfa 24 - ^ $rdi: .cfa 32 - ^ $r14: .cfa 40 - ^ $r15: .cfa 48 - ^ $rbx: .cfa 0 - ^ .ra: .cfa 8 - ^
STACK CFI INIT 1c988 4e .cfa: $rsp 48 + .ra: .cfa 8 - ^
STACK CFI INIT 1c9ec 4e .cfa: $rsp 48 + .ra: .cfa 8 - ^
STACK CFI INIT 1ca50 3b .cfa: $rsp 48 + .ra: .cfa 8 - ^
STACK CFI INIT 1ca9c 3b .cfa: $rsp 48 + .ra: .cfa 8 - ^
STACK CFI INIT 1cae8 6c .cfa: $rsp 48 + $rdi: .cfa 16 - ^ $rbx: .cfa 0 - ^ .ra: .cfa 8 - ^
STACK CFI INIT 1cb70 67 .cfa: $rsp 48 + $rdi: .cfa 16 - ^ $rbx: .cfa 0 - ^ .ra: .cfa 8 - ^
STACK CFI INIT 1cc7c 106 .cfa: $rsp 80 + $rdi: .cfa 16 - ^ $r14: .cfa 24 - ^ $r15: .cfa 32 - ^ $rbx: .cfa 0 - ^ $rbp: .cfa 0 - ^ $rsi: .cfa 0 - ^ .ra: .cfa 8 - ^
STACK CFI INIT 1cdc4 113 .cfa: $rsp 80 + $rdi: .cfa 16 - ^ $r14: .cfa 24 - ^ $r15: .cfa 32 - ^ $rbx: .cfa 0 - ^ $rbp: .cfa 0 - ^ $rsi: .cfa 0 - ^ .ra: .cfa 8 - ^
STACK CFI INIT 1cf1c 41 .cfa: $rsp 48 + $rdi: .cfa 16 - ^ $rbx: .cfa 0 - ^ .ra: .cfa 8 - ^
STACK CFI INIT 1cf70 41 .cfa: $rsp 48 + $rdi: .cfa 16 - ^ $rbx: .cfa 0 - ^ .ra: .cfa 8 - ^
STACK CFI INIT 1cfd4 d1 .cfa: $rsp 80 + $rdi: .cfa 16 - ^ $rbx: .cfa 0 - ^ $rsi: .cfa 0 - ^ .ra: .cfa 8 - ^
STACK CFI INIT 1d0dc b1 .cfa: $rsp 64 + $rdi: .cfa 16 - ^ $rbx: .cfa 0 - ^ $rsi: .cfa 0 - ^ .ra: .cfa 8 - ^
STACK CFI INIT 1d22c 43 .cfa: $rsp 48 + $rdi: .cfa 16 - ^ $rbx: .cfa 0 - ^ $rsi: .cfa 0 - ^ .ra: .cfa 8 - ^
STACK CFI INIT 1d280 43 .cfa: $rsp 48 + $rdi: .cfa 16 - ^ $rbx: .cfa 0 - ^ $rsi: .cfa 0 - ^ .ra: .cfa 8 - ^
STACK CFI INIT 1d2d4 1a .cfa: $rsp 48 + .ra: .cfa 8 - ^
STACK CFI INIT 1d2f4 1a .cfa: $rsp 48 + .ra: .cfa 8 - ^
STACK CFI INIT 1d31c 1b .cfa: $rsp 48 + $rbx: .cfa 16 - ^ .ra: .cfa 8 - ^
STACK CFI INIT 1d364 24 .cfa: $rsp 64 + .ra: .cfa 8 - ^
STACK CFI INIT 1d394 2e .cfa: $rsp 80 + .ra: .cfa 8 - ^
STACK CFI INIT 1d3d0 23 .cfa: $rsp 64 + .ra: .cfa 8 - ^
STACK CFI INIT 1d3fc 2e .cfa: $rsp 80 + .ra: .cfa 8 - ^
STACK CFI INIT 1d49c 27 .cfa: $rsp 8 + $rdi: .cfa 0 - ^ .ra: .cfa 8 - ^
STACK CFI INIT 1d4cc 27 .cfa: $rsp 8 + $rdi: .cfa 0 - ^ .ra: .cfa 8 - ^
STACK CFI INIT 1d52c 1b .cfa: $rsp 48 + $rbx: .cfa 16 - ^ .ra: .cfa 8 - ^
STACK CFI INIT 1d558 3b .cfa: $rsp 48 + .ra: .cfa 8 - ^
STACK CFI INIT 1d5a4 3b .cfa: $rsp 48 + .ra: .cfa 8 - ^
STACK CFI INIT 1d5f0 38 .cfa: $rsp 48 + .ra: .cfa 8 - ^
STACK CFI INIT 1d650 4e .cfa: $rsp 48 + .ra: .cfa 8 - ^
STACK CFI INIT 1d6b4 4e .cfa: $rsp 48 + .ra: .cfa 8 - ^
STACK CFI INIT 1d728 31 .cfa: $rsp 64 + $rbx: .cfa 16 - ^ .ra: .cfa 8 - ^
STACK CFI INIT 1d780 3b .cfa: $rsp 48 + $rdi: .cfa 16 - ^ $rbx: .cfa 0 - ^ .ra: .cfa 8 - ^
STACK CFI INIT 1d7cc 3b .cfa: $rsp 48 + $rdi: .cfa 16 - ^ $rbx: .cfa 0 - ^ .ra: .cfa 8 - ^
STACK CFI INIT 1d818 26 .cfa: $rsp 48 + .ra: .cfa 8 - ^
STACK CFI INIT 1d848 26 .cfa: $rsp 48 + .ra: .cfa 8 - ^
STACK CFI INIT 1d8f0 1b .cfa: $rsp 48 + $rbx: .cfa 16 - ^ .ra: .cfa 8 - ^
STACK CFI INIT 1d918 1b0 .cfa: $rsp 64 + $rdi: .cfa 16 - ^ $r14: .cfa 24 - ^ $r15: .cfa 32 - ^ $rbx: .cfa 0 - ^ $rbp: .cfa 0 - ^ $rsi: .cfa 0 - ^ .ra: .cfa 8 - ^
STACK CFI INIT 1db54 116 .cfa: $rsp 64 + $rdi: .cfa 16 - ^ $r14: .cfa 24 - ^ $r15: .cfa 32 - ^ $rbx: .cfa 0 - ^ $rbp: .cfa 0 - ^ $rsi: .cfa 0 - ^ .ra: .cfa 8 - ^
STACK CFI INIT 1dcbc 1b .cfa: $rsp 48 + $rbx: .cfa 16 - ^ .ra: .cfa 8 - ^
STACK CFI INIT 1dd08 3a .cfa: $rsp 64 + .ra: .cfa 8 - ^
STACK CFI INIT 1dd80 48 .cfa: $rsp 80 + $rbp: .cfa 16 - ^ .ra: .cfa 8 - ^
STACK CFI INIT 1ddf4 23 .cfa: $rsp 48 + .ra: .cfa 8 - ^
STACK CFI INIT 1de28 10 .cfa: $rsp 48 + .ra: .cfa 8 - ^
STACK CFI INIT 1de44 3d .cfa: $rsp 48 + $rbx: .cfa 16 - ^ .ra: .cfa 8 - ^
STACK CFI INIT 1de98 40 .cfa: $rsp 48 + $rbx: .cfa 16 - ^ .ra: .cfa 8 - ^
STACK CFI INIT 1dee8 5b .cfa: $rsp 48 + .ra: .cfa 8 - ^
STACK CFI INIT 1df60 6f .cfa: $rsp 48 + $rdi: .cfa 16 - ^ $rbx: .cfa 0 - ^ $rbp: .cfa 0 - ^ $rsi: .cfa 0 - ^ .ra: .cfa 8 - ^
STACK CFI INIT 1dfec 3e .cfa: $rsp 48 + $rdi: .cfa 16 - ^ $rbx: .cfa 0 - ^ .ra: .cfa 8 - ^
STACK CFI INIT 1e04c 27 .cfa: $rsp 8 + $rdi: .cfa 0 - ^ .ra: .cfa 8 - ^
STACK CFI INIT 1e094 14 .cfa: $rsp 48 + .ra: .cfa 8 - ^
STACK CFI INIT 1e0b0 10 .cfa: $rsp 48 + .ra: .cfa 8 - ^
STACK CFI INIT 1e0c4 35 .cfa: $rsp 48 + .ra: .cfa 8 - ^
STACK CFI INIT 1e108 10 .cfa: $rsp 48 + .ra: .cfa 8 - ^
STACK CFI INIT 1e134 22 .cfa: $rsp 48 + .ra: .cfa 8 - ^
STACK CFI INIT 1e160 2c .cfa: $rsp 48 + $rbx: .cfa 16 - ^ .ra: .cfa 8 - ^
STACK CFI INIT 1e198 20 .cfa: $rsp 48 + .ra: .cfa 8 - ^
STACK CFI INIT 1e1c8 62 .cfa: $rsp 48 + $rbx: .cfa 16 - ^ .ra: .cfa 8 - ^
STACK CFI INIT 1e244 5f .cfa: $rsp 48 + $rbx: .cfa 16 - ^ .ra: .cfa 8 - ^
STACK CFI INIT 1e2bc 81 .cfa: $rsp 8 + $rbx: .cfa 0 - ^ .ra: .cfa 8 - ^
STACK CFI INIT 1e360 9e .cfa: $rsp 8 + $rbx: .cfa 0 - ^ .ra: .cfa 8 - ^
STACK CFI INIT 1e428 81 .cfa: $rsp 8 + $rbx: .cfa 0 - ^ .ra: .cfa 8 - ^
STACK CFI INIT 1e4cc 85 .cfa: $rsp 8 + $rbx: .cfa 0 - ^ .ra: .cfa 8 - ^
STACK CFI INIT 1e574 a2 .cfa: $rsp 8 + $rbx: .cfa 0 - ^ .ra: .cfa 8 - ^
STACK CFI INIT 1e640 85 .cfa: $rsp 8 + $rbx: .cfa 0 - ^ .ra: .cfa 8 - ^
STACK CFI INIT 1e6e8 81 .cfa: $rsp 8 + $rbx: .cfa 0 - ^ .ra: .cfa 8 - ^
STACK CFI INIT 1e78c 9e .cfa: $rsp 8 + $rbx: .cfa 0 - ^ .ra: .cfa 8 - ^
STACK CFI INIT 1e854 81 .cfa: $rsp 8 + $rbx: .cfa 0 - ^ .ra: .cfa 8 - ^
STACK CFI INIT 1e8f8 85 .cfa: $rsp 8 + $rbx: .cfa 0 - ^ .ra: .cfa 8 - ^
STACK CFI INIT 1e9a0 a2 .cfa: $rsp 8 + $rbx: .cfa 0 - ^ .ra: .cfa 8 - ^
STACK CFI INIT 1ea6c 85 .cfa: $rsp 8 + $rbx: .cfa 0 - ^ .ra: .cfa 8 - ^
STACK CFI INIT 1eb14 3d .cfa: $rsp 48 + $rdi: .cfa 16 - ^ $rbx: .cfa 0 - ^ .ra: .cfa 8 - ^
STACK CFI INIT 1eb60 3d .cfa: $rsp 48 + $rdi: .cfa 16 - ^ $rbx: .cfa 0 - ^ .ra: .cfa 8 - ^
STACK CFI INIT 1ebac 3d .cfa: $rsp 48 + $rdi: .cfa 16 - ^ $rbx: .cfa 0 - ^ .ra: .cfa 8 - ^
STACK CFI INIT 1ebf8 3d .cfa: $rsp 48 + $rdi: .cfa 16 - ^ $rbx: .cfa 0 - ^ .ra: .cfa 8 - ^
STACK CFI INIT 1ec44 3d .cfa: $rsp 48 + $rdi: .cfa 16 - ^ $rbx: .cfa 0 - ^ .ra: .cfa 8 - ^
STACK CFI INIT 1ec90 3d .cfa: $rsp 48 + $rdi: .cfa 16 - ^ $rbx: .cfa 0 - ^ .ra: .cfa 8 - ^
STACK CFI INIT 1ecdc 28 .cfa: $rsp 48 + .ra: .cfa 8 - ^
STACK CFI INIT 1ed10 28 .cfa: $rsp 48 + .ra: .cfa 8 - ^
STACK CFI INIT 1ed44 28 .cfa: $rsp 48 + .ra: .cfa 8 - ^
STACK CFI INIT 1ed78 28 .cfa: $rsp 48 + .ra: .cfa 8 - ^
STACK CFI INIT 1edac 28 .cfa: $rsp 48 + .ra: .cfa 8 - ^
STACK CFI INIT 1ede0 28 .cfa: $rsp 48 + .ra: .cfa 8 - ^
STACK CFI INIT 1ee14 85 .cfa: $rsp 112 + $rbp: .cfa 16 - ^ .ra: .cfa 8 - ^
STACK CFI INIT 1eebc 85 .cfa: $rsp 112 + $rbp: .cfa 16 - ^ .ra: .cfa 8 - ^
STACK CFI INIT 1ef64 85 .cfa: $rsp 112 + $rbp: .cfa 16 - ^ .ra: .cfa 8 - ^
STACK CFI INIT 1f00c 85 .cfa: $rsp 112 + $rbp: .cfa 16 - ^ .ra: .cfa 8 - ^
STACK CFI INIT 1f0b4 85 .cfa: $rsp 112 + $rbp: .cfa 16 - ^ .ra: .cfa 8 - ^
STACK CFI INIT 1f15c 85 .cfa: $rsp 112 + $rbp: .cfa 16 - ^ .ra: .cfa 8 - ^
STACK CFI INIT 1f204 114 .cfa: $rsp 64 + $r15: .cfa 16 - ^ $rbx: .cfa 0 - ^ $rbp: .cfa 0 - ^ $rsi: .cfa 0 - ^ $rdi: .cfa 0 - ^ .ra: .cfa 8 - ^
STACK CFI INIT 1f360 117 .cfa: $rsp 80 + $rdi: .cfa 16 - ^ $r12: .cfa 24 - ^ $r15: .cfa 32 - ^ $rbx: .cfa 0 - ^ $rbp: .cfa 0 - ^ $rsi: .cfa 0 - ^ .ra: .cfa 8 - ^
STACK CFI INIT 1f4bc 1cb .cfa: $rsp 1328 + $rbp: .cfa 16 - ^ $rbx: .cfa 24 - ^ $rsi: .cfa 32 - ^ $rdi: .cfa 40 - ^ $r12: .cfa 48 - ^ $r14: .cfa 56 - ^ $r15: .cfa 64 - ^ .ra: .cfa 8 - ^
STACK CFI INIT 1f6fc 1d2 .cfa: $rsp 1328 + $rbp: .cfa 16 - ^ $rbx: .cfa 24 - ^ $rsi: .cfa 32 - ^ $rdi: .cfa 40 - ^ $r12: .cfa 48 - ^ $r14: .cfa 56 - ^ $r15: .cfa 64 - ^ .ra: .cfa 8 - ^
STACK CFI INIT 1f944 1e7 .cfa: $rsp 3744 + $rbp: .cfa 16 - ^ $rbx: .cfa 24 - ^ $rsi: .cfa 32 - ^ $rdi: .cfa 40 - ^ $r12: .cfa 48 - ^ $r13: .cfa 56 - ^ $r15: .cfa 64 - ^ .ra: .cfa 8 - ^
STACK CFI INIT 1fba4 1ee .cfa: $rsp 3744 + $rbp: .cfa 16 - ^ $rbx: .cfa 24 - ^ $rsi: .cfa 32 - ^ $rdi: .cfa 40 - ^ $r12: .cfa 48 - ^ $r13: .cfa 56 - ^ $r15: .cfa 64 - ^ .ra: .cfa 8 - ^
STACK CFI INIT 1fe10 1cb .cfa: $rsp 1328 + $rbp: .cfa 16 - ^ $rbx: .cfa 24 - ^ $rsi: .cfa 32 - ^ $rdi: .cfa 40 - ^ $r12: .cfa 48 - ^ $r14: .cfa 56 - ^ $r15: .cfa 64 - ^ .ra: .cfa 8 - ^
STACK CFI INIT 20050 1d2 .cfa: $rsp 1328 + $rbp: .cfa 16 - ^ $rbx: .cfa 24 - ^ $rsi: .cfa 32 - ^ $rdi: .cfa 40 - ^ $r12: .cfa 48 - ^ $r14: .cfa 56 - ^ $r15: .cfa 64 - ^ .ra: .cfa 8 - ^
STACK CFI INIT 20298 63 .cfa: $rsp 64 + $rbx: .cfa 16 - ^ .ra: .cfa 8 - ^
STACK CFI INIT 20314 6e .cfa: $rsp 64 + $rdi: .cfa 16 - ^ $rbx: .cfa 0 - ^ .ra: .cfa 8 - ^
STACK CFI INIT 20410 a6 .cfa: $rsp 48 + $rdi: .cfa 16 - ^ $rbx: .cfa 0 - ^ $rbp: .cfa 0 - ^ $rsi: .cfa 0 - ^ .ra: .cfa 8 - ^
STACK CFI INIT 204e0 a9 .cfa: $rsp 48 + $rdi: .cfa 16 - ^ $rbx: .cfa 0 - ^ $rbp: .cfa 0 - ^ $rsi: .cfa 0 - ^ .ra: .cfa 8 - ^
STACK CFI INIT 205b4 bc .cfa: $rsp 64 + $rbx: .cfa 16 - ^ .ra: .cfa 8 - ^
STACK CFI INIT 206a0 bc .cfa: $rsp 64 + $rbx: .cfa 16 - ^ .ra: .cfa 8 - ^
STACK CFI INIT 2078c be .cfa: $rsp 64 + $rbx: .cfa 16 - ^ .ra: .cfa 8 - ^
STACK CFI INIT 2087c be .cfa: $rsp 64 + $rbx: .cfa 16 - ^ .ra: .cfa 8 - ^
STACK CFI INIT 209dc bb .cfa: $rsp 64 + $rbx: .cfa 16 - ^ .ra: .cfa 8 - ^
STACK CFI INIT 20ac8 bb .cfa: $rsp 64 + $rbx: .cfa 16 - ^ .ra: .cfa 8 - ^
STACK CFI INIT 20bb4 bd .cfa: $rsp 64 + $rbx: .cfa 16 - ^ .ra: .cfa 8 - ^
STACK CFI INIT 20ca0 bd .cfa: $rsp 64 + $rbx: .cfa 16 - ^ .ra: .cfa 8 - ^
STACK CFI INIT 20dec bc .cfa: $rsp 64 + $rbx: .cfa 16 - ^ .ra: .cfa 8 - ^
STACK CFI INIT 20ed8 bc .cfa: $rsp 64 + $rbx: .cfa 16 - ^ .ra: .cfa 8 - ^
STACK CFI INIT 20fc4 be .cfa: $rsp 64 + $rbx: .cfa 16 - ^ .ra: .cfa 8 - ^
STACK CFI INIT 210b4 be .cfa: $rsp 64 + $rbx: .cfa 16 - ^ .ra: .cfa 8 - ^
STACK CFI INIT 21214 b8 .cfa: $rsp 64 + $rbx: .cfa 16 - ^ .ra: .cfa 8 - ^
STACK CFI INIT 212fc b8 .cfa: $rsp 64 + $rbx: .cfa 16 - ^ .ra: .cfa 8 - ^
STACK CFI INIT 21414 bb .cfa: $rsp 64 + $rbx: .cfa 16 - ^ .ra: .cfa 8 - ^
STACK CFI INIT 21500 bb .cfa: $rsp 64 + $rbx: .cfa 16 - ^ .ra: .cfa 8 - ^
STACK CFI INIT 215ec bd .cfa: $rsp 64 + $rbx: .cfa 16 - ^ .ra: .cfa 8 - ^
STACK CFI INIT 216d8 bd .cfa: $rsp 64 + $rbx: .cfa 16 - ^ .ra: .cfa 8 - ^
STACK CFI INIT 21824 ba .cfa: $rsp 64 + $rbx: .cfa 16 - ^ .ra: .cfa 8 - ^
STACK CFI INIT 2190c ba .cfa: $rsp 64 + $rbx: .cfa 16 - ^ .ra: .cfa 8 - ^
STACK CFI INIT 219f4 bc .cfa: $rsp 64 + $rbx: .cfa 16 - ^ .ra: .cfa 8 - ^
STACK CFI INIT 21ae0 bc .cfa: $rsp 64 + $rbx: .cfa 16 - ^ .ra: .cfa 8 - ^
STACK CFI INIT 21c2c b9 .cfa: $rsp 64 + $rbx: .cfa 16 - ^ .ra: .cfa 8 - ^
STACK CFI INIT 21d14 b9 .cfa: $rsp 64 + $rbx: .cfa 16 - ^ .ra: .cfa 8 - ^
STACK CFI INIT 21dfc bb .cfa: $rsp 64 + $rbx: .cfa 16 - ^ .ra: .cfa 8 - ^
STACK CFI INIT 21ee8 bb .cfa: $rsp 64 + $rbx: .cfa 16 - ^ .ra: .cfa 8 - ^
STACK CFI INIT 22034 ba .cfa: $rsp 64 + $rbx: .cfa 16 - ^ .ra: .cfa 8 - ^
STACK CFI INIT 2211c ba .cfa: $rsp 64 + $rbx: .cfa 16 - ^ .ra: .cfa 8 - ^
STACK CFI INIT 22204 bc .cfa: $rsp 64 + $rbx: .cfa 16 - ^ .ra: .cfa 8 - ^
STACK CFI INIT 222f0 bc .cfa: $rsp 64 + $rbx: .cfa 16 - ^ .ra: .cfa 8 - ^
STACK CFI INIT 22454 ba .cfa: $rsp 64 + $rbx: .cfa 16 - ^ .ra: .cfa 8 - ^
STACK CFI INIT 22584 ba .cfa: $rsp 64 + $rbx: .cfa 16 - ^ .ra: .cfa 8 - ^
STACK CFI INIT 226b4 bc .cfa: $rsp 64 + $rbx: .cfa 16 - ^ .ra: .cfa 8 - ^
STACK CFI INIT 227e8 bc .cfa: $rsp 64 + $rbx: .cfa 16 - ^ .ra: .cfa 8 - ^
STACK CFI INIT 22904 ba .cfa: $rsp 64 + $rbx: .cfa 16 - ^ .ra: .cfa 8 - ^
STACK CFI INIT 229ec ba .cfa: $rsp 64 + $rbx: .cfa 16 - ^ .ra: .cfa 8 - ^
STACK CFI INIT 22ad4 bc .cfa: $rsp 64 + $rbx: .cfa 16 - ^ .ra: .cfa 8 - ^
STACK CFI INIT 22bc0 bc .cfa: $rsp 64 + $rbx: .cfa 16 - ^ .ra: .cfa 8 - ^
STACK CFI INIT 22d0c ba .cfa: $rsp 64 + $rbx: .cfa 16 - ^ .ra: .cfa 8 - ^
STACK CFI INIT 22df4 ba .cfa: $rsp 64 + $rbx: .cfa 16 - ^ .ra: .cfa 8 - ^
STACK CFI INIT 22edc bc .cfa: $rsp 64 + $rbx: .cfa 16 - ^ .ra: .cfa 8 - ^
STACK CFI INIT 22fc8 bc .cfa: $rsp 64 + $rbx: .cfa 16 - ^ .ra: .cfa 8 - ^
STACK CFI INIT 23124 ba .cfa: $rsp 64 + $rbx: .cfa 16 - ^ .ra: .cfa 8 - ^
STACK CFI INIT 2320c ba .cfa: $rsp 64 + $rbx: .cfa 16 - ^ .ra: .cfa 8 - ^
STACK CFI INIT 232f4 bc .cfa: $rsp 64 + $rbx: .cfa 16 - ^ .ra: .cfa 8 - ^
STACK CFI INIT 233e0 bc .cfa: $rsp 64 + $rbx: .cfa 16 - ^ .ra: .cfa 8 - ^
STACK CFI INIT 2352c ba .cfa: $rsp 64 + $rbx: .cfa 16 - ^ .ra: .cfa 8 - ^
STACK CFI INIT 23614 ba .cfa: $rsp 64 + $rbx: .cfa 16 - ^ .ra: .cfa 8 - ^
STACK CFI INIT 236fc bc .cfa: $rsp 64 + $rbx: .cfa 16 - ^ .ra: .cfa 8 - ^
STACK CFI INIT 237e8 bc .cfa: $rsp 64 + $rbx: .cfa 16 - ^ .ra: .cfa 8 - ^
STACK CFI INIT 23934 bc .cfa: $rsp 64 + $rbx: .cfa 16 - ^ .ra: .cfa 8 - ^
STACK CFI INIT 23a20 bc .cfa: $rsp 64 + $rbx: .cfa 16 - ^ .ra: .cfa 8 - ^
STACK CFI INIT 23b0c be .cfa: $rsp 64 + $rbx: .cfa 16 - ^ .ra: .cfa 8 - ^
STACK CFI INIT 23bfc be .cfa: $rsp 64 + $rbx: .cfa 16 - ^ .ra: .cfa 8 - ^
STACK CFI INIT 24220 87 .cfa: $rsp 8 + $rbx: .cfa 0 - ^ .ra: .cfa 8 - ^
STACK CFI INIT 242c8 87 .cfa: $rsp 8 + $rbx: .cfa 0 - ^ .ra: .cfa 8 - ^
STACK CFI INIT 24370 87 .cfa: $rsp 8 + $rbx: .cfa 0 - ^ .ra: .cfa 8 - ^
STACK CFI INIT 24418 87 .cfa: $rsp 8 + $rbx: .cfa 0 - ^ .ra: .cfa 8 - ^
STACK CFI INIT 244c0 87 .cfa: $rsp 8 + $rbx: .cfa 0 - ^ .ra: .cfa 8 - ^
STACK CFI INIT 24568 87 .cfa: $rsp 8 + $rbx: .cfa 0 - ^ .ra: .cfa 8 - ^
STACK CFI INIT 24610 a3 .cfa: $rsp 8 + $rbx: .cfa 0 - ^ .ra: .cfa 8 - ^
STACK CFI INIT 246dc a3 .cfa: $rsp 8 + $rbx: .cfa 0 - ^ .ra: .cfa 8 - ^
STACK CFI INIT 247a8 a3 .cfa: $rsp 8 + $rbx: .cfa 0 - ^ .ra: .cfa 8 - ^
STACK CFI INIT 24874 a3 .cfa: $rsp 8 + $rbx: .cfa 0 - ^ .ra: .cfa 8 - ^
STACK CFI INIT 24940 a3 .cfa: $rsp 8 + $rbx: .cfa 0 - ^ .ra: .cfa 8 - ^
STACK CFI INIT 24a0c a3 .cfa: $rsp 8 + $rbx: .cfa 0 - ^ .ra: .cfa 8 - ^
STACK CFI INIT 24ad8 8d .cfa: $rsp 8 + $rbx: .cfa 0 - ^ .ra: .cfa 8 - ^
STACK CFI INIT 24b88 8d .cfa: $rsp 8 + $rbx: .cfa 0 - ^ .ra: .cfa 8 - ^
STACK CFI INIT 24c38 8d .cfa: $rsp 8 + $rbx: .cfa 0 - ^ .ra: .cfa 8 - ^
STACK CFI INIT 24ce8 8d .cfa: $rsp 8 + $rbx: .cfa 0 - ^ .ra: .cfa 8 - ^
STACK CFI INIT 24d98 8d .cfa: $rsp 8 + $rbx: .cfa 0 - ^ .ra: .cfa 8 - ^
STACK CFI INIT 24e48 8d .cfa: $rsp 8 + $rbx: .cfa 0 - ^ .ra: .cfa 8 - ^
STACK CFI INIT 24ef8 a4 .cfa: $rsp 8 + $rbx: .cfa 0 - ^ .ra: .cfa 8 - ^
STACK CFI INIT 24fc8 a4 .cfa: $rsp 8 + $rbx: .cfa 0 - ^ .ra: .cfa 8 - ^
STACK CFI INIT 25098 a4 .cfa: $rsp 8 + $rbx: .cfa 0 - ^ .ra: .cfa 8 - ^
STACK CFI INIT 25168 a4 .cfa: $rsp 8 + $rbx: .cfa 0 - ^ .ra: .cfa 8 - ^
STACK CFI INIT 25238 a4 .cfa: $rsp 8 + $rbx: .cfa 0 - ^ .ra: .cfa 8 - ^
STACK CFI INIT 25308 a4 .cfa: $rsp 8 + $rbx: .cfa 0 - ^ .ra: .cfa 8 - ^
STACK CFI INIT 253d8 8b .cfa: $rsp 48 + $r14: .cfa 16 - ^ $rbx: .cfa 0 - ^ $rbp: .cfa 0 - ^ $rsi: .cfa 0 - ^ $rdi: .cfa 0 - ^ .ra: .cfa 8 - ^
STACK CFI INIT 25488 91 .cfa: $rsp 48 + $r14: .cfa 16 - ^ $rbx: .cfa 0 - ^ $rbp: .cfa 0 - ^ $rsi: .cfa 0 - ^ $rdi: .cfa 0 - ^ .ra: .cfa 8 - ^
STACK CFI INIT 25540 75 .cfa: $rsp 8 + $rbx: .cfa 0 - ^ $rdi: .cfa 0 - ^ .ra: .cfa 8 - ^
STACK CFI INIT 255d4 7a .cfa: $rsp 8 + $rbx: .cfa 0 - ^ $rdi: .cfa 0 - ^ .ra: .cfa 8 - ^
STACK CFI INIT 261b0 9b .cfa: $rsp 48 + $rdi: .cfa 16 - ^ $rbx: .cfa 0 - ^ $rsi: .cfa 0 - ^ .ra: .cfa 8 - ^
STACK CFI INIT 26274 20 .cfa: $rsp 48 + $rbx: .cfa 16 - ^ .ra: .cfa 8 - ^
STACK CFI INIT 262e0 23 .cfa: $rsp 48 + $rbx: .cfa 16 - ^ .ra: .cfa 8 - ^
STACK CFI INIT 2630c 23 .cfa: $rsp 48 + $rbx: .cfa 16 - ^ .ra: .cfa 8 - ^
STACK CFI INIT 26338 23 .cfa: $rsp 48 + $rbx: .cfa 16 - ^ .ra: .cfa 8 - ^
STACK CFI INIT 26364 23 .cfa: $rsp 48 + $rbx: .cfa 16 - ^ .ra: .cfa 8 - ^
STACK CFI INIT 26390 23 .cfa: $rsp 48 + $rbx: .cfa 16 - ^ .ra: .cfa 8 - ^
STACK CFI INIT 263bc 23 .cfa: $rsp 48 + $rbx: .cfa 16 - ^ .ra: .cfa 8 - ^
STACK CFI INIT 263e8 23 .cfa: $rsp 48 + $rbx: .cfa 16 - ^ .ra: .cfa 8 - ^
STACK CFI INIT 26414 23 .cfa: $rsp 48 + $rbx: .cfa 16 - ^ .ra: .cfa 8 - ^
STACK CFI INIT 26440 23 .cfa: $rsp 48 + $rbx: .cfa 16 - ^ .ra: .cfa 8 - ^
STACK CFI INIT 2646c 23 .cfa: $rsp 48 + $rbx: .cfa 16 - ^ .ra: .cfa 8 - ^
STACK CFI INIT 26498 23 .cfa: $rsp 48 + $rbx: .cfa 16 - ^ .ra: .cfa 8 - ^
STACK CFI INIT 264c4 23 .cfa: $rsp 48 + $rbx: .cfa 16 - ^ .ra: .cfa 8 - ^
STACK CFI INIT 264f0 23 .cfa: $rsp 48 + $rbx: .cfa 16 - ^ .ra: .cfa 8 - ^
STACK CFI INIT 2651c 23 .cfa: $rsp 48 + $rbx: .cfa 16 - ^ .ra: .cfa 8 - ^
STACK CFI INIT 26548 23 .cfa: $rsp 48 + $rbx: .cfa 16 - ^ .ra: .cfa 8 - ^
STACK CFI INIT 26574 23 .cfa: $rsp 48 + $rbx: .cfa 16 - ^ .ra: .cfa 8 - ^
STACK CFI INIT 265a0 23 .cfa: $rsp 48 + $rbx: .cfa 16 - ^ .ra: .cfa 8 - ^
STACK CFI INIT 265cc 23 .cfa: $rsp 48 + $rbx: .cfa 16 - ^ .ra: .cfa 8 - ^
STACK CFI INIT 265f8 23 .cfa: $rsp 48 + $rbx: .cfa 16 - ^ .ra: .cfa 8 - ^
STACK CFI INIT 26624 23 .cfa: $rsp 48 + $rbx: .cfa 16 - ^ .ra: .cfa 8 - ^
STACK CFI INIT 26650 23 .cfa: $rsp 48 + $rbx: .cfa 16 - ^ .ra: .cfa 8 - ^
STACK CFI INIT 2667c 23 .cfa: $rsp 48 + $rbx: .cfa 16 - ^ .ra: .cfa 8 - ^
STACK CFI INIT 266a8 23 .cfa: $rsp 48 + $rbx: .cfa 16 - ^ .ra: .cfa 8 - ^
STACK CFI INIT 266d4 23 .cfa: $rsp 48 + $rbx: .cfa 16 - ^ .ra: .cfa 8 - ^
STACK CFI INIT 26700 23 .cfa: $rsp 48 + $rbx: .cfa 16 - ^ .ra: .cfa 8 - ^
STACK CFI INIT 2672c 23 .cfa: $rsp 48 + $rbx: .cfa 16 - ^ .ra: .cfa 8 - ^
STACK CFI INIT 26758 23 .cfa: $rsp 48 + $rbx: .cfa 16 - ^ .ra: .cfa 8 - ^
STACK CFI INIT 26784 23 .cfa: $rsp 48 + $rbx: .cfa 16 - ^ .ra: .cfa 8 - ^
STACK CFI INIT 267b0 23 .cfa: $rsp 48 + $rbx: .cfa 16 - ^ .ra: .cfa 8 - ^
STACK CFI INIT 267dc 23 .cfa: $rsp 48 + $rbx: .cfa 16 - ^ .ra: .cfa 8 - ^
STACK CFI INIT 26848 23 .cfa: $rsp 48 + $rbx: .cfa 16 - ^ .ra: .cfa 8 - ^
STACK CFI INIT 26874 34 .cfa: $rsp 48 + $rdi: .cfa 16 - ^ $rbx: .cfa 0 - ^ .ra: .cfa 8 - ^
STACK CFI INIT 268d4 12d .cfa: $rsp 1264 + $rbp: .cfa 16 - ^ $rdi: .cfa 24 - ^ $r14: .cfa 32 - ^ $rbx: .cfa 0 - ^ $rsi: .cfa 0 - ^ .ra: .cfa 8 - ^
STACK CFI INIT 26a70 14e .cfa: $rsp 3680 + $rbp: .cfa 16 - ^ $rdi: .cfa 24 - ^ $r14: .cfa 32 - ^ $rbx: .cfa 0 - ^ $rsi: .cfa 0 - ^ .ra: .cfa 8 - ^
STACK CFI INIT 26c38 14a .cfa: $rsp 3680 + $rbp: .cfa 16 - ^ $rdi: .cfa 24 - ^ $r14: .cfa 32 - ^ $rbx: .cfa 0 - ^ $rsi: .cfa 0 - ^ .ra: .cfa 8 - ^
STACK CFI INIT 26dd4 131 .cfa: $rsp 1264 + $rbp: .cfa 16 - ^ $rdi: .cfa 24 - ^ $r14: .cfa 32 - ^ $rbx: .cfa 0 - ^ $rsi: .cfa 0 - ^ .ra: .cfa 8 - ^
STACK CFI INIT 26f6c 131 .cfa: $rsp 1264 + $rbp: .cfa 16 - ^ $rdi: .cfa 24 - ^ $r14: .cfa 32 - ^ $rbx: .cfa 0 - ^ $rsi: .cfa 0 - ^ .ra: .cfa 8 - ^
STACK CFI INIT 270ec 12d .cfa: $rsp 1264 + $rbp: .cfa 16 - ^ $rdi: .cfa 24 - ^ $r14: .cfa 32 - ^ $rbx: .cfa 0 - ^ $rsi: .cfa 0 - ^ .ra: .cfa 8 - ^
STACK CFI INIT 2792c 1f .cfa: $rsp 48 + $rbx: .cfa 16 - ^ .ra: .cfa 8 - ^
STACK CFI INIT 27abc 230 .cfa: $rsp 8 + $rbx: .cfa 0 - ^ $rdi: .cfa 0 - ^ .ra: .cfa 8 - ^
STACK CFI INIT 27d78 230 .cfa: $rsp 8 + $rbx: .cfa 0 - ^ $rdi: .cfa 0 - ^ .ra: .cfa 8 - ^
STACK CFI INIT 28034 200 .cfa: $rsp 48 + $rdi: .cfa 16 - ^ $rbx: .cfa 0 - ^ $rsi: .cfa 0 - ^ .ra: .cfa 8 - ^
STACK CFI INIT 282b4 200 .cfa: $rsp 48 + $rdi: .cfa 16 - ^ $rbx: .cfa 0 - ^ $rsi: .cfa 0 - ^ .ra: .cfa 8 - ^
STACK CFI INIT 285d4 a1 .cfa: $rsp 64 + $rsi: .cfa 16 - ^ $rdi: .cfa 24 - ^ $r14: .cfa 32 - ^ $rbx: .cfa 0 - ^ $rbp: .cfa 0 - ^ .ra: .cfa 8 - ^
STACK CFI INIT 286a0 a1 .cfa: $rsp 64 + $rsi: .cfa 16 - ^ $rdi: .cfa 24 - ^ $r14: .cfa 32 - ^ $rbx: .cfa 0 - ^ $rbp: .cfa 0 - ^ .ra: .cfa 8 - ^
STACK CFI INIT 2876c a1 .cfa: $rsp 64 + $rsi: .cfa 16 - ^ $rdi: .cfa 24 - ^ $r14: .cfa 32 - ^ $rbx: .cfa 0 - ^ $rbp: .cfa 0 - ^ .ra: .cfa 8 - ^
STACK CFI INIT 28838 a1 .cfa: $rsp 64 + $rsi: .cfa 16 - ^ $rdi: .cfa 24 - ^ $r14: .cfa 32 - ^ $rbx: .cfa 0 - ^ $rbp: .cfa 0 - ^ .ra: .cfa 8 - ^
STACK CFI INIT 28904 a1 .cfa: $rsp 64 + $rsi: .cfa 16 - ^ $rdi: .cfa 24 - ^ $r14: .cfa 32 - ^ $rbx: .cfa 0 - ^ $rbp: .cfa 0 - ^ .ra: .cfa 8 - ^
STACK CFI INIT 289d0 a1 .cfa: $rsp 64 + $rsi: .cfa 16 - ^ $rdi: .cfa 24 - ^ $r14: .cfa 32 - ^ $rbx: .cfa 0 - ^ $rbp: .cfa 0 - ^ .ra: .cfa 8 - ^
STACK CFI INIT 28a9c a3 .cfa: $rsp 48 + $r14: .cfa 16 - ^ $rbx: .cfa 0 - ^ $rsi: .cfa 0 - ^ $rdi: .cfa 0 - ^ .ra: .cfa 8 - ^
STACK CFI INIT 28b68 a3 .cfa: $rsp 48 + $r14: .cfa 16 - ^ $rbx: .cfa 0 - ^ $rsi: .cfa 0 - ^ $rdi: .cfa 0 - ^ .ra: .cfa 8 - ^
STACK CFI INIT 28c34 a3 .cfa: $rsp 48 + $r14: .cfa 16 - ^ $rbx: .cfa 0 - ^ $rsi: .cfa 0 - ^ $rdi: .cfa 0 - ^ .ra: .cfa 8 - ^
STACK CFI INIT 28d00 a3 .cfa: $rsp 48 + $r14: .cfa 16 - ^ $rbx: .cfa 0 - ^ $rsi: .cfa 0 - ^ $rdi: .cfa 0 - ^ .ra: .cfa 8 - ^
STACK CFI INIT 28dcc a3 .cfa: $rsp 48 + $r14: .cfa 16 - ^ $rbx: .cfa 0 - ^ $rsi: .cfa 0 - ^ $rdi: .cfa 0 - ^ .ra: .cfa 8 - ^
STACK CFI INIT 28e98 a3 .cfa: $rsp 48 + $r14: .cfa 16 - ^ $rbx: .cfa 0 - ^ $rsi: .cfa 0 - ^ $rdi: .cfa 0 - ^ .ra: .cfa 8 - ^
STACK CFI INIT 28f64 227 .cfa: $rsp 48 + $rdi: .cfa 16 - ^ $rbx: .cfa 0 - ^ $rbp: .cfa 0 - ^ .ra: .cfa 8 - ^
STACK CFI INIT 29214 2a6 .cfa: $rsp 64 + $rdi: .cfa 16 - ^ $r14: .cfa 24 - ^ $r15: .cfa 32 - ^ $rbx: .cfa 0 - ^ $rbp: .cfa 0 - ^ $rsi: .cfa 0 - ^ .ra: .cfa 8 - ^
STACK CFI INIT 29564 216 .cfa: $rsp 48 + $rdi: .cfa 16 - ^ $rbx: .cfa 0 - ^ $rbp: .cfa 0 - ^ .ra: .cfa 8 - ^
STACK CFI INIT 29800 218 .cfa: $rsp 48 + $rdi: .cfa 16 - ^ $rbx: .cfa 0 - ^ $rbp: .cfa 0 - ^ $rsi: .cfa 0 - ^ .ra: .cfa 8 - ^
STACK CFI INIT 29aa0 295 .cfa: $rsp 64 + $rdi: .cfa 16 - ^ $r14: .cfa 24 - ^ $r15: .cfa 32 - ^ $rbx: .cfa 0 - ^ $rbp: .cfa 0 - ^ $rsi: .cfa 0 - ^ .ra: .cfa 8 - ^
STACK CFI INIT 29ddc 20a .cfa: $rsp 48 + $rdi: .cfa 16 - ^ $rbx: .cfa 0 - ^ $rbp: .cfa 0 - ^ .ra: .cfa 8 - ^
STACK CFI INIT 2a068 277 .cfa: $rsp 64 + $rsi: .cfa 16 - ^ $rdi: .cfa 24 - ^ $r14: .cfa 32 - ^ $rbx: .cfa 0 - ^ $rbp: .cfa 0 - ^ .ra: .cfa 8 - ^
STACK CFI INIT 2a37c 2b2 .cfa: $rsp 80 + $rsi: .cfa 16 - ^ $rdi: .cfa 24 - ^ $r12: .cfa 32 - ^ $r13: .cfa 40 - ^ $r14: .cfa 48 - ^ $rbx: .cfa 0 - ^ $rbp: .cfa 0 - ^ .ra: .cfa 8 - ^
STACK CFI INIT 2a6dc 26a .cfa: $rsp 64 + $rsi: .cfa 16 - ^ $rdi: .cfa 24 - ^ $r14: .cfa 32 - ^ $rbx: .cfa 0 - ^ $rbp: .cfa 0 - ^ .ra: .cfa 8 - ^
STACK CFI INIT 2a9e0 288 .cfa: $rsp 64 + $rsi: .cfa 16 - ^ $rdi: .cfa 24 - ^ $r14: .cfa 32 - ^ $rbx: .cfa 0 - ^ $rbp: .cfa 0 - ^ .ra: .cfa 8 - ^
STACK CFI INIT 2ad0c 2b2 .cfa: $rsp 80 + $rsi: .cfa 16 - ^ $rdi: .cfa 24 - ^ $r12: .cfa 32 - ^ $r13: .cfa 40 - ^ $r14: .cfa 48 - ^ $rbx: .cfa 0 - ^ $rbp: .cfa 0 - ^ .ra: .cfa 8 - ^
STACK CFI INIT 2b06c 27b .cfa: $rsp 64 + $rsi: .cfa 16 - ^ $rdi: .cfa 24 - ^ $r14: .cfa 32 - ^ $rbx: .cfa 0 - ^ $rbp: .cfa 0 - ^ .ra: .cfa 8 - ^
STACK CFI INIT 2b9c4 70 .cfa: $rsp 48 + $rbx: .cfa 16 - ^ .ra: .cfa 8 - ^
STACK CFI INIT 2ba50 94 .cfa: $rsp 48 + $rbx: .cfa 16 - ^ .ra: .cfa 8 - ^
STACK CFI INIT 2bb0c 70 .cfa: $rsp 48 + $rbx: .cfa 16 - ^ .ra: .cfa 8 - ^
STACK CFI INIT 2bb98 74 .cfa: $rsp 48 + $rbx: .cfa 16 - ^ .ra: .cfa 8 - ^
STACK CFI INIT 2bc2c 98 .cfa: $rsp 48 + $rbx: .cfa 16 - ^ .ra: .cfa 8 - ^
STACK CFI INIT 2bcec 74 .cfa: $rsp 48 + $rbx: .cfa 16 - ^ .ra: .cfa 8 - ^
STACK CFI INIT 2bd80 58 .cfa: $rsp 48 + $rbx: .cfa 16 - ^ .ra: .cfa 8 - ^
STACK CFI INIT 2bdf0 7c .cfa: $rsp 48 + $rbx: .cfa 16 - ^ .ra: .cfa 8 - ^
STACK CFI INIT 2be8c 58 .cfa: $rsp 48 + $rbx: .cfa 16 - ^ .ra: .cfa 8 - ^
STACK CFI INIT 2c06c 5c .cfa: $rsp 48 + $rbx: .cfa 16 - ^ .ra: .cfa 8 - ^
STACK CFI INIT 2c0e0 5c .cfa: $rsp 48 + $rbx: .cfa 16 - ^ .ra: .cfa 8 - ^
STACK CFI INIT 2c154 5c .cfa: $rsp 48 + $rbx: .cfa 16 - ^ .ra: .cfa 8 - ^
STACK CFI INIT 2c1c8 60 .cfa: $rsp 48 + $rbx: .cfa 16 - ^ .ra: .cfa 8 - ^
STACK CFI INIT 2c240 60 .cfa: $rsp 48 + $rbx: .cfa 16 - ^ .ra: .cfa 8 - ^
STACK CFI INIT 2c2b8 60 .cfa: $rsp 48 + $rbx: .cfa 16 - ^ .ra: .cfa 8 - ^
STACK CFI INIT 2c330 58 .cfa: $rsp 48 + $rbx: .cfa 16 - ^ .ra: .cfa 8 - ^
STACK CFI INIT 2c3a0 58 .cfa: $rsp 48 + $rbx: .cfa 16 - ^ .ra: .cfa 8 - ^
STACK CFI INIT 2c410 58 .cfa: $rsp 48 + $rbx: .cfa 16 - ^ .ra: .cfa 8 - ^
STACK CFI INIT 2c5c4 a2 .cfa: $rsp 48 + $rbx: .cfa 16 - ^ .ra: .cfa 8 - ^
STACK CFI INIT 2c690 a2 .cfa: $rsp 48 + $rbx: .cfa 16 - ^ .ra: .cfa 8 - ^
STACK CFI INIT 2c75c a2 .cfa: $rsp 48 + $rbx: .cfa 16 - ^ .ra: .cfa 8 - ^
STACK CFI INIT 2c828 a8 .cfa: $rsp 48 + .ra: .cfa 8 - ^
STACK CFI INIT 2c8fc a8 .cfa: $rsp 48 + .ra: .cfa 8 - ^
STACK CFI INIT 2c9d0 a8 .cfa: $rsp 48 + .ra: .cfa 8 - ^
STACK CFI INIT 2cc54 4a .cfa: $rsp 48 + $rbx: .cfa 16 - ^ .ra: .cfa 8 - ^
STACK CFI INIT 2cd10 4a .cfa: $rsp 48 + $rbx: .cfa 16 - ^ .ra: .cfa 8 - ^
STACK CFI INIT 2cdd0 4b .cfa: $rsp 48 + $rbx: .cfa 16 - ^ .ra: .cfa 8 - ^
STACK CFI INIT 2ce98 4b .cfa: $rsp 48 + $rbx: .cfa 16 - ^ .ra: .cfa 8 - ^
STACK CFI INIT 2cf2c 171 .cfa: $rsp 48 + .ra: .cfa 8 - ^
STACK CFI INIT 2d0fc 171 .cfa: $rsp 48 + .ra: .cfa 8 - ^
STACK CFI INIT 2d2cc 171 .cfa: $rsp 48 + .ra: .cfa 8 - ^
STACK CFI INIT 2d49c 171 .cfa: $rsp 48 + .ra: .cfa 8 - ^
STACK CFI INIT 2d66c 171 .cfa: $rsp 48 + .ra: .cfa 8 - ^
STACK CFI INIT 2d83c 171 .cfa: $rsp 48 + .ra: .cfa 8 - ^
STACK CFI INIT 2da0c 196 .cfa: $rsp 48 + .ra: .cfa 8 - ^
STACK CFI INIT 2dc08 196 .cfa: $rsp 48 + .ra: .cfa 8 - ^
STACK CFI INIT 2de04 196 .cfa: $rsp 48 + .ra: .cfa 8 - ^
STACK CFI INIT 2e000 196 .cfa: $rsp 48 + .ra: .cfa 8 - ^
STACK CFI INIT 2e1fc 196 .cfa: $rsp 48 + .ra: .cfa 8 - ^
STACK CFI INIT 2e3f8 196 .cfa: $rsp 48 + .ra: .cfa 8 - ^
STACK CFI INIT 2e5f4 284 .cfa: $rsp 80 + $rdi: .cfa 16 - ^ $r14: .cfa 24 - ^ $r15: .cfa 32 - ^ $rbx: .cfa 0 - ^ $rbp: .cfa 0 - ^ $rsi: .cfa 0 - ^ .ra: .cfa 8 - ^
STACK CFI INIT 2e91c 29a .cfa: $rsp 80 + $rdi: .cfa 16 - ^ $r14: .cfa 24 - ^ $r15: .cfa 32 - ^ $rbx: .cfa 0 - ^ $rbp: .cfa 0 - ^ $rsi: .cfa 0 - ^ .ra: .cfa 8 - ^
STACK CFI INIT 2ec5c 284 .cfa: $rsp 80 + $rdi: .cfa 16 - ^ $r14: .cfa 24 - ^ $r15: .cfa 32 - ^ $rbx: .cfa 0 - ^ $rbp: .cfa 0 - ^ $rsi: .cfa 0 - ^ .ra: .cfa 8 - ^
STACK CFI INIT 2ef84 266 .cfa: $rsp 80 + $rdi: .cfa 16 - ^ $r14: .cfa 24 - ^ $r15: .cfa 32 - ^ $rbx: .cfa 0 - ^ $rbp: .cfa 0 - ^ $rsi: .cfa 0 - ^ .ra: .cfa 8 - ^
STACK CFI INIT 2f284 27c .cfa: $rsp 80 + $rdi: .cfa 16 - ^ $r14: .cfa 24 - ^ $r15: .cfa 32 - ^ $rbx: .cfa 0 - ^ $rbp: .cfa 0 - ^ $rsi: .cfa 0 - ^ .ra: .cfa 8 - ^
STACK CFI INIT 2f5a0 266 .cfa: $rsp 80 + $rdi: .cfa 16 - ^ $r14: .cfa 24 - ^ $r15: .cfa 32 - ^ $rbx: .cfa 0 - ^ $rbp: .cfa 0 - ^ $rsi: .cfa 0 - ^ .ra: .cfa 8 - ^
STACK CFI INIT 2f8a0 2dd .cfa: $rsp 112 + $rsi: .cfa 16 - ^ $rdi: .cfa 24 - ^ $r13: .cfa 32 - ^ $r14: .cfa 40 - ^ $r15: .cfa 48 - ^ $rbx: .cfa 0 - ^ $rbp: .cfa 0 - ^ .ra: .cfa 8 - ^
STACK CFI INIT 2fc34 2f3 .cfa: $rsp 112 + $rsi: .cfa 16 - ^ $rdi: .cfa 24 - ^ $r13: .cfa 32 - ^ $r14: .cfa 40 - ^ $r15: .cfa 48 - ^ $rbx: .cfa 0 - ^ $rbp: .cfa 0 - ^ .ra: .cfa 8 - ^
STACK CFI INIT 2ffe4 2dd .cfa: $rsp 112 + $rsi: .cfa 16 - ^ $rdi: .cfa 24 - ^ $r13: .cfa 32 - ^ $r14: .cfa 40 - ^ $r15: .cfa 48 - ^ $rbx: .cfa 0 - ^ $rbp: .cfa 0 - ^ .ra: .cfa 8 - ^
STACK CFI INIT 30378 2ca .cfa: $rsp 112 + $rdi: .cfa 16 - ^ $r12: .cfa 24 - ^ $r13: .cfa 32 - ^ $r14: .cfa 40 - ^ $r15: .cfa 48 - ^ $rbx: .cfa 0 - ^ $rbp: .cfa 0 - ^ $rsi: .cfa 0 - ^ .ra: .cfa 8 - ^
STACK CFI INIT 306f4 2e0 .cfa: $rsp 112 + $rdi: .cfa 16 - ^ $r12: .cfa 24 - ^ $r13: .cfa 32 - ^ $r14: .cfa 40 - ^ $r15: .cfa 48 - ^ $rbx: .cfa 0 - ^ $rbp: .cfa 0 - ^ $rsi: .cfa 0 - ^ .ra: .cfa 8 - ^
STACK CFI INIT 30a8c 2ca .cfa: $rsp 112 + $rdi: .cfa 16 - ^ $r12: .cfa 24 - ^ $r13: .cfa 32 - ^ $r14: .cfa 40 - ^ $r15: .cfa 48 - ^ $rbx: .cfa 0 - ^ $rbp: .cfa 0 - ^ $rsi: .cfa 0 - ^ .ra: .cfa 8 - ^
STACK CFI INIT 30e48 50 .cfa: $rsp 48 + $rbx: .cfa 16 - ^ .ra: .cfa 8 - ^
STACK CFI INIT 30f2c 50 .cfa: $rsp 48 + $rbx: .cfa 16 - ^ .ra: .cfa 8 - ^
STACK CFI INIT 31010 51 .cfa: $rsp 48 + $rbx: .cfa 16 - ^ .ra: .cfa 8 - ^
STACK CFI INIT 310f8 51 .cfa: $rsp 48 + $rbx: .cfa 16 - ^ .ra: .cfa 8 - ^
STACK CFI INIT 31408 158 .cfa: $rsp 64 + $rdi: .cfa 16 - ^ $rbx: .cfa 0 - ^ .ra: .cfa 8 - ^
STACK CFI INIT 316d8 158 .cfa: $rsp 64 + $rdi: .cfa 16 - ^ $rbx: .cfa 0 - ^ .ra: .cfa 8 - ^
STACK CFI INIT 31918 79 .cfa: $rsp 48 + $rdi: .cfa 16 - ^ $rbx: .cfa 0 - ^ $rsi: .cfa 0 - ^ .ra: .cfa 8 - ^
STACK CFI INIT 319b0 13e .cfa: $rsp 64 + $rdi: .cfa 16 - ^ $rbx: .cfa 0 - ^ $rsi: .cfa 0 - ^ .ra: .cfa 8 - ^
STACK CFI INIT 31b40 79 .cfa: $rsp 48 + $rdi: .cfa 16 - ^ $rbx: .cfa 0 - ^ $rsi: .cfa 0 - ^ .ra: .cfa 8 - ^
STACK CFI INIT 31bd8 79 .cfa: $rsp 48 + $rdi: .cfa 16 - ^ $rbx: .cfa 0 - ^ $rsi: .cfa 0 - ^ .ra: .cfa 8 - ^
STACK CFI INIT 31c70 13e .cfa: $rsp 64 + $rdi: .cfa 16 - ^ $rbx: .cfa 0 - ^ $rsi: .cfa 0 - ^ .ra: .cfa 8 - ^
STACK CFI INIT 31e00 79 .cfa: $rsp 48 + $rdi: .cfa 16 - ^ $rbx: .cfa 0 - ^ $rsi: .cfa 0 - ^ .ra: .cfa 8 - ^
STACK CFI INIT 31e98 215 .cfa: $rsp 96 + $rdi: .cfa 16 - ^ $rbx: .cfa 0 - ^ .ra: .cfa 8 - ^
STACK CFI INIT 32134 252 .cfa: $rsp 96 + $rdi: .cfa 16 - ^ $rbx: .cfa 0 - ^ $rsi: .cfa 0 - ^ .ra: .cfa 8 - ^
STACK CFI INIT 3241c 215 .cfa: $rsp 96 + $rdi: .cfa 16 - ^ $rbx: .cfa 0 - ^ .ra: .cfa 8 - ^
STACK CFI INIT 326b8 215 .cfa: $rsp 96 + $rdi: .cfa 16 - ^ $rbx: .cfa 0 - ^ .ra: .cfa 8 - ^
STACK CFI INIT 32954 252 .cfa: $rsp 96 + $rdi: .cfa 16 - ^ $rbx: .cfa 0 - ^ $rsi: .cfa 0 - ^ .ra: .cfa 8 - ^
STACK CFI INIT 32c3c 215 .cfa: $rsp 96 + $rdi: .cfa 16 - ^ $rbx: .cfa 0 - ^ .ra: .cfa 8 - ^
STACK CFI INIT 32ed8 239 .cfa: $rsp 96 + $r14: .cfa 16 - ^ $rbx: .cfa 0 - ^ $rdi: .cfa 0 - ^ .ra: .cfa 8 - ^
STACK CFI INIT 331a0 276 .cfa: $rsp 96 + $r15: .cfa 16 - ^ $rbx: .cfa 0 - ^ $rsi: .cfa 0 - ^ $rdi: .cfa 0 - ^ .ra: .cfa 8 - ^
STACK CFI INIT 334b4 239 .cfa: $rsp 96 + $r14: .cfa 16 - ^ $rbx: .cfa 0 - ^ $rdi: .cfa 0 - ^ .ra: .cfa 8 - ^
STACK CFI INIT 3377c 239 .cfa: $rsp 96 + $r14: .cfa 16 - ^ $rbx: .cfa 0 - ^ $rdi: .cfa 0 - ^ .ra: .cfa 8 - ^
STACK CFI INIT 33a44 276 .cfa: $rsp 96 + $r15: .cfa 16 - ^ $rbx: .cfa 0 - ^ $rsi: .cfa 0 - ^ $rdi: .cfa 0 - ^ .ra: .cfa 8 - ^
STACK CFI INIT 33d58 239 .cfa: $rsp 96 + $r14: .cfa 16 - ^ $rbx: .cfa 0 - ^ $rdi: .cfa 0 - ^ .ra: .cfa 8 - ^
STACK CFI INIT 34080 bc .cfa: $rsp 48 + $rbx: .cfa 16 - ^ .ra: .cfa 8 - ^
STACK CFI INIT 3416c ff .cfa: $rsp 48 + $rdi: .cfa 16 - ^ $rbx: .cfa 0 - ^ .ra: .cfa 8 - ^
STACK CFI INIT 342ac bc .cfa: $rsp 48 + $rbx: .cfa 16 - ^ .ra: .cfa 8 - ^
STACK CFI INIT 34398 bc .cfa: $rsp 48 + $rbx: .cfa 16 - ^ .ra: .cfa 8 - ^
STACK CFI INIT 34484 ff .cfa: $rsp 48 + $rdi: .cfa 16 - ^ $rbx: .cfa 0 - ^ .ra: .cfa 8 - ^
STACK CFI INIT 345c4 bc .cfa: $rsp 48 + $rbx: .cfa 16 - ^ .ra: .cfa 8 - ^
STACK CFI INIT 346b0 a6 .cfa: $rsp 48 + $rdi: .cfa 16 - ^ $rbx: .cfa 0 - ^ $rsi: .cfa 0 - ^ .ra: .cfa 8 - ^
STACK CFI INIT 34780 cc .cfa: $rsp 48 + $rdi: .cfa 16 - ^ $rbx: .cfa 0 - ^ $rsi: .cfa 0 - ^ .ra: .cfa 8 - ^
STACK CFI INIT 34880 a6 .cfa: $rsp 48 + $rdi: .cfa 16 - ^ $rbx: .cfa 0 - ^ $rsi: .cfa 0 - ^ .ra: .cfa 8 - ^
STACK CFI INIT 34950 a6 .cfa: $rsp 48 + $rdi: .cfa 16 - ^ $rbx: .cfa 0 - ^ $rsi: .cfa 0 - ^ .ra: .cfa 8 - ^
STACK CFI INIT 34a20 cc .cfa: $rsp 48 + $rdi: .cfa 16 - ^ $rbx: .cfa 0 - ^ $rsi: .cfa 0 - ^ .ra: .cfa 8 - ^
STACK CFI INIT 34b20 a6 .cfa: $rsp 48 + $rdi: .cfa 16 - ^ $rbx: .cfa 0 - ^ $rsi: .cfa 0 - ^ .ra: .cfa 8 - ^
STACK CFI INIT 34ce0 1c5 .cfa: $rsp 64 + $rdi: .cfa 16 - ^ $r14: .cfa 24 - ^ $r15: .cfa 32 - ^ $rbx: .cfa 0 - ^ $rbp: .cfa 0 - ^ $rsi: .cfa 0 - ^ .ra: .cfa 8 - ^
STACK CFI INIT 34f18 202 .cfa: $rsp 80 + $rsi: .cfa 16 - ^ $rdi: .cfa 24 - ^ $r13: .cfa 32 - ^ $r14: .cfa 40 - ^ $r15: .cfa 48 - ^ $rbx: .cfa 0 - ^ $rbp: .cfa 0 - ^ .ra: .cfa 8 - ^
STACK CFI INIT 3519c 1c5 .cfa: $rsp 64 + $rdi: .cfa 16 - ^ $r14: .cfa 24 - ^ $r15: .cfa 32 - ^ $rbx: .cfa 0 - ^ $rbp: .cfa 0 - ^ $rsi: .cfa 0 - ^ .ra: .cfa 8 - ^
STACK CFI INIT 353d4 1c5 .cfa: $rsp 64 + $rdi: .cfa 16 - ^ $r14: .cfa 24 - ^ $r15: .cfa 32 - ^ $rbx: .cfa 0 - ^ $rbp: .cfa 0 - ^ $rsi: .cfa 0 - ^ .ra: .cfa 8 - ^
STACK CFI INIT 3560c 202 .cfa: $rsp 80 + $rsi: .cfa 16 - ^ $rdi: .cfa 24 - ^ $r13: .cfa 32 - ^ $r14: .cfa 40 - ^ $r15: .cfa 48 - ^ $rbx: .cfa 0 - ^ $rbp: .cfa 0 - ^ .ra: .cfa 8 - ^
STACK CFI INIT 35890 1c5 .cfa: $rsp 64 + $rdi: .cfa 16 - ^ $r14: .cfa 24 - ^ $r15: .cfa 32 - ^ $rbx: .cfa 0 - ^ $rbp: .cfa 0 - ^ $rsi: .cfa 0 - ^ .ra: .cfa 8 - ^
STACK CFI INIT 35ac8 1cb .cfa: $rsp 64 + $rdi: .cfa 16 - ^ $r14: .cfa 24 - ^ $r15: .cfa 32 - ^ $rbx: .cfa 0 - ^ $rbp: .cfa 0 - ^ $rsi: .cfa 0 - ^ .ra: .cfa 8 - ^
STACK CFI INIT 35d08 208 .cfa: $rsp 80 + $rsi: .cfa 16 - ^ $rdi: .cfa 24 - ^ $r13: .cfa 32 - ^ $r14: .cfa 40 - ^ $r15: .cfa 48 - ^ $rbx: .cfa 0 - ^ $rbp: .cfa 0 - ^ .ra: .cfa 8 - ^
STACK CFI INIT 35f94 1cb .cfa: $rsp 64 + $rdi: .cfa 16 - ^ $r14: .cfa 24 - ^ $r15: .cfa 32 - ^ $rbx: .cfa 0 - ^ $rbp: .cfa 0 - ^ $rsi: .cfa 0 - ^ .ra: .cfa 8 - ^
STACK CFI INIT 361d4 1cb .cfa: $rsp 64 + $rdi: .cfa 16 - ^ $r14: .cfa 24 - ^ $r15: .cfa 32 - ^ $rbx: .cfa 0 - ^ $rbp: .cfa 0 - ^ $rsi: .cfa 0 - ^ .ra: .cfa 8 - ^
STACK CFI INIT 36414 208 .cfa: $rsp 80 + $rsi: .cfa 16 - ^ $rdi: .cfa 24 - ^ $r13: .cfa 32 - ^ $r14: .cfa 40 - ^ $r15: .cfa 48 - ^ $rbx: .cfa 0 - ^ $rbp: .cfa 0 - ^ .ra: .cfa 8 - ^
STACK CFI INIT 366a0 1cb .cfa: $rsp 64 + $rdi: .cfa 16 - ^ $r14: .cfa 24 - ^ $r15: .cfa 32 - ^ $rbx: .cfa 0 - ^ $rbp: .cfa 0 - ^ $rsi: .cfa 0 - ^ .ra: .cfa 8 - ^
STACK CFI INIT 368e0 db .cfa: $rsp 48 + $rdi: .cfa 16 - ^ $rbx: .cfa 0 - ^ $rsi: .cfa 0 - ^ .ra: .cfa 8 - ^
STACK CFI INIT 369f4 104 .cfa: $rsp 48 + $rdi: .cfa 16 - ^ $rbx: .cfa 0 - ^ .ra: .cfa 8 - ^
STACK CFI INIT 36b3c db .cfa: $rsp 48 + $rdi: .cfa 16 - ^ $rbx: .cfa 0 - ^ $rsi: .cfa 0 - ^ .ra: .cfa 8 - ^
STACK CFI INIT 36c50 db .cfa: $rsp 48 + $rdi: .cfa 16 - ^ $rbx: .cfa 0 - ^ $rsi: .cfa 0 - ^ .ra: .cfa 8 - ^
STACK CFI INIT 36d64 104 .cfa: $rsp 48 + $rdi: .cfa 16 - ^ $rbx: .cfa 0 - ^ .ra: .cfa 8 - ^
STACK CFI INIT 36eac db .cfa: $rsp 48 + $rdi: .cfa 16 - ^ $rbx: .cfa 0 - ^ $rsi: .cfa 0 - ^ .ra: .cfa 8 - ^
STACK CFI INIT 36fc0 db .cfa: $rsp 48 + $rdi: .cfa 16 - ^ $rbx: .cfa 0 - ^ $rsi: .cfa 0 - ^ .ra: .cfa 8 - ^
STACK CFI INIT 370d4 104 .cfa: $rsp 48 + $rdi: .cfa 16 - ^ $rbx: .cfa 0 - ^ .ra: .cfa 8 - ^
STACK CFI INIT 3721c db .cfa: $rsp 48 + $rdi: .cfa 16 - ^ $rbx: .cfa 0 - ^ $rsi: .cfa 0 - ^ .ra: .cfa 8 - ^
STACK CFI INIT 37330 db .cfa: $rsp 48 + $rdi: .cfa 16 - ^ $rbx: .cfa 0 - ^ $rsi: .cfa 0 - ^ .ra: .cfa 8 - ^
STACK CFI INIT 37444 104 .cfa: $rsp 48 + $rdi: .cfa 16 - ^ $rbx: .cfa 0 - ^ .ra: .cfa 8 - ^
STACK CFI INIT 3758c db .cfa: $rsp 48 + $rdi: .cfa 16 - ^ $rbx: .cfa 0 - ^ $rsi: .cfa 0 - ^ .ra: .cfa 8 - ^
STACK CFI INIT 379d0 96 .cfa: $rsp 48 + $rbx: .cfa 16 - ^ .ra: .cfa 8 - ^
STACK CFI INIT 37a8c b5 .cfa: $rsp 48 + $rdi: .cfa 16 - ^ $rbx: .cfa 0 - ^ .ra: .cfa 8 - ^
STACK CFI INIT 37b70 96 .cfa: $rsp 48 + $rbx: .cfa 16 - ^ .ra: .cfa 8 - ^
STACK CFI INIT 37c2c 96 .cfa: $rsp 48 + $rbx: .cfa 16 - ^ .ra: .cfa 8 - ^
STACK CFI INIT 37ce8 b5 .cfa: $rsp 48 + $rdi: .cfa 16 - ^ $rbx: .cfa 0 - ^ .ra: .cfa 8 - ^
STACK CFI INIT 37dcc 96 .cfa: $rsp 48 + $rbx: .cfa 16 - ^ .ra: .cfa 8 - ^
STACK CFI INIT 37e88 c7 .cfa: $rsp 48 + $rdi: .cfa 16 - ^ $rbx: .cfa 0 - ^ $rsi: .cfa 0 - ^ .ra: .cfa 8 - ^
STACK CFI INIT 37f80 e9 .cfa: $rsp 48 + $rdi: .cfa 16 - ^ $rbx: .cfa 0 - ^ $rbp: .cfa 0 - ^ $rsi: .cfa 0 - ^ .ra: .cfa 8 - ^
STACK CFI INIT 380a4 c7 .cfa: $rsp 48 + $rdi: .cfa 16 - ^ $rbx: .cfa 0 - ^ $rsi: .cfa 0 - ^ .ra: .cfa 8 - ^
STACK CFI INIT 3819c c7 .cfa: $rsp 48 + $rdi: .cfa 16 - ^ $rbx: .cfa 0 - ^ $rsi: .cfa 0 - ^ .ra: .cfa 8 - ^
STACK CFI INIT 38294 e9 .cfa: $rsp 48 + $rdi: .cfa 16 - ^ $rbx: .cfa 0 - ^ $rbp: .cfa 0 - ^ $rsi: .cfa 0 - ^ .ra: .cfa 8 - ^
STACK CFI INIT 383b8 c7 .cfa: $rsp 48 + $rdi: .cfa 16 - ^ $rbx: .cfa 0 - ^ $rsi: .cfa 0 - ^ .ra: .cfa 8 - ^
STACK CFI INIT 38510 53 .cfa: $rsp 8 + $rbx: .cfa 0 - ^ .ra: .cfa 8 - ^
STACK CFI INIT 38578 53 .cfa: $rsp 8 + $rbx: .cfa 0 - ^ .ra: .cfa 8 - ^
STACK CFI INIT 385e0 53 .cfa: $rsp 8 + $rbx: .cfa 0 - ^ .ra: .cfa 8 - ^
STACK CFI INIT 38648 53 .cfa: $rsp 8 + $rbx: .cfa 0 - ^ .ra: .cfa 8 - ^
STACK CFI INIT 386b0 53 .cfa: $rsp 8 + $rbx: .cfa 0 - ^ .ra: .cfa 8 - ^
STACK CFI INIT 38718 53 .cfa: $rsp 8 + $rbx: .cfa 0 - ^ .ra: .cfa 8 - ^
STACK CFI INIT 38960 115 .cfa: $rsp 64 + $rdi: .cfa 16 - ^ $rbx: .cfa 0 - ^ .ra: .cfa 8 - ^
STACK CFI INIT 38abc 115 .cfa: $rsp 64 + $rdi: .cfa 16 - ^ $rbx: .cfa 0 - ^ .ra: .cfa 8 - ^
STACK CFI INIT 38c18 118 .cfa: $rsp 64 + $rdi: .cfa 16 - ^ $rbx: .cfa 0 - ^ .ra: .cfa 8 - ^
STACK CFI INIT 38d78 118 .cfa: $rsp 64 + $rdi: .cfa 16 - ^ $rbx: .cfa 0 - ^ .ra: .cfa 8 - ^
STACK CFI INIT 38f38 115 .cfa: $rsp 64 + $rdi: .cfa 16 - ^ $rbx: .cfa 0 - ^ .ra: .cfa 8 - ^
STACK CFI INIT 39094 115 .cfa: $rsp 64 + $rdi: .cfa 16 - ^ $rbx: .cfa 0 - ^ .ra: .cfa 8 - ^
STACK CFI INIT 391f0 118 .cfa: $rsp 64 + $rdi: .cfa 16 - ^ $rbx: .cfa 0 - ^ .ra: .cfa 8 - ^
STACK CFI INIT 39350 118 .cfa: $rsp 64 + $rdi: .cfa 16 - ^ $rbx: .cfa 0 - ^ .ra: .cfa 8 - ^
STACK CFI INIT 3951c 2c .cfa: $rsp 48 + .ra: .cfa 8 - ^
STACK CFI INIT 39554 25 .cfa: $rsp 48 + .ra: .cfa 8 - ^
STACK CFI INIT 39584 25 .cfa: $rsp 48 + .ra: .cfa 8 - ^
STACK CFI INIT 395b4 25 .cfa: $rsp 48 + .ra: .cfa 8 - ^
STACK CFI INIT 395e4 3f .cfa: $rsp 64 + .ra: .cfa 8 - ^
STACK CFI INIT 39634 3f .cfa: $rsp 64 + .ra: .cfa 8 - ^
STACK CFI INIT 39684 40 .cfa: $rsp 64 + .ra: .cfa 8 - ^
STACK CFI INIT 396d4 40 .cfa: $rsp 64 + .ra: .cfa 8 - ^
STACK CFI INIT 39724 10b .cfa: $rsp 48 + $rbx: .cfa 16 - ^ .ra: .cfa 8 - ^
STACK CFI INIT 39874 10b .cfa: $rsp 48 + $rbx: .cfa 16 - ^ .ra: .cfa 8 - ^
STACK CFI INIT 399c4 114 .cfa: $rsp 48 + $rbx: .cfa 16 - ^ .ra: .cfa 8 - ^
STACK CFI INIT 39b20 114 .cfa: $rsp 48 + $rbx: .cfa 16 - ^ .ra: .cfa 8 - ^
STACK CFI INIT 39c8c 2b .cfa: $rsp 48 + .ra: .cfa 8 - ^
STACK CFI INIT 39cc4 2b .cfa: $rsp 48 + .ra: .cfa 8 - ^
STACK CFI INIT 39cfc 2b .cfa: $rsp 48 + .ra: .cfa 8 - ^
STACK CFI INIT 39d34 2b .cfa: $rsp 48 + .ra: .cfa 8 - ^
STACK CFI INIT 39d6c 9b .cfa: $rsp 48 + .ra: .cfa 8 - ^
STACK CFI INIT 39e30 9b .cfa: $rsp 48 + .ra: .cfa 8 - ^
STACK CFI INIT 39ef4 9b .cfa: $rsp 48 + .ra: .cfa 8 - ^
STACK CFI INIT 39fb8 9b .cfa: $rsp 48 + .ra: .cfa 8 - ^
STACK CFI INIT 3a08c 9b .cfa: $rsp 64 + $rbx: .cfa 16 - ^ .ra: .cfa 8 - ^
STACK CFI INIT 3a150 9b .cfa: $rsp 64 + $rbx: .cfa 16 - ^ .ra: .cfa 8 - ^
STACK CFI INIT 3a214 9d .cfa: $rsp 64 + $rbx: .cfa 16 - ^ .ra: .cfa 8 - ^
STACK CFI INIT 3a2d8 9d .cfa: $rsp 64 + $rbx: .cfa 16 - ^ .ra: .cfa 8 - ^
STACK CFI INIT 3a3ac 9a .cfa: $rsp 48 + .ra: .cfa 8 - ^
STACK CFI INIT 3a500 48 .cfa: $rsp 48 + $rbx: .cfa 16 - ^ .ra: .cfa 8 - ^
STACK CFI INIT 3a55c 4b .cfa: $rsp 48 + $rbx: .cfa 16 - ^ .ra: .cfa 8 - ^
STACK CFI INIT 3a670 40 .cfa: $rsp 48 + .ra: .cfa 8 - ^
STACK CFI INIT 3a6c0 43 .cfa: $rsp 48 + .ra: .cfa 8 - ^
STACK CFI INIT 3a714 121 .cfa: $rsp 96 + $rdi: .cfa 16 - ^ $rbx: .cfa 0 - ^ $rsi: .cfa 0 - ^ .ra: .cfa 8 - ^
STACK CFI INIT 3a880 121 .cfa: $rsp 96 + $rdi: .cfa 16 - ^ $rbx: .cfa 0 - ^ $rsi: .cfa 0 - ^ .ra: .cfa 8 - ^
STACK CFI INIT 3a9ec 121 .cfa: $rsp 96 + $rdi: .cfa 16 - ^ $rbx: .cfa 0 - ^ $rsi: .cfa 0 - ^ .ra: .cfa 8 - ^
STACK CFI INIT 3ab58 d5 .cfa: $rsp 96 + $rdi: .cfa 16 - ^ $rbx: .cfa 0 - ^ $rsi: .cfa 0 - ^ .ra: .cfa 8 - ^
STACK CFI INIT 3ac64 d5 .cfa: $rsp 96 + $rdi: .cfa 16 - ^ $rbx: .cfa 0 - ^ $rsi: .cfa 0 - ^ .ra: .cfa 8 - ^
STACK CFI INIT 3ad70 d5 .cfa: $rsp 96 + $rdi: .cfa 16 - ^ $rbx: .cfa 0 - ^ $rsi: .cfa 0 - ^ .ra: .cfa 8 - ^
STACK CFI INIT 3ae7c 106 .cfa: $rsp 80 + $rsi: .cfa 16 - ^ $rdi: .cfa 24 - ^ $r14: .cfa 32 - ^ $rbx: .cfa 0 - ^ $rbp: .cfa 0 - ^ .ra: .cfa 8 - ^
STACK CFI INIT 3afc4 106 .cfa: $rsp 80 + $rsi: .cfa 16 - ^ $rdi: .cfa 24 - ^ $r14: .cfa 32 - ^ $rbx: .cfa 0 - ^ $rbp: .cfa 0 - ^ .ra: .cfa 8 - ^
STACK CFI INIT 3b10c 106 .cfa: $rsp 80 + $rsi: .cfa 16 - ^ $rdi: .cfa 24 - ^ $r14: .cfa 32 - ^ $rbx: .cfa 0 - ^ $rbp: .cfa 0 - ^ .ra: .cfa 8 - ^
STACK CFI INIT 3b254 eb .cfa: $rsp 64 + $rdi: .cfa 16 - ^ $rbx: .cfa 0 - ^ $rbp: .cfa 0 - ^ $rsi: .cfa 0 - ^ .ra: .cfa 8 - ^
STACK CFI INIT 3b37c eb .cfa: $rsp 64 + $rdi: .cfa 16 - ^ $rbx: .cfa 0 - ^ $rbp: .cfa 0 - ^ $rsi: .cfa 0 - ^ .ra: .cfa 8 - ^
STACK CFI INIT 3b4a4 eb .cfa: $rsp 64 + $rdi: .cfa 16 - ^ $rbx: .cfa 0 - ^ $rbp: .cfa 0 - ^ $rsi: .cfa 0 - ^ .ra: .cfa 8 - ^
STACK CFI INIT 3b62c a3 .cfa: $rsp 48 + $r14: .cfa 16 - ^ $rbx: .cfa 0 - ^ $rbp: .cfa 0 - ^ $rsi: .cfa 0 - ^ $rdi: .cfa 0 - ^ .ra: .cfa 8 - ^
STACK CFI INIT 3b6f8 a5 .cfa: $rsp 64 + $rdi: .cfa 16 - ^ $r14: .cfa 24 - ^ $r15: .cfa 32 - ^ $rbx: .cfa 0 - ^ $rbp: .cfa 0 - ^ $rsi: .cfa 0 - ^ .ra: .cfa 8 - ^
STACK CFI INIT 3b7c8 f5 .cfa: $rsp 64 + $r12: .cfa 16 - ^ $r14: .cfa 24 - ^ $r15: .cfa 32 - ^ $rbx: .cfa 0 - ^ $rbp: .cfa 0 - ^ $rsi: .cfa 0 - ^ $rdi: .cfa 0 - ^ .ra: .cfa 8 - ^
STACK CFI INIT 3b8fc 103 .cfa: $rsp 64 + $r12: .cfa 16 - ^ $r14: .cfa 24 - ^ $r15: .cfa 32 - ^ $rbx: .cfa 0 - ^ $rbp: .cfa 0 - ^ $rsi: .cfa 0 - ^ $rdi: .cfa 0 - ^ .ra: .cfa 8 - ^
STACK CFI INIT 3ba9c 8b .cfa: $rsp 112 + $rbp: .cfa 16 - ^ .ra: .cfa 8 - ^
STACK CFI INIT 3bb4c 8b .cfa: $rsp 112 + $rbp: .cfa 16 - ^ .ra: .cfa 8 - ^
STACK CFI INIT 3bbfc 8b .cfa: $rsp 112 + $rbp: .cfa 16 - ^ .ra: .cfa 8 - ^
STACK CFI INIT 3bcac 8b .cfa: $rsp 112 + $rbp: .cfa 16 - ^ .ra: .cfa 8 - ^
STACK CFI INIT 3bd5c 8b .cfa: $rsp 112 + $rbp: .cfa 16 - ^ .ra: .cfa 8 - ^
STACK CFI INIT 3be0c 8b .cfa: $rsp 112 + $rbp: .cfa 16 - ^ .ra: .cfa 8 - ^
STACK CFI INIT 3bebc 134 .cfa: $rsp 80 + $rdi: .cfa 16 - ^ $r12: .cfa 24 - ^ $r14: .cfa 32 - ^ $rbx: .cfa 0 - ^ $rbp: .cfa 0 - ^ $rsi: .cfa 0 - ^ .ra: .cfa 8 - ^
STACK CFI INIT 3c040 143 .cfa: $rsp 80 + $r12: .cfa 16 - ^ $r13: .cfa 24 - ^ $r14: .cfa 32 - ^ $rbx: .cfa 0 - ^ $rbp: .cfa 0 - ^ $rsi: .cfa 0 - ^ $rdi: .cfa 0 - ^ .ra: .cfa 8 - ^
STACK CFI INIT 3c1e4 63 .cfa: $rsp 64 + $rbx: .cfa 16 - ^ .ra: .cfa 8 - ^
STACK CFI INIT 3c270 6e .cfa: $rsp 64 + $rdi: .cfa 16 - ^ $rbx: .cfa 0 - ^ .ra: .cfa 8 - ^
STACK CFI INIT 3c3e4 305 .cfa: $rsp 96 + $r13: .cfa 16 - ^ $r14: .cfa 24 - ^ $r15: .cfa 32 - ^ $rbx: .cfa 0 - ^ $rbp: .cfa 0 - ^ $rsi: .cfa 0 - ^ $rdi: .cfa 0 - ^ .ra: .cfa 8 - ^
STACK CFI INIT 3c7ac 6a8 .cfa: $rsp 112 + $rsi: .cfa 16 - ^ $rdi: .cfa 24 - ^ $r12: .cfa 32 - ^ $r14: .cfa 40 - ^ $r15: .cfa 48 - ^ $rbx: .cfa 0 - ^ $rbp: .cfa 0 - ^ .ra: .cfa 8 - ^
STACK CFI INIT 3d000 2f0 .cfa: $rsp 96 + $rdi: .cfa 16 - ^ $r14: .cfa 24 - ^ $r15: .cfa 32 - ^ $rbx: .cfa 0 - ^ $rbp: .cfa 0 - ^ $rsi: .cfa 0 - ^ .ra: .cfa 8 - ^
STACK CFI INIT 3d3ac 758 .cfa: $rsp 208 + $rsi: .cfa 16 - ^ $rdi: .cfa 24 - ^ $r12: .cfa 32 - ^ $r14: .cfa 40 - ^ $r15: .cfa 48 - ^ $rbx: .cfa 0 - ^ $rbp: .cfa 0 - ^ .ra: .cfa 8 - ^
STACK CFI INIT 3dcdc 2e .cfa: $rsp 64 + .ra: .cfa 8 - ^
STACK CFI INIT 3dd18 2e .cfa: $rsp 64 + .ra: .cfa 8 - ^
STACK CFI INIT 3dd54 2e .cfa: $rsp 64 + .ra: .cfa 8 - ^
STACK CFI INIT 3dd90 2e .cfa: $rsp 64 + .ra: .cfa 8 - ^
STACK CFI INIT 3de48 1e .cfa: $rsp 48 + .ra: .cfa 8 - ^
STACK CFI INIT 3de70 18 .cfa: $rsp 48 + .ra: .cfa 8 - ^
STACK CFI INIT 3e158 2a .cfa: $rsp 48 + .ra: .cfa 8 - ^
STACK CFI INIT 3e18c 2d .cfa: $rsp 48 + .ra: .cfa 8 - ^
STACK CFI INIT 3e1c4 25 .cfa: $rsp 48 + .ra: .cfa 8 - ^
STACK CFI INIT 3e1f4 25 .cfa: $rsp 48 + .ra: .cfa 8 - ^
STACK CFI INIT 3e474 29 .cfa: $rsp 64 + .ra: .cfa 8 - ^
STACK CFI INIT 3e4a8 2d .cfa: $rsp 64 + .ra: .cfa 8 - ^
STACK CFI INIT 3e4e0 2d .cfa: $rsp 64 + .ra: .cfa 8 - ^
STACK CFI INIT 3e518 2d .cfa: $rsp 64 + .ra: .cfa 8 - ^
STACK CFI INIT 3e550 2d .cfa: $rsp 64 + .ra: .cfa 8 - ^
STACK CFI INIT 3e588 61 .cfa: $rsp 48 + $rdi: .cfa 16 - ^ $rbx: .cfa 0 - ^ $rbp: .cfa 0 - ^ $rsi: .cfa 0 - ^ .ra: .cfa 8 - ^
STACK CFI INIT 3e604 76 .cfa: $rsp 48 + $rdi: .cfa 16 - ^ $rbx: .cfa 0 - ^ $rbp: .cfa 0 - ^ $rsi: .cfa 0 - ^ .ra: .cfa 8 - ^
STACK CFI INIT 3e698 29 .cfa: $rsp 64 + .ra: .cfa 8 - ^
STACK CFI INIT 3e6cc 29 .cfa: $rsp 64 + .ra: .cfa 8 - ^
STACK CFI INIT 3e700 2d .cfa: $rsp 64 + .ra: .cfa 8 - ^
STACK CFI INIT 3e738 2d .cfa: $rsp 64 + .ra: .cfa 8 - ^
STACK CFI INIT 3e770 29 .cfa: $rsp 64 + .ra: .cfa 8 - ^
STACK CFI INIT 3e7a4 2d .cfa: $rsp 64 + .ra: .cfa 8 - ^
STACK CFI INIT 3e7dc 29 .cfa: $rsp 64 + .ra: .cfa 8 - ^
STACK CFI INIT 3e810 2d .cfa: $rsp 64 + .ra: .cfa 8 - ^
STACK CFI INIT 3e848 29 .cfa: $rsp 64 + .ra: .cfa 8 - ^
STACK CFI INIT 3e87c 29 .cfa: $rsp 64 + .ra: .cfa 8 - ^
STACK CFI INIT 3e8b0 29 .cfa: $rsp 64 + .ra: .cfa 8 - ^
STACK CFI INIT 3e900 7d .cfa: $rsp 8 + .ra: .cfa 8 - ^
STACK CFI INIT 3e9c4 56 .cfa: $rsp 48 + .ra: .cfa 8 - ^
STACK CFI INIT 3ea7c 3f .cfa: $rsp 48 + $rdi: .cfa 16 - ^ $rbx: .cfa 0 - ^ .ra: .cfa 8 - ^
STACK CFI INIT 3eacc 3d .cfa: $rsp 48 + $rdi: .cfa 16 - ^ $rbx: .cfa 0 - ^ .ra: .cfa 8 - ^
STACK CFI INIT 3eb18 45 .cfa: $rsp 48 + $rdi: .cfa 16 - ^ $rbx: .cfa 0 - ^ .ra: .cfa 8 - ^
STACK CFI INIT 3eb70 5f .cfa: $rsp 48 + $rdi: .cfa 16 - ^ $rbx: .cfa 0 - ^ .ra: .cfa 8 - ^
STACK CFI INIT 3ebe8 26 .cfa: $rsp 48 + .ra: .cfa 8 - ^
STACK CFI INIT 3ec18 26 .cfa: $rsp 48 + .ra: .cfa 8 - ^
STACK CFI INIT 3ec48 26 .cfa: $rsp 48 + .ra: .cfa 8 - ^
STACK CFI INIT 3ec78 26 .cfa: $rsp 48 + .ra: .cfa 8 - ^
STACK CFI INIT 3ed38 1a .cfa: $rsp 48 + $rbx: .cfa 16 - ^ .ra: .cfa 8 - ^
STACK CFI INIT 3ed58 1b .cfa: $rsp 48 + $rbx: .cfa 16 - ^ .ra: .cfa 8 - ^
STACK CFI INIT 3ed9c 38 .cfa: $rsp 48 + .ra: .cfa 8 - ^
STACK CFI INIT 3ee60 c5 .cfa: $rsp 80 + $rbp: .cfa 16 - ^ .ra: .cfa 8 - ^
STACK CFI INIT 3ef58 cd .cfa: $rsp 96 + $rbp: .cfa 16 - ^ .ra: .cfa 8 - ^
STACK CFI INIT 3f05c 20 .cfa: $rsp 48 + $rbx: .cfa 16 - ^ .ra: .cfa 8 - ^
STACK CFI INIT 3f084 f5 .cfa: $rsp 64 + $rbp: .cfa 16 - ^ .ra: .cfa 8 - ^
STACK CFI INIT 3f1b8 f5 .cfa: $rsp 80 + $rbp: .cfa 16 - ^ .ra: .cfa 8 - ^
STACK CFI INIT 3f300 9f .cfa: $rsp 48 + $rdi: .cfa 16 - ^ $rbx: .cfa 0 - ^ .ra: .cfa 8 - ^
STACK CFI INIT 3f3c8 c8 .cfa: $rsp 48 + $rdi: .cfa 16 - ^ $rbx: .cfa 0 - ^ $rsi: .cfa 0 - ^ .ra: .cfa 8 - ^
STACK CFI INIT 3f4d0 1b .cfa: $rsp 48 + $rbx: .cfa 16 - ^ .ra: .cfa 8 - ^
STACK CFI INIT 3f4f4 67 .cfa: $rsp 48 + $rdi: .cfa 16 - ^ $rbx: .cfa 0 - ^ .ra: .cfa 8 - ^
STACK CFI INIT 3f574 20 .cfa: $rsp 48 + .ra: .cfa 8 - ^
STACK CFI INIT 3f5a0 41 .cfa: $rsp 48 + $rbx: .cfa 16 - ^ .ra: .cfa 8 - ^
STACK CFI INIT 3f5f4 d4 .cfa: $rsp 48 + $rdi: .cfa 16 - ^ $rbx: .cfa 0 - ^ $rsi: .cfa 0 - ^ .ra: .cfa 8 - ^
STACK CFI INIT 3f700 a7 .cfa: $rsp 48 + $rbx: .cfa 16 - ^ .ra: .cfa 8 - ^
STACK CFI INIT 3f7d0 cc .cfa: $rsp 48 + $rdi: .cfa 16 - ^ $rbx: .cfa 0 - ^ $rsi: .cfa 0 - ^ .ra: .cfa 8 - ^
STACK CFI INIT 3f8d0 39 .cfa: $rsp 48 + .ra: .cfa 8 - ^
STACK CFI INIT 3f918 22 .cfa: $rsp 48 + .ra: .cfa 8 - ^
STACK CFI INIT 3f960 3d .cfa: $rsp 48 + $rbx: .cfa 16 - ^ .ra: .cfa 8 - ^
STACK CFI INIT 3f9ac 48 .cfa: $rsp 48 + $rbx: .cfa 16 - ^ .ra: .cfa 8 - ^
STACK CFI INIT 3fa28 37 .cfa: $rsp 48 + $rbx: .cfa 16 - ^ .ra: .cfa 8 - ^
STACK CFI INIT 3fa8c 1b .cfa: $rsp 48 + .ra: .cfa 8 - ^
STACK CFI INIT 3fac4 4c .cfa: $rsp 48 + $rbx: .cfa 16 - ^ .ra: .cfa 8 - ^
STACK CFI INIT 3fb24 4c .cfa: $rsp 48 + $rbx: .cfa 16 - ^ .ra: .cfa 8 - ^
STACK CFI INIT 3fb84 69 .cfa: $rsp 48 + .ra: .cfa 8 - ^
STACK CFI INIT 3fc08 38 .cfa: $rsp 48 + $rbx: .cfa 16 - ^ .ra: .cfa 8 - ^
STACK CFI INIT 3fccc 51 .cfa: $rsp 48 + $rbx: .cfa 16 - ^ .ra: .cfa 8 - ^
STACK CFI INIT 3fd34 51 .cfa: $rsp 48 + $rbx: .cfa 16 - ^ .ra: .cfa 8 - ^
STACK CFI INIT 3fd9c 3c .cfa: $rsp 48 + $rbx: .cfa 16 - ^ .ra: .cfa 8 - ^
STACK CFI INIT 3fde8 6c .cfa: $rsp 48 + $rbx: .cfa 16 - ^ .ra: .cfa 8 - ^
STACK CFI INIT 3fec8 4e .cfa: $rsp 48 + $rdi: .cfa 16 - ^ $rbx: .cfa 0 - ^ .ra: .cfa 8 - ^
STACK CFI INIT 3ff2c 20 .cfa: $rsp 48 + .ra: .cfa 8 - ^
STACK CFI INIT 3ff54 20 .cfa: $rsp 48 + .ra: .cfa 8 - ^
STACK CFI INIT 3ff7c 3b .cfa: $rsp 48 + $rbx: .cfa 16 - ^ .ra: .cfa 8 - ^
STACK CFI INIT 3ffc8 3b .cfa: $rsp 48 + $rbx: .cfa 16 - ^ .ra: .cfa 8 - ^
STACK CFI INIT 40014 3a .cfa: $rsp 48 + $rbx: .cfa 16 - ^ .ra: .cfa 8 - ^
STACK CFI INIT 4005c 3a .cfa: $rsp 48 + $rbx: .cfa 16 - ^ .ra: .cfa 8 - ^
STACK CFI INIT 400a4 75 .cfa: $rsp 48 + $rbx: .cfa 16 - ^ .ra: .cfa 8 - ^
STACK CFI INIT 40168 179 .cfa: $rsp 64 + $r14: .cfa 16 - ^ $rbx: .cfa 0 - ^ $rbp: .cfa 0 - ^ $rsi: .cfa 0 - ^ $rdi: .cfa 0 - ^ .ra: .cfa 8 - ^
STACK CFI INIT 40340 18b .cfa: $rsp 80 + $r14: .cfa 16 - ^ $rbx: .cfa 0 - ^ $rbp: .cfa 0 - ^ $rsi: .cfa 0 - ^ $rdi: .cfa 0 - ^ .ra: .cfa 8 - ^
STACK CFI INIT 40530 176 .cfa: $rsp 64 + $r14: .cfa 16 - ^ $rbx: .cfa 0 - ^ $rbp: .cfa 0 - ^ $rsi: .cfa 0 - ^ $rdi: .cfa 0 - ^ .ra: .cfa 8 - ^
STACK CFI INIT 40704 18a .cfa: $rsp 80 + $r14: .cfa 16 - ^ $rbx: .cfa 0 - ^ $rbp: .cfa 0 - ^ $rsi: .cfa 0 - ^ $rdi: .cfa 0 - ^ .ra: .cfa 8 - ^
STACK CFI INIT 408f0 209 .cfa: $rsp 160 + $rbp: .cfa 16 - ^ $rsi: .cfa 24 - ^ $rdi: .cfa 32 - ^ $r12: .cfa 40 - ^ $r13: .cfa 48 - ^ $r14: .cfa 56 - ^ $r15: .cfa 64 - ^ $rbx: .cfa 0 - ^ .ra: .cfa 8 - ^
STACK CFI INIT 40b7c 3ca .cfa: $rsp 768 + $rbp: .cfa 16 - ^ $rsi: .cfa 24 - ^ $rdi: .cfa 32 - ^ $r12: .cfa 40 - ^ $r13: .cfa 48 - ^ $r14: .cfa 56 - ^ $r15: .cfa 64 - ^ $rbx: .cfa 0 - ^ .ra: .cfa 8 - ^
STACK CFI INIT 41038 187 .cfa: $rsp 96 + $rdi: .cfa 16 - ^ $r12: .cfa 24 - ^ $r13: .cfa 32 - ^ $r14: .cfa 40 - ^ $r15: .cfa 48 - ^ $rbx: .cfa 0 - ^ $rbp: .cfa 0 - ^ $rsi: .cfa 0 - ^ .ra: .cfa 8 - ^
STACK CFI INIT 41220 189 .cfa: $rsp 96 + $rdi: .cfa 16 - ^ $r12: .cfa 24 - ^ $r13: .cfa 32 - ^ $r14: .cfa 40 - ^ $r15: .cfa 48 - ^ $rbx: .cfa 0 - ^ $rbp: .cfa 0 - ^ $rsi: .cfa 0 - ^ .ra: .cfa 8 - ^
STACK CFI INIT 4140c 30e .cfa: $rsp 880 + $rbp: .cfa 16 - ^ $rsi: .cfa 24 - ^ $rdi: .cfa 32 - ^ $r12: .cfa 40 - ^ $r13: .cfa 48 - ^ $r14: .cfa 56 - ^ $r15: .cfa 64 - ^ $rbx: .cfa 0 - ^ .ra: .cfa 8 - ^
STACK CFI INIT 417e0 19b .cfa: $rsp 704 + $rbp: .cfa 16 - ^ $rsi: .cfa 24 - ^ $rdi: .cfa 32 - ^ $r14: .cfa 40 - ^ $r15: .cfa 48 - ^ $rbx: .cfa 0 - ^ .ra: .cfa 8 - ^
STACK CFI INIT 41b3c 22 .cfa: $rsp 48 + $rbx: .cfa 16 - ^ .ra: .cfa 8 - ^
STACK CFI INIT 41b68 22 .cfa: $rsp 48 + $rbx: .cfa 16 - ^ .ra: .cfa 8 - ^
STACK CFI INIT 41b94 22 .cfa: $rsp 48 + $rbx: .cfa 16 - ^ .ra: .cfa 8 - ^
STACK CFI INIT 41bc0 3d .cfa: $rsp 48 + $rdi: .cfa 16 - ^ $rbx: .cfa 0 - ^ .ra: .cfa 8 - ^
STACK CFI INIT 41c0c 3d .cfa: $rsp 48 + $rdi: .cfa 16 - ^ $rbx: .cfa 0 - ^ .ra: .cfa 8 - ^
STACK CFI INIT 41c70 25 .cfa: $rsp 64 + .ra: .cfa 8 - ^
STACK CFI INIT 41d28 2f .cfa: $rsp 80 + .ra: .cfa 8 - ^
STACK CFI INIT 41d64 49 .cfa: $rsp 80 + .ra: .cfa 8 - ^
STACK CFI INIT 41dc0 22 .cfa: $rsp 48 + $rbx: .cfa 16 - ^ .ra: .cfa 8 - ^
STACK CFI INIT 41dec 22 .cfa: $rsp 48 + $rbx: .cfa 16 - ^ .ra: .cfa 8 - ^
STACK CFI INIT 41e18 5b .cfa: $rsp 48 + $rdi: .cfa 16 - ^ $rbx: .cfa 0 - ^ .ra: .cfa 8 - ^
STACK CFI INIT 41e8c 5c .cfa: $rsp 48 + $rdi: .cfa 16 - ^ $rbx: .cfa 0 - ^ .ra: .cfa 8 - ^
STACK CFI INIT 41f00 24 .cfa: $rsp 48 + $rbx: .cfa 16 - ^ .ra: .cfa 8 - ^
STACK CFI INIT 41f30 de .cfa: $rsp 48 + $rdi: .cfa 16 - ^ $rbx: .cfa 0 - ^ $rbp: .cfa 0 - ^ $rsi: .cfa 0 - ^ .ra: .cfa 8 - ^
STACK CFI INIT 42048 de .cfa: $rsp 48 + $rdi: .cfa 16 - ^ $rbx: .cfa 0 - ^ $rbp: .cfa 0 - ^ $rsi: .cfa 0 - ^ .ra: .cfa 8 - ^
STACK CFI INIT 42178 22 .cfa: $rsp 48 + $rbx: .cfa 16 - ^ .ra: .cfa 8 - ^
STACK CFI INIT 421a4 14 .cfa: $rsp 48 + .ra: .cfa 8 - ^
STACK CFI INIT 421f0 c7 .cfa: $rsp 48 + $rdi: .cfa 16 - ^ $rbx: .cfa 0 - ^ $rbp: .cfa 0 - ^ $rsi: .cfa 0 - ^ .ra: .cfa 8 - ^
STACK CFI INIT 422e8 c7 .cfa: $rsp 48 + $rdi: .cfa 16 - ^ $rbx: .cfa 0 - ^ $rbp: .cfa 0 - ^ $rsi: .cfa 0 - ^ .ra: .cfa 8 - ^
STACK CFI INIT 423e4 9d .cfa: $rsp 80 + $rdi: .cfa 16 - ^ $rbx: .cfa 0 - ^ .ra: .cfa 8 - ^
STACK CFI INIT 424b8 9d .cfa: $rsp 80 + $rdi: .cfa 16 - ^ $rbx: .cfa 0 - ^ .ra: .cfa 8 - ^
STACK CFI INIT 4258c 31 .cfa: $rsp 48 + $rbx: .cfa 16 - ^ .ra: .cfa 8 - ^
STACK CFI INIT 425cc 31 .cfa: $rsp 48 + $rbx: .cfa 16 - ^ .ra: .cfa 8 - ^
STACK CFI INIT 4265c 119 .cfa: $rsp 80 + $rdi: .cfa 16 - ^ $rbx: .cfa 0 - ^ $rbp: .cfa 0 - ^ $rsi: .cfa 0 - ^ .ra: .cfa 8 - ^
STACK CFI INIT 427bc 111 .cfa: $rsp 80 + $rdi: .cfa 16 - ^ $rbx: .cfa 0 - ^ $rbp: .cfa 0 - ^ $rsi: .cfa 0 - ^ .ra: .cfa 8 - ^
STACK CFI INIT 42948 2f .cfa: $rsp 80 + .ra: .cfa 8 - ^
STACK CFI INIT 42994 30 .cfa: $rsp 48 + $rbx: .cfa 16 - ^ .ra: .cfa 8 - ^
STACK CFI INIT 429d0 17 .cfa: $rsp 48 + .ra: .cfa 8 - ^
STACK CFI INIT 42a30 11e .cfa: $rsp 672 + $rbp: .cfa 16 - ^ $rbx: .cfa 0 - ^ $rdi: .cfa 0 - ^ .ra: .cfa 8 - ^
STACK CFI INIT 42ba4 1ba .cfa: $rsp 48 + $rdi: .cfa 16 - ^ $rbx: .cfa 0 - ^ .ra: .cfa 8 - ^
STACK CFI INIT 42dcc 26 .cfa: $rsp 48 + .ra: .cfa 8 - ^
STACK CFI INIT 42e34 1b .cfa: $rsp 48 + $rbx: .cfa 16 - ^ .ra: .cfa 8 - ^
STACK CFI INIT 42e6c 1a0 .cfa: $rsp 48 + $rdi: .cfa 16 - ^ $rbx: .cfa 0 - ^ $rbp: .cfa 0 - ^ .ra: .cfa 8 - ^
STACK CFI INIT 430dc 7d .cfa: $rsp 80 + $rbx: .cfa 16 - ^ .ra: .cfa 8 - ^
STACK CFI INIT 43178 27 .cfa: $rsp 8 + $rdi: .cfa 0 - ^ .ra: .cfa 8 - ^
STACK CFI INIT 431b4 1b .cfa: $rsp 48 + $rbx: .cfa 16 - ^ .ra: .cfa 8 - ^
STACK CFI INIT 431d8 90 .cfa: $rsp 48 + $rdi: .cfa 16 - ^ $rbx: .cfa 0 - ^ $rbp: .cfa 0 - ^ $rsi: .cfa 0 - ^ .ra: .cfa 8 - ^
STACK CFI INIT 4328c 1e3 .cfa: $rsp 1936 + $rbp: .cfa 16 - ^ $rbx: .cfa 0 - ^ $rsi: .cfa 0 - ^ .ra: .cfa 8 - ^
STACK CFI INIT 434e8 1c2 .cfa: $rsp 96 + $rbp: .cfa 16 - ^ $rsi: .cfa 24 - ^ $rdi: .cfa 32 - ^ $rbx: .cfa 0 - ^ .ra: .cfa 8 - ^
STACK CFI INIT 4371c b8 .cfa: $rsp 48 + $rdi: .cfa 16 - ^ $rbx: .cfa 0 - ^ $rsi: .cfa 0 - ^ .ra: .cfa 8 - ^
STACK CFI INIT 4380c 60 .cfa: $rsp 48 + .ra: .cfa 8 - ^
STACK CFI INIT 43884 1c .cfa: $rsp 48 + .ra: .cfa 8 - ^
STACK CFI INIT 438c0 3a .cfa: $rsp 80 + .ra: .cfa 8 - ^
STACK CFI INIT 43908 25 .cfa: $rsp 48 + $rbx: .cfa 16 - ^ .ra: .cfa 8 - ^
STACK CFI INIT 43938 2b9 .cfa: $rsp 128 + $rbp: .cfa 16 - ^ $rsi: .cfa 24 - ^ $rdi: .cfa 32 - ^ $r12: .cfa 40 - ^ $r13: .cfa 48 - ^ $r14: .cfa 56 - ^ $r15: .cfa 64 - ^ $rbx: .cfa 0 - ^ .ra: .cfa 8 - ^
STACK CFI INIT 43ca0 87 .cfa: $rsp 48 + $rdi: .cfa 16 - ^ $rbx: .cfa 0 - ^ $rsi: .cfa 0 - ^ .ra: .cfa 8 - ^
STACK CFI INIT 43d48 75 .cfa: $rsp 80 + $rdi: .cfa 16 - ^ $rbx: .cfa 0 - ^ $rsi: .cfa 0 - ^ .ra: .cfa 8 - ^
STACK CFI INIT 43f18 65 .cfa: $rsp 80 + $rdi: .cfa 16 - ^ $rbx: .cfa 0 - ^ .ra: .cfa 8 - ^
STACK CFI INIT 440d8 25 .cfa: $rsp 48 + .ra: .cfa 8 - ^
STACK CFI INIT 44160 36 .cfa: $rsp 48 + .ra: .cfa 8 - ^
STACK CFI INIT 441a4 36 .cfa: $rsp 48 + .ra: .cfa 8 - ^
STACK CFI INIT 441e8 6c .cfa: $rsp 48 + $rbx: .cfa 16 - ^ .ra: .cfa 8 - ^
STACK CFI INIT 44270 65 .cfa: $rsp 48 + $rbx: .cfa 16 - ^ .ra: .cfa 8 - ^
STACK CFI INIT 44424 96 .cfa: $rsp 16 + $rbx: .cfa 16 - ^ .ra: .cfa 8 - ^
STACK CFI INIT 444e8 21 .cfa: $rsp 48 + $rbx: .cfa 16 - ^ .ra: .cfa 8 - ^
STACK CFI INIT 44520 21 .cfa: $rsp 48 + $rbx: .cfa 16 - ^ .ra: .cfa 8 - ^
STACK CFI INIT 4454c 11 .cfa: $rsp 48 + .ra: .cfa 8 - ^
STACK CFI INIT 445a4 101 .cfa: $rsp 80 + $r14: .cfa 16 - ^ $rbx: .cfa 0 - ^ $rbp: .cfa 0 - ^ $rsi: .cfa 0 - ^ $rdi: .cfa 0 - ^ .ra: .cfa 8 - ^
STACK CFI INIT 446e8 9f .cfa: $rsp 48 + $rdi: .cfa 16 - ^ $rbx: .cfa 0 - ^ $rbp: .cfa 0 - ^ $rsi: .cfa 0 - ^ .ra: .cfa 8 - ^
STACK CFI INIT 447b0 320 .cfa: $rsp 112 + $rbp: .cfa 16 - ^ $rsi: .cfa 24 - ^ $rdi: .cfa 32 - ^ $r12: .cfa 40 - ^ $r13: .cfa 48 - ^ $r14: .cfa 56 - ^ $r15: .cfa 64 - ^ $rbx: .cfa 0 - ^ .ra: .cfa 8 - ^
STACK CFI INIT 44b98 322 .cfa: $rsp 96 + $rdi: .cfa 16 - ^ $r12: .cfa 24 - ^ $r13: .cfa 32 - ^ $r14: .cfa 40 - ^ $r15: .cfa 48 - ^ $rbx: .cfa 0 - ^ $rbp: .cfa 0 - ^ $rsi: .cfa 0 - ^ .ra: .cfa 8 - ^
STACK CFI INIT 44f84 e5 .cfa: $rsp 64 + $r14: .cfa 16 - ^ $rbx: .cfa 0 - ^ $rsi: .cfa 0 - ^ $rdi: .cfa 0 - ^ .ra: .cfa 8 - ^
STACK CFI INIT 450a4 ef .cfa: $rsp 64 + $r14: .cfa 16 - ^ $rbx: .cfa 0 - ^ $rbp: .cfa 0 - ^ $rsi: .cfa 0 - ^ $rdi: .cfa 0 - ^ .ra: .cfa 8 - ^
STACK CFI INIT 451d0 25 .cfa: $rsp 48 + .ra: .cfa 8 - ^
STACK CFI INIT 45200 25 .cfa: $rsp 48 + .ra: .cfa 8 - ^
STACK CFI INIT 45230 81 .cfa: $rsp 48 + $rdi: .cfa 16 - ^ $rbx: .cfa 0 - ^ $rbp: .cfa 0 - ^ $rsi: .cfa 0 - ^ .ra: .cfa 8 - ^
STACK CFI INIT 452d4 91 .cfa: $rsp 48 + $r14: .cfa 16 - ^ $rbx: .cfa 0 - ^ $rbp: .cfa 0 - ^ $rsi: .cfa 0 - ^ $rdi: .cfa 0 - ^ .ra: .cfa 8 - ^
STACK CFI INIT 454f4 95 .cfa: $rsp 48 + $rdi: .cfa 16 - ^ $rbx: .cfa 0 - ^ $rbp: .cfa 0 - ^ $rsi: .cfa 0 - ^ .ra: .cfa 8 - ^
STACK CFI INIT 455f0 79 .cfa: $rsp 48 + $rdi: .cfa 16 - ^ $rbx: .cfa 0 - ^ .ra: .cfa 8 - ^
STACK CFI INIT 45688 26 .cfa: $rsp 48 + .ra: .cfa 8 - ^
STACK CFI INIT 45738 53 .cfa: $rsp 48 + .ra: .cfa 8 - ^
STACK CFI INIT 457d4 4d .cfa: $rsp 48 + .ra: .cfa 8 - ^
STACK CFI INIT 45d88 119 .cfa: $rsp 64 + $rdi: .cfa 16 - ^ $r14: .cfa 24 - ^ $r15: .cfa 32 - ^ $rbx: .cfa 0 - ^ $rbp: .cfa 0 - ^ $rsi: .cfa 0 - ^ .ra: .cfa 8 - ^
STACK CFI INIT 45ee8 1d6 .cfa: $rsp 80 + $rdi: .cfa 16 - ^ $r12: .cfa 24 - ^ $r13: .cfa 32 - ^ $r14: .cfa 40 - ^ $r15: .cfa 48 - ^ $rbx: .cfa 0 - ^ $rbp: .cfa 0 - ^ $rsi: .cfa 0 - ^ .ra: .cfa 8 - ^
STACK CFI INIT 46134 fe .cfa: $rsp 48 + $r14: .cfa 16 - ^ $rbx: .cfa 0 - ^ $rbp: .cfa 0 - ^ $rsi: .cfa 0 - ^ $rdi: .cfa 0 - ^ .ra: .cfa 8 - ^
STACK CFI INIT 46274 137 .cfa: $rsp 64 + $r12: .cfa 16 - ^ $r14: .cfa 24 - ^ $r15: .cfa 32 - ^ $rbx: .cfa 0 - ^ $rbp: .cfa 0 - ^ $rsi: .cfa 0 - ^ $rdi: .cfa 0 - ^ .ra: .cfa 8 - ^
STACK CFI INIT 463f8 73 .cfa: $rsp 48 + $rbx: .cfa 16 - ^ .ra: .cfa 8 - ^
STACK CFI INIT 46494 4e .cfa: $rsp 48 + $rbx: .cfa 16 - ^ .ra: .cfa 8 - ^
STACK CFI INIT 464f8 4e .cfa: $rsp 48 + $rbx: .cfa 16 - ^ .ra: .cfa 8 - ^
STACK CFI INIT 4655c 4e .cfa: $rsp 48 + $rbx: .cfa 16 - ^ .ra: .cfa 8 - ^
STACK CFI INIT 465c0 4e .cfa: $rsp 48 + $rbx: .cfa 16 - ^ .ra: .cfa 8 - ^
STACK CFI INIT 46624 3a .cfa: $rsp 48 + .ra: .cfa 8 - ^
STACK CFI INIT 4666c dc .cfa: $rsp 96 + $rdi: .cfa 16 - ^ $rbx: .cfa 0 - ^ $rbp: .cfa 0 - ^ $rsi: .cfa 0 - ^ .ra: .cfa 8 - ^
STACK CFI INIT 46780 95 .cfa: $rsp 96 + $rdi: .cfa 16 - ^ $rbx: .cfa 0 - ^ $rsi: .cfa 0 - ^ .ra: .cfa 8 - ^
STACK CFI INIT 4683c 48 .cfa: $rsp 48 + $rbx: .cfa 16 - ^ .ra: .cfa 8 - ^
STACK CFI INIT 46898 46 .cfa: $rsp 48 + $rbx: .cfa 16 - ^ .ra: .cfa 8 - ^
STACK CFI INIT 468f0 46 .cfa: $rsp 48 + $rbx: .cfa 16 - ^ .ra: .cfa 8 - ^
STACK CFI INIT 46948 51 .cfa: $rsp 48 + $rdi: .cfa 16 - ^ $rbx: .cfa 0 - ^ .ra: .cfa 8 - ^
STACK CFI INIT 469b0 b6 .cfa: $rsp 80 + $rdi: .cfa 16 - ^ $rbx: .cfa 0 - ^ $rbp: .cfa 0 - ^ $rsi: .cfa 0 - ^ .ra: .cfa 8 - ^
STACK CFI INIT 46a94 39 .cfa: $rsp 48 + .ra: .cfa 8 - ^
STACK CFI INIT 46adc 82 .cfa: $rsp 64 + $rdi: .cfa 16 - ^ $rbx: .cfa 0 - ^ $rbp: .cfa 0 - ^ $rsi: .cfa 0 - ^ .ra: .cfa 8 - ^
STACK CFI INIT 46b80 48 .cfa: $rsp 48 + $rbx: .cfa 16 - ^ .ra: .cfa 8 - ^
STACK CFI INIT 46bdc ab .cfa: $rsp 80 + $rdi: .cfa 16 - ^ $rbx: .cfa 0 - ^ $rbp: .cfa 0 - ^ $rsi: .cfa 0 - ^ .ra: .cfa 8 - ^
STACK CFI INIT 46cb4 61 .cfa: $rsp 48 + $rdi: .cfa 16 - ^ $rbx: .cfa 0 - ^ .ra: .cfa 8 - ^
STACK CFI INIT 46d30 51 .cfa: $rsp 48 + $rdi: .cfa 16 - ^ $rbx: .cfa 0 - ^ .ra: .cfa 8 - ^
STACK CFI INIT 46d98 61 .cfa: $rsp 48 + $rdi: .cfa 16 - ^ $rbx: .cfa 0 - ^ $rsi: .cfa 0 - ^ .ra: .cfa 8 - ^
STACK CFI INIT 46e14 56 .cfa: $rsp 48 + $rbx: .cfa 16 - ^ .ra: .cfa 8 - ^
STACK CFI INIT 46e80 70 .cfa: $rsp 64 + $rdi: .cfa 16 - ^ $rbx: .cfa 0 - ^ $rbp: .cfa 0 - ^ $rsi: .cfa 0 - ^ .ra: .cfa 8 - ^
STACK CFI INIT 46f0c dc .cfa: $rsp 96 + $rdi: .cfa 16 - ^ $rbx: .cfa 0 - ^ $rbp: .cfa 0 - ^ $rsi: .cfa 0 - ^ .ra: .cfa 8 - ^
STACK CFI INIT 47020 50 .cfa: $rsp 48 + $rdi: .cfa 16 - ^ $rbx: .cfa 0 - ^ .ra: .cfa 8 - ^
STACK CFI INIT 47084 5f .cfa: $rsp 48 + $rdi: .cfa 16 - ^ $rbx: .cfa 0 - ^ $rsi: .cfa 0 - ^ .ra: .cfa 8 - ^
STACK CFI INIT 470fc 71 .cfa: $rsp 64 + $rdi: .cfa 16 - ^ $rbx: .cfa 0 - ^ $rbp: .cfa 0 - ^ $rsi: .cfa 0 - ^ .ra: .cfa 8 - ^
STACK CFI INIT 4718c 71 .cfa: $rsp 64 + $rdi: .cfa 16 - ^ $rbx: .cfa 0 - ^ $rbp: .cfa 0 - ^ $rsi: .cfa 0 - ^ .ra: .cfa 8 - ^
STACK CFI INIT 4721c 40 .cfa: $rsp 48 + $rbx: .cfa 16 - ^ .ra: .cfa 8 - ^
STACK CFI INIT 4726c 33 .cfa: $rsp 48 + .ra: .cfa 8 - ^
STACK CFI INIT 472ac 4f .cfa: $rsp 48 + $rdi: .cfa 16 - ^ $rbx: .cfa 0 - ^ .ra: .cfa 8 - ^
STACK CFI INIT 47310 42 .cfa: $rsp 48 + $rbx: .cfa 16 - ^ .ra: .cfa 8 - ^
STACK CFI INIT 47364 6d .cfa: $rsp 48 + $rdi: .cfa 16 - ^ $rbx: .cfa 0 - ^ .ra: .cfa 8 - ^
STACK CFI INIT 473ec 2e .cfa: $rsp 48 + .ra: .cfa 8 - ^
STACK CFI INIT 47428 2e .cfa: $rsp 48 + .ra: .cfa 8 - ^
STACK CFI INIT 47464 15a .cfa: $rsp 48 + .ra: .cfa 8 - ^
STACK CFI INIT 47614 78 .cfa: $rsp 48 + $rbx: .cfa 16 - ^ .ra: .cfa 8 - ^
STACK CFI INIT 476ac 31 .cfa: $rsp 8 + $rdi: .cfa 0 - ^ .ra: .cfa 8 - ^
STACK CFI INIT 476ec c6 .cfa: $rsp 96 + $rdi: .cfa 16 - ^ $rbx: .cfa 0 - ^ .ra: .cfa 8 - ^
STACK CFI INIT 477e4 41 .cfa: $rsp 48 + $rbx: .cfa 16 - ^ .ra: .cfa 8 - ^
STACK CFI INIT 47844 1c .cfa: $rsp 48 + .ra: .cfa 8 - ^
STACK CFI INIT 478a8 ed .cfa: $rsp 160 + $r14: .cfa 16 - ^ $rbx: .cfa 0 - ^ $rbp: .cfa 0 - ^ $rsi: .cfa 0 - ^ $rdi: .cfa 0 - ^ .ra: .cfa 8 - ^
STACK CFI INIT 479d0 10c .cfa: $rsp 48 + $r14: .cfa 16 - ^ $rbx: .cfa 0 - ^ $rbp: .cfa 0 - ^ $rsi: .cfa 0 - ^ $rdi: .cfa 0 - ^ .ra: .cfa 8 - ^
STACK CFI INIT 47b20 3b .cfa: $rsp 48 + $rbx: .cfa 16 - ^ .ra: .cfa 8 - ^
STACK CFI INIT 47b6c 40 .cfa: $rsp 48 + $rdi: .cfa 16 - ^ $rbx: .cfa 0 - ^ .ra: .cfa 8 - ^
STACK CFI INIT 47bbc 80 .cfa: $rsp 48 + $rdi: .cfa 16 - ^ $rbx: .cfa 0 - ^ $rsi: .cfa 0 - ^ .ra: .cfa 8 - ^
STACK CFI INIT 47c5c 3c .cfa: $rsp 48 + $rdi: .cfa 16 - ^ $rbx: .cfa 0 - ^ .ra: .cfa 8 - ^
STACK CFI INIT 47d08 27 .cfa: $rsp 8 + $rdi: .cfa 0 - ^ .ra: .cfa 8 - ^
STACK CFI INIT 47d48 2f .cfa: $rsp 48 + $rbx: .cfa 16 - ^ .ra: .cfa 8 - ^
STACK CFI INIT 47d84 34 .cfa: $rsp 48 + $rbx: .cfa 16 - ^ .ra: .cfa 8 - ^
STACK CFI INIT 47dc8 59 .cfa: $rsp 48 + $rdi: .cfa 16 - ^ $rbx: .cfa 0 - ^ .ra: .cfa 8 - ^
STACK CFI INIT 47e44 45 .cfa: $rsp 48 + $rdi: .cfa 16 - ^ $rbx: .cfa 0 - ^ .ra: .cfa 8 - ^
STACK CFI INIT 47e9c 26 .cfa: $rsp 48 + .ra: .cfa 8 - ^
STACK CFI INIT 47f54 92 .cfa: $rsp 48 + $rdi: .cfa 16 - ^ $rbx: .cfa 0 - ^ .ra: .cfa 8 - ^
STACK CFI INIT 48058 27 .cfa: $rsp 8 + $rdi: .cfa 0 - ^ .ra: .cfa 8 - ^
STACK CFI INIT 480e4 27 .cfa: $rsp 48 + .ra: .cfa 8 - ^
STACK CFI INIT 48118 2e .cfa: $rsp 48 + .ra: .cfa 8 - ^
STACK CFI INIT 48178 12 .cfa: $rsp 48 + .ra: .cfa 8 - ^
STACK CFI INIT 48190 12 .cfa: $rsp 48 + .ra: .cfa 8 - ^
STACK CFI INIT 481a8 26c .cfa: $rsp 112 + $rsi: .cfa 16 - ^ $rdi: .cfa 24 - ^ $r12: .cfa 32 - ^ $r13: .cfa 40 - ^ $r14: .cfa 48 - ^ $rbx: .cfa 0 - ^ .ra: .cfa 8 - ^
STACK CFI INIT 484b0 1da .cfa: $rsp 64 + $r15: .cfa 16 - ^ $rbx: .cfa 0 - ^ $rdi: .cfa 0 - ^ $r14: .cfa 0 - ^ .ra: .cfa 8 - ^
STACK CFI INIT 48744 27 .cfa: $rsp 8 + $rdi: .cfa 0 - ^ .ra: .cfa 8 - ^
STACK CFI INIT 48814 9a .cfa: $rsp 48 + $rdi: .cfa 16 - ^ $rbx: .cfa 0 - ^ .ra: .cfa 8 - ^
STACK CFI INIT 488d4 e0 .cfa: $rsp 128 + $rsi: .cfa 16 - ^ $rdi: .cfa 24 - ^ $r14: .cfa 32 - ^ $rbx: .cfa 0 - ^ .ra: .cfa 8 - ^
STACK CFI INIT 489ec 40 .cfa: $rsp 48 + $rdi: .cfa 16 - ^ $rbx: .cfa 0 - ^ .ra: .cfa 8 - ^
STACK CFI INIT 48a3c 26 .cfa: $rsp 48 + .ra: .cfa 8 - ^
STACK CFI INIT 48a6c 28 .cfa: $rsp 48 + .ra: .cfa 8 - ^
STACK CFI INIT 48aa0 28 .cfa: $rsp 48 + .ra: .cfa 8 - ^
STACK CFI INIT 48b90 ae .cfa: $rsp 112 + $rbp: .cfa 16 - ^ $rsi: .cfa 24 - ^ $rdi: .cfa 32 - ^ $rbx: .cfa 0 - ^ .ra: .cfa 8 - ^
STACK CFI INIT 48c78 78 .cfa: $rsp 48 + $rbx: .cfa 16 - ^ .ra: .cfa 8 - ^
STACK CFI INIT 48d34 5d .cfa: $rsp 80 + $rbp: .cfa 16 - ^ .ra: .cfa 8 - ^
STACK CFI INIT 48e98 7a .cfa: $rsp 48 + $rdi: .cfa 16 - ^ $rbx: .cfa 0 - ^ $rsi: .cfa 0 - ^ .ra: .cfa 8 - ^
STACK CFI INIT 48f30 4b .cfa: $rsp 48 + $rbx: .cfa 16 - ^ .ra: .cfa 8 - ^
STACK CFI INIT 48f98 66 .cfa: $rsp 64 + .ra: .cfa 8 - ^
STACK CFI INIT 49018 30 .cfa: $rsp 48 + .ra: .cfa 8 - ^
STACK CFI INIT 49068 1b .cfa: $rsp 48 + $rbx: .cfa 16 - ^ .ra: .cfa 8 - ^
STACK CFI INIT 49098 1b .cfa: $rsp 48 + $rbx: .cfa 16 - ^ .ra: .cfa 8 - ^
STACK CFI INIT 490bc 11f .cfa: $rsp 48 + $r14: .cfa 16 - ^ $rbx: .cfa 0 - ^ $rbp: .cfa 0 - ^ $rsi: .cfa 0 - ^ $rdi: .cfa 0 - ^ .ra: .cfa 8 - ^
STACK CFI INIT 4923c 5b .cfa: $rsp 48 + $rbx: .cfa 16 - ^ .ra: .cfa 8 - ^
STACK CFI INIT 492b0 47 .cfa: $rsp 48 + .ra: .cfa 8 - ^
STACK CFI INIT 4935c cf .cfa: $rsp 48 + $rdi: .cfa 16 - ^ $rbx: .cfa 0 - ^ .ra: .cfa 8 - ^
STACK CFI INIT 49460 39 .cfa: $rsp 48 + $rbx: .cfa 16 - ^ .ra: .cfa 8 - ^
STACK CFI INIT 494a8 5e .cfa: $rsp 48 + $rbx: .cfa 16 - ^ .ra: .cfa 8 - ^
STACK CFI INIT 49550 2e .cfa: $rsp 64 + .ra: .cfa 8 - ^
STACK CFI INIT 4958c 2e .cfa: $rsp 64 + .ra: .cfa 8 - ^
STACK CFI INIT 495c8 2e .cfa: $rsp 64 + .ra: .cfa 8 - ^
STACK CFI INIT 49604 2e .cfa: $rsp 64 + .ra: .cfa 8 - ^
STACK CFI INIT 49640 2e .cfa: $rsp 64 + .ra: .cfa 8 - ^
STACK CFI INIT 4967c 2e .cfa: $rsp 64 + .ra: .cfa 8 - ^
STACK CFI INIT 496b8 2e .cfa: $rsp 64 + .ra: .cfa 8 - ^
STACK CFI INIT 496f4 2e .cfa: $rsp 64 + .ra: .cfa 8 - ^
STACK CFI INIT 49730 2a .cfa: $rsp 64 + .ra: .cfa 8 - ^
STACK CFI INIT 49764 2e .cfa: $rsp 64 + .ra: .cfa 8 - ^
STACK CFI INIT 497a0 2e .cfa: $rsp 64 + .ra: .cfa 8 - ^
STACK CFI INIT 497dc 2e .cfa: $rsp 64 + .ra: .cfa 8 - ^
STACK CFI INIT 49818 2e .cfa: $rsp 64 + .ra: .cfa 8 - ^
STACK CFI INIT 49854 2a .cfa: $rsp 64 + .ra: .cfa 8 - ^
STACK CFI INIT 49888 2e .cfa: $rsp 64 + .ra: .cfa 8 - ^
STACK CFI INIT 498c4 2e .cfa: $rsp 64 + .ra: .cfa 8 - ^
STACK CFI INIT 49900 2e .cfa: $rsp 64 + .ra: .cfa 8 - ^
STACK CFI INIT 4993c 2e .cfa: $rsp 64 + .ra: .cfa 8 - ^
STACK CFI INIT 49978 2a .cfa: $rsp 64 + .ra: .cfa 8 - ^
STACK CFI INIT 499ac 2e .cfa: $rsp 64 + .ra: .cfa 8 - ^
STACK CFI INIT 499e8 2e .cfa: $rsp 64 + .ra: .cfa 8 - ^
STACK CFI INIT 49a24 2e .cfa: $rsp 64 + .ra: .cfa 8 - ^
STACK CFI INIT 49a60 2e .cfa: $rsp 64 + .ra: .cfa 8 - ^
STACK CFI INIT 49a9c 2a .cfa: $rsp 64 + .ra: .cfa 8 - ^
STACK CFI INIT 49ad0 2e .cfa: $rsp 64 + .ra: .cfa 8 - ^
STACK CFI INIT 49b0c 2e .cfa: $rsp 64 + .ra: .cfa 8 - ^
STACK CFI INIT 49b48 2e .cfa: $rsp 64 + .ra: .cfa 8 - ^
STACK CFI INIT 49b84 2e .cfa: $rsp 64 + .ra: .cfa 8 - ^
STACK CFI INIT 49bc0 2a .cfa: $rsp 64 + .ra: .cfa 8 - ^
STACK CFI INIT 49bf4 2a .cfa: $rsp 64 + .ra: .cfa 8 - ^
STACK CFI INIT 49c28 2a .cfa: $rsp 64 + .ra: .cfa 8 - ^
STACK CFI INIT 49c5c 2a .cfa: $rsp 64 + .ra: .cfa 8 - ^
STACK CFI INIT 49c90 2a .cfa: $rsp 64 + .ra: .cfa 8 - ^
STACK CFI INIT 49cc4 2a .cfa: $rsp 64 + .ra: .cfa 8 - ^
STACK CFI INIT 49cf8 2a .cfa: $rsp 64 + .ra: .cfa 8 - ^
STACK CFI INIT 49d2c 2a .cfa: $rsp 64 + .ra: .cfa 8 - ^
STACK CFI INIT 49d60 2a .cfa: $rsp 64 + .ra: .cfa 8 - ^
STACK CFI INIT 49d94 2a .cfa: $rsp 64 + .ra: .cfa 8 - ^
STACK CFI INIT 49dc8 2a .cfa: $rsp 64 + .ra: .cfa 8 - ^
STACK CFI INIT 49dfc 2a .cfa: $rsp 64 + .ra: .cfa 8 - ^
STACK CFI INIT 49e30 17e .cfa: $rsp 96 + $rdi: .cfa 16 - ^ $rbx: .cfa 0 - ^ $rbp: .cfa 0 - ^ $rsi: .cfa 0 - ^ .ra: .cfa 8 - ^
STACK CFI INIT 4a01c 72 .cfa: $rsp 96 + $rdi: .cfa 16 - ^ $rbx: .cfa 0 - ^ .ra: .cfa 8 - ^
STACK CFI INIT 4a0ac 19c .cfa: $rsp 128 + $rbp: .cfa 16 - ^ $rsi: .cfa 24 - ^ $rdi: .cfa 32 - ^ $rbx: .cfa 0 - ^ .ra: .cfa 8 - ^
STACK CFI INIT 4a2b0 4d .cfa: $rsp 64 + $rdi: .cfa 16 - ^ $rbx: .cfa 0 - ^ .ra: .cfa 8 - ^
STACK CFI INIT 4a310 14 .cfa: $rsp 64 + .ra: .cfa 8 - ^
STACK CFI INIT 4b3bc 31 .cfa: $rsp 48 + $rbx: .cfa 16 - ^ .ra: .cfa 8 - ^
STACK CFI INIT 4b3fc 31 .cfa: $rsp 48 + $rbx: .cfa 16 - ^ .ra: .cfa 8 - ^
STACK CFI INIT 4b4bc 36d .cfa: $rsp 160 + $rdi: .cfa 16 - ^ $r12: .cfa 24 - ^ $r13: .cfa 32 - ^ $r14: .cfa 40 - ^ $r15: .cfa 48 - ^ $rbx: .cfa 0 - ^ $rbp: .cfa 0 - ^ $rsi: .cfa 0 - ^ .ra: .cfa 8 - ^
STACK CFI INIT 4b904 db .cfa: $rsp 96 + $rdi: .cfa 16 - ^ $rbx: .cfa 0 - ^ $rbp: .cfa 0 - ^ $rsi: .cfa 0 - ^ .ra: .cfa 8 - ^
STACK CFI INIT 4ba18 1d2 .cfa: $rsp 96 + $r15: .cfa 16 - ^ $rbx: .cfa 0 - ^ $rbp: .cfa 0 - ^ $rsi: .cfa 0 - ^ $rdi: .cfa 0 - ^ .ra: .cfa 8 - ^
STACK CFI INIT 4bc60 a6 .cfa: $rsp 80 + $rdi: .cfa 16 - ^ $rbx: .cfa 0 - ^ $rsi: .cfa 0 - ^ .ra: .cfa 8 - ^
STACK CFI INIT 4bd30 143 .cfa: $rsp 80 + $r14: .cfa 16 - ^ $rbx: .cfa 0 - ^ $rbp: .cfa 0 - ^ $rsi: .cfa 0 - ^ $rdi: .cfa 0 - ^ .ra: .cfa 8 - ^
STACK CFI INIT 4bec4 132 .cfa: $rsp 96 + $r14: .cfa 16 - ^ $rbx: .cfa 0 - ^ $rbp: .cfa 0 - ^ $rdi: .cfa 0 - ^ .ra: .cfa 8 - ^
STACK CFI INIT 4c044 a5 .cfa: $rsp 64 + $rbx: .cfa 16 - ^ .ra: .cfa 8 - ^
STACK CFI INIT 4c114 30 .cfa: $rsp 48 + .ra: .cfa 8 - ^
STACK CFI INIT 4c158 304 .cfa: $rsp 112 + $rdi: .cfa 16 - ^ $rbx: .cfa 0 - ^ $rbp: .cfa 0 - ^ $rsi: .cfa 0 - ^ .ra: .cfa 8 - ^
STACK CFI INIT 4c544 17c .cfa: $rsp 96 + $rsi: .cfa 16 - ^ $rdi: .cfa 24 - ^ $r14: .cfa 32 - ^ $rbx: .cfa 0 - ^ $rbp: .cfa 0 - ^ .ra: .cfa 8 - ^
STACK CFI INIT 4c720 23 .cfa: $rsp 48 + $rbx: .cfa 16 - ^ .ra: .cfa 8 - ^
STACK CFI INIT 4c754 5e .cfa: $rsp 48 + $rdi: .cfa 16 - ^ $rbx: .cfa 0 - ^ .ra: .cfa 8 - ^
STACK CFI INIT 4c7e4 26 .cfa: $rsp 48 + .ra: .cfa 8 - ^
STACK CFI INIT 4c830 21 .cfa: $rsp 48 + $rbx: .cfa 16 - ^ .ra: .cfa 8 - ^
STACK CFI INIT 4c878 124 .cfa: $rsp 64 + $rdi: .cfa 16 - ^ $rbx: .cfa 0 - ^ .ra: .cfa 8 - ^
STACK CFI INIT 4ca64 3e .cfa: $rsp 48 + $rdi: .cfa 16 - ^ $rbx: .cfa 0 - ^ .ra: .cfa 8 - ^
STACK CFI INIT 4cab4 13a .cfa: $rsp 48 + $rdi: .cfa 16 - ^ $rbx: .cfa 0 - ^ .ra: .cfa 8 - ^
STACK CFI INIT 4cc3c 6e .cfa: $rsp 64 + $rdi: .cfa 16 - ^ $rbx: .cfa 0 - ^ $rsi: .cfa 0 - ^ .ra: .cfa 8 - ^
STACK CFI INIT 4ccc8 29 .cfa: $rsp 48 + $rbx: .cfa 16 - ^ .ra: .cfa 8 - ^
STACK CFI INIT 4ccfc 41 .cfa: $rsp 48 + $rdi: .cfa 16 - ^ $rbx: .cfa 0 - ^ .ra: .cfa 8 - ^
STACK CFI INIT 4cd50 26 .cfa: $rsp 48 + .ra: .cfa 8 - ^
STACK CFI INIT 4cd80 26 .cfa: $rsp 48 + .ra: .cfa 8 - ^
STACK CFI INIT 4cdb0 26 .cfa: $rsp 48 + .ra: .cfa 8 - ^
STACK CFI INIT 4cde0 26 .cfa: $rsp 48 + .ra: .cfa 8 - ^
STACK CFI INIT 4ce2c 4e .cfa: $rsp 48 + $rdi: .cfa 16 - ^ $rbx: .cfa 0 - ^ $rsi: .cfa 0 - ^ .ra: .cfa 8 - ^
STACK CFI INIT 4cf70 59 .cfa: $rsp 64 + $rbx: .cfa 16 - ^ .ra: .cfa 8 - ^
STACK CFI INIT 4cfe0 1b .cfa: $rsp 48 + $rbx: .cfa 16 - ^ .ra: .cfa 8 - ^
STACK CFI INIT 4d004 1b .cfa: $rsp 48 + $rbx: .cfa 16 - ^ .ra: .cfa 8 - ^
STACK CFI INIT 4d028 48 .cfa: $rsp 64 + .ra: .cfa 8 - ^
STACK CFI INIT 4d0b4 8e .cfa: $rsp 96 + $rdi: .cfa 16 - ^ $rbx: .cfa 0 - ^ .ra: .cfa 8 - ^
STACK CFI INIT 4d168 26 .cfa: $rsp 48 + $rbx: .cfa 16 - ^ .ra: .cfa 8 - ^
STACK CFI INIT 4d1a0 2c .cfa: $rsp 48 + .ra: .cfa 8 - ^
STACK CFI INIT 4d238 11d .cfa: $rsp 48 + $rbx: .cfa 16 - ^ .ra: .cfa 8 - ^
STACK CFI INIT 4d39c 77 .cfa: $rsp 64 + $rdi: .cfa 16 - ^ $rbx: .cfa 0 - ^ $rsi: .cfa 0 - ^ .ra: .cfa 8 - ^
STACK CFI INIT 4d430 3f .cfa: $rsp 64 + $rbx: .cfa 16 - ^ .ra: .cfa 8 - ^
STACK CFI INIT 4d4b8 1b .cfa: $rsp 48 + $rbx: .cfa 16 - ^ .ra: .cfa 8 - ^
STACK CFI INIT 4d4dc 1b .cfa: $rsp 48 + $rbx: .cfa 16 - ^ .ra: .cfa 8 - ^
STACK CFI INIT 4d500 82 .cfa: $rsp 64 + $rdi: .cfa 16 - ^ $rbx: .cfa 0 - ^ $rsi: .cfa 0 - ^ .ra: .cfa 8 - ^
STACK CFI INIT 4d5b4 2e .cfa: $rsp 48 + .ra: .cfa 8 - ^
STACK CFI INIT 4d614 a2 .cfa: $rsp 64 + $rdi: .cfa 16 - ^ $rbx: .cfa 0 - ^ $rbp: .cfa 0 - ^ $rsi: .cfa 0 - ^ .ra: .cfa 8 - ^
STACK CFI INIT 4d6e0 166 .cfa: $rsp 80 + $rdi: .cfa 16 - ^ $r14: .cfa 24 - ^ $r15: .cfa 32 - ^ $rbx: .cfa 0 - ^ $rbp: .cfa 0 - ^ $rsi: .cfa 0 - ^ .ra: .cfa 8 - ^
STACK CFI INIT 4d8a0 69 .cfa: $rsp 48 + $rbx: .cfa 16 - ^ .ra: .cfa 8 - ^
STACK CFI INIT 4d924 be .cfa: $rsp 48 + .ra: .cfa 8 - ^
STACK CFI INIT 4da14 76 .cfa: $rsp 352 + $rbx: .cfa 16 - ^ .ra: .cfa 8 - ^
STACK CFI INIT 4daa8 47f .cfa: $rsp 688 + $rbp: .cfa 16 - ^ $rbx: .cfa 24 - ^ $rsi: .cfa 32 - ^ $rdi: .cfa 40 - ^ $r12: .cfa 48 - ^ $r13: .cfa 56 - ^ $r14: .cfa 64 - ^ $r15: .cfa 72 - ^ .ra: .cfa 8 - ^
STACK CFI INIT 4e048 a2 .cfa: $rsp 48 + $rbx: .cfa 16 - ^ .ra: .cfa 8 - ^
STACK CFI INIT 4e114 bb .cfa: $rsp 80 + $rbp: .cfa 16 - ^ $rbx: .cfa 24 - ^ $rdi: .cfa 32 - ^ .ra: .cfa 8 - ^
STACK CFI INIT 4e200 148 .cfa: $rsp 64 + $r12: .cfa 16 - ^ $r14: .cfa 24 - ^ $r15: .cfa 32 - ^ $rbx: .cfa 0 - ^ $rbp: .cfa 0 - ^ $rsi: .cfa 0 - ^ $rdi: .cfa 0 - ^ .ra: .cfa 8 - ^
STACK CFI INIT 4e39c 65 .cfa: $rsp 96 + $rbx: .cfa 16 - ^ $rbp: .cfa 24 - ^ $rsi: .cfa 32 - ^ $rdi: .cfa 40 - ^ .ra: .cfa 8 - ^
STACK CFI INIT 4e41c a1 .cfa: $rsp 112 + $rbp: .cfa 16 - ^ .ra: .cfa 8 - ^
STACK CFI INIT 4e4e8 1ea .cfa: $rsp 96 + $rdi: .cfa 16 - ^ $r12: .cfa 24 - ^ $r13: .cfa 32 - ^ $r14: .cfa 40 - ^ $r15: .cfa 48 - ^ $rbx: .cfa 0 - ^ $rbp: .cfa 0 - ^ $rsi: .cfa 0 - ^ .ra: .cfa 8 - ^
STACK CFI INIT 4e74c 296 .cfa: $rsp 592 + $rbp: .cfa 16 - ^ $rsi: .cfa 24 - ^ $rdi: .cfa 32 - ^ $r12: .cfa 40 - ^ $r13: .cfa 48 - ^ $r14: .cfa 56 - ^ $r15: .cfa 64 - ^ $rbx: .cfa 0 - ^ .ra: .cfa 8 - ^
STACK CFI INIT 4ea88 352 .cfa: $rsp 880 + $rbp: .cfa 16 - ^ $rsi: .cfa 24 - ^ $rdi: .cfa 32 - ^ $r12: .cfa 40 - ^ $r13: .cfa 48 - ^ $r14: .cfa 56 - ^ $r15: .cfa 64 - ^ $rbx: .cfa 0 - ^ .ra: .cfa 8 - ^
STACK CFI INIT 4eedc 34 .cfa: $rsp 48 + .ra: .cfa 8 - ^
STACK CFI INIT 4ef20 1ff .cfa: $rsp 208 + $rbp: .cfa 16 - ^ $rsi: .cfa 24 - ^ $rdi: .cfa 32 - ^ $r12: .cfa 40 - ^ $r13: .cfa 48 - ^ $r14: .cfa 56 - ^ $r15: .cfa 64 - ^ $rbx: .cfa 0 - ^ .ra: .cfa 8 - ^
STACK CFI INIT 4f1a0 47 .cfa: $rsp 64 + .ra: .cfa 8 - ^
STACK CFI INIT 4f1f8 89 .cfa: $rsp 64 + $rdi: .cfa 16 - ^ $rbx: .cfa 0 - ^ .ra: .cfa 8 - ^
STACK CFI INIT 4f2a4 10a .cfa: $rsp 64 + $r14: .cfa 16 - ^ $rbx: .cfa 0 - ^ $rbp: .cfa 0 - ^ $rsi: .cfa 0 - ^ $rdi: .cfa 0 - ^ .ra: .cfa 8 - ^
STACK CFI INIT 4f3f0 8f .cfa: $rsp 64 + $rdi: .cfa 16 - ^ $rbx: .cfa 0 - ^ .ra: .cfa 8 - ^
STACK CFI INIT 4f4a4 72 .cfa: $rsp 48 + $r14: .cfa 16 - ^ $rbx: .cfa 0 - ^ $rsi: .cfa 0 - ^ $rdi: .cfa 0 - ^ .ra: .cfa 8 - ^
STACK CFI INIT 4f534 6f .cfa: $rsp 48 + $r14: .cfa 16 - ^ $rbx: .cfa 0 - ^ $rsi: .cfa 0 - ^ $rdi: .cfa 0 - ^ .ra: .cfa 8 - ^
STACK CFI INIT 4f5f4 2f .cfa: $rsp 48 + .ra: .cfa 8 - ^
STACK CFI INIT 4f644 6f .cfa: $rsp 48 + $rdi: .cfa 16 - ^ $rbx: .cfa 0 - ^ .ra: .cfa 8 - ^
STACK CFI INIT 4f70c 108 .cfa: $rsp 144 + $rbp: .cfa 16 - ^ $rbx: .cfa 0 - ^ $rsi: .cfa 0 - ^ $rdi: .cfa 0 - ^ .ra: .cfa 8 - ^
STACK CFI INIT 4f928 176 .cfa: $rsp 48 + $rdi: .cfa 16 - ^ $rbx: .cfa 0 - ^ $rbp: .cfa 0 - ^ $rsi: .cfa 0 - ^ .ra: .cfa 8 - ^
STACK CFI INIT 4fb2c 36 .cfa: $rsp 48 + $rbx: .cfa 16 - ^ .ra: .cfa 8 - ^
STACK CFI INIT 4fba0 a8 .cfa: $rsp 48 + .ra: .cfa 8 - ^
STACK CFI INIT 4fc74 6c .cfa: $rsp 48 + $rdi: .cfa 16 - ^ $rbx: .cfa 0 - ^ .ra: .cfa 8 - ^
STACK CFI INIT 4fcfc 65 .cfa: $rsp 48 + $rdi: .cfa 16 - ^ $rbx: .cfa 0 - ^ .ra: .cfa 8 - ^
STACK CFI INIT 4fd88 2b .cfa: $rsp 48 + .ra: .cfa 8 - ^
STACK CFI INIT 4fdc0 17 .cfa: $rsp 64 + $rdi: .cfa 16 - ^ $r14: .cfa 24 - ^ $r15: .cfa 32 - ^ $rbp: .cfa 0 - ^ .ra: .cfa 8 - ^
STACK CFI INIT 4fdd7 a4 .cfa: $rsp 64 + $rbx: .cfa 0 - ^ $rsi: .cfa 0 - ^ $r12: .cfa 0 - ^ $rdi: .cfa 16 - ^ $r14: .cfa 24 - ^ $r15: .cfa 32 - ^ $rbp: .cfa 0 - ^ .ra: .cfa 8 - ^
STACK CFI INIT 4fe7b 1 .cfa: $rsp 64 + $rdi: .cfa 16 - ^ $r14: .cfa 24 - ^ $r15: .cfa 32 - ^ $rbp: .cfa 0 - ^ .ra: .cfa 8 - ^
STACK CFI INIT 4fef0 5b .cfa: $rsp 1136 + $r12: .cfa 16 - ^ $r13: .cfa 24 - ^ $r14: .cfa 32 - ^ .ra: .cfa 8 - ^
STACK CFI INIT 4ff4b 334 .cfa: $rsp 1136 + $rbx: .cfa 0 - ^ $rbp: .cfa 0 - ^ $rsi: .cfa 0 - ^ $rdi: .cfa 0 - ^ $r15: .cfa 0 - ^ $r12: .cfa 16 - ^ $r13: .cfa 24 - ^ $r14: .cfa 32 - ^ .ra: .cfa 8 - ^
STACK CFI INIT 5027f 1e .cfa: $rsp 1136 + $r12: .cfa 16 - ^ $r13: .cfa 24 - ^ $r14: .cfa 32 - ^ .ra: .cfa 8 - ^
STACK CFI INIT 50388 db .cfa: $rsp 48 + $rdi: .cfa 16 - ^ $rbx: .cfa 0 - ^ .ra: .cfa 8 - ^
STACK CFI INIT 5049c e4 .cfa: $rsp 48 + $rdi: .cfa 16 - ^ $rbx: .cfa 0 - ^ .ra: .cfa 8 - ^
STACK CFI INIT 50600 c6 .cfa: $rsp 48 + $rbx: .cfa 16 - ^ .ra: .cfa 8 - ^
STACK CFI INIT 506f8 d3 .cfa: $rsp 48 + $rdi: .cfa 16 - ^ $rbx: .cfa 0 - ^ .ra: .cfa 8 - ^
STACK CFI INIT 50800 9e .cfa: $rsp 96 + .ra: .cfa 8 - ^
STACK CFI INIT 508d0 3e0 .cfa: $rsp 64 + $rdi: .cfa 16 - ^ $rbx: .cfa 0 - ^ $rsi: .cfa 0 - ^ .ra: .cfa 8 - ^
STACK CFI INIT 50db4 94 .cfa: $rsp 80 + $rdi: .cfa 16 - ^ $rbx: .cfa 0 - ^ .ra: .cfa 8 - ^
STACK CFI INIT 50e80 22 .cfa: $rsp 48 + .ra: .cfa 8 - ^
STACK CFI INIT 50ed8 18d .cfa: $rbp 96 + $rbp: .cfa 16 - ^ $r12: .cfa 24 - ^ $r13: .cfa 32 - ^ $r14: .cfa 40 - ^ $r15: .cfa 48 - ^ $rbx: $rbp 96 + ^ $rsi: $rbp 104 + ^ $rdi: $rbp 112 + ^ .ra: .cfa 8 - ^
STACK CFI INIT 510c8 1f .cfa: $rsp 48 + .ra: .cfa 8 - ^
STACK CFI INIT 510fc 315 .cfa: $rbp 64 + $rbp: .cfa 16 - ^ $r12: .cfa 24 - ^ $r13: .cfa 32 - ^ $r14: .cfa 40 - ^ $r15: .cfa 48 - ^ $rbx: $rbp 64 + ^ $rsi: $rbp 72 + ^ $rdi: $rbp 80 + ^ .ra: .cfa 8 - ^
STACK CFI INIT 514d8 96 .cfa: $rsp 128 + $rdi: .cfa 16 - ^ $rbx: .cfa 0 - ^ $rsi: .cfa 0 - ^ .ra: .cfa 8 - ^
STACK CFI INIT 51594 17 .cfa: $rsp 48 + .ra: .cfa 8 - ^
STACK CFI INIT 515b0 4f .cfa: $rsp 48 + .ra: .cfa 8 - ^
STACK CFI INIT 51614 f0 .cfa: $rsp 96 + $rdi: .cfa 16 - ^ $rbx: .cfa 0 - ^ $rbp: .cfa 0 - ^ $rsi: .cfa 0 - ^ .ra: .cfa 8 - ^
STACK CFI INIT 5175c 100 .cfa: $rsp 112 + $rdi: .cfa 16 - ^ $rbx: .cfa 0 - ^ $rbp: .cfa 0 - ^ $rsi: .cfa 0 - ^ .ra: .cfa 8 - ^
STACK CFI INIT 5189c 179 .cfa: $rsp 64 + $r14: .cfa 16 - ^ $rbx: .cfa 0 - ^ $rbp: .cfa 0 - ^ $rsi: .cfa 0 - ^ $rdi: .cfa 0 - ^ .ra: .cfa 8 - ^
STACK CFI INIT 51a74 25 .cfa: $rsp 64 + .ra: .cfa 8 - ^
STACK CFI INIT 51aa4 197 .cfa: $rsp 192 + $rbp: .cfa 16 - ^ $r14: .cfa 24 - ^ $r15: .cfa 32 - ^ $rbx: .cfa 0 - ^ $rsi: .cfa 0 - ^ $rdi: .cfa 0 - ^ .ra: .cfa 8 - ^
STACK CFI INIT 51ca8 39 .cfa: $rsp 48 + .ra: .cfa 8 - ^
STACK CFI INIT 51cf0 7a .cfa: $rsp 48 + $rdi: .cfa 16 - ^ $rbx: .cfa 0 - ^ .ra: .cfa 8 - ^
STACK CFI INIT 51de8 87 .cfa: $rsp 64 + $rdi: .cfa 16 - ^ $r14: .cfa 24 - ^ $r15: .cfa 32 - ^ $rbx: .cfa 0 - ^ $rbp: .cfa 0 - ^ $rsi: .cfa 0 - ^ .ra: .cfa 8 - ^
STACK CFI INIT 51e90 f4 .cfa: $rsp 64 + $rdi: .cfa 16 - ^ $rbx: .cfa 0 - ^ $rbp: .cfa 0 - ^ $rsi: .cfa 0 - ^ .ra: .cfa 8 - ^
STACK CFI INIT 51fc4 af .cfa: $rsp 64 + $rdi: .cfa 16 - ^ $r14: .cfa 24 - ^ $r15: .cfa 32 - ^ $rbx: .cfa 0 - ^ $rbp: .cfa 0 - ^ $rsi: .cfa 0 - ^ .ra: .cfa 8 - ^
STACK CFI INIT 520b4 1b .cfa: $rsp 48 + $rbx: .cfa 16 - ^ .ra: .cfa 8 - ^
STACK CFI INIT 52100 1b .cfa: $rsp 48 + $rbx: .cfa 16 - ^ .ra: .cfa 8 - ^
STACK CFI INIT 52124 a5 .cfa: $rsp 48 + $rdi: .cfa 16 - ^ $rbx: .cfa 0 - ^ $rbp: .cfa 0 - ^ $rsi: .cfa 0 - ^ .ra: .cfa 8 - ^
STACK CFI INIT 521f4 50 .cfa: $rsp 48 + $rdi: .cfa 16 - ^ $rbx: .cfa 0 - ^ $rsi: .cfa 0 - ^ .ra: .cfa 8 - ^
STACK CFI INIT 52258 a8 .cfa: $rsp 64 + $r15: .cfa 16 - ^ $rbx: .cfa 0 - ^ $rsi: .cfa 0 - ^ $rdi: .cfa 0 - ^ .ra: .cfa 8 - ^
STACK CFI INIT 5235c bf .cfa: $rsp 48 + $r14: .cfa 16 - ^ $rbx: .cfa 0 - ^ $rbp: .cfa 0 - ^ $rsi: .cfa 0 - ^ $rdi: .cfa 0 - ^ .ra: .cfa 8 - ^
STACK CFI INIT 5247c 13e .cfa: $rsp 80 + $r12: .cfa 16 - ^ $r14: .cfa 24 - ^ $r15: .cfa 32 - ^ $rbx: .cfa 0 - ^ $rsi: .cfa 0 - ^ $rdi: .cfa 0 - ^ .ra: .cfa 8 - ^
STACK CFI INIT 5260c ba .cfa: $rsp 48 + $r14: .cfa 16 - ^ $rbx: .cfa 0 - ^ $rsi: .cfa 0 - ^ $rdi: .cfa 0 - ^ .ra: .cfa 8 - ^
STACK CFI INIT 526f4 75 .cfa: $rsp 48 + .ra: .cfa 8 - ^
STACK CFI INIT 52788 101 .cfa: $rsp 64 + $rdi: .cfa 16 - ^ $rbx: .cfa 0 - ^ $rsi: .cfa 0 - ^ .ra: .cfa 8 - ^
STACK CFI INIT 528cc 8c .cfa: $rsp 48 + $rdi: .cfa 16 - ^ $rbx: .cfa 0 - ^ .ra: .cfa 8 - ^
STACK CFI INIT 5297c 26 .cfa: $rsp 48 + .ra: .cfa 8 - ^
STACK CFI INIT 529cc 69 .cfa: $rsp 48 + $rbx: .cfa 16 - ^ .ra: .cfa 8 - ^
STACK CFI INIT 52a60 91 .cfa: $rsp 64 + .ra: .cfa 8 - ^
STACK CFI INIT 52b18 6c .cfa: $rsp 64 + $rdi: .cfa 16 - ^ $rbx: .cfa 0 - ^ .ra: .cfa 8 - ^
