MODULE windows x86_64 000000000000000000000000000000000 basic64-dwarf.dll
INFO CODE_ID 63CF138F21000 basic64-dwarf.dll
FUNC 1000 c 0 pre_c_init
FUNC 1010 1ef 0 _CRT_INIT
FUNC 1200 144 0 __DllMainCRTStartup
FUNC 1350 12 0 DllMainCRTStartup
FUNC 1370 f 0 atexit
FUNC 1380 c 0 <unknown in basic64-dwarf.dll>
FUNC 1390 1 0 <unknown in basic64-dwarf.dll>
FUNC 13a0 15 0 Z5test1Pi
FUNC 13b5 d 0 Z5test2ij
FUNC 13c2 14 0 Z5test3ijs
FUNC 13d6 18 0 Z5test4ijtPd
FUNC 13ee 19 0 Z5test5PijtPKdNSt7__cxx1112basic_stringIcSt11char_traitsIcESaIcEEE
FUNC 1407 13 0 Z5test6PKdRKNSt7__cxx1112basic_stringIcSt11char_traitsIcESaIcEEEOS6_
FUNC 141a f 0 Z5test7PFvijtPdE
FUNC 1429 f 0 Z5test8PFiPFvijtPdEE
FUNC 1438 f 0 Z5test9PFiPFiPFvijtPdEEE
FUNC 1447 f 0 Z6test10RPc
FUNC 1456 1b 0 Z10test_arrayPcPA34_iPA34_A56_NSt7__cxx1112basic_stringIcSt11char_traitsIcESaIcEEEPA34_A56_A78_Pd
FUNC 1471 1b 0 Z23test_array_empty_structP5EmptyPA34_S_PA34_A56_S_PA34_A56_A78_S_
FUNC 1490 3a 0 __do_global_dtors
FUNC 14d0 6a 0 __do_global_ctors
FUNC 1540 1f 0 __main
FUNC 1560 2f 0 __dyn_tls_dtor
FUNC 1590 81 0 __dyn_tls_init
FUNC 1620 3 0 __tlregdtor
FUNC 1630 6a 0 __report_error
FUNC 16a0 162 0 mark_section_writable
FUNC 1810 335 0 _pei386_runtime_relocator
FUNC 1b50 71 0 __mingwthr_run_key_dtors
FUNC 1bd0 81 0 ___w64_mingwthr_add_key_dtor
FUNC 1c60 89 0 ___w64_mingwthr_remove_key_dtor
FUNC 1cf0 e2 0 __mingw_TLScallback
FUNC 1de0 2c 0 _ValidateImageBase
FUNC 1e10 48 0 _FindPESection
FUNC 1e60 9f 0 _FindPESectionByName
FUNC 1f00 78 0 __mingw_GetSectionForAddress
FUNC 1f80 39 0 __mingw_GetSectionCount
FUNC 1fc0 6b 0 _FindPESectionExec
FUNC 2030 36 0 _GetPEImageBase
FUNC 2070 89 0 _IsNonwritableInCurrentImage
FUNC 2100 be 0 __mingw_enum_import_library_names
FUNC 21c0 3 0 _fpreset
FUNC 2210 6 0 DllEntryPoint
FUNC 2220 6 0 DllMain
FUNC 2230 1f 0 __acrt_iob_func
FUNC 2250 25 0 _initialize_onexit_table
FUNC 2280 d7 0 _register_onexit_function
FUNC 2360 71 0 _execute_onexit_table
FUNC 24a0 5 0 <unknown in basic64-dwarf.dll>
PUBLIC 24a5 0 <unknown>
STACK CFI INIT 1000 c .cfa: $rsp 8 + .ra: .cfa 8 - ^
STACK CFI INIT 1010 1ef .cfa: $rsp 96 + $r13: .cfa 16 - ^ $r12: .cfa 24 - ^ $rbp: .cfa 32 - ^ $rdi: .cfa 40 - ^ $rsi: .cfa 48 - ^ $rbx: .cfa 56 - ^ .ra: .cfa 8 - ^
STACK CFI INIT 1200 144 .cfa: $rsp 80 + $r14: .cfa 16 - ^ $r13: .cfa 24 - ^ $r12: .cfa 32 - ^ $rsi: .cfa 40 - ^ $rbx: .cfa 48 - ^ .ra: .cfa 8 - ^
STACK CFI INIT 1350 12 .cfa: $rsp 8 + .ra: .cfa 8 - ^
STACK CFI INIT 1370 f .cfa: $rsp 8 + .ra: .cfa 8 - ^
STACK CFI INIT 1380 c .cfa: $rsp 8 + .ra: .cfa 8 - ^
STACK CFI INIT 1390 1 .cfa: $rsp 8 + .ra: .cfa 8 - ^
STACK CFI INIT 13a0 15 .cfa: $rbp 16 + $rbp: .cfa 16 - ^ .ra: .cfa 8 - ^
STACK CFI INIT 13b5 d .cfa: $rbp 16 + $rbp: .cfa 16 - ^ .ra: .cfa 8 - ^
STACK CFI INIT 13c2 14 .cfa: $rbp 16 + $rbp: .cfa 16 - ^ .ra: .cfa 8 - ^
STACK CFI INIT 13d6 18 .cfa: $rbp 16 + $rbp: .cfa 16 - ^ .ra: .cfa 8 - ^
STACK CFI INIT 13ee 19 .cfa: $rbp 16 + $rbp: .cfa 16 - ^ .ra: .cfa 8 - ^
STACK CFI INIT 1407 13 .cfa: $rbp 16 + $rbp: .cfa 16 - ^ .ra: .cfa 8 - ^
STACK CFI INIT 141a f .cfa: $rbp 16 + $rbp: .cfa 16 - ^ .ra: .cfa 8 - ^
STACK CFI INIT 1429 f .cfa: $rbp 16 + $rbp: .cfa 16 - ^ .ra: .cfa 8 - ^
STACK CFI INIT 1438 f .cfa: $rbp 16 + $rbp: .cfa 16 - ^ .ra: .cfa 8 - ^
STACK CFI INIT 1447 f .cfa: $rbp 16 + $rbp: .cfa 16 - ^ .ra: .cfa 8 - ^
STACK CFI INIT 1456 1b .cfa: $rbp 16 + $rbp: .cfa 16 - ^ .ra: .cfa 8 - ^
STACK CFI INIT 1471 1b .cfa: $rbp 16 + $rbp: .cfa 16 - ^ .ra: .cfa 8 - ^
STACK CFI INIT 1490 3a .cfa: $rsp 48 + .ra: .cfa 8 - ^
STACK CFI INIT 14d0 6a .cfa: $rsp 64 + $rsi: .cfa 16 - ^ $rbx: .cfa 24 - ^ .ra: .cfa 8 - ^
STACK CFI INIT 1540 1f .cfa: $rsp 8 + .ra: .cfa 8 - ^
STACK CFI INIT 1560 2f .cfa: $rsp 48 + .ra: .cfa 8 - ^
STACK CFI INIT 1590 81 .cfa: $rsp 64 + $rsi: .cfa 16 - ^ $rbx: .cfa 24 - ^ .ra: .cfa 8 - ^
STACK CFI INIT 1620 3 .cfa: $rsp 8 + .ra: .cfa 8 - ^
STACK CFI INIT 1630 6a .cfa: $rsp 80 + $r12: .cfa 16 - ^ $rbx: .cfa 24 - ^ .ra: .cfa 8 - ^
STACK CFI INIT 16a0 162 .cfa: $rsp 112 + $r12: .cfa 16 - ^ $rsi: .cfa 24 - ^ $rbx: .cfa 32 - ^ .ra: .cfa 8 - ^
STACK CFI INIT 1810 335 .cfa: $rbp 80 + $rbp: .cfa 16 - ^ $r15: .cfa 24 - ^ $r14: .cfa 32 - ^ $r13: .cfa 40 - ^ $r12: .cfa 48 - ^ $rdi: .cfa 56 - ^ $rsi: .cfa 64 - ^ $rbx: .cfa 72 - ^ .ra: .cfa 8 - ^
STACK CFI INIT 1b50 71 .cfa: $rsp 80 + $r13: .cfa 16 - ^ $r12: .cfa 24 - ^ $rdi: .cfa 32 - ^ $rsi: .cfa 40 - ^ $rbx: .cfa 48 - ^ .ra: .cfa 8 - ^
STACK CFI INIT 1bd0 81 .cfa: $rsp 80 + $r12: .cfa 16 - ^ $rdi: .cfa 24 - ^ $rsi: .cfa 32 - ^ $rbx: .cfa 40 - ^ .ra: .cfa 8 - ^
STACK CFI INIT 1c60 89 .cfa: $rsp 64 + $r12: .cfa 16 - ^ $rbx: .cfa 24 - ^ .ra: .cfa 8 - ^
STACK CFI INIT 1cf0 e2 .cfa: $rsp 48 + $rbx: .cfa 16 - ^ .ra: .cfa 8 - ^
STACK CFI INIT 1de0 2c .cfa: $rsp 8 + .ra: .cfa 8 - ^
STACK CFI INIT 1e10 48 .cfa: $rsp 8 + .ra: .cfa 8 - ^
STACK CFI INIT 1e60 9f .cfa: $rsp 64 + $r12: .cfa 16 - ^ $rsi: .cfa 24 - ^ $rbx: .cfa 32 - ^ .ra: .cfa 8 - ^
STACK CFI INIT 1f00 78 .cfa: $rsp 8 + .ra: .cfa 8 - ^
STACK CFI INIT 1f80 39 .cfa: $rsp 8 + .ra: .cfa 8 - ^
STACK CFI INIT 1fc0 6b .cfa: $rsp 8 + .ra: .cfa 8 - ^
STACK CFI INIT 2030 36 .cfa: $rsp 8 + .ra: .cfa 8 - ^
STACK CFI INIT 2070 89 .cfa: $rsp 8 + .ra: .cfa 8 - ^
STACK CFI INIT 2100 be .cfa: $rsp 8 + .ra: .cfa 8 - ^
STACK CFI INIT 21c0 3 .cfa: $rsp 8 + .ra: .cfa 8 - ^
STACK CFI INIT 2210 6 .cfa: $rsp 8 + .ra: .cfa 8 - ^
STACK CFI INIT 2220 6 .cfa: $rsp 8 + .ra: .cfa 8 - ^
STACK CFI INIT 2230 1f .cfa: $rsp 48 + $rbx: .cfa 16 - ^ .ra: .cfa 8 - ^
STACK CFI INIT 2250 25 .cfa: $rsp 8 + .ra: .cfa 8 - ^
STACK CFI INIT 2280 d7 .cfa: $rsp 80 + $rbp: .cfa 16 - ^ $rdi: .cfa 24 - ^ $rsi: .cfa 32 - ^ $rbx: .cfa 40 - ^ .ra: .cfa 8 - ^
STACK CFI INIT 2360 71 .cfa: $rsp 64 + $r12: .cfa 16 - ^ $rsi: .cfa 24 - ^ $rbx: .cfa 32 - ^ .ra: .cfa 8 - ^
STACK CFI INIT 24a0 5 .cfa: $rsp 8 + .ra: .cfa 8 - ^
