MODULE windows x86_64 D09EA7D6D2C24C1EBFFE78B0C866BB7F2 basic64.pdb
INFO CODE_ID 5DDC1E998C000 basic64.dll
FUNC 6b70 11 0 test1(int *)
FUNC 6b90 a 0 test2(int,unsigned int)
FUNC 6ba0 17 0 test3(int,unsigned int,short)
FUNC 6bc0 1c 0 test4(int,unsigned int,unsigned short,double *)
FUNC 6be0 2b 0 test5(int *,unsigned int,unsigned short,double const *,std::basic_string<char,std::char_traits<char>,std::allocator<char> >)
FUNC 6c10 17 0 test6(double const * const,std::basic_string<char,std::char_traits<char>,std::allocator<char> > const &,std::basic_string<char,std::char_traits<char>,std::allocator<char> > &&)
FUNC 6c30 9 0 test7(void (*)(int,unsigned int,unsigned short,double *))
FUNC 6c40 9 0 test8(int (*)(void (*)(int,unsigned int,unsigned short,double *)))
FUNC 6c50 9 0 test9(int (*)(int (*)(void (*)(int,unsigned int,unsigned short,double *))))
FUNC 6c60 9 0 test10(char * &)
FUNC 6c70 1e 0 test_array(char * const,int (* const)[34],std::basic_string<char,std::char_traits<char>,std::allocator<char> > (* const)[34][56],double * (* const)[34][56][78])
FUNC 6c90 1e 0 test_array_empty_struct(Empty * const,Empty (* const)[34],Empty (* const)[34][56],Empty (* const)[34][56][78])
FUNC 6d00 28 0 std::basic_string<char,std::char_traits<char>,std::allocator<char> >::~basic_string
FUNC 6d40 b 0 A::A()
FUNC 6d50 16 0 A::A(A &&)
FUNC 6d70 7 0 A::~A()
FUNC 6d80 11 0 A::meth1(int)
FUNC 6da0 13 0 A::meth1(double)
FUNC 6dc0 17 0 A::meth1(short,signed char)
FUNC 6de0 11 0 A::meth2(int)
FUNC 6e00 17 0 A::meth2(double)
FUNC 6e20 c 0 A::meth2(short,signed char)
FUNC 6e30 1a 0 A::meth4(A *,A::B &&)
FUNC 6e50 f2 0 std::basic_string<char,std::char_traits<char>,std::allocator<char> >::_Tidy_deallocate()
FUNC 6f80 19 0 std::_String_alloc<std::_String_base_types<char,std::allocator<char> > >::~_String_alloc
FUNC 6fa0 21 0 std::_String_alloc<std::_String_base_types<char,std::allocator<char> > >::_Orphan_all()
FUNC 6fd0 19 0 std::_String_alloc<std::_String_base_types<char,std::allocator<char> > >::_Get_data()
FUNC 6ff0 1d 0 std::_String_val<std::_Simple_types<char> >::_Large_string_engaged()
FUNC 7020 19 0 std::_String_alloc<std::_String_base_types<char,std::allocator<char> > >::_Getal()
FUNC 7040 12 0 std::_Default_allocator_traits<std::allocator<char> >::destroy<char *>
FUNC 7060 b 0 std::addressof<char *>
FUNC 7070 39 0 std::allocator<char>::deallocate(char * const,unsigned __int64)
FUNC 70c0 1f 0 std::char_traits<char>::assign(char &,char const &)
FUNC 70f0 7 0 std::_Container_base0::_Orphan_all()
FUNC 7100 b 0 std::_Compressed_pair<std::allocator<char>,std::_String_val<std::_Simple_types<char> >,1>::_Get_second()
FUNC 7110 e 0 std::_Compressed_pair<std::allocator<char>,std::_String_val<std::_Simple_types<char> >,1>::_Get_first()
FUNC 7130 5d 0 std::_Deallocate<16,0>(void *,unsigned __int64)
FUNC 71b0 93 0 std::_Adjust_manually_vector_aligned(void * &,unsigned __int64 &)
FUNC 7270 19 0 std::_Compressed_pair<std::allocator<char>,std::_String_val<std::_Simple_types<char> >,1>::~_Compressed_pair
FUNC 7290 19 0 std::_String_val<std::_Simple_types<char> >::~_String_val
FUNC 72b0 7 0 std::_String_val<std::_Simple_types<char> >::_Bxty::~_Bxty()
FUNC 99f0 21 0 _security_check_cookie
FUNC 9a20 5 0 operator delete(void *,unsigned __int64)
FUNC 9a28 50 0 dllmain_crt_dispatch
FUNC 9a8c 119 0 dllmain_crt_process_attach
FUNC 9bec 8e 0 dllmain_crt_process_detach
FUNC 9ca0 133 0 dllmain_dispatch
FUNC 9e20 19 0 dllmain_raw
FUNC 9e40 5 0 CRT_INIT
FUNC 9e48 3d 0 DllMainCRTStartup
FUNC 9e94 34 0 _raise_securityfailure
FUNC 9ed8 d1 0 _report_gsfailure
FUNC 9fe0 13 0 _report_rangecheckfailure
FUNC 9ff8 9b 0 _report_securityfailure
FUNC a0bc 10e 0 _report_securityfailureEx
FUNC a210 6d 0 capture_current_context
FUNC a298 71 0 capture_previous_context
FUNC a328 5 0 operator delete(void *)
FUNC a330 6b 0 __get_entropy
FUNC a3b8 ac 0 _security_init_cookie
FUNC a490 6 0 DllMain
FUNC a498 e 0 __scrt_initialize_type_info()
FUNC a4ac c 0 __scrt_uninitialize_type_info()
FUNC a4bc 8 0 _local_stdio_printf_options
FUNC a4c8 8 0 _local_stdio_scanf_options
FUNC a4d4 1b 0 _scrt_initialize_default_local_stdio_options
FUNC a4f8 16 0 __crt_fast_decode_pointer<void (__cdecl**)(void)>
FUNC a514 1e 0 __crt_fast_encode_pointer<void (__cdecl**)(void)>
FUNC a53c 9 0 __crt_rotate_pointer_value(unsigned __int64,int)
FUNC a548 14 0 __scrt_narrow_argv_policy::configure_argv()
FUNC a564 49 0 find_pe_section
FUNC a5c0 5 0 __scrt_narrow_environment_policy::initialize_environment()
FUNC a5c8 2f 0 is_potentially_valid_image_base
FUNC a604 a 0 NtCurrentTeb
FUNC a610 39 0 _scrt_acquire_startup_lock
FUNC a658 34 0 _scrt_dllmain_after_initialize_c
FUNC a69c 15 0 _scrt_dllmain_before_initialize_c
FUNC a6b8 28 0 _scrt_dllmain_crt_thread_attach
FUNC a6ec 15 0 _scrt_dllmain_crt_thread_detach
FUNC a708 60 0 _scrt_dllmain_exception_filter
FUNC a780 30 0 _scrt_dllmain_uninitialize_c
FUNC a7bc 14 0 _scrt_dllmain_uninitialize_critical
FUNC a7d8 49 0 _scrt_initialize_crt
FUNC a834 d8 0 _scrt_initialize_onexit_tables
FUNC a944 99 0 _scrt_is_nonwritable_in_current_image
FUNC aa04 24 0 _scrt_release_startup_lock
FUNC aa34 2b 0 _scrt_uninitialize_crt
FUNC aa6c 4f 0 onexit
FUNC aad0 36 0 at_quick_exit
FUNC ab14 17 0 atexit
FUNC ab30 8 0 _scrt_get_dyn_tls_init_callback
FUNC ab3c 8 0 _crt_debugger_hook
FUNC ab48 14a 0 _scrt_fastfail
FUNC ace4 3a 0 _scrt_get_show_window_mode
FUNC ad2c 5 0 _scrt_initialize_mta
FUNC ad34 3 0 _scrt_initialize_winrt
FUNC ad38 52 0 _scrt_is_managed_app
FUNC ada0 e 0 _scrt_set_unhandled_exception_filter
FUNC adb4 3 0 _scrt_stub_for_initialize_mta
FUNC adb8 38 0 _scrt_unhandled_exception_filter
FUNC ae00 3c 0 RTC_Initialize
FUNC ae4c 3c 0 RTC_Terminate
FUNC ae98 3 0 guard_check_icall_nop
FUNC ae9c 4 0 ReadNoFence64
FUNC aea0 4 0 ReadPointerNoFence
FUNC aea4 17 0 guard_icall_checks_enforced
FUNC aec0 3 0 guard_rf_checks_enforced
FUNC aec4 1b9 0 _isa_available_init
FUNC b0ec 6 0 get_startup_argv_mode
FUNC b0f4 c 0 _scrt_is_ucrt_dll_in_use
PUBLIC b110 0 RtlCaptureContext
PUBLIC b116 0 RtlLookupFunctionEntry
PUBLIC b11c 0 RtlVirtualUnwind
PUBLIC b122 0 UnhandledExceptionFilter
PUBLIC b128 0 SetUnhandledExceptionFilter
PUBLIC b12e 0 GetCurrentProcess
PUBLIC b134 0 TerminateProcess
PUBLIC b13a 0 IsProcessorFeaturePresent
PUBLIC b140 0 QueryPerformanceCounter
PUBLIC b146 0 GetCurrentProcessId
PUBLIC b14c 0 GetCurrentThreadId
PUBLIC b152 0 GetSystemTimeAsFileTime
PUBLIC b158 0 InitializeSListHead
PUBLIC b15e 0 IsDebuggerPresent
PUBLIC b164 0 GetStartupInfoW
PUBLIC b16a 0 GetModuleHandleW
FUNC b170 20b 0 _C_specific_handler
FUNC b400 5 0 <lambda_02a71323d951a238fa4826e9f186893b>::<lambda_invoker_cdecl>
FUNC b408 5 0 <lambda_ab747d7d039e86ead2ea2c584b0f6318>::<lambda_invoker_cdecl>
FUNC b410 8 0 __crt_internal_free_policy::operator()<char>(char const * const)
FUNC b41c 8 0 __crt_internal_free_policy::operator()<void>(void const * const)
FUNC b428 9 0 __crt_interlocked_compare_exchange_pointer<char const ,char *,std::nullptr_t>
FUNC b434 4 0 __crt_interlocked_read_pointer<char const >(char const * const volatile *)
FUNC b438 7 0 __crt_unique_heap_ptr<char,__crt_internal_free_policy>::__crt_unique_heap_ptr<char,__crt_internal_free_policy>(char * const)
FUNC b440 7 0 __crt_unique_heap_ptr<void,__crt_internal_free_policy>::__crt_unique_heap_ptr<void,__crt_internal_free_policy>(void * const)
FUNC b448 1b 0 __crt_unique_heap_ptr<char,__crt_internal_free_policy>::~__crt_unique_heap_ptr<char,__crt_internal_free_policy>()
FUNC b46c 1b 0 __crt_unique_heap_ptr<void,__crt_internal_free_policy>::~__crt_unique_heap_ptr<void,__crt_internal_free_policy>()
FUNC b490 8 0 <lambda_02a71323d951a238fa4826e9f186893b>::operator void (__cdecl*)(void * const)
FUNC b49c 8 0 <lambda_ab747d7d039e86ead2ea2c584b0f6318>::operator void * (__cdecl*)(unsigned __int64)
FUNC b4a8 8 0 __crt_unique_heap_ptr<char,__crt_internal_free_policy>::operator bool()
FUNC b4b4 8 0 __crt_unique_heap_ptr<void,__crt_internal_free_policy>::operator bool()
FUNC b4c0 8 0 <lambda_02a71323d951a238fa4826e9f186893b>::operator()
FUNC b4cc 8 0 <lambda_ab747d7d039e86ead2ea2c584b0f6318>::operator()
FUNC b4d8 4 0 __crt_interlocked_read_64(__int64 const volatile *)
FUNC b4dc 8 0 __crt_unique_heap_ptr<void,__crt_internal_free_policy>::detach()
FUNC b4e8 4 0 __crt_unique_heap_ptr<char,__crt_internal_free_policy>::get()
FUNC b4ec 4 0 __crt_unique_heap_ptr<void,__crt_internal_free_policy>::get()
FUNC b4f0 8 0 __crt_unique_heap_ptr<char,__crt_internal_free_policy>::is_valid()
FUNC b4fc 8 0 __crt_unique_heap_ptr<void,__crt_internal_free_policy>::is_valid()
FUNC b508 1b 0 __crt_unique_heap_ptr<char,__crt_internal_free_policy>::release()
FUNC b52c 1b 0 __crt_unique_heap_ptr<void,__crt_internal_free_policy>::release()
FUNC b550 27 0 _std_type_info_compare
FUNC b580 2a 0 _std_type_info_destroy_list
FUNC b5b4 3b 0 _std_type_info_hash
FUNC b600 11c 0 _std_type_info_name
FUNC b764 32 0 _vcrt_initialize
FUNC b7a4 14 0 _vcrt_thread_attach
FUNC b7c0 12 0 _vcrt_thread_detach
FUNC b7d8 20 0 _vcrt_uninitialize
FUNC b800 10 0 _vcrt_uninitialize_critical
FUNC b814 3 0 init_memcpy_functions
FUNC b830 10 0 memset_repmovs
FUNC b850 190 0 memset
FUNC ba60 18 0 NLG_Notify
FUNC ba80 1 0 _NLG_Dispatch2
FUNC ba90 1 0 _NLG_Return2
FUNC baa4 5 0 __except_get_jumpbuf_sp
FUNC baac 37 0 _except_validate_context_record
FUNC baf0 3f 0 _except_validate_jump_buffer
FUNC bb40 5b 0 _except_validate_jump_buffer_common
FUNC bbb4 71 0 _DestructExceptionObject
FUNC bc44 3 0 _CallMemberFunction0(void * const,void * const)
FUNC bc48 5 0 type_info::raw_name()
FUNC bc50 2f 0 IsExceptionObjectToBeDestroyed
FUNC bc8c 8 0 SetWinRTOutOfMemoryExceptionCallback
FUNC bc98 23 0 _AdjustPointer
FUNC bcc4 4a 0 _FrameUnwindFilter
FUNC bd20 5b 0 _GetPlatformExceptionInfo
FUNC bd94 12 0 _current_exception
FUNC bdac 12 0 _current_exception_context
FUNC bdc4 12 0 _processing_throw
FUNC bddc a 0 _std_terminate
FUNC bde8 a5 0 is_exception_typeof
FUNC beb8 8 0 _HeapManager::Block::Block()
FUNC bec4 cc 0 DName::DName(char const * &,char)
FUNC bfc4 10 0 DName::DName(DName const &)
FUNC bfd8 31 0 DName::DName(char)
FUNC c018 84 0 DName::DName(DName *)
FUNC c0c0 40 0 DName::DName(char const *)
FUNC c110 2d 0 DName::DName(DNameStatus)
FUNC c148 c 0 DName::DName()
FUNC c158 a6 0 DName::DName(__int64)
FUNC c228 88 0 DName::DName(unsigned __int64)
FUNC c2d4 e 0 DNameNode::DNameNode()
FUNC c2e8 7 0 Replicator::Replicator()
FUNC c2f0 a 0 `UnDecorator::getDecoratedName'::`2'::TrackRecursion::TrackRecursion
FUNC c2fc 50 0 UnDecorator::UnDecorator(char const *,char * (*)(long),unsigned long)
FUNC c360 11 0 charNode::charNode(char)
FUNC c378 26 0 pDNameNode::pDNameNode(DName *)
FUNC c3a8 1a 0 pairNode::pairNode(DNameNode const *,DNameNode const *)
FUNC c3c8 88 0 pcharNode::pcharNode(char const *,int)
FUNC c474 7 0 `UnDecorator::getDecoratedName'::`2'::TrackRecursion::~TrackRecursion
FUNC c47c f 0 operator new(unsigned __int64,_HeapManager &,int)
FUNC c490 10 0 DName::operator=(DName const &)
FUNC c4a4 31 0 DName::operator=(char)
FUNC c4e4 7e 0 DName::operator=(DName *)
FUNC c584 36 0 DName::operator=(char const *)
FUNC c5c8 1f 0 DName::operator=(DNameStatus)
FUNC c5f0 40 0 Replicator::operator[](int)
FUNC c640 36 0 operator+(char,DName const &)
FUNC c684 36 0 operator+(char const *,DName const &)
FUNC c6c8 49 0 operator+(DNameStatus,DName const &)
FUNC c724 29 0 DName::operator+(DName const &)
FUNC c758 29 0 DName::operator+(char)
FUNC c78c 29 0 DName::operator+(DName *)
FUNC c7c0 29 0 DName::operator+(char const *)
FUNC c7f4 29 0 DName::operator+(DNameStatus)
FUNC c828 44 0 DName::operator+=(DName const &)
FUNC c880 7d 0 DName::operator+=(char)
FUNC c91c 95 0 DName::operator+=(DName *)
FUNC c9d8 8a 0 DName::operator+=(char const *)
FUNC ca84 6b 0 DName::operator+=(DNameStatus)
FUNC cb0c 67 0 Replicator::operator+=(DName const &)
FUNC cb8c 14 0 DName::operator|=(DName const &)
FUNC cba8 16 0 _HeapManager::Constructor(void * (*)(unsigned __int64),void (*)(void *))
FUNC cbc4 42 0 _HeapManager::Destructor()
FUNC cc18 20 0 UnDecorator::UScore(Tokens)
FUNC cc40 63 0 DName::append(DNameNode const *)
FUNC ccbc db3 0 UnDecorator::composeDeclaration(DName const &)
FUNC dddc f 0 UnDecorator::doAccessSpecifiers()
FUNC ddf0 f 0 UnDecorator::doAllocationLanguage()
FUNC de04 f 0 UnDecorator::doAllocationModel()
FUNC de18 f 0 UnDecorator::doEcsu()
FUNC de2c f 0 UnDecorator::doEllipsis()
FUNC de40 f 0 UnDecorator::doFunctionReturns()
FUNC de54 e 0 UnDecorator::doMSKeywords()
FUNC de68 f 0 UnDecorator::doMemberTypes()
FUNC de7c c 0 UnDecorator::doNameOnly()
FUNC de8c c 0 UnDecorator::doNoIdentCharCheck()
FUNC de9c a6 0 DName::doPchar(char const *,int)
FUNC df6c f 0 UnDecorator::doPtr64()
FUNC df80 f 0 UnDecorator::doRestrictionSpec()
FUNC df94 12 0 UnDecorator::doThisTypes()
FUNC dfac f 0 UnDecorator::doThrowTypes()
FUNC dfc0 c 0 UnDecorator::doTypeOnly()
FUNC dfd0 c 0 UnDecorator::doUnderScore()
FUNC dfe0 12b 0 UnDecorator::getArgumentList()
FUNC e158 f3 0 UnDecorator::getArgumentTypes()
FUNC e288 253 0 UnDecorator::getArrayType(DName const &)
FUNC e570 c8 0 UnDecorator::getBasedType()
FUNC e66c 468 0 UnDecorator::getBasicDataType(DName const &)
FUNC ebf0 11d 0 UnDecorator::getCHPEName(char *,int)
FUNC ed54 19 0 UnDecorator::getCallIndex()
FUNC ed74 13e 0 UnDecorator::getCallingConvention()
FUNC ef04 7b8 0 UnDecorator::getDataIndirectType(DName const &,char const *,DName const &,int)
FUNC f8ac 3e 0 UnDecorator::getDataIndirectType()
FUNC f8fc e6 0 UnDecorator::getDataType(DName *)
FUNC fa1c 2a8 0 UnDecorator::getDecoratedName()
FUNC fd70 179 0 UnDecorator::getDimension(bool)
FUNC ff48 4c 0 UnDecorator::getDispatchTarget()
FUNC ffa8 19 0 UnDecorator::getDisplacement()
FUNC ffc8 160 0 UnDecorator::getECSUDataType()
FUNC 10180 17 0 UnDecorator::getECSUName()
FUNC 1019c fc 0 UnDecorator::getEnumType()
FUNC 102d8 214 0 UnDecorator::getExtendedDataIndirectType(char const * &,bool &,int)
FUNC 10574 c6 0 UnDecorator::getExternalDataType(DName const &)
FUNC 1066c 556 0 UnDecorator::getFunctionIndirectType(DName const &)
FUNC 10d18 19 0 UnDecorator::getGuardNumber()
FUNC 10d38 19 0 DName::getLastChar()
FUNC 10d58 c 0 DNameStatusNode::getLastChar()
FUNC 10d68 4 0 charNode::getLastChar()
FUNC 10d6c 29 0 pDNameNode::getLastChar()
FUNC 10da0 35 0 pairNode::getLastChar()
FUNC 10de4 14 0 pcharNode::getLastChar()
FUNC 10e00 71 0 UnDecorator::getLexicalFrame()
FUNC 10e90 a9 0 _HeapManager::getMemory(unsigned __int64,int)
FUNC 10f64 45 0 UnDecorator::getNoexcept()
FUNC 10fbc 73 0 UnDecorator::getNumberOfDimensions()
FUNC 1104c 76d 0 UnDecorator::getOperatorName(bool,bool *)
FUNC 11994 1e 0 UnDecorator::getPointerType(DName const &,DName const &)
FUNC 119bc 1e 0 UnDecorator::getPointerTypeArray(DName const &,DName const &)
FUNC 119e4 24d 0 UnDecorator::getPrimaryDataType(DName const &)
FUNC 11cc4 162 0 UnDecorator::getPtrRefDataType(DName const &,int)
FUNC 11e80 136 0 UnDecorator::getPtrRefType(DName const &,DName const &,char const *)
FUNC 12004 17 0 UnDecorator::getReferenceType(DName const &,DName const &,char const *)
FUNC 12020 13d 0 UnDecorator::getRestrictionSpec()
FUNC 121ac 34 0 UnDecorator::getReturnType(DName *)
FUNC 121f0 478 0 UnDecorator::getScope()
FUNC 12788 103 0 UnDecorator::getScopedName()
FUNC 128cc 94 0 UnDecorator::getSignedDimension()
FUNC 12988 3e 0 UnDecorator::getStorageConvention()
FUNC 129d8 1a 0 DName::getString(char *,char *)
FUNC 129f8 94 0 DName::getString(char *,int)
FUNC 12ab4 46 0 DNameStatusNode::getString(char *,char *)
FUNC 12b0c 11 0 charNode::getString(char *,char *)
FUNC 12b24 2d 0 pDNameNode::getString(char *,char *)
FUNC 12b5c 4b 0 pairNode::getString(char *,char *)
FUNC 12bbc 36 0 pcharNode::getString(char *,char *)
FUNC 12c00 d0 0 UnDecorator::getStringEncoding(char const *,int)
FUNC 12d04 2d 0 getStringHelper(char *,char const *,char const *,int)
FUNC 12d3c 4c 0 UnDecorator::getSymbolName()
FUNC 12d9c 31a 0 UnDecorator::getTemplateArgumentList()
FUNC 1317c 3a0 0 UnDecorator::getTemplateConstant()
FUNC 13604 1fa 0 UnDecorator::getTemplateName(bool)
FUNC 1387c 42 0 UnDecorator::getThisType()
FUNC 138d0 23 0 UnDecorator::getThrowTypes()
FUNC 138fc 35e 0 UnDecorator::getTypeEncoding()
FUNC 13d34 109 0 UnDecorator::getUndecoratedName(char *,int)
FUNC 13e80 58 0 UnDecorator::getVCallThunkType()
FUNC 13ef0 17 0 UnDecorator::getVbTableType(DName const &)
FUNC 13f0c 5f 0 UnDecorator::getVdispMapType(DName const &)
FUNC 13f84 1fd 0 UnDecorator::getVfTableType(DName const &)
FUNC 14200 2d9 0 UnDecorator::getZName(bool,bool)
FUNC 14590 c 0 UnDecorator::haveTemplateParameters()
FUNC 145a0 a 0 DName::isArray()
FUNC 145ac a 0 DName::isComArray()
FUNC 145b8 9 0 DName::isEmpty()
FUNC 145c4 9 0 Replicator::isFull()
FUNC 145d0 a 0 DName::isNoTE()
FUNC 145dc a 0 DName::isPinPtr()
FUNC 145e8 a 0 DName::isPtrRef()
FUNC 145f4 16 0 DName::isUDC()
FUNC 14610 16 0 DName::isUDTThunk()
FUNC 1462c a 0 DName::isVCallThunk()
FUNC 14638 a 0 DName::isValid()
FUNC 14644 18 0 DName::length()
FUNC 14664 4 0 DNameStatusNode::length()
FUNC 14668 6 0 charNode::length()
FUNC 14670 28 0 pDNameNode::length()
FUNC 146a4 53 0 pairNode::length()
FUNC 1470c 4 0 pcharNode::length()
FUNC 14710 1f 0 DNameStatusNode::make(DNameStatus)
FUNC 14738 f5 0 UnDecorator::parseDecoratedName()
FUNC 1486c 6 0 DName::setIsArray()
FUNC 14874 6 0 DName::setIsComArray()
FUNC 1487c 6 0 DName::setIsNoTE()
FUNC 14884 6 0 DName::setIsPinPtr()
FUNC 1488c c 0 DName::setIsUDC()
FUNC 1489c 6 0 DName::setIsVCallThunk()
FUNC 148a4 9 0 DName::setPtrRef()
FUNC 148b0 5 0 DName::status()
FUNC 148b8 1a 0 und_memcpy
FUNC 148d8 11 0 und_strlen
FUNC 148f0 2c 0 und_strncmp
FUNC 14928 27 0 _unDName
FUNC 14958 132 0 _unDNameEx
FUNC 14ad8 62 0 vsprintf_s_l
FUNC 14b54 52 0 sprintf_s
FUNC 14bbc 106 0 unDNameGenerateCHPE
FUNC 14d04 8 0 __crt_internal_free_policy::operator()<__vcrt_ptd>(__vcrt_ptd const * const)
FUNC 14d10 7 0 __crt_unique_heap_ptr<__vcrt_ptd,__crt_internal_free_policy>::__crt_unique_heap_ptr<__vcrt_ptd,__crt_internal_free_policy>(__vcrt_ptd * const)
FUNC 14d18 1a 0 `anonymous namespace'::scoped_get_last_error_reset::scoped_get_last_error_reset
FUNC 14d38 1b 0 __crt_unique_heap_ptr<__vcrt_ptd,__crt_internal_free_policy>::~__crt_unique_heap_ptr<__vcrt_ptd,__crt_internal_free_policy>()
FUNC 14d5c 9 0 `anonymous namespace'::scoped_get_last_error_reset::~scoped_get_last_error_reset
FUNC 14d68 8 0 __crt_unique_heap_ptr<__vcrt_ptd,__crt_internal_free_policy>::operator bool()
FUNC 14d74 8 0 __crt_unique_heap_ptr<__vcrt_ptd,__crt_internal_free_policy>::detach()
FUNC 14d80 4 0 __crt_unique_heap_ptr<__vcrt_ptd,__crt_internal_free_policy>::get()
FUNC 14d84 8 0 __crt_unique_heap_ptr<__vcrt_ptd,__crt_internal_free_policy>::is_valid()
FUNC 14d90 1b 0 __crt_unique_heap_ptr<__vcrt_ptd,__crt_internal_free_policy>::release()
FUNC 14db4 34 0 store_and_initialize_ptd
FUNC 14df8 1f 0 _vcrt_freefls
FUNC 14e20 4d 0 _vcrt_freeptd
FUNC 14e80 19 0 _vcrt_getptd
FUNC 14ea0 cb 0 _vcrt_getptd_noexit
FUNC 14fa0 4d 0 _vcrt_getptd_noinit
FUNC 15000 51 0 _vcrt_initialize_ptd
FUNC 15068 22 0 _vcrt_uninitialize_ptd
FUNC 15094 46 0 _vcrt_initialize_locks
FUNC 150ec 19 0 _vcrt_lock
FUNC 1510c 37 0 _vcrt_uninitialize_locks
FUNC 15150 19 0 _vcrt_unlock
FUNC 15170 8 0 __crt_fast_encoded_nullptr_t::operator<void> void *
FUNC 1517c 16 0 __crt_fast_decode_pointer<void *>
FUNC 15198 1e 0 __crt_fast_encode_pointer<void *>
FUNC 151c0 7 0 __crt_interlocked_exchange_pointer<HINSTANCE__,HINSTANCE__ *>
FUNC 151c8 7 0 __crt_interlocked_exchange_pointer<HINSTANCE__,void *>
FUNC 151d0 7 0 __crt_interlocked_exchange_pointer<void,void *>
FUNC 151d8 4 0 __crt_interlocked_read_pointer<HINSTANCE__>(HINSTANCE__ * const volatile *)
FUNC 151dc 4 0 __crt_interlocked_read_pointer<void>(void * const volatile *)
FUNC 151e0 5 0 __crt_fast_encode_pointer(std::nullptr_t)
FUNC 151e8 5 0 invalid_function_sentinel
FUNC 151f0 1c 0 try_get_FlsAlloc
FUNC 15214 1f 0 try_get_FlsFree
FUNC 1523c 1f 0 try_get_FlsGetValue
FUNC 15264 1f 0 try_get_FlsSetValue
FUNC 1528c 1f 0 try_get_InitializeCriticalSectionEx
FUNC 152b4 119 0 try_get_first_available_module
FUNC 15414 1d6 0 try_get_function
FUNC 15660 fe 0 try_get_module
FUNC 157a0 137 0 try_get_proc_address_from_first_available_module
FUNC 15924 73 0 try_load_library_from_system_directory
FUNC 159b4 45 0 _vcrt_FlsAlloc
FUNC 15a0c 46 0 _vcrt_FlsFree
FUNC 15a64 46 0 _vcrt_FlsGetValue
FUNC 15abc 51 0 _vcrt_FlsSetValue
FUNC 15b24 61 0 _vcrt_InitializeCriticalSectionEx
FUNC 15ba0 2f 0 _vcrt_initialize_winapi_thunks
FUNC 15bdc 3e 0 _vcrt_uninitialize_winapi_thunks
FUNC 15c2c 8 0 __crt_fast_encoded_nullptr_t::operator<void > void (*)(void)()
FUNC 15c38 1e 0 __crt_fast_encode_pointer<void (*)(void)>(void (*const)(void))
FUNC 15c60 f 0 _vcrt_initialize_pure_virtual_call_handler
FUNC 15c74 16 0 __crt_fast_decode_pointer<void (*)(void)>(void (*const)(void))
FUNC 15c90 7 0 __crt_interlocked_exchange_pointer<void ,void (*)(void)>(void (*const volatile *)(void),void (*const)(void))
FUNC 15c98 4 0 __crt_interlocked_read_pointer<void >(void (*const volatile *)(void))
FUNC 15c9c 1a 0 get_purecall_handler
FUNC 15cbc 2e 0 purecall
FUNC 15cf8 37 0 set_purecall_handler
FUNC 15d3c 14 0 std::pair<__FrameHandler3::TryBlockMap::iterator,__FrameHandler3::TryBlockMap::iterator>::pair<__FrameHandler3::TryBlockMap::iterator,__FrameHandler3::TryBlockMap::iterator><__FrameHandler3::TryBlockMap::iterator &,__FrameHandler3::TryBlockMap::iterator &,0>
FUNC 15d58 14 0 std::pair<__FrameHandler4::TryBlockMap::iterator,__FrameHandler4::TryBlockMap::iterator>::pair<__FrameHandler4::TryBlockMap::iterator,__FrameHandler4::TryBlockMap::iterator><__FrameHandler4::TryBlockMap::iterator &,__FrameHandler4::TryBlockMap::iterator &,0>
FUNC 15d74 95 0 SehTransFilter<__FrameHandler3>
FUNC 15e30 95 0 SehTransFilter<__FrameHandler4>
FUNC 15eec 51 0 _CallSETranslator<__FrameHandler3>(EHExceptionRecord *,unsigned __int64 *,_CONTEXT *,_xDISPATCHER_CONTEXT *,_s_FuncInfo const *,unsigned long,unsigned __int64 *)
FUNC 15f54 51 0 _CallSETranslator<__FrameHandler4>(EHExceptionRecord *,unsigned __int64 *,_CONTEXT *,_xDISPATCHER_CONTEXT *,FuncInfo4 *,unsigned long,unsigned __int64 *)
FUNC 15fbc 4 0 std::forward<__FrameHandler3::TryBlockMap::iterator &>
FUNC 15fc0 4 0 std::forward<__FrameHandler4::TryBlockMap::iterator &>
FUNC 15fc4 13 0 FuncInfo4::FuncInfo4()
FUNC 15fdc b 0 __FrameHandler3::TryBlockMap::iterator::iterator(__FrameHandler3::TryBlockMap &,unsigned int)
FUNC 15fec b 0 __FrameHandler4::TryBlockMap::iterator::iterator(__FrameHandler4::TryBlockMap &,unsigned int)
FUNC 15ffc a 0 __FrameHandler4::TryBlockMap::iterator::operator=(__FrameHandler4::TryBlockMap::iterator const &)
FUNC 16008 a 0 __FrameHandler4::TryBlockMap::iterator::operator!=(__FrameHandler4::TryBlockMap::iterator const &)
FUNC 16014 8 0 __FrameHandler4::TryBlockMap::iterator::operator*()
FUNC 16020 a8 0 __FrameHandler4::TryBlockMap::iterator::operator++()
FUNC 160f4 56 0 __FrameHandler3::CatchTryBlock(_s_FuncInfo const *,int)
FUNC 16160 94 0 DecompFuncInfo(unsigned char *,FuncInfo4 &)
FUNC 1621c 9e 0 __FrameHandler4::TryBlockMap::DecompTryBlock()
FUNC 162e4 2a 0 __FrameHandler3::ExecutionInCatch(_xDISPATCHER_CONTEXT *,_s_FuncInfo const *)
FUNC 16318 a 0 __FrameHandler4::ExecutionInCatch(_xDISPATCHER_CONTEXT *,FuncInfo4 *)
FUNC 16324 64 0 __FrameHandler3::FrameUnwindToEmptyState(unsigned __int64 *,_xDISPATCHER_CONTEXT *,_s_FuncInfo const *)
FUNC 163a4 35 0 __FrameHandler4::FrameUnwindToEmptyState(unsigned __int64 *,_xDISPATCHER_CONTEXT *,FuncInfo4 *)
FUNC 163e8 c9 0 __FrameHandler3::GetEstablisherFrame(unsigned __int64 *,_xDISPATCHER_CONTEXT *,_s_FuncInfo const *,unsigned __int64 *)
FUNC 164e4 24 0 __FrameHandler4::GetEstablisherFrame(unsigned __int64 *,_xDISPATCHER_CONTEXT *,FuncInfo4 *,unsigned __int64 *)
FUNC 16514 159 0 __FrameHandler3::GetRangeOfTrysToCheck(__FrameHandler3::TryBlockMap &,int,int)
FUNC 166c4 d3 0 __FrameHandler4::GetRangeOfTrysToCheck(__FrameHandler4::TryBlockMap &,int,int)
FUNC 167cc d 0 ReadInt(unsigned char * *)
FUNC 167dc 30 0 ReadUnsigned(unsigned char * *)
FUNC 16818 121 0 __FrameHandler3::UnwindNestedFrames(unsigned __int64 *,EHExceptionRecord *,_CONTEXT *,unsigned __int64 *,void *,_s_FuncInfo const *,int,int,_s_HandlerType const *,_xDISPATCHER_CONTEXT *,unsigned char)
FUNC 16984 170 0 __FrameHandler4::UnwindNestedFrames(unsigned __int64 *,EHExceptionRecord *,_CONTEXT *,unsigned __int64 *,void *,FuncInfo4 *,int,int,HandlerType4 *,_xDISPATCHER_CONTEXT *,unsigned char)
FUNC 16b50 10 0 __FuncToImageRelOffset(_xDISPATCHER_CONTEXT *,unsigned int)
FUNC 16b64 b 0 __FrameHandler4::TryBlockMap::begin()
FUNC 16b74 c 0 __FrameHandler4::TryBlockMap::end()
FUNC 16b84 4 0 __FrameHandler3::TryBlockMap::getFuncInfo()
FUNC 16b88 5 0 __FrameHandler3::TryBlockMap::getpDC()
FUNC 16b90 4 0 __FrameHandler4::TryBlockMap::iterator::incrementToSentinel()
FUNC 16b94 175 0 __FrameHandler4::TryBlockMap::setBuffer(__FrameHandler4::TryBlockMap::iterator)
FUNC 16d68 3a 0 CreateFrameInfo
FUNC 16db0 53 0 FindAndUnlinkFrame
FUNC 16e18 12 0 GetImageBase
FUNC 16e30 12 0 GetThrowImageBase
FUNC 16e48 18 0 SetImageBase
FUNC 16e68 18 0 SetThrowImageBase
FUNC 16e88 5 0 _CxxFrameHandler
FUNC 16e90 5 0 _CxxFrameHandler2
FUNC 16e98 7d 0 _CxxFrameHandler3
FUNC 16f34 a1 0 _CxxFrameHandler4
FUNC 17010 13 0 memcpy_repmovs
FUNC 17030 435 0 memcpy
FUNC 17580 27 0 __FrameHandler3::GetCurrentState(unsigned __int64 *,_xDISPATCHER_CONTEXT *,_s_FuncInfo const *)
FUNC 175b0 29 0 __FrameHandler3::GetUnwindTryBlock(unsigned __int64 *,_xDISPATCHER_CONTEXT *,_s_FuncInfo const *)
FUNC 175e4 c 0 __FrameHandler3::SetState(unsigned __int64 *,_s_FuncInfo const *,int)
FUNC 175f4 3b 0 __FrameHandler3::SetUnwindTryBlock(unsigned __int64 *,_xDISPATCHER_CONTEXT *,_s_FuncInfo const *,int)
FUNC 17640 8 0 __FrameHandler3::StateFromControlPc(_s_FuncInfo const *,_xDISPATCHER_CONTEXT *)
FUNC 1764c 8 0 __FrameHandler4::StateFromControlPc(FuncInfo4 *,_xDISPATCHER_CONTEXT *)
FUNC 17658 66 0 __FrameHandler3::StateFromIp(_s_FuncInfo const *,_xDISPATCHER_CONTEXT *,unsigned __int64)
FUNC 176d8 ed 0 __FrameHandler4::StateFromIp(FuncInfo4 *,_xDISPATCHER_CONTEXT *,unsigned __int64)
FUNC 17800 4 0 adjustIp
FUNC 17804 1fd 0 BuildCatchObjectHelperInternal<_s_HandlerType const >
FUNC 17a80 201 0 BuildCatchObjectHelperInternal<HandlerType4>
FUNC 17d04 c0 0 BuildCatchObjectInternal<_s_HandlerType const >
FUNC 17df4 c1 0 BuildCatchObjectInternal<HandlerType4>
FUNC 17ee8 cd 0 CatchIt<__FrameHandler3>
FUNC 17fe8 cd 0 CatchIt<__FrameHandler4>
FUNC 180e8 461 0 FindHandler<__FrameHandler3>
FUNC 18664 400 0 FindHandler<__FrameHandler4>
FUNC 18b64 22e 0 FindHandlerForForeignException<__FrameHandler3>
FUNC 18e20 237 0 FindHandlerForForeignException<__FrameHandler4>
FUNC 190e4 141 0 TypeMatchHelper<_s_HandlerType const >(_s_HandlerType const *,_s_CatchableType const *,_s_ThrowInfo const *)
FUNC 19278 146 0 TypeMatchHelper<HandlerType4>(HandlerType4 *,_s_CatchableType const *,_s_ThrowInfo const *)
FUNC 19410 246 0 __InternalCxxFrameHandler<__FrameHandler3>(EHExceptionRecord *,unsigned __int64 *,_CONTEXT *,_xDISPATCHER_CONTEXT *,_s_FuncInfo const *,int,unsigned __int64 *,unsigned char)
FUNC 196e8 29f 0 __InternalCxxFrameHandler<__FrameHandler4>(EHExceptionRecord *,unsigned __int64 *,_CONTEXT *,_xDISPATCHER_CONTEXT *,FuncInfo4 *,int,unsigned __int64 *,unsigned char)
FUNC 19a30 15 0 __FrameHandler3::HandlerMap::HandlerMap(_s_TryBlockMapEntry const *,_xDISPATCHER_CONTEXT *)
FUNC 19a4c 6b 0 __FrameHandler4::HandlerMap::HandlerMap(TryBlockMapEntry4 *,_xDISPATCHER_CONTEXT *)
FUNC 19ad4 14 0 HandlerType4::HandlerType4()
FUNC 19af0 b 0 __FrameHandler3::TryBlockMap::TryBlockMap(_s_FuncInfo const *,_xDISPATCHER_CONTEXT *)
FUNC 19b00 eb 0 __FrameHandler4::TryBlockMap::TryBlockMap(FuncInfo4 *,_xDISPATCHER_CONTEXT *)
FUNC 19c28 38 0 UWMap::UWMap(unsigned char *)
FUNC 19c70 3f 0 std::bad_exception::bad_exception(std::bad_exception const &)
FUNC 19cc0 1e 0 std::bad_exception::bad_exception()
FUNC 19ce8 35 0 std::exception::exception(std::exception const &)
FUNC 19d2c 17 0 std::exception::exception(char const * const,int)
FUNC 19d48 b 0 __FrameHandler3::HandlerMap::iterator::iterator(__FrameHandler3::HandlerMap &,unsigned int)
FUNC 19d58 b 0 __FrameHandler4::HandlerMap::iterator::iterator(__FrameHandler4::HandlerMap &,unsigned int)
FUNC 19d68 b 0 UWMap::iterator::iterator(UWMap &,unsigned char *)
FUNC 19d78 13 0 std::bad_exception::~bad_exception()
FUNC 19d90 13 0 std::exception::~exception()
FUNC 19da8 c 0 UWMap::iterator::operator=(UWMap::iterator const &)
FUNC 19db8 a 0 __FrameHandler3::HandlerMap::iterator::operator==(__FrameHandler3::HandlerMap::iterator const &)
FUNC 19dc4 a 0 __FrameHandler4::HandlerMap::iterator::operator==(__FrameHandler4::HandlerMap::iterator const &)
FUNC 19dd0 1b 0 type_info::operator==(type_info const &)
FUNC 19df4 a 0 __FrameHandler3::HandlerMap::iterator::operator!=(__FrameHandler3::HandlerMap::iterator const &)
FUNC 19e00 a 0 __FrameHandler4::HandlerMap::iterator::operator!=(__FrameHandler4::HandlerMap::iterator const &)
FUNC 19e0c 13 0 __FrameHandler3::HandlerMap::iterator::operator*()
FUNC 19e24 8 0 __FrameHandler4::HandlerMap::iterator::operator*()
FUNC 19e30 1e 0 __FrameHandler3::TryBlockMap::iterator::operator*()
FUNC 19e58 3c 0 UWMap::iterator::operator*()
FUNC 19ea4 7 0 __FrameHandler3::HandlerMap::iterator::operator++()
FUNC 19eac 1d 0 __FrameHandler4::HandlerMap::iterator::operator++()
FUNC 19ed0 7 0 __FrameHandler3::TryBlockMap::iterator::operator++()
FUNC 19ed8 4d 0 UWMap::iterator::operator++()
FUNC 19f38 9 0 UWMap::iterator::operator-(UWMap::iterator const &)
FUNC 19f44 a 0 __FrameHandler3::TryBlockMap::iterator::operator<(__FrameHandler3::TryBlockMap::iterator const &)
FUNC 19f50 a 0 __FrameHandler4::TryBlockMap::iterator::operator<(__FrameHandler4::TryBlockMap::iterator const &)
FUNC 19f5c c 0 UWMap::iterator::operator>(UWMap::iterator const &)
FUNC 19f6c c 0 UWMap::iterator::operator>=(UWMap::iterator const &)
FUNC 19f7c 42 0 std::bad_exception::`scalar deleting destructor'(unsigned int)
FUNC 19fd0 42 0 std::exception::`scalar deleting destructor'(unsigned int)
FUNC 1a024 5 0 __FrameHandler3::BuildCatchObject(EHExceptionRecord *,void *,_s_HandlerType const *,_s_CatchableType const *)
FUNC 1a02c 5 0 __FrameHandler4::BuildCatchObject(EHExceptionRecord *,void *,HandlerType4 *,_s_CatchableType const *)
FUNC 1a034 5 0 __FrameHandler3::BuildCatchObjectHelper(EHExceptionRecord *,void *,_s_HandlerType const *,_s_CatchableType const *)
FUNC 1a03c 5 0 __FrameHandler4::BuildCatchObjectHelper(EHExceptionRecord *,void *,HandlerType4 *,_s_CatchableType const *)
FUNC 1a044 1ea 0 __FrameHandler3::CxxCallCatchBlock(_EXCEPTION_RECORD *)
FUNC 1a2a8 240 0 __FrameHandler4::CxxCallCatchBlock(_EXCEPTION_RECORD *)
FUNC 1a578 147 0 __FrameHandler4::HandlerMap::DecompHandler()
FUNC 1a710 87 0 ExFilterRethrow
FUNC 1a7b8 193 0 __FrameHandler3::FrameUnwindToState(unsigned __int64 *,_xDISPATCHER_CONTEXT *,_s_FuncInfo const *,int)
FUNC 1a9b0 2d9 0 __FrameHandler4::FrameUnwindToState(unsigned __int64 *,_xDISPATCHER_CONTEXT *,FuncInfo4 *,int)
FUNC 1ad40 96 0 __FrameHandler3::GetHandlerSearchState(unsigned __int64 *,_xDISPATCHER_CONTEXT *,_s_FuncInfo const *)
FUNC 1adfc 37 0 __FrameHandler4::GetHandlerSearchState(unsigned __int64 *,_xDISPATCHER_CONTEXT *,FuncInfo4 *)
FUNC 1ae40 4 0 __FrameHandler3::GetMaxState(_xDISPATCHER_CONTEXT *,_s_FuncInfo const *)
FUNC 1ae44 38 0 __FrameHandler4::GetMaxState(_xDISPATCHER_CONTEXT *,FuncInfo4 *)
FUNC 1ae8c d6 0 IsInExceptionSpec
FUNC 1af98 91 0 Is_bad_exception_allowed
FUNC 1b050 99 0 UWMap::ReadEntry()
FUNC 1b110 5 0 __FrameHandler3::TypeMatch(_s_HandlerType const *,_s_CatchableType const *,_s_ThrowInfo const *)
FUNC 1b118 5 0 __FrameHandler4::TypeMatch(HandlerType4 *,_s_CatchableType const *,_s_ThrowInfo const *)
FUNC 1b120 2e 0 UWMap::WalkBack()
FUNC 1b15c 9 0 _CallMemberFunction1(void * const,void * const,void * const)
FUNC 1b168 f 0 _CallMemberFunction2(void * const,void * const,void * const,int)
FUNC 1b17c 7 0 _ValidateExecute(__int64 (*)(void))
FUNC 1b184 7 0 _ValidateRead(void const *,unsigned int)
FUNC 1b18c 7 0 _ValidateWrite(void *,unsigned int)
FUNC 1b194 14 0 __RethrowException
FUNC 1b1b0 b 0 __FrameHandler3::HandlerMap::begin()
FUNC 1b1c0 b 0 __FrameHandler4::HandlerMap::begin()
FUNC 1b1d0 f 0 UWMap::begin()
FUNC 1b1e4 c 0 __FrameHandler3::HandlerMap::end()
FUNC 1b1f4 c 0 __FrameHandler4::HandlerMap::end()
FUNC 1b204 28 0 __FrameHandler3::getESTypes(_s_FuncInfo const *)
FUNC 1b238 3 0 __FrameHandler4::getESTypes(FuncInfo4 *)
FUNC 1b23c 13 0 __FrameHandler3::HandlerMap::getLastEntry()
FUNC 1b254 4e 0 __FrameHandler4::HandlerMap::getLastEntry()
FUNC 1b2b8 8 0 __FrameHandler3::getMagicNum(_s_FuncInfo const *)
FUNC 1b2c4 6 0 __FrameHandler4::getMagicNum(FuncInfo4 *)
FUNC 1b2cc 7 0 __FrameHandler3::TryBlockMap::getNumTryBlocks()
FUNC 1b2d4 3 0 __FrameHandler4::TryBlockMap::getNumTryBlocks()
FUNC 1b2d8 12 0 UWMap::getOffsetIter(__int64)
FUNC 1b2f0 a1 0 UWMap::getStartStop(int,int,UWMap::iterator &,UWMap::iterator &)
FUNC 1b3bc 86 0 UWMap::getStateIter(int)
FUNC 1b464 6 0 __FrameHandler3::isEHs(_s_FuncInfo const *)
FUNC 1b46c 8 0 __FrameHandler4::isEHs(FuncInfo4 *)
FUNC 1b478 9 0 __FrameHandler3::isNoExcept(_s_FuncInfo const *)
FUNC 1b484 8 0 __FrameHandler4::isNoExcept(FuncInfo4 *)
FUNC 1b490 11 0 HandlerType4::reset()
FUNC 1b4a8 d 0 __FrameHandler4::HandlerMap::resetBuffer()
FUNC 1b4b8 39 0 __FrameHandler4::HandlerMap::setBuffer(unsigned int)
FUNC 1b500 12 0 std::exception::what()
FUNC 1b518 5 0 _BuildCatchObject
FUNC 1b520 5 0 _BuildCatchObjectHelper
FUNC 1b528 5 0 _TypeMatch
FUNC 1b530 7 0 _vcrt_EncodePointer
FUNC 1b550 40 0 CallSettingFrame
FUNC 1b5a0 47 0 CallSettingFrameEncoded
FUNC 1b610 8 0 __crt_public_free_policy::operator()<char>(char const * const)
FUNC 1b61c 7 0 __crt_unique_heap_ptr<char,__crt_public_free_policy>::__crt_unique_heap_ptr<char,__crt_public_free_policy>(char * const)
FUNC 1b624 1b 0 __crt_unique_heap_ptr<char,__crt_public_free_policy>::~__crt_unique_heap_ptr<char,__crt_public_free_policy>()
FUNC 1b648 8 0 __crt_unique_heap_ptr<char,__crt_public_free_policy>::operator bool()
FUNC 1b654 8 0 __crt_unique_heap_ptr<char,__crt_public_free_policy>::detach()
FUNC 1b660 4 0 __crt_unique_heap_ptr<char,__crt_public_free_policy>::get()
FUNC 1b664 8 0 __crt_unique_heap_ptr<char,__crt_public_free_policy>::is_valid()
FUNC 1b670 1b 0 __crt_unique_heap_ptr<char,__crt_public_free_policy>::release()
FUNC 1b694 8d 0 _std_exception_copy
FUNC 1b744 25 0 _std_exception_destroy
FUNC 1b774 bf 0 CxxThrowException
FUNC 1b864 16 0 __crt_fast_decode_pointer<void (__cdecl*)(wchar_t const *,wchar_t const *,wchar_t const *,unsigned int,unsigned __int64)>
FUNC 1b880 1e 0 __crt_fast_encode_pointer<void (__cdecl*)(wchar_t const *,wchar_t const *,wchar_t const *,unsigned int,unsigned __int64)>
FUNC 1b8a8 7 0 __crt_state_management::dual_state_global<void (__cdecl*)(wchar_t const *,wchar_t const *,wchar_t const *,unsigned int,unsigned __int64)>::initialize_from_array<void (__cdecl*[1])(wchar_t const *,wchar_t const *,wchar_t const *,unsigned int,unsigned __int64)>
FUNC 1b8b0 6d 0 capture_current_context
FUNC 1b938 4 0 __crt_state_management::dual_state_global<void (__cdecl*)(wchar_t const *,wchar_t const *,wchar_t const *,unsigned int,unsigned __int64)>::dangerous_get_state_array
FUNC 1b93c 3 0 __crt_state_management::get_current_state_index()
FUNC 1b940 4 0 __crt_state_management::dual_state_global<void (__cdecl*)(wchar_t const *,wchar_t const *,wchar_t const *,unsigned int,unsigned __int64)>::value
FUNC 1b944 15b 0 _acrt_call_reportfault
FUNC 1baf8 8 0 _acrt_initialize_invalid_parameter_handler
FUNC 1bb04 17 0 get_invalid_parameter_handler
FUNC 1bb20 1a 0 get_thread_local_invalid_parameter_handler
FUNC 1bb40 ae 0 invalid_parameter
FUNC 1bc1c 1e 0 invalid_parameter_noinfo
FUNC 1bc44 2f 0 invalid_parameter_noinfo_noreturn
FUNC 1bc80 47 0 invoke_watson
FUNC 1bcd8 34 0 set_invalid_parameter_handler
FUNC 1bd1c 25 0 set_thread_local_invalid_parameter_handler
FUNC 1bd4c 64 0 initterm
FUNC 1bdcc 3d 0 initterm_e
FUNC 1be18 11 0 free
FUNC 1be30 1d 0 xcptlookup
FUNC 1be54 13 0 seh_filter_dll
FUNC 1be6c 182 0 seh_filter_exe
FUNC 1c050 8 0 __crt_fast_encoded_nullptr_t::operator<void __cdecl(void *,unsigned long,void *)> void (__cdecl*)(void *,unsigned long,void *)
FUNC 1c05c 38 0 __crt_seh_guarded_call<void>::operator()<<lambda_d80eeec6fff315bfe5c115232f3240e3>,<lambda_6e4b09c48022b2350581041d5f6b0c4c> &,<lambda_2358e3775559c9db80273638284d5e45> >
FUNC 1c0a4 26 0 __acrt_lock_and_call<<lambda_6e4b09c48022b2350581041d5f6b0c4c> >
FUNC 1c0d4 16 0 __crt_fast_decode_pointer<void (__cdecl*)(void *,unsigned long,void *)>
FUNC 1c0f0 1e 0 __crt_fast_encode_pointer<void (__cdecl*)(void *,unsigned long,void *)>
FUNC 1c118 7 0 __crt_get_proc_address<void (*)(unsigned int)>(HINSTANCE__ * const,char const * const)
FUNC 1c120 3 0 __crt_interlocked_read<long>(long const volatile *)
FUNC 1c124 8 0 <lambda_2358e3775559c9db80273638284d5e45>::<lambda_2358e3775559c9db80273638284d5e45>
FUNC 1c130 f 0 <lambda_6e4b09c48022b2350581041d5f6b0c4c>::<lambda_6e4b09c48022b2350581041d5f6b0c4c>
FUNC 1c144 8 0 <lambda_d80eeec6fff315bfe5c115232f3240e3>::<lambda_d80eeec6fff315bfe5c115232f3240e3>
FUNC 1c150 7 0 __crt_unique_handle_t<__crt_hmodule_traits>::__crt_unique_handle_t<__crt_hmodule_traits>(HINSTANCE__ * const)
FUNC 1c158 21 0 __crt_unique_handle_t<__crt_hmodule_traits>::~__crt_unique_handle_t<__crt_hmodule_traits>()
FUNC 1c184 7 0 <lambda_2358e3775559c9db80273638284d5e45>::operator()
FUNC 1c18c c1 0 <lambda_6e4b09c48022b2350581041d5f6b0c4c>::operator()
FUNC 1c280 7 0 <lambda_d80eeec6fff315bfe5c115232f3240e3>::operator()
FUNC 1c288 6 0 __acrt_select_exit_lock()
FUNC 1c290 3 0 __crt_interlocked_read_32(int const volatile *)
FUNC 1c294 c 0 atexit_exception_filter
FUNC 1c2a4 21 0 __crt_unique_handle_t<__crt_hmodule_traits>::close()
FUNC 1c2d0 14 0 __crt_hmodule_traits::close(HINSTANCE__ *)
FUNC 1c2ec bc 0 common_exit
FUNC 1c3d8 4a 0 exit_or_terminate_process
FUNC 1c434 4 0 __crt_unique_handle_t<__crt_hmodule_traits>::get()
FUNC 1c438 4 0 __crt_unique_handle_t<__crt_hmodule_traits>::get_address_of()
FUNC 1c43c 3 0 __crt_hmodule_traits::get_invalid_value()
FUNC 1c440 52 0 is_managed_app
FUNC 1c4a8 30 0 should_call_terminate_process
FUNC 1c4e4 5b 0 try_cor_exit_process
FUNC 1c558 c 0 Exit
FUNC 1c568 8 0 _acrt_initialize_thread_local_exit_callback
FUNC 1c574 10 0 c_exit
FUNC 1c588 d 0 cexit
FUNC 1c598 c 0 exit
FUNC 1c5a8 7 0 is_c_termination_complete
FUNC 1c5b0 3c 0 register_thread_local_exe_atexit_callback
FUNC 1c5fc a 0 exit
FUNC 1c608 c 0 quick_exit
FUNC 1c618 8 0 __crt_internal_free_policy::operator()<unsigned char>(unsigned char const * const)
FUNC 1c624 8 0 __crt_internal_free_policy::operator()<char *>
FUNC 1c630 8 0 __crt_internal_free_policy::operator()<wchar_t *>
FUNC 1c63c 175 0 common_configure_argv<char>
FUNC 1c810 171 0 common_configure_argv<wchar_t>
FUNC 1c9e0 b 0 __crt_char_traits<char>::get_module_file_name<std::nullptr_t,char (&)[261],int>
FUNC 1c9f0 d 0 __crt_char_traits<wchar_t>::get_module_file_name<std::nullptr_t,wchar_t (&)[261],int>
FUNC 1ca00 1c3 0 parse_command_line<char>
FUNC 1cc34 1a2 0 parse_command_line<wchar_t>
FUNC 1ce40 b 0 __crt_char_traits<char>::set_program_name<char *>
FUNC 1ce50 b 0 __crt_char_traits<wchar_t>::set_program_name<wchar_t *>
FUNC 1ce60 7 0 <lambda_a36aafc41185bea294aaaa3896c79ecc>::<lambda_a36aafc41185bea294aaaa3896c79ecc>
FUNC 1ce68 7 0 <lambda_df1553121bfa390f1154bd84936f2730>::<lambda_df1553121bfa390f1154bd84936f2730>
FUNC 1ce70 7 0 __crt_unique_heap_ptr<unsigned char,__crt_internal_free_policy>::__crt_unique_heap_ptr<unsigned char,__crt_internal_free_policy>(unsigned char * const)
FUNC 1ce78 7 0 __crt_unique_heap_ptr<char *,__crt_internal_free_policy>::__crt_unique_heap_ptr<char *,__crt_internal_free_policy>
FUNC 1ce80 7 0 __crt_unique_heap_ptr<wchar_t *,__crt_internal_free_policy>::__crt_unique_heap_ptr<wchar_t *,__crt_internal_free_policy>
FUNC 1ce88 1b 0 __crt_unique_heap_ptr<unsigned char,__crt_internal_free_policy>::~__crt_unique_heap_ptr<unsigned char,__crt_internal_free_policy>()
FUNC 1ceac 1b 0 __crt_unique_heap_ptr<char *,__crt_internal_free_policy>::~__crt_unique_heap_ptr<char *,__crt_internal_free_policy>
FUNC 1ced0 1b 0 __crt_unique_heap_ptr<wchar_t *,__crt_internal_free_policy>::~__crt_unique_heap_ptr<wchar_t *,__crt_internal_free_policy>
FUNC 1cef4 8 0 __crt_unique_heap_ptr<unsigned char,__crt_internal_free_policy>::operator bool()
FUNC 1cf00 1b 0 <lambda_a36aafc41185bea294aaaa3896c79ecc>::operator()
FUNC 1cf24 1b 0 <lambda_df1553121bfa390f1154bd84936f2730>::operator()
FUNC 1cf48 8 0 __crt_unique_heap_ptr<unsigned char,__crt_internal_free_policy>::detach()
FUNC 1cf54 8 0 __crt_unique_heap_ptr<char *,__crt_internal_free_policy>::detach
FUNC 1cf60 8 0 __crt_unique_heap_ptr<wchar_t *,__crt_internal_free_policy>::detach
FUNC 1cf6c 5 0 do_locale_initialization
FUNC 1cf74 3 0 do_locale_initialization
FUNC 1cf78 5 0 expand_argv_wildcards
FUNC 1cf80 5 0 expand_argv_wildcards
FUNC 1cf88 4 0 __crt_unique_heap_ptr<unsigned char,__crt_internal_free_policy>::get()
FUNC 1cf8c 4 0 __crt_unique_heap_ptr<char *,__crt_internal_free_policy>::get
FUNC 1cf90 4 0 __crt_unique_heap_ptr<wchar_t *,__crt_internal_free_policy>::get
FUNC 1cf94 4 0 __crt_unique_heap_ptr<char *,__crt_internal_free_policy>::get_address_of
FUNC 1cf98 4 0 __crt_unique_heap_ptr<wchar_t *,__crt_internal_free_policy>::get_address_of
FUNC 1cf9c 8 0 get_argv
FUNC 1cfa8 8 0 get_argv
FUNC 1cfb4 8 0 get_command_line
FUNC 1cfc0 8 0 get_command_line
FUNC 1cfcc 8 0 __crt_unique_heap_ptr<unsigned char,__crt_internal_free_policy>::is_valid()
FUNC 1cfd8 1b 0 __crt_unique_heap_ptr<unsigned char,__crt_internal_free_policy>::release()
FUNC 1cffc 1b 0 __crt_unique_heap_ptr<char *,__crt_internal_free_policy>::release
FUNC 1d020 1b 0 __crt_unique_heap_ptr<wchar_t *,__crt_internal_free_policy>::release
FUNC 1d044 16 0 should_copy_another_character
FUNC 1d060 3 0 should_copy_another_character
FUNC 1d064 5d 0 _acrt_allocate_buffer_for_argv
FUNC 1d0d8 186 0 configure_narrow_argv
FUNC 1d2c0 182 0 configure_wide_argv
FUNC 1d4a4 8 0 set_pgmptr
FUNC 1d4b0 8 0 set_wpgmptr
FUNC 1d4bc 8 0 __crt_internal_free_policy::operator()<wchar_t>(wchar_t const * const)
FUNC 1d4c8 4e 0 common_get_initial_environment<char>
FUNC 1d52c 4e 0 common_get_initial_environment<wchar_t>
FUNC 1d590 3b 0 common_get_or_create_environment_nolock<char>
FUNC 1d5dc 3b 0 common_get_or_create_environment_nolock<wchar_t>
FUNC 1d628 6c 0 common_initialize_environment_nolock<char>
FUNC 1d6b0 67 0 common_initialize_environment_nolock<wchar_t>
FUNC 1d730 32 0 count_variables_in_environment_block<char>
FUNC 1d770 3c 0 count_variables_in_environment_block<wchar_t>
FUNC 1d7bc 106 0 create_environment<char>
FUNC 1d904 113 0 create_environment<wchar_t>
FUNC 1da5c 41 0 free_environment<char>
FUNC 1dab0 41 0 free_environment<wchar_t>
FUNC 1db04 5 0 __crt_char_traits<char>::get_environment_from_os<>()
FUNC 1db0c 5 0 __crt_char_traits<wchar_t>::get_environment_from_os<>()
FUNC 1db14 d1 0 initialize_environment_by_cloning_nolock<char>
FUNC 1dc1c b1 0 initialize_environment_by_cloning_nolock<wchar_t>
FUNC 1dcfc a 0 __crt_char_traits<char>::set_variable_in_environment_nolock<char *,int>
FUNC 1dd08 a 0 __crt_char_traits<wchar_t>::set_variable_in_environment_nolock<wchar_t *,int>
FUNC 1dd14 e 0 __crt_char_traits<char>::tcscpy_s<char *,unsigned __int64 const &,char * &>
FUNC 1dd28 e 0 __crt_char_traits<wchar_t>::tcscpy_s<wchar_t *,unsigned __int64 const &,wchar_t * &>
FUNC 1dd3c 11 0 __crt_char_traits<char>::tcslen<char * &>
FUNC 1dd54 12 0 __crt_char_traits<wchar_t>::tcslen<wchar_t * &>
FUNC 1dd6c 43 0 __crt_state_management::dual_state_global<char * *>::uninitialize<void (__cdecl&)(char * * &)>
FUNC 1ddc0 43 0 __crt_state_management::dual_state_global<wchar_t * *>::uninitialize<void (__cdecl&)(wchar_t * * &)>
FUNC 1de14 1a 0 uninitialize_environment_internal<char>
FUNC 1de34 1a 0 uninitialize_environment_internal<wchar_t>
FUNC 1de54 7 0 __crt_unique_heap_ptr<wchar_t,__crt_internal_free_policy>::__crt_unique_heap_ptr<wchar_t,__crt_internal_free_policy>(wchar_t * const)
FUNC 1de5c 1b 0 __crt_unique_heap_ptr<wchar_t,__crt_internal_free_policy>::~__crt_unique_heap_ptr<wchar_t,__crt_internal_free_policy>()
FUNC 1de80 8 0 __crt_unique_heap_ptr<char *,__crt_internal_free_policy>::operator bool
FUNC 1de8c 8 0 __crt_unique_heap_ptr<wchar_t *,__crt_internal_free_policy>::operator bool
FUNC 1de98 8 0 __crt_unique_heap_ptr<wchar_t,__crt_internal_free_policy>::operator bool()
FUNC 1dea4 24 0 __crt_compute_required_transform_buffer_count(unsigned int,char const * const)
FUNC 1ded4 2e 0 __crt_compute_required_transform_buffer_count(unsigned int,wchar_t const * const)
FUNC 1df10 23 0 __crt_transform_string(unsigned int,char const * const,wchar_t * const,unsigned __int64)
FUNC 1df3c 2e 0 __crt_transform_string(unsigned int,wchar_t const * const,char * const,unsigned __int64)
FUNC 1df78 8 0 __crt_unique_heap_ptr<char,__crt_internal_free_policy>::detach()
FUNC 1df84 8 0 __crt_unique_heap_ptr<wchar_t,__crt_internal_free_policy>::detach()
FUNC 1df90 4 0 __crt_unique_heap_ptr<wchar_t,__crt_internal_free_policy>::get()
FUNC 1df94 8 0 get_dual_state_environment_nolock
FUNC 1dfa0 8 0 get_dual_state_environment_nolock
FUNC 1dfac 8 0 get_environment_nolock
FUNC 1dfb8 8 0 get_environment_nolock
FUNC 1dfc4 8 0 get_initial_environment
FUNC 1dfd0 8 0 get_initial_environment
FUNC 1dfdc 27 0 __crt_state_management::dual_state_global<char * *>::initialize
FUNC 1e00c 27 0 __crt_state_management::dual_state_global<wchar_t * *>::initialize
FUNC 1e03c 8 0 __crt_unique_heap_ptr<char *,__crt_internal_free_policy>::is_valid
FUNC 1e048 8 0 __crt_unique_heap_ptr<wchar_t *,__crt_internal_free_policy>::is_valid
FUNC 1e054 8 0 __crt_unique_heap_ptr<wchar_t,__crt_internal_free_policy>::is_valid()
FUNC 1e060 5 0 pre_initialize
FUNC 1e068 3 0 pre_initialize
FUNC 1e06c 1b 0 __crt_unique_heap_ptr<wchar_t,__crt_internal_free_policy>::release()
FUNC 1e090 4 0 __crt_state_management::dual_state_global<char * *>::value
FUNC 1e094 4 0 __crt_state_management::dual_state_global<wchar_t * *>::value
FUNC 1e098 3b 0 _dcrt_get_or_create_narrow_environment_nolock
FUNC 1e0e4 3b 0 _dcrt_get_or_create_wide_environment_nolock
FUNC 1e130 38 0 _dcrt_uninitialize_environments_nolock
FUNC 1e178 8 0 _p__environ
FUNC 1e184 8 0 _p__wenviron
FUNC 1e190 4e 0 get_initial_narrow_environment
FUNC 1e1f4 4e 0 get_initial_wide_environment
FUNC 1e258 5 0 initialize_narrow_environment
FUNC 1e260 5 0 initialize_wide_environment
FUNC 1e268 31 0 invoke_watson_if_error
FUNC 1e2a8 8 0 __crt_fast_encoded_nullptr_t::operator<void (__cdecl*)(void)> void (__cdecl**)(void)
FUNC 1e2b4 8 0 __crt_internal_free_policy::operator()<void (*)(void)>(void (*const * const)(void))
FUNC 1e2c0 3b 0 __crt_seh_guarded_call<int>::operator()<<lambda_638799b9deba96c50f710eeac98168cd>,<lambda_22ebabd17bc4fa466a2aca6d8deb888d> &,<lambda_a6f7d7db0129f75315ebf26d50c089f1> >
FUNC 1e30c 3b 0 __crt_seh_guarded_call<int>::operator()<<lambda_7777bce6b2f8c936911f934f8298dc43>,<lambda_f03950bc5685219e0bcd2087efbe011e> &,<lambda_3883c3dff614d5e0c5f61bb1ac94921c> >
FUNC 1e358 26 0 __acrt_lock_and_call<<lambda_22ebabd17bc4fa466a2aca6d8deb888d> >
FUNC 1e388 26 0 __acrt_lock_and_call<<lambda_f03950bc5685219e0bcd2087efbe011e> >
FUNC 1e3b8 1e 0 __crt_fast_encode_pointer<int (*)(void)>(int (*const)(void))
FUNC 1e3e0 b 0 <lambda_22ebabd17bc4fa466a2aca6d8deb888d>::<lambda_22ebabd17bc4fa466a2aca6d8deb888d>
FUNC 1e3f0 8 0 <lambda_3883c3dff614d5e0c5f61bb1ac94921c>::<lambda_3883c3dff614d5e0c5f61bb1ac94921c>
FUNC 1e3fc 8 0 <lambda_638799b9deba96c50f710eeac98168cd>::<lambda_638799b9deba96c50f710eeac98168cd>
FUNC 1e408 8 0 <lambda_7777bce6b2f8c936911f934f8298dc43>::<lambda_7777bce6b2f8c936911f934f8298dc43>
FUNC 1e414 8 0 <lambda_a6f7d7db0129f75315ebf26d50c089f1>::<lambda_a6f7d7db0129f75315ebf26d50c089f1>
FUNC 1e420 7 0 <lambda_f03950bc5685219e0bcd2087efbe011e>::<lambda_f03950bc5685219e0bcd2087efbe011e>
FUNC 1e428 7 0 __crt_unique_heap_ptr<void (*)(void),__crt_internal_free_policy>::__crt_unique_heap_ptr<void (*)(void),__crt_internal_free_policy>(void (** const)(void))
FUNC 1e430 1b 0 __crt_unique_heap_ptr<void (*)(void),__crt_internal_free_policy>::~__crt_unique_heap_ptr<void (*)(void),__crt_internal_free_policy>()
FUNC 1e454 3 0 __crt_state_management::scoped_global_state_reset::~scoped_global_state_reset()
FUNC 1e458 1b0 0 <lambda_22ebabd17bc4fa466a2aca6d8deb888d>::operator()
FUNC 1e674 7 0 <lambda_3883c3dff614d5e0c5f61bb1ac94921c>::operator()
FUNC 1e67c 7 0 <lambda_638799b9deba96c50f710eeac98168cd>::operator()
FUNC 1e684 7 0 <lambda_7777bce6b2f8c936911f934f8298dc43>::operator()
FUNC 1e68c 7 0 <lambda_a6f7d7db0129f75315ebf26d50c089f1>::operator()
FUNC 1e694 116 0 <lambda_f03950bc5685219e0bcd2087efbe011e>::operator()
FUNC 1e7f0 8 0 __crt_unique_heap_ptr<void (*)(void),__crt_internal_free_policy>::detach()
FUNC 1e7fc 1b 0 __crt_unique_heap_ptr<void (*)(void),__crt_internal_free_policy>::release()
FUNC 1e820 f 0 crt_at_quick_exit
FUNC 1e834 f 0 crt_atexit
FUNC 1e848 3a 0 execute_onexit_table
FUNC 1e890 27 0 initialize_onexit_table
FUNC 1e8c0 48 0 register_onexit_function
FUNC 1e91c 11 0 initialize_global_variables
FUNC 1e934 23 0 initialize_c
FUNC 1e960 3 0 uninitialize_c
FUNC 1e964 3 0 initialize_environment
FUNC 1e968 10 0 uninitialize_environment
FUNC 1e97c 3 0 initialize_global_state_isolation
FUNC 1e980 3 0 uninitialize_global_state_isolation
FUNC 1e984 3d 0 initialize_pointers
FUNC 1e9d0 7 0 uninitialize_vcruntime
FUNC 1e9d8 40 0 uninitialize_allocated_memory
FUNC 1ea28 5b 0 uninitialize_allocated_io_buffers
FUNC 1ea9c 3 0 report_memory_leaks
FUNC 1eaa0 6f 0 __crt_state_management::dual_state_global<__crt_multibyte_data *>::uninitialize<<lambda_af42a3ee9806e9a7305d451646e05244> >
FUNC 1eb2c 3e 0 <lambda_af42a3ee9806e9a7305d451646e05244>::operator()
FUNC 1eb7c c 0 __acrt_stdio_is_initialized()
FUNC 1eb8c 27 0 __crt_state_management::dual_state_global<__crt_locale_data *>::initialize
FUNC 1ebbc 13 0 _acrt_initialize
FUNC 1ebd4 14 0 _acrt_thread_attach
FUNC 1ebf0 10 0 _acrt_thread_detach
FUNC 1ec04 35 0 _acrt_uninitialize
FUNC 1ec48 10 0 _acrt_uninitialize_critical
FUNC 1ec5c 12 0 get_terminate_or_default
FUNC 1ec74 22 0 get_terminate
FUNC 1eca0 2c 0 set_terminate
FUNC 1ecd8 20 0 terminate
FUNC 1ed00 5 0 malloc
FUNC 1ed08 62 0 common_tcscpy_s<char>
FUNC 1ed84 5f 0 strcpy_s
FUNC 1edfc 81 0 __crt_stdio_output::format_validation_base<char,__crt_stdio_output::stream_output_adapter<char> >::format_validation_base<char,__crt_stdio_output::stream_output_adapter<char> ><__crt_stdio_output::stream_output_adapter<char> const &,unsigned __int64 const &,char const * const &,__crt_locale_pointers * const &,char * const &>
FUNC 1eea0 9e 0 __crt_stdio_output::positional_parameter_base<char,__crt_stdio_output::stream_output_adapter<char> >::positional_parameter_base<char,__crt_stdio_output::stream_output_adapter<char> ><__crt_stdio_output::stream_output_adapter<char> const &,unsigned __int64 const &,char const * const &,__crt_locale_pointers * const &,char * const &>
FUNC 1ef68 81 0 __crt_stdio_output::standard_base<char,__crt_stdio_output::stream_output_adapter<char> >::standard_base<char,__crt_stdio_output::stream_output_adapter<char> ><__crt_stdio_output::stream_output_adapter<char> const &,unsigned __int64 const &,char const * const &,__crt_locale_pointers * const &,char * const &>
FUNC 1f00c 85 0 __crt_stdio_output::format_validation_base<wchar_t,__crt_stdio_output::stream_output_adapter<wchar_t> >::format_validation_base<wchar_t,__crt_stdio_output::stream_output_adapter<wchar_t> ><__crt_stdio_output::stream_output_adapter<wchar_t> const &,unsigned __int64 const &,wchar_t const * const &,__crt_locale_pointers * const &,char * const &>
FUNC 1f0b4 a2 0 __crt_stdio_output::positional_parameter_base<wchar_t,__crt_stdio_output::stream_output_adapter<wchar_t> >::positional_parameter_base<wchar_t,__crt_stdio_output::stream_output_adapter<wchar_t> ><__crt_stdio_output::stream_output_adapter<wchar_t> const &,unsigned __int64 const &,wchar_t const * const &,__crt_locale_pointers * const &,char * const &>
FUNC 1f180 85 0 __crt_stdio_output::standard_base<wchar_t,__crt_stdio_output::stream_output_adapter<wchar_t> >::standard_base<wchar_t,__crt_stdio_output::stream_output_adapter<wchar_t> ><__crt_stdio_output::stream_output_adapter<wchar_t> const &,unsigned __int64 const &,wchar_t const * const &,__crt_locale_pointers * const &,char * const &>
FUNC 1f228 81 0 __crt_stdio_output::format_validation_base<char,__crt_stdio_output::string_output_adapter<char> >::format_validation_base<char,__crt_stdio_output::string_output_adapter<char> ><__crt_stdio_output::string_output_adapter<char> const &,unsigned __int64 const &,char const * const &,__crt_locale_pointers * const &,char * const &>
FUNC 1f2cc 9e 0 __crt_stdio_output::positional_parameter_base<char,__crt_stdio_output::string_output_adapter<char> >::positional_parameter_base<char,__crt_stdio_output::string_output_adapter<char> ><__crt_stdio_output::string_output_adapter<char> const &,unsigned __int64 const &,char const * const &,__crt_locale_pointers * const &,char * const &>
FUNC 1f394 81 0 __crt_stdio_output::standard_base<char,__crt_stdio_output::string_output_adapter<char> >::standard_base<char,__crt_stdio_output::string_output_adapter<char> ><__crt_stdio_output::string_output_adapter<char> const &,unsigned __int64 const &,char const * const &,__crt_locale_pointers * const &,char * const &>
FUNC 1f438 85 0 __crt_stdio_output::format_validation_base<wchar_t,__crt_stdio_output::string_output_adapter<wchar_t> >::format_validation_base<wchar_t,__crt_stdio_output::string_output_adapter<wchar_t> ><__crt_stdio_output::string_output_adapter<wchar_t> const &,unsigned __int64 const &,wchar_t const * const &,__crt_locale_pointers * const &,char * const &>
FUNC 1f4e0 a2 0 __crt_stdio_output::positional_parameter_base<wchar_t,__crt_stdio_output::string_output_adapter<wchar_t> >::positional_parameter_base<wchar_t,__crt_stdio_output::string_output_adapter<wchar_t> ><__crt_stdio_output::string_output_adapter<wchar_t> const &,unsigned __int64 const &,wchar_t const * const &,__crt_locale_pointers * const &,char * const &>
FUNC 1f5ac 85 0 __crt_stdio_output::standard_base<wchar_t,__crt_stdio_output::string_output_adapter<wchar_t> >::standard_base<wchar_t,__crt_stdio_output::string_output_adapter<wchar_t> ><__crt_stdio_output::string_output_adapter<wchar_t> const &,unsigned __int64 const &,wchar_t const * const &,__crt_locale_pointers * const &,char * const &>
FUNC 1f654 3d 0 __crt_seh_guarded_call<int>::operator()<<lambda_63c71d947f2ce890aa4aac7392f1cbed>,<lambda_e3269ba96939e7713c73908c0d757d25> &,<lambda_3776af017df72547960a8ac98bb265e7> >
FUNC 1f6a0 3d 0 __crt_seh_guarded_call<int>::operator()<<lambda_676bd5779251ec186b530f0a904b4b35>,<lambda_b579ea784fd840951dfbcbdaebf709fd> &,<lambda_10027885da78ada7fb00668d7e2e96b5> >
FUNC 1f6ec 3d 0 __crt_seh_guarded_call<int>::operator()<<lambda_8be82e0ce9ca3860586e20edfb7a650e>,<lambda_673ffc0dc9412a0afcf2088e0e1b9bdc> &,<lambda_c997b1ad71a4c19edf3d1d12a5864641> >
FUNC 1f738 3d 0 __crt_seh_guarded_call<int>::operator()<<lambda_d1b8e9147f7260ae436300a3cb83e6d4>,<lambda_e638437c4db75b75056fab6aaf7e4f15> &,<lambda_8c9f37a989ed2ac074735e5b535e306a> >
FUNC 1f784 3d 0 __crt_seh_guarded_call<int>::operator()<<lambda_e746820a99d01fe878d2dbd7f1018dff>,<lambda_a993425e72f5bd8b40f5859286f153c4> &,<lambda_4dad5d88921143c78c186dc2683775b0> >
FUNC 1f7d0 3d 0 __crt_seh_guarded_call<int>::operator()<<lambda_fe5404e9642edbb7c8ae71e1dcfa4018>,<lambda_36eeb330e99a4f0bf8a7da86d0894cb9> &,<lambda_2fa474834de80dc12f7a3c6eddd7a366> >
FUNC 1f81c 28 0 __acrt_lock_stream_and_call<<lambda_36eeb330e99a4f0bf8a7da86d0894cb9> >
FUNC 1f850 28 0 __acrt_lock_stream_and_call<<lambda_673ffc0dc9412a0afcf2088e0e1b9bdc> >
FUNC 1f884 28 0 __acrt_lock_stream_and_call<<lambda_a993425e72f5bd8b40f5859286f153c4> >
FUNC 1f8b8 28 0 __acrt_lock_stream_and_call<<lambda_b579ea784fd840951dfbcbdaebf709fd> >
FUNC 1f8ec 28 0 __acrt_lock_stream_and_call<<lambda_e3269ba96939e7713c73908c0d757d25> >
FUNC 1f920 28 0 __acrt_lock_stream_and_call<<lambda_e638437c4db75b75056fab6aaf7e4f15> >
FUNC 1f954 85 0 common_vfprintf<__crt_stdio_output::format_validation_base,char>
FUNC 1f9fc 85 0 common_vfprintf<__crt_stdio_output::format_validation_base,wchar_t>
FUNC 1faa4 85 0 common_vfprintf<__crt_stdio_output::positional_parameter_base,char>
FUNC 1fb4c 85 0 common_vfprintf<__crt_stdio_output::positional_parameter_base,wchar_t>
FUNC 1fbf4 85 0 common_vfprintf<__crt_stdio_output::standard_base,char>
FUNC 1fc9c 85 0 common_vfprintf<__crt_stdio_output::standard_base,wchar_t>
FUNC 1fd44 114 0 common_vsnprintf_s<char>
FUNC 1fea0 117 0 common_vsnprintf_s<wchar_t>
FUNC 1fffc 1cb 0 common_vsprintf<__crt_stdio_output::format_validation_base,char>
FUNC 2023c 1d2 0 common_vsprintf<__crt_stdio_output::format_validation_base,wchar_t>
FUNC 20484 1e7 0 common_vsprintf<__crt_stdio_output::positional_parameter_base,char>
FUNC 206e4 1ee 0 common_vsprintf<__crt_stdio_output::positional_parameter_base,wchar_t>
FUNC 20950 1cb 0 common_vsprintf<__crt_stdio_output::standard_base,char>
FUNC 20b90 1d2 0 common_vsprintf<__crt_stdio_output::standard_base,wchar_t>
FUNC 20dd8 63 0 common_vsprintf_s<char>
FUNC 20e54 6e 0 common_vsprintf_s<wchar_t>
FUNC 20ee0 1b 0 __crt_stdio_output::formatting_buffer::count<char>()
FUNC 20f04 1c 0 __crt_stdio_output::formatting_buffer::count<wchar_t>()
FUNC 20f28 f 0 __crt_stdio_output::formatting_buffer::data<char>()
FUNC 20f3c f 0 __crt_stdio_output::formatting_buffer::data<wchar_t>()
FUNC 20f50 a6 0 __crt_stdio_output::formatting_buffer::ensure_buffer_is_big_enough<char>(unsigned __int64)
FUNC 21020 a9 0 __crt_stdio_output::formatting_buffer::ensure_buffer_is_big_enough<wchar_t>(unsigned __int64)
FUNC 210f4 bc 0 __crt_stdio_output::positional_parameter_base<char,__crt_stdio_output::stream_output_adapter<char> >::extract_argument_from_va_list<signed char,__int64>(__int64 &)
FUNC 211e0 bc 0 __crt_stdio_output::positional_parameter_base<char,__crt_stdio_output::string_output_adapter<char> >::extract_argument_from_va_list<signed char,__int64>(__int64 &)
FUNC 212cc be 0 __crt_stdio_output::positional_parameter_base<wchar_t,__crt_stdio_output::stream_output_adapter<wchar_t> >::extract_argument_from_va_list<signed char,__int64>(__int64 &)
FUNC 213bc be 0 __crt_stdio_output::positional_parameter_base<wchar_t,__crt_stdio_output::string_output_adapter<wchar_t> >::extract_argument_from_va_list<signed char,__int64>(__int64 &)
FUNC 214ac 14 0 __crt_stdio_output::standard_base<char,__crt_stdio_output::stream_output_adapter<char> >::extract_argument_from_va_list<signed char,__int64>(__int64 &)
FUNC 214c8 14 0 __crt_stdio_output::standard_base<char,__crt_stdio_output::string_output_adapter<char> >::extract_argument_from_va_list<signed char,__int64>(__int64 &)
FUNC 214e4 14 0 __crt_stdio_output::standard_base<wchar_t,__crt_stdio_output::stream_output_adapter<wchar_t> >::extract_argument_from_va_list<signed char,__int64>(__int64 &)
FUNC 21500 14 0 __crt_stdio_output::standard_base<wchar_t,__crt_stdio_output::string_output_adapter<wchar_t> >::extract_argument_from_va_list<signed char,__int64>(__int64 &)
FUNC 2151c bb 0 __crt_stdio_output::positional_parameter_base<char,__crt_stdio_output::stream_output_adapter<char> >::extract_argument_from_va_list<unsigned char,__int64>(__int64 &)
FUNC 21608 bb 0 __crt_stdio_output::positional_parameter_base<char,__crt_stdio_output::string_output_adapter<char> >::extract_argument_from_va_list<unsigned char,__int64>(__int64 &)
FUNC 216f4 bd 0 __crt_stdio_output::positional_parameter_base<wchar_t,__crt_stdio_output::stream_output_adapter<wchar_t> >::extract_argument_from_va_list<unsigned char,__int64>(__int64 &)
FUNC 217e0 bd 0 __crt_stdio_output::positional_parameter_base<wchar_t,__crt_stdio_output::string_output_adapter<wchar_t> >::extract_argument_from_va_list<unsigned char,__int64>(__int64 &)
FUNC 218cc 13 0 __crt_stdio_output::standard_base<char,__crt_stdio_output::stream_output_adapter<char> >::extract_argument_from_va_list<unsigned char,__int64>(__int64 &)
FUNC 218e4 13 0 __crt_stdio_output::standard_base<char,__crt_stdio_output::string_output_adapter<char> >::extract_argument_from_va_list<unsigned char,__int64>(__int64 &)
FUNC 218fc 13 0 __crt_stdio_output::standard_base<wchar_t,__crt_stdio_output::stream_output_adapter<wchar_t> >::extract_argument_from_va_list<unsigned char,__int64>(__int64 &)
FUNC 21914 13 0 __crt_stdio_output::standard_base<wchar_t,__crt_stdio_output::string_output_adapter<wchar_t> >::extract_argument_from_va_list<unsigned char,__int64>(__int64 &)
FUNC 2192c bc 0 __crt_stdio_output::positional_parameter_base<char,__crt_stdio_output::stream_output_adapter<char> >::extract_argument_from_va_list<short,__int64>(__int64 &)
FUNC 21a18 bc 0 __crt_stdio_output::positional_parameter_base<char,__crt_stdio_output::string_output_adapter<char> >::extract_argument_from_va_list<short,__int64>(__int64 &)
FUNC 21b04 be 0 __crt_stdio_output::positional_parameter_base<wchar_t,__crt_stdio_output::stream_output_adapter<wchar_t> >::extract_argument_from_va_list<short,__int64>(__int64 &)
FUNC 21bf4 be 0 __crt_stdio_output::positional_parameter_base<wchar_t,__crt_stdio_output::string_output_adapter<wchar_t> >::extract_argument_from_va_list<short,__int64>(__int64 &)
FUNC 21ce4 14 0 __crt_stdio_output::standard_base<char,__crt_stdio_output::stream_output_adapter<char> >::extract_argument_from_va_list<short,__int64>(__int64 &)
FUNC 21d00 14 0 __crt_stdio_output::standard_base<char,__crt_stdio_output::string_output_adapter<char> >::extract_argument_from_va_list<short,__int64>(__int64 &)
FUNC 21d1c 14 0 __crt_stdio_output::standard_base<wchar_t,__crt_stdio_output::stream_output_adapter<wchar_t> >::extract_argument_from_va_list<short,__int64>(__int64 &)
FUNC 21d38 14 0 __crt_stdio_output::standard_base<wchar_t,__crt_stdio_output::string_output_adapter<wchar_t> >::extract_argument_from_va_list<short,__int64>(__int64 &)
FUNC 21d54 b8 0 __crt_stdio_output::positional_parameter_base<char,__crt_stdio_output::stream_output_adapter<char> >::extract_argument_from_va_list<unsigned short,char>(char &)
FUNC 21e3c b8 0 __crt_stdio_output::positional_parameter_base<char,__crt_stdio_output::string_output_adapter<char> >::extract_argument_from_va_list<unsigned short,char>(char &)
FUNC 21f24 11 0 __crt_stdio_output::standard_base<char,__crt_stdio_output::stream_output_adapter<char> >::extract_argument_from_va_list<unsigned short,char>(char &)
FUNC 21f3c 11 0 __crt_stdio_output::standard_base<char,__crt_stdio_output::string_output_adapter<char> >::extract_argument_from_va_list<unsigned short,char>(char &)
FUNC 21f54 bb 0 __crt_stdio_output::positional_parameter_base<char,__crt_stdio_output::stream_output_adapter<char> >::extract_argument_from_va_list<unsigned short,__int64>(__int64 &)
FUNC 22040 bb 0 __crt_stdio_output::positional_parameter_base<char,__crt_stdio_output::string_output_adapter<char> >::extract_argument_from_va_list<unsigned short,__int64>(__int64 &)
FUNC 2212c bd 0 __crt_stdio_output::positional_parameter_base<wchar_t,__crt_stdio_output::stream_output_adapter<wchar_t> >::extract_argument_from_va_list<unsigned short,__int64>(__int64 &)
FUNC 22218 bd 0 __crt_stdio_output::positional_parameter_base<wchar_t,__crt_stdio_output::string_output_adapter<wchar_t> >::extract_argument_from_va_list<unsigned short,__int64>(__int64 &)
FUNC 22304 13 0 __crt_stdio_output::standard_base<char,__crt_stdio_output::stream_output_adapter<char> >::extract_argument_from_va_list<unsigned short,__int64>(__int64 &)
FUNC 2231c 13 0 __crt_stdio_output::standard_base<char,__crt_stdio_output::string_output_adapter<char> >::extract_argument_from_va_list<unsigned short,__int64>(__int64 &)
FUNC 22334 13 0 __crt_stdio_output::standard_base<wchar_t,__crt_stdio_output::stream_output_adapter<wchar_t> >::extract_argument_from_va_list<unsigned short,__int64>(__int64 &)
FUNC 2234c 13 0 __crt_stdio_output::standard_base<wchar_t,__crt_stdio_output::string_output_adapter<wchar_t> >::extract_argument_from_va_list<unsigned short,__int64>(__int64 &)
FUNC 22364 ba 0 __crt_stdio_output::positional_parameter_base<char,__crt_stdio_output::stream_output_adapter<char> >::extract_argument_from_va_list<int,__int64>(__int64 &)
FUNC 2244c ba 0 __crt_stdio_output::positional_parameter_base<char,__crt_stdio_output::string_output_adapter<char> >::extract_argument_from_va_list<int,__int64>(__int64 &)
FUNC 22534 bc 0 __crt_stdio_output::positional_parameter_base<wchar_t,__crt_stdio_output::stream_output_adapter<wchar_t> >::extract_argument_from_va_list<int,__int64>(__int64 &)
FUNC 22620 bc 0 __crt_stdio_output::positional_parameter_base<wchar_t,__crt_stdio_output::string_output_adapter<wchar_t> >::extract_argument_from_va_list<int,__int64>(__int64 &)
FUNC 2270c 13 0 __crt_stdio_output::standard_base<char,__crt_stdio_output::stream_output_adapter<char> >::extract_argument_from_va_list<int,__int64>(__int64 &)
FUNC 22724 13 0 __crt_stdio_output::standard_base<char,__crt_stdio_output::string_output_adapter<char> >::extract_argument_from_va_list<int,__int64>(__int64 &)
FUNC 2273c 13 0 __crt_stdio_output::standard_base<wchar_t,__crt_stdio_output::stream_output_adapter<wchar_t> >::extract_argument_from_va_list<int,__int64>(__int64 &)
FUNC 22754 13 0 __crt_stdio_output::standard_base<wchar_t,__crt_stdio_output::string_output_adapter<wchar_t> >::extract_argument_from_va_list<int,__int64>(__int64 &)
FUNC 2276c b9 0 __crt_stdio_output::positional_parameter_base<char,__crt_stdio_output::stream_output_adapter<char> >::extract_argument_from_va_list<unsigned int,__int64>(__int64 &)
FUNC 22854 b9 0 __crt_stdio_output::positional_parameter_base<char,__crt_stdio_output::string_output_adapter<char> >::extract_argument_from_va_list<unsigned int,__int64>(__int64 &)
FUNC 2293c bb 0 __crt_stdio_output::positional_parameter_base<wchar_t,__crt_stdio_output::stream_output_adapter<wchar_t> >::extract_argument_from_va_list<unsigned int,__int64>(__int64 &)
FUNC 22a28 bb 0 __crt_stdio_output::positional_parameter_base<wchar_t,__crt_stdio_output::string_output_adapter<wchar_t> >::extract_argument_from_va_list<unsigned int,__int64>(__int64 &)
FUNC 22b14 12 0 __crt_stdio_output::standard_base<char,__crt_stdio_output::stream_output_adapter<char> >::extract_argument_from_va_list<unsigned int,__int64>(__int64 &)
FUNC 22b2c 12 0 __crt_stdio_output::standard_base<char,__crt_stdio_output::string_output_adapter<char> >::extract_argument_from_va_list<unsigned int,__int64>(__int64 &)
FUNC 22b44 12 0 __crt_stdio_output::standard_base<wchar_t,__crt_stdio_output::stream_output_adapter<wchar_t> >::extract_argument_from_va_list<unsigned int,__int64>(__int64 &)
FUNC 22b5c 12 0 __crt_stdio_output::standard_base<wchar_t,__crt_stdio_output::string_output_adapter<wchar_t> >::extract_argument_from_va_list<unsigned int,__int64>(__int64 &)
FUNC 22b74 ba 0 __crt_stdio_output::positional_parameter_base<char,__crt_stdio_output::stream_output_adapter<char> >::extract_argument_from_va_list<char *,char *>
FUNC 22c5c ba 0 __crt_stdio_output::positional_parameter_base<char,__crt_stdio_output::string_output_adapter<char> >::extract_argument_from_va_list<char *,char *>
FUNC 22d44 bc 0 __crt_stdio_output::positional_parameter_base<wchar_t,__crt_stdio_output::stream_output_adapter<wchar_t> >::extract_argument_from_va_list<char *,char *>
FUNC 22e30 bc 0 __crt_stdio_output::positional_parameter_base<wchar_t,__crt_stdio_output::string_output_adapter<wchar_t> >::extract_argument_from_va_list<char *,char *>
FUNC 22f1c 13 0 __crt_stdio_output::standard_base<char,__crt_stdio_output::stream_output_adapter<char> >::extract_argument_from_va_list<char *,char *>
FUNC 22f34 13 0 __crt_stdio_output::standard_base<char,__crt_stdio_output::string_output_adapter<char> >::extract_argument_from_va_list<char *,char *>
FUNC 22f4c 13 0 __crt_stdio_output::standard_base<wchar_t,__crt_stdio_output::stream_output_adapter<wchar_t> >::extract_argument_from_va_list<char *,char *>
FUNC 22f64 13 0 __crt_stdio_output::standard_base<wchar_t,__crt_stdio_output::string_output_adapter<wchar_t> >::extract_argument_from_va_list<char *,char *>
FUNC 22f7c 13 0 __crt_stdio_output::standard_base<char,__crt_stdio_output::stream_output_adapter<char> >::extract_argument_from_va_list<`__crt_stdio_output::output_processor<char,__crt_stdio_output::stream_output_adapter<char>,__crt_stdio_output::format_validation_base<char,__crt_stdio_output::stream_output_adapter<char> > >::type_case_Z'::`2'::ansi_string *,`__crt_stdio_output::output_processor<char,__crt_stdio_output::stream_output_adapter<char>,__crt_stdio_output::format_validation_base<char,__crt_stdio_output::stream_output_adapter<char> > >::type_case_Z'::`2'::ansi_string *>
FUNC 22f94 ba 0 __crt_stdio_output::positional_parameter_base<char,__crt_stdio_output::stream_output_adapter<char> >::extract_argument_from_va_list<`__crt_stdio_output::output_processor<char,__crt_stdio_output::stream_output_adapter<char>,__crt_stdio_output::positional_parameter_base<char,__crt_stdio_output::stream_output_adapter<char> > >::type_case_Z'::`2'::ansi_string *,`__crt_stdio_output::output_processor<char,__crt_stdio_output::stream_output_adapter<char>,__crt_stdio_output::positional_parameter_base<char,__crt_stdio_output::stream_output_adapter<char> > >::type_case_Z'::`2'::ansi_string *>
FUNC 2307c 13 0 __crt_stdio_output::standard_base<char,__crt_stdio_output::stream_output_adapter<char> >::extract_argument_from_va_list<`__crt_stdio_output::output_processor<char,__crt_stdio_output::stream_output_adapter<char>,__crt_stdio_output::positional_parameter_base<char,__crt_stdio_output::stream_output_adapter<char> > >::type_case_Z'::`2'::ansi_string *,`__crt_stdio_output::output_processor<char,__crt_stdio_output::stream_output_adapter<char>,__crt_stdio_output::positional_parameter_base<char,__crt_stdio_output::stream_output_adapter<char> > >::type_case_Z'::`2'::ansi_string *>
FUNC 23094 13 0 __crt_stdio_output::standard_base<char,__crt_stdio_output::stream_output_adapter<char> >::extract_argument_from_va_list<`__crt_stdio_output::output_processor<char,__crt_stdio_output::stream_output_adapter<char>,__crt_stdio_output::standard_base<char,__crt_stdio_output::stream_output_adapter<char> > >::type_case_Z'::`2'::ansi_string *,`__crt_stdio_output::output_processor<char,__crt_stdio_output::stream_output_adapter<char>,__crt_stdio_output::standard_base<char,__crt_stdio_output::stream_output_adapter<char> > >::type_case_Z'::`2'::ansi_string *>
FUNC 230ac 13 0 __crt_stdio_output::standard_base<char,__crt_stdio_output::string_output_adapter<char> >::extract_argument_from_va_list<`__crt_stdio_output::output_processor<char,__crt_stdio_output::string_output_adapter<char>,__crt_stdio_output::format_validation_base<char,__crt_stdio_output::string_output_adapter<char> > >::type_case_Z'::`2'::ansi_string *,`__crt_stdio_output::output_processor<char,__crt_stdio_output::string_output_adapter<char>,__crt_stdio_output::format_validation_base<char,__crt_stdio_output::string_output_adapter<char> > >::type_case_Z'::`2'::ansi_string *>
FUNC 230c4 ba 0 __crt_stdio_output::positional_parameter_base<char,__crt_stdio_output::string_output_adapter<char> >::extract_argument_from_va_list<`__crt_stdio_output::output_processor<char,__crt_stdio_output::string_output_adapter<char>,__crt_stdio_output::positional_parameter_base<char,__crt_stdio_output::string_output_adapter<char> > >::type_case_Z'::`2'::ansi_string *,`__crt_stdio_output::output_processor<char,__crt_stdio_output::string_output_adapter<char>,__crt_stdio_output::positional_parameter_base<char,__crt_stdio_output::string_output_adapter<char> > >::type_case_Z'::`2'::ansi_string *>
FUNC 231ac 13 0 __crt_stdio_output::standard_base<char,__crt_stdio_output::string_output_adapter<char> >::extract_argument_from_va_list<`__crt_stdio_output::output_processor<char,__crt_stdio_output::string_output_adapter<char>,__crt_stdio_output::positional_parameter_base<char,__crt_stdio_output::string_output_adapter<char> > >::type_case_Z'::`2'::ansi_string *,`__crt_stdio_output::output_processor<char,__crt_stdio_output::string_output_adapter<char>,__crt_stdio_output::positional_parameter_base<char,__crt_stdio_output::string_output_adapter<char> > >::type_case_Z'::`2'::ansi_string *>
FUNC 231c4 13 0 __crt_stdio_output::standard_base<char,__crt_stdio_output::string_output_adapter<char> >::extract_argument_from_va_list<`__crt_stdio_output::output_processor<char,__crt_stdio_output::string_output_adapter<char>,__crt_stdio_output::standard_base<char,__crt_stdio_output::string_output_adapter<char> > >::type_case_Z'::`2'::ansi_string *,`__crt_stdio_output::output_processor<char,__crt_stdio_output::string_output_adapter<char>,__crt_stdio_output::standard_base<char,__crt_stdio_output::string_output_adapter<char> > >::type_case_Z'::`2'::ansi_string *>
FUNC 231dc 13 0 __crt_stdio_output::standard_base<wchar_t,__crt_stdio_output::stream_output_adapter<wchar_t> >::extract_argument_from_va_list<`__crt_stdio_output::output_processor<wchar_t,__crt_stdio_output::stream_output_adapter<wchar_t>,__crt_stdio_output::format_validation_base<wchar_t,__crt_stdio_output::stream_output_adapter<wchar_t> > >::type_case_Z'::`2'::ansi_string *,`__crt_stdio_output::output_processor<wchar_t,__crt_stdio_output::stream_output_adapter<wchar_t>,__crt_stdio_output::format_validation_base<wchar_t,__crt_stdio_output::stream_output_adapter<wchar_t> > >::type_case_Z'::`2'::ansi_string *>
FUNC 231f4 bc 0 __crt_stdio_output::positional_parameter_base<wchar_t,__crt_stdio_output::stream_output_adapter<wchar_t> >::extract_argument_from_va_list<`__crt_stdio_output::output_processor<wchar_t,__crt_stdio_output::stream_output_adapter<wchar_t>,__crt_stdio_output::positional_parameter_base<wchar_t,__crt_stdio_output::stream_output_adapter<wchar_t> > >::type_case_Z'::`2'::ansi_string *,`__crt_stdio_output::output_processor<wchar_t,__crt_stdio_output::stream_output_adapter<wchar_t>,__crt_stdio_output::positional_parameter_base<wchar_t,__crt_stdio_output::stream_output_adapter<wchar_t> > >::type_case_Z'::`2'::ansi_string *>
FUNC 232e0 13 0 __crt_stdio_output::standard_base<wchar_t,__crt_stdio_output::stream_output_adapter<wchar_t> >::extract_argument_from_va_list<`__crt_stdio_output::output_processor<wchar_t,__crt_stdio_output::stream_output_adapter<wchar_t>,__crt_stdio_output::positional_parameter_base<wchar_t,__crt_stdio_output::stream_output_adapter<wchar_t> > >::type_case_Z'::`2'::ansi_string *,`__crt_stdio_output::output_processor<wchar_t,__crt_stdio_output::stream_output_adapter<wchar_t>,__crt_stdio_output::positional_parameter_base<wchar_t,__crt_stdio_output::stream_output_adapter<wchar_t> > >::type_case_Z'::`2'::ansi_string *>
FUNC 232f8 13 0 __crt_stdio_output::standard_base<wchar_t,__crt_stdio_output::stream_output_adapter<wchar_t> >::extract_argument_from_va_list<`__crt_stdio_output::output_processor<wchar_t,__crt_stdio_output::stream_output_adapter<wchar_t>,__crt_stdio_output::standard_base<wchar_t,__crt_stdio_output::stream_output_adapter<wchar_t> > >::type_case_Z'::`2'::ansi_string *,`__crt_stdio_output::output_processor<wchar_t,__crt_stdio_output::stream_output_adapter<wchar_t>,__crt_stdio_output::standard_base<wchar_t,__crt_stdio_output::stream_output_adapter<wchar_t> > >::type_case_Z'::`2'::ansi_string *>
FUNC 23310 13 0 __crt_stdio_output::standard_base<wchar_t,__crt_stdio_output::string_output_adapter<wchar_t> >::extract_argument_from_va_list<`__crt_stdio_output::output_processor<wchar_t,__crt_stdio_output::string_output_adapter<wchar_t>,__crt_stdio_output::format_validation_base<wchar_t,__crt_stdio_output::string_output_adapter<wchar_t> > >::type_case_Z'::`2'::ansi_string *,`__crt_stdio_output::output_processor<wchar_t,__crt_stdio_output::string_output_adapter<wchar_t>,__crt_stdio_output::format_validation_base<wchar_t,__crt_stdio_output::string_output_adapter<wchar_t> > >::type_case_Z'::`2'::ansi_string *>
FUNC 23328 bc 0 __crt_stdio_output::positional_parameter_base<wchar_t,__crt_stdio_output::string_output_adapter<wchar_t> >::extract_argument_from_va_list<`__crt_stdio_output::output_processor<wchar_t,__crt_stdio_output::string_output_adapter<wchar_t>,__crt_stdio_output::positional_parameter_base<wchar_t,__crt_stdio_output::string_output_adapter<wchar_t> > >::type_case_Z'::`2'::ansi_string *,`__crt_stdio_output::output_processor<wchar_t,__crt_stdio_output::string_output_adapter<wchar_t>,__crt_stdio_output::positional_parameter_base<wchar_t,__crt_stdio_output::string_output_adapter<wchar_t> > >::type_case_Z'::`2'::ansi_string *>
FUNC 23414 13 0 __crt_stdio_output::standard_base<wchar_t,__crt_stdio_output::string_output_adapter<wchar_t> >::extract_argument_from_va_list<`__crt_stdio_output::output_processor<wchar_t,__crt_stdio_output::string_output_adapter<wchar_t>,__crt_stdio_output::positional_parameter_base<wchar_t,__crt_stdio_output::string_output_adapter<wchar_t> > >::type_case_Z'::`2'::ansi_string *,`__crt_stdio_output::output_processor<wchar_t,__crt_stdio_output::string_output_adapter<wchar_t>,__crt_stdio_output::positional_parameter_base<wchar_t,__crt_stdio_output::string_output_adapter<wchar_t> > >::type_case_Z'::`2'::ansi_string *>
FUNC 2342c 13 0 __crt_stdio_output::standard_base<wchar_t,__crt_stdio_output::string_output_adapter<wchar_t> >::extract_argument_from_va_list<`__crt_stdio_output::output_processor<wchar_t,__crt_stdio_output::string_output_adapter<wchar_t>,__crt_stdio_output::standard_base<wchar_t,__crt_stdio_output::string_output_adapter<wchar_t> > >::type_case_Z'::`2'::ansi_string *,`__crt_stdio_output::output_processor<wchar_t,__crt_stdio_output::string_output_adapter<wchar_t>,__crt_stdio_output::standard_base<wchar_t,__crt_stdio_output::string_output_adapter<wchar_t> > >::type_case_Z'::`2'::ansi_string *>
FUNC 23444 ba 0 __crt_stdio_output::positional_parameter_base<char,__crt_stdio_output::stream_output_adapter<char> >::extract_argument_from_va_list<void *,void *>
FUNC 2352c ba 0 __crt_stdio_output::positional_parameter_base<char,__crt_stdio_output::string_output_adapter<char> >::extract_argument_from_va_list<void *,void *>
FUNC 23614 bc 0 __crt_stdio_output::positional_parameter_base<wchar_t,__crt_stdio_output::stream_output_adapter<wchar_t> >::extract_argument_from_va_list<void *,void *>
FUNC 23700 bc 0 __crt_stdio_output::positional_parameter_base<wchar_t,__crt_stdio_output::string_output_adapter<wchar_t> >::extract_argument_from_va_list<void *,void *>
FUNC 237ec 13 0 __crt_stdio_output::standard_base<char,__crt_stdio_output::stream_output_adapter<char> >::extract_argument_from_va_list<void *,void *>
FUNC 23804 13 0 __crt_stdio_output::standard_base<char,__crt_stdio_output::string_output_adapter<char> >::extract_argument_from_va_list<void *,void *>
FUNC 2381c 13 0 __crt_stdio_output::standard_base<wchar_t,__crt_stdio_output::stream_output_adapter<wchar_t> >::extract_argument_from_va_list<void *,void *>
FUNC 23834 13 0 __crt_stdio_output::standard_base<wchar_t,__crt_stdio_output::string_output_adapter<wchar_t> >::extract_argument_from_va_list<void *,void *>
FUNC 2384c ba 0 __crt_stdio_output::positional_parameter_base<char,__crt_stdio_output::stream_output_adapter<char> >::extract_argument_from_va_list<_CRT_DOUBLE,_CRT_DOUBLE>(_CRT_DOUBLE &)
FUNC 23934 ba 0 __crt_stdio_output::positional_parameter_base<char,__crt_stdio_output::string_output_adapter<char> >::extract_argument_from_va_list<_CRT_DOUBLE,_CRT_DOUBLE>(_CRT_DOUBLE &)
FUNC 23a1c bc 0 __crt_stdio_output::positional_parameter_base<wchar_t,__crt_stdio_output::stream_output_adapter<wchar_t> >::extract_argument_from_va_list<_CRT_DOUBLE,_CRT_DOUBLE>(_CRT_DOUBLE &)
FUNC 23b08 bc 0 __crt_stdio_output::positional_parameter_base<wchar_t,__crt_stdio_output::string_output_adapter<wchar_t> >::extract_argument_from_va_list<_CRT_DOUBLE,_CRT_DOUBLE>(_CRT_DOUBLE &)
FUNC 23bf4 15 0 __crt_stdio_output::standard_base<char,__crt_stdio_output::stream_output_adapter<char> >::extract_argument_from_va_list<_CRT_DOUBLE,_CRT_DOUBLE>(_CRT_DOUBLE &)
FUNC 23c10 15 0 __crt_stdio_output::standard_base<char,__crt_stdio_output::string_output_adapter<char> >::extract_argument_from_va_list<_CRT_DOUBLE,_CRT_DOUBLE>(_CRT_DOUBLE &)
FUNC 23c2c 15 0 __crt_stdio_output::standard_base<wchar_t,__crt_stdio_output::stream_output_adapter<wchar_t> >::extract_argument_from_va_list<_CRT_DOUBLE,_CRT_DOUBLE>(_CRT_DOUBLE &)
FUNC 23c48 15 0 __crt_stdio_output::standard_base<wchar_t,__crt_stdio_output::string_output_adapter<wchar_t> >::extract_argument_from_va_list<_CRT_DOUBLE,_CRT_DOUBLE>(_CRT_DOUBLE &)
FUNC 23c64 ba 0 __crt_stdio_output::positional_parameter_base<char,__crt_stdio_output::stream_output_adapter<char> >::extract_argument_from_va_list<__int64,__int64>(__int64 &)
FUNC 23d4c ba 0 __crt_stdio_output::positional_parameter_base<char,__crt_stdio_output::string_output_adapter<char> >::extract_argument_from_va_list<__int64,__int64>(__int64 &)
FUNC 23e34 bc 0 __crt_stdio_output::positional_parameter_base<wchar_t,__crt_stdio_output::stream_output_adapter<wchar_t> >::extract_argument_from_va_list<__int64,__int64>(__int64 &)
FUNC 23f20 bc 0 __crt_stdio_output::positional_parameter_base<wchar_t,__crt_stdio_output::string_output_adapter<wchar_t> >::extract_argument_from_va_list<__int64,__int64>(__int64 &)
FUNC 2400c 13 0 __crt_stdio_output::standard_base<char,__crt_stdio_output::stream_output_adapter<char> >::extract_argument_from_va_list<__int64,__int64>(__int64 &)
FUNC 24024 13 0 __crt_stdio_output::standard_base<char,__crt_stdio_output::string_output_adapter<char> >::extract_argument_from_va_list<__int64,__int64>(__int64 &)
FUNC 2403c 13 0 __crt_stdio_output::standard_base<wchar_t,__crt_stdio_output::stream_output_adapter<wchar_t> >::extract_argument_from_va_list<__int64,__int64>(__int64 &)
FUNC 24054 13 0 __crt_stdio_output::standard_base<wchar_t,__crt_stdio_output::string_output_adapter<wchar_t> >::extract_argument_from_va_list<__int64,__int64>(__int64 &)
FUNC 2406c ba 0 __crt_stdio_output::positional_parameter_base<char,__crt_stdio_output::stream_output_adapter<char> >::extract_argument_from_va_list<unsigned __int64,__int64>(__int64 &)
FUNC 24154 ba 0 __crt_stdio_output::positional_parameter_base<char,__crt_stdio_output::string_output_adapter<char> >::extract_argument_from_va_list<unsigned __int64,__int64>(__int64 &)
FUNC 2423c bc 0 __crt_stdio_output::positional_parameter_base<wchar_t,__crt_stdio_output::stream_output_adapter<wchar_t> >::extract_argument_from_va_list<unsigned __int64,__int64>(__int64 &)
FUNC 24328 bc 0 __crt_stdio_output::positional_parameter_base<wchar_t,__crt_stdio_output::string_output_adapter<wchar_t> >::extract_argument_from_va_list<unsigned __int64,__int64>(__int64 &)
FUNC 24414 13 0 __crt_stdio_output::standard_base<char,__crt_stdio_output::stream_output_adapter<char> >::extract_argument_from_va_list<unsigned __int64,__int64>(__int64 &)
FUNC 2442c 13 0 __crt_stdio_output::standard_base<char,__crt_stdio_output::string_output_adapter<char> >::extract_argument_from_va_list<unsigned __int64,__int64>(__int64 &)
FUNC 24444 13 0 __crt_stdio_output::standard_base<wchar_t,__crt_stdio_output::stream_output_adapter<wchar_t> >::extract_argument_from_va_list<unsigned __int64,__int64>(__int64 &)
FUNC 2445c 13 0 __crt_stdio_output::standard_base<wchar_t,__crt_stdio_output::string_output_adapter<wchar_t> >::extract_argument_from_va_list<unsigned __int64,__int64>(__int64 &)
FUNC 24474 bc 0 __crt_stdio_output::positional_parameter_base<char,__crt_stdio_output::stream_output_adapter<char> >::extract_argument_from_va_list<wchar_t,wchar_t>(wchar_t &)
FUNC 24560 bc 0 __crt_stdio_output::positional_parameter_base<char,__crt_stdio_output::string_output_adapter<char> >::extract_argument_from_va_list<wchar_t,wchar_t>(wchar_t &)
FUNC 2464c be 0 __crt_stdio_output::positional_parameter_base<wchar_t,__crt_stdio_output::stream_output_adapter<wchar_t> >::extract_argument_from_va_list<wchar_t,wchar_t>(wchar_t &)
FUNC 2473c be 0 __crt_stdio_output::positional_parameter_base<wchar_t,__crt_stdio_output::string_output_adapter<wchar_t> >::extract_argument_from_va_list<wchar_t,wchar_t>(wchar_t &)
FUNC 2482c 13 0 __crt_stdio_output::standard_base<char,__crt_stdio_output::stream_output_adapter<char> >::extract_argument_from_va_list<wchar_t,wchar_t>(wchar_t &)
FUNC 24844 13 0 __crt_stdio_output::standard_base<char,__crt_stdio_output::string_output_adapter<char> >::extract_argument_from_va_list<wchar_t,wchar_t>(wchar_t &)
FUNC 2485c 13 0 __crt_stdio_output::standard_base<wchar_t,__crt_stdio_output::stream_output_adapter<wchar_t> >::extract_argument_from_va_list<wchar_t,wchar_t>(wchar_t &)
FUNC 24874 13 0 __crt_stdio_output::standard_base<wchar_t,__crt_stdio_output::string_output_adapter<wchar_t> >::extract_argument_from_va_list<wchar_t,wchar_t>(wchar_t &)
FUNC 2488c 6 0 __crt_stdio_output::positional_parameter_base<char,__crt_stdio_output::stream_output_adapter<char> >::get_parameter_type<char>(char *)
FUNC 24894 6 0 __crt_stdio_output::positional_parameter_base<char,__crt_stdio_output::string_output_adapter<char> >::get_parameter_type<char>(char *)
FUNC 2489c 6 0 __crt_stdio_output::positional_parameter_base<wchar_t,__crt_stdio_output::stream_output_adapter<wchar_t> >::get_parameter_type<char>(char *)
FUNC 248a4 6 0 __crt_stdio_output::positional_parameter_base<wchar_t,__crt_stdio_output::string_output_adapter<wchar_t> >::get_parameter_type<char>(char *)
FUNC 248ac 6 0 __crt_stdio_output::positional_parameter_base<char,__crt_stdio_output::stream_output_adapter<char> >::get_parameter_type<`__crt_stdio_output::output_processor<char,__crt_stdio_output::stream_output_adapter<char>,__crt_stdio_output::positional_parameter_base<char,__crt_stdio_output::stream_output_adapter<char> > >::type_case_Z'::`2'::ansi_string>
FUNC 248b4 6 0 __crt_stdio_output::positional_parameter_base<char,__crt_stdio_output::string_output_adapter<char> >::get_parameter_type<`__crt_stdio_output::output_processor<char,__crt_stdio_output::string_output_adapter<char>,__crt_stdio_output::positional_parameter_base<char,__crt_stdio_output::string_output_adapter<char> > >::type_case_Z'::`2'::ansi_string>
FUNC 248bc 6 0 __crt_stdio_output::positional_parameter_base<wchar_t,__crt_stdio_output::stream_output_adapter<wchar_t> >::get_parameter_type<`__crt_stdio_output::output_processor<wchar_t,__crt_stdio_output::stream_output_adapter<wchar_t>,__crt_stdio_output::positional_parameter_base<wchar_t,__crt_stdio_output::stream_output_adapter<wchar_t> > >::type_case_Z'::`2'::ansi_string>
FUNC 248c4 6 0 __crt_stdio_output::positional_parameter_base<wchar_t,__crt_stdio_output::string_output_adapter<wchar_t> >::get_parameter_type<`__crt_stdio_output::output_processor<wchar_t,__crt_stdio_output::string_output_adapter<wchar_t>,__crt_stdio_output::positional_parameter_base<wchar_t,__crt_stdio_output::string_output_adapter<wchar_t> > >::type_case_Z'::`2'::ansi_string>
FUNC 248cc 6 0 __crt_stdio_output::positional_parameter_base<char,__crt_stdio_output::stream_output_adapter<char> >::get_parameter_type<void>(void *)
FUNC 248d4 6 0 __crt_stdio_output::positional_parameter_base<char,__crt_stdio_output::string_output_adapter<char> >::get_parameter_type<void>(void *)
FUNC 248dc 6 0 __crt_stdio_output::positional_parameter_base<wchar_t,__crt_stdio_output::stream_output_adapter<wchar_t> >::get_parameter_type<void>(void *)
FUNC 248e4 6 0 __crt_stdio_output::positional_parameter_base<wchar_t,__crt_stdio_output::string_output_adapter<wchar_t> >::get_parameter_type<void>(void *)
FUNC 248ec a 0 __crt_stdio_output::positional_parameter_base<char,__crt_stdio_output::stream_output_adapter<char> >::is_character_specifier<char>(char)
FUNC 248f8 a 0 __crt_stdio_output::positional_parameter_base<char,__crt_stdio_output::string_output_adapter<char> >::is_character_specifier<char>(char)
FUNC 24904 10 0 __crt_stdio_output::positional_parameter_base<wchar_t,__crt_stdio_output::stream_output_adapter<wchar_t> >::is_character_specifier<wchar_t>(wchar_t)
FUNC 24918 10 0 __crt_stdio_output::positional_parameter_base<wchar_t,__crt_stdio_output::string_output_adapter<wchar_t> >::is_character_specifier<wchar_t>(wchar_t)
FUNC 2492c 26 0 __crt_stdio_output::positional_parameter_base<char,__crt_stdio_output::stream_output_adapter<char> >::is_integral_specifier<char>(char)
FUNC 2495c 26 0 __crt_stdio_output::positional_parameter_base<char,__crt_stdio_output::string_output_adapter<char> >::is_integral_specifier<char>(char)
FUNC 2498c 28 0 __crt_stdio_output::positional_parameter_base<wchar_t,__crt_stdio_output::stream_output_adapter<wchar_t> >::is_integral_specifier<wchar_t>(wchar_t)
FUNC 249c0 28 0 __crt_stdio_output::positional_parameter_base<wchar_t,__crt_stdio_output::string_output_adapter<wchar_t> >::is_integral_specifier<wchar_t>(wchar_t)
FUNC 249f4 7 0 __crt_stdio_output::positional_parameter_base<char,__crt_stdio_output::stream_output_adapter<char> >::is_pointer_specifier<char>(char)
FUNC 249fc 7 0 __crt_stdio_output::positional_parameter_base<char,__crt_stdio_output::string_output_adapter<char> >::is_pointer_specifier<char>(char)
FUNC 24a04 8 0 __crt_stdio_output::positional_parameter_base<wchar_t,__crt_stdio_output::stream_output_adapter<wchar_t> >::is_pointer_specifier<wchar_t>(wchar_t)
FUNC 24a10 8 0 __crt_stdio_output::positional_parameter_base<wchar_t,__crt_stdio_output::string_output_adapter<wchar_t> >::is_pointer_specifier<wchar_t>(wchar_t)
FUNC 24a1c a 0 __crt_stdio_output::positional_parameter_base<char,__crt_stdio_output::stream_output_adapter<char> >::is_string_specifier<char>(char)
FUNC 24a28 a 0 __crt_stdio_output::positional_parameter_base<char,__crt_stdio_output::string_output_adapter<char> >::is_string_specifier<char>(char)
FUNC 24a34 10 0 __crt_stdio_output::positional_parameter_base<wchar_t,__crt_stdio_output::stream_output_adapter<wchar_t> >::is_string_specifier<wchar_t>(wchar_t)
FUNC 24a48 10 0 __crt_stdio_output::positional_parameter_base<wchar_t,__crt_stdio_output::string_output_adapter<wchar_t> >::is_string_specifier<wchar_t>(wchar_t)
FUNC 24a5c 28 0 __crt_stdio_output::is_wide_character_specifier<char>(unsigned __int64,char,__crt_stdio_output::length_modifier)
FUNC 24a90 3e 0 __crt_stdio_output::is_wide_character_specifier<wchar_t>(unsigned __int64,wchar_t,__crt_stdio_output::length_modifier)
FUNC 24ae0 3 0 __crt_stdio_output::peek_va_arg<signed char>(char *)
FUNC 24ae4 3 0 __crt_stdio_output::peek_va_arg<unsigned char>(char *)
FUNC 24ae8 4 0 __crt_stdio_output::peek_va_arg<short>(char *)
FUNC 24aec 4 0 __crt_stdio_output::peek_va_arg<unsigned short>(char *)
FUNC 24af0 3 0 __crt_stdio_output::peek_va_arg<int>(char *)
FUNC 24af4 3 0 __crt_stdio_output::peek_va_arg<unsigned int>(char *)
FUNC 24af8 4 0 __crt_stdio_output::peek_va_arg<char *>
FUNC 24afc 4 0 __crt_stdio_output::peek_va_arg<`__crt_stdio_output::output_processor<char,__crt_stdio_output::stream_output_adapter<char>,__crt_stdio_output::positional_parameter_base<char,__crt_stdio_output::stream_output_adapter<char> > >::type_case_Z'::`2'::ansi_string *>
FUNC 24b00 4 0 __crt_stdio_output::peek_va_arg<`__crt_stdio_output::output_processor<char,__crt_stdio_output::string_output_adapter<char>,__crt_stdio_output::positional_parameter_base<char,__crt_stdio_output::string_output_adapter<char> > >::type_case_Z'::`2'::ansi_string *>
FUNC 24b04 4 0 __crt_stdio_output::peek_va_arg<`__crt_stdio_output::output_processor<wchar_t,__crt_stdio_output::stream_output_adapter<wchar_t>,__crt_stdio_output::positional_parameter_base<wchar_t,__crt_stdio_output::stream_output_adapter<wchar_t> > >::type_case_Z'::`2'::ansi_string *>
FUNC 24b08 4 0 __crt_stdio_output::peek_va_arg<`__crt_stdio_output::output_processor<wchar_t,__crt_stdio_output::string_output_adapter<wchar_t>,__crt_stdio_output::positional_parameter_base<wchar_t,__crt_stdio_output::string_output_adapter<wchar_t> > >::type_case_Z'::`2'::ansi_string *>
FUNC 24b0c 4 0 __crt_stdio_output::peek_va_arg<void *>
FUNC 24b10 4 0 __crt_stdio_output::peek_va_arg<_CRT_DOUBLE>(char *)
FUNC 24b14 4 0 __crt_stdio_output::peek_va_arg<__int64>(char *)
FUNC 24b18 4 0 __crt_stdio_output::peek_va_arg<unsigned __int64>(char *)
FUNC 24b1c 4 0 __crt_stdio_output::peek_va_arg<wchar_t>(char *)
FUNC 24b20 b 0 __crt_char_traits<char>::puttc_nolock<char const &,_iobuf *>
FUNC 24b30 b 0 __crt_char_traits<wchar_t>::puttc_nolock<wchar_t const &,_iobuf *>
FUNC 24b40 b 0 __crt_stdio_output::read_va_arg<signed char>(char * &)
FUNC 24b50 b 0 __crt_stdio_output::read_va_arg<unsigned char>(char * &)
FUNC 24b60 c 0 __crt_stdio_output::read_va_arg<short>(char * &)
FUNC 24b70 c 0 __crt_stdio_output::read_va_arg<unsigned short>(char * &)
FUNC 24b80 b 0 __crt_stdio_output::read_va_arg<int>(char * &)
FUNC 24b90 b 0 __crt_stdio_output::read_va_arg<unsigned int>(char * &)
FUNC 24ba0 c 0 __crt_stdio_output::read_va_arg<char *>
FUNC 24bb0 c 0 __crt_stdio_output::read_va_arg<`__crt_stdio_output::output_processor<char,__crt_stdio_output::stream_output_adapter<char>,__crt_stdio_output::format_validation_base<char,__crt_stdio_output::stream_output_adapter<char> > >::type_case_Z'::`2'::ansi_string *>
FUNC 24bc0 c 0 __crt_stdio_output::read_va_arg<`__crt_stdio_output::output_processor<char,__crt_stdio_output::stream_output_adapter<char>,__crt_stdio_output::positional_parameter_base<char,__crt_stdio_output::stream_output_adapter<char> > >::type_case_Z'::`2'::ansi_string *>
FUNC 24bd0 c 0 __crt_stdio_output::read_va_arg<`__crt_stdio_output::output_processor<char,__crt_stdio_output::stream_output_adapter<char>,__crt_stdio_output::standard_base<char,__crt_stdio_output::stream_output_adapter<char> > >::type_case_Z'::`2'::ansi_string *>
FUNC 24be0 c 0 __crt_stdio_output::read_va_arg<`__crt_stdio_output::output_processor<char,__crt_stdio_output::string_output_adapter<char>,__crt_stdio_output::format_validation_base<char,__crt_stdio_output::string_output_adapter<char> > >::type_case_Z'::`2'::ansi_string *>
FUNC 24bf0 c 0 __crt_stdio_output::read_va_arg<`__crt_stdio_output::output_processor<char,__crt_stdio_output::string_output_adapter<char>,__crt_stdio_output::positional_parameter_base<char,__crt_stdio_output::string_output_adapter<char> > >::type_case_Z'::`2'::ansi_string *>
FUNC 24c00 c 0 __crt_stdio_output::read_va_arg<`__crt_stdio_output::output_processor<char,__crt_stdio_output::string_output_adapter<char>,__crt_stdio_output::standard_base<char,__crt_stdio_output::string_output_adapter<char> > >::type_case_Z'::`2'::ansi_string *>
FUNC 24c10 c 0 __crt_stdio_output::read_va_arg<`__crt_stdio_output::output_processor<wchar_t,__crt_stdio_output::stream_output_adapter<wchar_t>,__crt_stdio_output::format_validation_base<wchar_t,__crt_stdio_output::stream_output_adapter<wchar_t> > >::type_case_Z'::`2'::ansi_string *>
FUNC 24c20 c 0 __crt_stdio_output::read_va_arg<`__crt_stdio_output::output_processor<wchar_t,__crt_stdio_output::stream_output_adapter<wchar_t>,__crt_stdio_output::positional_parameter_base<wchar_t,__crt_stdio_output::stream_output_adapter<wchar_t> > >::type_case_Z'::`2'::ansi_string *>
FUNC 24c30 c 0 __crt_stdio_output::read_va_arg<`__crt_stdio_output::output_processor<wchar_t,__crt_stdio_output::stream_output_adapter<wchar_t>,__crt_stdio_output::standard_base<wchar_t,__crt_stdio_output::stream_output_adapter<wchar_t> > >::type_case_Z'::`2'::ansi_string *>
FUNC 24c40 c 0 __crt_stdio_output::read_va_arg<`__crt_stdio_output::output_processor<wchar_t,__crt_stdio_output::string_output_adapter<wchar_t>,__crt_stdio_output::format_validation_base<wchar_t,__crt_stdio_output::string_output_adapter<wchar_t> > >::type_case_Z'::`2'::ansi_string *>
FUNC 24c50 c 0 __crt_stdio_output::read_va_arg<`__crt_stdio_output::output_processor<wchar_t,__crt_stdio_output::string_output_adapter<wchar_t>,__crt_stdio_output::positional_parameter_base<wchar_t,__crt_stdio_output::string_output_adapter<wchar_t> > >::type_case_Z'::`2'::ansi_string *>
FUNC 24c60 c 0 __crt_stdio_output::read_va_arg<`__crt_stdio_output::output_processor<wchar_t,__crt_stdio_output::string_output_adapter<wchar_t>,__crt_stdio_output::standard_base<wchar_t,__crt_stdio_output::string_output_adapter<wchar_t> > >::type_case_Z'::`2'::ansi_string *>
FUNC 24c70 c 0 __crt_stdio_output::read_va_arg<void *>
FUNC 24c80 c 0 __crt_stdio_output::read_va_arg<_CRT_DOUBLE>(char * &)
FUNC 24c90 c 0 __crt_stdio_output::read_va_arg<__int64>(char * &)
FUNC 24ca0 c 0 __crt_stdio_output::read_va_arg<unsigned __int64>(char * &)
FUNC 24cb0 c 0 __crt_stdio_output::read_va_arg<wchar_t>(char * &)
FUNC 24cc0 1b 0 __crt_stdio_output::formatting_buffer::scratch_count<char>()
FUNC 24ce4 22 0 __crt_stdio_output::formatting_buffer::scratch_data<char>()
FUNC 24d10 e 0 __crt_char_traits<char>::tcstol<char const * &,char * *,int>
FUNC 24d24 e 0 __crt_char_traits<wchar_t>::tcstol<wchar_t const * &,wchar_t * *,int>
FUNC 24d38 e 0 __crt_char_traits<char>::tcstol<char const *,char * *,int>
FUNC 24d4c e 0 __crt_char_traits<wchar_t>::tcstol<wchar_t const *,wchar_t * *,int>
FUNC 24d60 87 0 __crt_stdio_output::output_processor<char,__crt_stdio_output::stream_output_adapter<char>,__crt_stdio_output::format_validation_base<char,__crt_stdio_output::stream_output_adapter<char> > >::type_case_integer_parse_into_buffer<unsigned int>(unsigned int,unsigned int,bool)
FUNC 24e08 87 0 __crt_stdio_output::output_processor<char,__crt_stdio_output::stream_output_adapter<char>,__crt_stdio_output::positional_parameter_base<char,__crt_stdio_output::stream_output_adapter<char> > >::type_case_integer_parse_into_buffer<unsigned int>(unsigned int,unsigned int,bool)
FUNC 24eb0 87 0 __crt_stdio_output::output_processor<char,__crt_stdio_output::stream_output_adapter<char>,__crt_stdio_output::standard_base<char,__crt_stdio_output::stream_output_adapter<char> > >::type_case_integer_parse_into_buffer<unsigned int>(unsigned int,unsigned int,bool)
FUNC 24f58 87 0 __crt_stdio_output::output_processor<char,__crt_stdio_output::string_output_adapter<char>,__crt_stdio_output::format_validation_base<char,__crt_stdio_output::string_output_adapter<char> > >::type_case_integer_parse_into_buffer<unsigned int>(unsigned int,unsigned int,bool)
FUNC 25000 87 0 __crt_stdio_output::output_processor<char,__crt_stdio_output::string_output_adapter<char>,__crt_stdio_output::positional_parameter_base<char,__crt_stdio_output::string_output_adapter<char> > >::type_case_integer_parse_into_buffer<unsigned int>(unsigned int,unsigned int,bool)
FUNC 250a8 87 0 __crt_stdio_output::output_processor<char,__crt_stdio_output::string_output_adapter<char>,__crt_stdio_output::standard_base<char,__crt_stdio_output::string_output_adapter<char> > >::type_case_integer_parse_into_buffer<unsigned int>(unsigned int,unsigned int,bool)
FUNC 25150 a3 0 __crt_stdio_output::output_processor<wchar_t,__crt_stdio_output::stream_output_adapter<wchar_t>,__crt_stdio_output::format_validation_base<wchar_t,__crt_stdio_output::stream_output_adapter<wchar_t> > >::type_case_integer_parse_into_buffer<unsigned int>(unsigned int,unsigned int,bool)
FUNC 2521c a3 0 __crt_stdio_output::output_processor<wchar_t,__crt_stdio_output::stream_output_adapter<wchar_t>,__crt_stdio_output::positional_parameter_base<wchar_t,__crt_stdio_output::stream_output_adapter<wchar_t> > >::type_case_integer_parse_into_buffer<unsigned int>(unsigned int,unsigned int,bool)
FUNC 252e8 a3 0 __crt_stdio_output::output_processor<wchar_t,__crt_stdio_output::stream_output_adapter<wchar_t>,__crt_stdio_output::standard_base<wchar_t,__crt_stdio_output::stream_output_adapter<wchar_t> > >::type_case_integer_parse_into_buffer<unsigned int>(unsigned int,unsigned int,bool)
FUNC 253b4 a3 0 __crt_stdio_output::output_processor<wchar_t,__crt_stdio_output::string_output_adapter<wchar_t>,__crt_stdio_output::format_validation_base<wchar_t,__crt_stdio_output::string_output_adapter<wchar_t> > >::type_case_integer_parse_into_buffer<unsigned int>(unsigned int,unsigned int,bool)
FUNC 25480 a3 0 __crt_stdio_output::output_processor<wchar_t,__crt_stdio_output::string_output_adapter<wchar_t>,__crt_stdio_output::positional_parameter_base<wchar_t,__crt_stdio_output::string_output_adapter<wchar_t> > >::type_case_integer_parse_into_buffer<unsigned int>(unsigned int,unsigned int,bool)
FUNC 2554c a3 0 __crt_stdio_output::output_processor<wchar_t,__crt_stdio_output::string_output_adapter<wchar_t>,__crt_stdio_output::standard_base<wchar_t,__crt_stdio_output::string_output_adapter<wchar_t> > >::type_case_integer_parse_into_buffer<unsigned int>(unsigned int,unsigned int,bool)
FUNC 25618 8d 0 __crt_stdio_output::output_processor<char,__crt_stdio_output::stream_output_adapter<char>,__crt_stdio_output::format_validation_base<char,__crt_stdio_output::stream_output_adapter<char> > >::type_case_integer_parse_into_buffer<unsigned __int64>(unsigned __int64,unsigned int,bool)
FUNC 256c8 8d 0 __crt_stdio_output::output_processor<char,__crt_stdio_output::stream_output_adapter<char>,__crt_stdio_output::positional_parameter_base<char,__crt_stdio_output::stream_output_adapter<char> > >::type_case_integer_parse_into_buffer<unsigned __int64>(unsigned __int64,unsigned int,bool)
FUNC 25778 8d 0 __crt_stdio_output::output_processor<char,__crt_stdio_output::stream_output_adapter<char>,__crt_stdio_output::standard_base<char,__crt_stdio_output::stream_output_adapter<char> > >::type_case_integer_parse_into_buffer<unsigned __int64>(unsigned __int64,unsigned int,bool)
FUNC 25828 8d 0 __crt_stdio_output::output_processor<char,__crt_stdio_output::string_output_adapter<char>,__crt_stdio_output::format_validation_base<char,__crt_stdio_output::string_output_adapter<char> > >::type_case_integer_parse_into_buffer<unsigned __int64>(unsigned __int64,unsigned int,bool)
FUNC 258d8 8d 0 __crt_stdio_output::output_processor<char,__crt_stdio_output::string_output_adapter<char>,__crt_stdio_output::positional_parameter_base<char,__crt_stdio_output::string_output_adapter<char> > >::type_case_integer_parse_into_buffer<unsigned __int64>(unsigned __int64,unsigned int,bool)
FUNC 25988 8d 0 __crt_stdio_output::output_processor<char,__crt_stdio_output::string_output_adapter<char>,__crt_stdio_output::standard_base<char,__crt_stdio_output::string_output_adapter<char> > >::type_case_integer_parse_into_buffer<unsigned __int64>(unsigned __int64,unsigned int,bool)
FUNC 25a38 a4 0 __crt_stdio_output::output_processor<wchar_t,__crt_stdio_output::stream_output_adapter<wchar_t>,__crt_stdio_output::format_validation_base<wchar_t,__crt_stdio_output::stream_output_adapter<wchar_t> > >::type_case_integer_parse_into_buffer<unsigned __int64>(unsigned __int64,unsigned int,bool)
FUNC 25b08 a4 0 __crt_stdio_output::output_processor<wchar_t,__crt_stdio_output::stream_output_adapter<wchar_t>,__crt_stdio_output::positional_parameter_base<wchar_t,__crt_stdio_output::stream_output_adapter<wchar_t> > >::type_case_integer_parse_into_buffer<unsigned __int64>(unsigned __int64,unsigned int,bool)
FUNC 25bd8 a4 0 __crt_stdio_output::output_processor<wchar_t,__crt_stdio_output::stream_output_adapter<wchar_t>,__crt_stdio_output::standard_base<wchar_t,__crt_stdio_output::stream_output_adapter<wchar_t> > >::type_case_integer_parse_into_buffer<unsigned __int64>(unsigned __int64,unsigned int,bool)
FUNC 25ca8 a4 0 __crt_stdio_output::output_processor<wchar_t,__crt_stdio_output::string_output_adapter<wchar_t>,__crt_stdio_output::format_validation_base<wchar_t,__crt_stdio_output::string_output_adapter<wchar_t> > >::type_case_integer_parse_into_buffer<unsigned __int64>(unsigned __int64,unsigned int,bool)
FUNC 25d78 a4 0 __crt_stdio_output::output_processor<wchar_t,__crt_stdio_output::string_output_adapter<wchar_t>,__crt_stdio_output::positional_parameter_base<wchar_t,__crt_stdio_output::string_output_adapter<wchar_t> > >::type_case_integer_parse_into_buffer<unsigned __int64>(unsigned __int64,unsigned int,bool)
FUNC 25e48 a4 0 __crt_stdio_output::output_processor<wchar_t,__crt_stdio_output::string_output_adapter<wchar_t>,__crt_stdio_output::standard_base<wchar_t,__crt_stdio_output::string_output_adapter<wchar_t> > >::type_case_integer_parse_into_buffer<unsigned __int64>(unsigned __int64,unsigned int,bool)
FUNC 25f18 8b 0 __crt_stdio_output::write_multiple_characters<__crt_stdio_output::stream_output_adapter<char>,char>(__crt_stdio_output::stream_output_adapter<char> const &,char,int,int * const)
FUNC 25fc8 91 0 __crt_stdio_output::write_multiple_characters<__crt_stdio_output::stream_output_adapter<wchar_t>,char>(__crt_stdio_output::stream_output_adapter<wchar_t> const &,char,int,int * const)
FUNC 26080 75 0 __crt_stdio_output::write_multiple_characters<__crt_stdio_output::string_output_adapter<char>,char>(__crt_stdio_output::string_output_adapter<char> const &,char,int,int * const)
FUNC 26114 7a 0 __crt_stdio_output::write_multiple_characters<__crt_stdio_output::string_output_adapter<wchar_t>,char>(__crt_stdio_output::string_output_adapter<wchar_t> const &,char,int,int * const)
FUNC 261ac a 0 <lambda_10027885da78ada7fb00668d7e2e96b5>::<lambda_10027885da78ada7fb00668d7e2e96b5>
FUNC 261b8 a 0 <lambda_2fa474834de80dc12f7a3c6eddd7a366>::<lambda_2fa474834de80dc12f7a3c6eddd7a366>
FUNC 261c4 21 0 <lambda_36eeb330e99a4f0bf8a7da86d0894cb9>::<lambda_36eeb330e99a4f0bf8a7da86d0894cb9>
FUNC 261f0 a 0 <lambda_3776af017df72547960a8ac98bb265e7>::<lambda_3776af017df72547960a8ac98bb265e7>
FUNC 261fc a 0 <lambda_4dad5d88921143c78c186dc2683775b0>::<lambda_4dad5d88921143c78c186dc2683775b0>
FUNC 26208 a 0 <lambda_63c71d947f2ce890aa4aac7392f1cbed>::<lambda_63c71d947f2ce890aa4aac7392f1cbed>
FUNC 26214 21 0 <lambda_673ffc0dc9412a0afcf2088e0e1b9bdc>::<lambda_673ffc0dc9412a0afcf2088e0e1b9bdc>
FUNC 26240 a 0 <lambda_676bd5779251ec186b530f0a904b4b35>::<lambda_676bd5779251ec186b530f0a904b4b35>
FUNC 2624c a 0 <lambda_8be82e0ce9ca3860586e20edfb7a650e>::<lambda_8be82e0ce9ca3860586e20edfb7a650e>
FUNC 26258 a 0 <lambda_8c9f37a989ed2ac074735e5b535e306a>::<lambda_8c9f37a989ed2ac074735e5b535e306a>
FUNC 26264 21 0 <lambda_a993425e72f5bd8b40f5859286f153c4>::<lambda_a993425e72f5bd8b40f5859286f153c4>
FUNC 26290 21 0 <lambda_b579ea784fd840951dfbcbdaebf709fd>::<lambda_b579ea784fd840951dfbcbdaebf709fd>
FUNC 262bc a 0 <lambda_c997b1ad71a4c19edf3d1d12a5864641>::<lambda_c997b1ad71a4c19edf3d1d12a5864641>
FUNC 262c8 a 0 <lambda_d1b8e9147f7260ae436300a3cb83e6d4>::<lambda_d1b8e9147f7260ae436300a3cb83e6d4>
FUNC 262d4 21 0 <lambda_e3269ba96939e7713c73908c0d757d25>::<lambda_e3269ba96939e7713c73908c0d757d25>
FUNC 26300 21 0 <lambda_e638437c4db75b75056fab6aaf7e4f15>::<lambda_e638437c4db75b75056fab6aaf7e4f15>
FUNC 2632c a 0 <lambda_e746820a99d01fe878d2dbd7f1018dff>::<lambda_e746820a99d01fe878d2dbd7f1018dff>
FUNC 26338 a 0 <lambda_fe5404e9642edbb7c8ae71e1dcfa4018>::<lambda_fe5404e9642edbb7c8ae71e1dcfa4018>
FUNC 26344 3c 0 __crt_stdio_output::common_data<char>::common_data<char>()
FUNC 26390 3f 0 __crt_stdio_output::common_data<wchar_t>::common_data<wchar_t>()
FUNC 263e0 5f 0 __crt_stdio_output::output_adapter_data<char,__crt_stdio_output::stream_output_adapter<char> >::output_adapter_data<char,__crt_stdio_output::stream_output_adapter<char> >(__crt_stdio_output::stream_output_adapter<char> const &,unsigned __int64,char const * const,__crt_locale_pointers * const,char * const)
FUNC 26458 5f 0 __crt_stdio_output::output_adapter_data<char,__crt_stdio_output::string_output_adapter<char> >::output_adapter_data<char,__crt_stdio_output::string_output_adapter<char> >(__crt_stdio_output::string_output_adapter<char> const &,unsigned __int64,char const * const,__crt_locale_pointers * const,char * const)
FUNC 264d0 62 0 __crt_stdio_output::output_adapter_data<wchar_t,__crt_stdio_output::stream_output_adapter<wchar_t> >::output_adapter_data<wchar_t,__crt_stdio_output::stream_output_adapter<wchar_t> >(__crt_stdio_output::stream_output_adapter<wchar_t> const &,unsigned __int64,wchar_t const * const,__crt_locale_pointers * const,char * const)
FUNC 2654c 62 0 __crt_stdio_output::output_adapter_data<wchar_t,__crt_stdio_output::string_output_adapter<wchar_t> >::output_adapter_data<wchar_t,__crt_stdio_output::string_output_adapter<wchar_t> >(__crt_stdio_output::string_output_adapter<wchar_t> const &,unsigned __int64,wchar_t const * const,__crt_locale_pointers * const,char * const)
FUNC 265c8 6b 0 __crt_stdio_output::output_processor<char,__crt_stdio_output::stream_output_adapter<char>,__crt_stdio_output::format_validation_base<char,__crt_stdio_output::stream_output_adapter<char> > >::output_processor<char,__crt_stdio_output::stream_output_adapter<char>,__crt_stdio_output::format_validation_base<char,__crt_stdio_output::stream_output_adapter<char> > >(__crt_stdio_output::stream_output_adapter<char> const &,unsigned __int64,char const * const,__crt_locale_pointers * const,char * const)
FUNC 26650 88 0 __crt_stdio_output::output_processor<char,__crt_stdio_output::stream_output_adapter<char>,__crt_stdio_output::positional_parameter_base<char,__crt_stdio_output::stream_output_adapter<char> > >::output_processor<char,__crt_stdio_output::stream_output_adapter<char>,__crt_stdio_output::positional_parameter_base<char,__crt_stdio_output::stream_output_adapter<char> > >(__crt_stdio_output::stream_output_adapter<char> const &,unsigned __int64,char const * const,__crt_locale_pointers * const,char * const)
FUNC 266fc 6b 0 __crt_stdio_output::output_processor<char,__crt_stdio_output::stream_output_adapter<char>,__crt_stdio_output::standard_base<char,__crt_stdio_output::stream_output_adapter<char> > >::output_processor<char,__crt_stdio_output::stream_output_adapter<char>,__crt_stdio_output::standard_base<char,__crt_stdio_output::stream_output_adapter<char> > >(__crt_stdio_output::stream_output_adapter<char> const &,unsigned __int64,char const * const,__crt_locale_pointers * const,char * const)
FUNC 26784 6b 0 __crt_stdio_output::output_processor<char,__crt_stdio_output::string_output_adapter<char>,__crt_stdio_output::format_validation_base<char,__crt_stdio_output::string_output_adapter<char> > >::output_processor<char,__crt_stdio_output::string_output_adapter<char>,__crt_stdio_output::format_validation_base<char,__crt_stdio_output::string_output_adapter<char> > >(__crt_stdio_output::string_output_adapter<char> const &,unsigned __int64,char const * const,__crt_locale_pointers * const,char * const)
FUNC 2680c 88 0 __crt_stdio_output::output_processor<char,__crt_stdio_output::string_output_adapter<char>,__crt_stdio_output::positional_parameter_base<char,__crt_stdio_output::string_output_adapter<char> > >::output_processor<char,__crt_stdio_output::string_output_adapter<char>,__crt_stdio_output::positional_parameter_base<char,__crt_stdio_output::string_output_adapter<char> > >(__crt_stdio_output::string_output_adapter<char> const &,unsigned __int64,char const * const,__crt_locale_pointers * const,char * const)
FUNC 268b8 6b 0 __crt_stdio_output::output_processor<char,__crt_stdio_output::string_output_adapter<char>,__crt_stdio_output::standard_base<char,__crt_stdio_output::string_output_adapter<char> > >::output_processor<char,__crt_stdio_output::string_output_adapter<char>,__crt_stdio_output::standard_base<char,__crt_stdio_output::string_output_adapter<char> > >(__crt_stdio_output::string_output_adapter<char> const &,unsigned __int64,char const * const,__crt_locale_pointers * const,char * const)
FUNC 26940 6f 0 __crt_stdio_output::output_processor<wchar_t,__crt_stdio_output::stream_output_adapter<wchar_t>,__crt_stdio_output::format_validation_base<wchar_t,__crt_stdio_output::stream_output_adapter<wchar_t> > >::output_processor<wchar_t,__crt_stdio_output::stream_output_adapter<wchar_t>,__crt_stdio_output::format_validation_base<wchar_t,__crt_stdio_output::stream_output_adapter<wchar_t> > >(__crt_stdio_output::stream_output_adapter<wchar_t> const &,unsigned __int64,wchar_t const * const,__crt_locale_pointers * const,char * const)
FUNC 269cc 8c 0 __crt_stdio_output::output_processor<wchar_t,__crt_stdio_output::stream_output_adapter<wchar_t>,__crt_stdio_output::positional_parameter_base<wchar_t,__crt_stdio_output::stream_output_adapter<wchar_t> > >::output_processor<wchar_t,__crt_stdio_output::stream_output_adapter<wchar_t>,__crt_stdio_output::positional_parameter_base<wchar_t,__crt_stdio_output::stream_output_adapter<wchar_t> > >(__crt_stdio_output::stream_output_adapter<wchar_t> const &,unsigned __int64,wchar_t const * const,__crt_locale_pointers * const,char * const)
FUNC 26a7c 6f 0 __crt_stdio_output::output_processor<wchar_t,__crt_stdio_output::stream_output_adapter<wchar_t>,__crt_stdio_output::standard_base<wchar_t,__crt_stdio_output::stream_output_adapter<wchar_t> > >::output_processor<wchar_t,__crt_stdio_output::stream_output_adapter<wchar_t>,__crt_stdio_output::standard_base<wchar_t,__crt_stdio_output::stream_output_adapter<wchar_t> > >(__crt_stdio_output::stream_output_adapter<wchar_t> const &,unsigned __int64,wchar_t const * const,__crt_locale_pointers * const,char * const)
FUNC 26b08 6f 0 __crt_stdio_output::output_processor<wchar_t,__crt_stdio_output::string_output_adapter<wchar_t>,__crt_stdio_output::format_validation_base<wchar_t,__crt_stdio_output::string_output_adapter<wchar_t> > >::output_processor<wchar_t,__crt_stdio_output::string_output_adapter<wchar_t>,__crt_stdio_output::format_validation_base<wchar_t,__crt_stdio_output::string_output_adapter<wchar_t> > >(__crt_stdio_output::string_output_adapter<wchar_t> const &,unsigned __int64,wchar_t const * const,__crt_locale_pointers * const,char * const)
FUNC 26b94 8c 0 __crt_stdio_output::output_processor<wchar_t,__crt_stdio_output::string_output_adapter<wchar_t>,__crt_stdio_output::positional_parameter_base<wchar_t,__crt_stdio_output::string_output_adapter<wchar_t> > >::output_processor<wchar_t,__crt_stdio_output::string_output_adapter<wchar_t>,__crt_stdio_output::positional_parameter_base<wchar_t,__crt_stdio_output::string_output_adapter<wchar_t> > >(__crt_stdio_output::string_output_adapter<wchar_t> const &,unsigned __int64,wchar_t const * const,__crt_locale_pointers * const,char * const)
FUNC 26c44 6f 0 __crt_stdio_output::output_processor<wchar_t,__crt_stdio_output::string_output_adapter<wchar_t>,__crt_stdio_output::standard_base<wchar_t,__crt_stdio_output::string_output_adapter<wchar_t> > >::output_processor<wchar_t,__crt_stdio_output::string_output_adapter<wchar_t>,__crt_stdio_output::standard_base<wchar_t,__crt_stdio_output::string_output_adapter<wchar_t> > >(__crt_stdio_output::string_output_adapter<wchar_t> const &,unsigned __int64,wchar_t const * const,__crt_locale_pointers * const,char * const)
FUNC 26cd0 7 0 __crt_stdio_output::stream_output_adapter<char>::stream_output_adapter<char>(_iobuf * const)
FUNC 26cd8 7 0 __crt_stdio_output::stream_output_adapter<wchar_t>::stream_output_adapter<wchar_t>(_iobuf * const)
FUNC 26ce0 7 0 __crt_stdio_output::string_output_adapter<char>::string_output_adapter<char>(__crt_stdio_output::string_output_adapter_context<char> * const)
FUNC 26ce8 7 0 __crt_stdio_output::string_output_adapter<wchar_t>::string_output_adapter<wchar_t>(__crt_stdio_output::string_output_adapter_context<wchar_t> * const)
FUNC 26cf0 9b 0 _LocaleUpdate::_LocaleUpdate(__crt_locale_pointers * const)
FUNC 26db4 20 0 __acrt_stdio_temporary_buffering_guard::__acrt_stdio_temporary_buffering_guard(_iobuf * const)
FUNC 26ddc 8 0 __crt_deferred_errno_cache::__crt_deferred_errno_cache()
FUNC 26de8 f 0 __crt_errno_guard::__crt_errno_guard(int * const)
FUNC 26dfc 7 0 __crt_stdio_stream::__crt_stdio_stream(_iobuf * const)
FUNC 26e04 14 0 __crt_stdio_output::formatting_buffer::formatting_buffer()
FUNC 26e20 23 0 __crt_stdio_output::common_data<char>::~common_data<char>()
FUNC 26e4c 23 0 __crt_stdio_output::common_data<wchar_t>::~common_data<wchar_t>()
FUNC 26e78 23 0 __crt_stdio_output::format_validation_base<char,__crt_stdio_output::stream_output_adapter<char> >::~format_validation_base<char,__crt_stdio_output::stream_output_adapter<char> >()
FUNC 26ea4 23 0 __crt_stdio_output::format_validation_base<char,__crt_stdio_output::string_output_adapter<char> >::~format_validation_base<char,__crt_stdio_output::string_output_adapter<char> >()
FUNC 26ed0 23 0 __crt_stdio_output::format_validation_base<wchar_t,__crt_stdio_output::stream_output_adapter<wchar_t> >::~format_validation_base<wchar_t,__crt_stdio_output::stream_output_adapter<wchar_t> >()
FUNC 26efc 23 0 __crt_stdio_output::format_validation_base<wchar_t,__crt_stdio_output::string_output_adapter<wchar_t> >::~format_validation_base<wchar_t,__crt_stdio_output::string_output_adapter<wchar_t> >()
FUNC 26f28 23 0 __crt_stdio_output::output_adapter_data<char,__crt_stdio_output::stream_output_adapter<char> >::~output_adapter_data<char,__crt_stdio_output::stream_output_adapter<char> >()
FUNC 26f54 23 0 __crt_stdio_output::output_adapter_data<char,__crt_stdio_output::string_output_adapter<char> >::~output_adapter_data<char,__crt_stdio_output::string_output_adapter<char> >()
FUNC 26f80 23 0 __crt_stdio_output::output_adapter_data<wchar_t,__crt_stdio_output::stream_output_adapter<wchar_t> >::~output_adapter_data<wchar_t,__crt_stdio_output::stream_output_adapter<wchar_t> >()
FUNC 26fac 23 0 __crt_stdio_output::output_adapter_data<wchar_t,__crt_stdio_output::string_output_adapter<wchar_t> >::~output_adapter_data<wchar_t,__crt_stdio_output::string_output_adapter<wchar_t> >()
FUNC 26fd8 23 0 __crt_stdio_output::output_processor<char,__crt_stdio_output::stream_output_adapter<char>,__crt_stdio_output::format_validation_base<char,__crt_stdio_output::stream_output_adapter<char> > >::~output_processor<char,__crt_stdio_output::stream_output_adapter<char>,__crt_stdio_output::format_validation_base<char,__crt_stdio_output::stream_output_adapter<char> > >()
FUNC 27004 23 0 __crt_stdio_output::output_processor<char,__crt_stdio_output::stream_output_adapter<char>,__crt_stdio_output::positional_parameter_base<char,__crt_stdio_output::stream_output_adapter<char> > >::~output_processor<char,__crt_stdio_output::stream_output_adapter<char>,__crt_stdio_output::positional_parameter_base<char,__crt_stdio_output::stream_output_adapter<char> > >()
FUNC 27030 23 0 __crt_stdio_output::output_processor<char,__crt_stdio_output::stream_output_adapter<char>,__crt_stdio_output::standard_base<char,__crt_stdio_output::stream_output_adapter<char> > >::~output_processor<char,__crt_stdio_output::stream_output_adapter<char>,__crt_stdio_output::standard_base<char,__crt_stdio_output::stream_output_adapter<char> > >()
FUNC 2705c 23 0 __crt_stdio_output::output_processor<char,__crt_stdio_output::string_output_adapter<char>,__crt_stdio_output::format_validation_base<char,__crt_stdio_output::string_output_adapter<char> > >::~output_processor<char,__crt_stdio_output::string_output_adapter<char>,__crt_stdio_output::format_validation_base<char,__crt_stdio_output::string_output_adapter<char> > >()
FUNC 27088 23 0 __crt_stdio_output::output_processor<char,__crt_stdio_output::string_output_adapter<char>,__crt_stdio_output::positional_parameter_base<char,__crt_stdio_output::string_output_adapter<char> > >::~output_processor<char,__crt_stdio_output::string_output_adapter<char>,__crt_stdio_output::positional_parameter_base<char,__crt_stdio_output::string_output_adapter<char> > >()
FUNC 270b4 23 0 __crt_stdio_output::output_processor<char,__crt_stdio_output::string_output_adapter<char>,__crt_stdio_output::standard_base<char,__crt_stdio_output::string_output_adapter<char> > >::~output_processor<char,__crt_stdio_output::string_output_adapter<char>,__crt_stdio_output::standard_base<char,__crt_stdio_output::string_output_adapter<char> > >()
FUNC 270e0 23 0 __crt_stdio_output::output_processor<wchar_t,__crt_stdio_output::stream_output_adapter<wchar_t>,__crt_stdio_output::format_validation_base<wchar_t,__crt_stdio_output::stream_output_adapter<wchar_t> > >::~output_processor<wchar_t,__crt_stdio_output::stream_output_adapter<wchar_t>,__crt_stdio_output::format_validation_base<wchar_t,__crt_stdio_output::stream_output_adapter<wchar_t> > >()
FUNC 2710c 23 0 __crt_stdio_output::output_processor<wchar_t,__crt_stdio_output::stream_output_adapter<wchar_t>,__crt_stdio_output::positional_parameter_base<wchar_t,__crt_stdio_output::stream_output_adapter<wchar_t> > >::~output_processor<wchar_t,__crt_stdio_output::stream_output_adapter<wchar_t>,__crt_stdio_output::positional_parameter_base<wchar_t,__crt_stdio_output::stream_output_adapter<wchar_t> > >()
FUNC 27138 23 0 __crt_stdio_output::output_processor<wchar_t,__crt_stdio_output::stream_output_adapter<wchar_t>,__crt_stdio_output::standard_base<wchar_t,__crt_stdio_output::stream_output_adapter<wchar_t> > >::~output_processor<wchar_t,__crt_stdio_output::stream_output_adapter<wchar_t>,__crt_stdio_output::standard_base<wchar_t,__crt_stdio_output::stream_output_adapter<wchar_t> > >()
FUNC 27164 23 0 __crt_stdio_output::output_processor<wchar_t,__crt_stdio_output::string_output_adapter<wchar_t>,__crt_stdio_output::format_validation_base<wchar_t,__crt_stdio_output::string_output_adapter<wchar_t> > >::~output_processor<wchar_t,__crt_stdio_output::string_output_adapter<wchar_t>,__crt_stdio_output::format_validation_base<wchar_t,__crt_stdio_output::string_output_adapter<wchar_t> > >()
FUNC 27190 23 0 __crt_stdio_output::output_processor<wchar_t,__crt_stdio_output::string_output_adapter<wchar_t>,__crt_stdio_output::positional_parameter_base<wchar_t,__crt_stdio_output::string_output_adapter<wchar_t> > >::~output_processor<wchar_t,__crt_stdio_output::string_output_adapter<wchar_t>,__crt_stdio_output::positional_parameter_base<wchar_t,__crt_stdio_output::string_output_adapter<wchar_t> > >()
FUNC 271bc 23 0 __crt_stdio_output::output_processor<wchar_t,__crt_stdio_output::string_output_adapter<wchar_t>,__crt_stdio_output::standard_base<wchar_t,__crt_stdio_output::string_output_adapter<wchar_t> > >::~output_processor<wchar_t,__crt_stdio_output::string_output_adapter<wchar_t>,__crt_stdio_output::standard_base<wchar_t,__crt_stdio_output::string_output_adapter<wchar_t> > >()
FUNC 271e8 23 0 __crt_stdio_output::positional_parameter_base<char,__crt_stdio_output::stream_output_adapter<char> >::~positional_parameter_base<char,__crt_stdio_output::stream_output_adapter<char> >()
FUNC 27214 23 0 __crt_stdio_output::positional_parameter_base<char,__crt_stdio_output::string_output_adapter<char> >::~positional_parameter_base<char,__crt_stdio_output::string_output_adapter<char> >()
FUNC 27240 23 0 __crt_stdio_output::positional_parameter_base<wchar_t,__crt_stdio_output::stream_output_adapter<wchar_t> >::~positional_parameter_base<wchar_t,__crt_stdio_output::stream_output_adapter<wchar_t> >()
FUNC 2726c 23 0 __crt_stdio_output::positional_parameter_base<wchar_t,__crt_stdio_output::string_output_adapter<wchar_t> >::~positional_parameter_base<wchar_t,__crt_stdio_output::string_output_adapter<wchar_t> >()
FUNC 27298 23 0 __crt_stdio_output::standard_base<char,__crt_stdio_output::stream_output_adapter<char> >::~standard_base<char,__crt_stdio_output::stream_output_adapter<char> >()
FUNC 272c4 23 0 __crt_stdio_output::standard_base<char,__crt_stdio_output::string_output_adapter<char> >::~standard_base<char,__crt_stdio_output::string_output_adapter<char> >()
FUNC 272f0 23 0 __crt_stdio_output::standard_base<wchar_t,__crt_stdio_output::stream_output_adapter<wchar_t> >::~standard_base<wchar_t,__crt_stdio_output::stream_output_adapter<wchar_t> >()
FUNC 2731c 23 0 __crt_stdio_output::standard_base<wchar_t,__crt_stdio_output::string_output_adapter<wchar_t> >::~standard_base<wchar_t,__crt_stdio_output::string_output_adapter<wchar_t> >()
FUNC 27348 11 0 _LocaleUpdate::~_LocaleUpdate()
FUNC 27360 b 0 __acrt_stdio_temporary_buffering_guard::~__acrt_stdio_temporary_buffering_guard()
FUNC 27370 12 0 __crt_errno_guard::~__crt_errno_guard()
FUNC 27388 23 0 __crt_stdio_output::formatting_buffer::~formatting_buffer()
FUNC 273b4 34 0 __crt_unique_heap_ptr<char,__crt_internal_free_policy>::operator=(__crt_unique_heap_ptr<char,__crt_internal_free_policy> &&)
FUNC 273f8 4 0 __crt_stdio_stream::operator->()
FUNC 273fc 8 0 <lambda_10027885da78ada7fb00668d7e2e96b5>::operator()
FUNC 27408 8 0 <lambda_2fa474834de80dc12f7a3c6eddd7a366>::operator()
FUNC 27414 12d 0 <lambda_36eeb330e99a4f0bf8a7da86d0894cb9>::operator()
FUNC 2758c 8 0 <lambda_3776af017df72547960a8ac98bb265e7>::operator()
FUNC 27598 8 0 <lambda_4dad5d88921143c78c186dc2683775b0>::operator()
FUNC 275a4 8 0 <lambda_63c71d947f2ce890aa4aac7392f1cbed>::operator()
FUNC 275b0 14e 0 <lambda_673ffc0dc9412a0afcf2088e0e1b9bdc>::operator()
FUNC 27754 8 0 <lambda_676bd5779251ec186b530f0a904b4b35>::operator()
FUNC 27760 8 0 <lambda_8be82e0ce9ca3860586e20edfb7a650e>::operator()
FUNC 2776c 8 0 <lambda_8c9f37a989ed2ac074735e5b535e306a>::operator()
FUNC 27778 14a 0 <lambda_a993425e72f5bd8b40f5859286f153c4>::operator()
FUNC 27914 131 0 <lambda_b579ea784fd840951dfbcbdaebf709fd>::operator()
FUNC 27a94 8 0 <lambda_c997b1ad71a4c19edf3d1d12a5864641>::operator()
FUNC 27aa0 8 0 <lambda_d1b8e9147f7260ae436300a3cb83e6d4>::operator()
FUNC 27aac 131 0 <lambda_e3269ba96939e7713c73908c0d757d25>::operator()
FUNC 27c2c 12d 0 <lambda_e638437c4db75b75056fab6aaf7e4f15>::operator()
FUNC 27da4 8 0 <lambda_e746820a99d01fe878d2dbd7f1018dff>::operator()
FUNC 27db0 8 0 <lambda_fe5404e9642edbb7c8ae71e1dcfa4018>::operator()
FUNC 27dbc 5 0 _LocaleUpdate::GetLocaleT()
FUNC 27dc4 c 0 __crt_stdio_output::output_processor<char,__crt_stdio_output::stream_output_adapter<char>,__crt_stdio_output::format_validation_base<char,__crt_stdio_output::stream_output_adapter<char> > >::adjust_hexit(int,bool)
FUNC 27dd4 c 0 __crt_stdio_output::output_processor<char,__crt_stdio_output::stream_output_adapter<char>,__crt_stdio_output::positional_parameter_base<char,__crt_stdio_output::stream_output_adapter<char> > >::adjust_hexit(int,bool)
FUNC 27de4 c 0 __crt_stdio_output::output_processor<char,__crt_stdio_output::stream_output_adapter<char>,__crt_stdio_output::standard_base<char,__crt_stdio_output::stream_output_adapter<char> > >::adjust_hexit(int,bool)
FUNC 27df4 c 0 __crt_stdio_output::output_processor<char,__crt_stdio_output::string_output_adapter<char>,__crt_stdio_output::format_validation_base<char,__crt_stdio_output::string_output_adapter<char> > >::adjust_hexit(int,bool)
FUNC 27e04 c 0 __crt_stdio_output::output_processor<char,__crt_stdio_output::string_output_adapter<char>,__crt_stdio_output::positional_parameter_base<char,__crt_stdio_output::string_output_adapter<char> > >::adjust_hexit(int,bool)
FUNC 27e14 c 0 __crt_stdio_output::output_processor<char,__crt_stdio_output::string_output_adapter<char>,__crt_stdio_output::standard_base<char,__crt_stdio_output::string_output_adapter<char> > >::adjust_hexit(int,bool)
FUNC 27e24 c 0 __crt_stdio_output::output_processor<wchar_t,__crt_stdio_output::stream_output_adapter<wchar_t>,__crt_stdio_output::format_validation_base<wchar_t,__crt_stdio_output::stream_output_adapter<wchar_t> > >::adjust_hexit(int,bool)
FUNC 27e34 c 0 __crt_stdio_output::output_processor<wchar_t,__crt_stdio_output::stream_output_adapter<wchar_t>,__crt_stdio_output::positional_parameter_base<wchar_t,__crt_stdio_output::stream_output_adapter<wchar_t> > >::adjust_hexit(int,bool)
FUNC 27e44 c 0 __crt_stdio_output::output_processor<wchar_t,__crt_stdio_output::stream_output_adapter<wchar_t>,__crt_stdio_output::standard_base<wchar_t,__crt_stdio_output::stream_output_adapter<wchar_t> > >::adjust_hexit(int,bool)
FUNC 27e54 c 0 __crt_stdio_output::output_processor<wchar_t,__crt_stdio_output::string_output_adapter<wchar_t>,__crt_stdio_output::format_validation_base<wchar_t,__crt_stdio_output::string_output_adapter<wchar_t> > >::adjust_hexit(int,bool)
FUNC 27e64 c 0 __crt_stdio_output::output_processor<wchar_t,__crt_stdio_output::string_output_adapter<wchar_t>,__crt_stdio_output::positional_parameter_base<wchar_t,__crt_stdio_output::string_output_adapter<wchar_t> > >::adjust_hexit(int,bool)
FUNC 27e74 c 0 __crt_stdio_output::output_processor<wchar_t,__crt_stdio_output::string_output_adapter<wchar_t>,__crt_stdio_output::standard_base<wchar_t,__crt_stdio_output::string_output_adapter<wchar_t> > >::adjust_hexit(int,bool)
FUNC 27e84 50 0 __crt_stdio_output::positional_parameter_base<char,__crt_stdio_output::stream_output_adapter<char> >::advance_to_next_pass()
FUNC 27ee8 50 0 __crt_stdio_output::positional_parameter_base<char,__crt_stdio_output::string_output_adapter<char> >::advance_to_next_pass()
FUNC 27f4c 50 0 __crt_stdio_output::positional_parameter_base<wchar_t,__crt_stdio_output::stream_output_adapter<wchar_t> >::advance_to_next_pass()
FUNC 27fb0 50 0 __crt_stdio_output::positional_parameter_base<wchar_t,__crt_stdio_output::string_output_adapter<wchar_t> >::advance_to_next_pass()
FUNC 28014 11 0 __crt_stdio_output::standard_base<char,__crt_stdio_output::stream_output_adapter<char> >::advance_to_next_pass()
FUNC 2802c 11 0 __crt_stdio_output::standard_base<char,__crt_stdio_output::string_output_adapter<char> >::advance_to_next_pass()
FUNC 28044 11 0 __crt_stdio_output::standard_base<wchar_t,__crt_stdio_output::stream_output_adapter<wchar_t> >::advance_to_next_pass()
FUNC 2805c 11 0 __crt_stdio_output::standard_base<wchar_t,__crt_stdio_output::string_output_adapter<wchar_t> >::advance_to_next_pass()
FUNC 28074 69 0 __crt_stdio_output::crop_zeroes(char *,__crt_locale_pointers * const)
FUNC 280f8 31 0 __crt_stdio_output::output_processor<char,__crt_stdio_output::stream_output_adapter<char>,__crt_stdio_output::format_validation_base<char,__crt_stdio_output::stream_output_adapter<char> > >::find_next_state(char,__crt_stdio_output::state)
FUNC 28138 31 0 __crt_stdio_output::output_processor<char,__crt_stdio_output::stream_output_adapter<char>,__crt_stdio_output::positional_parameter_base<char,__crt_stdio_output::stream_output_adapter<char> > >::find_next_state(char,__crt_stdio_output::state)
FUNC 28178 2f 0 __crt_stdio_output::output_processor<char,__crt_stdio_output::stream_output_adapter<char>,__crt_stdio_output::standard_base<char,__crt_stdio_output::stream_output_adapter<char> > >::find_next_state(char,__crt_stdio_output::state)
FUNC 281b4 31 0 __crt_stdio_output::output_processor<char,__crt_stdio_output::string_output_adapter<char>,__crt_stdio_output::format_validation_base<char,__crt_stdio_output::string_output_adapter<char> > >::find_next_state(char,__crt_stdio_output::state)
FUNC 281f4 31 0 __crt_stdio_output::output_processor<char,__crt_stdio_output::string_output_adapter<char>,__crt_stdio_output::positional_parameter_base<char,__crt_stdio_output::string_output_adapter<char> > >::find_next_state(char,__crt_stdio_output::state)
FUNC 28234 2f 0 __crt_stdio_output::output_processor<char,__crt_stdio_output::string_output_adapter<char>,__crt_stdio_output::standard_base<char,__crt_stdio_output::string_output_adapter<char> > >::find_next_state(char,__crt_stdio_output::state)
FUNC 28270 32 0 __crt_stdio_output::output_processor<wchar_t,__crt_stdio_output::stream_output_adapter<wchar_t>,__crt_stdio_output::format_validation_base<wchar_t,__crt_stdio_output::stream_output_adapter<wchar_t> > >::find_next_state(wchar_t,__crt_stdio_output::state)
FUNC 282b0 32 0 __crt_stdio_output::output_processor<wchar_t,__crt_stdio_output::stream_output_adapter<wchar_t>,__crt_stdio_output::positional_parameter_base<wchar_t,__crt_stdio_output::stream_output_adapter<wchar_t> > >::find_next_state(wchar_t,__crt_stdio_output::state)
FUNC 282f0 30 0 __crt_stdio_output::output_processor<wchar_t,__crt_stdio_output::stream_output_adapter<wchar_t>,__crt_stdio_output::standard_base<wchar_t,__crt_stdio_output::stream_output_adapter<wchar_t> > >::find_next_state(wchar_t,__crt_stdio_output::state)
FUNC 2832c 32 0 __crt_stdio_output::output_processor<wchar_t,__crt_stdio_output::string_output_adapter<wchar_t>,__crt_stdio_output::format_validation_base<wchar_t,__crt_stdio_output::string_output_adapter<wchar_t> > >::find_next_state(wchar_t,__crt_stdio_output::state)
FUNC 2836c 32 0 __crt_stdio_output::output_processor<wchar_t,__crt_stdio_output::string_output_adapter<wchar_t>,__crt_stdio_output::positional_parameter_base<wchar_t,__crt_stdio_output::string_output_adapter<wchar_t> > >::find_next_state(wchar_t,__crt_stdio_output::state)
FUNC 283ac 30 0 __crt_stdio_output::output_processor<wchar_t,__crt_stdio_output::string_output_adapter<wchar_t>,__crt_stdio_output::standard_base<wchar_t,__crt_stdio_output::string_output_adapter<wchar_t> > >::find_next_state(wchar_t,__crt_stdio_output::state)
FUNC 283e8 68 0 __crt_stdio_output::force_decimal_point(char *,__crt_locale_pointers * const)
FUNC 2846c 1f 0 __crt_deferred_errno_cache::get()
FUNC 28494 7 0 __crt_stdio_stream::get_flags()
FUNC 2849c 6 0 __crt_stdio_output::positional_parameter_base<char,__crt_stdio_output::stream_output_adapter<char> >::get_parameter_type(short)
FUNC 284a4 6 0 __crt_stdio_output::positional_parameter_base<char,__crt_stdio_output::stream_output_adapter<char> >::get_parameter_type(unsigned short)
FUNC 284ac 6 0 __crt_stdio_output::positional_parameter_base<char,__crt_stdio_output::stream_output_adapter<char> >::get_parameter_type(int)
FUNC 284b4 6 0 __crt_stdio_output::positional_parameter_base<char,__crt_stdio_output::stream_output_adapter<char> >::get_parameter_type(unsigned int)
FUNC 284bc 6 0 __crt_stdio_output::positional_parameter_base<char,__crt_stdio_output::stream_output_adapter<char> >::get_parameter_type(_CRT_DOUBLE)
FUNC 284c4 6 0 __crt_stdio_output::positional_parameter_base<char,__crt_stdio_output::stream_output_adapter<char> >::get_parameter_type(__int64)
FUNC 284cc 6 0 __crt_stdio_output::positional_parameter_base<char,__crt_stdio_output::stream_output_adapter<char> >::get_parameter_type(unsigned __int64)
FUNC 284d4 6 0 __crt_stdio_output::positional_parameter_base<char,__crt_stdio_output::stream_output_adapter<char> >::get_parameter_type(wchar_t)
FUNC 284dc 6 0 __crt_stdio_output::positional_parameter_base<char,__crt_stdio_output::string_output_adapter<char> >::get_parameter_type(short)
FUNC 284e4 6 0 __crt_stdio_output::positional_parameter_base<char,__crt_stdio_output::string_output_adapter<char> >::get_parameter_type(unsigned short)
FUNC 284ec 6 0 __crt_stdio_output::positional_parameter_base<char,__crt_stdio_output::string_output_adapter<char> >::get_parameter_type(int)
FUNC 284f4 6 0 __crt_stdio_output::positional_parameter_base<char,__crt_stdio_output::string_output_adapter<char> >::get_parameter_type(unsigned int)
FUNC 284fc 6 0 __crt_stdio_output::positional_parameter_base<char,__crt_stdio_output::string_output_adapter<char> >::get_parameter_type(_CRT_DOUBLE)
FUNC 28504 6 0 __crt_stdio_output::positional_parameter_base<char,__crt_stdio_output::string_output_adapter<char> >::get_parameter_type(__int64)
FUNC 2850c 6 0 __crt_stdio_output::positional_parameter_base<char,__crt_stdio_output::string_output_adapter<char> >::get_parameter_type(unsigned __int64)
FUNC 28514 6 0 __crt_stdio_output::positional_parameter_base<char,__crt_stdio_output::string_output_adapter<char> >::get_parameter_type(wchar_t)
FUNC 2851c 6 0 __crt_stdio_output::positional_parameter_base<wchar_t,__crt_stdio_output::stream_output_adapter<wchar_t> >::get_parameter_type(short)
FUNC 28524 6 0 __crt_stdio_output::positional_parameter_base<wchar_t,__crt_stdio_output::stream_output_adapter<wchar_t> >::get_parameter_type(unsigned short)
FUNC 2852c 6 0 __crt_stdio_output::positional_parameter_base<wchar_t,__crt_stdio_output::stream_output_adapter<wchar_t> >::get_parameter_type(int)
FUNC 28534 6 0 __crt_stdio_output::positional_parameter_base<wchar_t,__crt_stdio_output::stream_output_adapter<wchar_t> >::get_parameter_type(unsigned int)
FUNC 2853c 6 0 __crt_stdio_output::positional_parameter_base<wchar_t,__crt_stdio_output::stream_output_adapter<wchar_t> >::get_parameter_type(_CRT_DOUBLE)
FUNC 28544 6 0 __crt_stdio_output::positional_parameter_base<wchar_t,__crt_stdio_output::stream_output_adapter<wchar_t> >::get_parameter_type(__int64)
FUNC 2854c 6 0 __crt_stdio_output::positional_parameter_base<wchar_t,__crt_stdio_output::stream_output_adapter<wchar_t> >::get_parameter_type(unsigned __int64)
FUNC 28554 6 0 __crt_stdio_output::positional_parameter_base<wchar_t,__crt_stdio_output::stream_output_adapter<wchar_t> >::get_parameter_type(wchar_t)
FUNC 2855c 6 0 __crt_stdio_output::positional_parameter_base<wchar_t,__crt_stdio_output::string_output_adapter<wchar_t> >::get_parameter_type(short)
FUNC 28564 6 0 __crt_stdio_output::positional_parameter_base<wchar_t,__crt_stdio_output::string_output_adapter<wchar_t> >::get_parameter_type(unsigned short)
FUNC 2856c 6 0 __crt_stdio_output::positional_parameter_base<wchar_t,__crt_stdio_output::string_output_adapter<wchar_t> >::get_parameter_type(int)
FUNC 28574 6 0 __crt_stdio_output::positional_parameter_base<wchar_t,__crt_stdio_output::string_output_adapter<wchar_t> >::get_parameter_type(unsigned int)
FUNC 2857c 6 0 __crt_stdio_output::positional_parameter_base<wchar_t,__crt_stdio_output::string_output_adapter<wchar_t> >::get_parameter_type(_CRT_DOUBLE)
FUNC 28584 6 0 __crt_stdio_output::positional_parameter_base<wchar_t,__crt_stdio_output::string_output_adapter<wchar_t> >::get_parameter_type(__int64)
FUNC 2858c 6 0 __crt_stdio_output::positional_parameter_base<wchar_t,__crt_stdio_output::string_output_adapter<wchar_t> >::get_parameter_type(unsigned __int64)
FUNC 28594 6 0 __crt_stdio_output::positional_parameter_base<wchar_t,__crt_stdio_output::string_output_adapter<wchar_t> >::get_parameter_type(wchar_t)
FUNC 2859c 7 0 __crt_stdio_output::output_processor<char,__crt_stdio_output::stream_output_adapter<char>,__crt_stdio_output::format_validation_base<char,__crt_stdio_output::stream_output_adapter<char> > >::has_flag(unsigned int)
FUNC 285a4 7 0 __crt_stdio_output::output_processor<char,__crt_stdio_output::stream_output_adapter<char>,__crt_stdio_output::positional_parameter_base<char,__crt_stdio_output::stream_output_adapter<char> > >::has_flag(unsigned int)
FUNC 285ac 7 0 __crt_stdio_output::output_processor<char,__crt_stdio_output::stream_output_adapter<char>,__crt_stdio_output::standard_base<char,__crt_stdio_output::stream_output_adapter<char> > >::has_flag(unsigned int)
FUNC 285b4 7 0 __crt_stdio_output::output_processor<char,__crt_stdio_output::string_output_adapter<char>,__crt_stdio_output::format_validation_base<char,__crt_stdio_output::string_output_adapter<char> > >::has_flag(unsigned int)
FUNC 285bc 7 0 __crt_stdio_output::output_processor<char,__crt_stdio_output::string_output_adapter<char>,__crt_stdio_output::positional_parameter_base<char,__crt_stdio_output::string_output_adapter<char> > >::has_flag(unsigned int)
FUNC 285c4 7 0 __crt_stdio_output::output_processor<char,__crt_stdio_output::string_output_adapter<char>,__crt_stdio_output::standard_base<char,__crt_stdio_output::string_output_adapter<char> > >::has_flag(unsigned int)
FUNC 285cc 7 0 __crt_stdio_output::output_processor<wchar_t,__crt_stdio_output::stream_output_adapter<wchar_t>,__crt_stdio_output::format_validation_base<wchar_t,__crt_stdio_output::stream_output_adapter<wchar_t> > >::has_flag(unsigned int)
FUNC 285d4 7 0 __crt_stdio_output::output_processor<wchar_t,__crt_stdio_output::stream_output_adapter<wchar_t>,__crt_stdio_output::positional_parameter_base<wchar_t,__crt_stdio_output::stream_output_adapter<wchar_t> > >::has_flag(unsigned int)
FUNC 285dc 7 0 __crt_stdio_output::output_processor<wchar_t,__crt_stdio_output::stream_output_adapter<wchar_t>,__crt_stdio_output::standard_base<wchar_t,__crt_stdio_output::stream_output_adapter<wchar_t> > >::has_flag(unsigned int)
FUNC 285e4 7 0 __crt_stdio_output::output_processor<wchar_t,__crt_stdio_output::string_output_adapter<wchar_t>,__crt_stdio_output::format_validation_base<wchar_t,__crt_stdio_output::string_output_adapter<wchar_t> > >::has_flag(unsigned int)
FUNC 285ec 7 0 __crt_stdio_output::output_processor<wchar_t,__crt_stdio_output::string_output_adapter<wchar_t>,__crt_stdio_output::positional_parameter_base<wchar_t,__crt_stdio_output::string_output_adapter<wchar_t> > >::has_flag(unsigned int)
FUNC 285f4 7 0 __crt_stdio_output::output_processor<wchar_t,__crt_stdio_output::string_output_adapter<wchar_t>,__crt_stdio_output::standard_base<wchar_t,__crt_stdio_output::string_output_adapter<wchar_t> > >::has_flag(unsigned int)
FUNC 285fc 230 0 __crt_stdio_output::positional_parameter_base<char,__crt_stdio_output::stream_output_adapter<char> >::is_positional_parameter_reappearance_consistent(__crt_stdio_output::positional_parameter_base<char,__crt_stdio_output::stream_output_adapter<char> >::parameter_data const &,__crt_stdio_output::positional_parameter_base<char,__crt_stdio_output::stream_output_adapter<char> >::parameter_type,char,__crt_stdio_output::length_modifier)
FUNC 288b8 230 0 __crt_stdio_output::positional_parameter_base<char,__crt_stdio_output::string_output_adapter<char> >::is_positional_parameter_reappearance_consistent(__crt_stdio_output::positional_parameter_base<char,__crt_stdio_output::string_output_adapter<char> >::parameter_data const &,__crt_stdio_output::positional_parameter_base<char,__crt_stdio_output::string_output_adapter<char> >::parameter_type,char,__crt_stdio_output::length_modifier)
FUNC 28b74 200 0 __crt_stdio_output::positional_parameter_base<wchar_t,__crt_stdio_output::stream_output_adapter<wchar_t> >::is_positional_parameter_reappearance_consistent(__crt_stdio_output::positional_parameter_base<wchar_t,__crt_stdio_output::stream_output_adapter<wchar_t> >::parameter_data const &,__crt_stdio_output::positional_parameter_base<wchar_t,__crt_stdio_output::stream_output_adapter<wchar_t> >::parameter_type,wchar_t,__crt_stdio_output::length_modifier)
FUNC 28df4 200 0 __crt_stdio_output::positional_parameter_base<wchar_t,__crt_stdio_output::string_output_adapter<wchar_t> >::is_positional_parameter_reappearance_consistent(__crt_stdio_output::positional_parameter_base<wchar_t,__crt_stdio_output::string_output_adapter<wchar_t> >::parameter_data const &,__crt_stdio_output::positional_parameter_base<wchar_t,__crt_stdio_output::string_output_adapter<wchar_t> >::parameter_type,wchar_t,__crt_stdio_output::length_modifier)
FUNC 29074 c 0 __crt_stdio_stream::is_string_backed()
FUNC 29084 8 0 __crt_stdio_output::output_processor<char,__crt_stdio_output::stream_output_adapter<char>,__crt_stdio_output::format_validation_base<char,__crt_stdio_output::stream_output_adapter<char> > >::narrow_null_string()
FUNC 29090 8 0 __crt_stdio_output::output_processor<char,__crt_stdio_output::stream_output_adapter<char>,__crt_stdio_output::positional_parameter_base<char,__crt_stdio_output::stream_output_adapter<char> > >::narrow_null_string()
FUNC 2909c 8 0 __crt_stdio_output::output_processor<char,__crt_stdio_output::stream_output_adapter<char>,__crt_stdio_output::standard_base<char,__crt_stdio_output::stream_output_adapter<char> > >::narrow_null_string()
FUNC 290a8 8 0 __crt_stdio_output::output_processor<char,__crt_stdio_output::string_output_adapter<char>,__crt_stdio_output::format_validation_base<char,__crt_stdio_output::string_output_adapter<char> > >::narrow_null_string()
FUNC 290b4 8 0 __crt_stdio_output::output_processor<char,__crt_stdio_output::string_output_adapter<char>,__crt_stdio_output::positional_parameter_base<char,__crt_stdio_output::string_output_adapter<char> > >::narrow_null_string()
FUNC 290c0 8 0 __crt_stdio_output::output_processor<char,__crt_stdio_output::string_output_adapter<char>,__crt_stdio_output::standard_base<char,__crt_stdio_output::string_output_adapter<char> > >::narrow_null_string()
FUNC 290cc 8 0 __crt_stdio_output::output_processor<wchar_t,__crt_stdio_output::stream_output_adapter<wchar_t>,__crt_stdio_output::format_validation_base<wchar_t,__crt_stdio_output::stream_output_adapter<wchar_t> > >::narrow_null_string()
FUNC 290d8 8 0 __crt_stdio_output::output_processor<wchar_t,__crt_stdio_output::stream_output_adapter<wchar_t>,__crt_stdio_output::positional_parameter_base<wchar_t,__crt_stdio_output::stream_output_adapter<wchar_t> > >::narrow_null_string()
FUNC 290e4 8 0 __crt_stdio_output::output_processor<wchar_t,__crt_stdio_output::stream_output_adapter<wchar_t>,__crt_stdio_output::standard_base<wchar_t,__crt_stdio_output::stream_output_adapter<wchar_t> > >::narrow_null_string()
FUNC 290f0 8 0 __crt_stdio_output::output_processor<wchar_t,__crt_stdio_output::string_output_adapter<wchar_t>,__crt_stdio_output::format_validation_base<wchar_t,__crt_stdio_output::string_output_adapter<wchar_t> > >::narrow_null_string()
FUNC 290fc 8 0 __crt_stdio_output::output_processor<wchar_t,__crt_stdio_output::string_output_adapter<wchar_t>,__crt_stdio_output::positional_parameter_base<wchar_t,__crt_stdio_output::string_output_adapter<wchar_t> > >::narrow_null_string()
FUNC 29108 8 0 __crt_stdio_output::output_processor<wchar_t,__crt_stdio_output::string_output_adapter<wchar_t>,__crt_stdio_output::standard_base<wchar_t,__crt_stdio_output::string_output_adapter<wchar_t> > >::narrow_null_string()
FUNC 29114 a1 0 __crt_stdio_output::output_processor<char,__crt_stdio_output::stream_output_adapter<char>,__crt_stdio_output::format_validation_base<char,__crt_stdio_output::stream_output_adapter<char> > >::parse_int_from_format_string(int * const)
FUNC 291e0 a1 0 __crt_stdio_output::output_processor<char,__crt_stdio_output::stream_output_adapter<char>,__crt_stdio_output::positional_parameter_base<char,__crt_stdio_output::stream_output_adapter<char> > >::parse_int_from_format_string(int * const)
FUNC 292ac a1 0 __crt_stdio_output::output_processor<char,__crt_stdio_output::stream_output_adapter<char>,__crt_stdio_output::standard_base<char,__crt_stdio_output::stream_output_adapter<char> > >::parse_int_from_format_string(int * const)
FUNC 29378 a1 0 __crt_stdio_output::output_processor<char,__crt_stdio_output::string_output_adapter<char>,__crt_stdio_output::format_validation_base<char,__crt_stdio_output::string_output_adapter<char> > >::parse_int_from_format_string(int * const)
FUNC 29444 a1 0 __crt_stdio_output::output_processor<char,__crt_stdio_output::string_output_adapter<char>,__crt_stdio_output::positional_parameter_base<char,__crt_stdio_output::string_output_adapter<char> > >::parse_int_from_format_string(int * const)
FUNC 29510 a1 0 __crt_stdio_output::output_processor<char,__crt_stdio_output::string_output_adapter<char>,__crt_stdio_output::standard_base<char,__crt_stdio_output::string_output_adapter<char> > >::parse_int_from_format_string(int * const)
FUNC 295dc a3 0 __crt_stdio_output::output_processor<wchar_t,__crt_stdio_output::stream_output_adapter<wchar_t>,__crt_stdio_output::format_validation_base<wchar_t,__crt_stdio_output::stream_output_adapter<wchar_t> > >::parse_int_from_format_string(int * const)
FUNC 296a8 a3 0 __crt_stdio_output::output_processor<wchar_t,__crt_stdio_output::stream_output_adapter<wchar_t>,__crt_stdio_output::positional_parameter_base<wchar_t,__crt_stdio_output::stream_output_adapter<wchar_t> > >::parse_int_from_format_string(int * const)
FUNC 29774 a3 0 __crt_stdio_output::output_processor<wchar_t,__crt_stdio_output::stream_output_adapter<wchar_t>,__crt_stdio_output::standard_base<wchar_t,__crt_stdio_output::stream_output_adapter<wchar_t> > >::parse_int_from_format_string(int * const)
FUNC 29840 a3 0 __crt_stdio_output::output_processor<wchar_t,__crt_stdio_output::string_output_adapter<wchar_t>,__crt_stdio_output::format_validation_base<wchar_t,__crt_stdio_output::string_output_adapter<wchar_t> > >::parse_int_from_format_string(int * const)
FUNC 2990c a3 0 __crt_stdio_output::output_processor<wchar_t,__crt_stdio_output::string_output_adapter<wchar_t>,__crt_stdio_output::positional_parameter_base<wchar_t,__crt_stdio_output::string_output_adapter<wchar_t> > >::parse_int_from_format_string(int * const)
FUNC 299d8 a3 0 __crt_stdio_output::output_processor<wchar_t,__crt_stdio_output::string_output_adapter<wchar_t>,__crt_stdio_output::standard_base<wchar_t,__crt_stdio_output::string_output_adapter<wchar_t> > >::parse_int_from_format_string(int * const)
FUNC 29aa4 227 0 __crt_stdio_output::output_processor<char,__crt_stdio_output::stream_output_adapter<char>,__crt_stdio_output::format_validation_base<char,__crt_stdio_output::stream_output_adapter<char> > >::process()
FUNC 29d54 2a6 0 __crt_stdio_output::output_processor<char,__crt_stdio_output::stream_output_adapter<char>,__crt_stdio_output::positional_parameter_base<char,__crt_stdio_output::stream_output_adapter<char> > >::process()
FUNC 2a0a4 216 0 __crt_stdio_output::output_processor<char,__crt_stdio_output::stream_output_adapter<char>,__crt_stdio_output::standard_base<char,__crt_stdio_output::stream_output_adapter<char> > >::process()
FUNC 2a340 218 0 __crt_stdio_output::output_processor<char,__crt_stdio_output::string_output_adapter<char>,__crt_stdio_output::format_validation_base<char,__crt_stdio_output::string_output_adapter<char> > >::process()
FUNC 2a5e0 295 0 __crt_stdio_output::output_processor<char,__crt_stdio_output::string_output_adapter<char>,__crt_stdio_output::positional_parameter_base<char,__crt_stdio_output::string_output_adapter<char> > >::process()
FUNC 2a91c 20a 0 __crt_stdio_output::output_processor<char,__crt_stdio_output::string_output_adapter<char>,__crt_stdio_output::standard_base<char,__crt_stdio_output::string_output_adapter<char> > >::process()
FUNC 2aba8 277 0 __crt_stdio_output::output_processor<wchar_t,__crt_stdio_output::stream_output_adapter<wchar_t>,__crt_stdio_output::format_validation_base<wchar_t,__crt_stdio_output::stream_output_adapter<wchar_t> > >::process()
FUNC 2aebc 2b2 0 __crt_stdio_output::output_processor<wchar_t,__crt_stdio_output::stream_output_adapter<wchar_t>,__crt_stdio_output::positional_parameter_base<wchar_t,__crt_stdio_output::stream_output_adapter<wchar_t> > >::process()
FUNC 2b21c 26a 0 __crt_stdio_output::output_processor<wchar_t,__crt_stdio_output::stream_output_adapter<wchar_t>,__crt_stdio_output::standard_base<wchar_t,__crt_stdio_output::stream_output_adapter<wchar_t> > >::process()
FUNC 2b520 288 0 __crt_stdio_output::output_processor<wchar_t,__crt_stdio_output::string_output_adapter<wchar_t>,__crt_stdio_output::format_validation_base<wchar_t,__crt_stdio_output::string_output_adapter<wchar_t> > >::process()
FUNC 2b84c 2b2 0 __crt_stdio_output::output_processor<wchar_t,__crt_stdio_output::string_output_adapter<wchar_t>,__crt_stdio_output::positional_parameter_base<wchar_t,__crt_stdio_output::string_output_adapter<wchar_t> > >::process()
FUNC 2bbac 27b 0 __crt_stdio_output::output_processor<wchar_t,__crt_stdio_output::string_output_adapter<wchar_t>,__crt_stdio_output::standard_base<wchar_t,__crt_stdio_output::string_output_adapter<wchar_t> > >::process()
FUNC 2bec8 4 0 __crt_stdio_stream::public_stream()
FUNC 2becc 4 0 __crt_stdio_output::output_processor<char,__crt_stdio_output::stream_output_adapter<char>,__crt_stdio_output::format_validation_base<char,__crt_stdio_output::stream_output_adapter<char> > >::set_flag(unsigned int)
FUNC 2bed0 4 0 __crt_stdio_output::output_processor<char,__crt_stdio_output::stream_output_adapter<char>,__crt_stdio_output::positional_parameter_base<char,__crt_stdio_output::stream_output_adapter<char> > >::set_flag(unsigned int)
FUNC 2bed4 4 0 __crt_stdio_output::output_processor<char,__crt_stdio_output::stream_output_adapter<char>,__crt_stdio_output::standard_base<char,__crt_stdio_output::stream_output_adapter<char> > >::set_flag(unsigned int)
FUNC 2bed8 4 0 __crt_stdio_output::output_processor<char,__crt_stdio_output::string_output_adapter<char>,__crt_stdio_output::format_validation_base<char,__crt_stdio_output::string_output_adapter<char> > >::set_flag(unsigned int)
FUNC 2bedc 4 0 __crt_stdio_output::output_processor<char,__crt_stdio_output::string_output_adapter<char>,__crt_stdio_output::positional_parameter_base<char,__crt_stdio_output::string_output_adapter<char> > >::set_flag(unsigned int)
FUNC 2bee0 4 0 __crt_stdio_output::output_processor<char,__crt_stdio_output::string_output_adapter<char>,__crt_stdio_output::standard_base<char,__crt_stdio_output::string_output_adapter<char> > >::set_flag(unsigned int)
FUNC 2bee4 4 0 __crt_stdio_output::output_processor<wchar_t,__crt_stdio_output::stream_output_adapter<wchar_t>,__crt_stdio_output::format_validation_base<wchar_t,__crt_stdio_output::stream_output_adapter<wchar_t> > >::set_flag(unsigned int)
FUNC 2bee8 4 0 __crt_stdio_output::output_processor<wchar_t,__crt_stdio_output::stream_output_adapter<wchar_t>,__crt_stdio_output::positional_parameter_base<wchar_t,__crt_stdio_output::stream_output_adapter<wchar_t> > >::set_flag(unsigned int)
FUNC 2beec 4 0 __crt_stdio_output::output_processor<wchar_t,__crt_stdio_output::stream_output_adapter<wchar_t>,__crt_stdio_output::standard_base<wchar_t,__crt_stdio_output::stream_output_adapter<wchar_t> > >::set_flag(unsigned int)
FUNC 2bef0 4 0 __crt_stdio_output::output_processor<wchar_t,__crt_stdio_output::string_output_adapter<wchar_t>,__crt_stdio_output::format_validation_base<wchar_t,__crt_stdio_output::string_output_adapter<wchar_t> > >::set_flag(unsigned int)
FUNC 2bef4 4 0 __crt_stdio_output::output_processor<wchar_t,__crt_stdio_output::string_output_adapter<wchar_t>,__crt_stdio_output::positional_parameter_base<wchar_t,__crt_stdio_output::string_output_adapter<wchar_t> > >::set_flag(unsigned int)
FUNC 2bef8 4 0 __crt_stdio_output::output_processor<wchar_t,__crt_stdio_output::string_output_adapter<wchar_t>,__crt_stdio_output::standard_base<wchar_t,__crt_stdio_output::string_output_adapter<wchar_t> > >::set_flag(unsigned int)
FUNC 2befc 18 0 __crt_stdio_output::positional_parameter_base<char,__crt_stdio_output::stream_output_adapter<char> >::should_format()
FUNC 2bf1c 18 0 __crt_stdio_output::positional_parameter_base<char,__crt_stdio_output::string_output_adapter<char> >::should_format()
FUNC 2bf3c 18 0 __crt_stdio_output::positional_parameter_base<wchar_t,__crt_stdio_output::stream_output_adapter<wchar_t> >::should_format()
FUNC 2bf5c 18 0 __crt_stdio_output::positional_parameter_base<wchar_t,__crt_stdio_output::string_output_adapter<wchar_t> >::should_format()
FUNC 2bf7c 3 0 __crt_stdio_output::standard_base<char,__crt_stdio_output::stream_output_adapter<char> >::should_format()
FUNC 2bf80 3 0 __crt_stdio_output::standard_base<char,__crt_stdio_output::string_output_adapter<char> >::should_format()
FUNC 2bf84 3 0 __crt_stdio_output::standard_base<wchar_t,__crt_stdio_output::stream_output_adapter<wchar_t> >::should_format()
FUNC 2bf88 3 0 __crt_stdio_output::standard_base<wchar_t,__crt_stdio_output::string_output_adapter<wchar_t> >::should_format()
FUNC 2bf8c 28 0 __crt_stdio_output::positional_parameter_base<char,__crt_stdio_output::stream_output_adapter<char> >::should_skip_normal_state_processing()
FUNC 2bfc0 28 0 __crt_stdio_output::positional_parameter_base<char,__crt_stdio_output::string_output_adapter<char> >::should_skip_normal_state_processing()
FUNC 2bff4 28 0 __crt_stdio_output::positional_parameter_base<wchar_t,__crt_stdio_output::stream_output_adapter<wchar_t> >::should_skip_normal_state_processing()
FUNC 2c028 28 0 __crt_stdio_output::positional_parameter_base<wchar_t,__crt_stdio_output::string_output_adapter<wchar_t> >::should_skip_normal_state_processing()
FUNC 2c05c 3 0 __crt_stdio_output::standard_base<char,__crt_stdio_output::stream_output_adapter<char> >::should_skip_normal_state_processing()
FUNC 2c060 3 0 __crt_stdio_output::standard_base<char,__crt_stdio_output::string_output_adapter<char> >::should_skip_normal_state_processing()
FUNC 2c064 3 0 __crt_stdio_output::standard_base<wchar_t,__crt_stdio_output::stream_output_adapter<wchar_t> >::should_skip_normal_state_processing()
FUNC 2c068 3 0 __crt_stdio_output::standard_base<wchar_t,__crt_stdio_output::string_output_adapter<wchar_t> >::should_skip_normal_state_processing()
FUNC 2c06c 19 0 __crt_stdio_output::positional_parameter_base<char,__crt_stdio_output::stream_output_adapter<char> >::should_skip_type_state_output()
FUNC 2c08c 19 0 __crt_stdio_output::positional_parameter_base<char,__crt_stdio_output::string_output_adapter<char> >::should_skip_type_state_output()
FUNC 2c0ac 19 0 __crt_stdio_output::positional_parameter_base<wchar_t,__crt_stdio_output::stream_output_adapter<wchar_t> >::should_skip_type_state_output()
FUNC 2c0cc 19 0 __crt_stdio_output::positional_parameter_base<wchar_t,__crt_stdio_output::string_output_adapter<wchar_t> >::should_skip_type_state_output()
FUNC 2c0ec 3 0 __crt_stdio_output::standard_base<char,__crt_stdio_output::stream_output_adapter<char> >::should_skip_type_state_output()
FUNC 2c0f0 3 0 __crt_stdio_output::standard_base<char,__crt_stdio_output::string_output_adapter<char> >::should_skip_type_state_output()
FUNC 2c0f4 3 0 __crt_stdio_output::standard_base<wchar_t,__crt_stdio_output::stream_output_adapter<wchar_t> >::should_skip_type_state_output()
FUNC 2c0f8 3 0 __crt_stdio_output::standard_base<wchar_t,__crt_stdio_output::string_output_adapter<wchar_t> >::should_skip_type_state_output()
FUNC 2c0fc 7 0 __crt_stdio_output::output_processor<char,__crt_stdio_output::stream_output_adapter<char>,__crt_stdio_output::format_validation_base<char,__crt_stdio_output::stream_output_adapter<char> > >::state_case_dot()
FUNC 2c104 7 0 __crt_stdio_output::output_processor<char,__crt_stdio_output::stream_output_adapter<char>,__crt_stdio_output::positional_parameter_base<char,__crt_stdio_output::stream_output_adapter<char> > >::state_case_dot()
FUNC 2c10c 7 0 __crt_stdio_output::output_processor<char,__crt_stdio_output::stream_output_adapter<char>,__crt_stdio_output::standard_base<char,__crt_stdio_output::stream_output_adapter<char> > >::state_case_dot()
FUNC 2c114 7 0 __crt_stdio_output::output_processor<char,__crt_stdio_output::string_output_adapter<char>,__crt_stdio_output::format_validation_base<char,__crt_stdio_output::string_output_adapter<char> > >::state_case_dot()
FUNC 2c11c 7 0 __crt_stdio_output::output_processor<char,__crt_stdio_output::string_output_adapter<char>,__crt_stdio_output::positional_parameter_base<char,__crt_stdio_output::string_output_adapter<char> > >::state_case_dot()
FUNC 2c124 7 0 __crt_stdio_output::output_processor<char,__crt_stdio_output::string_output_adapter<char>,__crt_stdio_output::standard_base<char,__crt_stdio_output::string_output_adapter<char> > >::state_case_dot()
FUNC 2c12c 7 0 __crt_stdio_output::output_processor<wchar_t,__crt_stdio_output::stream_output_adapter<wchar_t>,__crt_stdio_output::format_validation_base<wchar_t,__crt_stdio_output::stream_output_adapter<wchar_t> > >::state_case_dot()
FUNC 2c134 7 0 __crt_stdio_output::output_processor<wchar_t,__crt_stdio_output::stream_output_adapter<wchar_t>,__crt_stdio_output::positional_parameter_base<wchar_t,__crt_stdio_output::stream_output_adapter<wchar_t> > >::state_case_dot()
FUNC 2c13c 7 0 __crt_stdio_output::output_processor<wchar_t,__crt_stdio_output::stream_output_adapter<wchar_t>,__crt_stdio_output::standard_base<wchar_t,__crt_stdio_output::stream_output_adapter<wchar_t> > >::state_case_dot()
FUNC 2c144 7 0 __crt_stdio_output::output_processor<wchar_t,__crt_stdio_output::string_output_adapter<wchar_t>,__crt_stdio_output::format_validation_base<wchar_t,__crt_stdio_output::string_output_adapter<wchar_t> > >::state_case_dot()
FUNC 2c14c 7 0 __crt_stdio_output::output_processor<wchar_t,__crt_stdio_output::string_output_adapter<wchar_t>,__crt_stdio_output::positional_parameter_base<wchar_t,__crt_stdio_output::string_output_adapter<wchar_t> > >::state_case_dot()
FUNC 2c154 7 0 __crt_stdio_output::output_processor<wchar_t,__crt_stdio_output::string_output_adapter<wchar_t>,__crt_stdio_output::standard_base<wchar_t,__crt_stdio_output::string_output_adapter<wchar_t> > >::state_case_dot()
FUNC 2c15c 36 0 __crt_stdio_output::output_processor<char,__crt_stdio_output::stream_output_adapter<char>,__crt_stdio_output::format_validation_base<char,__crt_stdio_output::stream_output_adapter<char> > >::state_case_flag()
FUNC 2c1a0 36 0 __crt_stdio_output::output_processor<char,__crt_stdio_output::stream_output_adapter<char>,__crt_stdio_output::positional_parameter_base<char,__crt_stdio_output::stream_output_adapter<char> > >::state_case_flag()
FUNC 2c1e4 36 0 __crt_stdio_output::output_processor<char,__crt_stdio_output::stream_output_adapter<char>,__crt_stdio_output::standard_base<char,__crt_stdio_output::stream_output_adapter<char> > >::state_case_flag()
FUNC 2c228 36 0 __crt_stdio_output::output_processor<char,__crt_stdio_output::string_output_adapter<char>,__crt_stdio_output::format_validation_base<char,__crt_stdio_output::string_output_adapter<char> > >::state_case_flag()
FUNC 2c26c 36 0 __crt_stdio_output::output_processor<char,__crt_stdio_output::string_output_adapter<char>,__crt_stdio_output::positional_parameter_base<char,__crt_stdio_output::string_output_adapter<char> > >::state_case_flag()
FUNC 2c2b0 36 0 __crt_stdio_output::output_processor<char,__crt_stdio_output::string_output_adapter<char>,__crt_stdio_output::standard_base<char,__crt_stdio_output::string_output_adapter<char> > >::state_case_flag()
FUNC 2c2f4 44 0 __crt_stdio_output::output_processor<wchar_t,__crt_stdio_output::stream_output_adapter<wchar_t>,__crt_stdio_output::format_validation_base<wchar_t,__crt_stdio_output::stream_output_adapter<wchar_t> > >::state_case_flag()
FUNC 2c34c 44 0 __crt_stdio_output::output_processor<wchar_t,__crt_stdio_output::stream_output_adapter<wchar_t>,__crt_stdio_output::positional_parameter_base<wchar_t,__crt_stdio_output::stream_output_adapter<wchar_t> > >::state_case_flag()
FUNC 2c3a4 44 0 __crt_stdio_output::output_processor<wchar_t,__crt_stdio_output::stream_output_adapter<wchar_t>,__crt_stdio_output::standard_base<wchar_t,__crt_stdio_output::stream_output_adapter<wchar_t> > >::state_case_flag()
FUNC 2c3fc 44 0 __crt_stdio_output::output_processor<wchar_t,__crt_stdio_output::string_output_adapter<wchar_t>,__crt_stdio_output::format_validation_base<wchar_t,__crt_stdio_output::string_output_adapter<wchar_t> > >::state_case_flag()
FUNC 2c454 44 0 __crt_stdio_output::output_processor<wchar_t,__crt_stdio_output::string_output_adapter<wchar_t>,__crt_stdio_output::positional_parameter_base<wchar_t,__crt_stdio_output::string_output_adapter<wchar_t> > >::state_case_flag()
FUNC 2c4ac 44 0 __crt_stdio_output::output_processor<wchar_t,__crt_stdio_output::string_output_adapter<wchar_t>,__crt_stdio_output::standard_base<wchar_t,__crt_stdio_output::string_output_adapter<wchar_t> > >::state_case_flag()
FUNC 2c504 70 0 __crt_stdio_output::output_processor<char,__crt_stdio_output::stream_output_adapter<char>,__crt_stdio_output::format_validation_base<char,__crt_stdio_output::stream_output_adapter<char> > >::state_case_normal()
FUNC 2c590 94 0 __crt_stdio_output::output_processor<char,__crt_stdio_output::stream_output_adapter<char>,__crt_stdio_output::positional_parameter_base<char,__crt_stdio_output::stream_output_adapter<char> > >::state_case_normal()
FUNC 2c64c 70 0 __crt_stdio_output::output_processor<char,__crt_stdio_output::stream_output_adapter<char>,__crt_stdio_output::standard_base<char,__crt_stdio_output::stream_output_adapter<char> > >::state_case_normal()
FUNC 2c6d8 74 0 __crt_stdio_output::output_processor<char,__crt_stdio_output::string_output_adapter<char>,__crt_stdio_output::format_validation_base<char,__crt_stdio_output::string_output_adapter<char> > >::state_case_normal()
FUNC 2c76c 98 0 __crt_stdio_output::output_processor<char,__crt_stdio_output::string_output_adapter<char>,__crt_stdio_output::positional_parameter_base<char,__crt_stdio_output::string_output_adapter<char> > >::state_case_normal()
FUNC 2c82c 74 0 __crt_stdio_output::output_processor<char,__crt_stdio_output::string_output_adapter<char>,__crt_stdio_output::standard_base<char,__crt_stdio_output::string_output_adapter<char> > >::state_case_normal()
FUNC 2c8c0 58 0 __crt_stdio_output::output_processor<wchar_t,__crt_stdio_output::stream_output_adapter<wchar_t>,__crt_stdio_output::format_validation_base<wchar_t,__crt_stdio_output::stream_output_adapter<wchar_t> > >::state_case_normal()
FUNC 2c930 7c 0 __crt_stdio_output::output_processor<wchar_t,__crt_stdio_output::stream_output_adapter<wchar_t>,__crt_stdio_output::positional_parameter_base<wchar_t,__crt_stdio_output::stream_output_adapter<wchar_t> > >::state_case_normal()
FUNC 2c9cc 58 0 __crt_stdio_output::output_processor<wchar_t,__crt_stdio_output::stream_output_adapter<wchar_t>,__crt_stdio_output::standard_base<wchar_t,__crt_stdio_output::stream_output_adapter<wchar_t> > >::state_case_normal()
FUNC 2ca3c 54 0 __crt_stdio_output::output_processor<wchar_t,__crt_stdio_output::string_output_adapter<wchar_t>,__crt_stdio_output::format_validation_base<wchar_t,__crt_stdio_output::string_output_adapter<wchar_t> > >::state_case_normal()
FUNC 2caa8 78 0 __crt_stdio_output::output_processor<wchar_t,__crt_stdio_output::string_output_adapter<wchar_t>,__crt_stdio_output::positional_parameter_base<wchar_t,__crt_stdio_output::string_output_adapter<wchar_t> > >::state_case_normal()
FUNC 2cb40 54 0 __crt_stdio_output::output_processor<wchar_t,__crt_stdio_output::string_output_adapter<wchar_t>,__crt_stdio_output::standard_base<wchar_t,__crt_stdio_output::string_output_adapter<wchar_t> > >::state_case_normal()
FUNC 2cbac 5c 0 __crt_stdio_output::output_processor<char,__crt_stdio_output::stream_output_adapter<char>,__crt_stdio_output::format_validation_base<char,__crt_stdio_output::stream_output_adapter<char> > >::state_case_normal_common()
FUNC 2cc20 5c 0 __crt_stdio_output::output_processor<char,__crt_stdio_output::stream_output_adapter<char>,__crt_stdio_output::positional_parameter_base<char,__crt_stdio_output::stream_output_adapter<char> > >::state_case_normal_common()
FUNC 2cc94 5c 0 __crt_stdio_output::output_processor<char,__crt_stdio_output::stream_output_adapter<char>,__crt_stdio_output::standard_base<char,__crt_stdio_output::stream_output_adapter<char> > >::state_case_normal_common()
FUNC 2cd08 60 0 __crt_stdio_output::output_processor<char,__crt_stdio_output::string_output_adapter<char>,__crt_stdio_output::format_validation_base<char,__crt_stdio_output::string_output_adapter<char> > >::state_case_normal_common()
FUNC 2cd80 60 0 __crt_stdio_output::output_processor<char,__crt_stdio_output::string_output_adapter<char>,__crt_stdio_output::positional_parameter_base<char,__crt_stdio_output::string_output_adapter<char> > >::state_case_normal_common()
FUNC 2cdf8 60 0 __crt_stdio_output::output_processor<char,__crt_stdio_output::string_output_adapter<char>,__crt_stdio_output::standard_base<char,__crt_stdio_output::string_output_adapter<char> > >::state_case_normal_common()
FUNC 2ce70 58 0 __crt_stdio_output::output_processor<wchar_t,__crt_stdio_output::stream_output_adapter<wchar_t>,__crt_stdio_output::format_validation_base<wchar_t,__crt_stdio_output::stream_output_adapter<wchar_t> > >::state_case_normal_common()
FUNC 2cee0 58 0 __crt_stdio_output::output_processor<wchar_t,__crt_stdio_output::stream_output_adapter<wchar_t>,__crt_stdio_output::positional_parameter_base<wchar_t,__crt_stdio_output::stream_output_adapter<wchar_t> > >::state_case_normal_common()
FUNC 2cf50 58 0 __crt_stdio_output::output_processor<wchar_t,__crt_stdio_output::stream_output_adapter<wchar_t>,__crt_stdio_output::standard_base<wchar_t,__crt_stdio_output::stream_output_adapter<wchar_t> > >::state_case_normal_common()
FUNC 2cfc0 54 0 __crt_stdio_output::output_processor<wchar_t,__crt_stdio_output::string_output_adapter<wchar_t>,__crt_stdio_output::format_validation_base<wchar_t,__crt_stdio_output::string_output_adapter<wchar_t> > >::state_case_normal_common()
FUNC 2d02c 54 0 __crt_stdio_output::output_processor<wchar_t,__crt_stdio_output::string_output_adapter<wchar_t>,__crt_stdio_output::positional_parameter_base<wchar_t,__crt_stdio_output::string_output_adapter<wchar_t> > >::state_case_normal_common()
FUNC 2d098 54 0 __crt_stdio_output::output_processor<wchar_t,__crt_stdio_output::string_output_adapter<wchar_t>,__crt_stdio_output::standard_base<wchar_t,__crt_stdio_output::string_output_adapter<wchar_t> > >::state_case_normal_common()
FUNC 2d104 a2 0 __crt_stdio_output::output_processor<char,__crt_stdio_output::stream_output_adapter<char>,__crt_stdio_output::format_validation_base<char,__crt_stdio_output::stream_output_adapter<char> > >::state_case_normal_tchar(char)
FUNC 2d1d0 a2 0 __crt_stdio_output::output_processor<char,__crt_stdio_output::stream_output_adapter<char>,__crt_stdio_output::positional_parameter_base<char,__crt_stdio_output::stream_output_adapter<char> > >::state_case_normal_tchar(char)
FUNC 2d29c a2 0 __crt_stdio_output::output_processor<char,__crt_stdio_output::stream_output_adapter<char>,__crt_stdio_output::standard_base<char,__crt_stdio_output::stream_output_adapter<char> > >::state_case_normal_tchar(char)
FUNC 2d368 a8 0 __crt_stdio_output::output_processor<char,__crt_stdio_output::string_output_adapter<char>,__crt_stdio_output::format_validation_base<char,__crt_stdio_output::string_output_adapter<char> > >::state_case_normal_tchar(char)
FUNC 2d43c a8 0 __crt_stdio_output::output_processor<char,__crt_stdio_output::string_output_adapter<char>,__crt_stdio_output::positional_parameter_base<char,__crt_stdio_output::string_output_adapter<char> > >::state_case_normal_tchar(char)
FUNC 2d510 a8 0 __crt_stdio_output::output_processor<char,__crt_stdio_output::string_output_adapter<char>,__crt_stdio_output::standard_base<char,__crt_stdio_output::string_output_adapter<char> > >::state_case_normal_tchar(char)
FUNC 2d5e4 7 0 __crt_stdio_output::output_processor<wchar_t,__crt_stdio_output::stream_output_adapter<wchar_t>,__crt_stdio_output::format_validation_base<wchar_t,__crt_stdio_output::stream_output_adapter<wchar_t> > >::state_case_normal_tchar(wchar_t)
FUNC 2d5ec 7 0 __crt_stdio_output::output_processor<wchar_t,__crt_stdio_output::stream_output_adapter<wchar_t>,__crt_stdio_output::positional_parameter_base<wchar_t,__crt_stdio_output::stream_output_adapter<wchar_t> > >::state_case_normal_tchar(wchar_t)
FUNC 2d5f4 7 0 __crt_stdio_output::output_processor<wchar_t,__crt_stdio_output::stream_output_adapter<wchar_t>,__crt_stdio_output::standard_base<wchar_t,__crt_stdio_output::stream_output_adapter<wchar_t> > >::state_case_normal_tchar(wchar_t)
FUNC 2d5fc 7 0 __crt_stdio_output::output_processor<wchar_t,__crt_stdio_output::string_output_adapter<wchar_t>,__crt_stdio_output::format_validation_base<wchar_t,__crt_stdio_output::string_output_adapter<wchar_t> > >::state_case_normal_tchar(wchar_t)
FUNC 2d604 7 0 __crt_stdio_output::output_processor<wchar_t,__crt_stdio_output::string_output_adapter<wchar_t>,__crt_stdio_output::positional_parameter_base<wchar_t,__crt_stdio_output::string_output_adapter<wchar_t> > >::state_case_normal_tchar(wchar_t)
FUNC 2d60c 7 0 __crt_stdio_output::output_processor<wchar_t,__crt_stdio_output::string_output_adapter<wchar_t>,__crt_stdio_output::standard_base<wchar_t,__crt_stdio_output::string_output_adapter<wchar_t> > >::state_case_normal_tchar(wchar_t)
FUNC 2d614 16 0 __crt_stdio_output::output_processor<char,__crt_stdio_output::stream_output_adapter<char>,__crt_stdio_output::format_validation_base<char,__crt_stdio_output::stream_output_adapter<char> > >::state_case_percent()
FUNC 2d630 16 0 __crt_stdio_output::output_processor<char,__crt_stdio_output::stream_output_adapter<char>,__crt_stdio_output::positional_parameter_base<char,__crt_stdio_output::stream_output_adapter<char> > >::state_case_percent()
FUNC 2d64c 16 0 __crt_stdio_output::output_processor<char,__crt_stdio_output::stream_output_adapter<char>,__crt_stdio_output::standard_base<char,__crt_stdio_output::stream_output_adapter<char> > >::state_case_percent()
FUNC 2d668 16 0 __crt_stdio_output::output_processor<char,__crt_stdio_output::string_output_adapter<char>,__crt_stdio_output::format_validation_base<char,__crt_stdio_output::string_output_adapter<char> > >::state_case_percent()
FUNC 2d684 16 0 __crt_stdio_output::output_processor<char,__crt_stdio_output::string_output_adapter<char>,__crt_stdio_output::positional_parameter_base<char,__crt_stdio_output::string_output_adapter<char> > >::state_case_percent()
FUNC 2d6a0 16 0 __crt_stdio_output::output_processor<char,__crt_stdio_output::string_output_adapter<char>,__crt_stdio_output::standard_base<char,__crt_stdio_output::string_output_adapter<char> > >::state_case_percent()
FUNC 2d6bc 16 0 __crt_stdio_output::output_processor<wchar_t,__crt_stdio_output::stream_output_adapter<wchar_t>,__crt_stdio_output::format_validation_base<wchar_t,__crt_stdio_output::stream_output_adapter<wchar_t> > >::state_case_percent()
FUNC 2d6d8 16 0 __crt_stdio_output::output_processor<wchar_t,__crt_stdio_output::stream_output_adapter<wchar_t>,__crt_stdio_output::positional_parameter_base<wchar_t,__crt_stdio_output::stream_output_adapter<wchar_t> > >::state_case_percent()
FUNC 2d6f4 16 0 __crt_stdio_output::output_processor<wchar_t,__crt_stdio_output::stream_output_adapter<wchar_t>,__crt_stdio_output::standard_base<wchar_t,__crt_stdio_output::stream_output_adapter<wchar_t> > >::state_case_percent()
FUNC 2d710 16 0 __crt_stdio_output::output_processor<wchar_t,__crt_stdio_output::string_output_adapter<wchar_t>,__crt_stdio_output::format_validation_base<wchar_t,__crt_stdio_output::string_output_adapter<wchar_t> > >::state_case_percent()
FUNC 2d72c 16 0 __crt_stdio_output::output_processor<wchar_t,__crt_stdio_output::string_output_adapter<wchar_t>,__crt_stdio_output::positional_parameter_base<wchar_t,__crt_stdio_output::string_output_adapter<wchar_t> > >::state_case_percent()
FUNC 2d748 16 0 __crt_stdio_output::output_processor<wchar_t,__crt_stdio_output::string_output_adapter<wchar_t>,__crt_stdio_output::standard_base<wchar_t,__crt_stdio_output::string_output_adapter<wchar_t> > >::state_case_percent()
FUNC 2d764 27 0 __crt_stdio_output::output_processor<char,__crt_stdio_output::stream_output_adapter<char>,__crt_stdio_output::format_validation_base<char,__crt_stdio_output::stream_output_adapter<char> > >::state_case_precision()
FUNC 2d794 4a 0 __crt_stdio_output::output_processor<char,__crt_stdio_output::stream_output_adapter<char>,__crt_stdio_output::positional_parameter_base<char,__crt_stdio_output::stream_output_adapter<char> > >::state_case_precision()
FUNC 2d7f0 27 0 __crt_stdio_output::output_processor<char,__crt_stdio_output::stream_output_adapter<char>,__crt_stdio_output::standard_base<char,__crt_stdio_output::stream_output_adapter<char> > >::state_case_precision()
FUNC 2d820 27 0 __crt_stdio_output::output_processor<char,__crt_stdio_output::string_output_adapter<char>,__crt_stdio_output::format_validation_base<char,__crt_stdio_output::string_output_adapter<char> > >::state_case_precision()
FUNC 2d850 4a 0 __crt_stdio_output::output_processor<char,__crt_stdio_output::string_output_adapter<char>,__crt_stdio_output::positional_parameter_base<char,__crt_stdio_output::string_output_adapter<char> > >::state_case_precision()
FUNC 2d8ac 27 0 __crt_stdio_output::output_processor<char,__crt_stdio_output::string_output_adapter<char>,__crt_stdio_output::standard_base<char,__crt_stdio_output::string_output_adapter<char> > >::state_case_precision()
FUNC 2d8dc 28 0 __crt_stdio_output::output_processor<wchar_t,__crt_stdio_output::stream_output_adapter<wchar_t>,__crt_stdio_output::format_validation_base<wchar_t,__crt_stdio_output::stream_output_adapter<wchar_t> > >::state_case_precision()
FUNC 2d910 4b 0 __crt_stdio_output::output_processor<wchar_t,__crt_stdio_output::stream_output_adapter<wchar_t>,__crt_stdio_output::positional_parameter_base<wchar_t,__crt_stdio_output::stream_output_adapter<wchar_t> > >::state_case_precision()
FUNC 2d970 28 0 __crt_stdio_output::output_processor<wchar_t,__crt_stdio_output::stream_output_adapter<wchar_t>,__crt_stdio_output::standard_base<wchar_t,__crt_stdio_output::stream_output_adapter<wchar_t> > >::state_case_precision()
FUNC 2d9a4 28 0 __crt_stdio_output::output_processor<wchar_t,__crt_stdio_output::string_output_adapter<wchar_t>,__crt_stdio_output::format_validation_base<wchar_t,__crt_stdio_output::string_output_adapter<wchar_t> > >::state_case_precision()
FUNC 2d9d8 4b 0 __crt_stdio_output::output_processor<wchar_t,__crt_stdio_output::string_output_adapter<wchar_t>,__crt_stdio_output::positional_parameter_base<wchar_t,__crt_stdio_output::string_output_adapter<wchar_t> > >::state_case_precision()
FUNC 2da38 28 0 __crt_stdio_output::output_processor<wchar_t,__crt_stdio_output::string_output_adapter<wchar_t>,__crt_stdio_output::standard_base<wchar_t,__crt_stdio_output::string_output_adapter<wchar_t> > >::state_case_precision()
FUNC 2da6c 171 0 __crt_stdio_output::output_processor<char,__crt_stdio_output::stream_output_adapter<char>,__crt_stdio_output::format_validation_base<char,__crt_stdio_output::stream_output_adapter<char> > >::state_case_size()
FUNC 2dc3c 171 0 __crt_stdio_output::output_processor<char,__crt_stdio_output::stream_output_adapter<char>,__crt_stdio_output::positional_parameter_base<char,__crt_stdio_output::stream_output_adapter<char> > >::state_case_size()
FUNC 2de0c 171 0 __crt_stdio_output::output_processor<char,__crt_stdio_output::stream_output_adapter<char>,__crt_stdio_output::standard_base<char,__crt_stdio_output::stream_output_adapter<char> > >::state_case_size()
FUNC 2dfdc 171 0 __crt_stdio_output::output_processor<char,__crt_stdio_output::string_output_adapter<char>,__crt_stdio_output::format_validation_base<char,__crt_stdio_output::string_output_adapter<char> > >::state_case_size()
FUNC 2e1ac 171 0 __crt_stdio_output::output_processor<char,__crt_stdio_output::string_output_adapter<char>,__crt_stdio_output::positional_parameter_base<char,__crt_stdio_output::string_output_adapter<char> > >::state_case_size()
FUNC 2e37c 171 0 __crt_stdio_output::output_processor<char,__crt_stdio_output::string_output_adapter<char>,__crt_stdio_output::standard_base<char,__crt_stdio_output::string_output_adapter<char> > >::state_case_size()
FUNC 2e54c 196 0 __crt_stdio_output::output_processor<wchar_t,__crt_stdio_output::stream_output_adapter<wchar_t>,__crt_stdio_output::format_validation_base<wchar_t,__crt_stdio_output::stream_output_adapter<wchar_t> > >::state_case_size()
FUNC 2e748 196 0 __crt_stdio_output::output_processor<wchar_t,__crt_stdio_output::stream_output_adapter<wchar_t>,__crt_stdio_output::positional_parameter_base<wchar_t,__crt_stdio_output::stream_output_adapter<wchar_t> > >::state_case_size()
FUNC 2e944 196 0 __crt_stdio_output::output_processor<wchar_t,__crt_stdio_output::stream_output_adapter<wchar_t>,__crt_stdio_output::standard_base<wchar_t,__crt_stdio_output::stream_output_adapter<wchar_t> > >::state_case_size()
FUNC 2eb40 196 0 __crt_stdio_output::output_processor<wchar_t,__crt_stdio_output::string_output_adapter<wchar_t>,__crt_stdio_output::format_validation_base<wchar_t,__crt_stdio_output::string_output_adapter<wchar_t> > >::state_case_size()
FUNC 2ed3c 196 0 __crt_stdio_output::output_processor<wchar_t,__crt_stdio_output::string_output_adapter<wchar_t>,__crt_stdio_output::positional_parameter_base<wchar_t,__crt_stdio_output::string_output_adapter<wchar_t> > >::state_case_size()
FUNC 2ef38 196 0 __crt_stdio_output::output_processor<wchar_t,__crt_stdio_output::string_output_adapter<wchar_t>,__crt_stdio_output::standard_base<wchar_t,__crt_stdio_output::string_output_adapter<wchar_t> > >::state_case_size()
FUNC 2f134 284 0 __crt_stdio_output::output_processor<char,__crt_stdio_output::stream_output_adapter<char>,__crt_stdio_output::format_validation_base<char,__crt_stdio_output::stream_output_adapter<char> > >::state_case_type()
FUNC 2f45c 29a 0 __crt_stdio_output::output_processor<char,__crt_stdio_output::stream_output_adapter<char>,__crt_stdio_output::positional_parameter_base<char,__crt_stdio_output::stream_output_adapter<char> > >::state_case_type()
FUNC 2f79c 284 0 __crt_stdio_output::output_processor<char,__crt_stdio_output::stream_output_adapter<char>,__crt_stdio_output::standard_base<char,__crt_stdio_output::stream_output_adapter<char> > >::state_case_type()
FUNC 2fac4 266 0 __crt_stdio_output::output_processor<char,__crt_stdio_output::string_output_adapter<char>,__crt_stdio_output::format_validation_base<char,__crt_stdio_output::string_output_adapter<char> > >::state_case_type()
FUNC 2fdc4 27c 0 __crt_stdio_output::output_processor<char,__crt_stdio_output::string_output_adapter<char>,__crt_stdio_output::positional_parameter_base<char,__crt_stdio_output::string_output_adapter<char> > >::state_case_type()
FUNC 300e0 266 0 __crt_stdio_output::output_processor<char,__crt_stdio_output::string_output_adapter<char>,__crt_stdio_output::standard_base<char,__crt_stdio_output::string_output_adapter<char> > >::state_case_type()
FUNC 303e0 2dd 0 __crt_stdio_output::output_processor<wchar_t,__crt_stdio_output::stream_output_adapter<wchar_t>,__crt_stdio_output::format_validation_base<wchar_t,__crt_stdio_output::stream_output_adapter<wchar_t> > >::state_case_type()
FUNC 30774 2f3 0 __crt_stdio_output::output_processor<wchar_t,__crt_stdio_output::stream_output_adapter<wchar_t>,__crt_stdio_output::positional_parameter_base<wchar_t,__crt_stdio_output::stream_output_adapter<wchar_t> > >::state_case_type()
FUNC 30b24 2dd 0 __crt_stdio_output::output_processor<wchar_t,__crt_stdio_output::stream_output_adapter<wchar_t>,__crt_stdio_output::standard_base<wchar_t,__crt_stdio_output::stream_output_adapter<wchar_t> > >::state_case_type()
FUNC 30eb8 2ca 0 __crt_stdio_output::output_processor<wchar_t,__crt_stdio_output::string_output_adapter<wchar_t>,__crt_stdio_output::format_validation_base<wchar_t,__crt_stdio_output::string_output_adapter<wchar_t> > >::state_case_type()
FUNC 31234 2e0 0 __crt_stdio_output::output_processor<wchar_t,__crt_stdio_output::string_output_adapter<wchar_t>,__crt_stdio_output::positional_parameter_base<wchar_t,__crt_stdio_output::string_output_adapter<wchar_t> > >::state_case_type()
FUNC 315cc 2ca 0 __crt_stdio_output::output_processor<wchar_t,__crt_stdio_output::string_output_adapter<wchar_t>,__crt_stdio_output::standard_base<wchar_t,__crt_stdio_output::string_output_adapter<wchar_t> > >::state_case_type()
FUNC 31948 31 0 __crt_stdio_output::output_processor<char,__crt_stdio_output::stream_output_adapter<char>,__crt_stdio_output::format_validation_base<char,__crt_stdio_output::stream_output_adapter<char> > >::state_case_width()
FUNC 31988 50 0 __crt_stdio_output::output_processor<char,__crt_stdio_output::stream_output_adapter<char>,__crt_stdio_output::positional_parameter_base<char,__crt_stdio_output::stream_output_adapter<char> > >::state_case_width()
FUNC 319ec 31 0 __crt_stdio_output::output_processor<char,__crt_stdio_output::stream_output_adapter<char>,__crt_stdio_output::standard_base<char,__crt_stdio_output::stream_output_adapter<char> > >::state_case_width()
FUNC 31a2c 31 0 __crt_stdio_output::output_processor<char,__crt_stdio_output::string_output_adapter<char>,__crt_stdio_output::format_validation_base<char,__crt_stdio_output::string_output_adapter<char> > >::state_case_width()
FUNC 31a6c 50 0 __crt_stdio_output::output_processor<char,__crt_stdio_output::string_output_adapter<char>,__crt_stdio_output::positional_parameter_base<char,__crt_stdio_output::string_output_adapter<char> > >::state_case_width()
FUNC 31ad0 31 0 __crt_stdio_output::output_processor<char,__crt_stdio_output::string_output_adapter<char>,__crt_stdio_output::standard_base<char,__crt_stdio_output::string_output_adapter<char> > >::state_case_width()
FUNC 31b10 32 0 __crt_stdio_output::output_processor<wchar_t,__crt_stdio_output::stream_output_adapter<wchar_t>,__crt_stdio_output::format_validation_base<wchar_t,__crt_stdio_output::stream_output_adapter<wchar_t> > >::state_case_width()
FUNC 31b50 51 0 __crt_stdio_output::output_processor<wchar_t,__crt_stdio_output::stream_output_adapter<wchar_t>,__crt_stdio_output::positional_parameter_base<wchar_t,__crt_stdio_output::stream_output_adapter<wchar_t> > >::state_case_width()
FUNC 31bb8 32 0 __crt_stdio_output::output_processor<wchar_t,__crt_stdio_output::stream_output_adapter<wchar_t>,__crt_stdio_output::standard_base<wchar_t,__crt_stdio_output::stream_output_adapter<wchar_t> > >::state_case_width()
FUNC 31bf8 32 0 __crt_stdio_output::output_processor<wchar_t,__crt_stdio_output::string_output_adapter<wchar_t>,__crt_stdio_output::format_validation_base<wchar_t,__crt_stdio_output::string_output_adapter<wchar_t> > >::state_case_width()
FUNC 31c38 51 0 __crt_stdio_output::output_processor<wchar_t,__crt_stdio_output::string_output_adapter<wchar_t>,__crt_stdio_output::positional_parameter_base<wchar_t,__crt_stdio_output::string_output_adapter<wchar_t> > >::state_case_width()
FUNC 31ca0 32 0 __crt_stdio_output::output_processor<wchar_t,__crt_stdio_output::string_output_adapter<wchar_t>,__crt_stdio_output::standard_base<wchar_t,__crt_stdio_output::string_output_adapter<wchar_t> > >::state_case_width()
FUNC 31ce0 6 0 __crt_stdio_output::format_validation_base<char,__crt_stdio_output::stream_output_adapter<char> >::state_count()
FUNC 31ce8 6 0 __crt_stdio_output::format_validation_base<char,__crt_stdio_output::string_output_adapter<char> >::state_count()
FUNC 31cf0 6 0 __crt_stdio_output::format_validation_base<wchar_t,__crt_stdio_output::stream_output_adapter<wchar_t> >::state_count()
FUNC 31cf8 6 0 __crt_stdio_output::format_validation_base<wchar_t,__crt_stdio_output::string_output_adapter<wchar_t> >::state_count()
FUNC 31d00 6 0 __crt_stdio_output::standard_base<char,__crt_stdio_output::stream_output_adapter<char> >::state_count()
FUNC 31d08 6 0 __crt_stdio_output::standard_base<char,__crt_stdio_output::string_output_adapter<char> >::state_count()
FUNC 31d10 6 0 __crt_stdio_output::standard_base<wchar_t,__crt_stdio_output::stream_output_adapter<wchar_t> >::state_count()
FUNC 31d18 6 0 __crt_stdio_output::standard_base<wchar_t,__crt_stdio_output::string_output_adapter<wchar_t> >::state_count()
FUNC 31d20 8 0 __crt_stdio_output::format_validation_base<char,__crt_stdio_output::stream_output_adapter<char> >::state_transition_table()
FUNC 31d2c 8 0 __crt_stdio_output::format_validation_base<char,__crt_stdio_output::string_output_adapter<char> >::state_transition_table()
FUNC 31d38 8 0 __crt_stdio_output::format_validation_base<wchar_t,__crt_stdio_output::stream_output_adapter<wchar_t> >::state_transition_table()
FUNC 31d44 8 0 __crt_stdio_output::format_validation_base<wchar_t,__crt_stdio_output::string_output_adapter<wchar_t> >::state_transition_table()
FUNC 31d50 8 0 __crt_stdio_output::standard_base<char,__crt_stdio_output::stream_output_adapter<char> >::state_transition_table()
FUNC 31d5c 8 0 __crt_stdio_output::standard_base<char,__crt_stdio_output::string_output_adapter<char> >::state_transition_table()
FUNC 31d68 8 0 __crt_stdio_output::standard_base<wchar_t,__crt_stdio_output::stream_output_adapter<wchar_t> >::state_transition_table()
FUNC 31d74 8 0 __crt_stdio_output::standard_base<wchar_t,__crt_stdio_output::string_output_adapter<wchar_t> >::state_transition_table()
FUNC 31d80 5 0 __crt_stdio_output::common_data<char>::tchar_string(char)
FUNC 31d88 5 0 __crt_stdio_output::common_data<char>::tchar_string()
FUNC 31d90 5 0 __crt_stdio_output::common_data<wchar_t>::tchar_string()
FUNC 31d98 5 0 __crt_stdio_output::common_data<wchar_t>::tchar_string(wchar_t)
FUNC 31da0 47 0 __crt_stdio_output::to_integer_size(__crt_stdio_output::length_modifier)
FUNC 31df8 d 0 __crt_stdio_output::output_processor<char,__crt_stdio_output::stream_output_adapter<char>,__crt_stdio_output::format_validation_base<char,__crt_stdio_output::stream_output_adapter<char> > >::type_case_X()
FUNC 31e08 d 0 __crt_stdio_output::output_processor<char,__crt_stdio_output::stream_output_adapter<char>,__crt_stdio_output::positional_parameter_base<char,__crt_stdio_output::stream_output_adapter<char> > >::type_case_X()
FUNC 31e18 d 0 __crt_stdio_output::output_processor<char,__crt_stdio_output::stream_output_adapter<char>,__crt_stdio_output::standard_base<char,__crt_stdio_output::stream_output_adapter<char> > >::type_case_X()
FUNC 31e28 d 0 __crt_stdio_output::output_processor<char,__crt_stdio_output::string_output_adapter<char>,__crt_stdio_output::format_validation_base<char,__crt_stdio_output::string_output_adapter<char> > >::type_case_X()
FUNC 31e38 d 0 __crt_stdio_output::output_processor<char,__crt_stdio_output::string_output_adapter<char>,__crt_stdio_output::positional_parameter_base<char,__crt_stdio_output::string_output_adapter<char> > >::type_case_X()
FUNC 31e48 d 0 __crt_stdio_output::output_processor<char,__crt_stdio_output::string_output_adapter<char>,__crt_stdio_output::standard_base<char,__crt_stdio_output::string_output_adapter<char> > >::type_case_X()
FUNC 31e58 d 0 __crt_stdio_output::output_processor<wchar_t,__crt_stdio_output::stream_output_adapter<wchar_t>,__crt_stdio_output::format_validation_base<wchar_t,__crt_stdio_output::stream_output_adapter<wchar_t> > >::type_case_X()
FUNC 31e68 d 0 __crt_stdio_output::output_processor<wchar_t,__crt_stdio_output::stream_output_adapter<wchar_t>,__crt_stdio_output::positional_parameter_base<wchar_t,__crt_stdio_output::stream_output_adapter<wchar_t> > >::type_case_X()
FUNC 31e78 d 0 __crt_stdio_output::output_processor<wchar_t,__crt_stdio_output::stream_output_adapter<wchar_t>,__crt_stdio_output::standard_base<wchar_t,__crt_stdio_output::stream_output_adapter<wchar_t> > >::type_case_X()
FUNC 31e88 d 0 __crt_stdio_output::output_processor<wchar_t,__crt_stdio_output::string_output_adapter<wchar_t>,__crt_stdio_output::format_validation_base<wchar_t,__crt_stdio_output::string_output_adapter<wchar_t> > >::type_case_X()
FUNC 31e98 d 0 __crt_stdio_output::output_processor<wchar_t,__crt_stdio_output::string_output_adapter<wchar_t>,__crt_stdio_output::positional_parameter_base<wchar_t,__crt_stdio_output::string_output_adapter<wchar_t> > >::type_case_X()
FUNC 31ea8 d 0 __crt_stdio_output::output_processor<wchar_t,__crt_stdio_output::string_output_adapter<wchar_t>,__crt_stdio_output::standard_base<wchar_t,__crt_stdio_output::string_output_adapter<wchar_t> > >::type_case_X()
FUNC 31eb8 73 0 __crt_stdio_output::output_processor<char,__crt_stdio_output::stream_output_adapter<char>,__crt_stdio_output::format_validation_base<char,__crt_stdio_output::stream_output_adapter<char> > >::type_case_Z()
FUNC 31f48 158 0 __crt_stdio_output::output_processor<char,__crt_stdio_output::stream_output_adapter<char>,__crt_stdio_output::positional_parameter_base<char,__crt_stdio_output::stream_output_adapter<char> > >::type_case_Z()
FUNC 320f8 73 0 __crt_stdio_output::output_processor<char,__crt_stdio_output::stream_output_adapter<char>,__crt_stdio_output::standard_base<char,__crt_stdio_output::stream_output_adapter<char> > >::type_case_Z()
FUNC 32188 73 0 __crt_stdio_output::output_processor<char,__crt_stdio_output::string_output_adapter<char>,__crt_stdio_output::format_validation_base<char,__crt_stdio_output::string_output_adapter<char> > >::type_case_Z()
FUNC 32218 158 0 __crt_stdio_output::output_processor<char,__crt_stdio_output::string_output_adapter<char>,__crt_stdio_output::positional_parameter_base<char,__crt_stdio_output::string_output_adapter<char> > >::type_case_Z()
FUNC 323c8 73 0 __crt_stdio_output::output_processor<char,__crt_stdio_output::string_output_adapter<char>,__crt_stdio_output::standard_base<char,__crt_stdio_output::string_output_adapter<char> > >::type_case_Z()
FUNC 32458 79 0 __crt_stdio_output::output_processor<wchar_t,__crt_stdio_output::stream_output_adapter<wchar_t>,__crt_stdio_output::format_validation_base<wchar_t,__crt_stdio_output::stream_output_adapter<wchar_t> > >::type_case_Z()
FUNC 324f0 13e 0 __crt_stdio_output::output_processor<wchar_t,__crt_stdio_output::stream_output_adapter<wchar_t>,__crt_stdio_output::positional_parameter_base<wchar_t,__crt_stdio_output::stream_output_adapter<wchar_t> > >::type_case_Z()
FUNC 32680 79 0 __crt_stdio_output::output_processor<wchar_t,__crt_stdio_output::stream_output_adapter<wchar_t>,__crt_stdio_output::standard_base<wchar_t,__crt_stdio_output::stream_output_adapter<wchar_t> > >::type_case_Z()
FUNC 32718 79 0 __crt_stdio_output::output_processor<wchar_t,__crt_stdio_output::string_output_adapter<wchar_t>,__crt_stdio_output::format_validation_base<wchar_t,__crt_stdio_output::string_output_adapter<wchar_t> > >::type_case_Z()
FUNC 327b0 13e 0 __crt_stdio_output::output_processor<wchar_t,__crt_stdio_output::string_output_adapter<wchar_t>,__crt_stdio_output::positional_parameter_base<wchar_t,__crt_stdio_output::string_output_adapter<wchar_t> > >::type_case_Z()
FUNC 32940 79 0 __crt_stdio_output::output_processor<wchar_t,__crt_stdio_output::string_output_adapter<wchar_t>,__crt_stdio_output::standard_base<wchar_t,__crt_stdio_output::string_output_adapter<wchar_t> > >::type_case_Z()
FUNC 329d8 215 0 __crt_stdio_output::output_processor<char,__crt_stdio_output::stream_output_adapter<char>,__crt_stdio_output::format_validation_base<char,__crt_stdio_output::stream_output_adapter<char> > >::type_case_a()
FUNC 32c74 252 0 __crt_stdio_output::output_processor<char,__crt_stdio_output::stream_output_adapter<char>,__crt_stdio_output::positional_parameter_base<char,__crt_stdio_output::stream_output_adapter<char> > >::type_case_a()
FUNC 32f5c 215 0 __crt_stdio_output::output_processor<char,__crt_stdio_output::stream_output_adapter<char>,__crt_stdio_output::standard_base<char,__crt_stdio_output::stream_output_adapter<char> > >::type_case_a()
FUNC 331f8 215 0 __crt_stdio_output::output_processor<char,__crt_stdio_output::string_output_adapter<char>,__crt_stdio_output::format_validation_base<char,__crt_stdio_output::string_output_adapter<char> > >::type_case_a()
FUNC 33494 252 0 __crt_stdio_output::output_processor<char,__crt_stdio_output::string_output_adapter<char>,__crt_stdio_output::positional_parameter_base<char,__crt_stdio_output::string_output_adapter<char> > >::type_case_a()
FUNC 3377c 215 0 __crt_stdio_output::output_processor<char,__crt_stdio_output::string_output_adapter<char>,__crt_stdio_output::standard_base<char,__crt_stdio_output::string_output_adapter<char> > >::type_case_a()
FUNC 33a18 239 0 __crt_stdio_output::output_processor<wchar_t,__crt_stdio_output::stream_output_adapter<wchar_t>,__crt_stdio_output::format_validation_base<wchar_t,__crt_stdio_output::stream_output_adapter<wchar_t> > >::type_case_a()
FUNC 33ce0 276 0 __crt_stdio_output::output_processor<wchar_t,__crt_stdio_output::stream_output_adapter<wchar_t>,__crt_stdio_output::positional_parameter_base<wchar_t,__crt_stdio_output::stream_output_adapter<wchar_t> > >::type_case_a()
FUNC 33ff4 239 0 __crt_stdio_output::output_processor<wchar_t,__crt_stdio_output::stream_output_adapter<wchar_t>,__crt_stdio_output::standard_base<wchar_t,__crt_stdio_output::stream_output_adapter<wchar_t> > >::type_case_a()
FUNC 342bc 239 0 __crt_stdio_output::output_processor<wchar_t,__crt_stdio_output::string_output_adapter<wchar_t>,__crt_stdio_output::format_validation_base<wchar_t,__crt_stdio_output::string_output_adapter<wchar_t> > >::type_case_a()
FUNC 34584 276 0 __crt_stdio_output::output_processor<wchar_t,__crt_stdio_output::string_output_adapter<wchar_t>,__crt_stdio_output::positional_parameter_base<wchar_t,__crt_stdio_output::string_output_adapter<wchar_t> > >::type_case_a()
FUNC 34898 239 0 __crt_stdio_output::output_processor<wchar_t,__crt_stdio_output::string_output_adapter<wchar_t>,__crt_stdio_output::standard_base<wchar_t,__crt_stdio_output::string_output_adapter<wchar_t> > >::type_case_a()
FUNC 34b60 7 0 __crt_stdio_output::output_processor<char,__crt_stdio_output::stream_output_adapter<char>,__crt_stdio_output::format_validation_base<char,__crt_stdio_output::stream_output_adapter<char> > >::type_case_c()
FUNC 34b68 7 0 __crt_stdio_output::output_processor<char,__crt_stdio_output::stream_output_adapter<char>,__crt_stdio_output::positional_parameter_base<char,__crt_stdio_output::stream_output_adapter<char> > >::type_case_c()
FUNC 34b70 7 0 __crt_stdio_output::output_processor<char,__crt_stdio_output::stream_output_adapter<char>,__crt_stdio_output::standard_base<char,__crt_stdio_output::stream_output_adapter<char> > >::type_case_c()
FUNC 34b78 7 0 __crt_stdio_output::output_processor<char,__crt_stdio_output::string_output_adapter<char>,__crt_stdio_output::format_validation_base<char,__crt_stdio_output::string_output_adapter<char> > >::type_case_c()
FUNC 34b80 7 0 __crt_stdio_output::output_processor<char,__crt_stdio_output::string_output_adapter<char>,__crt_stdio_output::positional_parameter_base<char,__crt_stdio_output::string_output_adapter<char> > >::type_case_c()
FUNC 34b88 7 0 __crt_stdio_output::output_processor<char,__crt_stdio_output::string_output_adapter<char>,__crt_stdio_output::standard_base<char,__crt_stdio_output::string_output_adapter<char> > >::type_case_c()
FUNC 34b90 7 0 __crt_stdio_output::output_processor<wchar_t,__crt_stdio_output::stream_output_adapter<wchar_t>,__crt_stdio_output::format_validation_base<wchar_t,__crt_stdio_output::stream_output_adapter<wchar_t> > >::type_case_c()
FUNC 34b98 7 0 __crt_stdio_output::output_processor<wchar_t,__crt_stdio_output::stream_output_adapter<wchar_t>,__crt_stdio_output::positional_parameter_base<wchar_t,__crt_stdio_output::stream_output_adapter<wchar_t> > >::type_case_c()
FUNC 34ba0 7 0 __crt_stdio_output::output_processor<wchar_t,__crt_stdio_output::stream_output_adapter<wchar_t>,__crt_stdio_output::standard_base<wchar_t,__crt_stdio_output::stream_output_adapter<wchar_t> > >::type_case_c()
FUNC 34ba8 7 0 __crt_stdio_output::output_processor<wchar_t,__crt_stdio_output::string_output_adapter<wchar_t>,__crt_stdio_output::format_validation_base<wchar_t,__crt_stdio_output::string_output_adapter<wchar_t> > >::type_case_c()
FUNC 34bb0 7 0 __crt_stdio_output::output_processor<wchar_t,__crt_stdio_output::string_output_adapter<wchar_t>,__crt_stdio_output::positional_parameter_base<wchar_t,__crt_stdio_output::string_output_adapter<wchar_t> > >::type_case_c()
FUNC 34bb8 7 0 __crt_stdio_output::output_processor<wchar_t,__crt_stdio_output::string_output_adapter<wchar_t>,__crt_stdio_output::standard_base<wchar_t,__crt_stdio_output::string_output_adapter<wchar_t> > >::type_case_c()
FUNC 34bc0 bc 0 __crt_stdio_output::output_processor<char,__crt_stdio_output::stream_output_adapter<char>,__crt_stdio_output::format_validation_base<char,__crt_stdio_output::stream_output_adapter<char> > >::type_case_c_tchar(char)
FUNC 34cac ff 0 __crt_stdio_output::output_processor<char,__crt_stdio_output::stream_output_adapter<char>,__crt_stdio_output::positional_parameter_base<char,__crt_stdio_output::stream_output_adapter<char> > >::type_case_c_tchar(char)
FUNC 34dec bc 0 __crt_stdio_output::output_processor<char,__crt_stdio_output::stream_output_adapter<char>,__crt_stdio_output::standard_base<char,__crt_stdio_output::stream_output_adapter<char> > >::type_case_c_tchar(char)
FUNC 34ed8 bc 0 __crt_stdio_output::output_processor<char,__crt_stdio_output::string_output_adapter<char>,__crt_stdio_output::format_validation_base<char,__crt_stdio_output::string_output_adapter<char> > >::type_case_c_tchar(char)
FUNC 34fc4 ff 0 __crt_stdio_output::output_processor<char,__crt_stdio_output::string_output_adapter<char>,__crt_stdio_output::positional_parameter_base<char,__crt_stdio_output::string_output_adapter<char> > >::type_case_c_tchar(char)
FUNC 35104 bc 0 __crt_stdio_output::output_processor<char,__crt_stdio_output::string_output_adapter<char>,__crt_stdio_output::standard_base<char,__crt_stdio_output::string_output_adapter<char> > >::type_case_c_tchar(char)
FUNC 351f0 a6 0 __crt_stdio_output::output_processor<wchar_t,__crt_stdio_output::stream_output_adapter<wchar_t>,__crt_stdio_output::format_validation_base<wchar_t,__crt_stdio_output::stream_output_adapter<wchar_t> > >::type_case_c_tchar(wchar_t)
FUNC 352c0 cc 0 __crt_stdio_output::output_processor<wchar_t,__crt_stdio_output::stream_output_adapter<wchar_t>,__crt_stdio_output::positional_parameter_base<wchar_t,__crt_stdio_output::stream_output_adapter<wchar_t> > >::type_case_c_tchar(wchar_t)
FUNC 353c0 a6 0 __crt_stdio_output::output_processor<wchar_t,__crt_stdio_output::stream_output_adapter<wchar_t>,__crt_stdio_output::standard_base<wchar_t,__crt_stdio_output::stream_output_adapter<wchar_t> > >::type_case_c_tchar(wchar_t)
FUNC 35490 a6 0 __crt_stdio_output::output_processor<wchar_t,__crt_stdio_output::string_output_adapter<wchar_t>,__crt_stdio_output::format_validation_base<wchar_t,__crt_stdio_output::string_output_adapter<wchar_t> > >::type_case_c_tchar(wchar_t)
FUNC 35560 cc 0 __crt_stdio_output::output_processor<wchar_t,__crt_stdio_output::string_output_adapter<wchar_t>,__crt_stdio_output::positional_parameter_base<wchar_t,__crt_stdio_output::string_output_adapter<wchar_t> > >::type_case_c_tchar(wchar_t)
FUNC 35660 a6 0 __crt_stdio_output::output_processor<wchar_t,__crt_stdio_output::string_output_adapter<wchar_t>,__crt_stdio_output::standard_base<wchar_t,__crt_stdio_output::string_output_adapter<wchar_t> > >::type_case_c_tchar(wchar_t)
FUNC 35730 10 0 __crt_stdio_output::output_processor<char,__crt_stdio_output::stream_output_adapter<char>,__crt_stdio_output::format_validation_base<char,__crt_stdio_output::stream_output_adapter<char> > >::type_case_d()
FUNC 35744 10 0 __crt_stdio_output::output_processor<char,__crt_stdio_output::stream_output_adapter<char>,__crt_stdio_output::positional_parameter_base<char,__crt_stdio_output::stream_output_adapter<char> > >::type_case_d()
FUNC 35758 10 0 __crt_stdio_output::output_processor<char,__crt_stdio_output::stream_output_adapter<char>,__crt_stdio_output::standard_base<char,__crt_stdio_output::stream_output_adapter<char> > >::type_case_d()
FUNC 3576c 10 0 __crt_stdio_output::output_processor<char,__crt_stdio_output::string_output_adapter<char>,__crt_stdio_output::format_validation_base<char,__crt_stdio_output::string_output_adapter<char> > >::type_case_d()
FUNC 35780 10 0 __crt_stdio_output::output_processor<char,__crt_stdio_output::string_output_adapter<char>,__crt_stdio_output::positional_parameter_base<char,__crt_stdio_output::string_output_adapter<char> > >::type_case_d()
FUNC 35794 10 0 __crt_stdio_output::output_processor<char,__crt_stdio_output::string_output_adapter<char>,__crt_stdio_output::standard_base<char,__crt_stdio_output::string_output_adapter<char> > >::type_case_d()
FUNC 357a8 10 0 __crt_stdio_output::output_processor<wchar_t,__crt_stdio_output::stream_output_adapter<wchar_t>,__crt_stdio_output::format_validation_base<wchar_t,__crt_stdio_output::stream_output_adapter<wchar_t> > >::type_case_d()
FUNC 357bc 10 0 __crt_stdio_output::output_processor<wchar_t,__crt_stdio_output::stream_output_adapter<wchar_t>,__crt_stdio_output::positional_parameter_base<wchar_t,__crt_stdio_output::stream_output_adapter<wchar_t> > >::type_case_d()
FUNC 357d0 10 0 __crt_stdio_output::output_processor<wchar_t,__crt_stdio_output::stream_output_adapter<wchar_t>,__crt_stdio_output::standard_base<wchar_t,__crt_stdio_output::stream_output_adapter<wchar_t> > >::type_case_d()
FUNC 357e4 10 0 __crt_stdio_output::output_processor<wchar_t,__crt_stdio_output::string_output_adapter<wchar_t>,__crt_stdio_output::format_validation_base<wchar_t,__crt_stdio_output::string_output_adapter<wchar_t> > >::type_case_d()
FUNC 357f8 10 0 __crt_stdio_output::output_processor<wchar_t,__crt_stdio_output::string_output_adapter<wchar_t>,__crt_stdio_output::positional_parameter_base<wchar_t,__crt_stdio_output::string_output_adapter<wchar_t> > >::type_case_d()
FUNC 3580c 10 0 __crt_stdio_output::output_processor<wchar_t,__crt_stdio_output::string_output_adapter<wchar_t>,__crt_stdio_output::standard_base<wchar_t,__crt_stdio_output::string_output_adapter<wchar_t> > >::type_case_d()
FUNC 35820 1c5 0 __crt_stdio_output::output_processor<char,__crt_stdio_output::stream_output_adapter<char>,__crt_stdio_output::format_validation_base<char,__crt_stdio_output::stream_output_adapter<char> > >::type_case_integer(unsigned int,bool)
FUNC 35a58 202 0 __crt_stdio_output::output_processor<char,__crt_stdio_output::stream_output_adapter<char>,__crt_stdio_output::positional_parameter_base<char,__crt_stdio_output::stream_output_adapter<char> > >::type_case_integer(unsigned int,bool)
FUNC 35cdc 1c5 0 __crt_stdio_output::output_processor<char,__crt_stdio_output::stream_output_adapter<char>,__crt_stdio_output::standard_base<char,__crt_stdio_output::stream_output_adapter<char> > >::type_case_integer(unsigned int,bool)
FUNC 35f14 1c5 0 __crt_stdio_output::output_processor<char,__crt_stdio_output::string_output_adapter<char>,__crt_stdio_output::format_validation_base<char,__crt_stdio_output::string_output_adapter<char> > >::type_case_integer(unsigned int,bool)
FUNC 3614c 202 0 __crt_stdio_output::output_processor<char,__crt_stdio_output::string_output_adapter<char>,__crt_stdio_output::positional_parameter_base<char,__crt_stdio_output::string_output_adapter<char> > >::type_case_integer(unsigned int,bool)
FUNC 363d0 1c5 0 __crt_stdio_output::output_processor<char,__crt_stdio_output::string_output_adapter<char>,__crt_stdio_output::standard_base<char,__crt_stdio_output::string_output_adapter<char> > >::type_case_integer(unsigned int,bool)
FUNC 36608 1cb 0 __crt_stdio_output::output_processor<wchar_t,__crt_stdio_output::stream_output_adapter<wchar_t>,__crt_stdio_output::format_validation_base<wchar_t,__crt_stdio_output::stream_output_adapter<wchar_t> > >::type_case_integer(unsigned int,bool)
FUNC 36848 208 0 __crt_stdio_output::output_processor<wchar_t,__crt_stdio_output::stream_output_adapter<wchar_t>,__crt_stdio_output::positional_parameter_base<wchar_t,__crt_stdio_output::stream_output_adapter<wchar_t> > >::type_case_integer(unsigned int,bool)
FUNC 36ad4 1cb 0 __crt_stdio_output::output_processor<wchar_t,__crt_stdio_output::stream_output_adapter<wchar_t>,__crt_stdio_output::standard_base<wchar_t,__crt_stdio_output::stream_output_adapter<wchar_t> > >::type_case_integer(unsigned int,bool)
FUNC 36d14 1cb 0 __crt_stdio_output::output_processor<wchar_t,__crt_stdio_output::string_output_adapter<wchar_t>,__crt_stdio_output::format_validation_base<wchar_t,__crt_stdio_output::string_output_adapter<wchar_t> > >::type_case_integer(unsigned int,bool)
FUNC 36f54 208 0 __crt_stdio_output::output_processor<wchar_t,__crt_stdio_output::string_output_adapter<wchar_t>,__crt_stdio_output::positional_parameter_base<wchar_t,__crt_stdio_output::string_output_adapter<wchar_t> > >::type_case_integer(unsigned int,bool)
FUNC 371e0 1cb 0 __crt_stdio_output::output_processor<wchar_t,__crt_stdio_output::string_output_adapter<wchar_t>,__crt_stdio_output::standard_base<wchar_t,__crt_stdio_output::string_output_adapter<wchar_t> > >::type_case_integer(unsigned int,bool)
FUNC 37420 db 0 __crt_stdio_output::output_processor<char,__crt_stdio_output::stream_output_adapter<char>,__crt_stdio_output::format_validation_base<char,__crt_stdio_output::stream_output_adapter<char> > >::type_case_n()
FUNC 37534 104 0 __crt_stdio_output::output_processor<char,__crt_stdio_output::stream_output_adapter<char>,__crt_stdio_output::positional_parameter_base<char,__crt_stdio_output::stream_output_adapter<char> > >::type_case_n()
FUNC 3767c db 0 __crt_stdio_output::output_processor<char,__crt_stdio_output::stream_output_adapter<char>,__crt_stdio_output::standard_base<char,__crt_stdio_output::stream_output_adapter<char> > >::type_case_n()
FUNC 37790 db 0 __crt_stdio_output::output_processor<char,__crt_stdio_output::string_output_adapter<char>,__crt_stdio_output::format_validation_base<char,__crt_stdio_output::string_output_adapter<char> > >::type_case_n()
FUNC 378a4 104 0 __crt_stdio_output::output_processor<char,__crt_stdio_output::string_output_adapter<char>,__crt_stdio_output::positional_parameter_base<char,__crt_stdio_output::string_output_adapter<char> > >::type_case_n()
FUNC 379ec db 0 __crt_stdio_output::output_processor<char,__crt_stdio_output::string_output_adapter<char>,__crt_stdio_output::standard_base<char,__crt_stdio_output::string_output_adapter<char> > >::type_case_n()
FUNC 37b00 db 0 __crt_stdio_output::output_processor<wchar_t,__crt_stdio_output::stream_output_adapter<wchar_t>,__crt_stdio_output::format_validation_base<wchar_t,__crt_stdio_output::stream_output_adapter<wchar_t> > >::type_case_n()
FUNC 37c14 104 0 __crt_stdio_output::output_processor<wchar_t,__crt_stdio_output::stream_output_adapter<wchar_t>,__crt_stdio_output::positional_parameter_base<wchar_t,__crt_stdio_output::stream_output_adapter<wchar_t> > >::type_case_n()
FUNC 37d5c db 0 __crt_stdio_output::output_processor<wchar_t,__crt_stdio_output::stream_output_adapter<wchar_t>,__crt_stdio_output::standard_base<wchar_t,__crt_stdio_output::stream_output_adapter<wchar_t> > >::type_case_n()
FUNC 37e70 db 0 __crt_stdio_output::output_processor<wchar_t,__crt_stdio_output::string_output_adapter<wchar_t>,__crt_stdio_output::format_validation_base<wchar_t,__crt_stdio_output::string_output_adapter<wchar_t> > >::type_case_n()
FUNC 37f84 104 0 __crt_stdio_output::output_processor<wchar_t,__crt_stdio_output::string_output_adapter<wchar_t>,__crt_stdio_output::positional_parameter_base<wchar_t,__crt_stdio_output::string_output_adapter<wchar_t> > >::type_case_n()
FUNC 380cc db 0 __crt_stdio_output::output_processor<wchar_t,__crt_stdio_output::string_output_adapter<wchar_t>,__crt_stdio_output::standard_base<wchar_t,__crt_stdio_output::string_output_adapter<wchar_t> > >::type_case_n()
FUNC 381e0 1f 0 __crt_stdio_output::output_processor<char,__crt_stdio_output::stream_output_adapter<char>,__crt_stdio_output::format_validation_base<char,__crt_stdio_output::stream_output_adapter<char> > >::type_case_o()
FUNC 38208 1f 0 __crt_stdio_output::output_processor<char,__crt_stdio_output::stream_output_adapter<char>,__crt_stdio_output::positional_parameter_base<char,__crt_stdio_output::stream_output_adapter<char> > >::type_case_o()
FUNC 38230 1f 0 __crt_stdio_output::output_processor<char,__crt_stdio_output::stream_output_adapter<char>,__crt_stdio_output::standard_base<char,__crt_stdio_output::stream_output_adapter<char> > >::type_case_o()
FUNC 38258 1f 0 __crt_stdio_output::output_processor<char,__crt_stdio_output::string_output_adapter<char>,__crt_stdio_output::format_validation_base<char,__crt_stdio_output::string_output_adapter<char> > >::type_case_o()
FUNC 38280 1f 0 __crt_stdio_output::output_processor<char,__crt_stdio_output::string_output_adapter<char>,__crt_stdio_output::positional_parameter_base<char,__crt_stdio_output::string_output_adapter<char> > >::type_case_o()
FUNC 382a8 1f 0 __crt_stdio_output::output_processor<char,__crt_stdio_output::string_output_adapter<char>,__crt_stdio_output::standard_base<char,__crt_stdio_output::string_output_adapter<char> > >::type_case_o()
FUNC 382d0 1f 0 __crt_stdio_output::output_processor<wchar_t,__crt_stdio_output::stream_output_adapter<wchar_t>,__crt_stdio_output::format_validation_base<wchar_t,__crt_stdio_output::stream_output_adapter<wchar_t> > >::type_case_o()
FUNC 382f8 1f 0 __crt_stdio_output::output_processor<wchar_t,__crt_stdio_output::stream_output_adapter<wchar_t>,__crt_stdio_output::positional_parameter_base<wchar_t,__crt_stdio_output::stream_output_adapter<wchar_t> > >::type_case_o()
FUNC 38320 1f 0 __crt_stdio_output::output_processor<wchar_t,__crt_stdio_output::stream_output_adapter<wchar_t>,__crt_stdio_output::standard_base<wchar_t,__crt_stdio_output::stream_output_adapter<wchar_t> > >::type_case_o()
FUNC 38348 1f 0 __crt_stdio_output::output_processor<wchar_t,__crt_stdio_output::string_output_adapter<wchar_t>,__crt_stdio_output::format_validation_base<wchar_t,__crt_stdio_output::string_output_adapter<wchar_t> > >::type_case_o()
FUNC 38370 1f 0 __crt_stdio_output::output_processor<wchar_t,__crt_stdio_output::string_output_adapter<wchar_t>,__crt_stdio_output::positional_parameter_base<wchar_t,__crt_stdio_output::string_output_adapter<wchar_t> > >::type_case_o()
FUNC 38398 1f 0 __crt_stdio_output::output_processor<wchar_t,__crt_stdio_output::string_output_adapter<wchar_t>,__crt_stdio_output::standard_base<wchar_t,__crt_stdio_output::string_output_adapter<wchar_t> > >::type_case_o()
FUNC 383c0 17 0 __crt_stdio_output::output_processor<char,__crt_stdio_output::stream_output_adapter<char>,__crt_stdio_output::format_validation_base<char,__crt_stdio_output::stream_output_adapter<char> > >::type_case_p()
FUNC 383dc 17 0 __crt_stdio_output::output_processor<char,__crt_stdio_output::stream_output_adapter<char>,__crt_stdio_output::positional_parameter_base<char,__crt_stdio_output::stream_output_adapter<char> > >::type_case_p()
FUNC 383f8 17 0 __crt_stdio_output::output_processor<char,__crt_stdio_output::stream_output_adapter<char>,__crt_stdio_output::standard_base<char,__crt_stdio_output::stream_output_adapter<char> > >::type_case_p()
FUNC 38414 17 0 __crt_stdio_output::output_processor<char,__crt_stdio_output::string_output_adapter<char>,__crt_stdio_output::format_validation_base<char,__crt_stdio_output::string_output_adapter<char> > >::type_case_p()
FUNC 38430 17 0 __crt_stdio_output::output_processor<char,__crt_stdio_output::string_output_adapter<char>,__crt_stdio_output::positional_parameter_base<char,__crt_stdio_output::string_output_adapter<char> > >::type_case_p()
FUNC 3844c 17 0 __crt_stdio_output::output_processor<char,__crt_stdio_output::string_output_adapter<char>,__crt_stdio_output::standard_base<char,__crt_stdio_output::string_output_adapter<char> > >::type_case_p()
FUNC 38468 17 0 __crt_stdio_output::output_processor<wchar_t,__crt_stdio_output::stream_output_adapter<wchar_t>,__crt_stdio_output::format_validation_base<wchar_t,__crt_stdio_output::stream_output_adapter<wchar_t> > >::type_case_p()
FUNC 38484 17 0 __crt_stdio_output::output_processor<wchar_t,__crt_stdio_output::stream_output_adapter<wchar_t>,__crt_stdio_output::positional_parameter_base<wchar_t,__crt_stdio_output::stream_output_adapter<wchar_t> > >::type_case_p()
FUNC 384a0 17 0 __crt_stdio_output::output_processor<wchar_t,__crt_stdio_output::stream_output_adapter<wchar_t>,__crt_stdio_output::standard_base<wchar_t,__crt_stdio_output::stream_output_adapter<wchar_t> > >::type_case_p()
FUNC 384bc 17 0 __crt_stdio_output::output_processor<wchar_t,__crt_stdio_output::string_output_adapter<wchar_t>,__crt_stdio_output::format_validation_base<wchar_t,__crt_stdio_output::string_output_adapter<wchar_t> > >::type_case_p()
FUNC 384d8 17 0 __crt_stdio_output::output_processor<wchar_t,__crt_stdio_output::string_output_adapter<wchar_t>,__crt_stdio_output::positional_parameter_base<wchar_t,__crt_stdio_output::string_output_adapter<wchar_t> > >::type_case_p()
FUNC 384f4 17 0 __crt_stdio_output::output_processor<wchar_t,__crt_stdio_output::string_output_adapter<wchar_t>,__crt_stdio_output::standard_base<wchar_t,__crt_stdio_output::string_output_adapter<wchar_t> > >::type_case_p()
FUNC 38510 96 0 __crt_stdio_output::output_processor<char,__crt_stdio_output::stream_output_adapter<char>,__crt_stdio_output::format_validation_base<char,__crt_stdio_output::stream_output_adapter<char> > >::type_case_s()
FUNC 385cc b5 0 __crt_stdio_output::output_processor<char,__crt_stdio_output::stream_output_adapter<char>,__crt_stdio_output::positional_parameter_base<char,__crt_stdio_output::stream_output_adapter<char> > >::type_case_s()
FUNC 386b0 96 0 __crt_stdio_output::output_processor<char,__crt_stdio_output::stream_output_adapter<char>,__crt_stdio_output::standard_base<char,__crt_stdio_output::stream_output_adapter<char> > >::type_case_s()
FUNC 3876c 96 0 __crt_stdio_output::output_processor<char,__crt_stdio_output::string_output_adapter<char>,__crt_stdio_output::format_validation_base<char,__crt_stdio_output::string_output_adapter<char> > >::type_case_s()
FUNC 38828 b5 0 __crt_stdio_output::output_processor<char,__crt_stdio_output::string_output_adapter<char>,__crt_stdio_output::positional_parameter_base<char,__crt_stdio_output::string_output_adapter<char> > >::type_case_s()
FUNC 3890c 96 0 __crt_stdio_output::output_processor<char,__crt_stdio_output::string_output_adapter<char>,__crt_stdio_output::standard_base<char,__crt_stdio_output::string_output_adapter<char> > >::type_case_s()
FUNC 389c8 c7 0 __crt_stdio_output::output_processor<wchar_t,__crt_stdio_output::stream_output_adapter<wchar_t>,__crt_stdio_output::format_validation_base<wchar_t,__crt_stdio_output::stream_output_adapter<wchar_t> > >::type_case_s()
FUNC 38ac0 e9 0 __crt_stdio_output::output_processor<wchar_t,__crt_stdio_output::stream_output_adapter<wchar_t>,__crt_stdio_output::positional_parameter_base<wchar_t,__crt_stdio_output::stream_output_adapter<wchar_t> > >::type_case_s()
FUNC 38be4 c7 0 __crt_stdio_output::output_processor<wchar_t,__crt_stdio_output::stream_output_adapter<wchar_t>,__crt_stdio_output::standard_base<wchar_t,__crt_stdio_output::stream_output_adapter<wchar_t> > >::type_case_s()
FUNC 38cdc c7 0 __crt_stdio_output::output_processor<wchar_t,__crt_stdio_output::string_output_adapter<wchar_t>,__crt_stdio_output::format_validation_base<wchar_t,__crt_stdio_output::string_output_adapter<wchar_t> > >::type_case_s()
FUNC 38dd4 e9 0 __crt_stdio_output::output_processor<wchar_t,__crt_stdio_output::string_output_adapter<wchar_t>,__crt_stdio_output::positional_parameter_base<wchar_t,__crt_stdio_output::string_output_adapter<wchar_t> > >::type_case_s()
FUNC 38ef8 c7 0 __crt_stdio_output::output_processor<wchar_t,__crt_stdio_output::string_output_adapter<wchar_t>,__crt_stdio_output::standard_base<wchar_t,__crt_stdio_output::string_output_adapter<wchar_t> > >::type_case_s()
FUNC 38ff0 c 0 __crt_stdio_output::output_processor<char,__crt_stdio_output::stream_output_adapter<char>,__crt_stdio_output::format_validation_base<char,__crt_stdio_output::stream_output_adapter<char> > >::type_case_s_compute_narrow_string_length(int,char)
FUNC 39000 c 0 __crt_stdio_output::output_processor<char,__crt_stdio_output::stream_output_adapter<char>,__crt_stdio_output::positional_parameter_base<char,__crt_stdio_output::stream_output_adapter<char> > >::type_case_s_compute_narrow_string_length(int,char)
FUNC 39010 c 0 __crt_stdio_output::output_processor<char,__crt_stdio_output::stream_output_adapter<char>,__crt_stdio_output::standard_base<char,__crt_stdio_output::stream_output_adapter<char> > >::type_case_s_compute_narrow_string_length(int,char)
FUNC 39020 c 0 __crt_stdio_output::output_processor<char,__crt_stdio_output::string_output_adapter<char>,__crt_stdio_output::format_validation_base<char,__crt_stdio_output::string_output_adapter<char> > >::type_case_s_compute_narrow_string_length(int,char)
FUNC 39030 c 0 __crt_stdio_output::output_processor<char,__crt_stdio_output::string_output_adapter<char>,__crt_stdio_output::positional_parameter_base<char,__crt_stdio_output::string_output_adapter<char> > >::type_case_s_compute_narrow_string_length(int,char)
FUNC 39040 c 0 __crt_stdio_output::output_processor<char,__crt_stdio_output::string_output_adapter<char>,__crt_stdio_output::standard_base<char,__crt_stdio_output::string_output_adapter<char> > >::type_case_s_compute_narrow_string_length(int,char)
FUNC 39050 53 0 __crt_stdio_output::output_processor<wchar_t,__crt_stdio_output::stream_output_adapter<wchar_t>,__crt_stdio_output::format_validation_base<wchar_t,__crt_stdio_output::stream_output_adapter<wchar_t> > >::type_case_s_compute_narrow_string_length(int,wchar_t)
FUNC 390b8 53 0 __crt_stdio_output::output_processor<wchar_t,__crt_stdio_output::stream_output_adapter<wchar_t>,__crt_stdio_output::positional_parameter_base<wchar_t,__crt_stdio_output::stream_output_adapter<wchar_t> > >::type_case_s_compute_narrow_string_length(int,wchar_t)
FUNC 39120 53 0 __crt_stdio_output::output_processor<wchar_t,__crt_stdio_output::stream_output_adapter<wchar_t>,__crt_stdio_output::standard_base<wchar_t,__crt_stdio_output::stream_output_adapter<wchar_t> > >::type_case_s_compute_narrow_string_length(int,wchar_t)
FUNC 39188 53 0 __crt_stdio_output::output_processor<wchar_t,__crt_stdio_output::string_output_adapter<wchar_t>,__crt_stdio_output::format_validation_base<wchar_t,__crt_stdio_output::string_output_adapter<wchar_t> > >::type_case_s_compute_narrow_string_length(int,wchar_t)
FUNC 391f0 53 0 __crt_stdio_output::output_processor<wchar_t,__crt_stdio_output::string_output_adapter<wchar_t>,__crt_stdio_output::positional_parameter_base<wchar_t,__crt_stdio_output::string_output_adapter<wchar_t> > >::type_case_s_compute_narrow_string_length(int,wchar_t)
FUNC 39258 53 0 __crt_stdio_output::output_processor<wchar_t,__crt_stdio_output::string_output_adapter<wchar_t>,__crt_stdio_output::standard_base<wchar_t,__crt_stdio_output::string_output_adapter<wchar_t> > >::type_case_s_compute_narrow_string_length(int,wchar_t)
FUNC 392c0 c 0 __crt_stdio_output::output_processor<char,__crt_stdio_output::stream_output_adapter<char>,__crt_stdio_output::format_validation_base<char,__crt_stdio_output::stream_output_adapter<char> > >::type_case_u()
FUNC 392d0 c 0 __crt_stdio_output::output_processor<char,__crt_stdio_output::stream_output_adapter<char>,__crt_stdio_output::positional_parameter_base<char,__crt_stdio_output::stream_output_adapter<char> > >::type_case_u()
FUNC 392e0 c 0 __crt_stdio_output::output_processor<char,__crt_stdio_output::stream_output_adapter<char>,__crt_stdio_output::standard_base<char,__crt_stdio_output::stream_output_adapter<char> > >::type_case_u()
FUNC 392f0 c 0 __crt_stdio_output::output_processor<char,__crt_stdio_output::string_output_adapter<char>,__crt_stdio_output::format_validation_base<char,__crt_stdio_output::string_output_adapter<char> > >::type_case_u()
FUNC 39300 c 0 __crt_stdio_output::output_processor<char,__crt_stdio_output::string_output_adapter<char>,__crt_stdio_output::positional_parameter_base<char,__crt_stdio_output::string_output_adapter<char> > >::type_case_u()
FUNC 39310 c 0 __crt_stdio_output::output_processor<char,__crt_stdio_output::string_output_adapter<char>,__crt_stdio_output::standard_base<char,__crt_stdio_output::string_output_adapter<char> > >::type_case_u()
FUNC 39320 c 0 __crt_stdio_output::output_processor<wchar_t,__crt_stdio_output::stream_output_adapter<wchar_t>,__crt_stdio_output::format_validation_base<wchar_t,__crt_stdio_output::stream_output_adapter<wchar_t> > >::type_case_u()
FUNC 39330 c 0 __crt_stdio_output::output_processor<wchar_t,__crt_stdio_output::stream_output_adapter<wchar_t>,__crt_stdio_output::positional_parameter_base<wchar_t,__crt_stdio_output::stream_output_adapter<wchar_t> > >::type_case_u()
FUNC 39340 c 0 __crt_stdio_output::output_processor<wchar_t,__crt_stdio_output::stream_output_adapter<wchar_t>,__crt_stdio_output::standard_base<wchar_t,__crt_stdio_output::stream_output_adapter<wchar_t> > >::type_case_u()
FUNC 39350 c 0 __crt_stdio_output::output_processor<wchar_t,__crt_stdio_output::string_output_adapter<wchar_t>,__crt_stdio_output::format_validation_base<wchar_t,__crt_stdio_output::string_output_adapter<wchar_t> > >::type_case_u()
FUNC 39360 c 0 __crt_stdio_output::output_processor<wchar_t,__crt_stdio_output::string_output_adapter<wchar_t>,__crt_stdio_output::positional_parameter_base<wchar_t,__crt_stdio_output::string_output_adapter<wchar_t> > >::type_case_u()
FUNC 39370 c 0 __crt_stdio_output::output_processor<wchar_t,__crt_stdio_output::string_output_adapter<wchar_t>,__crt_stdio_output::standard_base<wchar_t,__crt_stdio_output::string_output_adapter<wchar_t> > >::type_case_u()
FUNC 39380 c 0 __crt_stdio_output::output_processor<char,__crt_stdio_output::stream_output_adapter<char>,__crt_stdio_output::format_validation_base<char,__crt_stdio_output::stream_output_adapter<char> > >::type_case_x()
FUNC 39390 c 0 __crt_stdio_output::output_processor<char,__crt_stdio_output::stream_output_adapter<char>,__crt_stdio_output::positional_parameter_base<char,__crt_stdio_output::stream_output_adapter<char> > >::type_case_x()
FUNC 393a0 c 0 __crt_stdio_output::output_processor<char,__crt_stdio_output::stream_output_adapter<char>,__crt_stdio_output::standard_base<char,__crt_stdio_output::stream_output_adapter<char> > >::type_case_x()
FUNC 393b0 c 0 __crt_stdio_output::output_processor<char,__crt_stdio_output::string_output_adapter<char>,__crt_stdio_output::format_validation_base<char,__crt_stdio_output::string_output_adapter<char> > >::type_case_x()
FUNC 393c0 c 0 __crt_stdio_output::output_processor<char,__crt_stdio_output::string_output_adapter<char>,__crt_stdio_output::positional_parameter_base<char,__crt_stdio_output::string_output_adapter<char> > >::type_case_x()
FUNC 393d0 c 0 __crt_stdio_output::output_processor<char,__crt_stdio_output::string_output_adapter<char>,__crt_stdio_output::standard_base<char,__crt_stdio_output::string_output_adapter<char> > >::type_case_x()
FUNC 393e0 c 0 __crt_stdio_output::output_processor<wchar_t,__crt_stdio_output::stream_output_adapter<wchar_t>,__crt_stdio_output::format_validation_base<wchar_t,__crt_stdio_output::stream_output_adapter<wchar_t> > >::type_case_x()
FUNC 393f0 c 0 __crt_stdio_output::output_processor<wchar_t,__crt_stdio_output::stream_output_adapter<wchar_t>,__crt_stdio_output::positional_parameter_base<wchar_t,__crt_stdio_output::stream_output_adapter<wchar_t> > >::type_case_x()
FUNC 39400 c 0 __crt_stdio_output::output_processor<wchar_t,__crt_stdio_output::stream_output_adapter<wchar_t>,__crt_stdio_output::standard_base<wchar_t,__crt_stdio_output::stream_output_adapter<wchar_t> > >::type_case_x()
FUNC 39410 c 0 __crt_stdio_output::output_processor<wchar_t,__crt_stdio_output::string_output_adapter<wchar_t>,__crt_stdio_output::format_validation_base<wchar_t,__crt_stdio_output::string_output_adapter<wchar_t> > >::type_case_x()
FUNC 39420 c 0 __crt_stdio_output::output_processor<wchar_t,__crt_stdio_output::string_output_adapter<wchar_t>,__crt_stdio_output::positional_parameter_base<wchar_t,__crt_stdio_output::string_output_adapter<wchar_t> > >::type_case_x()
FUNC 39430 c 0 __crt_stdio_output::output_processor<wchar_t,__crt_stdio_output::string_output_adapter<wchar_t>,__crt_stdio_output::standard_base<wchar_t,__crt_stdio_output::string_output_adapter<wchar_t> > >::type_case_x()
FUNC 39440 6 0 __crt_stdio_output::output_processor<char,__crt_stdio_output::stream_output_adapter<char>,__crt_stdio_output::format_validation_base<char,__crt_stdio_output::stream_output_adapter<char> > >::unset_flag(unsigned int)
FUNC 39448 6 0 __crt_stdio_output::output_processor<char,__crt_stdio_output::stream_output_adapter<char>,__crt_stdio_output::positional_parameter_base<char,__crt_stdio_output::stream_output_adapter<char> > >::unset_flag(unsigned int)
FUNC 39450 6 0 __crt_stdio_output::output_processor<char,__crt_stdio_output::stream_output_adapter<char>,__crt_stdio_output::standard_base<char,__crt_stdio_output::stream_output_adapter<char> > >::unset_flag(unsigned int)
FUNC 39458 6 0 __crt_stdio_output::output_processor<char,__crt_stdio_output::string_output_adapter<char>,__crt_stdio_output::format_validation_base<char,__crt_stdio_output::string_output_adapter<char> > >::unset_flag(unsigned int)
FUNC 39460 6 0 __crt_stdio_output::output_processor<char,__crt_stdio_output::string_output_adapter<char>,__crt_stdio_output::positional_parameter_base<char,__crt_stdio_output::string_output_adapter<char> > >::unset_flag(unsigned int)
FUNC 39468 6 0 __crt_stdio_output::output_processor<char,__crt_stdio_output::string_output_adapter<char>,__crt_stdio_output::standard_base<char,__crt_stdio_output::string_output_adapter<char> > >::unset_flag(unsigned int)
FUNC 39470 6 0 __crt_stdio_output::output_processor<wchar_t,__crt_stdio_output::stream_output_adapter<wchar_t>,__crt_stdio_output::format_validation_base<wchar_t,__crt_stdio_output::stream_output_adapter<wchar_t> > >::unset_flag(unsigned int)
FUNC 39478 6 0 __crt_stdio_output::output_processor<wchar_t,__crt_stdio_output::stream_output_adapter<wchar_t>,__crt_stdio_output::positional_parameter_base<wchar_t,__crt_stdio_output::stream_output_adapter<wchar_t> > >::unset_flag(unsigned int)
FUNC 39480 6 0 __crt_stdio_output::output_processor<wchar_t,__crt_stdio_output::stream_output_adapter<wchar_t>,__crt_stdio_output::standard_base<wchar_t,__crt_stdio_output::stream_output_adapter<wchar_t> > >::unset_flag(unsigned int)
FUNC 39488 6 0 __crt_stdio_output::output_processor<wchar_t,__crt_stdio_output::string_output_adapter<wchar_t>,__crt_stdio_output::format_validation_base<wchar_t,__crt_stdio_output::string_output_adapter<wchar_t> > >::unset_flag(unsigned int)
FUNC 39490 6 0 __crt_stdio_output::output_processor<wchar_t,__crt_stdio_output::string_output_adapter<wchar_t>,__crt_stdio_output::positional_parameter_base<wchar_t,__crt_stdio_output::string_output_adapter<wchar_t> > >::unset_flag(unsigned int)
FUNC 39498 6 0 __crt_stdio_output::output_processor<wchar_t,__crt_stdio_output::string_output_adapter<wchar_t>,__crt_stdio_output::standard_base<wchar_t,__crt_stdio_output::string_output_adapter<wchar_t> > >::unset_flag(unsigned int)
FUNC 394a0 115 0 __crt_stdio_output::positional_parameter_base<char,__crt_stdio_output::stream_output_adapter<char> >::update_field_width()
FUNC 395fc 115 0 __crt_stdio_output::positional_parameter_base<char,__crt_stdio_output::string_output_adapter<char> >::update_field_width()
FUNC 39758 118 0 __crt_stdio_output::positional_parameter_base<wchar_t,__crt_stdio_output::stream_output_adapter<wchar_t> >::update_field_width()
FUNC 398b8 118 0 __crt_stdio_output::positional_parameter_base<wchar_t,__crt_stdio_output::string_output_adapter<wchar_t> >::update_field_width()
FUNC 39a18 12 0 __crt_stdio_output::standard_base<char,__crt_stdio_output::stream_output_adapter<char> >::update_field_width()
FUNC 39a30 12 0 __crt_stdio_output::standard_base<char,__crt_stdio_output::string_output_adapter<char> >::update_field_width()
FUNC 39a48 12 0 __crt_stdio_output::standard_base<wchar_t,__crt_stdio_output::stream_output_adapter<wchar_t> >::update_field_width()
FUNC 39a60 12 0 __crt_stdio_output::standard_base<wchar_t,__crt_stdio_output::string_output_adapter<wchar_t> >::update_field_width()
FUNC 39a78 115 0 __crt_stdio_output::positional_parameter_base<char,__crt_stdio_output::stream_output_adapter<char> >::update_precision()
FUNC 39bd4 115 0 __crt_stdio_output::positional_parameter_base<char,__crt_stdio_output::string_output_adapter<char> >::update_precision()
FUNC 39d30 118 0 __crt_stdio_output::positional_parameter_base<wchar_t,__crt_stdio_output::stream_output_adapter<wchar_t> >::update_precision()
FUNC 39e90 118 0 __crt_stdio_output::positional_parameter_base<wchar_t,__crt_stdio_output::string_output_adapter<wchar_t> >::update_precision()
FUNC 39ff0 12 0 __crt_stdio_output::standard_base<char,__crt_stdio_output::stream_output_adapter<char> >::update_precision()
FUNC 3a008 12 0 __crt_stdio_output::standard_base<char,__crt_stdio_output::string_output_adapter<char> >::update_precision()
FUNC 3a020 12 0 __crt_stdio_output::standard_base<wchar_t,__crt_stdio_output::stream_output_adapter<wchar_t> >::update_precision()
FUNC 3a038 12 0 __crt_stdio_output::standard_base<wchar_t,__crt_stdio_output::string_output_adapter<wchar_t> >::update_precision()
FUNC 3a050 8 0 __crt_stdio_stream::valid()
FUNC 3a05c 2c 0 __crt_stdio_output::stream_output_adapter<char>::validate()
FUNC 3a094 25 0 __crt_stdio_output::stream_output_adapter<wchar_t>::validate()
FUNC 3a0c4 25 0 __crt_stdio_output::string_output_adapter<char>::validate()
FUNC 3a0f4 25 0 __crt_stdio_output::string_output_adapter<wchar_t>::validate()
FUNC 3a124 3f 0 __crt_stdio_output::positional_parameter_base<char,__crt_stdio_output::stream_output_adapter<char> >::validate_and_store_parameter_data(__crt_stdio_output::positional_parameter_base<char,__crt_stdio_output::stream_output_adapter<char> >::parameter_data &,__crt_stdio_output::positional_parameter_base<char,__crt_stdio_output::stream_output_adapter<char> >::parameter_type,char,__crt_stdio_output::length_modifier)
FUNC 3a174 3f 0 __crt_stdio_output::positional_parameter_base<char,__crt_stdio_output::string_output_adapter<char> >::validate_and_store_parameter_data(__crt_stdio_output::positional_parameter_base<char,__crt_stdio_output::string_output_adapter<char> >::parameter_data &,__crt_stdio_output::positional_parameter_base<char,__crt_stdio_output::string_output_adapter<char> >::parameter_type,char,__crt_stdio_output::length_modifier)
FUNC 3a1c4 40 0 __crt_stdio_output::positional_parameter_base<wchar_t,__crt_stdio_output::stream_output_adapter<wchar_t> >::validate_and_store_parameter_data(__crt_stdio_output::positional_parameter_base<wchar_t,__crt_stdio_output::stream_output_adapter<wchar_t> >::parameter_data &,__crt_stdio_output::positional_parameter_base<wchar_t,__crt_stdio_output::stream_output_adapter<wchar_t> >::parameter_type,wchar_t,__crt_stdio_output::length_modifier)
FUNC 3a214 40 0 __crt_stdio_output::positional_parameter_base<wchar_t,__crt_stdio_output::string_output_adapter<wchar_t> >::validate_and_store_parameter_data(__crt_stdio_output::positional_parameter_base<wchar_t,__crt_stdio_output::string_output_adapter<wchar_t> >::parameter_data &,__crt_stdio_output::positional_parameter_base<wchar_t,__crt_stdio_output::string_output_adapter<wchar_t> >::parameter_type,wchar_t,__crt_stdio_output::length_modifier)
FUNC 3a264 10b 0 __crt_stdio_output::positional_parameter_base<char,__crt_stdio_output::stream_output_adapter<char> >::validate_and_update_state_at_beginning_of_format_character()
FUNC 3a3b4 10b 0 __crt_stdio_output::positional_parameter_base<char,__crt_stdio_output::string_output_adapter<char> >::validate_and_update_state_at_beginning_of_format_character()
FUNC 3a504 114 0 __crt_stdio_output::positional_parameter_base<wchar_t,__crt_stdio_output::stream_output_adapter<wchar_t> >::validate_and_update_state_at_beginning_of_format_character()
FUNC 3a660 114 0 __crt_stdio_output::positional_parameter_base<wchar_t,__crt_stdio_output::string_output_adapter<wchar_t> >::validate_and_update_state_at_beginning_of_format_character()
FUNC 3a7bc 3 0 __crt_stdio_output::standard_base<char,__crt_stdio_output::stream_output_adapter<char> >::validate_and_update_state_at_beginning_of_format_character()
FUNC 3a7c0 3 0 __crt_stdio_output::standard_base<char,__crt_stdio_output::string_output_adapter<char> >::validate_and_update_state_at_beginning_of_format_character()
FUNC 3a7c4 3 0 __crt_stdio_output::standard_base<wchar_t,__crt_stdio_output::stream_output_adapter<wchar_t> >::validate_and_update_state_at_beginning_of_format_character()
FUNC 3a7c8 3 0 __crt_stdio_output::standard_base<wchar_t,__crt_stdio_output::string_output_adapter<wchar_t> >::validate_and_update_state_at_beginning_of_format_character()
FUNC 3a7cc 2b 0 __crt_stdio_output::format_validation_base<char,__crt_stdio_output::stream_output_adapter<char> >::validate_and_update_state_at_end_of_format_string()
FUNC 3a804 2b 0 __crt_stdio_output::format_validation_base<char,__crt_stdio_output::string_output_adapter<char> >::validate_and_update_state_at_end_of_format_string()
FUNC 3a83c 2b 0 __crt_stdio_output::format_validation_base<wchar_t,__crt_stdio_output::stream_output_adapter<wchar_t> >::validate_and_update_state_at_end_of_format_string()
FUNC 3a874 2b 0 __crt_stdio_output::format_validation_base<wchar_t,__crt_stdio_output::string_output_adapter<wchar_t> >::validate_and_update_state_at_end_of_format_string()
FUNC 3a8ac 9b 0 __crt_stdio_output::positional_parameter_base<char,__crt_stdio_output::stream_output_adapter<char> >::validate_and_update_state_at_end_of_format_string()
FUNC 3a970 9b 0 __crt_stdio_output::positional_parameter_base<char,__crt_stdio_output::string_output_adapter<char> >::validate_and_update_state_at_end_of_format_string()
FUNC 3aa34 9b 0 __crt_stdio_output::positional_parameter_base<wchar_t,__crt_stdio_output::stream_output_adapter<wchar_t> >::validate_and_update_state_at_end_of_format_string()
FUNC 3aaf8 9b 0 __crt_stdio_output::positional_parameter_base<wchar_t,__crt_stdio_output::string_output_adapter<wchar_t> >::validate_and_update_state_at_end_of_format_string()
FUNC 3abbc 3 0 __crt_stdio_output::standard_base<char,__crt_stdio_output::stream_output_adapter<char> >::validate_and_update_state_at_end_of_format_string()
FUNC 3abc0 3 0 __crt_stdio_output::standard_base<char,__crt_stdio_output::string_output_adapter<char> >::validate_and_update_state_at_end_of_format_string()
FUNC 3abc4 3 0 __crt_stdio_output::standard_base<wchar_t,__crt_stdio_output::stream_output_adapter<wchar_t> >::validate_and_update_state_at_end_of_format_string()
FUNC 3abc8 3 0 __crt_stdio_output::standard_base<wchar_t,__crt_stdio_output::string_output_adapter<wchar_t> >::validate_and_update_state_at_end_of_format_string()
FUNC 3abcc 9b 0 __crt_stdio_output::positional_parameter_base<char,__crt_stdio_output::stream_output_adapter<char> >::validate_state_for_type_case_a()
FUNC 3ac90 9b 0 __crt_stdio_output::positional_parameter_base<char,__crt_stdio_output::string_output_adapter<char> >::validate_state_for_type_case_a()
FUNC 3ad54 9d 0 __crt_stdio_output::positional_parameter_base<wchar_t,__crt_stdio_output::stream_output_adapter<wchar_t> >::validate_state_for_type_case_a()
FUNC 3ae18 9d 0 __crt_stdio_output::positional_parameter_base<wchar_t,__crt_stdio_output::string_output_adapter<wchar_t> >::validate_state_for_type_case_a()
FUNC 3aedc 3 0 __crt_stdio_output::standard_base<char,__crt_stdio_output::stream_output_adapter<char> >::validate_state_for_type_case_a()
FUNC 3aee0 3 0 __crt_stdio_output::standard_base<char,__crt_stdio_output::string_output_adapter<char> >::validate_state_for_type_case_a()
FUNC 3aee4 3 0 __crt_stdio_output::standard_base<wchar_t,__crt_stdio_output::stream_output_adapter<wchar_t> >::validate_state_for_type_case_a()
FUNC 3aee8 3 0 __crt_stdio_output::standard_base<wchar_t,__crt_stdio_output::string_output_adapter<wchar_t> >::validate_state_for_type_case_a()
FUNC 3aeec 9a 0 __acrt_stdio_char_traits<char>::validate_stream_is_ansi_if_required(_iobuf * const)
FUNC 3afac 3 0 __acrt_stdio_char_traits<wchar_t>::validate_stream_is_ansi_if_required(_iobuf * const)
FUNC 3afb0 8 0 __crt_stdio_output::output_processor<char,__crt_stdio_output::stream_output_adapter<char>,__crt_stdio_output::format_validation_base<char,__crt_stdio_output::stream_output_adapter<char> > >::wide_null_string()
FUNC 3afbc 8 0 __crt_stdio_output::output_processor<char,__crt_stdio_output::stream_output_adapter<char>,__crt_stdio_output::positional_parameter_base<char,__crt_stdio_output::stream_output_adapter<char> > >::wide_null_string()
FUNC 3afc8 8 0 __crt_stdio_output::output_processor<char,__crt_stdio_output::stream_output_adapter<char>,__crt_stdio_output::standard_base<char,__crt_stdio_output::stream_output_adapter<char> > >::wide_null_string()
FUNC 3afd4 8 0 __crt_stdio_output::output_processor<char,__crt_stdio_output::string_output_adapter<char>,__crt_stdio_output::format_validation_base<char,__crt_stdio_output::string_output_adapter<char> > >::wide_null_string()
FUNC 3afe0 8 0 __crt_stdio_output::output_processor<char,__crt_stdio_output::string_output_adapter<char>,__crt_stdio_output::positional_parameter_base<char,__crt_stdio_output::string_output_adapter<char> > >::wide_null_string()
FUNC 3afec 8 0 __crt_stdio_output::output_processor<char,__crt_stdio_output::string_output_adapter<char>,__crt_stdio_output::standard_base<char,__crt_stdio_output::string_output_adapter<char> > >::wide_null_string()
FUNC 3aff8 8 0 __crt_stdio_output::output_processor<wchar_t,__crt_stdio_output::stream_output_adapter<wchar_t>,__crt_stdio_output::format_validation_base<wchar_t,__crt_stdio_output::stream_output_adapter<wchar_t> > >::wide_null_string()
FUNC 3b004 8 0 __crt_stdio_output::output_processor<wchar_t,__crt_stdio_output::stream_output_adapter<wchar_t>,__crt_stdio_output::positional_parameter_base<wchar_t,__crt_stdio_output::stream_output_adapter<wchar_t> > >::wide_null_string()
FUNC 3b010 8 0 __crt_stdio_output::output_processor<wchar_t,__crt_stdio_output::stream_output_adapter<wchar_t>,__crt_stdio_output::standard_base<wchar_t,__crt_stdio_output::stream_output_adapter<wchar_t> > >::wide_null_string()
FUNC 3b01c 8 0 __crt_stdio_output::output_processor<wchar_t,__crt_stdio_output::string_output_adapter<wchar_t>,__crt_stdio_output::format_validation_base<wchar_t,__crt_stdio_output::string_output_adapter<wchar_t> > >::wide_null_string()
FUNC 3b028 8 0 __crt_stdio_output::output_processor<wchar_t,__crt_stdio_output::string_output_adapter<wchar_t>,__crt_stdio_output::positional_parameter_base<wchar_t,__crt_stdio_output::string_output_adapter<wchar_t> > >::wide_null_string()
FUNC 3b034 8 0 __crt_stdio_output::output_processor<wchar_t,__crt_stdio_output::string_output_adapter<wchar_t>,__crt_stdio_output::standard_base<wchar_t,__crt_stdio_output::string_output_adapter<wchar_t> > >::wide_null_string()
FUNC 3b040 48 0 __crt_stdio_output::output_adapter_common<char,__crt_stdio_output::stream_output_adapter<char> >::write_character(char,int * const)
FUNC 3b09c 4b 0 __crt_stdio_output::output_adapter_common<wchar_t,__crt_stdio_output::stream_output_adapter<wchar_t> >::write_character(wchar_t,int * const)
FUNC 3b0fc 45 0 __crt_stdio_output::string_output_adapter<char>::write_character(char,int * const)
FUNC 3b154 48 0 __crt_stdio_output::string_output_adapter<wchar_t>::write_character(wchar_t,int * const)
FUNC 3b1b0 40 0 __crt_stdio_output::stream_output_adapter<char>::write_character_without_count_update(char)
FUNC 3b200 43 0 __crt_stdio_output::stream_output_adapter<wchar_t>::write_character_without_count_update(wchar_t)
FUNC 3b254 121 0 __crt_stdio_output::output_processor<char,__crt_stdio_output::stream_output_adapter<char>,__crt_stdio_output::format_validation_base<char,__crt_stdio_output::stream_output_adapter<char> > >::write_stored_string_tchar(char)
FUNC 3b3c0 121 0 __crt_stdio_output::output_processor<char,__crt_stdio_output::stream_output_adapter<char>,__crt_stdio_output::positional_parameter_base<char,__crt_stdio_output::stream_output_adapter<char> > >::write_stored_string_tchar(char)
FUNC 3b52c 121 0 __crt_stdio_output::output_processor<char,__crt_stdio_output::stream_output_adapter<char>,__crt_stdio_output::standard_base<char,__crt_stdio_output::stream_output_adapter<char> > >::write_stored_string_tchar(char)
FUNC 3b698 d5 0 __crt_stdio_output::output_processor<char,__crt_stdio_output::string_output_adapter<char>,__crt_stdio_output::format_validation_base<char,__crt_stdio_output::string_output_adapter<char> > >::write_stored_string_tchar(char)
FUNC 3b7a4 d5 0 __crt_stdio_output::output_processor<char,__crt_stdio_output::string_output_adapter<char>,__crt_stdio_output::positional_parameter_base<char,__crt_stdio_output::string_output_adapter<char> > >::write_stored_string_tchar(char)
FUNC 3b8b0 d5 0 __crt_stdio_output::output_processor<char,__crt_stdio_output::string_output_adapter<char>,__crt_stdio_output::standard_base<char,__crt_stdio_output::string_output_adapter<char> > >::write_stored_string_tchar(char)
FUNC 3b9bc 106 0 __crt_stdio_output::output_processor<wchar_t,__crt_stdio_output::stream_output_adapter<wchar_t>,__crt_stdio_output::format_validation_base<wchar_t,__crt_stdio_output::stream_output_adapter<wchar_t> > >::write_stored_string_tchar(wchar_t)
FUNC 3bb04 106 0 __crt_stdio_output::output_processor<wchar_t,__crt_stdio_output::stream_output_adapter<wchar_t>,__crt_stdio_output::positional_parameter_base<wchar_t,__crt_stdio_output::stream_output_adapter<wchar_t> > >::write_stored_string_tchar(wchar_t)
FUNC 3bc4c 106 0 __crt_stdio_output::output_processor<wchar_t,__crt_stdio_output::stream_output_adapter<wchar_t>,__crt_stdio_output::standard_base<wchar_t,__crt_stdio_output::stream_output_adapter<wchar_t> > >::write_stored_string_tchar(wchar_t)
FUNC 3bd94 eb 0 __crt_stdio_output::output_processor<wchar_t,__crt_stdio_output::string_output_adapter<wchar_t>,__crt_stdio_output::format_validation_base<wchar_t,__crt_stdio_output::string_output_adapter<wchar_t> > >::write_stored_string_tchar(wchar_t)
FUNC 3bebc eb 0 __crt_stdio_output::output_processor<wchar_t,__crt_stdio_output::string_output_adapter<wchar_t>,__crt_stdio_output::positional_parameter_base<wchar_t,__crt_stdio_output::string_output_adapter<wchar_t> > >::write_stored_string_tchar(wchar_t)
FUNC 3bfe4 eb 0 __crt_stdio_output::output_processor<wchar_t,__crt_stdio_output::string_output_adapter<wchar_t>,__crt_stdio_output::standard_base<wchar_t,__crt_stdio_output::string_output_adapter<wchar_t> > >::write_stored_string_tchar(wchar_t)
FUNC 3c10c 24 0 __crt_stdio_output::stream_output_adapter<char>::write_string(char const * const,int,int * const,__crt_deferred_errno_cache &)
FUNC 3c13c 24 0 __crt_stdio_output::stream_output_adapter<wchar_t>::write_string(wchar_t const * const,int,int * const,__crt_deferred_errno_cache &)
FUNC 3c16c a3 0 __crt_stdio_output::string_output_adapter<char>::write_string(char const * const,int,int * const,__crt_deferred_errno_cache &)
FUNC 3c238 a5 0 __crt_stdio_output::string_output_adapter<wchar_t>::write_string(wchar_t const * const,int,int * const,__crt_deferred_errno_cache &)
FUNC 3c308 f5 0 __crt_stdio_output::output_adapter_common<char,__crt_stdio_output::stream_output_adapter<char> >::write_string_impl(char const * const,int,int * const,__crt_deferred_errno_cache &)
FUNC 3c43c 103 0 __crt_stdio_output::output_adapter_common<wchar_t,__crt_stdio_output::stream_output_adapter<wchar_t> >::write_string_impl(wchar_t const * const,int,int * const,__crt_deferred_errno_cache &)
FUNC 3c580 21 0 _acrt_isleadbyte_l_noupdate
FUNC 3c5ac b 0 _acrt_locale_changed
FUNC 3c5bc 18 0 _acrt_locale_get_ctype_array_value
FUNC 3c5dc 8b 0 _stdio_common_vfprintf
FUNC 3c68c 8b 0 _stdio_common_vfprintf_p
FUNC 3c73c 8b 0 _stdio_common_vfprintf_s
FUNC 3c7ec 8b 0 _stdio_common_vfwprintf
FUNC 3c89c 8b 0 _stdio_common_vfwprintf_p
FUNC 3c94c 8b 0 _stdio_common_vfwprintf_s
FUNC 3c9fc 134 0 _stdio_common_vsnprintf_s
FUNC 3cb80 143 0 _stdio_common_vsnwprintf_s
FUNC 3cd14 5 0 _stdio_common_vsprintf
FUNC 3cd1c 5 0 _stdio_common_vsprintf_p
FUNC 3cd24 63 0 _stdio_common_vsprintf_s
FUNC 3cda0 5 0 _stdio_common_vswprintf
FUNC 3cda8 5 0 _stdio_common_vswprintf_p
FUNC 3cdb0 6e 0 _stdio_common_vswprintf_s
FUNC 3ce3c 13 0 ctype_fast_check_internal
FUNC 3ce54 14 0 isdigit_fast_internal
FUNC 3ce70 11 0 tolower_fast_internal
FUNC 3ce88 24 0 __crt_strtox::is_overflow_condition<unsigned long>(unsigned int,unsigned long)
FUNC 3ceb8 30 0 __crt_strtox::is_overflow_condition<unsigned __int64>(unsigned int,unsigned __int64)
FUNC 3cef4 13 0 __crt_strtox::make_c_string_character_source<char,std::nullptr_t>(char const * const,std::nullptr_t)
FUNC 3cf0c 13 0 __crt_strtox::make_c_string_character_source<wchar_t,std::nullptr_t>(wchar_t const * const,std::nullptr_t)
FUNC 3cf24 305 0 __crt_strtox::parse_integer<unsigned long,__crt_strtox::c_string_character_source<char> >(__crt_locale_pointers * const,__crt_strtox::c_string_character_source<char>,int,bool)
FUNC 3d2ec 6a8 0 __crt_strtox::parse_integer<unsigned long,__crt_strtox::c_string_character_source<wchar_t> >(__crt_locale_pointers * const,__crt_strtox::c_string_character_source<wchar_t>,int,bool)
FUNC 3db40 2f0 0 __crt_strtox::parse_integer<unsigned __int64,__crt_strtox::c_string_character_source<char> >(__crt_locale_pointers * const,__crt_strtox::c_string_character_source<char>,int,bool)
FUNC 3deec 758 0 __crt_strtox::parse_integer<unsigned __int64,__crt_strtox::c_string_character_source<wchar_t> >(__crt_locale_pointers * const,__crt_strtox::c_string_character_source<wchar_t>,int,bool)
FUNC 3e81c 2e 0 __crt_strtox::parse_integer_from_string<long,char,std::nullptr_t>(char const * const,std::nullptr_t,int,__crt_locale_pointers * const)
FUNC 3e858 2e 0 __crt_strtox::parse_integer_from_string<long,wchar_t,std::nullptr_t>(wchar_t const * const,std::nullptr_t,int,__crt_locale_pointers * const)
FUNC 3e894 2e 0 __crt_strtox::parse_integer_from_string<__int64,char,std::nullptr_t>(char const * const,std::nullptr_t,int,__crt_locale_pointers * const)
FUNC 3e8d0 2e 0 __crt_strtox::parse_integer_from_string<__int64,wchar_t,std::nullptr_t>(wchar_t const * const,std::nullptr_t,int,__crt_locale_pointers * const)
FUNC 3e90c 13 0 __crt_strtox::c_string_character_source<char>::c_string_character_source<char>(char const * const,char const * * const)
FUNC 3e924 13 0 __crt_strtox::c_string_character_source<wchar_t>::c_string_character_source<wchar_t>(wchar_t const * const,wchar_t const * * const)
FUNC 3e93c 10 0 __crt_strtox::c_string_character_source<char>::~c_string_character_source<char>()
FUNC 3e950 10 0 __crt_strtox::c_string_character_source<wchar_t>::~c_string_character_source<wchar_t>()
FUNC 3e964 c 0 __crt_strtox::c_string_character_source<char>::get()
FUNC 3e974 e 0 __crt_strtox::c_string_character_source<wchar_t>::get()
FUNC 3e988 1e 0 __crt_strtox::is_space(char,__crt_locale_pointers * const)
FUNC 3e9b0 18 0 __crt_strtox::is_space(wchar_t,__crt_locale_pointers *)
FUNC 3e9d0 6 0 __crt_strtox::maximum_signed_value(unsigned long)
FUNC 3e9d8 b 0 __crt_strtox::maximum_signed_value(unsigned __int64)
FUNC 3e9e8 6 0 __crt_strtox::minimum_signed_value(unsigned long)
FUNC 3e9f0 b 0 __crt_strtox::minimum_signed_value(unsigned __int64)
FUNC 3ea00 2e 0 __crt_strtox::parse_digit(char)
FUNC 3ea3c 1d0 0 __crt_strtox::parse_digit(wchar_t)
FUNC 3ec80 6 0 __crt_strtox::c_string_character_source<char>::restore_state(char const * const)
FUNC 3ec88 6 0 __crt_strtox::c_string_character_source<wchar_t>::restore_state(wchar_t const * const)
FUNC 3ec90 4 0 __crt_strtox::c_string_character_source<char>::save_state()
FUNC 3ec94 4 0 __crt_strtox::c_string_character_source<wchar_t>::save_state()
FUNC 3ec98 2a 0 __crt_strtox::c_string_character_source<char>::unget(char)
FUNC 3eccc 2d 0 __crt_strtox::c_string_character_source<wchar_t>::unget(wchar_t)
FUNC 3ed04 25 0 __crt_strtox::c_string_character_source<char>::validate()
FUNC 3ed34 25 0 __crt_strtox::c_string_character_source<wchar_t>::validate()
FUNC 3ed64 1a0 0 __crt_strtox::wide_character_to_digit(wchar_t)
FUNC 3ef6c 4 0 _acrt_get_locale_data_prefix
FUNC 3ef70 19 0 _ascii_iswalpha
FUNC 3ef90 e 0 _ascii_toupper
FUNC 3efa4 d 0 _ascii_towupper
FUNC 3efb4 29 0 atoi64
FUNC 3efe8 2d 0 atoi64_l
FUNC 3f020 2d 0 atoi_l
FUNC 3f058 2d 0 atol_l
FUNC 3f090 2d 0 atoll_l
FUNC 3f0c8 61 0 chvalidchk_l
FUNC 3f144 76 0 ischartype_l
FUNC 3f1d8 29 0 wtoi
FUNC 3f20c 29 0 wtoi64
FUNC 3f240 2d 0 wtoi64_l
FUNC 3f278 2d 0 wtoi_l
FUNC 3f2b0 29 0 wtol
FUNC 3f2e4 2d 0 wtol_l
FUNC 3f31c 29 0 wtoll
FUNC 3f350 2d 0 wtoll_l
FUNC 3f388 29 0 atoi
FUNC 3f3bc 29 0 atol
FUNC 3f3f0 29 0 atoll
FUNC 3f440 7d 0 strncmp
FUNC 3f4e0 1c 0 set_abort_behavior
FUNC 3f504 56 0 abort
FUNC 3f570 5 0 calloc
FUNC 3f578 2c 0 wcsncmp
FUNC 3f5b0 8 0 __crt_internal_free_policy::operator()<__acrt_ptd>(__acrt_ptd const * const)
FUNC 3f5bc 3f 0 __crt_seh_guarded_call<void>::operator()<<lambda_0ae27a3a962d80f24befdcbee591983d>,<lambda_8d0ee55de4b1038c4002e0adecdf1839> &,<lambda_dc504788e8f1664fe9b84e20bfb512f2> >
FUNC 3f60c 3d 0 __crt_seh_guarded_call<void>::operator()<<lambda_2d41944a1d46af3157314b8a01080d33>,<lambda_8f455de75cd7d7f24b4096f044d8b9e6> &,<lambda_aa500f224e6afead328df44964fe2772> >
FUNC 3f658 45 0 __crt_seh_guarded_call<void>::operator()<<lambda_aa87e3671a710a21b5dc78c0bdf72e11>,<lambda_92619d2358a28f41a33ba319515a20b9> &,<lambda_6992ecaafeb10aed2b74cb1fae11a551> >
FUNC 3f6b0 5f 0 __crt_seh_guarded_call<void>::operator()<<lambda_f2e299630e499de9f9a165e60fcd3db5>,<lambda_2ae9d31cdba2644fcbeaf08da7c24588> &,<lambda_40d01ff24d0e7b3814fdbdcee8eab3c7> >
FUNC 3f728 26 0 __acrt_lock_and_call<<lambda_2ae9d31cdba2644fcbeaf08da7c24588> >
FUNC 3f758 26 0 __acrt_lock_and_call<<lambda_8d0ee55de4b1038c4002e0adecdf1839> >
FUNC 3f788 26 0 __acrt_lock_and_call<<lambda_8f455de75cd7d7f24b4096f044d8b9e6> >
FUNC 3f7b8 26 0 __acrt_lock_and_call<<lambda_92619d2358a28f41a33ba319515a20b9> >
FUNC 3f7e8 8 0 <lambda_0ae27a3a962d80f24befdcbee591983d>::<lambda_0ae27a3a962d80f24befdcbee591983d>
FUNC 3f7f4 7 0 <lambda_2ae9d31cdba2644fcbeaf08da7c24588>::<lambda_2ae9d31cdba2644fcbeaf08da7c24588>
FUNC 3f7fc 8 0 <lambda_2d41944a1d46af3157314b8a01080d33>::<lambda_2d41944a1d46af3157314b8a01080d33>
FUNC 3f808 8 0 <lambda_40d01ff24d0e7b3814fdbdcee8eab3c7>::<lambda_40d01ff24d0e7b3814fdbdcee8eab3c7>
FUNC 3f814 8 0 <lambda_6992ecaafeb10aed2b74cb1fae11a551>::<lambda_6992ecaafeb10aed2b74cb1fae11a551>
FUNC 3f820 7 0 <lambda_8d0ee55de4b1038c4002e0adecdf1839>::<lambda_8d0ee55de4b1038c4002e0adecdf1839>
FUNC 3f828 7 0 <lambda_8f455de75cd7d7f24b4096f044d8b9e6>::<lambda_8f455de75cd7d7f24b4096f044d8b9e6>
FUNC 3f830 b 0 <lambda_92619d2358a28f41a33ba319515a20b9>::<lambda_92619d2358a28f41a33ba319515a20b9>
FUNC 3f840 8 0 <lambda_aa500f224e6afead328df44964fe2772>::<lambda_aa500f224e6afead328df44964fe2772>
FUNC 3f84c 8 0 <lambda_aa87e3671a710a21b5dc78c0bdf72e11>::<lambda_aa87e3671a710a21b5dc78c0bdf72e11>
FUNC 3f858 8 0 <lambda_dc504788e8f1664fe9b84e20bfb512f2>::<lambda_dc504788e8f1664fe9b84e20bfb512f2>
FUNC 3f864 8 0 <lambda_f2e299630e499de9f9a165e60fcd3db5>::<lambda_f2e299630e499de9f9a165e60fcd3db5>
FUNC 3f870 7 0 __crt_unique_heap_ptr<__acrt_ptd,__crt_internal_free_policy>::__crt_unique_heap_ptr<__acrt_ptd,__crt_internal_free_policy>(__acrt_ptd * const)
FUNC 3f878 1a 0 __crt_scoped_get_last_error_reset::__crt_scoped_get_last_error_reset()
FUNC 3f898 1b 0 __crt_unique_heap_ptr<__acrt_ptd,__crt_internal_free_policy>::~__crt_unique_heap_ptr<__acrt_ptd,__crt_internal_free_policy>()
FUNC 3f8bc 9 0 __crt_scoped_get_last_error_reset::~__crt_scoped_get_last_error_reset()
FUNC 3f8c8 8 0 __crt_unique_heap_ptr<__acrt_ptd,__crt_internal_free_policy>::operator bool()
FUNC 3f8d4 7 0 <lambda_0ae27a3a962d80f24befdcbee591983d>::operator()
FUNC 3f8dc 38 0 <lambda_2ae9d31cdba2644fcbeaf08da7c24588>::operator()
FUNC 3f924 7 0 <lambda_2d41944a1d46af3157314b8a01080d33>::operator()
FUNC 3f92c 7 0 <lambda_40d01ff24d0e7b3814fdbdcee8eab3c7>::operator()
FUNC 3f934 7 0 <lambda_6992ecaafeb10aed2b74cb1fae11a551>::operator()
FUNC 3f93c 11 0 <lambda_8d0ee55de4b1038c4002e0adecdf1839>::operator()
FUNC 3f954 d 0 <lambda_8f455de75cd7d7f24b4096f044d8b9e6>::operator()
FUNC 3f964 15 0 <lambda_92619d2358a28f41a33ba319515a20b9>::operator()
FUNC 3f980 7 0 <lambda_aa500f224e6afead328df44964fe2772>::operator()
FUNC 3f988 7 0 <lambda_aa87e3671a710a21b5dc78c0bdf72e11>::operator()
FUNC 3f990 7 0 <lambda_dc504788e8f1664fe9b84e20bfb512f2>::operator()
FUNC 3f998 7 0 <lambda_f2e299630e499de9f9a165e60fcd3db5>::operator()
FUNC 3f9a0 c5 0 construct_ptd
FUNC 3fa98 cd 0 construct_ptd_array
FUNC 3fb98 4 0 __crt_state_management::dual_state_global<__crt_locale_data *>::dangerous_get_state_array
FUNC 3fb9c 20 0 destroy_fls
FUNC 3fbc4 f5 0 destroy_ptd
FUNC 3fcf8 f5 0 destroy_ptd_array
FUNC 3fe2c 8 0 __crt_unique_heap_ptr<__acrt_ptd,__crt_internal_free_policy>::detach()
FUNC 3fe38 4 0 __crt_unique_heap_ptr<__acrt_ptd,__crt_internal_free_policy>::get()
FUNC 3fe3c 3 0 __crt_state_management::get_current_state_index(__crt_scoped_get_last_error_reset const &)
FUNC 3fe40 9f 0 internal_get_ptd_head
FUNC 3ff08 c8 0 internal_getptd_noexit
FUNC 40004 8 0 __crt_unique_heap_ptr<__acrt_ptd,__crt_internal_free_policy>::is_valid()
FUNC 40010 1b 0 __crt_unique_heap_ptr<__acrt_ptd,__crt_internal_free_policy>::release()
FUNC 40034 67 0 replace_current_thread_locale_nolock
FUNC 400b4 20 0 try_get_ptd_head
FUNC 400dc 4 0 __crt_state_management::dual_state_global<__crt_locale_data *>::value
FUNC 400e0 41 0 _acrt_freeptd
FUNC 40134 d4 0 _acrt_getptd
FUNC 40240 a7 0 _acrt_getptd_head
FUNC 40310 cc 0 _acrt_getptd_noexit
FUNC 40410 39 0 _acrt_initialize_ptd
FUNC 40458 22 0 _acrt_uninitialize_ptd
FUNC 40484 7 0 _threadhandle
FUNC 4048c 7 0 _threadid
FUNC 40494 8 0 select_heap
FUNC 404a0 3d 0 free_base
FUNC 404ec 48 0 _acrt_initialize_locks
FUNC 40548 19 0 _acrt_lock
FUNC 40568 37 0 _acrt_uninitialize_locks
FUNC 405ac 19 0 _acrt_unlock
FUNC 405cc 1b 0 lock_locales
FUNC 405f0 e 0 unlock_locales
FUNC 40604 4c 0 get_cached_win_policy<`__acrt_get_begin_thread_init_policy'::`2'::begin_thread_init_policy_properties>
FUNC 40664 4c 0 get_cached_win_policy<`__acrt_get_developer_information_policy'::`2'::developer_information_policy_properties>
FUNC 406c4 69 0 get_cached_win_policy<`__acrt_get_windowing_model_policy'::`2'::windowing_model_policy_properties>
FUNC 40748 38 0 get_win_policy<`__acrt_get_process_end_policy'::`2'::process_end_policy_properties>
FUNC 40790 5 0 `__acrt_get_begin_thread_init_policy'::`2'::begin_thread_init_policy_properties::appmodel_get_policy
FUNC 40798 5 0 `__acrt_get_developer_information_policy'::`2'::developer_information_policy_properties::appmodel_get_policy
FUNC 407a0 5 0 `__acrt_get_process_end_policy'::`2'::process_end_policy_properties::appmodel_get_policy
FUNC 407a8 5 0 `__acrt_get_windowing_model_policy'::`2'::windowing_model_policy_properties::appmodel_get_policy
FUNC 407b0 b 0 `__acrt_get_begin_thread_init_policy'::`2'::begin_thread_init_policy_properties::appmodel_policy_to_policy_type
FUNC 407c0 b 0 `__acrt_get_developer_information_policy'::`2'::developer_information_policy_properties::appmodel_policy_to_policy_type
FUNC 407d0 9 0 `__acrt_get_process_end_policy'::`2'::process_end_policy_properties::appmodel_policy_to_policy_type
FUNC 407dc 27 0 `__acrt_get_windowing_model_policy'::`2'::windowing_model_policy_properties::appmodel_policy_to_policy_type
FUNC 4080c 51 0 _acrt_get_begin_thread_init_policy
FUNC 40874 51 0 _acrt_get_developer_information_policy
FUNC 408dc 3c 0 _acrt_get_process_end_policy
FUNC 40928 6c 0 _acrt_get_windowing_model_policy
FUNC 409b0 45 0 _acrt_errno_from_os_error
FUNC 40a08 4e 0 _acrt_errno_map_os_error
FUNC 40a6c 20 0 _doserrno
FUNC 40a94 20 0 errno
FUNC 40abc 3b 0 get_doserrno
FUNC 40b08 3b 0 get_errno
FUNC 40b54 3a 0 set_doserrno
FUNC 40b9c 3a 0 set_errno
FUNC 40be4 75 0 calloc_base
FUNC 40c78 12 0 <lambda_861af8918f661c876f88da8747958ced>::<lambda_invoker_cdecl>
FUNC 40c90 12 0 <lambda_a1ce4c8ae42411fd470c77163914f50e>::<lambda_invoker_cdecl>
FUNC 40ca8 179 0 __acrt_convert_wcs_mbs_cp<char,wchar_t,<lambda_7c9dea7b4ca7285d2cdb541a38da6275>,__crt_win32_buffer_internal_dynamic_resizing>
FUNC 40e80 18b 0 __acrt_convert_wcs_mbs_cp<wchar_t,char,<lambda_d8593a27d1aa8c02be35c86a17d324c4>,__crt_win32_buffer_internal_dynamic_resizing>
FUNC 41070 176 0 __acrt_mbs_to_wcs_cp<__crt_win32_buffer_internal_dynamic_resizing>(char const * const,__crt_win32_buffer<wchar_t,__crt_win32_buffer_internal_dynamic_resizing> &,unsigned int)
FUNC 41244 18a 0 __acrt_wcs_to_mbs_cp<__crt_win32_buffer_internal_dynamic_resizing>(wchar_t const * const,__crt_win32_buffer<char,__crt_win32_buffer_internal_dynamic_resizing> &,unsigned int)
FUNC 41430 209 0 common_expand_argv_wildcards<char>
FUNC 416bc 3ca 0 common_expand_argv_wildcards<wchar_t>
FUNC 41b78 187 0 copy_and_add_argument_to_buffer<char>
FUNC 41d60 189 0 copy_and_add_argument_to_buffer<wchar_t>
FUNC 41f4c 30e 0 expand_argument_wildcards<char>
FUNC 42320 19b 0 expand_argument_wildcards<wchar_t>
FUNC 42524 11 0 __crt_char_traits<char>::tcslen<char const * const &>
FUNC 4253c 12 0 __crt_char_traits<wchar_t>::tcslen<wchar_t const * const &>
FUNC 42554 11 0 __crt_char_traits<char>::tcsncpy_s<char * &,unsigned __int64,char * &,unsigned __int64 const &>
FUNC 4256c 11 0 __crt_char_traits<wchar_t>::tcsncpy_s<wchar_t * &,unsigned __int64,wchar_t * &,unsigned __int64 const &>
FUNC 42584 11 0 __crt_char_traits<char>::tcsncpy_s<char *,unsigned __int64 const &,char const * const &,unsigned __int64 const &>
FUNC 4259c 11 0 __crt_char_traits<char>::tcsncpy_s<char *,unsigned __int64,char const * const &,unsigned __int64 const &>
FUNC 425b4 11 0 __crt_char_traits<wchar_t>::tcsncpy_s<wchar_t *,unsigned __int64 const &,wchar_t const * const &,unsigned __int64 const &>
FUNC 425cc 11 0 __crt_char_traits<wchar_t>::tcsncpy_s<wchar_t *,unsigned __int64,wchar_t const * const &,unsigned __int64 const &>
FUNC 425e4 8 0 __crt_char_traits<char>::tcspbrk<char * &,char const (&)[3]>
FUNC 425f0 8 0 __crt_char_traits<wchar_t>::tcspbrk<wchar_t * &,wchar_t const (&)[3]>
FUNC 425fc 7 0 __crt_unique_handle_t<__crt_findfile_traits>::__crt_unique_handle_t<__crt_findfile_traits>(void * const)
FUNC 42604 1c 0 __crt_win32_buffer<char,__crt_win32_buffer_internal_dynamic_resizing>::__crt_win32_buffer<char,__crt_win32_buffer_internal_dynamic_resizing>()
FUNC 42628 1c 0 __crt_win32_buffer<wchar_t,__crt_win32_buffer_internal_dynamic_resizing>::__crt_win32_buffer<wchar_t,__crt_win32_buffer_internal_dynamic_resizing>()
FUNC 4264c 11 0 `anonymous namespace'::argument_list<char>::argument_list<char>
FUNC 42664 11 0 `anonymous namespace'::argument_list<wchar_t>::argument_list<wchar_t>
FUNC 4267c 22 0 __crt_unique_handle_t<__crt_findfile_traits>::~__crt_unique_handle_t<__crt_findfile_traits>()
FUNC 426a8 22 0 __crt_win32_buffer<char,__crt_win32_buffer_internal_dynamic_resizing>::~__crt_win32_buffer<char,__crt_win32_buffer_internal_dynamic_resizing>()
FUNC 426d4 22 0 __crt_win32_buffer<wchar_t,__crt_win32_buffer_internal_dynamic_resizing>::~__crt_win32_buffer<wchar_t,__crt_win32_buffer_internal_dynamic_resizing>()
FUNC 42700 3d 0 `anonymous namespace'::argument_list<char>::~argument_list<char>
FUNC 4274c 3d 0 `anonymous namespace'::argument_list<wchar_t>::~argument_list<wchar_t>
FUNC 42798 8 0 <lambda_861af8918f661c876f88da8747958ced>::operator int (__cdecl*)(void const *,void const *)
FUNC 427a4 8 0 <lambda_a1ce4c8ae42411fd470c77163914f50e>::operator int (__cdecl*)(void const *,void const *)
FUNC 427b0 25 0 <lambda_7c9dea7b4ca7285d2cdb541a38da6275>::operator()
FUNC 427e0 12 0 <lambda_861af8918f661c876f88da8747958ced>::operator()
FUNC 427f8 12 0 <lambda_a1ce4c8ae42411fd470c77163914f50e>::operator()
FUNC 42810 23 0 <lambda_cc44a96f04e0393500626269309609b4>::operator()
FUNC 4283c 22 0 <lambda_cfae5a0e6efa98e0d1aa03c4cec8f74e>::operator()
FUNC 42868 2f 0 <lambda_d8593a27d1aa8c02be35c86a17d324c4>::operator()
FUNC 428a4 49 0 __acrt_get_utf8_acp_compatibility_codepage()
FUNC 42900 22 0 __crt_win32_buffer<char,__crt_win32_buffer_internal_dynamic_resizing>::_deallocate()
FUNC 4292c 22 0 __crt_win32_buffer<wchar_t,__crt_win32_buffer_internal_dynamic_resizing>::_deallocate()
FUNC 42958 5b 0 __crt_win32_buffer<char,__crt_win32_buffer_internal_dynamic_resizing>::allocate(unsigned __int64)
FUNC 429cc 5c 0 __crt_win32_buffer<wchar_t,__crt_win32_buffer_internal_dynamic_resizing>::allocate(unsigned __int64)
FUNC 42a40 24 0 __crt_win32_buffer_internal_dynamic_resizing::allocate(void * * const,unsigned __int64,__crt_win32_buffer_empty_debug_info const &)
FUNC 42a70 de 0 `anonymous namespace'::argument_list<char>::append
FUNC 42b88 de 0 `anonymous namespace'::argument_list<wchar_t>::append
FUNC 42ca0 4 0 `anonymous namespace'::argument_list<char>::begin
FUNC 42ca4 4 0 `anonymous namespace'::argument_list<wchar_t>::begin
FUNC 42ca8 5 0 __crt_win32_buffer<char,__crt_win32_buffer_internal_dynamic_resizing>::capacity()
FUNC 42cb0 5 0 __crt_win32_buffer<wchar_t,__crt_win32_buffer_internal_dynamic_resizing>::capacity()
FUNC 42cb8 22 0 __crt_unique_handle_t<__crt_findfile_traits>::close()
FUNC 42ce4 14 0 __crt_findfile_traits::close(void *)
FUNC 42d00 5 0 __crt_win32_buffer<char,__crt_win32_buffer_internal_dynamic_resizing>::data()
FUNC 42d08 5 0 __crt_win32_buffer<wchar_t,__crt_win32_buffer_internal_dynamic_resizing>::data()
FUNC 42d10 5 0 __crt_win32_buffer_internal_dynamic_resizing::deallocate(void * const,__crt_win32_buffer_empty_debug_info const &)
FUNC 42d18 4 0 __crt_win32_buffer<char,__crt_win32_buffer_internal_dynamic_resizing>::debug_info()
FUNC 42d1c 4 0 __crt_win32_buffer<wchar_t,__crt_win32_buffer_internal_dynamic_resizing>::debug_info()
FUNC 42d20 5 0 `anonymous namespace'::argument_list<char>::end
FUNC 42d28 5 0 `anonymous namespace'::argument_list<wchar_t>::end
FUNC 42d30 c7 0 `anonymous namespace'::argument_list<char>::expand_if_necessary
FUNC 42e28 c7 0 `anonymous namespace'::argument_list<wchar_t>::expand_if_necessary
FUNC 42f20 4 0 __crt_unique_handle_t<__crt_findfile_traits>::get()
FUNC 42f24 9d 0 get_file_name
FUNC 42fe8 4 0 get_file_name
FUNC 42fec 5 0 __crt_findfile_traits::get_invalid_value()
FUNC 42ff4 4 0 get_wide
FUNC 42ff8 9d 0 get_wide
FUNC 430bc 5 0 previous_character
FUNC 430c4 5 0 previous_character
FUNC 430cc 31 0 __crt_win32_buffer<char,__crt_win32_buffer_internal_dynamic_resizing>::set_to_nullptr()
FUNC 4310c 31 0 __crt_win32_buffer<wchar_t,__crt_win32_buffer_internal_dynamic_resizing>::set_to_nullptr()
FUNC 4314c 5 0 __crt_win32_buffer<char,__crt_win32_buffer_internal_dynamic_resizing>::size(unsigned __int64)
FUNC 43154 5 0 __crt_win32_buffer<wchar_t,__crt_win32_buffer_internal_dynamic_resizing>::size(unsigned __int64)
FUNC 4315c c 0 `anonymous namespace'::argument_list<char>::size
FUNC 4316c c 0 `anonymous namespace'::argument_list<wchar_t>::size
FUNC 4317c 5 0 strpbrk(char * const,char const * const)
FUNC 43184 5 0 wcspbrk(wchar_t *,wchar_t const *)
FUNC 4318c 5 0 _acrt_expand_narrow_argv_wildcards
FUNC 43194 5 0 _acrt_expand_wide_argv_wildcards
FUNC 4319c 119 0 __acrt_convert_wcs_mbs_cp<wchar_t,char,<lambda_f788ae46380686e8b737efdd8c720d07>,__crt_win32_buffer_no_resizing>
FUNC 432fc 111 0 __acrt_wcs_to_mbs_cp<__crt_win32_buffer_no_resizing>(wchar_t const * const,__crt_win32_buffer<char,__crt_win32_buffer_no_resizing> &,unsigned int)
FUNC 43454 1c 0 __crt_win32_buffer<char,__crt_win32_buffer_no_resizing>::__crt_win32_buffer<char,__crt_win32_buffer_no_resizing>(char * const,unsigned __int64)
FUNC 43478 b 0 __crt_win32_buffer<char,__crt_win32_buffer_no_resizing>::~__crt_win32_buffer<char,__crt_win32_buffer_no_resizing>()
FUNC 43488 2f 0 <lambda_f788ae46380686e8b737efdd8c720d07>::operator()
FUNC 434c4 b 0 __crt_win32_buffer<char,__crt_win32_buffer_no_resizing>::_deallocate()
FUNC 434d4 30 0 __crt_win32_buffer<char,__crt_win32_buffer_no_resizing>::allocate(unsigned __int64)
FUNC 43510 17 0 __crt_win32_buffer_no_resizing::allocate(void * * const,unsigned __int64,__crt_win32_buffer_empty_debug_info const &)
FUNC 4352c 5 0 __crt_win32_buffer<char,__crt_win32_buffer_no_resizing>::capacity()
FUNC 43534 5 0 __crt_win32_buffer<char,__crt_win32_buffer_no_resizing>::data()
FUNC 4353c 3 0 __crt_win32_buffer_no_resizing::deallocate(void * const,__crt_win32_buffer_empty_debug_info const &)
FUNC 43540 4 0 __crt_win32_buffer<char,__crt_win32_buffer_no_resizing>::debug_info()
FUNC 43544 17 0 __crt_win32_buffer<char,__crt_win32_buffer_no_resizing>::set_to_nullptr()
FUNC 43560 5 0 __crt_win32_buffer<char,__crt_win32_buffer_no_resizing>::size(unsigned __int64)
FUNC 43568 5 0 __crt_win32_buffer<char,__crt_win32_buffer_no_resizing>::size()
FUNC 43570 11e 0 _acrt_GetModuleFileNameA
FUNC 436d8 8 0 __crt_internal_free_policy::operator()<__crt_multibyte_data>(__crt_multibyte_data const * const)
FUNC 436e4 1ba 0 __crt_seh_guarded_call<void>::operator()<<lambda_efdfa57d1f175319df784efa44bb7b81>,<lambda_5f0a4c1567f8adc6734073e5d1e1b35c> &,<lambda_2e8a7d3640ea6ccb4c2413664c2db6fd> >
FUNC 4390c 26 0 __acrt_lock_and_call<<lambda_5f0a4c1567f8adc6734073e5d1e1b35c> >
FUNC 4393c 4 0 __crt_state_management::dual_state_global<unsigned char *>::initialize_from_array<unsigned char [1][256]>
FUNC 43940 4 0 __crt_state_management::dual_state_global<unsigned char *>::initialize_from_array<unsigned char [1][257]>
FUNC 43944 8 0 <lambda_2e8a7d3640ea6ccb4c2413664c2db6fd>::<lambda_2e8a7d3640ea6ccb4c2413664c2db6fd>
FUNC 43950 b 0 <lambda_5f0a4c1567f8adc6734073e5d1e1b35c>::<lambda_5f0a4c1567f8adc6734073e5d1e1b35c>
FUNC 43960 8 0 <lambda_efdfa57d1f175319df784efa44bb7b81>::<lambda_efdfa57d1f175319df784efa44bb7b81>
FUNC 4396c 7 0 __crt_unique_heap_ptr<__crt_multibyte_data,__crt_internal_free_policy>::__crt_unique_heap_ptr<__crt_multibyte_data,__crt_internal_free_policy>(__crt_multibyte_data * const)
FUNC 43974 1b 0 __crt_unique_heap_ptr<__crt_multibyte_data,__crt_internal_free_policy>::~__crt_unique_heap_ptr<__crt_multibyte_data,__crt_internal_free_policy>()
FUNC 43998 8 0 __crt_unique_heap_ptr<__crt_multibyte_data,__crt_internal_free_policy>::operator bool()
FUNC 439a4 7 0 <lambda_2e8a7d3640ea6ccb4c2413664c2db6fd>::operator()
FUNC 439ac 1a0 0 <lambda_5f0a4c1567f8adc6734073e5d1e1b35c>::operator()
FUNC 43bb4 7 0 <lambda_efdfa57d1f175319df784efa44bb7b81>::operator()
FUNC 43bbc 3a 0 CPtoLocaleName
FUNC 43c04 4 0 __crt_state_management::dual_state_global<unsigned char *>::dangerous_get_state_array
FUNC 43c08 4 0 __crt_state_management::dual_state_global<__crt_multibyte_data *>::dangerous_get_state_array
FUNC 43c0c 8 0 __crt_unique_heap_ptr<__crt_multibyte_data,__crt_internal_free_policy>::detach()
FUNC 43c18 4 0 __crt_unique_heap_ptr<__crt_multibyte_data,__crt_internal_free_policy>::get()
FUNC 43c1c 7d 0 getSystemCP
FUNC 43cb8 27 0 __crt_state_management::dual_state_global<__crt_multibyte_data *>::initialize
FUNC 43ce8 8 0 __crt_unique_heap_ptr<__crt_multibyte_data,__crt_internal_free_policy>::is_valid()
FUNC 43cf4 1b 0 __crt_unique_heap_ptr<__crt_multibyte_data,__crt_internal_free_policy>::release()
FUNC 43d18 90 0 setSBCS
FUNC 43dcc 1e3 0 setSBUpLow
FUNC 44028 1c2 0 setmbcp_internal
FUNC 4425c b8 0 update_thread_multibyte_data_internal
FUNC 44344 4 0 __crt_state_management::dual_state_global<unsigned char *>::value
FUNC 44348 4 0 __crt_state_management::dual_state_global<__crt_multibyte_data *>::value
FUNC 4434c 60 0 _acrt_initialize_multibyte
FUNC 443c4 1c 0 _acrt_update_thread_multibyte_data
FUNC 443e8 8 0 _p__mbcasemap
FUNC 443f4 8 0 _p__mbctype
FUNC 44400 3a 0 getmbcp
FUNC 44448 25 0 setmbcp
FUNC 44478 2b9 0 setmbcp_nolock
FUNC 447e0 87 0 memcpy_s
FUNC 44888 75 0 x_ismbbtype_l
FUNC 4491c 15 0 ismbbalnum
FUNC 44938 19 0 ismbbalnum_l
FUNC 44958 15 0 ismbbalpha
FUNC 44974 19 0 ismbbalpha_l
FUNC 44994 1c 0 ismbbblank
FUNC 449b8 20 0 ismbbblank_l
FUNC 449e0 15 0 ismbbgraph
FUNC 449fc 19 0 ismbbgraph_l
FUNC 44a1c 12 0 ismbbkalnum
FUNC 44a34 16 0 ismbbkalnum_l
FUNC 44a50 7 0 ismbbkana
FUNC 44a58 65 0 ismbbkana_l
FUNC 44ad8 12 0 ismbbkprint
FUNC 44af0 16 0 ismbbkprint_l
FUNC 44b0c 12 0 ismbbkpunct
FUNC 44b24 16 0 ismbbkpunct_l
FUNC 44b40 12 0 ismbblead
FUNC 44b58 16 0 ismbblead_l
FUNC 44b74 15 0 ismbbprint
FUNC 44b90 19 0 ismbbprint_l
FUNC 44bb0 13 0 ismbbpunct
FUNC 44bc8 17 0 ismbbpunct_l
FUNC 44be4 12 0 ismbbtrail
FUNC 44bfc 16 0 ismbbtrail_l
FUNC 44c18 25 0 _acrt_initialize_command_line
FUNC 44c48 3 0 _acrt_uninitialize_command_line
FUNC 44c4c 8 0 _p___argc
FUNC 44c58 8 0 _p___argv
FUNC 44c64 8 0 _p___wargv
FUNC 44c70 8 0 _p__acmdln
FUNC 44c7c 8 0 _p__pgmptr
FUNC 44c88 8 0 _p__wcmdln
FUNC 44c94 8 0 _p__wpgmptr
FUNC 44ca0 36 0 get_pgmptr
FUNC 44ce4 36 0 get_wpgmptr
FUNC 44d28 6c 0 common_tcscpy_s<wchar_t>
FUNC 44db0 65 0 wcscpy_s
FUNC 44e30 55 0 filter_mbtowcs_flags
FUNC 44e9c 5a 0 _acrt_MultiByteToWideChar
FUNC 44f0c 44 0 filter_wcstomb_flags
FUNC 44f64 96 0 _acrt_WideCharToMultiByte
FUNC 45020 7 0 __crt_unique_handle_t<`anonymous namespace'::environment_strings_traits>::__crt_unique_handle_t<`anonymous namespace'::environment_strings_traits>
FUNC 45028 21 0 __crt_unique_handle_t<`anonymous namespace'::environment_strings_traits>::~__crt_unique_handle_t<`anonymous namespace'::environment_strings_traits>
FUNC 45054 8 0 __crt_unique_handle_t<`anonymous namespace'::environment_strings_traits>::operator bool
FUNC 45060 21 0 __crt_unique_handle_t<`anonymous namespace'::environment_strings_traits>::close
FUNC 4508c 11 0 `anonymous namespace'::environment_strings_traits::close
FUNC 450a4 23 0 find_end_of_double_null_terminated_sequence
FUNC 450d0 4 0 __crt_unique_handle_t<`anonymous namespace'::environment_strings_traits>::get
FUNC 450d4 3 0 `anonymous namespace'::environment_strings_traits::get_invalid_value
FUNC 450d8 8 0 __crt_unique_handle_t<`anonymous namespace'::environment_strings_traits>::is_valid
FUNC 450e4 101 0 _dcrt_get_narrow_environment_from_os
FUNC 45228 9f 0 _dcrt_get_wide_environment_from_os
FUNC 452f0 320 0 common_set_variable_in_environment_nolock<char>
FUNC 456d8 322 0 common_set_variable_in_environment_nolock<wchar_t>
FUNC 45ac4 e5 0 copy_environment<char>
FUNC 45be4 ef 0 copy_environment<wchar_t>
FUNC 45d10 25 0 ensure_current_environment_is_not_initial_environment_nolock<char>
FUNC 45d40 25 0 ensure_current_environment_is_not_initial_environment_nolock<wchar_t>
FUNC 45d70 81 0 find_in_environment_nolock<char>
FUNC 45e14 91 0 find_in_environment_nolock<wchar_t>
FUNC 45ecc 5 0 __crt_char_traits<char>::get_or_create_environment_nolock<>()
FUNC 45ed4 5 0 __crt_char_traits<wchar_t>::get_or_create_environment_nolock<>()
FUNC 45edc b 0 __crt_char_traits<char>::set_environment_variable<char * const &,char * const>
FUNC 45eec d 0 __crt_char_traits<wchar_t>::set_environment_variable<wchar_t * const &,wchar_t * const>
FUNC 45efc b 0 __crt_char_traits<char>::tcschr<char * const &,char>
FUNC 45f0c b 0 __crt_char_traits<wchar_t>::tcschr<wchar_t * const &,char>
FUNC 45f1c e 0 __crt_char_traits<char>::tcscpy_s<char * &,unsigned __int64 const &,char * &>
FUNC 45f30 e 0 __crt_char_traits<wchar_t>::tcscpy_s<wchar_t * &,unsigned __int64 const &,wchar_t * &>
FUNC 45f44 e 0 __crt_char_traits<char>::tcscpy_s<char * const &,unsigned __int64 const &,char * const &>
FUNC 45f58 e 0 __crt_char_traits<wchar_t>::tcscpy_s<wchar_t * const &,unsigned __int64 const &,wchar_t * const &>
FUNC 45f6c 11 0 __crt_char_traits<char>::tcslen<char * const &>
FUNC 45f84 12 0 __crt_char_traits<wchar_t>::tcslen<wchar_t * const &>
FUNC 45f9c e 0 __crt_char_traits<char>::tcsnicoll<char const * const &,char * &,unsigned __int64 const &>
FUNC 45fb0 e 0 __crt_char_traits<wchar_t>::tcsnicoll<wchar_t const * const &,wchar_t * &,unsigned __int64 const &>
FUNC 45fc4 8 0 get_environment
FUNC 45fd0 8 0 get_environment
FUNC 45fdc 8 0 get_initial_environment
FUNC 45fe8 8 0 get_initial_environment
FUNC 45ff4 8 0 get_other_environment
FUNC 46000 8 0 get_other_environment
FUNC 4600c 5 0 strchr(char * const,int)
FUNC 46014 5 0 wcschr(wchar_t *,wchar_t)
FUNC 4601c 5 0 _dcrt_set_variable_in_narrow_environment_nolock
FUNC 46024 5 0 _dcrt_set_variable_in_wide_environment_nolock
FUNC 4602c 5 0 recalloc
FUNC 46034 95 0 recalloc_base
FUNC 460f0 28 0 <lambda_795c6bd18aed400428efeb9a5f0e1479>::<lambda_invoker_cdecl>
FUNC 46124 8 0 __crt_fast_encoded_nullptr_t::operator<int __cdecl(wchar_t *,unsigned long,__int64)> int (__cdecl*)(wchar_t *,unsigned long,__int64)
FUNC 46130 79 0 __crt_seh_guarded_call<int>::operator()<<lambda_48fc4a32460bb0512d3b13f8499328be>,<lambda_6c3dac0a4f3f9cefca9bb494422f9b77> &,<lambda_0a2f2c9f9a56eb2b08bfa6ff61d331c5> >
FUNC 461c8 26 0 __acrt_lock_and_call<<lambda_6c3dac0a4f3f9cefca9bb494422f9b77> >
FUNC 461f8 16 0 __crt_fast_decode_pointer<int (__cdecl*)(wchar_t *,unsigned long,__int64)>
FUNC 46214 1e 0 __crt_fast_encode_pointer<int (__cdecl*)(wchar_t *,unsigned long,__int64)>
FUNC 4623c 8 0 <lambda_0a2f2c9f9a56eb2b08bfa6ff61d331c5>::<lambda_0a2f2c9f9a56eb2b08bfa6ff61d331c5>
FUNC 46248 8 0 <lambda_48fc4a32460bb0512d3b13f8499328be>::<lambda_48fc4a32460bb0512d3b13f8499328be>
FUNC 46254 7 0 <lambda_6c3dac0a4f3f9cefca9bb494422f9b77>::<lambda_6c3dac0a4f3f9cefca9bb494422f9b77>
FUNC 4625c 8 0 <lambda_795c6bd18aed400428efeb9a5f0e1479>::operator int (__cdecl*)(wchar_t *)
FUNC 46268 7 0 <lambda_0a2f2c9f9a56eb2b08bfa6ff61d331c5>::operator()
FUNC 46270 7 0 <lambda_48fc4a32460bb0512d3b13f8499328be>::operator()
FUNC 46278 53 0 <lambda_6c3dac0a4f3f9cefca9bb494422f9b77>::operator()
FUNC 462e0 28 0 <lambda_795c6bd18aed400428efeb9a5f0e1479>::operator()
FUNC 46314 4d 0 enum_system_locales_ex_nolock
FUNC 46374 5 0 invalid_function_sentinel
FUNC 4637c 1f 0 try_get_AppPolicyGetProcessTerminationMethod
FUNC 463a4 1f 0 try_get_AppPolicyGetShowDeveloperDiagnostic
FUNC 463cc 1f 0 try_get_AppPolicyGetThreadInitializationType
FUNC 463f4 1f 0 try_get_AppPolicyGetWindowingModel
FUNC 4641c 1c 0 try_get_AreFileApisANSI
FUNC 46440 1f 0 try_get_CompareStringEx
FUNC 46468 1f 0 try_get_EnumSystemLocalesEx
FUNC 46490 1f 0 try_get_FlsAlloc
FUNC 464b8 1f 0 try_get_FlsFree
FUNC 464e0 1f 0 try_get_FlsGetValue
FUNC 46508 1f 0 try_get_FlsSetValue
FUNC 46530 1f 0 try_get_GetActiveWindow
FUNC 46558 1f 0 try_get_GetDateFormatEx
FUNC 46580 1f 0 try_get_GetEnabledXStateFeatures
FUNC 465a8 1f 0 try_get_GetLastActivePopup
FUNC 465d0 1f 0 try_get_GetLocaleInfoEx
FUNC 465f8 1f 0 try_get_GetProcessWindowStation
FUNC 46620 1f 0 try_get_GetSystemTimePreciseAsFileTime
FUNC 46648 1f 0 try_get_GetTimeFormatEx
FUNC 46670 1f 0 try_get_GetUserDefaultLocaleName
FUNC 46698 1f 0 try_get_GetUserObjectInformationW
FUNC 466c0 1f 0 try_get_GetXStateFeaturesMask
FUNC 466e8 1f 0 try_get_InitializeCriticalSectionEx
FUNC 46710 1f 0 try_get_IsValidLocaleName
FUNC 46738 1f 0 try_get_LCIDToLocaleName
FUNC 46760 1f 0 try_get_LCMapStringEx
FUNC 46788 1f 0 try_get_LocaleNameToLCID
FUNC 467b0 1f 0 try_get_LocateXStateFeature
FUNC 467d8 1f 0 try_get_MessageBoxA
FUNC 46800 1f 0 try_get_MessageBoxW
FUNC 46828 1f 0 try_get_RoInitialize
FUNC 46850 1f 0 try_get_RoUninitialize
FUNC 46878 1f 0 try_get_SetThreadStackGuarantee
FUNC 468a0 1f 0 try_get_SystemFunction036
FUNC 468c8 119 0 try_get_first_available_module
FUNC 46a28 1d6 0 try_get_function
FUNC 46c74 fe 0 try_get_module
FUNC 46db4 137 0 try_get_proc_address_from_first_available_module
FUNC 46f38 73 0 try_load_library_from_system_directory
FUNC 46fc8 8 0 GetCurrentThreadEffectiveToken
FUNC 46fd4 4e 0 _acrt_AppPolicyGetProcessTerminationMethodInternal
FUNC 47038 4e 0 _acrt_AppPolicyGetShowDeveloperDiagnosticInternal
FUNC 4709c 4e 0 _acrt_AppPolicyGetThreadInitializationTypeInternal
FUNC 47100 4e 0 _acrt_AppPolicyGetWindowingModelInternal
FUNC 47164 3a 0 _acrt_AreFileApisANSI
FUNC 471ac dc 0 _acrt_CompareStringEx
FUNC 472c0 95 0 _acrt_EnumSystemLocalesEx
FUNC 4737c 48 0 _acrt_FlsAlloc
FUNC 473d8 46 0 _acrt_FlsFree
FUNC 47430 46 0 _acrt_FlsGetValue
FUNC 47488 51 0 _acrt_FlsSetValue
FUNC 474f0 b6 0 _acrt_GetDateFormatEx
FUNC 475d4 39 0 _acrt_GetEnabledXStateFeatures
FUNC 4761c 82 0 _acrt_GetLocaleInfoEx
FUNC 476c0 48 0 _acrt_GetSystemTimePreciseAsFileTime
FUNC 4771c ab 0 _acrt_GetTimeFormatEx
FUNC 477f4 61 0 _acrt_GetUserDefaultLocaleName
FUNC 47870 51 0 _acrt_GetXStateFeaturesMask
FUNC 478d8 61 0 _acrt_InitializeCriticalSectionEx
FUNC 47954 56 0 _acrt_IsValidLocaleName
FUNC 479c0 70 0 _acrt_LCIDToLocaleName
FUNC 47a4c dc 0 _acrt_LCMapStringEx
FUNC 47b60 50 0 _acrt_LocaleNameToLCID
FUNC 47bc4 5f 0 _acrt_LocateXStateFeature
FUNC 47c3c 71 0 _acrt_MessageBoxA
FUNC 47ccc 71 0 _acrt_MessageBoxW
FUNC 47d5c 40 0 _acrt_RoInitialize
FUNC 47dac 33 0 _acrt_RoUninitialize
FUNC 47dec 4f 0 _acrt_RtlGenRandom
FUNC 47e50 42 0 _acrt_SetThreadStackGuarantee
FUNC 47ea4 6d 0 _acrt_can_show_message_box
FUNC 47f2c 2e 0 _acrt_can_use_vista_locale_apis
FUNC 47f68 2e 0 _acrt_can_use_xstate_apis
FUNC 47fa4 15a 0 _acrt_eagerly_load_locale_apis
FUNC 48154 78 0 _acrt_get_parent_window
FUNC 481ec 31 0 _acrt_initialize_winapi_thunks
FUNC 4822c c6 0 _acrt_is_interactive
FUNC 48324 41 0 _acrt_uninitialize_winapi_thunks
FUNC 48378 8 0 _acrt_getheap
FUNC 48384 1c 0 _acrt_initialize_heap
FUNC 483a8 b 0 _acrt_uninitialize_heap
FUNC 483b8 8 0 get_heap_handle
FUNC 483c4 1b 0 get_std_handle_id
FUNC 483e8 ed 0 initialize_inherited_file_handles_nolock
FUNC 48510 10c 0 initialize_stdio_handles_nolock
FUNC 48660 3b 0 _acrt_initialize_lowio
FUNC 486ac 40 0 _acrt_uninitialize_lowio
FUNC 486fc 80 0 _acrt_execute_initializers
FUNC 4879c 3c 0 _acrt_execute_uninitializers
FUNC 487e8 8 0 __crt_fast_encoded_nullptr_t::operator<int > int (*)(unsigned __int64)()
FUNC 487f4 16 0 __crt_fast_decode_pointer<int (*)(unsigned __int64)>(int (*const)(unsigned __int64))
FUNC 48810 1e 0 __crt_fast_encode_pointer<int (*)(unsigned __int64)>(int (*const)(unsigned __int64))
FUNC 48838 c 0 _set_new_handler(int)
FUNC 48848 27 0 __crt_state_management::dual_state_global<int (*)(unsigned __int64)>::initialize(int (*const)(unsigned __int64))
FUNC 48878 4 0 __crt_state_management::dual_state_global<int (*)(unsigned __int64)>::value()
FUNC 4887c 8 0 _acrt_initialize_new_handler
FUNC 48888 2f 0 callnewh
FUNC 488c4 34 0 query_new_handler
FUNC 48908 59 0 set_new_handler
FUNC 48978 8 0 __crt_fast_encoded_nullptr_t::operator<void > void (*)(int)()
FUNC 48984 45 0 __crt_seh_guarded_call<void (__cdecl*)(int)>::operator()<<lambda_450d765d439847d4c735a33c368b5fc0>,<lambda_44731a7d0e6d81c3e6aa82d741081786> &,<lambda_601a2a7da3b7a96e9554ac7215c4b07c> >
FUNC 489dc 26 0 __acrt_lock_and_call<<lambda_44731a7d0e6d81c3e6aa82d741081786> >
FUNC 48a0c 16 0 __crt_fast_decode_pointer<void (*)(int)>(void (*const)(int))
FUNC 48a28 1e 0 __crt_fast_encode_pointer<void (*)(int)>(void (*const)(int))
FUNC 48a50 8 0 <lambda_450d765d439847d4c735a33c368b5fc0>::<lambda_450d765d439847d4c735a33c368b5fc0>
FUNC 48a5c 8 0 <lambda_601a2a7da3b7a96e9554ac7215c4b07c>::<lambda_601a2a7da3b7a96e9554ac7215c4b07c>
FUNC 48a68 17 0 <lambda_44731a7d0e6d81c3e6aa82d741081786>::operator()
FUNC 48a84 7 0 <lambda_450d765d439847d4c735a33c368b5fc0>::operator()
FUNC 48a8c 7 0 <lambda_601a2a7da3b7a96e9554ac7215c4b07c>::operator()
FUNC 48a94 92 0 ctrlevent_capture
FUNC 48b4c 3c 0 get_global_action_nolock
FUNC 48b98 27 0 __crt_state_management::dual_state_global<void (*)(int)>::initialize(void (*const)(int))
FUNC 48bc8 13 0 is_console_signal
FUNC 48be0 e 0 is_unsupported_signal
FUNC 48bf4 25 0 siglookup
FUNC 48c24 27 0 signal_failed
FUNC 48c54 4 0 __crt_state_management::dual_state_global<void (*)(int)>::value()
FUNC 48c58 2e 0 _acrt_get_sigabrt_handler
FUNC 48c94 1d 0 _acrt_initialize_signal_handlers
FUNC 48cb8 12 0 _fpecode
FUNC 48cd0 12 0 _pxcptinfoptrs
FUNC 48ce8 26c 0 raise
FUNC 48ff0 1da 0 signal
FUNC 49240 16 0 __crt_fast_decode_pointer<int (__cdecl*)(_exception *)>
FUNC 4925c 1e 0 __crt_fast_encode_pointer<int (__cdecl*)(_exception *)>
FUNC 49284 27 0 __crt_state_management::dual_state_global<int (__cdecl*)(_exception *)>::initialize
FUNC 492b4 4 0 __crt_state_management::dual_state_global<int (__cdecl*)(_exception *)>::value
FUNC 492b8 1d 0 _acrt_has_user_matherr
FUNC 492dc 8 0 _acrt_initialize_user_matherr
FUNC 492e8 2e 0 _acrt_invoke_user_matherr
FUNC 49324 25 0 _setusermatherr
FUNC 49354 9a 0 __crt_seh_guarded_call<void>::operator()<<lambda_842d9ff0dc9ef11c61343bbaebe7f885>,<lambda_c5860995281e5c4ce005b3de8f5874ee> &,<lambda_d90129c13df834fdcbf8d2b88dafcf2d> >
FUNC 49414 e0 0 __crt_seh_guarded_call<void>::operator()<<lambda_886d6c58226a84441f68b9f2b8217b83>,<lambda_ab61a845afdef5b7c387490eaf3616ee> &,<lambda_f7f22ab5edc0698d5f6905b0d3f44752> >
FUNC 4952c 40 0 __crt_seh_guarded_call<int>::operator()<<lambda_c376a267cfb53b6959b3b692ec76b120>,<lambda_9a32fed5bf61b6b509b2d3f6003082a1> &,<lambda_572fbb9fa0ab338edf41edfd4b5fcc8d> >
FUNC 4957c 26 0 __acrt_lock_and_call<<lambda_ab61a845afdef5b7c387490eaf3616ee> >
FUNC 495ac 28 0 __acrt_lock_stream_and_call<<lambda_9a32fed5bf61b6b509b2d3f6003082a1> >
FUNC 495e0 28 0 __acrt_lock_stream_and_call<<lambda_c5860995281e5c4ce005b3de8f5874ee> >
FUNC 49614 a 0 <lambda_572fbb9fa0ab338edf41edfd4b5fcc8d>::<lambda_572fbb9fa0ab338edf41edfd4b5fcc8d>
FUNC 49620 a 0 <lambda_842d9ff0dc9ef11c61343bbaebe7f885>::<lambda_842d9ff0dc9ef11c61343bbaebe7f885>
FUNC 4962c 8 0 <lambda_886d6c58226a84441f68b9f2b8217b83>::<lambda_886d6c58226a84441f68b9f2b8217b83>
FUNC 49638 7 0 <lambda_9a32fed5bf61b6b509b2d3f6003082a1>::<lambda_9a32fed5bf61b6b509b2d3f6003082a1>
FUNC 49640 f 0 <lambda_ab61a845afdef5b7c387490eaf3616ee>::<lambda_ab61a845afdef5b7c387490eaf3616ee>
FUNC 49654 a 0 <lambda_c376a267cfb53b6959b3b692ec76b120>::<lambda_c376a267cfb53b6959b3b692ec76b120>
FUNC 49660 18 0 <lambda_c5860995281e5c4ce005b3de8f5874ee>::<lambda_c5860995281e5c4ce005b3de8f5874ee>
FUNC 49680 a 0 <lambda_d90129c13df834fdcbf8d2b88dafcf2d>::<lambda_d90129c13df834fdcbf8d2b88dafcf2d>
FUNC 4968c 8 0 <lambda_f7f22ab5edc0698d5f6905b0d3f44752>::<lambda_f7f22ab5edc0698d5f6905b0d3f44752>
FUNC 49698 7 0 __crt_stdio_stream::__crt_stdio_stream(__crt_stdio_stream_data * const)
FUNC 496a0 8 0 <lambda_572fbb9fa0ab338edf41edfd4b5fcc8d>::operator()
FUNC 496ac 8 0 <lambda_842d9ff0dc9ef11c61343bbaebe7f885>::operator()
FUNC 496b8 7 0 <lambda_886d6c58226a84441f68b9f2b8217b83>::operator()
FUNC 496c0 b 0 <lambda_9a32fed5bf61b6b509b2d3f6003082a1>::operator()
FUNC 496d0 ae 0 <lambda_ab61a845afdef5b7c387490eaf3616ee>::operator()
FUNC 497ac 8 0 <lambda_c376a267cfb53b6959b3b692ec76b120>::operator()
FUNC 497b8 78 0 <lambda_c5860995281e5c4ce005b3de8f5874ee>::operator()
FUNC 49850 8 0 <lambda_d90129c13df834fdcbf8d2b88dafcf2d>::operator()
FUNC 4985c 7 0 <lambda_f7f22ab5edc0698d5f6905b0d3f44752>::operator()
FUNC 49864 c 0 __acrt_stdio_reset_buffer(__crt_stdio_stream)
FUNC 49874 5d 0 common_flush_all
FUNC 498e8 31 0 common_flush_all_should_try_to_flush_stream
FUNC 49928 e 0 __crt_stdio_stream::has_all_of(long)
FUNC 4993c 9 0 is_stream_allocated
FUNC 49948 13 0 is_stream_flushable
FUNC 49960 19 0 is_stream_flushable_or_commitable
FUNC 49980 1e 0 __crt_stdio_stream::set_flags(long)
FUNC 499a8 25 0 __crt_stdio_stream::unset_flags(long)
FUNC 499d8 7a 0 _acrt_stdio_flush_nolock
FUNC 49a70 4b 0 fflush_nolock
FUNC 49ad0 7 0 flushall
FUNC 49ad8 66 0 fflush
FUNC 49b58 30 0 _p___mb_cur_max
FUNC 49b94 8 0 __crt_internal_free_policy::operator()<__crt_stdio_stream_data *>
FUNC 49ba0 7 0 __crt_unique_heap_ptr<__crt_stdio_stream_data *,__crt_internal_free_policy>::__crt_unique_heap_ptr<__crt_stdio_stream_data *,__crt_internal_free_policy>
FUNC 49ba8 1b 0 __crt_unique_heap_ptr<__crt_stdio_stream_data *,__crt_internal_free_policy>::~__crt_unique_heap_ptr<__crt_stdio_stream_data *,__crt_internal_free_policy>
FUNC 49bcc 8 0 __crt_unique_heap_ptr<__crt_stdio_stream_data *,__crt_internal_free_policy>::detach
FUNC 49bd8 1b 0 __crt_unique_heap_ptr<__crt_stdio_stream_data *,__crt_internal_free_policy>::release
FUNC 49bfc 11f 0 _acrt_initialize_stdio
FUNC 49d64 11 0 _acrt_iob_func
FUNC 49d7c 5b 0 _acrt_uninitialize_stdio
FUNC 49df0 47 0 get_stream_buffer_pointers
FUNC 49e48 b 0 lock_file
FUNC 49e58 b 0 unlock_file
FUNC 49e68 10 0 __crt_stdio_stream::has_any_buffer()
FUNC 49e7c c 0 __crt_stdio_stream::has_any_of(long)
FUNC 49e8c c 0 __crt_stdio_stream::has_temporary_buffer()
FUNC 49e9c cf 0 _acrt_stdio_begin_temporary_buffering_nolock
FUNC 49fa0 39 0 _acrt_stdio_end_temporary_buffering_nolock
FUNC 49fe8 5e 0 malloc_base
FUNC 4a060 13 0 __crt_strtox::make_c_string_character_source<char,char * *>
FUNC 4a078 13 0 __crt_strtox::make_c_string_character_source<wchar_t,wchar_t * *>
FUNC 4a090 2e 0 __crt_strtox::parse_integer_from_string<long,char,char * *>
FUNC 4a0cc 2e 0 __crt_strtox::parse_integer_from_string<long,wchar_t,wchar_t * *>
FUNC 4a108 2e 0 __crt_strtox::parse_integer_from_string<unsigned long,char,char * *>
FUNC 4a144 2e 0 __crt_strtox::parse_integer_from_string<unsigned long,wchar_t,wchar_t * *>
FUNC 4a180 2e 0 __crt_strtox::parse_integer_from_string<__int64,char,char * *>
FUNC 4a1bc 2e 0 __crt_strtox::parse_integer_from_string<__int64,wchar_t,wchar_t * *>
FUNC 4a1f8 2e 0 __crt_strtox::parse_integer_from_string<unsigned __int64,char,char * *>
FUNC 4a234 2e 0 __crt_strtox::parse_integer_from_string<unsigned __int64,wchar_t,wchar_t * *>
FUNC 4a270 2a 0 strtoi64
FUNC 4a2a4 2e 0 strtoi64_l
FUNC 4a2e0 2e 0 strtoimax_l
FUNC 4a31c 2e 0 strtol_l
FUNC 4a358 2e 0 strtoll_l
FUNC 4a394 2a 0 strtoui64
FUNC 4a3c8 2e 0 strtoui64_l
FUNC 4a404 2e 0 strtoul_l
FUNC 4a440 2e 0 strtoull_l
FUNC 4a47c 2e 0 strtoumax_l
FUNC 4a4b8 2a 0 wcstoi64
FUNC 4a4ec 2e 0 wcstoi64_l
FUNC 4a528 2e 0 wcstoimax_l
FUNC 4a564 2e 0 wcstol_l
FUNC 4a5a0 2e 0 wcstoll_l
FUNC 4a5dc 2a 0 wcstoui64
FUNC 4a610 2e 0 wcstoui64_l
FUNC 4a64c 2e 0 wcstoul_l
FUNC 4a688 2e 0 wcstoull_l
FUNC 4a6c4 2e 0 wcstoumax_l
FUNC 4a700 2a 0 strtoimax
FUNC 4a734 2a 0 strtol
FUNC 4a768 2a 0 strtoll
FUNC 4a79c 2a 0 strtoul
FUNC 4a7d0 2a 0 strtoull
FUNC 4a804 2a 0 strtoumax
FUNC 4a838 2a 0 wcstoimax
FUNC 4a86c 2a 0 wcstol
FUNC 4a8a0 2a 0 wcstoll
FUNC 4a8d4 2a 0 wcstoul
FUNC 4a908 2a 0 wcstoull
FUNC 4a93c 2a 0 wcstoumax
FUNC 4a970 17e 0 mbtowc_l
FUNC 4ab50 8 0 mbtowc
FUNC 4ab5c 72 0 wctomb_l
FUNC 4abec 19c 0 wctomb_s_l
FUNC 4adf0 4d 0 wctomb
FUNC 4ae50 14 0 wctomb_s
FUNC 4ae6c 155 0 common_strnlen<1,unsigned short>
FUNC 4b018 150 0 common_strnlen<0,unsigned char>
FUNC 4b1bc 1c3 0 common_strnlen<0,unsigned short>
FUNC 4b3f0 16 0 common_strnlen_c<1,unsigned short>
FUNC 4b40c 1d 0 common_strnlen_c<0,unsigned char>
FUNC 4b430 22 0 common_strnlen_c<0,unsigned short>
FUNC 4b45c 96 0 common_strnlen_simd<1,1,unsigned short>
FUNC 4b518 96 0 common_strnlen_simd<1,0,unsigned short>
FUNC 4b5d4 88 0 common_strnlen_simd<0,1,unsigned char>
FUNC 4b680 d0 0 common_strnlen_simd<0,1,unsigned short>
FUNC 4b784 85 0 common_strnlen_simd<0,0,unsigned char>
FUNC 4b82c cd 0 common_strnlen_simd<0,0,unsigned short>
FUNC 4b92c 3 0 last_reached<1>
FUNC 4b930 7 0 last_reached<0>
FUNC 4b938 4 0 __crt_simd_cleanup_guard<1>::~__crt_simd_cleanup_guard<1>()
FUNC 4b93c 3 0 __crt_simd_cleanup_guard<0>::~__crt_simd_cleanup_guard<0>()
FUNC 4b940 9 0 __crt_simd_traits<1,unsigned char>::compare_equals(__m256i,__m256i)
FUNC 4b94c 9 0 __crt_simd_traits<1,unsigned short>::compare_equals(__m256i,__m256i)
FUNC 4b958 9 0 __crt_simd_traits<0,unsigned char>::compare_equals(__m128i,__m128i)
FUNC 4b964 9 0 __crt_simd_traits<0,unsigned short>::compare_equals(__m128i,__m128i)
FUNC 4b970 c 0 __crt_simd_pack_traits<1>::compute_byte_mask(__m256i)
FUNC 4b980 9 0 __crt_simd_pack_traits<0>::compute_byte_mask(__m128i)
FUNC 4b98c 5 0 __crt_simd_pack_traits<1>::get_zero_pack()
FUNC 4b994 4 0 __crt_simd_pack_traits<0>::get_zero_pack()
FUNC 4b998 150 0 strnlen
FUNC 4bb3c 129 0 wcslen
FUNC 4bcb0 1d6 0 wcsnlen
FUNC 4befc 31 0 _acrt_update_locale_info
FUNC 4bf3c 31 0 _acrt_update_multibyte_info
FUNC 4bf7c 5b 0 __acrt_fp_classify(double const &)
FUNC 4bff0 8 0 __acrt_fp_is_negative(double const &)
FUNC 4bffc 36d 0 fp_format_a
FUNC 4c444 db 0 fp_format_e
FUNC 4c558 1d2 0 fp_format_e_internal
FUNC 4c7a0 a6 0 fp_format_f
FUNC 4c870 143 0 fp_format_f_internal
FUNC 4ca04 132 0 fp_format_g
FUNC 4cb84 a5 0 fp_format_nan_or_infinity
FUNC 4cc54 30 0 shift_bytes
FUNC 4cc90 5 0 strrchr(char * const,int)
FUNC 4cc98 304 0 _acrt_fp_format
FUNC 4d060 1c 0 fputwc_binary_nolock
FUNC 4d084 17c 0 fputwc_nolock
FUNC 4d260 23 0 fputwchar
FUNC 4d28c 5 0 putwc_nolock
FUNC 4d294 5e 0 fputwc
FUNC 4d30c 5 0 putwc
FUNC 4d314 5 0 putwchar
FUNC 4d31c 7 0 __crt_stdio_stream::lowio_handle()
FUNC 4d324 26 0 fileno
FUNC 4d354 16 0 fputc_nolock
FUNC 4d370 21 0 fputchar
FUNC 4d39c 16 0 putc_nolock
FUNC 4d3b8 124 0 fputc
FUNC 4d528 5 0 putc
FUNC 4d530 5 0 putchar
FUNC 4d538 18 0 get_printf_count_output
FUNC 4d558 27 0 set_printf_count_output
FUNC 4d588 3 0 no_op_initialize
FUNC 4d58c 8 0 __crt_internal_free_policy::operator()<__crt_locale_data>(__crt_locale_data const * const)
FUNC 4d598 8 0 __crt_internal_free_policy::operator()<__crt_locale_pointers>(__crt_locale_pointers const * const)
FUNC 4d5a4 3e 0 __crt_seh_guarded_call<void>::operator()<<lambda_0a55505eb881d180377eb1fc64ffb544>,<lambda_862e9a3f04921db6ca1ce3faa2bf3edf> &,<lambda_c91f0b5e4ab41df1063aa1a95f49bd71> >
FUNC 4d5f4 13a 0 __crt_seh_guarded_call<void>::operator()<<lambda_1d892b297fdedeee07ed8124eeb2f2fa>,<lambda_ffc046909424fd52df0ac47e64813305> &,<lambda_01a7098693036236037e7cdb9bca3d73> >
FUNC 4d77c 6e 0 __crt_seh_guarded_call<void>::operator()<<lambda_410d79af7f07d98d83a3f525b3859a53>,<lambda_3e16ef9562a7dcce91392c22ab16ea36> &,<lambda_38119f0e861e05405d8a144b9b982f0a> >
FUNC 4d808 29 0 __crt_seh_guarded_call<void>::operator()<<lambda_7f2adfce497ff2baa965cd4f576ecfd1>,<lambda_2a444430fde8c29194d880d93eed5e8f> &,<lambda_8dff2cf36a5417162780cd64fa2883ef> &>
FUNC 4d83c 41 0 __crt_seh_guarded_call<void>::operator()<<lambda_a48fd90c2dacdd6561e44078457d03a7>,<lambda_ebab98244f73a74f49db879bf13fa982> &,<lambda_8b3bdacfa7480f205f16cb49964db269> >
FUNC 4d890 26 0 __acrt_lock_and_call<<lambda_3e16ef9562a7dcce91392c22ab16ea36> >
FUNC 4d8c0 26 0 __acrt_lock_and_call<<lambda_862e9a3f04921db6ca1ce3faa2bf3edf> >
FUNC 4d8f0 26 0 __acrt_lock_and_call<<lambda_ebab98244f73a74f49db879bf13fa982> >
FUNC 4d920 26 0 __acrt_lock_and_call<<lambda_ffc046909424fd52df0ac47e64813305> >
FUNC 4d950 15 0 __crt_call_and_cleanup<<lambda_2a444430fde8c29194d880d93eed5e8f>,<lambda_8dff2cf36a5417162780cd64fa2883ef> >
FUNC 4d96c 4e 0 __crt_state_management::dual_state_global<__crt_locale_data *>::uninitialize<<lambda_363eea9039da1e8169e2d060c7fe5cbc> >
FUNC 4d9d0 8 0 <lambda_01a7098693036236037e7cdb9bca3d73>::<lambda_01a7098693036236037e7cdb9bca3d73>
FUNC 4d9dc 8 0 <lambda_0a55505eb881d180377eb1fc64ffb544>::<lambda_0a55505eb881d180377eb1fc64ffb544>
FUNC 4d9e8 8 0 <lambda_1d892b297fdedeee07ed8124eeb2f2fa>::<lambda_1d892b297fdedeee07ed8124eeb2f2fa>
FUNC 4d9f4 21 0 <lambda_2a444430fde8c29194d880d93eed5e8f>::<lambda_2a444430fde8c29194d880d93eed5e8f>
FUNC 4da20 8 0 <lambda_38119f0e861e05405d8a144b9b982f0a>::<lambda_38119f0e861e05405d8a144b9b982f0a>
FUNC 4da2c 8 0 <lambda_410d79af7f07d98d83a3f525b3859a53>::<lambda_410d79af7f07d98d83a3f525b3859a53>
FUNC 4da38 7 0 <lambda_862e9a3f04921db6ca1ce3faa2bf3edf>::<lambda_862e9a3f04921db6ca1ce3faa2bf3edf>
FUNC 4da40 8 0 <lambda_8b3bdacfa7480f205f16cb49964db269>::<lambda_8b3bdacfa7480f205f16cb49964db269>
FUNC 4da4c 7 0 <lambda_8dff2cf36a5417162780cd64fa2883ef>::<lambda_8dff2cf36a5417162780cd64fa2883ef>
FUNC 4da54 8 0 <lambda_a48fd90c2dacdd6561e44078457d03a7>::<lambda_a48fd90c2dacdd6561e44078457d03a7>
FUNC 4da60 8 0 <lambda_c91f0b5e4ab41df1063aa1a95f49bd71>::<lambda_c91f0b5e4ab41df1063aa1a95f49bd71>
FUNC 4da6c 7 0 <lambda_ebab98244f73a74f49db879bf13fa982>::<lambda_ebab98244f73a74f49db879bf13fa982>
FUNC 4da74 21 0 <lambda_ffc046909424fd52df0ac47e64813305>::<lambda_ffc046909424fd52df0ac47e64813305>
FUNC 4daa0 7 0 __crt_unique_heap_ptr<__crt_locale_data,__crt_internal_free_policy>::__crt_unique_heap_ptr<__crt_locale_data,__crt_internal_free_policy>(__crt_locale_data * const)
FUNC 4daa8 7 0 __crt_unique_heap_ptr<__crt_locale_pointers,__crt_internal_free_policy>::__crt_unique_heap_ptr<__crt_locale_pointers,__crt_internal_free_policy>(__crt_locale_pointers * const)
FUNC 4dab0 59 0 _expandlocale_locale_name_cache::_expandlocale_locale_name_cache(wchar_t * const,unsigned __int64,__crt_qualified_locale_data * const)
FUNC 4db20 1b 0 __crt_unique_heap_ptr<__crt_locale_data,__crt_internal_free_policy>::~__crt_unique_heap_ptr<__crt_locale_data,__crt_internal_free_policy>()
FUNC 4db44 1b 0 __crt_unique_heap_ptr<__crt_locale_pointers,__crt_internal_free_policy>::~__crt_unique_heap_ptr<__crt_locale_pointers,__crt_internal_free_policy>()
FUNC 4db68 48 0 _expandlocale_locale_name_cache::~_expandlocale_locale_name_cache()
FUNC 4dbc4 8 0 __crt_unique_heap_ptr<__crt_locale_data,__crt_internal_free_policy>::operator bool()
FUNC 4dbd0 8 0 __crt_unique_heap_ptr<__crt_locale_pointers,__crt_internal_free_policy>::operator bool()
FUNC 4dbdc 7 0 <lambda_01a7098693036236037e7cdb9bca3d73>::operator()
FUNC 4dbe4 7 0 <lambda_0a55505eb881d180377eb1fc64ffb544>::operator()
FUNC 4dbec 7 0 <lambda_1d892b297fdedeee07ed8124eeb2f2fa>::operator()
FUNC 4dbf4 8e 0 <lambda_2a444430fde8c29194d880d93eed5e8f>::operator()
FUNC 4dca8 26 0 <lambda_363eea9039da1e8169e2d060c7fe5cbc>::operator()
FUNC 4dcd8 7 0 <lambda_38119f0e861e05405d8a144b9b982f0a>::operator()
FUNC 4dce0 2c 0 <lambda_3e16ef9562a7dcce91392c22ab16ea36>::operator()
FUNC 4dd18 7 0 <lambda_410d79af7f07d98d83a3f525b3859a53>::operator()
FUNC 4dd20 3 0 <lambda_7f2adfce497ff2baa965cd4f576ecfd1>::operator()
FUNC 4dd24 e 0 <lambda_862e9a3f04921db6ca1ce3faa2bf3edf>::operator()
FUNC 4dd38 7 0 <lambda_8b3bdacfa7480f205f16cb49964db269>::operator()
FUNC 4dd40 e 0 <lambda_8dff2cf36a5417162780cd64fa2883ef>::operator()
FUNC 4dd54 7 0 <lambda_a48fd90c2dacdd6561e44078457d03a7>::operator()
FUNC 4dd5c 7 0 <lambda_c91f0b5e4ab41df1063aa1a95f49bd71>::operator()
FUNC 4dd64 e 0 <lambda_ebab98244f73a74f49db879bf13fa982>::operator()
FUNC 4dd78 11d 0 <lambda_ffc046909424fd52df0ac47e64813305>::operator()
FUNC 4dedc 77 0 _expandlocale_locale_name_cache::commit_locale_name(wchar_t const * const,unsigned __int64)
FUNC 4df70 3f 0 _expandlocale_locale_name_cache::commit_locale_name_cache_already_updated(wchar_t const * const,unsigned __int64)
FUNC 4dfc0 8 0 __crt_unique_heap_ptr<__crt_locale_data,__crt_internal_free_policy>::detach()
FUNC 4dfcc 8 0 __crt_unique_heap_ptr<__crt_locale_pointers,__crt_internal_free_policy>::detach()
FUNC 4dfd8 4 0 __crt_unique_heap_ptr<__crt_locale_data,__crt_internal_free_policy>::get()
FUNC 4dfdc 4 0 __crt_unique_heap_ptr<__crt_locale_pointers,__crt_internal_free_policy>::get()
FUNC 4dfe0 8 0 __crt_unique_heap_ptr<__crt_locale_data,__crt_internal_free_policy>::is_valid()
FUNC 4dfec 8 0 __crt_unique_heap_ptr<__crt_locale_pointers,__crt_internal_free_policy>::is_valid()
FUNC 4dff8 1b 0 __crt_unique_heap_ptr<__crt_locale_data,__crt_internal_free_policy>::release()
FUNC 4e01c 1b 0 __crt_unique_heap_ptr<__crt_locale_pointers,__crt_internal_free_policy>::release()
FUNC 4e040 82 0 _acrt_copy_locale_name
FUNC 4e0e4 c 0 _acrt_set_locale_changed
FUNC 4e0f4 2e 0 _acrt_uninitialize_locale
FUNC 4e130 e 0 _ascii_tolower
FUNC 4e144 d 0 _ascii_towlower
FUNC 4e154 a2 0 _lc_lctowcs
FUNC 4e220 166 0 _lc_wcstolc
FUNC 4e3e0 69 0 configthreadlocale
FUNC 4e464 be 0 _copytlocinfo_nolock
FUNC 4e554 76 0 create_locale
FUNC 4e5e8 47f 0 _expandlocale
FUNC 4eb88 a2 0 free_locale
FUNC 4ec54 bb 0 get_current_locale
FUNC 4ed40 148 0 wcreate_locale
FUNC 4eedc 65 0 wcscats
FUNC 4ef5c a1 0 wsetlocale
FUNC 4f028 1ea 0 _wsetlocale_get_all
FUNC 4f28c 296 0 _wsetlocale_nolock
FUNC 4f5c8 352 0 _wsetlocale_set_cat
FUNC 4f9f0 21 0 categorize_delimiter
FUNC 4fa1c 34 0 get_default_code_page
FUNC 4fa60 1ff 0 parse_bcp47
FUNC 4fce0 47 0 parse_bcp47_code_page
FUNC 4fd38 89 0 parse_bcp47_language
FUNC 4fde4 10a 0 parse_bcp47_region
FUNC 4ff30 8f 0 parse_bcp47_script
FUNC 4ffe4 72 0 string_is_alpha
FUNC 50074 6f 0 string_is_digit
FUNC 50100 29 0 sync_legacy_variables_lk
FUNC 50134 2f 0 _pctype_func
FUNC 50170 8 0 _pwctype_func
FUNC 5017c 5 0 iswctype_l
FUNC 50184 6f 0 iswctype
FUNC 50210 30 0 isctype
FUNC 5024c 108 0 isctype_l
FUNC 50398 18 0 isleadbyte_fast_internal
FUNC 503b8 8b 0 _acrt_add_locale_ref
FUNC 50468 176 0 _acrt_free_locale
FUNC 5063c 27 0 _acrt_locale_add_lc_time_reference
FUNC 5066c 36 0 _acrt_locale_free_lc_time_if_unreferenced
FUNC 506b0 25 0 _acrt_locale_release_lc_time_reference
FUNC 506e0 a8 0 _acrt_release_locale_ref
FUNC 507b4 6c 0 _acrt_update_thread_locale_data
FUNC 5083c 65 0 updatetlocinfoEx_nolock
FUNC 508bc 4 0 __crt_state_management::dual_state_global<long>::value()
FUNC 508c0 7 0 query_new_mode
FUNC 508c8 2b 0 set_new_mode
FUNC 50900 bc 0 shortsort
FUNC 509f0 29 0 swap
FUNC 50a30 3ad 0 qsort
FUNC 50ec8 db 0 common_tcsncpy_s<wchar_t>
FUNC 50fdc e4 0 wcsncpy_s
FUNC 510fc 34 0 wcspbrk
FUNC 51140 c6 0 common_tcsncpy_s<char>
FUNC 51238 d3 0 strncpy_s
FUNC 51340 9e 0 fallbackMethod
FUNC 51410 3e0 0 strpbrk
FUNC 518e8 8 0 mbsdec
FUNC 518f4 94 0 mbsdec_l
FUNC 519b0 7 0 __crt_scoped_stack_ptr<wchar_t>::__crt_scoped_stack_ptr<wchar_t>(__crt_scoped_stack_ptr_tag<wchar_t>)
FUNC 519b8 7 0 __crt_scoped_stack_ptr_tag<wchar_t>::__crt_scoped_stack_ptr_tag<wchar_t>(wchar_t * const)
FUNC 519c0 22 0 __crt_scoped_stack_ptr<wchar_t>::~__crt_scoped_stack_ptr<wchar_t>()
FUNC 519ec 4 0 __crt_scoped_stack_ptr<wchar_t>::get()
FUNC 519f0 e 0 MallocaComputeSize
FUNC 51a04 f 0 MarkAllocaS
FUNC 51a18 18d 0 _acrt_GetStringTypeA
FUNC 51c08 1f 0 freea_crt
FUNC 51c30 8 0 __crt_scoped_stack_ptr<wchar_t>::operator bool()
FUNC 51c3c 315 0 __acrt_LCMapStringA_stat
FUNC 52018 96 0 _acrt_LCMapStringA
FUNC 520d4 17 0 initialize_multibyte
FUNC 520f0 4f 0 wcsnicoll
FUNC 52154 f0 0 wcsnicoll_l
FUNC 52280 15 0 strnicoll
FUNC 5229c 100 0 strnicoll_l
FUNC 523dc 179 0 __acrt_convert_wcs_mbs_cp<char,wchar_t,<lambda_7c9dea7b4ca7285d2cdb541a38da6275>,__crt_win32_buffer_internal_dynamic_resizing>
FUNC 525b4 25 0 <lambda_7c9dea7b4ca7285d2cdb541a38da6275>::operator()
FUNC 525e4 197 0 _acrt_SetEnvironmentVariableA
FUNC 527e0 5 0 msize
FUNC 527e8 39 0 msize_base
FUNC 52830 7a 0 realloc_base
FUNC 528c8 4b 0 GetTableIndexFromLcid
FUNC 52928 87 0 GetTableIndexFromLocaleName
FUNC 529d0 f4 0 _acrt_DownlevelLCIDToLocaleName
FUNC 52b04 af 0 _acrt_DownlevelLocaleNameToLCID
FUNC 52be0 8 0 __crt_internal_free_policy::operator()<__crt_lowio_handle_data>(__crt_lowio_handle_data const * const)
FUNC 52bec 7 0 __crt_unique_heap_ptr<__crt_lowio_handle_data,__crt_internal_free_policy>::__crt_unique_heap_ptr<__crt_lowio_handle_data,__crt_internal_free_policy>(__crt_lowio_handle_data * const)
FUNC 52bf4 1b 0 __crt_unique_heap_ptr<__crt_lowio_handle_data,__crt_internal_free_policy>::~__crt_unique_heap_ptr<__crt_lowio_handle_data,__crt_internal_free_policy>()
FUNC 52c18 8 0 __crt_unique_heap_ptr<__crt_lowio_handle_data,__crt_internal_free_policy>::operator bool()
FUNC 52c24 8 0 __crt_unique_heap_ptr<__crt_lowio_handle_data,__crt_internal_free_policy>::detach()
FUNC 52c30 4 0 __crt_unique_heap_ptr<__crt_lowio_handle_data,__crt_internal_free_policy>::get()
FUNC 52c34 8 0 __crt_unique_heap_ptr<__crt_lowio_handle_data,__crt_internal_free_policy>::is_valid()
FUNC 52c40 1b 0 __crt_unique_heap_ptr<__crt_lowio_handle_data,__crt_internal_free_policy>::release()
FUNC 52c64 a5 0 _acrt_lowio_create_handle_array
FUNC 52d34 50 0 _acrt_lowio_destroy_handle_array
FUNC 52d98 a8 0 _acrt_lowio_ensure_fh_exists
FUNC 52e6c 27 0 _acrt_lowio_lock_fh
FUNC 52e9c bf 0 _acrt_lowio_set_os_handle
FUNC 52f8c 27 0 _acrt_lowio_unlock_fh
FUNC 52fbc 13e 0 alloc_osfhnd
FUNC 5314c ba 0 free_osfhnd
FUNC 53234 75 0 get_osfhandle
FUNC 532c8 101 0 open_osfhandle
FUNC 5340c 8c 0 __crt_seh_guarded_call<int>::operator()<<lambda_a37b2b86f63e897a80ea819b0eb08c01>,<lambda_38ce7e780aa69e748d6df282ebc68efe> &,<lambda_99fb1378e971ab6e7edea83e3a7a83a2> >
FUNC 534bc 26 0 __acrt_lowio_lock_fh_and_call<<lambda_38ce7e780aa69e748d6df282ebc68efe> >
FUNC 534ec 7 0 <lambda_38ce7e780aa69e748d6df282ebc68efe>::<lambda_38ce7e780aa69e748d6df282ebc68efe>
FUNC 534f4 8 0 <lambda_99fb1378e971ab6e7edea83e3a7a83a2>::<lambda_99fb1378e971ab6e7edea83e3a7a83a2>
FUNC 53500 8 0 <lambda_a37b2b86f63e897a80ea819b0eb08c01>::<lambda_a37b2b86f63e897a80ea819b0eb08c01>
FUNC 5350c 69 0 <lambda_38ce7e780aa69e748d6df282ebc68efe>::operator()
FUNC 53590 7 0 <lambda_99fb1378e971ab6e7edea83e3a7a83a2>::operator()
FUNC 53598 7 0 <lambda_a37b2b86f63e897a80ea819b0eb08c01>::operator()
FUNC 535a0 91 0 commit
FUNC 53658 6c 0 write_binary_nolock
FUNC 536e0 4d0 0 write_double_translated_ansi_nolock
FUNC 53ce4 95 0 write_double_translated_unicode_nolock
FUNC 53da0 8e 0 write_requires_double_translation_nolock
FUNC 53e54 102 0 write_text_ansi_nolock
FUNC 53f98 119 0 write_text_utf16le_nolock
FUNC 540f8 170 0 write_text_utf8_nolock
FUNC 542c4 e 0 utf8_no_of_trailbytes
FUNC 542d8 eb 0 write
FUNC 54400 2da 0 write_nolock
FUNC 54790 33 0 localeconv
FUNC 547d0 c 0 __crt_stdio_stream::is_in_use()
FUNC 547e0 b1 0 fcloseall
FUNC 548c0 c 0 __crt_stdio_stream::has_crt_buffer()
FUNC 548d0 40 0 _acrt_stdio_free_buffer_nolock
FUNC 54920 5f 0 isatty
FUNC 54998 2c 0 _iswcsym
FUNC 549d0 2c 0 _iswcsymf
FUNC 54a08 4b 0 isleadbyte_l
FUNC 54a68 a 0 iswalnum_l
FUNC 54a74 a 0 iswalpha_l
FUNC 54a80 16 0 iswblank_l
FUNC 54a9c a 0 iswcntrl_l
FUNC 54aa8 2c 0 iswcsym_l
FUNC 54ae0 2c 0 iswcsymf_l
FUNC 54b18 a 0 iswdigit_l
FUNC 54b24 a 0 iswgraph_l
FUNC 54b30 a 0 iswlower_l
FUNC 54b3c a 0 iswprint_l
FUNC 54b48 a 0 iswpunct_l
FUNC 54b54 a 0 iswspace_l
FUNC 54b60 a 0 iswupper_l
FUNC 54b6c a 0 iswxdigit_l
FUNC 54b78 4d 0 isleadbyte
FUNC 54bd8 a 0 iswalnum
FUNC 54be4 a 0 iswalpha
FUNC 54bf0 e 0 iswascii
FUNC 54c04 16 0 iswblank
FUNC 54c20 a 0 iswcntrl
FUNC 54c2c a 0 iswdigit
FUNC 54c38 a 0 iswgraph
FUNC 54c44 a 0 iswlower
FUNC 54c50 a 0 iswprint
FUNC 54c5c a 0 iswpunct
FUNC 54c68 a 0 iswspace
FUNC 54c74 a 0 iswupper
FUNC 54c80 a 0 iswxdigit
FUNC 54c8c 27 0 <lambda_88e6d024674186fe9d3f7283b675e4c3>::operator()
FUNC 54cbc 39 0 __crt_mbstring::__mbrtowc_utf8(wchar_t *,char const *,unsigned __int64,_Mbstatet *)
FUNC 54d04 176 0 __crt_mbstring::__mbsrtowcs_utf8(wchar_t *,char const * *,unsigned __int64,_Mbstatet *)
FUNC 54ed8 251 0 _mbrtowc_s_l
FUNC 551c0 15e 0 _mbsrtowcs_helper
FUNC 55378 66 0 btowc
FUNC 553f8 3e 0 mbrlen
FUNC 55448 60 0 mbrtowc
FUNC 554c0 5 0 mbsrtowcs
FUNC 554c8 d1 0 mbsrtowcs_s
FUNC 555d0 8 0 __crt_internal_free_policy::operator()<unsigned short>(unsigned short const * const)
FUNC 555dc 8 0 __crt_internal_free_policy::operator()<long>(long const * const)
FUNC 555e8 7 0 __crt_unique_heap_ptr<unsigned short,__crt_internal_free_policy>::__crt_unique_heap_ptr<unsigned short,__crt_internal_free_policy>(unsigned short * const)
FUNC 555f0 7 0 __crt_unique_heap_ptr<long,__crt_internal_free_policy>::__crt_unique_heap_ptr<long,__crt_internal_free_policy>(long * const)
FUNC 555f8 1b 0 __crt_unique_heap_ptr<unsigned short,__crt_internal_free_policy>::~__crt_unique_heap_ptr<unsigned short,__crt_internal_free_policy>()
FUNC 5561c 1b 0 __crt_unique_heap_ptr<long,__crt_internal_free_policy>::~__crt_unique_heap_ptr<long,__crt_internal_free_policy>()
FUNC 55640 8 0 __crt_unique_heap_ptr<unsigned short,__crt_internal_free_policy>::detach()
FUNC 5564c 8 0 __crt_unique_heap_ptr<long,__crt_internal_free_policy>::detach()
FUNC 55658 1b 0 __crt_unique_heap_ptr<unsigned short,__crt_internal_free_policy>::release()
FUNC 5567c 1b 0 __crt_unique_heap_ptr<long,__crt_internal_free_policy>::release()
FUNC 556a0 2f 0 __lc_codepage_func
FUNC 556dc 2f 0 __lc_collate_cp_func
FUNC 55718 32 0 __lc_locale_name_func
FUNC 55758 2f 0 __mb_cur_max_func
FUNC 55794 10 0 __mb_cur_max_l_func
FUNC 557a8 661 0 _acrt_locale_initialize_ctype
FUNC 55fa4 b3 0 __crt_mbstring::__c32rtomb_utf8(char *,char32_t,_Mbstatet *)
FUNC 56084 8 0 __crt_mbstring::reset_and_return(unsigned __int64,_Mbstatet *)
FUNC 56090 1c 0 __crt_mbstring::return_illegal_sequence(_Mbstatet *)
FUNC 560b4 5 0 c32rtomb
FUNC 560bc e2 0 _acrt_fp_strflt_to_string
FUNC 561d8 114d 0 convert_to_fos_high_precision<double>
FUNC 57780 2f 0 __crt_strtox::big_integer::big_integer(__crt_strtox::big_integer const &)
FUNC 577c0 a 0 __crt_strtox::big_integer::big_integer()
FUNC 577cc 3b 0 `anonymous namespace'::scoped_fp_state_reset::scoped_fp_state_reset
FUNC 57818 14 0 `anonymous namespace'::scoped_fp_state_reset::~scoped_fp_state_reset
FUNC 57840 2f 0 __crt_strtox::big_integer::operator=(__crt_strtox::big_integer const &)
FUNC 57880 2a 0 __crt_strtox::operator==(__crt_strtox::big_integer const &,__crt_strtox::big_integer const &)
FUNC 578c0 3e 0 __crt_strtox::operator!=(__crt_strtox::big_integer const &,__crt_strtox::big_integer const &)
FUNC 57910 14 0 __crt_strtox::add_carry(unsigned int &,unsigned int,unsigned int)
FUNC 57930 20 0 __crt_strtox::add_multiply_carry(unsigned int &,unsigned int,unsigned int,unsigned int)
FUNC 57960 13 0 __crt_strtox::bit_scan_reverse(unsigned int)
FUNC 57980 13 0 __crt_strtox::count_sequential_high_zeroes(unsigned int)
FUNC 579a0 429 0 __crt_strtox::divide(__crt_strtox::big_integer &,__crt_strtox::big_integer const &)
FUNC 57ee0 7 0 __crt_strtox::is_zero(__crt_strtox::big_integer const &)
FUNC 57ef0 19 0 __crt_strtox::make_big_integer(unsigned __int64)
FUNC 57f10 67 0 __crt_strtox::make_big_integer_power_of_two(unsigned int)
FUNC 57f90 3a8 0 __crt_strtox::multiply(__crt_strtox::big_integer &,__crt_strtox::big_integer const &)
FUNC 58430 ed 0 __crt_strtox::multiply(__crt_strtox::big_integer &,unsigned int)
FUNC 58560 7 0 __crt_strtox::multiply_64_32(unsigned __int64,unsigned int)
FUNC 58570 5a8 0 __crt_strtox::multiply_by_power_of_ten(__crt_strtox::big_integer &,unsigned int)
FUNC 58c90 49 0 __crt_strtox::multiply_core(unsigned int * const,unsigned int,unsigned int)
FUNC 58cf0 14d 0 __crt_strtox::shift_left(__crt_strtox::big_integer &,unsigned int)
FUNC 58e90 1231 0 _acrt_fltout
FUNC 5a550 87 0 memcpy_s
FUNC 5a5f8 e8 0 common_flush_and_write_nolock<char>
FUNC 5a71c e9 0 common_flush_and_write_nolock<wchar_t>
FUNC 5a840 e4 0 write_buffer_nolock<char>
FUNC 5a960 e8 0 write_buffer_nolock<wchar_t>
FUNC 5aa84 d 0 __crt_stdio_stream::has_big_buffer()
FUNC 5aa94 79 0 stream_is_at_end_of_file_nolock
FUNC 5ab2c ea 0 _acrt_stdio_flush_and_write_narrow_nolock
FUNC 5ac50 eb 0 _acrt_stdio_flush_and_write_wide_nolock
FUNC 5ad78 8 0 __crt_internal_free_policy::operator()<lconv>(lconv const * const)
FUNC 5ad84 7 0 __crt_unique_heap_ptr<lconv,__crt_internal_free_policy>::__crt_unique_heap_ptr<lconv,__crt_internal_free_policy>(lconv * const)
FUNC 5ad8c 1b 0 __crt_unique_heap_ptr<lconv,__crt_internal_free_policy>::~__crt_unique_heap_ptr<lconv,__crt_internal_free_policy>()
FUNC 5adb0 8 0 __crt_unique_heap_ptr<lconv,__crt_internal_free_policy>::detach()
FUNC 5adbc 1b 0 __crt_unique_heap_ptr<lconv,__crt_internal_free_policy>::release()
FUNC 5ade0 10a 0 _acrt_locale_free_monetary
FUNC 5af2c 533 0 _acrt_locale_initialize_monetary
FUNC 5b5ac 34 0 fix_grouping
FUNC 5b5f0 6c 0 _acrt_locale_free_numeric
FUNC 5b678 2e8 0 _acrt_locale_initialize_numeric
FUNC 5ba1c 34 0 fix_grouping
FUNC 5ba60 8 0 __crt_internal_free_policy::operator()<__crt_lc_time_data>(__crt_lc_time_data const * const)
FUNC 5ba6c a 0 free_crt_array<char,2>
FUNC 5ba78 a 0 free_crt_array<char,7>
FUNC 5ba84 a 0 free_crt_array<char,12>
FUNC 5ba90 a 0 free_crt_array<wchar_t,2>
FUNC 5ba9c a 0 free_crt_array<wchar_t,7>
FUNC 5baa8 a 0 free_crt_array<wchar_t,12>
FUNC 5bab4 7 0 __crt_unique_heap_ptr<__crt_lc_time_data,__crt_internal_free_policy>::__crt_unique_heap_ptr<__crt_lc_time_data,__crt_internal_free_policy>(__crt_lc_time_data * const)
FUNC 5babc 1b 0 __crt_unique_heap_ptr<__crt_lc_time_data,__crt_internal_free_policy>::~__crt_unique_heap_ptr<__crt_lc_time_data,__crt_internal_free_policy>()
FUNC 5bae0 8 0 __crt_unique_heap_ptr<__crt_lc_time_data,__crt_internal_free_policy>::operator bool()
FUNC 5baec 8 0 __crt_unique_heap_ptr<__crt_lc_time_data,__crt_internal_free_policy>::detach()
FUNC 5baf8 58 0 free_crt_array_internal
FUNC 5bb68 4 0 __crt_unique_heap_ptr<__crt_lc_time_data,__crt_internal_free_policy>::get()
FUNC 5bb6c 77 0 get_or_create_lc_time
FUNC 5bc00 33e 0 initialize_lc_time
FUNC 5c010 8 0 __crt_unique_heap_ptr<__crt_lc_time_data,__crt_internal_free_policy>::is_valid()
FUNC 5c01c 1b 0 __crt_unique_heap_ptr<__crt_lc_time_data,__crt_internal_free_policy>::release()
FUNC 5c040 108 0 _acrt_locale_free_time
FUNC 5c18c 9c 0 _acrt_locale_initialize_time
FUNC 5c250 86 0 common_tcscat_s<wchar_t>
FUNC 5c2f8 7f 0 wcscat_s
FUNC 5c398 f6 0 common_tcsncat_s<wchar_t>
FUNC 5c4cc fd 0 wcsncat_s
FUNC 5c608 3f 0 wcscspn
FUNC 5c658 a5 0 GetLocaleNameFromDefault
FUNC 5c728 cf 0 GetLocaleNameFromLangCountry
FUNC 5c82c 98 0 GetLocaleNameFromLanguage
FUNC 5c8ec 2f 0 GetPrimaryLen
FUNC 5c928 2ea 0 LangCountryEnumProcEx
FUNC 5cccc ea 0 LanguageEnumProcEx
FUNC 5cdf0 c9 0 ProcessCodePage
FUNC 5ceec 63 0 TestDefaultCountry
FUNC 5cf68 77 0 TestDefaultLanguage
FUNC 5cffc 99 0 TranslateName
FUNC 5d0bc 263 0 _acrt_get_qualified_locale
FUNC 5d3b8 e8 0 CountryEnumProc
FUNC 5d4dc 5f 0 GetLcidFromCountry
FUNC 5d554 21 0 GetLcidFromDefault
FUNC 5d580 cd 0 GetLcidFromLangCountry
FUNC 5d680 96 0 GetLcidFromLanguage
FUNC 5d73c 26 0 GetPrimaryLen
FUNC 5d76c 24a 0 LangCountryEnumProc
FUNC 5da48 108 0 LanguageEnumProc
FUNC 5db94 4e 0 LcidFromHexString
FUNC 5dbf8 ae 0 ProcessCodePage
FUNC 5dcd4 24 0 TestDefaultCountry
FUNC 5dd04 ab 0 TestDefaultLanguage
FUNC 5dddc 7f 0 TranslateName
FUNC 5de7c 27e 0 _acrt_get_qualified_locale_downlevel
FUNC 5e19c 7 0 _acrt_GetStringTypeW
FUNC 5e1a4 15 0 _strncnt
FUNC 5e1c0 bd 0 _acrt_CompareStringW
FUNC 5e2ac 4b 0 _ascii_wcsnicmp
FUNC 5e30c 26 0 towlower_fast_internal
FUNC 5e33c 34 0 towlower_internal
FUNC 5e380 46 0 wcsnicmp
FUNC 5e3d8 150 0 wcsnicmp_l
FUNC 5e57c 49 0 _ascii_strnicmp
FUNC 5e5d8 4f 0 strnicmp
FUNC 5e63c ad 0 strnicmp_l
FUNC 5e714 35d 0 InternalCompareStringA
FUNC 5eb48 89 0 _acrt_CompareStringA
FUNC 5ebf4 3 0 issue_debug_notification
FUNC 5ebf8 2b 0 should_write_error_to_console
FUNC 5ec30 a7 0 write_string_to_console
FUNC 5ed00 15d 0 _acrt_report_runtime_error
FUNC 5eeb4 7 0 query_app_type
FUNC 5eebc 7 0 set_app_type
FUNC 5eec4 eb 0 common_lseek<long>
FUNC 5efec ef 0 common_lseek<__int64>
FUNC 5f118 f3 0 common_lseek_nolock<long>
FUNC 5f248 99 0 common_lseek_nolock<__int64>
FUNC 5f308 9e 0 common_lseek_do_seek_nolock
FUNC 5f3d0 33 0 common_lseek_do_seek_nolock
FUNC 5f410 5 0 lseek
FUNC 5f418 5 0 lseek_nolock
FUNC 5f420 5 0 lseeki64
FUNC 5f428 5 0 lseeki64_nolock
FUNC 5f430 40 0 __crt_seh_guarded_call<unsigned short>::operator()<<lambda_0384895ae1aa6ccbfe369a30d6ca2ef7>,<lambda_9e0b6ab72a5b3ae37ad997d08b519f50> &,<lambda_7e22f70504d73c22058e5832bde5914f> >
FUNC 5f480 26 0 __acrt_lock_and_call<<lambda_9e0b6ab72a5b3ae37ad997d08b519f50> >
FUNC 5f4b0 8 0 <lambda_0384895ae1aa6ccbfe369a30d6ca2ef7>::<lambda_0384895ae1aa6ccbfe369a30d6ca2ef7>
FUNC 5f4bc 8 0 <lambda_7e22f70504d73c22058e5832bde5914f>::<lambda_7e22f70504d73c22058e5832bde5914f>
FUNC 5f4c8 7 0 <lambda_9e0b6ab72a5b3ae37ad997d08b519f50>::<lambda_9e0b6ab72a5b3ae37ad997d08b519f50>
FUNC 5f4d0 7 0 <lambda_0384895ae1aa6ccbfe369a30d6ca2ef7>::operator()
FUNC 5f4d8 7 0 <lambda_7e22f70504d73c22058e5832bde5914f>::operator()
FUNC 5f4e0 b 0 <lambda_9e0b6ab72a5b3ae37ad997d08b519f50>::operator()
FUNC 5f4f0 3b 0 putwch
FUNC 5f53c 3b 0 putwch_nolock
FUNC 5f588 1bd 0 translate_text_mode_nolock<char>
FUNC 5f7b4 27b 0 translate_text_mode_nolock<wchar_t>
FUNC 5fad0 22 0 store_lookahead
FUNC 5fafc 43 0 store_lookahead
FUNC 5fb50 19b 0 translate_ansi_or_utf8_nolock
FUNC 5fd54 8f 0 translate_utf16_from_console_nolock
FUNC 5fe08 119 0 read
FUNC 5ff68 456 0 read_nolock
FUNC 604d4 83 0 fclose_nolock
FUNC 60578 62 0 fclose
FUNC 605f4 1dc 0 __crt_mbstring::__mbrtoc32_utf8(char32_t *,char const *,unsigned __int64,_Mbstatet *)
FUNC 60848 5 0 mbrtoc32
FUNC 60850 179 0 InternalGetLocaleInfoA
FUNC 60a28 1c8 0 _acrt_GetLocaleInfoA
FUNC 60c64 20 0 fegetenv
FUNC 60c8c 4c 0 fesetenv
FUNC 60cec 50 0 feholdexcept
FUNC 60d50 c2 0 ceil
FUNC 60e50 5ab 0 log10
FUNC 61568 66 0 _acrt_stdio_allocate_buffer_nolock
FUNC 615e8 c6 0 common_xtox<unsigned long,char>
FUNC 616e0 d4 0 common_xtox<unsigned long,wchar_t>
FUNC 617ec cb 0 common_xtox<unsigned __int64,char>
FUNC 618ec d9 0 common_xtox<unsigned __int64,wchar_t>
FUNC 619fc 67 0 common_xtox_s<unsigned long,char>
FUNC 61a7c 69 0 common_xtox_s<unsigned long,wchar_t>
FUNC 61b00 67 0 common_xtox_s<unsigned __int64,char>
FUNC 61b80 69 0 common_xtox_s<unsigned __int64,wchar_t>
FUNC 61c04 31 0 i64toa
FUNC 61c44 21 0 i64toa_s
FUNC 61c70 31 0 i64tow
FUNC 61cb0 21 0 i64tow_s
FUNC 61cdc 30 0 itoa
FUNC 61d18 20 0 itoa_s
FUNC 61d40 30 0 itow
FUNC 61d7c 20 0 itow_s
FUNC 61da4 30 0 ltoa
FUNC 61de0 20 0 ltoa_s
FUNC 61e08 30 0 ltow
FUNC 61e44 20 0 ltow_s
FUNC 61e6c 23 0 ui64toa
FUNC 61e98 13 0 ui64toa_s
FUNC 61eb0 23 0 ui64tow
FUNC 61edc 13 0 ui64tow_s
FUNC 61ef4 23 0 ultoa
FUNC 61f20 13 0 ultoa_s
FUNC 61f38 23 0 ultow
FUNC 61f64 13 0 ultow_s
FUNC 61f7c 3e 0 _ascii_wcsicmp
FUNC 61fcc 46 0 wcsicmp
FUNC 62024 127 0 wcsicmp_l
FUNC 62194 35 0 wcscmp
FUNC 621d8 bb 0 towlower_l
FUNC 622c4 7 0 towlower
FUNC 622cc 40 0 set_error_mode
FUNC 6231c a3 0 common_show_message_box<char>
FUNC 623e8 a4 0 common_show_message_box<wchar_t>
FUNC 624b8 11 0 __crt_char_traits<char>::message_box<std::nullptr_t,char const * const &,char const * const &,unsigned long>
FUNC 624d0 11 0 __crt_char_traits<wchar_t>::message_box<std::nullptr_t,wchar_t const * const &,wchar_t const * const &,unsigned long>
FUNC 624e8 11 0 __crt_char_traits<char>::message_box<HWND__ *,char const * const &,char const * const &,unsigned int const &>
FUNC 62500 11 0 __crt_char_traits<wchar_t>::message_box<HWND__ *,wchar_t const * const &,wchar_t const * const &,unsigned int const &>
FUNC 62518 8 0 __crt_char_traits<char>::output_debug_string<char const * const &>
FUNC 62524 a 0 __crt_char_traits<wchar_t>::output_debug_string<wchar_t const * const &>
FUNC 62530 a3 0 _acrt_show_narrow_message_box
FUNC 625fc a4 0 _acrt_show_wide_message_box
FUNC 626cc aa 0 console_output_reopen_and_retry<<lambda_61c1b8a38cedca4df5fdc542e6ccae6d> >
FUNC 627a0 17 0 <lambda_61c1b8a38cedca4df5fdc542e6ccae6d>::<lambda_61c1b8a38cedca4df5fdc542e6ccae6d>
FUNC 627bc 27 0 <lambda_61c1b8a38cedca4df5fdc542e6ccae6d>::operator()
FUNC 627ec 3b 0 __dcrt_lowio_initialize_console_output
FUNC 62838 52 0 _dcrt_lowio_ensure_console_output_initialized
FUNC 628a0 1c 0 _dcrt_terminate_console_output
FUNC 628c4 be 0 _dcrt_write_console
FUNC 629b4 71 0 __crt_seh_guarded_call<int>::operator()<<lambda_751a882b2c74d4b022dec766aa51a29a>,<lambda_628dfdc04ba53c8bfc02c9951375f3f5> &,<lambda_f6c7be5f7998530c34de24c7437d6b54> >
FUNC 62a44 26 0 __acrt_lowio_lock_fh_and_call<<lambda_628dfdc04ba53c8bfc02c9951375f3f5> >
FUNC 62a74 7 0 <lambda_628dfdc04ba53c8bfc02c9951375f3f5>::<lambda_628dfdc04ba53c8bfc02c9951375f3f5>
FUNC 62a7c 8 0 <lambda_751a882b2c74d4b022dec766aa51a29a>::<lambda_751a882b2c74d4b022dec766aa51a29a>
FUNC 62a88 8 0 <lambda_f6c7be5f7998530c34de24c7437d6b54>::<lambda_f6c7be5f7998530c34de24c7437d6b54>
FUNC 62a94 49 0 <lambda_628dfdc04ba53c8bfc02c9951375f3f5>::operator()
FUNC 62af0 7 0 <lambda_751a882b2c74d4b022dec766aa51a29a>::operator()
FUNC 62af8 7 0 <lambda_f6c7be5f7998530c34de24c7437d6b54>::operator()
FUNC 62b00 7e 0 close_os_handle_nolock
FUNC 62ba0 a1 0 close
FUNC 62c6c bd 0 close_nolock
FUNC 62d58 8 0 __crt_internal_free_policy::operator()<__crt_stdio_stream_data>(__crt_stdio_stream_data const * const)
FUNC 62d64 7 0 __crt_unique_heap_ptr<__crt_stdio_stream_data,__crt_internal_free_policy>::__crt_unique_heap_ptr<__crt_stdio_stream_data,__crt_internal_free_policy>(__crt_stdio_stream_data * const)
FUNC 62d6c 8 0 __crt_stdio_stream::__crt_stdio_stream()
FUNC 62d78 1b 0 __crt_unique_heap_ptr<__crt_stdio_stream_data,__crt_internal_free_policy>::~__crt_unique_heap_ptr<__crt_stdio_stream_data,__crt_internal_free_policy>()
FUNC 62d9c 56 0 __acrt_stdio_allocate_stream()
FUNC 62e08 1c 0 __acrt_stdio_free_stream(__crt_stdio_stream)
FUNC 62e2c 9 0 __crt_stdio_stream::deallocate()
FUNC 62e38 8 0 __crt_unique_heap_ptr<__crt_stdio_stream_data,__crt_internal_free_policy>::detach()
FUNC 62e44 ea 0 find_or_allocate_unused_stream_nolock
FUNC 62f68 8 0 __crt_stdio_stream::lock()
FUNC 62f74 1b 0 __crt_unique_heap_ptr<__crt_stdio_stream_data,__crt_internal_free_policy>::release()
FUNC 62f98 1f 0 __crt_stdio_stream::try_allocate()
FUNC 62fc0 8 0 __crt_stdio_stream::unlock()
FUNC 62fcc a 0 __acrt_fenv_shift_bits<__acrt_fenv_abstract_control>(__acrt_fenv_abstract_control,__acrt_fenv_abstract_control,unsigned int)
FUNC 62fd8 a 0 __acrt_fenv_shift_bits<__acrt_fenv_abstract_status>(__acrt_fenv_abstract_status,__acrt_fenv_abstract_status,unsigned int)
FUNC 62fe4 b 0 __acrt_fenv_translate_bit<__acrt_fenv_abstract_control,__acrt_fenv_machine_sse_control>(__acrt_fenv_machine_sse_control,__acrt_fenv_machine_sse_control,__acrt_fenv_abstract_control,__acrt_fenv_abstract_control)
FUNC 62ff4 a 0 __acrt_fenv_translate_bit<__acrt_fenv_abstract_status,__acrt_fenv_machine_sse_status>(__acrt_fenv_machine_sse_status,__acrt_fenv_machine_sse_status,__acrt_fenv_abstract_status,__acrt_fenv_abstract_status)
FUNC 63000 c 0 __acrt_fenv_translate_bit<__acrt_fenv_machine_sse_control,__acrt_fenv_abstract_control>(__acrt_fenv_abstract_control,__acrt_fenv_abstract_control,__acrt_fenv_machine_sse_control,__acrt_fenv_machine_sse_control)
FUNC 63010 a 0 __acrt_fenv_translate_bit<__acrt_fenv_machine_sse_status,__acrt_fenv_abstract_status>(__acrt_fenv_abstract_status,__acrt_fenv_abstract_status,__acrt_fenv_machine_sse_status,__acrt_fenv_machine_sse_status)
FUNC 6301c a 0 __acrt_fenv_unshift_bits<__acrt_fenv_abstract_control>(__acrt_fenv_abstract_control,__acrt_fenv_abstract_control,unsigned int)
FUNC 63028 a 0 __acrt_fenv_unshift_bits<__acrt_fenv_abstract_status>(__acrt_fenv_abstract_status,__acrt_fenv_abstract_status,unsigned int)
FUNC 63034 4d 0 to_abstract_status<enum __acrt_fenv_machine_sse_status>
FUNC 63094 58 0 translate_control_exception_mask<enum __acrt_fenv_abstract_control,enum __acrt_fenv_machine_sse_control>
FUNC 63104 99 0 translate_control_exception_mask<enum __acrt_fenv_machine_sse_control,enum __acrt_fenv_abstract_control>
FUNC 631c4 33 0 translate_control_rounding_control<enum __acrt_fenv_abstract_control,enum __acrt_fenv_machine_sse_control>
FUNC 63204 32 0 translate_control_rounding_control<enum __acrt_fenv_machine_sse_control,enum __acrt_fenv_abstract_control>
FUNC 63244 4d 0 translate_status<enum __acrt_fenv_abstract_status,enum __acrt_fenv_machine_sse_status>
FUNC 632a4 4d 0 translate_status<enum __acrt_fenv_machine_sse_status,enum __acrt_fenv_abstract_status>
FUNC 63304 5 0 operator&(__acrt_fenv_abstract_control,__acrt_fenv_abstract_control)
FUNC 6330c 5 0 operator&(__acrt_fenv_abstract_status,__acrt_fenv_abstract_status)
FUNC 63314 7 0 operator&(__acrt_fenv_machine_sse_control,__acrt_fenv_machine_sse_control)
FUNC 6331c 5 0 operator&(__acrt_fenv_machine_sse_status,__acrt_fenv_machine_sse_status)
FUNC 63324 5 0 operator|(__acrt_fenv_abstract_control,__acrt_fenv_abstract_control)
FUNC 6332c 5 0 operator|(__acrt_fenv_abstract_status,__acrt_fenv_abstract_status)
FUNC 63334 7 0 operator|(__acrt_fenv_machine_sse_control,__acrt_fenv_machine_sse_control)
FUNC 6333c 6 0 operator|=(__acrt_fenv_abstract_control &,__acrt_fenv_abstract_control)
FUNC 63344 6 0 operator|=(__acrt_fenv_abstract_status &,__acrt_fenv_abstract_status)
FUNC 6334c 7 0 operator|=(__acrt_fenv_machine_sse_control &,__acrt_fenv_machine_sse_control)
FUNC 63354 6 0 operator|=(__acrt_fenv_machine_sse_status &,__acrt_fenv_machine_sse_status)
FUNC 6335c 13 0 __acrt_fenv_shift_abstract_sse_control(__acrt_fenv_abstract_control)
FUNC 63374 9 0 __acrt_fenv_shift_abstract_sse_status(__acrt_fenv_abstract_status)
FUNC 63380 16 0 __acrt_fenv_unshift_abstract_sse_control(__acrt_fenv_abstract_control)
FUNC 6339c 9 0 __acrt_fenv_unshift_abstract_sse_status(__acrt_fenv_abstract_status)
FUNC 633a8 12 0 get_machine_sse_control
FUNC 633c0 d 0 get_machine_sse_status
FUNC 633d0 23 0 set_machine_sse_control
FUNC 633fc 1b 0 set_machine_sse_status
FUNC 63420 df 0 to_abstract_control
FUNC 63538 137 0 to_machine_sse_control
FUNC 636bc 57 0 to_machine_sse_status
FUNC 63728 34 0 translate_control_denormal_control_from_sse
FUNC 6376c 30 0 translate_control_denormal_control_to_sse
FUNC 637a8 17 0 _acrt_fenv_expand_round_control
FUNC 637c4 9 0 _acrt_fenv_get_common_round_control
FUNC 637d0 f1 0 _acrt_fenv_get_control
FUNC 63900 b 0 _acrt_fenv_get_fp_status_word_from_exception_mask
FUNC 63910 53 0 _acrt_fenv_get_status
FUNC 63978 147 0 _acrt_fenv_set_control
FUNC 63b10 83 0 _acrt_fenv_set_status
FUNC 63bb4 c6 0 _abstract_cw
FUNC 63cac 5b 0 _abstract_sw
FUNC 63d20 6e 0 clearfp
FUNC 63dac 5 0 control87
FUNC 63db4 9 0 controlfp
FUNC 63dc0 a 0 fpreset
FUNC 63dcc bf 0 _hw_cw
FUNC 63ebc 34 0 set_controlfp
FUNC 63f00 62 0 statusfp
FUNC 63f7c 2be 0 common_control87
FUNC 642ec 65 0 _call_matherr
FUNC 6436c ba 0 _exception_enabled
FUNC 64454 127 0 handle_error
FUNC 645c4 133 0 handle_errorf
FUNC 64744 19 0 handle_nan
FUNC 64764 f 0 handle_nanf
FUNC 64780 70 0 _acrt_initialize_fma3
FUNC 6480c 7 0 get_FMA3_enable
FUNC 64814 17 0 set_FMA3_enable
FUNC 64830 20 0 log10_special
FUNC 64858 20 0 log10f_special
FUNC 64880 20 0 log_special
FUNC 648a8 96 0 _log_special_common
FUNC 64964 20 0 logf_special
FUNC 6498c 9c 0 _logf_special_common
FUNC 64a50 87 0 _acrt_LCMapStringW
FUNC 64af8 9c 0 _acrt_OutputDebugStringA
FUNC 64bd0 10 0 get_fpsr
FUNC 64be0 a 0 set_fpsr
FUNC 64bea 14 0 fclrf
FUNC 64bfe 1f 0 frnd
FUNC 64c34 43 0 errcode
FUNC 64c88 f1 0 except1
FUNC 64db8 106 0 except2
FUNC 64f00 31 0 _get_fname
FUNC 64f40 267 0 handle_exc
FUNC 65240 5 0 handle_qnan2
FUNC 65248 27 0 raise_exc
FUNC 65278 30d 0 raise_exc_ex
FUNC 65648 2a 0 raise_excf
FUNC 6567c 2e 0 set_errno_from_matherr
FUNC 656b8 d4 0 umatherr
FUNC 657c4 1d 0 clrfp
FUNC 657e8 7c 0 ctrlfp
FUNC 65884 1f 0 set_statfp
FUNC 658ac 11 0 statfp
FUNC 658c4 200 0 _mbstowcs_l_helper
FUNC 65b44 5 0 mbstowcs_l
FUNC 65b4c 133 0 mbstowcs_s_l
FUNC 65ccc 1a 0 mbstowcs
FUNC 65cec 1e 0 mbstowcs_s
FUNC 65d14 4e 0 add_exp
FUNC 65d78 12e 0 decomp
FUNC 65ef4 1d 0 get_exp
FUNC 65f18 30 0 set_bexp
FUNC 65f54 38 0 set_exp
FUNC 65f9c 74 0 sptype
FUNC 66030 44 0 FindPESection
FUNC 66090 4d 0 IsNonwritableInCurrentImage
FUNC 660f0 2d 0 ValidateImageBase
FUNC 66128 b 0 type_info::~type_info()
FUNC 66138 2b 0 type_info::`scalar deleting destructor'(unsigned int)
FUNC 66170 1d 0 _GSHandlerCheck
FUNC 66194 5b 0 _GSHandlerCheckCommon
FUNC 66208 85 0 _GSHandlerCheck_SEH
FUNC 662c0 51 0 _chkstk
PUBLIC 66329 0 RtlUnwindEx
PUBLIC 6632f 0 InterlockedPushEntrySList
PUBLIC 66335 0 InterlockedFlushSList
PUBLIC 6633b 0 GetLastError
PUBLIC 66341 0 SetLastError
PUBLIC 66347 0 EnterCriticalSection
PUBLIC 6634d 0 LeaveCriticalSection
PUBLIC 66353 0 DeleteCriticalSection
PUBLIC 66359 0 InitializeCriticalSectionAndSpinCount
PUBLIC 6635f 0 TlsAlloc
PUBLIC 66365 0 TlsGetValue
PUBLIC 6636b 0 TlsSetValue
PUBLIC 66371 0 TlsFree
PUBLIC 66377 0 FreeLibrary
PUBLIC 6637d 0 GetProcAddress
PUBLIC 66383 0 LoadLibraryExW
PUBLIC 66389 0 EncodePointer
PUBLIC 6638f 0 RaiseException
PUBLIC 66395 0 RtlPcToFileHeader
PUBLIC 6639b 0 ExitProcess
PUBLIC 663a1 0 GetModuleHandleExW
PUBLIC 663a7 0 GetModuleFileNameW
PUBLIC 663ad 0 GetCurrentThread
PUBLIC 663b3 0 HeapFree
PUBLIC 663b9 0 HeapAlloc
PUBLIC 663bf 0 FindClose
PUBLIC 663c5 0 FindFirstFileExW
PUBLIC 663cb 0 FindNextFileW
PUBLIC 663d1 0 IsValidCodePage
PUBLIC 663d7 0 GetACP
PUBLIC 663dd 0 GetOEMCP
PUBLIC 663e3 0 GetCPInfo
PUBLIC 663e9 0 GetCommandLineA
PUBLIC 663ef 0 GetCommandLineW
PUBLIC 663f5 0 MultiByteToWideChar
PUBLIC 663fb 0 WideCharToMultiByte
PUBLIC 66401 0 GetEnvironmentStringsW
PUBLIC 66407 0 FreeEnvironmentStringsW
PUBLIC 6640d 0 SetEnvironmentVariableW
PUBLIC 66413 0 GetDateFormatW
PUBLIC 66419 0 GetTimeFormatW
PUBLIC 6641f 0 CompareStringW
PUBLIC 66425 0 LCMapStringW
PUBLIC 6642b 0 GetLocaleInfoW
PUBLIC 66431 0 IsValidLocale
PUBLIC 66437 0 GetUserDefaultLCID
PUBLIC 6643d 0 EnumSystemLocalesW
PUBLIC 66443 0 GetProcessHeap
PUBLIC 66449 0 GetStdHandle
PUBLIC 6644f 0 GetFileType
PUBLIC 66455 0 SetConsoleCtrlHandler
PUBLIC 6645b 0 GetStringTypeW
PUBLIC 66461 0 HeapSize
PUBLIC 66467 0 HeapReAlloc
PUBLIC 6646d 0 SetStdHandle
PUBLIC 66473 0 FlushFileBuffers
PUBLIC 66479 0 WriteFile
PUBLIC 6647f 0 GetConsoleCP
PUBLIC 66485 0 GetConsoleMode
PUBLIC 6648b 0 GetFileSizeEx
PUBLIC 66491 0 SetFilePointerEx
PUBLIC 66497 0 ReadFile
PUBLIC 6649d 0 ReadConsoleW
PUBLIC 664a3 0 OutputDebugStringW
PUBLIC 664a9 0 CreateFileW
PUBLIC 664af 0 CloseHandle
PUBLIC 664b5 0 WriteConsoleW
FUNC 664bc 89 0 strchr
FUNC 66568 91 0 wcschr
FUNC 66620 149 0 strrchr
FUNC 667bc 29 0 local_unwind
FUNC 66800 c7 0 memcmp
PUBLIC 668fc 0 RtlUnwind
FUNC 68460 2 0 guard_dispatch_icall_nop
FUNC 69470 17 0 `dllmain_crt_process_attach'::`1'::fin$0
FUNC 6948c 1c 0 `dllmain_crt_process_detach'::`1'::fin$0
FUNC 694af 36 0 `dllmain_dispatch'::`1'::filt$0
FUNC 694f2 18 0 __scrt_is_nonwritable_in_current_image$filt$0
FUNC 69510 18 0 __DestructExceptionObject$filt$0
FUNC 6952e c 0 `UnDecorator::getDecoratedName'::`1'::dtor$0
FUNC 6953d 16 0 __unDNameEx$fin$0
FUNC 69558 91 0 `_CallSETranslator<__FrameHandler3>'::`1'::filt$0
FUNC 6960d 91 0 `_CallSETranslator<__FrameHandler4>'::`1'::filt$0
FUNC 696c2 25 0 `__FrameHandler3::CxxCallCatchBlock'::`1'::filt$0
FUNC 696e7 78 0 `__FrameHandler3::CxxCallCatchBlock'::`1'::fin$1
FUNC 69786 3e 0 `__FrameHandler4::CxxCallCatchBlock'::`1'::filt$0
FUNC 697c4 94 0 `__FrameHandler4::CxxCallCatchBlock'::`1'::fin$1
FUNC 6988c 16 0 `__FrameHandler3::FrameUnwindToState'::`1'::filt$0
FUNC 698a2 23 0 `__FrameHandler3::FrameUnwindToState'::`1'::fin$1
FUNC 698d3 16 0 `__FrameHandler4::FrameUnwindToState'::`1'::filt$0
FUNC 698e9 23 0 `__FrameHandler4::FrameUnwindToState'::`1'::fin$1
FUNC 6991a 1a 0 `__crt_seh_guarded_call<void>::operator()<<lambda_d80eeec6fff315bfe5c115232f3240e3>,<lambda_6e4b09c48022b2350581041d5f6b0c4c> &,<lambda_2358e3775559c9db80273638284d5e45> >'::`1'::fin$0
FUNC 6993a 1b 0 `<lambda_6e4b09c48022b2350581041d5f6b0c4c>::operator()'::`1'::filt$0
FUNC 6995b 1a 0 `__crt_seh_guarded_call<int>::operator()<<lambda_638799b9deba96c50f710eeac98168cd>,<lambda_22ebabd17bc4fa466a2aca6d8deb888d> &,<lambda_a6f7d7db0129f75315ebf26d50c089f1> >'::`1'::fin$0
FUNC 6997b 1a 0 `__crt_seh_guarded_call<int>::operator()<<lambda_7777bce6b2f8c936911f934f8298dc43>,<lambda_f03950bc5685219e0bcd2087efbe011e> &,<lambda_3883c3dff614d5e0c5f61bb1ac94921c> >'::`1'::fin$0
FUNC 6999b 1b 0 `__crt_seh_guarded_call<int>::operator()<<lambda_63c71d947f2ce890aa4aac7392f1cbed>,<lambda_e3269ba96939e7713c73908c0d757d25> &,<lambda_3776af017df72547960a8ac98bb265e7> >'::`1'::fin$0
FUNC 699bc 1b 0 `__crt_seh_guarded_call<int>::operator()<<lambda_676bd5779251ec186b530f0a904b4b35>,<lambda_b579ea784fd840951dfbcbdaebf709fd> &,<lambda_10027885da78ada7fb00668d7e2e96b5> >'::`1'::fin$0
FUNC 699dd 1b 0 `__crt_seh_guarded_call<int>::operator()<<lambda_8be82e0ce9ca3860586e20edfb7a650e>,<lambda_673ffc0dc9412a0afcf2088e0e1b9bdc> &,<lambda_c997b1ad71a4c19edf3d1d12a5864641> >'::`1'::fin$0
FUNC 699fe 1b 0 `__crt_seh_guarded_call<int>::operator()<<lambda_d1b8e9147f7260ae436300a3cb83e6d4>,<lambda_e638437c4db75b75056fab6aaf7e4f15> &,<lambda_8c9f37a989ed2ac074735e5b535e306a> >'::`1'::fin$0
FUNC 69a1f 1b 0 `__crt_seh_guarded_call<int>::operator()<<lambda_e746820a99d01fe878d2dbd7f1018dff>,<lambda_a993425e72f5bd8b40f5859286f153c4> &,<lambda_4dad5d88921143c78c186dc2683775b0> >'::`1'::fin$0
FUNC 69a40 1b 0 `__crt_seh_guarded_call<int>::operator()<<lambda_fe5404e9642edbb7c8ae71e1dcfa4018>,<lambda_36eeb330e99a4f0bf8a7da86d0894cb9> &,<lambda_2fa474834de80dc12f7a3c6eddd7a366> >'::`1'::fin$0
FUNC 69a61 1a 0 `__crt_seh_guarded_call<void>::operator()<<lambda_0ae27a3a962d80f24befdcbee591983d>,<lambda_8d0ee55de4b1038c4002e0adecdf1839> &,<lambda_dc504788e8f1664fe9b84e20bfb512f2> >'::`1'::fin$0
FUNC 69a81 1a 0 `__crt_seh_guarded_call<void>::operator()<<lambda_2d41944a1d46af3157314b8a01080d33>,<lambda_8f455de75cd7d7f24b4096f044d8b9e6> &,<lambda_aa500f224e6afead328df44964fe2772> >'::`1'::fin$0
FUNC 69aa1 1a 0 `__crt_seh_guarded_call<void>::operator()<<lambda_aa87e3671a710a21b5dc78c0bdf72e11>,<lambda_92619d2358a28f41a33ba319515a20b9> &,<lambda_6992ecaafeb10aed2b74cb1fae11a551> >'::`1'::fin$0
FUNC 69ac1 1a 0 `__crt_seh_guarded_call<void>::operator()<<lambda_f2e299630e499de9f9a165e60fcd3db5>,<lambda_2ae9d31cdba2644fcbeaf08da7c24588> &,<lambda_40d01ff24d0e7b3814fdbdcee8eab3c7> >'::`1'::fin$0
FUNC 69ae1 1a 0 `__crt_seh_guarded_call<void>::operator()<<lambda_efdfa57d1f175319df784efa44bb7b81>,<lambda_5f0a4c1567f8adc6734073e5d1e1b35c> &,<lambda_2e8a7d3640ea6ccb4c2413664c2db6fd> >'::`1'::fin$0
FUNC 69b01 19 0 `update_thread_multibyte_data_internal'::`1'::fin$0
FUNC 69b20 1a 0 `__crt_seh_guarded_call<int>::operator()<<lambda_48fc4a32460bb0512d3b13f8499328be>,<lambda_6c3dac0a4f3f9cefca9bb494422f9b77> &,<lambda_0a2f2c9f9a56eb2b08bfa6ff61d331c5> >'::`1'::fin$0
FUNC 69b40 19 0 __acrt_initialize_lowio$fin$0
FUNC 69b5f 16 0 _query_new_handler$fin$0
FUNC 69b7a 16 0 _set_new_handler$fin$0
FUNC 69b95 1a 0 `__crt_seh_guarded_call<void (__cdecl*)(int)>::operator()<<lambda_450d765d439847d4c735a33c368b5fc0>,<lambda_44731a7d0e6d81c3e6aa82d741081786> &,<lambda_601a2a7da3b7a96e9554ac7215c4b07c> >'::`1'::fin$0
FUNC 69bb5 19 0 `ctrlevent_capture'::`1'::fin$0
FUNC 69bd4 21 0 raise$fin$0
FUNC 69bfd 19 0 signal$fin$0
FUNC 69c1c 1b 0 `__crt_seh_guarded_call<void>::operator()<<lambda_842d9ff0dc9ef11c61343bbaebe7f885>,<lambda_c5860995281e5c4ce005b3de8f5874ee> &,<lambda_d90129c13df834fdcbf8d2b88dafcf2d> >'::`1'::fin$0
FUNC 69c3d 1d 0 `__crt_seh_guarded_call<void>::operator()<<lambda_886d6c58226a84441f68b9f2b8217b83>,<lambda_ab61a845afdef5b7c387490eaf3616ee> &,<lambda_f7f22ab5edc0698d5f6905b0d3f44752> >'::`1'::fin$0
FUNC 69c61 1b 0 `__crt_seh_guarded_call<int>::operator()<<lambda_c376a267cfb53b6959b3b692ec76b120>,<lambda_9a32fed5bf61b6b509b2d3f6003082a1> &,<lambda_572fbb9fa0ab338edf41edfd4b5fcc8d> >'::`1'::fin$0
FUNC 69c82 18 0 fputwc$fin$0
FUNC 69ca0 1a 0 fputc$fin$0
FUNC 69cc0 1a 0 `__crt_seh_guarded_call<void>::operator()<<lambda_0a55505eb881d180377eb1fc64ffb544>,<lambda_862e9a3f04921db6ca1ce3faa2bf3edf> &,<lambda_c91f0b5e4ab41df1063aa1a95f49bd71> >'::`1'::fin$0
FUNC 69ce0 1a 0 `__crt_seh_guarded_call<void>::operator()<<lambda_1d892b297fdedeee07ed8124eeb2f2fa>,<lambda_ffc046909424fd52df0ac47e64813305> &,<lambda_01a7098693036236037e7cdb9bca3d73> >'::`1'::fin$0
FUNC 69d00 1a 0 `__crt_seh_guarded_call<void>::operator()<<lambda_410d79af7f07d98d83a3f525b3859a53>,<lambda_3e16ef9562a7dcce91392c22ab16ea36> &,<lambda_38119f0e861e05405d8a144b9b982f0a> >'::`1'::fin$0
FUNC 69d20 21 0 `__crt_seh_guarded_call<void>::operator()<<lambda_7f2adfce497ff2baa965cd4f576ecfd1>,<lambda_2a444430fde8c29194d880d93eed5e8f> &,<lambda_8dff2cf36a5417162780cd64fa2883ef> &>'::`1'::fin$0
FUNC 69d49 1a 0 `__crt_seh_guarded_call<void>::operator()<<lambda_a48fd90c2dacdd6561e44078457d03a7>,<lambda_ebab98244f73a74f49db879bf13fa982> &,<lambda_8b3bdacfa7480f205f16cb49964db269> >'::`1'::fin$0
FUNC 69d69 19 0 _free_locale$fin$1
FUNC 69d82 19 0 _free_locale$fin$0
FUNC 69da7 19 0 __acrt_update_thread_locale_data$fin$0
FUNC 69dc6 19 0 __acrt_lowio_ensure_fh_exists$fin$0
FUNC 69de5 19 0 _alloc_osfhnd$fin$0
FUNC 69e04 41 0 _open_osfhandle$fin$0
FUNC 69e55 1a 0 `__crt_seh_guarded_call<int>::operator()<<lambda_a37b2b86f63e897a80ea819b0eb08c01>,<lambda_38ce7e780aa69e748d6df282ebc68efe> &,<lambda_99fb1378e971ab6e7edea83e3a7a83a2> >'::`1'::fin$0
FUNC 69e75 17 0 _write$fin$0
FUNC 69e91 19 0 _fcloseall$fin$0
FUNC 69eb0 17 0 `common_lseek<long>'::`1'::fin$0
FUNC 69ecc 17 0 `common_lseek<__int64>'::`1'::fin$0
FUNC 69ee8 1a 0 `__crt_seh_guarded_call<unsigned short>::operator()<<lambda_0384895ae1aa6ccbfe369a30d6ca2ef7>,<lambda_9e0b6ab72a5b3ae37ad997d08b519f50> &,<lambda_7e22f70504d73c22058e5832bde5914f> >'::`1'::fin$0
FUNC 69f08 17 0 _read$fin$0
FUNC 69f24 18 0 fclose$fin$0
FUNC 69f42 1a 0 `__crt_seh_guarded_call<int>::operator()<<lambda_751a882b2c74d4b022dec766aa51a29a>,<lambda_628dfdc04ba53c8bfc02c9951375f3f5> &,<lambda_f6c7be5f7998530c34de24c7437d6b54> >'::`1'::fin$0
FUNC 69f62 19 0 `__acrt_stdio_allocate_stream'::`1'::fin$0
FUNC 69f81 2c 0 common_control87$filt$0
FUNC 69fb8 2c 0 _ctrlfp$filt$0
FUNC 69ff0 20 0 _IsNonwritableInCurrentImage$filt$0
STACK CFI INIT 6b70 11 .cfa: $rsp .ra: .cfa 8 - ^
STACK CFI 6b70 .cfa: $rsp 16 +
STACK CFI INIT 6b90 a .cfa: $rsp .ra: .cfa 8 - ^
STACK CFI 6b90 .cfa: $rsp 16 +
STACK CFI INIT 6ba0 17 .cfa: $rsp .ra: .cfa 8 - ^
STACK CFI 6ba0 .cfa: $rsp 24 +
STACK CFI INIT 6bc0 1c .cfa: $rsp .ra: .cfa 8 - ^
STACK CFI 6bc0 .cfa: $rsp 32 +
STACK CFI INIT 6be0 2b .cfa: $rsp .ra: .cfa 8 - ^
STACK CFI 6be0 .cfa: $rsp 64 +
STACK CFI INIT 6c10 17 .cfa: $rsp .ra: .cfa 8 - ^
STACK CFI 6c10 .cfa: $rsp 32 +
STACK CFI INIT 6c30 9 .cfa: $rsp .ra: .cfa 8 - ^
STACK CFI 6c30 .cfa: $rsp 16 +
STACK CFI INIT 6c40 9 .cfa: $rsp .ra: .cfa 8 - ^
STACK CFI 6c40 .cfa: $rsp 16 +
STACK CFI INIT 6c50 9 .cfa: $rsp .ra: .cfa 8 - ^
STACK CFI 6c50 .cfa: $rsp 16 +
STACK CFI INIT 6c60 9 .cfa: $rsp .ra: .cfa 8 - ^
STACK CFI 6c60 .cfa: $rsp 16 +
STACK CFI INIT 6c70 1e .cfa: $rsp .ra: .cfa 8 - ^
STACK CFI 6c70 .cfa: $rsp 40 +
STACK CFI INIT 6c90 1e .cfa: $rsp .ra: .cfa 8 - ^
STACK CFI 6c90 .cfa: $rsp 40 +
STACK CFI INIT 6d00 28 .cfa: $rsp .ra: .cfa 8 - ^
STACK CFI 6d00 .cfa: $rsp 64 +
STACK CFI INIT 6d40 b .cfa: $rsp .ra: .cfa 8 - ^
STACK CFI 6d40 .cfa: $rsp 16 +
STACK CFI INIT 6d50 16 .cfa: $rsp .ra: .cfa 8 - ^
STACK CFI 6d50 .cfa: $rsp 24 +
STACK CFI INIT 6d70 7 .cfa: $rsp .ra: .cfa 8 - ^
STACK CFI 6d70 .cfa: $rsp 16 +
STACK CFI INIT 6d80 11 .cfa: $rsp .ra: .cfa 8 - ^
STACK CFI 6d80 .cfa: $rsp 24 +
STACK CFI INIT 6da0 13 .cfa: $rsp .ra: .cfa 8 - ^
STACK CFI 6da0 .cfa: $rsp 24 +
STACK CFI INIT 6dc0 17 .cfa: $rsp .ra: .cfa 8 - ^
STACK CFI 6dc0 .cfa: $rsp 24 +
STACK CFI INIT 6de0 11 .cfa: $rsp .ra: .cfa 8 - ^
STACK CFI 6de0 .cfa: $rsp 24 +
STACK CFI INIT 6e00 17 .cfa: $rsp .ra: .cfa 8 - ^
STACK CFI 6e00 .cfa: $rsp 24 +
STACK CFI INIT 6e20 c .cfa: $rsp .ra: .cfa 8 - ^
STACK CFI 6e20 .cfa: $rsp 16 +
STACK CFI INIT 6e30 1a .cfa: $rsp .ra: .cfa 8 - ^
STACK CFI 6e30 .cfa: $rsp 32 +
STACK CFI INIT 6e50 f2 .cfa: $rsp .ra: .cfa 8 - ^
STACK CFI 6e50 .cfa: $rsp 96 +
STACK CFI INIT 6f80 19 .cfa: $rsp .ra: .cfa 8 - ^
STACK CFI 6f80 .cfa: $rsp 48 +
STACK CFI INIT 6fa0 21 .cfa: $rsp .ra: .cfa 8 - ^
STACK CFI 6fa0 .cfa: $rsp 48 +
STACK CFI INIT 6fd0 19 .cfa: $rsp .ra: .cfa 8 - ^
STACK CFI 6fd0 .cfa: $rsp 48 +
STACK CFI INIT 6ff0 1d .cfa: $rsp .ra: .cfa 8 - ^
STACK CFI 6ff0 .cfa: $rsp 16 +
STACK CFI INIT 7020 19 .cfa: $rsp .ra: .cfa 8 - ^
STACK CFI 7020 .cfa: $rsp 48 +
STACK CFI INIT 7040 12 .cfa: $rsp .ra: .cfa 8 - ^
STACK CFI 7040 .cfa: $rsp 24 +
STACK CFI INIT 7060 b .cfa: $rsp .ra: .cfa 8 - ^
STACK CFI 7060 .cfa: $rsp 16 +
STACK CFI INIT 7070 39 .cfa: $rsp .ra: .cfa 8 - ^
STACK CFI 7070 .cfa: $rsp 80 +
STACK CFI INIT 70c0 1f .cfa: $rsp .ra: .cfa 8 - ^
STACK CFI 70c0 .cfa: $rsp 24 +
STACK CFI INIT 70f0 7 .cfa: $rsp .ra: .cfa 8 - ^
STACK CFI 70f0 .cfa: $rsp 16 +
STACK CFI INIT 7100 b .cfa: $rsp .ra: .cfa 8 - ^
STACK CFI 7100 .cfa: $rsp 16 +
STACK CFI INIT 7110 e .cfa: $rsp .ra: .cfa 8 - ^
STACK CFI 7110 .cfa: $rsp 16 +
STACK CFI INIT 7130 5d .cfa: $rsp .ra: .cfa 8 - ^
STACK CFI 7130 .cfa: $rsp 64 +
STACK CFI INIT 71b0 93 .cfa: $rsp .ra: .cfa 8 - ^
STACK CFI 71b0 .cfa: $rsp 96 +
STACK CFI INIT 7270 19 .cfa: $rsp .ra: .cfa 8 - ^
STACK CFI 7270 .cfa: $rsp 48 +
STACK CFI INIT 7290 19 .cfa: $rsp .ra: .cfa 8 - ^
STACK CFI 7290 .cfa: $rsp 48 +
STACK CFI INIT 72b0 7 .cfa: $rsp .ra: .cfa 8 - ^
STACK CFI 72b0 .cfa: $rsp 16 +
STACK CFI INIT 99f0 21 .cfa: $rsp .ra: .cfa 8 - ^
STACK CFI 99f0 .cfa: $rsp 8 +
STACK CFI INIT 9a28 50 .cfa: $rsp .ra: .cfa 8 - ^
STACK CFI 9a28 .cfa: $rsp 48 +
STACK CFI INIT 9a8c 119 .cfa: $rsp .ra: .cfa 8 - ^
STACK CFI 9a8c .cfa: $rsp 48 +
STACK CFI INIT 9bec 8e .cfa: $rsp .ra: .cfa 8 - ^
STACK CFI 9bec .cfa: $rsp 48 +
STACK CFI INIT 9ca0 133 .cfa: $rsp .ra: .cfa 8 - ^
STACK CFI 9ca0 .cfa: $rsp 96 +
STACK CFI INIT 9e48 3d .cfa: $rsp .ra: .cfa 8 - ^
STACK CFI 9e48 .cfa: $rsp 48 +
STACK CFI INIT 9e94 34 .cfa: $rsp .ra: .cfa 8 - ^
STACK CFI 9e94 .cfa: $rsp 48 +
STACK CFI INIT 9ed8 d1 .cfa: $rsp .ra: .cfa 8 - ^
STACK CFI 9ed8 .cfa: $rsp 64 +
STACK CFI INIT 9fe0 13 .cfa: $rsp .ra: .cfa 8 - ^
STACK CFI 9fe0 .cfa: $rsp 48 +
STACK CFI INIT 9ff8 9b .cfa: $rsp .ra: .cfa 8 - ^
STACK CFI 9ff8 .cfa: $rsp 48 +
STACK CFI INIT a0bc 10e .cfa: $rsp .ra: .cfa 8 - ^
STACK CFI a0bc .cfa: $rsp 64 +
STACK CFI INIT a210 6d .cfa: $rsp .ra: .cfa 8 - ^
STACK CFI a210 .cfa: $rsp 80 +
STACK CFI INIT a298 71 .cfa: $rsp .ra: .cfa 8 - ^
STACK CFI a298 .cfa: $rsp 96 +
STACK CFI INIT a330 6b .cfa: $rsp .ra: .cfa 8 - ^
STACK CFI a330 .cfa: $rsp 48 +
STACK CFI INIT a3b8 ac .cfa: $rsp .ra: .cfa 8 - ^
STACK CFI a3b8 .cfa: $rsp 48 +
STACK CFI INIT a4d4 1b .cfa: $rsp .ra: .cfa 8 - ^
STACK CFI a4d4 .cfa: $rsp 48 +
STACK CFI INIT a548 14 .cfa: $rsp .ra: .cfa 8 - ^
STACK CFI a548 .cfa: $rsp 48 +
STACK CFI INIT a610 39 .cfa: $rsp .ra: .cfa 8 - ^
STACK CFI a610 .cfa: $rsp 48 +
STACK CFI INIT a658 34 .cfa: $rsp .ra: .cfa 8 - ^
STACK CFI a658 .cfa: $rsp 48 +
STACK CFI INIT a69c 15 .cfa: $rsp .ra: .cfa 8 - ^
STACK CFI a69c .cfa: $rsp 48 +
STACK CFI INIT a6b8 28 .cfa: $rsp .ra: .cfa 8 - ^
STACK CFI a6b8 .cfa: $rsp 48 +
STACK CFI INIT a6ec 15 .cfa: $rsp .ra: .cfa 8 - ^
STACK CFI a6ec .cfa: $rsp 48 +
STACK CFI INIT a708 60 .cfa: $rsp .ra: .cfa 8 - ^
STACK CFI a708 .cfa: $rsp 48 +
STACK CFI INIT a780 30 .cfa: $rsp .ra: .cfa 8 - ^
STACK CFI a780 .cfa: $rsp 48 +
STACK CFI INIT a7bc 14 .cfa: $rsp .ra: .cfa 8 - ^
STACK CFI a7bc .cfa: $rsp 48 +
STACK CFI INIT a7d8 49 .cfa: $rsp .ra: .cfa 8 - ^
STACK CFI a7d8 .cfa: $rsp 48 +
STACK CFI INIT a834 d8 .cfa: $rsp .ra: .cfa 8 - ^
STACK CFI a834 .cfa: $rsp 80 +
STACK CFI INIT a944 99 .cfa: $rsp .ra: .cfa 8 - ^
STACK CFI a944 .cfa: $rsp 32 +
STACK CFI INIT aa04 24 .cfa: $rsp .ra: .cfa 8 - ^
STACK CFI aa04 .cfa: $rsp 48 +
STACK CFI INIT aa34 2b .cfa: $rsp .ra: .cfa 8 - ^
STACK CFI aa34 .cfa: $rsp 48 +
STACK CFI INIT aa6c 4f .cfa: $rsp .ra: .cfa 8 - ^
STACK CFI aa6c .cfa: $rsp 48 +
STACK CFI INIT ab14 17 .cfa: $rsp .ra: .cfa 8 - ^
STACK CFI ab14 .cfa: $rsp 48 +
STACK CFI INIT ab48 14a .cfa: $rsp .ra: .cfa 8 - ^
STACK CFI ab48 .cfa: $rsp 1488 +
STACK CFI INIT ace4 3a .cfa: $rsp .ra: .cfa 8 - ^
STACK CFI ace4 .cfa: $rsp 160 +
STACK CFI INIT ad38 52 .cfa: $rsp .ra: .cfa 8 - ^
STACK CFI ad38 .cfa: $rsp 48 +
STACK CFI INIT adb8 38 .cfa: $rsp .ra: .cfa 8 - ^
STACK CFI adb8 .cfa: $rsp 48 +
STACK CFI INIT ae00 3c .cfa: $rsp .ra: .cfa 8 - ^
STACK CFI ae00 .cfa: $rsp 48 +
STACK CFI INIT ae4c 3c .cfa: $rsp .ra: .cfa 8 - ^
STACK CFI ae4c .cfa: $rsp 48 +
STACK CFI INIT aec4 1b9 .cfa: $rsp .ra: .cfa 8 - ^
STACK CFI aec4 .cfa: $rsp 48 +
STACK CFI INIT b170 20b .cfa: $rsp .ra: .cfa 8 - ^
STACK CFI b170 .cfa: $rsp 112 +
STACK CFI INIT b448 1b .cfa: $rsp .ra: .cfa 8 - ^
STACK CFI b448 .cfa: $rsp 48 +
STACK CFI INIT b46c 1b .cfa: $rsp .ra: .cfa 8 - ^
STACK CFI b46c .cfa: $rsp 48 +
STACK CFI INIT b508 1b .cfa: $rsp .ra: .cfa 8 - ^
STACK CFI b508 .cfa: $rsp 48 +
STACK CFI INIT b52c 1b .cfa: $rsp .ra: .cfa 8 - ^
STACK CFI b52c .cfa: $rsp 48 +
STACK CFI INIT b580 2a .cfa: $rsp .ra: .cfa 8 - ^
STACK CFI b580 .cfa: $rsp 48 +
STACK CFI INIT b600 11c .cfa: $rsp .ra: .cfa 8 - ^
STACK CFI b600 .cfa: $rsp 112 +
STACK CFI INIT b764 32 .cfa: $rsp .ra: .cfa 8 - ^
STACK CFI b764 .cfa: $rsp 48 +
STACK CFI INIT b7a4 14 .cfa: $rsp .ra: .cfa 8 - ^
STACK CFI b7a4 .cfa: $rsp 48 +
STACK CFI INIT b7c0 12 .cfa: $rsp .ra: .cfa 8 - ^
STACK CFI b7c0 .cfa: $rsp 48 +
STACK CFI INIT b7d8 20 .cfa: $rsp .ra: .cfa 8 - ^
STACK CFI b7d8 .cfa: $rsp 48 +
STACK CFI INIT b800 10 .cfa: $rsp .ra: .cfa 8 - ^
STACK CFI b800 .cfa: $rsp 48 +
STACK CFI INIT b830 10 .cfa: $rsp .ra: .cfa 8 - ^
STACK CFI b830 .cfa: $rsp 16 +
STACK CFI INIT b850 190 .cfa: $rsp .ra: .cfa 8 - ^
STACK CFI b850 .cfa: $rsp 8 +
STACK CFI INIT ba60 18 .cfa: $rsp .ra: .cfa 8 - ^
STACK CFI ba60 .cfa: $rsp 8 +
STACK CFI INIT ba80 1 .cfa: $rsp .ra: .cfa 8 - ^
STACK CFI ba80 .cfa: $rsp 8 +
STACK CFI INIT ba90 1 .cfa: $rsp .ra: .cfa 8 - ^
STACK CFI ba90 .cfa: $rsp 8 +
STACK CFI INIT bb40 5b .cfa: $rsp .ra: .cfa 8 - ^
STACK CFI bb40 .cfa: $rsp 48 +
STACK CFI INIT bbb4 71 .cfa: $rsp .ra: .cfa 8 - ^
STACK CFI bbb4 .cfa: $rsp 48 +
STACK CFI INIT bc50 2f .cfa: $rsp .ra: .cfa 8 - ^
STACK CFI bc50 .cfa: $rsp 48 +
STACK CFI INIT bcc4 4a .cfa: $rsp .ra: .cfa 8 - ^
STACK CFI bcc4 .cfa: $rsp 48 +
STACK CFI INIT bd20 5b .cfa: $rsp .ra: .cfa 8 - ^
STACK CFI bd20 .cfa: $rsp 64 +
STACK CFI INIT bd94 12 .cfa: $rsp .ra: .cfa 8 - ^
STACK CFI bd94 .cfa: $rsp 48 +
STACK CFI INIT bdac 12 .cfa: $rsp .ra: .cfa 8 - ^
STACK CFI bdac .cfa: $rsp 48 +
STACK CFI INIT bdc4 12 .cfa: $rsp .ra: .cfa 8 - ^
STACK CFI bdc4 .cfa: $rsp 48 +
STACK CFI INIT bddc a .cfa: $rsp .ra: .cfa 8 - ^
STACK CFI bddc .cfa: $rsp 48 +
STACK CFI INIT bde8 a5 .cfa: $rsp .ra: .cfa 8 - ^
STACK CFI bde8 .cfa: $rsp 48 +
STACK CFI INIT bec4 cc .cfa: $rsp .ra: .cfa 8 - ^
STACK CFI bec4 .cfa: $rsp 48 +
STACK CFI INIT bfd8 31 .cfa: $rsp .ra: .cfa 8 - ^
STACK CFI bfd8 .cfa: $rsp 48 +
STACK CFI INIT c018 84 .cfa: $rsp .ra: .cfa 8 - ^
STACK CFI c018 .cfa: $rsp 48 +
STACK CFI INIT c0c0 40 .cfa: $rsp .ra: .cfa 8 - ^
STACK CFI c0c0 .cfa: $rsp 48 +
STACK CFI INIT c158 a6 .cfa: $rsp .ra: .cfa 8 - ^
STACK CFI c158 .cfa: $rsp 80 +
STACK CFI INIT c228 88 .cfa: $rsp .ra: .cfa 8 - ^
STACK CFI c228 .cfa: $rsp 80 +
STACK CFI INIT c3c8 88 .cfa: $rsp .ra: .cfa 8 - ^
STACK CFI c3c8 .cfa: $rsp 48 +
STACK CFI INIT c4a4 31 .cfa: $rsp .ra: .cfa 8 - ^
STACK CFI c4a4 .cfa: $rsp 48 +
STACK CFI INIT c4e4 7e .cfa: $rsp .ra: .cfa 8 - ^
STACK CFI c4e4 .cfa: $rsp 48 +
STACK CFI INIT c584 36 .cfa: $rsp .ra: .cfa 8 - ^
STACK CFI c584 .cfa: $rsp 48 +
STACK CFI INIT c640 36 .cfa: $rsp .ra: .cfa 8 - ^
STACK CFI c640 .cfa: $rsp 64 +
STACK CFI INIT c684 36 .cfa: $rsp .ra: .cfa 8 - ^
STACK CFI c684 .cfa: $rsp 64 +
STACK CFI INIT c6c8 49 .cfa: $rsp .ra: .cfa 8 - ^
STACK CFI c6c8 .cfa: $rsp 64 +
STACK CFI INIT c724 29 .cfa: $rsp .ra: .cfa 8 - ^
STACK CFI c724 .cfa: $rsp 48 +
STACK CFI INIT c758 29 .cfa: $rsp .ra: .cfa 8 - ^
STACK CFI c758 .cfa: $rsp 48 +
STACK CFI INIT c78c 29 .cfa: $rsp .ra: .cfa 8 - ^
STACK CFI c78c .cfa: $rsp 48 +
STACK CFI INIT c7c0 29 .cfa: $rsp .ra: .cfa 8 - ^
STACK CFI c7c0 .cfa: $rsp 48 +
STACK CFI INIT c7f4 29 .cfa: $rsp .ra: .cfa 8 - ^
STACK CFI c7f4 .cfa: $rsp 48 +
STACK CFI INIT c828 44 .cfa: $rsp .ra: .cfa 8 - ^
STACK CFI c828 .cfa: $rsp 48 +
STACK CFI INIT c880 7d .cfa: $rsp .ra: .cfa 8 - ^
STACK CFI c880 .cfa: $rsp 48 +
STACK CFI INIT c91c 95 .cfa: $rsp .ra: .cfa 8 - ^
STACK CFI c91c .cfa: $rsp 48 +
STACK CFI INIT c9d8 8a .cfa: $rsp .ra: .cfa 8 - ^
STACK CFI c9d8 .cfa: $rsp 48 +
STACK CFI INIT ca84 6b .cfa: $rsp .ra: .cfa 8 - ^
STACK CFI ca84 .cfa: $rsp 48 +
STACK CFI INIT cb0c 67 .cfa: $rsp .ra: .cfa 8 - ^
STACK CFI cb0c .cfa: $rsp 48 +
STACK CFI INIT cbc4 42 .cfa: $rsp .ra: .cfa 8 - ^
STACK CFI cbc4 .cfa: $rsp 48 +
STACK CFI INIT cc40 63 .cfa: $rsp .ra: .cfa 8 - ^
STACK CFI cc40 .cfa: $rsp 48 +
STACK CFI INIT ccbc db3 .cfa: $rsp .ra: .cfa 8 - ^
STACK CFI ccbc .cfa: $rsp 352 +
STACK CFI INIT de9c a6 .cfa: $rsp .ra: .cfa 8 - ^
STACK CFI de9c .cfa: $rsp 48 +
STACK CFI INIT dfe0 12b .cfa: $rsp .ra: .cfa 8 - ^
STACK CFI dfe0 .cfa: $rsp 96 +
STACK CFI INIT e158 f3 .cfa: $rsp .ra: .cfa 8 - ^
STACK CFI e158 .cfa: $rsp 64 +
STACK CFI INIT e288 253 .cfa: $rsp .ra: .cfa 8 - ^
STACK CFI e288 .cfa: $rsp 160 +
STACK CFI INIT e570 c8 .cfa: $rsp .ra: .cfa 8 - ^
STACK CFI e570 .cfa: $rsp 80 +
STACK CFI INIT e66c 468 .cfa: $rsp .ra: .cfa 8 - ^
STACK CFI e66c .cfa: $rsp 112 +
STACK CFI INIT ebf0 11d .cfa: $rsp .ra: .cfa 8 - ^
STACK CFI ebf0 .cfa: $rsp 64 +
STACK CFI INIT ed54 19 .cfa: $rsp .ra: .cfa 8 - ^
STACK CFI ed54 .cfa: $rsp 48 +
STACK CFI INIT ed74 13e .cfa: $rsp .ra: .cfa 8 - ^
STACK CFI ed74 .cfa: $rsp 64 +
STACK CFI INIT ef04 7b8 .cfa: $rsp .ra: .cfa 8 - ^
STACK CFI ef04 .cfa: $rsp 288 +
STACK CFI INIT f8ac 3e .cfa: $rsp .ra: .cfa 8 - ^
STACK CFI f8ac .cfa: $rsp 96 +
STACK CFI INIT f8fc e6 .cfa: $rsp .ra: .cfa 8 - ^
STACK CFI f8fc .cfa: $rsp 112 +
STACK CFI INIT fa1c 2a8 .cfa: $rsp .ra: .cfa 8 - ^
STACK CFI fa1c .cfa: $rsp 144 +
STACK CFI INIT fd70 179 .cfa: $rsp .ra: .cfa 8 - ^
STACK CFI fd70 .cfa: $rsp 112 +
STACK CFI INIT ffa8 19 .cfa: $rsp .ra: .cfa 8 - ^
STACK CFI ffa8 .cfa: $rsp 48 +
STACK CFI INIT ffc8 160 .cfa: $rsp .ra: .cfa 8 - ^
STACK CFI ffc8 .cfa: $rsp 112 +
STACK CFI INIT 10180 17 .cfa: $rsp .ra: .cfa 8 - ^
STACK CFI 10180 .cfa: $rsp 48 +
STACK CFI INIT 1019c fc .cfa: $rsp .ra: .cfa 8 - ^
STACK CFI 1019c .cfa: $rsp 96 +
STACK CFI INIT 102d8 214 .cfa: $rsp .ra: .cfa 8 - ^
STACK CFI 102d8 .cfa: $rsp 112 +
STACK CFI INIT 10574 c6 .cfa: $rsp .ra: .cfa 8 - ^
STACK CFI 10574 .cfa: $rsp 144 +
STACK CFI INIT 1066c 556 .cfa: $rsp .ra: .cfa 8 - ^
STACK CFI 1066c .cfa: $rsp 208 +
STACK CFI INIT 10d18 19 .cfa: $rsp .ra: .cfa 8 - ^
STACK CFI 10d18 .cfa: $rsp 48 +
STACK CFI INIT 10d6c 29 .cfa: $rsp .ra: .cfa 8 - ^
STACK CFI 10d6c .cfa: $rsp 48 +
STACK CFI INIT 10da0 35 .cfa: $rsp .ra: .cfa 8 - ^
STACK CFI 10da0 .cfa: $rsp 48 +
STACK CFI INIT 10e00 71 .cfa: $rsp .ra: .cfa 8 - ^
STACK CFI 10e00 .cfa: $rsp 96 +
STACK CFI INIT 10e90 a9 .cfa: $rsp .ra: .cfa 8 - ^
STACK CFI 10e90 .cfa: $rsp 48 +
STACK CFI INIT 10f64 45 .cfa: $rsp .ra: .cfa 8 - ^
STACK CFI 10f64 .cfa: $rsp 48 +
STACK CFI INIT 1104c 76d .cfa: $rsp .ra: .cfa 8 - ^
STACK CFI 1104c .cfa: $rsp 160 +
STACK CFI INIT 11994 1e .cfa: $rsp .ra: .cfa 8 - ^
STACK CFI 11994 .cfa: $rsp 48 +
STACK CFI INIT 119bc 1e .cfa: $rsp .ra: .cfa 8 - ^
STACK CFI 119bc .cfa: $rsp 48 +
STACK CFI INIT 119e4 24d .cfa: $rsp .ra: .cfa 8 - ^
STACK CFI 119e4 .cfa: $rsp 96 +
STACK CFI INIT 11cc4 162 .cfa: $rsp .ra: .cfa 8 - ^
STACK CFI 11cc4 .cfa: $rsp 96 +
STACK CFI INIT 11e80 136 .cfa: $rsp .ra: .cfa 8 - ^
STACK CFI 11e80 .cfa: $rsp 96 +
STACK CFI INIT 12004 17 .cfa: $rsp .ra: .cfa 8 - ^
STACK CFI 12004 .cfa: $rsp 48 +
STACK CFI INIT 12020 13d .cfa: $rsp .ra: .cfa 8 - ^
STACK CFI 12020 .cfa: $rsp 64 +
STACK CFI INIT 121ac 34 .cfa: $rsp .ra: .cfa 8 - ^
STACK CFI 121ac .cfa: $rsp 48 +
STACK CFI INIT 121f0 478 .cfa: $rsp .ra: .cfa 8 - ^
STACK CFI 121f0 .cfa: $rsp 544 +
STACK CFI INIT 12788 103 .cfa: $rsp .ra: .cfa 8 - ^
STACK CFI 12788 .cfa: $rsp 96 +
STACK CFI INIT 128cc 94 .cfa: $rsp .ra: .cfa 8 - ^
STACK CFI 128cc .cfa: $rsp 80 +
STACK CFI INIT 12988 3e .cfa: $rsp .ra: .cfa 8 - ^
STACK CFI 12988 .cfa: $rsp 96 +
STACK CFI INIT 129f8 94 .cfa: $rsp .ra: .cfa 8 - ^
STACK CFI 129f8 .cfa: $rsp 48 +
STACK CFI INIT 12b24 2d .cfa: $rsp .ra: .cfa 8 - ^
STACK CFI 12b24 .cfa: $rsp 48 +
STACK CFI INIT 12b5c 4b .cfa: $rsp .ra: .cfa 8 - ^
STACK CFI 12b5c .cfa: $rsp 48 +
STACK CFI INIT 12c00 d0 .cfa: $rsp .ra: .cfa 8 - ^
STACK CFI 12c00 .cfa: $rsp 80 +
STACK CFI INIT 12d3c 4c .cfa: $rsp .ra: .cfa 8 - ^
STACK CFI 12d3c .cfa: $rsp 48 +
STACK CFI INIT 12d9c 31a .cfa: $rsp .ra: .cfa 8 - ^
STACK CFI 12d9c .cfa: $rsp 288 +
STACK CFI INIT 1317c 3a0 .cfa: $rsp .ra: .cfa 8 - ^
STACK CFI 1317c .cfa: $rsp 256 +
STACK CFI INIT 13604 1fa .cfa: $rsp .ra: .cfa 8 - ^
STACK CFI 13604 .cfa: $rsp 432 +
STACK CFI INIT 1387c 42 .cfa: $rsp .ra: .cfa 8 - ^
STACK CFI 1387c .cfa: $rsp 96 +
STACK CFI INIT 138fc 35e .cfa: $rsp .ra: .cfa 8 - ^
STACK CFI 138fc .cfa: $rsp 48 +
STACK CFI INIT 13d34 109 .cfa: $rsp .ra: .cfa 8 - ^
STACK CFI 13d34 .cfa: $rsp 80 +
STACK CFI INIT 13e80 58 .cfa: $rsp .ra: .cfa 8 - ^
STACK CFI 13e80 .cfa: $rsp 48 +
STACK CFI INIT 13ef0 17 .cfa: $rsp .ra: .cfa 8 - ^
STACK CFI 13ef0 .cfa: $rsp 48 +
STACK CFI INIT 13f0c 5f .cfa: $rsp .ra: .cfa 8 - ^
STACK CFI 13f0c .cfa: $rsp 64 +
STACK CFI INIT 13f84 1fd .cfa: $rsp .ra: .cfa 8 - ^
STACK CFI 13f84 .cfa: $rsp 144 +
STACK CFI INIT 14200 2d9 .cfa: $rsp .ra: .cfa 8 - ^
STACK CFI 14200 .cfa: $rsp 176 +
STACK CFI INIT 14670 28 .cfa: $rsp .ra: .cfa 8 - ^
STACK CFI 14670 .cfa: $rsp 48 +
STACK CFI INIT 146a4 53 .cfa: $rsp .ra: .cfa 8 - ^
STACK CFI 146a4 .cfa: $rsp 48 +
STACK CFI INIT 14738 f5 .cfa: $rsp .ra: .cfa 8 - ^
STACK CFI 14738 .cfa: $rsp 96 +
STACK CFI INIT 14928 27 .cfa: $rsp .ra: .cfa 8 - ^
STACK CFI 14928 .cfa: $rsp 80 +
STACK CFI INIT 14958 132 .cfa: $rsp .ra: .cfa 8 - ^
STACK CFI 14958 .cfa: $rsp 224 +
STACK CFI INIT 14ad8 62 .cfa: $rsp .ra: .cfa 8 - ^
STACK CFI 14ad8 .cfa: $rsp 64 +
STACK CFI INIT 14b54 52 .cfa: $rsp .ra: .cfa 8 - ^
STACK CFI 14b54 .cfa: $rsp 96 +
STACK CFI INIT 14bbc 106 .cfa: $rsp .ra: .cfa 8 - ^
STACK CFI 14bbc .cfa: $rsp 224 +
STACK CFI INIT 14d18 1a .cfa: $rsp .ra: .cfa 8 - ^
STACK CFI 14d18 .cfa: $rsp 48 +
STACK CFI INIT 14d38 1b .cfa: $rsp .ra: .cfa 8 - ^
STACK CFI 14d38 .cfa: $rsp 48 +
STACK CFI INIT 14d90 1b .cfa: $rsp .ra: .cfa 8 - ^
STACK CFI 14d90 .cfa: $rsp 48 +
STACK CFI INIT 14db4 34 .cfa: $rsp .ra: .cfa 8 - ^
STACK CFI 14db4 .cfa: $rsp 48 +
STACK CFI INIT 14df8 1f .cfa: $rsp .ra: .cfa 8 - ^
STACK CFI 14df8 .cfa: $rsp 48 +
STACK CFI INIT 14e20 4d .cfa: $rsp .ra: .cfa 8 - ^
STACK CFI 14e20 .cfa: $rsp 48 +
STACK CFI INIT 14e80 19 .cfa: $rsp .ra: .cfa 8 - ^
STACK CFI 14e80 .cfa: $rsp 48 +
STACK CFI INIT 14ea0 cb .cfa: $rsp .ra: .cfa 8 - ^
STACK CFI 14ea0 .cfa: $rsp 48 +
STACK CFI INIT 14fa0 4d .cfa: $rsp .ra: .cfa 8 - ^
STACK CFI 14fa0 .cfa: $rsp 48 +
STACK CFI INIT 15000 51 .cfa: $rsp .ra: .cfa 8 - ^
STACK CFI 15000 .cfa: $rsp 48 +
STACK CFI INIT 15068 22 .cfa: $rsp .ra: .cfa 8 - ^
STACK CFI 15068 .cfa: $rsp 48 +
STACK CFI INIT 15094 46 .cfa: $rsp .ra: .cfa 8 - ^
STACK CFI 15094 .cfa: $rsp 48 +
STACK CFI INIT 1510c 37 .cfa: $rsp .ra: .cfa 8 - ^
STACK CFI 1510c .cfa: $rsp 48 +
STACK CFI INIT 152b4 119 .cfa: $rsp .ra: .cfa 8 - ^
STACK CFI 152b4 .cfa: $rsp 64 +
STACK CFI INIT 15414 1d6 .cfa: $rsp .ra: .cfa 8 - ^
STACK CFI 15414 .cfa: $rsp 80 +
STACK CFI INIT 15660 fe .cfa: $rsp .ra: .cfa 8 - ^
STACK CFI 15660 .cfa: $rsp 48 +
STACK CFI INIT 157a0 137 .cfa: $rsp .ra: .cfa 8 - ^
STACK CFI 157a0 .cfa: $rsp 64 +
STACK CFI INIT 15924 73 .cfa: $rsp .ra: .cfa 8 - ^
STACK CFI 15924 .cfa: $rsp 48 +
STACK CFI INIT 159b4 45 .cfa: $rsp .ra: .cfa 8 - ^
STACK CFI 159b4 .cfa: $rsp 48 +
STACK CFI INIT 15a0c 46 .cfa: $rsp .ra: .cfa 8 - ^
STACK CFI 15a0c .cfa: $rsp 48 +
STACK CFI INIT 15a64 46 .cfa: $rsp .ra: .cfa 8 - ^
STACK CFI 15a64 .cfa: $rsp 48 +
STACK CFI INIT 15abc 51 .cfa: $rsp .ra: .cfa 8 - ^
STACK CFI 15abc .cfa: $rsp 48 +
STACK CFI INIT 15b24 61 .cfa: $rsp .ra: .cfa 8 - ^
STACK CFI 15b24 .cfa: $rsp 48 +
STACK CFI INIT 15ba0 2f .cfa: $rsp .ra: .cfa 8 - ^
STACK CFI 15ba0 .cfa: $rsp 8 +
STACK CFI INIT 15bdc 3e .cfa: $rsp .ra: .cfa 8 - ^
STACK CFI 15bdc .cfa: $rsp 48 +
STACK CFI INIT 15cbc 2e .cfa: $rsp .ra: .cfa 8 - ^
STACK CFI 15cbc .cfa: $rsp 48 +
STACK CFI INIT 15d74 95 .cfa: $rsp .ra: .cfa 8 - ^
STACK CFI 15d74 .cfa: $rsp 80 +
STACK CFI INIT 15e30 95 .cfa: $rsp .ra: .cfa 8 - ^
STACK CFI 15e30 .cfa: $rsp 80 +
STACK CFI INIT 15eec 51 .cfa: $rsp .ra: .cfa 8 - ^
STACK CFI 15eec .cfa: $rsp 128 +
STACK CFI INIT 15f54 51 .cfa: $rsp .ra: .cfa 8 - ^
STACK CFI 15f54 .cfa: $rsp 128 +
STACK CFI INIT 160f4 56 .cfa: $rsp .ra: .cfa 8 - ^
STACK CFI 160f4 .cfa: $rsp 48 +
STACK CFI INIT 162e4 2a .cfa: $rsp .ra: .cfa 8 - ^
STACK CFI 162e4 .cfa: $rsp 48 +
STACK CFI INIT 16324 64 .cfa: $rsp .ra: .cfa 8 - ^
STACK CFI 16324 .cfa: $rsp 48 +
STACK CFI INIT 163a4 35 .cfa: $rsp .ra: .cfa 8 - ^
STACK CFI 163a4 .cfa: $rsp 48 +
STACK CFI INIT 163e8 c9 .cfa: $rsp .ra: .cfa 8 - ^
STACK CFI 163e8 .cfa: $rsp 80 +
STACK CFI INIT 16514 159 .cfa: $rsp .ra: .cfa 8 - ^
STACK CFI 16514 .cfa: $rsp 128 +
STACK CFI INIT 166c4 d3 .cfa: $rsp .ra: .cfa 8 - ^
STACK CFI 166c4 .cfa: $rsp 128 +
STACK CFI INIT 16818 121 .cfa: $rsp .ra: .cfa 8 - ^
STACK CFI 16818 .cfa: $rsp 1472 +
STACK CFI INIT 16984 170 .cfa: $rsp .ra: .cfa 8 - ^
STACK CFI 16984 .cfa: $rsp 1472 +
STACK CFI INIT 16b94 175 .cfa: $rsp .ra: .cfa 8 - ^
STACK CFI 16b94 .cfa: $rsp 64 +
STACK CFI INIT 16d68 3a .cfa: $rsp .ra: .cfa 8 - ^
STACK CFI 16d68 .cfa: $rsp 48 +
STACK CFI INIT 16db0 53 .cfa: $rsp .ra: .cfa 8 - ^
STACK CFI 16db0 .cfa: $rsp 48 +
STACK CFI INIT 16e18 12 .cfa: $rsp .ra: .cfa 8 - ^
STACK CFI 16e18 .cfa: $rsp 48 +
STACK CFI INIT 16e30 12 .cfa: $rsp .ra: .cfa 8 - ^
STACK CFI 16e30 .cfa: $rsp 48 +
STACK CFI INIT 16e48 18 .cfa: $rsp .ra: .cfa 8 - ^
STACK CFI 16e48 .cfa: $rsp 48 +
STACK CFI INIT 16e68 18 .cfa: $rsp .ra: .cfa 8 - ^
STACK CFI 16e68 .cfa: $rsp 48 +
STACK CFI INIT 16e98 7d .cfa: $rsp .ra: .cfa 8 - ^
STACK CFI 16e98 .cfa: $rsp 80 +
STACK CFI INIT 16f34 a1 .cfa: $rsp .ra: .cfa 8 - ^
STACK CFI 16f34 .cfa: $rsp 112 +
STACK CFI INIT 17010 13 .cfa: $rsp .ra: .cfa 8 - ^
STACK CFI 17010 .cfa: $rsp 24 +
STACK CFI INIT 17030 435 .cfa: $rsp .ra: .cfa 8 - ^
STACK CFI 17030 .cfa: $rsp 8 +
STACK CFI INIT 17580 27 .cfa: $rsp .ra: .cfa 8 - ^
STACK CFI 17580 .cfa: $rsp 48 +
STACK CFI INIT 175b0 29 .cfa: $rsp .ra: .cfa 8 - ^
STACK CFI 175b0 .cfa: $rsp 48 +
STACK CFI INIT 175f4 3b .cfa: $rsp .ra: .cfa 8 - ^
STACK CFI 175f4 .cfa: $rsp 48 +
STACK CFI INIT 17658 66 .cfa: $rsp .ra: .cfa 8 - ^
STACK CFI 17658 .cfa: $rsp 48 +
STACK CFI INIT 176d8 ed .cfa: $rsp .ra: .cfa 8 - ^
STACK CFI 176d8 .cfa: $rsp 80 +
STACK CFI INIT 17804 1fd .cfa: $rsp .ra: .cfa 8 - ^
STACK CFI 17804 .cfa: $rsp 80 +
STACK CFI INIT 17a80 201 .cfa: $rsp .ra: .cfa 8 - ^
STACK CFI 17a80 .cfa: $rsp 80 +
STACK CFI INIT 17d04 c0 .cfa: $rsp .ra: .cfa 8 - ^
STACK CFI 17d04 .cfa: $rsp 48 +
STACK CFI INIT 17df4 c1 .cfa: $rsp .ra: .cfa 8 - ^
STACK CFI 17df4 .cfa: $rsp 48 +
STACK CFI INIT 17ee8 cd .cfa: $rsp .ra: .cfa 8 - ^
STACK CFI 17ee8 .cfa: $rsp 144 +
STACK CFI INIT 17fe8 cd .cfa: $rsp .ra: .cfa 8 - ^
STACK CFI 17fe8 .cfa: $rsp 144 +
STACK CFI INIT 180e8 461 .cfa: $rsp .ra: .cfa 8 - ^
STACK CFI 180e8 .cfa: $rsp 288 +
STACK CFI INIT 18664 400 .cfa: $rsp .ra: .cfa 8 - ^
STACK CFI 18664 .cfa: $rsp 384 +
STACK CFI INIT 18b64 22e .cfa: $rsp .ra: .cfa 8 - ^
STACK CFI 18b64 .cfa: $rsp 224 +
STACK CFI INIT 18e20 237 .cfa: $rsp .ra: .cfa 8 - ^
STACK CFI 18e20 .cfa: $rsp 352 +
STACK CFI INIT 190e4 141 .cfa: $rsp .ra: .cfa 8 - ^
STACK CFI 190e4 .cfa: $rsp 48 +
STACK CFI INIT 19278 146 .cfa: $rsp .ra: .cfa 8 - ^
STACK CFI 19278 .cfa: $rsp 48 +
STACK CFI INIT 19410 246 .cfa: $rsp .ra: .cfa 8 - ^
STACK CFI 19410 .cfa: $rsp 96 +
STACK CFI INIT 196e8 29f .cfa: $rsp .ra: .cfa 8 - ^
STACK CFI 196e8 .cfa: $rsp 160 +
STACK CFI INIT 19a4c 6b .cfa: $rsp .ra: .cfa 8 - ^
STACK CFI 19a4c .cfa: $rsp 48 +
STACK CFI INIT 19c70 3f .cfa: $rsp .ra: .cfa 8 - ^
STACK CFI 19c70 .cfa: $rsp 48 +
STACK CFI INIT 19ce8 35 .cfa: $rsp .ra: .cfa 8 - ^
STACK CFI 19ce8 .cfa: $rsp 48 +
STACK CFI INIT 19dd0 1b .cfa: $rsp .ra: .cfa 8 - ^
STACK CFI 19dd0 .cfa: $rsp 48 +
STACK CFI INIT 19e58 3c .cfa: $rsp .ra: .cfa 8 - ^
STACK CFI 19e58 .cfa: $rsp 48 +
STACK CFI INIT 19eac 1d .cfa: $rsp .ra: .cfa 8 - ^
STACK CFI 19eac .cfa: $rsp 48 +
STACK CFI INIT 19ed8 4d .cfa: $rsp .ra: .cfa 8 - ^
STACK CFI 19ed8 .cfa: $rsp 48 +
STACK CFI INIT 19f7c 42 .cfa: $rsp .ra: .cfa 8 - ^
STACK CFI 19f7c .cfa: $rsp 48 +
STACK CFI INIT 19fd0 42 .cfa: $rsp .ra: .cfa 8 - ^
STACK CFI 19fd0 .cfa: $rsp 48 +
STACK CFI INIT 1a044 1ea .cfa: $rsp .ra: .cfa 8 - ^
STACK CFI 1a044 .cfa: $rsp 176 +
STACK CFI INIT 1a2a8 240 .cfa: $rsp .ra: .cfa 8 - ^
STACK CFI 1a2a8 .cfa: $rsp 224 +
STACK CFI INIT 1a710 87 .cfa: $rsp .ra: .cfa 8 - ^
STACK CFI 1a710 .cfa: $rsp 48 +
STACK CFI INIT 1a7b8 193 .cfa: $rsp .ra: .cfa 8 - ^
STACK CFI 1a7b8 .cfa: $rsp 112 +
STACK CFI INIT 1a9b0 2d9 .cfa: $rsp .ra: .cfa 8 - ^
STACK CFI 1a9b0 .cfa: $rsp 288 +
STACK CFI INIT 1ad40 96 .cfa: $rsp .ra: .cfa 8 - ^
STACK CFI 1ad40 .cfa: $rsp 48 +
STACK CFI INIT 1adfc 37 .cfa: $rsp .ra: .cfa 8 - ^
STACK CFI 1adfc .cfa: $rsp 48 +
STACK CFI INIT 1ae8c d6 .cfa: $rsp .ra: .cfa 8 - ^
STACK CFI 1ae8c .cfa: $rsp 80 +
STACK CFI INIT 1af98 91 .cfa: $rsp .ra: .cfa 8 - ^
STACK CFI 1af98 .cfa: $rsp 48 +
STACK CFI INIT 1b120 2e .cfa: $rsp .ra: .cfa 8 - ^
STACK CFI 1b120 .cfa: $rsp 48 +
STACK CFI INIT 1b204 28 .cfa: $rsp .ra: .cfa 8 - ^
STACK CFI 1b204 .cfa: $rsp 48 +
STACK CFI INIT 1b254 4e .cfa: $rsp .ra: .cfa 8 - ^
STACK CFI 1b254 .cfa: $rsp 48 +
STACK CFI INIT 1b2f0 a1 .cfa: $rsp .ra: .cfa 8 - ^
STACK CFI 1b2f0 .cfa: $rsp 96 +
STACK CFI INIT 1b3bc 86 .cfa: $rsp .ra: .cfa 8 - ^
STACK CFI 1b3bc .cfa: $rsp 48 +
STACK CFI INIT 1b4b8 39 .cfa: $rsp .ra: .cfa 8 - ^
STACK CFI 1b4b8 .cfa: $rsp 48 +
STACK CFI INIT 1b550 40 .cfa: $rsp .ra: .cfa 8 - ^
STACK CFI 1b550 .cfa: $rsp 48 +
STACK CFI INIT 1b5a0 47 .cfa: $rsp .ra: .cfa 8 - ^
STACK CFI 1b5a0 .cfa: $rsp 48 +
STACK CFI INIT 1b624 1b .cfa: $rsp .ra: .cfa 8 - ^
STACK CFI 1b624 .cfa: $rsp 48 +
STACK CFI INIT 1b670 1b .cfa: $rsp .ra: .cfa 8 - ^
STACK CFI 1b670 .cfa: $rsp 48 +
STACK CFI INIT 1b694 8d .cfa: $rsp .ra: .cfa 8 - ^
STACK CFI 1b694 .cfa: $rsp 48 +
STACK CFI INIT 1b744 25 .cfa: $rsp .ra: .cfa 8 - ^
STACK CFI 1b744 .cfa: $rsp 48 +
STACK CFI INIT 1b774 bf .cfa: $rsp .ra: .cfa 8 - ^
STACK CFI 1b774 .cfa: $rsp 112 +
STACK CFI INIT 1b8b0 6d .cfa: $rsp .ra: .cfa 8 - ^
STACK CFI 1b8b0 .cfa: $rsp 80 +
STACK CFI INIT 1b944 15b .cfa: $rsp .ra: .cfa 8 - ^
STACK CFI 1b944 .cfa: $rsp 1552 +
STACK CFI INIT 1bb20 1a .cfa: $rsp .ra: .cfa 8 - ^
STACK CFI 1bb20 .cfa: $rsp 48 +
STACK CFI INIT 1bb40 ae .cfa: $rsp .ra: .cfa 8 - ^
STACK CFI 1bb40 .cfa: $rsp 64 +
STACK CFI INIT 1bc1c 1e .cfa: $rsp .ra: .cfa 8 - ^
STACK CFI 1bc1c .cfa: $rsp 64 +
STACK CFI INIT 1bc44 2f .cfa: $rsp .ra: .cfa 8 - ^
STACK CFI 1bc44 .cfa: $rsp 64 +
STACK CFI INIT 1bc80 47 .cfa: $rsp .ra: .cfa 8 - ^
STACK CFI 1bc80 .cfa: $rsp 48 +
STACK CFI INIT 1bd1c 25 .cfa: $rsp .ra: .cfa 8 - ^
STACK CFI 1bd1c .cfa: $rsp 48 +
STACK CFI INIT 1bd4c 64 .cfa: $rsp .ra: .cfa 8 - ^
STACK CFI 1bd4c .cfa: $rsp 48 +
STACK CFI INIT 1bdcc 3d .cfa: $rsp .ra: .cfa 8 - ^
STACK CFI 1bdcc .cfa: $rsp 48 +
STACK CFI INIT 1be6c 182 .cfa: $rsp .ra: .cfa 8 - ^
STACK CFI 1be6c .cfa: $rsp 48 +
STACK CFI INIT 1c05c 38 .cfa: $rsp .ra: .cfa 8 - ^
STACK CFI 1c05c .cfa: $rsp 48 +
STACK CFI INIT 1c0a4 26 .cfa: $rsp .ra: .cfa 8 - ^
STACK CFI 1c0a4 .cfa: $rsp 48 +
STACK CFI INIT 1c158 21 .cfa: $rsp .ra: .cfa 8 - ^
STACK CFI 1c158 .cfa: $rsp 48 +
STACK CFI INIT 1c18c c1 .cfa: $rsp .ra: .cfa 8 - ^
STACK CFI 1c18c .cfa: $rsp 48 +
STACK CFI INIT 1c2a4 21 .cfa: $rsp .ra: .cfa 8 - ^
STACK CFI 1c2a4 .cfa: $rsp 48 +
STACK CFI INIT 1c2d0 14 .cfa: $rsp .ra: .cfa 8 - ^
STACK CFI 1c2d0 .cfa: $rsp 48 +
STACK CFI INIT 1c2ec bc .cfa: $rsp .ra: .cfa 8 - ^
STACK CFI 1c2ec .cfa: $rsp 96 +
STACK CFI INIT 1c3d8 4a .cfa: $rsp .ra: .cfa 8 - ^
STACK CFI 1c3d8 .cfa: $rsp 48 +
STACK CFI INIT 1c440 52 .cfa: $rsp .ra: .cfa 8 - ^
STACK CFI 1c440 .cfa: $rsp 48 +
STACK CFI INIT 1c4a8 30 .cfa: $rsp .ra: .cfa 8 - ^
STACK CFI 1c4a8 .cfa: $rsp 48 +
STACK CFI INIT 1c4e4 5b .cfa: $rsp .ra: .cfa 8 - ^
STACK CFI 1c4e4 .cfa: $rsp 48 +
STACK CFI INIT 1c5b0 3c .cfa: $rsp .ra: .cfa 8 - ^
STACK CFI 1c5b0 .cfa: $rsp 48 +
STACK CFI INIT 1c63c 175 .cfa: $rsp .ra: .cfa 8 - ^
STACK CFI 1c63c .cfa: $rsp 96 +
STACK CFI INIT 1c810 171 .cfa: $rsp .ra: .cfa 8 - ^
STACK CFI 1c810 .cfa: $rsp 96 +
STACK CFI INIT 1ca00 1c3 .cfa: $rsp .ra: .cfa 8 - ^
STACK CFI 1ca00 .cfa: $rsp 64 +
STACK CFI INIT 1cc34 1a2 .cfa: $rsp .ra: .cfa 8 - ^
STACK CFI 1cc34 .cfa: $rsp 16 +
STACK CFI INIT 1ce88 1b .cfa: $rsp .ra: .cfa 8 - ^
STACK CFI 1ce88 .cfa: $rsp 48 +
STACK CFI INIT 1ceac 1b .cfa: $rsp .ra: .cfa 8 - ^
STACK CFI 1ceac .cfa: $rsp 48 +
STACK CFI INIT 1ced0 1b .cfa: $rsp .ra: .cfa 8 - ^
STACK CFI 1ced0 .cfa: $rsp 48 +
STACK CFI INIT 1cfd8 1b .cfa: $rsp .ra: .cfa 8 - ^
STACK CFI 1cfd8 .cfa: $rsp 48 +
STACK CFI INIT 1cffc 1b .cfa: $rsp .ra: .cfa 8 - ^
STACK CFI 1cffc .cfa: $rsp 48 +
STACK CFI INIT 1d020 1b .cfa: $rsp .ra: .cfa 8 - ^
STACK CFI 1d020 .cfa: $rsp 48 +
STACK CFI INIT 1d044 16 .cfa: $rsp .ra: .cfa 8 - ^
STACK CFI 1d044 .cfa: $rsp 48 +
STACK CFI INIT 1d064 5d .cfa: $rsp .ra: .cfa 8 - ^
STACK CFI 1d064 .cfa: $rsp 48 +
STACK CFI INIT 1d0d8 186 .cfa: $rsp .ra: .cfa 8 - ^
STACK CFI 1d0d8 .cfa: $rsp 96 +
STACK CFI INIT 1d2c0 182 .cfa: $rsp .ra: .cfa 8 - ^
STACK CFI 1d2c0 .cfa: $rsp 96 +
STACK CFI INIT 1d4c8 4e .cfa: $rsp .ra: .cfa 8 - ^
STACK CFI 1d4c8 .cfa: $rsp 48 +
STACK CFI INIT 1d52c 4e .cfa: $rsp .ra: .cfa 8 - ^
STACK CFI 1d52c .cfa: $rsp 48 +
STACK CFI INIT 1d590 3b .cfa: $rsp .ra: .cfa 8 - ^
STACK CFI 1d590 .cfa: $rsp 48 +
STACK CFI INIT 1d5dc 3b .cfa: $rsp .ra: .cfa 8 - ^
STACK CFI 1d5dc .cfa: $rsp 48 +
STACK CFI INIT 1d628 6c .cfa: $rsp .ra: .cfa 8 - ^
STACK CFI 1d628 .cfa: $rsp 48 +
STACK CFI INIT 1d6b0 67 .cfa: $rsp .ra: .cfa 8 - ^
STACK CFI 1d6b0 .cfa: $rsp 48 +
STACK CFI INIT 1d7bc 106 .cfa: $rsp .ra: .cfa 8 - ^
STACK CFI 1d7bc .cfa: $rsp 80 +
STACK CFI INIT 1d904 113 .cfa: $rsp .ra: .cfa 8 - ^
STACK CFI 1d904 .cfa: $rsp 80 +
STACK CFI INIT 1da5c 41 .cfa: $rsp .ra: .cfa 8 - ^
STACK CFI 1da5c .cfa: $rsp 48 +
STACK CFI INIT 1dab0 41 .cfa: $rsp .ra: .cfa 8 - ^
STACK CFI 1dab0 .cfa: $rsp 48 +
STACK CFI INIT 1db14 d1 .cfa: $rsp .ra: .cfa 8 - ^
STACK CFI 1db14 .cfa: $rsp 80 +
STACK CFI INIT 1dc1c b1 .cfa: $rsp .ra: .cfa 8 - ^
STACK CFI 1dc1c .cfa: $rsp 64 +
STACK CFI INIT 1dd6c 43 .cfa: $rsp .ra: .cfa 8 - ^
STACK CFI 1dd6c .cfa: $rsp 48 +
STACK CFI INIT 1ddc0 43 .cfa: $rsp .ra: .cfa 8 - ^
STACK CFI 1ddc0 .cfa: $rsp 48 +
STACK CFI INIT 1de14 1a .cfa: $rsp .ra: .cfa 8 - ^
STACK CFI 1de14 .cfa: $rsp 48 +
STACK CFI INIT 1de34 1a .cfa: $rsp .ra: .cfa 8 - ^
STACK CFI 1de34 .cfa: $rsp 48 +
STACK CFI INIT 1de5c 1b .cfa: $rsp .ra: .cfa 8 - ^
STACK CFI 1de5c .cfa: $rsp 48 +
STACK CFI INIT 1dea4 24 .cfa: $rsp .ra: .cfa 8 - ^
STACK CFI 1dea4 .cfa: $rsp 64 +
STACK CFI INIT 1ded4 2e .cfa: $rsp .ra: .cfa 8 - ^
STACK CFI 1ded4 .cfa: $rsp 80 +
STACK CFI INIT 1df10 23 .cfa: $rsp .ra: .cfa 8 - ^
STACK CFI 1df10 .cfa: $rsp 64 +
STACK CFI INIT 1df3c 2e .cfa: $rsp .ra: .cfa 8 - ^
STACK CFI 1df3c .cfa: $rsp 80 +
STACK CFI INIT 1dfdc 27 .cfa: $rsp .ra: .cfa 8 - ^
STACK CFI 1dfdc .cfa: $rsp 8 +
STACK CFI INIT 1e00c 27 .cfa: $rsp .ra: .cfa 8 - ^
STACK CFI 1e00c .cfa: $rsp 8 +
STACK CFI INIT 1e06c 1b .cfa: $rsp .ra: .cfa 8 - ^
STACK CFI 1e06c .cfa: $rsp 48 +
STACK CFI INIT 1e098 3b .cfa: $rsp .ra: .cfa 8 - ^
STACK CFI 1e098 .cfa: $rsp 48 +
STACK CFI INIT 1e0e4 3b .cfa: $rsp .ra: .cfa 8 - ^
STACK CFI 1e0e4 .cfa: $rsp 48 +
STACK CFI INIT 1e130 38 .cfa: $rsp .ra: .cfa 8 - ^
STACK CFI 1e130 .cfa: $rsp 48 +
STACK CFI INIT 1e190 4e .cfa: $rsp .ra: .cfa 8 - ^
STACK CFI 1e190 .cfa: $rsp 48 +
STACK CFI INIT 1e1f4 4e .cfa: $rsp .ra: .cfa 8 - ^
STACK CFI 1e1f4 .cfa: $rsp 48 +
STACK CFI INIT 1e268 31 .cfa: $rsp .ra: .cfa 8 - ^
STACK CFI 1e268 .cfa: $rsp 64 +
STACK CFI INIT 1e2c0 3b .cfa: $rsp .ra: .cfa 8 - ^
STACK CFI 1e2c0 .cfa: $rsp 48 +
STACK CFI INIT 1e30c 3b .cfa: $rsp .ra: .cfa 8 - ^
STACK CFI 1e30c .cfa: $rsp 48 +
STACK CFI INIT 1e358 26 .cfa: $rsp .ra: .cfa 8 - ^
STACK CFI 1e358 .cfa: $rsp 48 +
STACK CFI INIT 1e388 26 .cfa: $rsp .ra: .cfa 8 - ^
STACK CFI 1e388 .cfa: $rsp 48 +
STACK CFI INIT 1e430 1b .cfa: $rsp .ra: .cfa 8 - ^
STACK CFI 1e430 .cfa: $rsp 48 +
STACK CFI INIT 1e458 1b0 .cfa: $rsp .ra: .cfa 8 - ^
STACK CFI 1e458 .cfa: $rsp 64 +
STACK CFI INIT 1e694 116 .cfa: $rsp .ra: .cfa 8 - ^
STACK CFI 1e694 .cfa: $rsp 64 +
STACK CFI INIT 1e7fc 1b .cfa: $rsp .ra: .cfa 8 - ^
STACK CFI 1e7fc .cfa: $rsp 48 +
STACK CFI INIT 1e848 3a .cfa: $rsp .ra: .cfa 8 - ^
STACK CFI 1e848 .cfa: $rsp 64 +
STACK CFI INIT 1e8c0 48 .cfa: $rsp .ra: .cfa 8 - ^
STACK CFI 1e8c0 .cfa: $rsp 80 +
STACK CFI INIT 1e934 23 .cfa: $rsp .ra: .cfa 8 - ^
STACK CFI 1e934 .cfa: $rsp 48 +
STACK CFI INIT 1e968 10 .cfa: $rsp .ra: .cfa 8 - ^
STACK CFI 1e968 .cfa: $rsp 48 +
STACK CFI INIT 1e984 3d .cfa: $rsp .ra: .cfa 8 - ^
STACK CFI 1e984 .cfa: $rsp 48 +
STACK CFI INIT 1e9d8 40 .cfa: $rsp .ra: .cfa 8 - ^
STACK CFI 1e9d8 .cfa: $rsp 48 +
STACK CFI INIT 1ea28 5b .cfa: $rsp .ra: .cfa 8 - ^
STACK CFI 1ea28 .cfa: $rsp 48 +
STACK CFI INIT 1eaa0 6f .cfa: $rsp .ra: .cfa 8 - ^
STACK CFI 1eaa0 .cfa: $rsp 48 +
STACK CFI INIT 1eb2c 3e .cfa: $rsp .ra: .cfa 8 - ^
STACK CFI 1eb2c .cfa: $rsp 48 +
STACK CFI INIT 1eb8c 27 .cfa: $rsp .ra: .cfa 8 - ^
STACK CFI 1eb8c .cfa: $rsp 8 +
STACK CFI INIT 1ebd4 14 .cfa: $rsp .ra: .cfa 8 - ^
STACK CFI 1ebd4 .cfa: $rsp 48 +
STACK CFI INIT 1ebf0 10 .cfa: $rsp .ra: .cfa 8 - ^
STACK CFI 1ebf0 .cfa: $rsp 48 +
STACK CFI INIT 1ec04 35 .cfa: $rsp .ra: .cfa 8 - ^
STACK CFI 1ec04 .cfa: $rsp 48 +
STACK CFI INIT 1ec48 10 .cfa: $rsp .ra: .cfa 8 - ^
STACK CFI 1ec48 .cfa: $rsp 48 +
STACK CFI INIT 1ec74 22 .cfa: $rsp .ra: .cfa 8 - ^
STACK CFI 1ec74 .cfa: $rsp 48 +
STACK CFI INIT 1eca0 2c .cfa: $rsp .ra: .cfa 8 - ^
STACK CFI 1eca0 .cfa: $rsp 48 +
STACK CFI INIT 1ecd8 20 .cfa: $rsp .ra: .cfa 8 - ^
STACK CFI 1ecd8 .cfa: $rsp 48 +
STACK CFI INIT 1ed08 62 .cfa: $rsp .ra: .cfa 8 - ^
STACK CFI 1ed08 .cfa: $rsp 48 +
STACK CFI INIT 1ed84 5f .cfa: $rsp .ra: .cfa 8 - ^
STACK CFI 1ed84 .cfa: $rsp 48 +
STACK CFI INIT 1edfc 81 .cfa: $rsp .ra: .cfa 8 - ^
STACK CFI 1edfc .cfa: $rsp 8 +
STACK CFI INIT 1eea0 9e .cfa: $rsp .ra: .cfa 8 - ^
STACK CFI 1eea0 .cfa: $rsp 8 +
STACK CFI INIT 1ef68 81 .cfa: $rsp .ra: .cfa 8 - ^
STACK CFI 1ef68 .cfa: $rsp 8 +
STACK CFI INIT 1f00c 85 .cfa: $rsp .ra: .cfa 8 - ^
STACK CFI 1f00c .cfa: $rsp 8 +
STACK CFI INIT 1f0b4 a2 .cfa: $rsp .ra: .cfa 8 - ^
STACK CFI 1f0b4 .cfa: $rsp 8 +
STACK CFI INIT 1f180 85 .cfa: $rsp .ra: .cfa 8 - ^
STACK CFI 1f180 .cfa: $rsp 8 +
STACK CFI INIT 1f228 81 .cfa: $rsp .ra: .cfa 8 - ^
STACK CFI 1f228 .cfa: $rsp 8 +
STACK CFI INIT 1f2cc 9e .cfa: $rsp .ra: .cfa 8 - ^
STACK CFI 1f2cc .cfa: $rsp 8 +
STACK CFI INIT 1f394 81 .cfa: $rsp .ra: .cfa 8 - ^
STACK CFI 1f394 .cfa: $rsp 8 +
STACK CFI INIT 1f438 85 .cfa: $rsp .ra: .cfa 8 - ^
STACK CFI 1f438 .cfa: $rsp 8 +
STACK CFI INIT 1f4e0 a2 .cfa: $rsp .ra: .cfa 8 - ^
STACK CFI 1f4e0 .cfa: $rsp 8 +
STACK CFI INIT 1f5ac 85 .cfa: $rsp .ra: .cfa 8 - ^
STACK CFI 1f5ac .cfa: $rsp 8 +
STACK CFI INIT 1f654 3d .cfa: $rsp .ra: .cfa 8 - ^
STACK CFI 1f654 .cfa: $rsp 48 +
STACK CFI INIT 1f6a0 3d .cfa: $rsp .ra: .cfa 8 - ^
STACK CFI 1f6a0 .cfa: $rsp 48 +
STACK CFI INIT 1f6ec 3d .cfa: $rsp .ra: .cfa 8 - ^
STACK CFI 1f6ec .cfa: $rsp 48 +
STACK CFI INIT 1f738 3d .cfa: $rsp .ra: .cfa 8 - ^
STACK CFI 1f738 .cfa: $rsp 48 +
STACK CFI INIT 1f784 3d .cfa: $rsp .ra: .cfa 8 - ^
STACK CFI 1f784 .cfa: $rsp 48 +
STACK CFI INIT 1f7d0 3d .cfa: $rsp .ra: .cfa 8 - ^
STACK CFI 1f7d0 .cfa: $rsp 48 +
STACK CFI INIT 1f81c 28 .cfa: $rsp .ra: .cfa 8 - ^
STACK CFI 1f81c .cfa: $rsp 48 +
STACK CFI INIT 1f850 28 .cfa: $rsp .ra: .cfa 8 - ^
STACK CFI 1f850 .cfa: $rsp 48 +
STACK CFI INIT 1f884 28 .cfa: $rsp .ra: .cfa 8 - ^
STACK CFI 1f884 .cfa: $rsp 48 +
STACK CFI INIT 1f8b8 28 .cfa: $rsp .ra: .cfa 8 - ^
STACK CFI 1f8b8 .cfa: $rsp 48 +
STACK CFI INIT 1f8ec 28 .cfa: $rsp .ra: .cfa 8 - ^
STACK CFI 1f8ec .cfa: $rsp 48 +
STACK CFI INIT 1f920 28 .cfa: $rsp .ra: .cfa 8 - ^
STACK CFI 1f920 .cfa: $rsp 48 +
STACK CFI INIT 1f954 85 .cfa: $rsp .ra: .cfa 8 - ^
STACK CFI 1f954 .cfa: $rsp 112 +
STACK CFI INIT 1f9fc 85 .cfa: $rsp .ra: .cfa 8 - ^
STACK CFI 1f9fc .cfa: $rsp 112 +
STACK CFI INIT 1faa4 85 .cfa: $rsp .ra: .cfa 8 - ^
STACK CFI 1faa4 .cfa: $rsp 112 +
STACK CFI INIT 1fb4c 85 .cfa: $rsp .ra: .cfa 8 - ^
STACK CFI 1fb4c .cfa: $rsp 112 +
STACK CFI INIT 1fbf4 85 .cfa: $rsp .ra: .cfa 8 - ^
STACK CFI 1fbf4 .cfa: $rsp 112 +
STACK CFI INIT 1fc9c 85 .cfa: $rsp .ra: .cfa 8 - ^
STACK CFI 1fc9c .cfa: $rsp 112 +
STACK CFI INIT 1fd44 114 .cfa: $rsp .ra: .cfa 8 - ^
STACK CFI 1fd44 .cfa: $rsp 64 +
STACK CFI INIT 1fea0 117 .cfa: $rsp .ra: .cfa 8 - ^
STACK CFI 1fea0 .cfa: $rsp 80 +
STACK CFI INIT 1fffc 1cb .cfa: $rsp .ra: .cfa 8 - ^
STACK CFI 1fffc .cfa: $rsp 1328 +
STACK CFI INIT 2023c 1d2 .cfa: $rsp .ra: .cfa 8 - ^
STACK CFI 2023c .cfa: $rsp 1328 +
STACK CFI INIT 20484 1e7 .cfa: $rsp .ra: .cfa 8 - ^
STACK CFI 20484 .cfa: $rsp 3744 +
STACK CFI INIT 206e4 1ee .cfa: $rsp .ra: .cfa 8 - ^
STACK CFI 206e4 .cfa: $rsp 3744 +
STACK CFI INIT 20950 1cb .cfa: $rsp .ra: .cfa 8 - ^
STACK CFI 20950 .cfa: $rsp 1328 +
STACK CFI INIT 20b90 1d2 .cfa: $rsp .ra: .cfa 8 - ^
STACK CFI 20b90 .cfa: $rsp 1328 +
STACK CFI INIT 20dd8 63 .cfa: $rsp .ra: .cfa 8 - ^
STACK CFI 20dd8 .cfa: $rsp 64 +
STACK CFI INIT 20e54 6e .cfa: $rsp .ra: .cfa 8 - ^
STACK CFI 20e54 .cfa: $rsp 64 +
STACK CFI INIT 20f50 a6 .cfa: $rsp .ra: .cfa 8 - ^
STACK CFI 20f50 .cfa: $rsp 48 +
STACK CFI INIT 21020 a9 .cfa: $rsp .ra: .cfa 8 - ^
STACK CFI 21020 .cfa: $rsp 48 +
STACK CFI INIT 210f4 bc .cfa: $rsp .ra: .cfa 8 - ^
STACK CFI 210f4 .cfa: $rsp 64 +
STACK CFI INIT 211e0 bc .cfa: $rsp .ra: .cfa 8 - ^
STACK CFI 211e0 .cfa: $rsp 64 +
STACK CFI INIT 212cc be .cfa: $rsp .ra: .cfa 8 - ^
STACK CFI 212cc .cfa: $rsp 64 +
STACK CFI INIT 213bc be .cfa: $rsp .ra: .cfa 8 - ^
STACK CFI 213bc .cfa: $rsp 64 +
STACK CFI INIT 2151c bb .cfa: $rsp .ra: .cfa 8 - ^
STACK CFI 2151c .cfa: $rsp 64 +
STACK CFI INIT 21608 bb .cfa: $rsp .ra: .cfa 8 - ^
STACK CFI 21608 .cfa: $rsp 64 +
STACK CFI INIT 216f4 bd .cfa: $rsp .ra: .cfa 8 - ^
STACK CFI 216f4 .cfa: $rsp 64 +
STACK CFI INIT 217e0 bd .cfa: $rsp .ra: .cfa 8 - ^
STACK CFI 217e0 .cfa: $rsp 64 +
STACK CFI INIT 2192c bc .cfa: $rsp .ra: .cfa 8 - ^
STACK CFI 2192c .cfa: $rsp 64 +
STACK CFI INIT 21a18 bc .cfa: $rsp .ra: .cfa 8 - ^
STACK CFI 21a18 .cfa: $rsp 64 +
STACK CFI INIT 21b04 be .cfa: $rsp .ra: .cfa 8 - ^
STACK CFI 21b04 .cfa: $rsp 64 +
STACK CFI INIT 21bf4 be .cfa: $rsp .ra: .cfa 8 - ^
STACK CFI 21bf4 .cfa: $rsp 64 +
STACK CFI INIT 21d54 b8 .cfa: $rsp .ra: .cfa 8 - ^
STACK CFI 21d54 .cfa: $rsp 64 +
STACK CFI INIT 21e3c b8 .cfa: $rsp .ra: .cfa 8 - ^
STACK CFI 21e3c .cfa: $rsp 64 +
STACK CFI INIT 21f54 bb .cfa: $rsp .ra: .cfa 8 - ^
STACK CFI 21f54 .cfa: $rsp 64 +
STACK CFI INIT 22040 bb .cfa: $rsp .ra: .cfa 8 - ^
STACK CFI 22040 .cfa: $rsp 64 +
STACK CFI INIT 2212c bd .cfa: $rsp .ra: .cfa 8 - ^
STACK CFI 2212c .cfa: $rsp 64 +
STACK CFI INIT 22218 bd .cfa: $rsp .ra: .cfa 8 - ^
STACK CFI 22218 .cfa: $rsp 64 +
STACK CFI INIT 22364 ba .cfa: $rsp .ra: .cfa 8 - ^
STACK CFI 22364 .cfa: $rsp 64 +
STACK CFI INIT 2244c ba .cfa: $rsp .ra: .cfa 8 - ^
STACK CFI 2244c .cfa: $rsp 64 +
STACK CFI INIT 22534 bc .cfa: $rsp .ra: .cfa 8 - ^
STACK CFI 22534 .cfa: $rsp 64 +
STACK CFI INIT 22620 bc .cfa: $rsp .ra: .cfa 8 - ^
STACK CFI 22620 .cfa: $rsp 64 +
STACK CFI INIT 2276c b9 .cfa: $rsp .ra: .cfa 8 - ^
STACK CFI 2276c .cfa: $rsp 64 +
STACK CFI INIT 22854 b9 .cfa: $rsp .ra: .cfa 8 - ^
STACK CFI 22854 .cfa: $rsp 64 +
STACK CFI INIT 2293c bb .cfa: $rsp .ra: .cfa 8 - ^
STACK CFI 2293c .cfa: $rsp 64 +
STACK CFI INIT 22a28 bb .cfa: $rsp .ra: .cfa 8 - ^
STACK CFI 22a28 .cfa: $rsp 64 +
STACK CFI INIT 22b74 ba .cfa: $rsp .ra: .cfa 8 - ^
STACK CFI 22b74 .cfa: $rsp 64 +
STACK CFI INIT 22c5c ba .cfa: $rsp .ra: .cfa 8 - ^
STACK CFI 22c5c .cfa: $rsp 64 +
STACK CFI INIT 22d44 bc .cfa: $rsp .ra: .cfa 8 - ^
STACK CFI 22d44 .cfa: $rsp 64 +
STACK CFI INIT 22e30 bc .cfa: $rsp .ra: .cfa 8 - ^
STACK CFI 22e30 .cfa: $rsp 64 +
STACK CFI INIT 22f94 ba .cfa: $rsp .ra: .cfa 8 - ^
STACK CFI 22f94 .cfa: $rsp 64 +
STACK CFI INIT 230c4 ba .cfa: $rsp .ra: .cfa 8 - ^
STACK CFI 230c4 .cfa: $rsp 64 +
STACK CFI INIT 231f4 bc .cfa: $rsp .ra: .cfa 8 - ^
STACK CFI 231f4 .cfa: $rsp 64 +
STACK CFI INIT 23328 bc .cfa: $rsp .ra: .cfa 8 - ^
STACK CFI 23328 .cfa: $rsp 64 +
STACK CFI INIT 23444 ba .cfa: $rsp .ra: .cfa 8 - ^
STACK CFI 23444 .cfa: $rsp 64 +
STACK CFI INIT 2352c ba .cfa: $rsp .ra: .cfa 8 - ^
STACK CFI 2352c .cfa: $rsp 64 +
STACK CFI INIT 23614 bc .cfa: $rsp .ra: .cfa 8 - ^
STACK CFI 23614 .cfa: $rsp 64 +
STACK CFI INIT 23700 bc .cfa: $rsp .ra: .cfa 8 - ^
STACK CFI 23700 .cfa: $rsp 64 +
STACK CFI INIT 2384c ba .cfa: $rsp .ra: .cfa 8 - ^
STACK CFI 2384c .cfa: $rsp 64 +
STACK CFI INIT 23934 ba .cfa: $rsp .ra: .cfa 8 - ^
STACK CFI 23934 .cfa: $rsp 64 +
STACK CFI INIT 23a1c bc .cfa: $rsp .ra: .cfa 8 - ^
STACK CFI 23a1c .cfa: $rsp 64 +
STACK CFI INIT 23b08 bc .cfa: $rsp .ra: .cfa 8 - ^
STACK CFI 23b08 .cfa: $rsp 64 +
STACK CFI INIT 23c64 ba .cfa: $rsp .ra: .cfa 8 - ^
STACK CFI 23c64 .cfa: $rsp 64 +
STACK CFI INIT 23d4c ba .cfa: $rsp .ra: .cfa 8 - ^
STACK CFI 23d4c .cfa: $rsp 64 +
STACK CFI INIT 23e34 bc .cfa: $rsp .ra: .cfa 8 - ^
STACK CFI 23e34 .cfa: $rsp 64 +
STACK CFI INIT 23f20 bc .cfa: $rsp .ra: .cfa 8 - ^
STACK CFI 23f20 .cfa: $rsp 64 +
STACK CFI INIT 2406c ba .cfa: $rsp .ra: .cfa 8 - ^
STACK CFI 2406c .cfa: $rsp 64 +
STACK CFI INIT 24154 ba .cfa: $rsp .ra: .cfa 8 - ^
STACK CFI 24154 .cfa: $rsp 64 +
STACK CFI INIT 2423c bc .cfa: $rsp .ra: .cfa 8 - ^
STACK CFI 2423c .cfa: $rsp 64 +
STACK CFI INIT 24328 bc .cfa: $rsp .ra: .cfa 8 - ^
STACK CFI 24328 .cfa: $rsp 64 +
STACK CFI INIT 24474 bc .cfa: $rsp .ra: .cfa 8 - ^
STACK CFI 24474 .cfa: $rsp 64 +
STACK CFI INIT 24560 bc .cfa: $rsp .ra: .cfa 8 - ^
STACK CFI 24560 .cfa: $rsp 64 +
STACK CFI INIT 2464c be .cfa: $rsp .ra: .cfa 8 - ^
STACK CFI 2464c .cfa: $rsp 64 +
STACK CFI INIT 2473c be .cfa: $rsp .ra: .cfa 8 - ^
STACK CFI 2473c .cfa: $rsp 64 +
STACK CFI INIT 24d60 87 .cfa: $rsp .ra: .cfa 8 - ^
STACK CFI 24d60 .cfa: $rsp 8 +
STACK CFI INIT 24e08 87 .cfa: $rsp .ra: .cfa 8 - ^
STACK CFI 24e08 .cfa: $rsp 8 +
STACK CFI INIT 24eb0 87 .cfa: $rsp .ra: .cfa 8 - ^
STACK CFI 24eb0 .cfa: $rsp 8 +
STACK CFI INIT 24f58 87 .cfa: $rsp .ra: .cfa 8 - ^
STACK CFI 24f58 .cfa: $rsp 8 +
STACK CFI INIT 25000 87 .cfa: $rsp .ra: .cfa 8 - ^
STACK CFI 25000 .cfa: $rsp 8 +
STACK CFI INIT 250a8 87 .cfa: $rsp .ra: .cfa 8 - ^
STACK CFI 250a8 .cfa: $rsp 8 +
STACK CFI INIT 25150 a3 .cfa: $rsp .ra: .cfa 8 - ^
STACK CFI 25150 .cfa: $rsp 8 +
STACK CFI INIT 2521c a3 .cfa: $rsp .ra: .cfa 8 - ^
STACK CFI 2521c .cfa: $rsp 8 +
STACK CFI INIT 252e8 a3 .cfa: $rsp .ra: .cfa 8 - ^
STACK CFI 252e8 .cfa: $rsp 8 +
STACK CFI INIT 253b4 a3 .cfa: $rsp .ra: .cfa 8 - ^
STACK CFI 253b4 .cfa: $rsp 8 +
STACK CFI INIT 25480 a3 .cfa: $rsp .ra: .cfa 8 - ^
STACK CFI 25480 .cfa: $rsp 8 +
STACK CFI INIT 2554c a3 .cfa: $rsp .ra: .cfa 8 - ^
STACK CFI 2554c .cfa: $rsp 8 +
STACK CFI INIT 25618 8d .cfa: $rsp .ra: .cfa 8 - ^
STACK CFI 25618 .cfa: $rsp 8 +
STACK CFI INIT 256c8 8d .cfa: $rsp .ra: .cfa 8 - ^
STACK CFI 256c8 .cfa: $rsp 8 +
STACK CFI INIT 25778 8d .cfa: $rsp .ra: .cfa 8 - ^
STACK CFI 25778 .cfa: $rsp 8 +
STACK CFI INIT 25828 8d .cfa: $rsp .ra: .cfa 8 - ^
STACK CFI 25828 .cfa: $rsp 8 +
STACK CFI INIT 258d8 8d .cfa: $rsp .ra: .cfa 8 - ^
STACK CFI 258d8 .cfa: $rsp 8 +
STACK CFI INIT 25988 8d .cfa: $rsp .ra: .cfa 8 - ^
STACK CFI 25988 .cfa: $rsp 8 +
STACK CFI INIT 25a38 a4 .cfa: $rsp .ra: .cfa 8 - ^
STACK CFI 25a38 .cfa: $rsp 8 +
STACK CFI INIT 25b08 a4 .cfa: $rsp .ra: .cfa 8 - ^
STACK CFI 25b08 .cfa: $rsp 8 +
STACK CFI INIT 25bd8 a4 .cfa: $rsp .ra: .cfa 8 - ^
STACK CFI 25bd8 .cfa: $rsp 8 +
STACK CFI INIT 25ca8 a4 .cfa: $rsp .ra: .cfa 8 - ^
STACK CFI 25ca8 .cfa: $rsp 8 +
STACK CFI INIT 25d78 a4 .cfa: $rsp .ra: .cfa 8 - ^
STACK CFI 25d78 .cfa: $rsp 8 +
STACK CFI INIT 25e48 a4 .cfa: $rsp .ra: .cfa 8 - ^
STACK CFI 25e48 .cfa: $rsp 8 +
STACK CFI INIT 25f18 8b .cfa: $rsp .ra: .cfa 8 - ^
STACK CFI 25f18 .cfa: $rsp 48 +
STACK CFI INIT 25fc8 91 .cfa: $rsp .ra: .cfa 8 - ^
STACK CFI 25fc8 .cfa: $rsp 48 +
STACK CFI INIT 26080 75 .cfa: $rsp .ra: .cfa 8 - ^
STACK CFI 26080 .cfa: $rsp 8 +
STACK CFI INIT 26114 7a .cfa: $rsp .ra: .cfa 8 - ^
STACK CFI 26114 .cfa: $rsp 8 +
STACK CFI INIT 26cf0 9b .cfa: $rsp .ra: .cfa 8 - ^
STACK CFI 26cf0 .cfa: $rsp 48 +
STACK CFI INIT 26db4 20 .cfa: $rsp .ra: .cfa 8 - ^
STACK CFI 26db4 .cfa: $rsp 48 +
STACK CFI INIT 26e20 23 .cfa: $rsp .ra: .cfa 8 - ^
STACK CFI 26e20 .cfa: $rsp 48 +
STACK CFI INIT 26e4c 23 .cfa: $rsp .ra: .cfa 8 - ^
STACK CFI 26e4c .cfa: $rsp 48 +
STACK CFI INIT 26e78 23 .cfa: $rsp .ra: .cfa 8 - ^
STACK CFI 26e78 .cfa: $rsp 48 +
STACK CFI INIT 26ea4 23 .cfa: $rsp .ra: .cfa 8 - ^
STACK CFI 26ea4 .cfa: $rsp 48 +
STACK CFI INIT 26ed0 23 .cfa: $rsp .ra: .cfa 8 - ^
STACK CFI 26ed0 .cfa: $rsp 48 +
STACK CFI INIT 26efc 23 .cfa: $rsp .ra: .cfa 8 - ^
STACK CFI 26efc .cfa: $rsp 48 +
STACK CFI INIT 26f28 23 .cfa: $rsp .ra: .cfa 8 - ^
STACK CFI 26f28 .cfa: $rsp 48 +
STACK CFI INIT 26f54 23 .cfa: $rsp .ra: .cfa 8 - ^
STACK CFI 26f54 .cfa: $rsp 48 +
STACK CFI INIT 26f80 23 .cfa: $rsp .ra: .cfa 8 - ^
STACK CFI 26f80 .cfa: $rsp 48 +
STACK CFI INIT 26fac 23 .cfa: $rsp .ra: .cfa 8 - ^
STACK CFI 26fac .cfa: $rsp 48 +
STACK CFI INIT 26fd8 23 .cfa: $rsp .ra: .cfa 8 - ^
STACK CFI 26fd8 .cfa: $rsp 48 +
STACK CFI INIT 27004 23 .cfa: $rsp .ra: .cfa 8 - ^
STACK CFI 27004 .cfa: $rsp 48 +
STACK CFI INIT 27030 23 .cfa: $rsp .ra: .cfa 8 - ^
STACK CFI 27030 .cfa: $rsp 48 +
STACK CFI INIT 2705c 23 .cfa: $rsp .ra: .cfa 8 - ^
STACK CFI 2705c .cfa: $rsp 48 +
STACK CFI INIT 27088 23 .cfa: $rsp .ra: .cfa 8 - ^
STACK CFI 27088 .cfa: $rsp 48 +
STACK CFI INIT 270b4 23 .cfa: $rsp .ra: .cfa 8 - ^
STACK CFI 270b4 .cfa: $rsp 48 +
STACK CFI INIT 270e0 23 .cfa: $rsp .ra: .cfa 8 - ^
STACK CFI 270e0 .cfa: $rsp 48 +
STACK CFI INIT 2710c 23 .cfa: $rsp .ra: .cfa 8 - ^
STACK CFI 2710c .cfa: $rsp 48 +
STACK CFI INIT 27138 23 .cfa: $rsp .ra: .cfa 8 - ^
STACK CFI 27138 .cfa: $rsp 48 +
STACK CFI INIT 27164 23 .cfa: $rsp .ra: .cfa 8 - ^
STACK CFI 27164 .cfa: $rsp 48 +
STACK CFI INIT 27190 23 .cfa: $rsp .ra: .cfa 8 - ^
STACK CFI 27190 .cfa: $rsp 48 +
STACK CFI INIT 271bc 23 .cfa: $rsp .ra: .cfa 8 - ^
STACK CFI 271bc .cfa: $rsp 48 +
STACK CFI INIT 271e8 23 .cfa: $rsp .ra: .cfa 8 - ^
STACK CFI 271e8 .cfa: $rsp 48 +
STACK CFI INIT 27214 23 .cfa: $rsp .ra: .cfa 8 - ^
STACK CFI 27214 .cfa: $rsp 48 +
STACK CFI INIT 27240 23 .cfa: $rsp .ra: .cfa 8 - ^
STACK CFI 27240 .cfa: $rsp 48 +
STACK CFI INIT 2726c 23 .cfa: $rsp .ra: .cfa 8 - ^
STACK CFI 2726c .cfa: $rsp 48 +
STACK CFI INIT 27298 23 .cfa: $rsp .ra: .cfa 8 - ^
STACK CFI 27298 .cfa: $rsp 48 +
STACK CFI INIT 272c4 23 .cfa: $rsp .ra: .cfa 8 - ^
STACK CFI 272c4 .cfa: $rsp 48 +
STACK CFI INIT 272f0 23 .cfa: $rsp .ra: .cfa 8 - ^
STACK CFI 272f0 .cfa: $rsp 48 +
STACK CFI INIT 2731c 23 .cfa: $rsp .ra: .cfa 8 - ^
STACK CFI 2731c .cfa: $rsp 48 +
STACK CFI INIT 27388 23 .cfa: $rsp .ra: .cfa 8 - ^
STACK CFI 27388 .cfa: $rsp 48 +
STACK CFI INIT 273b4 34 .cfa: $rsp .ra: .cfa 8 - ^
STACK CFI 273b4 .cfa: $rsp 48 +
STACK CFI INIT 27414 12d .cfa: $rsp .ra: .cfa 8 - ^
STACK CFI 27414 .cfa: $rsp 1264 +
STACK CFI INIT 275b0 14e .cfa: $rsp .ra: .cfa 8 - ^
STACK CFI 275b0 .cfa: $rsp 3680 +
STACK CFI INIT 27778 14a .cfa: $rsp .ra: .cfa 8 - ^
STACK CFI 27778 .cfa: $rsp 3680 +
STACK CFI INIT 27914 131 .cfa: $rsp .ra: .cfa 8 - ^
STACK CFI 27914 .cfa: $rsp 1264 +
STACK CFI INIT 27aac 131 .cfa: $rsp .ra: .cfa 8 - ^
STACK CFI 27aac .cfa: $rsp 1264 +
STACK CFI INIT 27c2c 12d .cfa: $rsp .ra: .cfa 8 - ^
STACK CFI 27c2c .cfa: $rsp 1264 +
STACK CFI INIT 2846c 1f .cfa: $rsp .ra: .cfa 8 - ^
STACK CFI 2846c .cfa: $rsp 48 +
STACK CFI INIT 285fc 230 .cfa: $rsp .ra: .cfa 8 - ^
STACK CFI 285fc .cfa: $rsp 8 +
STACK CFI INIT 288b8 230 .cfa: $rsp .ra: .cfa 8 - ^
STACK CFI 288b8 .cfa: $rsp 8 +
STACK CFI INIT 28b74 200 .cfa: $rsp .ra: .cfa 8 - ^
STACK CFI 28b74 .cfa: $rsp 48 +
STACK CFI INIT 28df4 200 .cfa: $rsp .ra: .cfa 8 - ^
STACK CFI 28df4 .cfa: $rsp 48 +
STACK CFI INIT 29114 a1 .cfa: $rsp .ra: .cfa 8 - ^
STACK CFI 29114 .cfa: $rsp 64 +
STACK CFI INIT 291e0 a1 .cfa: $rsp .ra: .cfa 8 - ^
STACK CFI 291e0 .cfa: $rsp 64 +
STACK CFI INIT 292ac a1 .cfa: $rsp .ra: .cfa 8 - ^
STACK CFI 292ac .cfa: $rsp 64 +
STACK CFI INIT 29378 a1 .cfa: $rsp .ra: .cfa 8 - ^
STACK CFI 29378 .cfa: $rsp 64 +
STACK CFI INIT 29444 a1 .cfa: $rsp .ra: .cfa 8 - ^
STACK CFI 29444 .cfa: $rsp 64 +
STACK CFI INIT 29510 a1 .cfa: $rsp .ra: .cfa 8 - ^
STACK CFI 29510 .cfa: $rsp 64 +
STACK CFI INIT 295dc a3 .cfa: $rsp .ra: .cfa 8 - ^
STACK CFI 295dc .cfa: $rsp 48 +
STACK CFI INIT 296a8 a3 .cfa: $rsp .ra: .cfa 8 - ^
STACK CFI 296a8 .cfa: $rsp 48 +
STACK CFI INIT 29774 a3 .cfa: $rsp .ra: .cfa 8 - ^
STACK CFI 29774 .cfa: $rsp 48 +
STACK CFI INIT 29840 a3 .cfa: $rsp .ra: .cfa 8 - ^
STACK CFI 29840 .cfa: $rsp 48 +
STACK CFI INIT 2990c a3 .cfa: $rsp .ra: .cfa 8 - ^
STACK CFI 2990c .cfa: $rsp 48 +
STACK CFI INIT 299d8 a3 .cfa: $rsp .ra: .cfa 8 - ^
STACK CFI 299d8 .cfa: $rsp 48 +
STACK CFI INIT 29aa4 227 .cfa: $rsp .ra: .cfa 8 - ^
STACK CFI 29aa4 .cfa: $rsp 48 +
STACK CFI INIT 29d54 2a6 .cfa: $rsp .ra: .cfa 8 - ^
STACK CFI 29d54 .cfa: $rsp 64 +
STACK CFI INIT 2a0a4 216 .cfa: $rsp .ra: .cfa 8 - ^
STACK CFI 2a0a4 .cfa: $rsp 48 +
STACK CFI INIT 2a340 218 .cfa: $rsp .ra: .cfa 8 - ^
STACK CFI 2a340 .cfa: $rsp 48 +
STACK CFI INIT 2a5e0 295 .cfa: $rsp .ra: .cfa 8 - ^
STACK CFI 2a5e0 .cfa: $rsp 64 +
STACK CFI INIT 2a91c 20a .cfa: $rsp .ra: .cfa 8 - ^
STACK CFI 2a91c .cfa: $rsp 48 +
STACK CFI INIT 2aba8 277 .cfa: $rsp .ra: .cfa 8 - ^
STACK CFI 2aba8 .cfa: $rsp 64 +
STACK CFI INIT 2aebc 2b2 .cfa: $rsp .ra: .cfa 8 - ^
STACK CFI 2aebc .cfa: $rsp 80 +
STACK CFI INIT 2b21c 26a .cfa: $rsp .ra: .cfa 8 - ^
STACK CFI 2b21c .cfa: $rsp 64 +
STACK CFI INIT 2b520 288 .cfa: $rsp .ra: .cfa 8 - ^
STACK CFI 2b520 .cfa: $rsp 64 +
STACK CFI INIT 2b84c 2b2 .cfa: $rsp .ra: .cfa 8 - ^
STACK CFI 2b84c .cfa: $rsp 80 +
STACK CFI INIT 2bbac 27b .cfa: $rsp .ra: .cfa 8 - ^
STACK CFI 2bbac .cfa: $rsp 64 +
STACK CFI INIT 2c504 70 .cfa: $rsp .ra: .cfa 8 - ^
STACK CFI 2c504 .cfa: $rsp 48 +
STACK CFI INIT 2c590 94 .cfa: $rsp .ra: .cfa 8 - ^
STACK CFI 2c590 .cfa: $rsp 48 +
STACK CFI INIT 2c64c 70 .cfa: $rsp .ra: .cfa 8 - ^
STACK CFI 2c64c .cfa: $rsp 48 +
STACK CFI INIT 2c6d8 74 .cfa: $rsp .ra: .cfa 8 - ^
STACK CFI 2c6d8 .cfa: $rsp 48 +
STACK CFI INIT 2c76c 98 .cfa: $rsp .ra: .cfa 8 - ^
STACK CFI 2c76c .cfa: $rsp 48 +
STACK CFI INIT 2c82c 74 .cfa: $rsp .ra: .cfa 8 - ^
STACK CFI 2c82c .cfa: $rsp 48 +
STACK CFI INIT 2c8c0 58 .cfa: $rsp .ra: .cfa 8 - ^
STACK CFI 2c8c0 .cfa: $rsp 48 +
STACK CFI INIT 2c930 7c .cfa: $rsp .ra: .cfa 8 - ^
STACK CFI 2c930 .cfa: $rsp 48 +
STACK CFI INIT 2c9cc 58 .cfa: $rsp .ra: .cfa 8 - ^
STACK CFI 2c9cc .cfa: $rsp 48 +
STACK CFI INIT 2cbac 5c .cfa: $rsp .ra: .cfa 8 - ^
STACK CFI 2cbac .cfa: $rsp 48 +
STACK CFI INIT 2cc20 5c .cfa: $rsp .ra: .cfa 8 - ^
STACK CFI 2cc20 .cfa: $rsp 48 +
STACK CFI INIT 2cc94 5c .cfa: $rsp .ra: .cfa 8 - ^
STACK CFI 2cc94 .cfa: $rsp 48 +
STACK CFI INIT 2cd08 60 .cfa: $rsp .ra: .cfa 8 - ^
STACK CFI 2cd08 .cfa: $rsp 48 +
STACK CFI INIT 2cd80 60 .cfa: $rsp .ra: .cfa 8 - ^
STACK CFI 2cd80 .cfa: $rsp 48 +
STACK CFI INIT 2cdf8 60 .cfa: $rsp .ra: .cfa 8 - ^
STACK CFI 2cdf8 .cfa: $rsp 48 +
STACK CFI INIT 2ce70 58 .cfa: $rsp .ra: .cfa 8 - ^
STACK CFI 2ce70 .cfa: $rsp 48 +
STACK CFI INIT 2cee0 58 .cfa: $rsp .ra: .cfa 8 - ^
STACK CFI 2cee0 .cfa: $rsp 48 +
STACK CFI INIT 2cf50 58 .cfa: $rsp .ra: .cfa 8 - ^
STACK CFI 2cf50 .cfa: $rsp 48 +
STACK CFI INIT 2d104 a2 .cfa: $rsp .ra: .cfa 8 - ^
STACK CFI 2d104 .cfa: $rsp 48 +
STACK CFI INIT 2d1d0 a2 .cfa: $rsp .ra: .cfa 8 - ^
STACK CFI 2d1d0 .cfa: $rsp 48 +
STACK CFI INIT 2d29c a2 .cfa: $rsp .ra: .cfa 8 - ^
STACK CFI 2d29c .cfa: $rsp 48 +
STACK CFI INIT 2d368 a8 .cfa: $rsp .ra: .cfa 8 - ^
STACK CFI 2d368 .cfa: $rsp 48 +
STACK CFI INIT 2d43c a8 .cfa: $rsp .ra: .cfa 8 - ^
STACK CFI 2d43c .cfa: $rsp 48 +
STACK CFI INIT 2d510 a8 .cfa: $rsp .ra: .cfa 8 - ^
STACK CFI 2d510 .cfa: $rsp 48 +
STACK CFI INIT 2d794 4a .cfa: $rsp .ra: .cfa 8 - ^
STACK CFI 2d794 .cfa: $rsp 48 +
STACK CFI INIT 2d850 4a .cfa: $rsp .ra: .cfa 8 - ^
STACK CFI 2d850 .cfa: $rsp 48 +
STACK CFI INIT 2d910 4b .cfa: $rsp .ra: .cfa 8 - ^
STACK CFI 2d910 .cfa: $rsp 48 +
STACK CFI INIT 2d9d8 4b .cfa: $rsp .ra: .cfa 8 - ^
STACK CFI 2d9d8 .cfa: $rsp 48 +
STACK CFI INIT 2da6c 171 .cfa: $rsp .ra: .cfa 8 - ^
STACK CFI 2da6c .cfa: $rsp 48 +
STACK CFI INIT 2dc3c 171 .cfa: $rsp .ra: .cfa 8 - ^
STACK CFI 2dc3c .cfa: $rsp 48 +
STACK CFI INIT 2de0c 171 .cfa: $rsp .ra: .cfa 8 - ^
STACK CFI 2de0c .cfa: $rsp 48 +
STACK CFI INIT 2dfdc 171 .cfa: $rsp .ra: .cfa 8 - ^
STACK CFI 2dfdc .cfa: $rsp 48 +
STACK CFI INIT 2e1ac 171 .cfa: $rsp .ra: .cfa 8 - ^
STACK CFI 2e1ac .cfa: $rsp 48 +
STACK CFI INIT 2e37c 171 .cfa: $rsp .ra: .cfa 8 - ^
STACK CFI 2e37c .cfa: $rsp 48 +
STACK CFI INIT 2e54c 196 .cfa: $rsp .ra: .cfa 8 - ^
STACK CFI 2e54c .cfa: $rsp 48 +
STACK CFI INIT 2e748 196 .cfa: $rsp .ra: .cfa 8 - ^
STACK CFI 2e748 .cfa: $rsp 48 +
STACK CFI INIT 2e944 196 .cfa: $rsp .ra: .cfa 8 - ^
STACK CFI 2e944 .cfa: $rsp 48 +
STACK CFI INIT 2eb40 196 .cfa: $rsp .ra: .cfa 8 - ^
STACK CFI 2eb40 .cfa: $rsp 48 +
STACK CFI INIT 2ed3c 196 .cfa: $rsp .ra: .cfa 8 - ^
STACK CFI 2ed3c .cfa: $rsp 48 +
STACK CFI INIT 2ef38 196 .cfa: $rsp .ra: .cfa 8 - ^
STACK CFI 2ef38 .cfa: $rsp 48 +
STACK CFI INIT 2f134 284 .cfa: $rsp .ra: .cfa 8 - ^
STACK CFI 2f134 .cfa: $rsp 80 +
STACK CFI INIT 2f45c 29a .cfa: $rsp .ra: .cfa 8 - ^
STACK CFI 2f45c .cfa: $rsp 80 +
STACK CFI INIT 2f79c 284 .cfa: $rsp .ra: .cfa 8 - ^
STACK CFI 2f79c .cfa: $rsp 80 +
STACK CFI INIT 2fac4 266 .cfa: $rsp .ra: .cfa 8 - ^
STACK CFI 2fac4 .cfa: $rsp 80 +
STACK CFI INIT 2fdc4 27c .cfa: $rsp .ra: .cfa 8 - ^
STACK CFI 2fdc4 .cfa: $rsp 80 +
STACK CFI INIT 300e0 266 .cfa: $rsp .ra: .cfa 8 - ^
STACK CFI 300e0 .cfa: $rsp 80 +
STACK CFI INIT 303e0 2dd .cfa: $rsp .ra: .cfa 8 - ^
STACK CFI 303e0 .cfa: $rsp 112 +
STACK CFI INIT 30774 2f3 .cfa: $rsp .ra: .cfa 8 - ^
STACK CFI 30774 .cfa: $rsp 112 +
STACK CFI INIT 30b24 2dd .cfa: $rsp .ra: .cfa 8 - ^
STACK CFI 30b24 .cfa: $rsp 112 +
STACK CFI INIT 30eb8 2ca .cfa: $rsp .ra: .cfa 8 - ^
STACK CFI 30eb8 .cfa: $rsp 112 +
STACK CFI INIT 31234 2e0 .cfa: $rsp .ra: .cfa 8 - ^
STACK CFI 31234 .cfa: $rsp 112 +
STACK CFI INIT 315cc 2ca .cfa: $rsp .ra: .cfa 8 - ^
STACK CFI 315cc .cfa: $rsp 112 +
STACK CFI INIT 31988 50 .cfa: $rsp .ra: .cfa 8 - ^
STACK CFI 31988 .cfa: $rsp 48 +
STACK CFI INIT 31a6c 50 .cfa: $rsp .ra: .cfa 8 - ^
STACK CFI 31a6c .cfa: $rsp 48 +
STACK CFI INIT 31b50 51 .cfa: $rsp .ra: .cfa 8 - ^
STACK CFI 31b50 .cfa: $rsp 48 +
STACK CFI INIT 31c38 51 .cfa: $rsp .ra: .cfa 8 - ^
STACK CFI 31c38 .cfa: $rsp 48 +
STACK CFI INIT 31f48 158 .cfa: $rsp .ra: .cfa 8 - ^
STACK CFI 31f48 .cfa: $rsp 64 +
STACK CFI INIT 32218 158 .cfa: $rsp .ra: .cfa 8 - ^
STACK CFI 32218 .cfa: $rsp 64 +
STACK CFI INIT 32458 79 .cfa: $rsp .ra: .cfa 8 - ^
STACK CFI 32458 .cfa: $rsp 48 +
STACK CFI INIT 324f0 13e .cfa: $rsp .ra: .cfa 8 - ^
STACK CFI 324f0 .cfa: $rsp 64 +
STACK CFI INIT 32680 79 .cfa: $rsp .ra: .cfa 8 - ^
STACK CFI 32680 .cfa: $rsp 48 +
STACK CFI INIT 32718 79 .cfa: $rsp .ra: .cfa 8 - ^
STACK CFI 32718 .cfa: $rsp 48 +
STACK CFI INIT 327b0 13e .cfa: $rsp .ra: .cfa 8 - ^
STACK CFI 327b0 .cfa: $rsp 64 +
STACK CFI INIT 32940 79 .cfa: $rsp .ra: .cfa 8 - ^
STACK CFI 32940 .cfa: $rsp 48 +
STACK CFI INIT 329d8 215 .cfa: $rsp .ra: .cfa 8 - ^
STACK CFI 329d8 .cfa: $rsp 96 +
STACK CFI INIT 32c74 252 .cfa: $rsp .ra: .cfa 8 - ^
STACK CFI 32c74 .cfa: $rsp 96 +
STACK CFI INIT 32f5c 215 .cfa: $rsp .ra: .cfa 8 - ^
STACK CFI 32f5c .cfa: $rsp 96 +
STACK CFI INIT 331f8 215 .cfa: $rsp .ra: .cfa 8 - ^
STACK CFI 331f8 .cfa: $rsp 96 +
STACK CFI INIT 33494 252 .cfa: $rsp .ra: .cfa 8 - ^
STACK CFI 33494 .cfa: $rsp 96 +
STACK CFI INIT 3377c 215 .cfa: $rsp .ra: .cfa 8 - ^
STACK CFI 3377c .cfa: $rsp 96 +
STACK CFI INIT 33a18 239 .cfa: $rsp .ra: .cfa 8 - ^
STACK CFI 33a18 .cfa: $rsp 96 +
STACK CFI INIT 33ce0 276 .cfa: $rsp .ra: .cfa 8 - ^
STACK CFI 33ce0 .cfa: $rsp 96 +
STACK CFI INIT 33ff4 239 .cfa: $rsp .ra: .cfa 8 - ^
STACK CFI 33ff4 .cfa: $rsp 96 +
STACK CFI INIT 342bc 239 .cfa: $rsp .ra: .cfa 8 - ^
STACK CFI 342bc .cfa: $rsp 96 +
STACK CFI INIT 34584 276 .cfa: $rsp .ra: .cfa 8 - ^
STACK CFI 34584 .cfa: $rsp 96 +
STACK CFI INIT 34898 239 .cfa: $rsp .ra: .cfa 8 - ^
STACK CFI 34898 .cfa: $rsp 96 +
STACK CFI INIT 34bc0 bc .cfa: $rsp .ra: .cfa 8 - ^
STACK CFI 34bc0 .cfa: $rsp 48 +
STACK CFI INIT 34cac ff .cfa: $rsp .ra: .cfa 8 - ^
STACK CFI 34cac .cfa: $rsp 48 +
STACK CFI INIT 34dec bc .cfa: $rsp .ra: .cfa 8 - ^
STACK CFI 34dec .cfa: $rsp 48 +
STACK CFI INIT 34ed8 bc .cfa: $rsp .ra: .cfa 8 - ^
STACK CFI 34ed8 .cfa: $rsp 48 +
STACK CFI INIT 34fc4 ff .cfa: $rsp .ra: .cfa 8 - ^
STACK CFI 34fc4 .cfa: $rsp 48 +
STACK CFI INIT 35104 bc .cfa: $rsp .ra: .cfa 8 - ^
STACK CFI 35104 .cfa: $rsp 48 +
STACK CFI INIT 351f0 a6 .cfa: $rsp .ra: .cfa 8 - ^
STACK CFI 351f0 .cfa: $rsp 48 +
STACK CFI INIT 352c0 cc .cfa: $rsp .ra: .cfa 8 - ^
STACK CFI 352c0 .cfa: $rsp 48 +
STACK CFI INIT 353c0 a6 .cfa: $rsp .ra: .cfa 8 - ^
STACK CFI 353c0 .cfa: $rsp 48 +
STACK CFI INIT 35490 a6 .cfa: $rsp .ra: .cfa 8 - ^
STACK CFI 35490 .cfa: $rsp 48 +
STACK CFI INIT 35560 cc .cfa: $rsp .ra: .cfa 8 - ^
STACK CFI 35560 .cfa: $rsp 48 +
STACK CFI INIT 35660 a6 .cfa: $rsp .ra: .cfa 8 - ^
STACK CFI 35660 .cfa: $rsp 48 +
STACK CFI INIT 35820 1c5 .cfa: $rsp .ra: .cfa 8 - ^
STACK CFI 35820 .cfa: $rsp 64 +
STACK CFI INIT 35a58 202 .cfa: $rsp .ra: .cfa 8 - ^
STACK CFI 35a58 .cfa: $rsp 80 +
STACK CFI INIT 35cdc 1c5 .cfa: $rsp .ra: .cfa 8 - ^
STACK CFI 35cdc .cfa: $rsp 64 +
STACK CFI INIT 35f14 1c5 .cfa: $rsp .ra: .cfa 8 - ^
STACK CFI 35f14 .cfa: $rsp 64 +
STACK CFI INIT 3614c 202 .cfa: $rsp .ra: .cfa 8 - ^
STACK CFI 3614c .cfa: $rsp 80 +
STACK CFI INIT 363d0 1c5 .cfa: $rsp .ra: .cfa 8 - ^
STACK CFI 363d0 .cfa: $rsp 64 +
STACK CFI INIT 36608 1cb .cfa: $rsp .ra: .cfa 8 - ^
STACK CFI 36608 .cfa: $rsp 64 +
STACK CFI INIT 36848 208 .cfa: $rsp .ra: .cfa 8 - ^
STACK CFI 36848 .cfa: $rsp 80 +
STACK CFI INIT 36ad4 1cb .cfa: $rsp .ra: .cfa 8 - ^
STACK CFI 36ad4 .cfa: $rsp 64 +
STACK CFI INIT 36d14 1cb .cfa: $rsp .ra: .cfa 8 - ^
STACK CFI 36d14 .cfa: $rsp 64 +
STACK CFI INIT 36f54 208 .cfa: $rsp .ra: .cfa 8 - ^
STACK CFI 36f54 .cfa: $rsp 80 +
STACK CFI INIT 371e0 1cb .cfa: $rsp .ra: .cfa 8 - ^
STACK CFI 371e0 .cfa: $rsp 64 +
STACK CFI INIT 37420 db .cfa: $rsp .ra: .cfa 8 - ^
STACK CFI 37420 .cfa: $rsp 48 +
STACK CFI INIT 37534 104 .cfa: $rsp .ra: .cfa 8 - ^
STACK CFI 37534 .cfa: $rsp 48 +
STACK CFI INIT 3767c db .cfa: $rsp .ra: .cfa 8 - ^
STACK CFI 3767c .cfa: $rsp 48 +
STACK CFI INIT 37790 db .cfa: $rsp .ra: .cfa 8 - ^
STACK CFI 37790 .cfa: $rsp 48 +
STACK CFI INIT 378a4 104 .cfa: $rsp .ra: .cfa 8 - ^
STACK CFI 378a4 .cfa: $rsp 48 +
STACK CFI INIT 379ec db .cfa: $rsp .ra: .cfa 8 - ^
STACK CFI 379ec .cfa: $rsp 48 +
STACK CFI INIT 37b00 db .cfa: $rsp .ra: .cfa 8 - ^
STACK CFI 37b00 .cfa: $rsp 48 +
STACK CFI INIT 37c14 104 .cfa: $rsp .ra: .cfa 8 - ^
STACK CFI 37c14 .cfa: $rsp 48 +
STACK CFI INIT 37d5c db .cfa: $rsp .ra: .cfa 8 - ^
STACK CFI 37d5c .cfa: $rsp 48 +
STACK CFI INIT 37e70 db .cfa: $rsp .ra: .cfa 8 - ^
STACK CFI 37e70 .cfa: $rsp 48 +
STACK CFI INIT 37f84 104 .cfa: $rsp .ra: .cfa 8 - ^
STACK CFI 37f84 .cfa: $rsp 48 +
STACK CFI INIT 380cc db .cfa: $rsp .ra: .cfa 8 - ^
STACK CFI 380cc .cfa: $rsp 48 +
STACK CFI INIT 38510 96 .cfa: $rsp .ra: .cfa 8 - ^
STACK CFI 38510 .cfa: $rsp 48 +
STACK CFI INIT 385cc b5 .cfa: $rsp .ra: .cfa 8 - ^
STACK CFI 385cc .cfa: $rsp 48 +
STACK CFI INIT 386b0 96 .cfa: $rsp .ra: .cfa 8 - ^
STACK CFI 386b0 .cfa: $rsp 48 +
STACK CFI INIT 3876c 96 .cfa: $rsp .ra: .cfa 8 - ^
STACK CFI 3876c .cfa: $rsp 48 +
STACK CFI INIT 38828 b5 .cfa: $rsp .ra: .cfa 8 - ^
STACK CFI 38828 .cfa: $rsp 48 +
STACK CFI INIT 3890c 96 .cfa: $rsp .ra: .cfa 8 - ^
STACK CFI 3890c .cfa: $rsp 48 +
STACK CFI INIT 389c8 c7 .cfa: $rsp .ra: .cfa 8 - ^
STACK CFI 389c8 .cfa: $rsp 48 +
STACK CFI INIT 38ac0 e9 .cfa: $rsp .ra: .cfa 8 - ^
STACK CFI 38ac0 .cfa: $rsp 48 +
STACK CFI INIT 38be4 c7 .cfa: $rsp .ra: .cfa 8 - ^
STACK CFI 38be4 .cfa: $rsp 48 +
STACK CFI INIT 38cdc c7 .cfa: $rsp .ra: .cfa 8 - ^
STACK CFI 38cdc .cfa: $rsp 48 +
STACK CFI INIT 38dd4 e9 .cfa: $rsp .ra: .cfa 8 - ^
STACK CFI 38dd4 .cfa: $rsp 48 +
STACK CFI INIT 38ef8 c7 .cfa: $rsp .ra: .cfa 8 - ^
STACK CFI 38ef8 .cfa: $rsp 48 +
STACK CFI INIT 39050 53 .cfa: $rsp .ra: .cfa 8 - ^
STACK CFI 39050 .cfa: $rsp 8 +
STACK CFI INIT 390b8 53 .cfa: $rsp .ra: .cfa 8 - ^
STACK CFI 390b8 .cfa: $rsp 8 +
STACK CFI INIT 39120 53 .cfa: $rsp .ra: .cfa 8 - ^
STACK CFI 39120 .cfa: $rsp 8 +
STACK CFI INIT 39188 53 .cfa: $rsp .ra: .cfa 8 - ^
STACK CFI 39188 .cfa: $rsp 8 +
STACK CFI INIT 391f0 53 .cfa: $rsp .ra: .cfa 8 - ^
STACK CFI 391f0 .cfa: $rsp 8 +
STACK CFI INIT 39258 53 .cfa: $rsp .ra: .cfa 8 - ^
STACK CFI 39258 .cfa: $rsp 8 +
STACK CFI INIT 394a0 115 .cfa: $rsp .ra: .cfa 8 - ^
STACK CFI 394a0 .cfa: $rsp 64 +
STACK CFI INIT 395fc 115 .cfa: $rsp .ra: .cfa 8 - ^
STACK CFI 395fc .cfa: $rsp 64 +
STACK CFI INIT 39758 118 .cfa: $rsp .ra: .cfa 8 - ^
STACK CFI 39758 .cfa: $rsp 64 +
STACK CFI INIT 398b8 118 .cfa: $rsp .ra: .cfa 8 - ^
STACK CFI 398b8 .cfa: $rsp 64 +
STACK CFI INIT 39a78 115 .cfa: $rsp .ra: .cfa 8 - ^
STACK CFI 39a78 .cfa: $rsp 64 +
STACK CFI INIT 39bd4 115 .cfa: $rsp .ra: .cfa 8 - ^
STACK CFI 39bd4 .cfa: $rsp 64 +
STACK CFI INIT 39d30 118 .cfa: $rsp .ra: .cfa 8 - ^
STACK CFI 39d30 .cfa: $rsp 64 +
STACK CFI INIT 39e90 118 .cfa: $rsp .ra: .cfa 8 - ^
STACK CFI 39e90 .cfa: $rsp 64 +
STACK CFI INIT 3a05c 2c .cfa: $rsp .ra: .cfa 8 - ^
STACK CFI 3a05c .cfa: $rsp 48 +
STACK CFI INIT 3a094 25 .cfa: $rsp .ra: .cfa 8 - ^
STACK CFI 3a094 .cfa: $rsp 48 +
STACK CFI INIT 3a0c4 25 .cfa: $rsp .ra: .cfa 8 - ^
STACK CFI 3a0c4 .cfa: $rsp 48 +
STACK CFI INIT 3a0f4 25 .cfa: $rsp .ra: .cfa 8 - ^
STACK CFI 3a0f4 .cfa: $rsp 48 +
STACK CFI INIT 3a124 3f .cfa: $rsp .ra: .cfa 8 - ^
STACK CFI 3a124 .cfa: $rsp 64 +
STACK CFI INIT 3a174 3f .cfa: $rsp .ra: .cfa 8 - ^
STACK CFI 3a174 .cfa: $rsp 64 +
STACK CFI INIT 3a1c4 40 .cfa: $rsp .ra: .cfa 8 - ^
STACK CFI 3a1c4 .cfa: $rsp 64 +
STACK CFI INIT 3a214 40 .cfa: $rsp .ra: .cfa 8 - ^
STACK CFI 3a214 .cfa: $rsp 64 +
STACK CFI INIT 3a264 10b .cfa: $rsp .ra: .cfa 8 - ^
STACK CFI 3a264 .cfa: $rsp 48 +
STACK CFI INIT 3a3b4 10b .cfa: $rsp .ra: .cfa 8 - ^
STACK CFI 3a3b4 .cfa: $rsp 48 +
STACK CFI INIT 3a504 114 .cfa: $rsp .ra: .cfa 8 - ^
STACK CFI 3a504 .cfa: $rsp 48 +
STACK CFI INIT 3a660 114 .cfa: $rsp .ra: .cfa 8 - ^
STACK CFI 3a660 .cfa: $rsp 48 +
STACK CFI INIT 3a7cc 2b .cfa: $rsp .ra: .cfa 8 - ^
STACK CFI 3a7cc .cfa: $rsp 48 +
STACK CFI INIT 3a804 2b .cfa: $rsp .ra: .cfa 8 - ^
STACK CFI 3a804 .cfa: $rsp 48 +
STACK CFI INIT 3a83c 2b .cfa: $rsp .ra: .cfa 8 - ^
STACK CFI 3a83c .cfa: $rsp 48 +
STACK CFI INIT 3a874 2b .cfa: $rsp .ra: .cfa 8 - ^
STACK CFI 3a874 .cfa: $rsp 48 +
STACK CFI INIT 3a8ac 9b .cfa: $rsp .ra: .cfa 8 - ^
STACK CFI 3a8ac .cfa: $rsp 48 +
STACK CFI INIT 3a970 9b .cfa: $rsp .ra: .cfa 8 - ^
STACK CFI 3a970 .cfa: $rsp 48 +
STACK CFI INIT 3aa34 9b .cfa: $rsp .ra: .cfa 8 - ^
STACK CFI 3aa34 .cfa: $rsp 48 +
STACK CFI INIT 3aaf8 9b .cfa: $rsp .ra: .cfa 8 - ^
STACK CFI 3aaf8 .cfa: $rsp 48 +
STACK CFI INIT 3abcc 9b .cfa: $rsp .ra: .cfa 8 - ^
STACK CFI 3abcc .cfa: $rsp 64 +
STACK CFI INIT 3ac90 9b .cfa: $rsp .ra: .cfa 8 - ^
STACK CFI 3ac90 .cfa: $rsp 64 +
STACK CFI INIT 3ad54 9d .cfa: $rsp .ra: .cfa 8 - ^
STACK CFI 3ad54 .cfa: $rsp 64 +
STACK CFI INIT 3ae18 9d .cfa: $rsp .ra: .cfa 8 - ^
STACK CFI 3ae18 .cfa: $rsp 64 +
STACK CFI INIT 3aeec 9a .cfa: $rsp .ra: .cfa 8 - ^
STACK CFI 3aeec .cfa: $rsp 48 +
STACK CFI INIT 3b040 48 .cfa: $rsp .ra: .cfa 8 - ^
STACK CFI 3b040 .cfa: $rsp 48 +
STACK CFI INIT 3b09c 4b .cfa: $rsp .ra: .cfa 8 - ^
STACK CFI 3b09c .cfa: $rsp 48 +
STACK CFI INIT 3b1b0 40 .cfa: $rsp .ra: .cfa 8 - ^
STACK CFI 3b1b0 .cfa: $rsp 48 +
STACK CFI INIT 3b200 43 .cfa: $rsp .ra: .cfa 8 - ^
STACK CFI 3b200 .cfa: $rsp 48 +
STACK CFI INIT 3b254 121 .cfa: $rsp .ra: .cfa 8 - ^
STACK CFI 3b254 .cfa: $rsp 96 +
STACK CFI INIT 3b3c0 121 .cfa: $rsp .ra: .cfa 8 - ^
STACK CFI 3b3c0 .cfa: $rsp 96 +
STACK CFI INIT 3b52c 121 .cfa: $rsp .ra: .cfa 8 - ^
STACK CFI 3b52c .cfa: $rsp 96 +
STACK CFI INIT 3b698 d5 .cfa: $rsp .ra: .cfa 8 - ^
STACK CFI 3b698 .cfa: $rsp 96 +
STACK CFI INIT 3b7a4 d5 .cfa: $rsp .ra: .cfa 8 - ^
STACK CFI 3b7a4 .cfa: $rsp 96 +
STACK CFI INIT 3b8b0 d5 .cfa: $rsp .ra: .cfa 8 - ^
STACK CFI 3b8b0 .cfa: $rsp 96 +
STACK CFI INIT 3b9bc 106 .cfa: $rsp .ra: .cfa 8 - ^
STACK CFI 3b9bc .cfa: $rsp 80 +
STACK CFI INIT 3bb04 106 .cfa: $rsp .ra: .cfa 8 - ^
STACK CFI 3bb04 .cfa: $rsp 80 +
STACK CFI INIT 3bc4c 106 .cfa: $rsp .ra: .cfa 8 - ^
STACK CFI 3bc4c .cfa: $rsp 80 +
STACK CFI INIT 3bd94 eb .cfa: $rsp .ra: .cfa 8 - ^
STACK CFI 3bd94 .cfa: $rsp 64 +
STACK CFI INIT 3bebc eb .cfa: $rsp .ra: .cfa 8 - ^
STACK CFI 3bebc .cfa: $rsp 64 +
STACK CFI INIT 3bfe4 eb .cfa: $rsp .ra: .cfa 8 - ^
STACK CFI 3bfe4 .cfa: $rsp 64 +
STACK CFI INIT 3c16c a3 .cfa: $rsp .ra: .cfa 8 - ^
STACK CFI 3c16c .cfa: $rsp 48 +
STACK CFI INIT 3c238 a5 .cfa: $rsp .ra: .cfa 8 - ^
STACK CFI 3c238 .cfa: $rsp 64 +
STACK CFI INIT 3c308 f5 .cfa: $rsp .ra: .cfa 8 - ^
STACK CFI 3c308 .cfa: $rsp 64 +
STACK CFI INIT 3c43c 103 .cfa: $rsp .ra: .cfa 8 - ^
STACK CFI 3c43c .cfa: $rsp 64 +
STACK CFI INIT 3c5dc 8b .cfa: $rsp .ra: .cfa 8 - ^
STACK CFI 3c5dc .cfa: $rsp 112 +
STACK CFI INIT 3c68c 8b .cfa: $rsp .ra: .cfa 8 - ^
STACK CFI 3c68c .cfa: $rsp 112 +
STACK CFI INIT 3c73c 8b .cfa: $rsp .ra: .cfa 8 - ^
STACK CFI 3c73c .cfa: $rsp 112 +
STACK CFI INIT 3c7ec 8b .cfa: $rsp .ra: .cfa 8 - ^
STACK CFI 3c7ec .cfa: $rsp 112 +
STACK CFI INIT 3c89c 8b .cfa: $rsp .ra: .cfa 8 - ^
STACK CFI 3c89c .cfa: $rsp 112 +
STACK CFI INIT 3c94c 8b .cfa: $rsp .ra: .cfa 8 - ^
STACK CFI 3c94c .cfa: $rsp 112 +
STACK CFI INIT 3c9fc 134 .cfa: $rsp .ra: .cfa 8 - ^
STACK CFI 3c9fc .cfa: $rsp 80 +
STACK CFI INIT 3cb80 143 .cfa: $rsp .ra: .cfa 8 - ^
STACK CFI 3cb80 .cfa: $rsp 80 +
STACK CFI INIT 3cd24 63 .cfa: $rsp .ra: .cfa 8 - ^
STACK CFI 3cd24 .cfa: $rsp 64 +
STACK CFI INIT 3cdb0 6e .cfa: $rsp .ra: .cfa 8 - ^
STACK CFI 3cdb0 .cfa: $rsp 64 +
STACK CFI INIT 3cf24 305 .cfa: $rsp .ra: .cfa 8 - ^
STACK CFI 3cf24 .cfa: $rsp 96 +
STACK CFI INIT 3d2ec 6a8 .cfa: $rsp .ra: .cfa 8 - ^
STACK CFI 3d2ec .cfa: $rsp 112 +
STACK CFI INIT 3db40 2f0 .cfa: $rsp .ra: .cfa 8 - ^
STACK CFI 3db40 .cfa: $rsp 96 +
STACK CFI INIT 3deec 758 .cfa: $rsp .ra: .cfa 8 - ^
STACK CFI 3deec .cfa: $rsp 208 +
STACK CFI INIT 3e81c 2e .cfa: $rsp .ra: .cfa 8 - ^
STACK CFI 3e81c .cfa: $rsp 64 +
STACK CFI INIT 3e858 2e .cfa: $rsp .ra: .cfa 8 - ^
STACK CFI 3e858 .cfa: $rsp 64 +
STACK CFI INIT 3e894 2e .cfa: $rsp .ra: .cfa 8 - ^
STACK CFI 3e894 .cfa: $rsp 64 +
STACK CFI INIT 3e8d0 2e .cfa: $rsp .ra: .cfa 8 - ^
STACK CFI 3e8d0 .cfa: $rsp 64 +
STACK CFI INIT 3e988 1e .cfa: $rsp .ra: .cfa 8 - ^
STACK CFI 3e988 .cfa: $rsp 48 +
STACK CFI INIT 3e9b0 18 .cfa: $rsp .ra: .cfa 8 - ^
STACK CFI 3e9b0 .cfa: $rsp 48 +
STACK CFI INIT 3ec98 2a .cfa: $rsp .ra: .cfa 8 - ^
STACK CFI 3ec98 .cfa: $rsp 48 +
STACK CFI INIT 3eccc 2d .cfa: $rsp .ra: .cfa 8 - ^
STACK CFI 3eccc .cfa: $rsp 48 +
STACK CFI INIT 3ed04 25 .cfa: $rsp .ra: .cfa 8 - ^
STACK CFI 3ed04 .cfa: $rsp 48 +
STACK CFI INIT 3ed34 25 .cfa: $rsp .ra: .cfa 8 - ^
STACK CFI 3ed34 .cfa: $rsp 48 +
STACK CFI INIT 3efb4 29 .cfa: $rsp .ra: .cfa 8 - ^
STACK CFI 3efb4 .cfa: $rsp 64 +
STACK CFI INIT 3efe8 2d .cfa: $rsp .ra: .cfa 8 - ^
STACK CFI 3efe8 .cfa: $rsp 64 +
STACK CFI INIT 3f020 2d .cfa: $rsp .ra: .cfa 8 - ^
STACK CFI 3f020 .cfa: $rsp 64 +
STACK CFI INIT 3f058 2d .cfa: $rsp .ra: .cfa 8 - ^
STACK CFI 3f058 .cfa: $rsp 64 +
STACK CFI INIT 3f090 2d .cfa: $rsp .ra: .cfa 8 - ^
STACK CFI 3f090 .cfa: $rsp 64 +
STACK CFI INIT 3f0c8 61 .cfa: $rsp .ra: .cfa 8 - ^
STACK CFI 3f0c8 .cfa: $rsp 48 +
STACK CFI INIT 3f144 76 .cfa: $rsp .ra: .cfa 8 - ^
STACK CFI 3f144 .cfa: $rsp 48 +
STACK CFI INIT 3f1d8 29 .cfa: $rsp .ra: .cfa 8 - ^
STACK CFI 3f1d8 .cfa: $rsp 64 +
STACK CFI INIT 3f20c 29 .cfa: $rsp .ra: .cfa 8 - ^
STACK CFI 3f20c .cfa: $rsp 64 +
STACK CFI INIT 3f240 2d .cfa: $rsp .ra: .cfa 8 - ^
STACK CFI 3f240 .cfa: $rsp 64 +
STACK CFI INIT 3f278 2d .cfa: $rsp .ra: .cfa 8 - ^
STACK CFI 3f278 .cfa: $rsp 64 +
STACK CFI INIT 3f2b0 29 .cfa: $rsp .ra: .cfa 8 - ^
STACK CFI 3f2b0 .cfa: $rsp 64 +
STACK CFI INIT 3f2e4 2d .cfa: $rsp .ra: .cfa 8 - ^
STACK CFI 3f2e4 .cfa: $rsp 64 +
STACK CFI INIT 3f31c 29 .cfa: $rsp .ra: .cfa 8 - ^
STACK CFI 3f31c .cfa: $rsp 64 +
STACK CFI INIT 3f350 2d .cfa: $rsp .ra: .cfa 8 - ^
STACK CFI 3f350 .cfa: $rsp 64 +
STACK CFI INIT 3f388 29 .cfa: $rsp .ra: .cfa 8 - ^
STACK CFI 3f388 .cfa: $rsp 64 +
STACK CFI INIT 3f3bc 29 .cfa: $rsp .ra: .cfa 8 - ^
STACK CFI 3f3bc .cfa: $rsp 64 +
STACK CFI INIT 3f3f0 29 .cfa: $rsp .ra: .cfa 8 - ^
STACK CFI 3f3f0 .cfa: $rsp 64 +
STACK CFI INIT 3f440 7d .cfa: $rsp .ra: .cfa 8 - ^
STACK CFI 3f440 .cfa: $rsp 8 +
STACK CFI INIT 3f504 56 .cfa: $rsp .ra: .cfa 8 - ^
STACK CFI 3f504 .cfa: $rsp 48 +
STACK CFI INIT 3f5bc 3f .cfa: $rsp .ra: .cfa 8 - ^
STACK CFI 3f5bc .cfa: $rsp 48 +
STACK CFI INIT 3f60c 3d .cfa: $rsp .ra: .cfa 8 - ^
STACK CFI 3f60c .cfa: $rsp 48 +
STACK CFI INIT 3f658 45 .cfa: $rsp .ra: .cfa 8 - ^
STACK CFI 3f658 .cfa: $rsp 48 +
STACK CFI INIT 3f6b0 5f .cfa: $rsp .ra: .cfa 8 - ^
STACK CFI 3f6b0 .cfa: $rsp 48 +
STACK CFI INIT 3f728 26 .cfa: $rsp .ra: .cfa 8 - ^
STACK CFI 3f728 .cfa: $rsp 48 +
STACK CFI INIT 3f758 26 .cfa: $rsp .ra: .cfa 8 - ^
STACK CFI 3f758 .cfa: $rsp 48 +
STACK CFI INIT 3f788 26 .cfa: $rsp .ra: .cfa 8 - ^
STACK CFI 3f788 .cfa: $rsp 48 +
STACK CFI INIT 3f7b8 26 .cfa: $rsp .ra: .cfa 8 - ^
STACK CFI 3f7b8 .cfa: $rsp 48 +
STACK CFI INIT 3f878 1a .cfa: $rsp .ra: .cfa 8 - ^
STACK CFI 3f878 .cfa: $rsp 48 +
STACK CFI INIT 3f898 1b .cfa: $rsp .ra: .cfa 8 - ^
STACK CFI 3f898 .cfa: $rsp 48 +
STACK CFI INIT 3f8dc 38 .cfa: $rsp .ra: .cfa 8 - ^
STACK CFI 3f8dc .cfa: $rsp 48 +
STACK CFI INIT 3f9a0 c5 .cfa: $rsp .ra: .cfa 8 - ^
STACK CFI 3f9a0 .cfa: $rsp 80 +
STACK CFI INIT 3fa98 cd .cfa: $rsp .ra: .cfa 8 - ^
STACK CFI 3fa98 .cfa: $rsp 96 +
STACK CFI INIT 3fb9c 20 .cfa: $rsp .ra: .cfa 8 - ^
STACK CFI 3fb9c .cfa: $rsp 48 +
STACK CFI INIT 3fbc4 f5 .cfa: $rsp .ra: .cfa 8 - ^
STACK CFI 3fbc4 .cfa: $rsp 64 +
STACK CFI INIT 3fcf8 f5 .cfa: $rsp .ra: .cfa 8 - ^
STACK CFI 3fcf8 .cfa: $rsp 80 +
STACK CFI INIT 3fe40 9f .cfa: $rsp .ra: .cfa 8 - ^
STACK CFI 3fe40 .cfa: $rsp 48 +
STACK CFI INIT 3ff08 c8 .cfa: $rsp .ra: .cfa 8 - ^
STACK CFI 3ff08 .cfa: $rsp 48 +
STACK CFI INIT 40010 1b .cfa: $rsp .ra: .cfa 8 - ^
STACK CFI 40010 .cfa: $rsp 48 +
STACK CFI INIT 40034 67 .cfa: $rsp .ra: .cfa 8 - ^
STACK CFI 40034 .cfa: $rsp 48 +
STACK CFI INIT 400b4 20 .cfa: $rsp .ra: .cfa 8 - ^
STACK CFI 400b4 .cfa: $rsp 48 +
STACK CFI INIT 400e0 41 .cfa: $rsp .ra: .cfa 8 - ^
STACK CFI 400e0 .cfa: $rsp 48 +
STACK CFI INIT 40134 d4 .cfa: $rsp .ra: .cfa 8 - ^
STACK CFI 40134 .cfa: $rsp 48 +
STACK CFI INIT 40240 a7 .cfa: $rsp .ra: .cfa 8 - ^
STACK CFI 40240 .cfa: $rsp 48 +
STACK CFI INIT 40310 cc .cfa: $rsp .ra: .cfa 8 - ^
STACK CFI 40310 .cfa: $rsp 48 +
STACK CFI INIT 40410 39 .cfa: $rsp .ra: .cfa 8 - ^
STACK CFI 40410 .cfa: $rsp 48 +
STACK CFI INIT 40458 22 .cfa: $rsp .ra: .cfa 8 - ^
STACK CFI 40458 .cfa: $rsp 48 +
STACK CFI INIT 404a0 3d .cfa: $rsp .ra: .cfa 8 - ^
STACK CFI 404a0 .cfa: $rsp 48 +
STACK CFI INIT 404ec 48 .cfa: $rsp .ra: .cfa 8 - ^
STACK CFI 404ec .cfa: $rsp 48 +
STACK CFI INIT 40568 37 .cfa: $rsp .ra: .cfa 8 - ^
STACK CFI 40568 .cfa: $rsp 48 +
STACK CFI INIT 405cc 1b .cfa: $rsp .ra: .cfa 8 - ^
STACK CFI 405cc .cfa: $rsp 48 +
STACK CFI INIT 40604 4c .cfa: $rsp .ra: .cfa 8 - ^
STACK CFI 40604 .cfa: $rsp 48 +
STACK CFI INIT 40664 4c .cfa: $rsp .ra: .cfa 8 - ^
STACK CFI 40664 .cfa: $rsp 48 +
STACK CFI INIT 406c4 69 .cfa: $rsp .ra: .cfa 8 - ^
STACK CFI 406c4 .cfa: $rsp 48 +
STACK CFI INIT 40748 38 .cfa: $rsp .ra: .cfa 8 - ^
STACK CFI 40748 .cfa: $rsp 48 +
STACK CFI INIT 4080c 51 .cfa: $rsp .ra: .cfa 8 - ^
STACK CFI 4080c .cfa: $rsp 48 +
STACK CFI INIT 40874 51 .cfa: $rsp .ra: .cfa 8 - ^
STACK CFI 40874 .cfa: $rsp 48 +
STACK CFI INIT 408dc 3c .cfa: $rsp .ra: .cfa 8 - ^
STACK CFI 408dc .cfa: $rsp 48 +
STACK CFI INIT 40928 6c .cfa: $rsp .ra: .cfa 8 - ^
STACK CFI 40928 .cfa: $rsp 48 +
STACK CFI INIT 40a08 4e .cfa: $rsp .ra: .cfa 8 - ^
STACK CFI 40a08 .cfa: $rsp 48 +
STACK CFI INIT 40a6c 20 .cfa: $rsp .ra: .cfa 8 - ^
STACK CFI 40a6c .cfa: $rsp 48 +
STACK CFI INIT 40a94 20 .cfa: $rsp .ra: .cfa 8 - ^
STACK CFI 40a94 .cfa: $rsp 48 +
STACK CFI INIT 40abc 3b .cfa: $rsp .ra: .cfa 8 - ^
STACK CFI 40abc .cfa: $rsp 48 +
STACK CFI INIT 40b08 3b .cfa: $rsp .ra: .cfa 8 - ^
STACK CFI 40b08 .cfa: $rsp 48 +
STACK CFI INIT 40b54 3a .cfa: $rsp .ra: .cfa 8 - ^
STACK CFI 40b54 .cfa: $rsp 48 +
STACK CFI INIT 40b9c 3a .cfa: $rsp .ra: .cfa 8 - ^
STACK CFI 40b9c .cfa: $rsp 48 +
STACK CFI INIT 40be4 75 .cfa: $rsp .ra: .cfa 8 - ^
STACK CFI 40be4 .cfa: $rsp 48 +
STACK CFI INIT 40ca8 179 .cfa: $rsp .ra: .cfa 8 - ^
STACK CFI 40ca8 .cfa: $rsp 64 +
STACK CFI INIT 40e80 18b .cfa: $rsp .ra: .cfa 8 - ^
STACK CFI 40e80 .cfa: $rsp 80 +
STACK CFI INIT 41070 176 .cfa: $rsp .ra: .cfa 8 - ^
STACK CFI 41070 .cfa: $rsp 64 +
STACK CFI INIT 41244 18a .cfa: $rsp .ra: .cfa 8 - ^
STACK CFI 41244 .cfa: $rsp 80 +
STACK CFI INIT 41430 209 .cfa: $rsp .ra: .cfa 8 - ^
STACK CFI 41430 .cfa: $rsp 160 +
STACK CFI INIT 416bc 3ca .cfa: $rsp .ra: .cfa 8 - ^
STACK CFI 416bc .cfa: $rsp 768 +
STACK CFI INIT 41b78 187 .cfa: $rsp .ra: .cfa 8 - ^
STACK CFI 41b78 .cfa: $rsp 96 +
STACK CFI INIT 41d60 189 .cfa: $rsp .ra: .cfa 8 - ^
STACK CFI 41d60 .cfa: $rsp 96 +
STACK CFI INIT 41f4c 30e .cfa: $rsp .ra: .cfa 8 - ^
STACK CFI 41f4c .cfa: $rsp 880 +
STACK CFI INIT 42320 19b .cfa: $rsp .ra: .cfa 8 - ^
STACK CFI 42320 .cfa: $rsp 704 +
STACK CFI INIT 4267c 22 .cfa: $rsp .ra: .cfa 8 - ^
STACK CFI 4267c .cfa: $rsp 48 +
STACK CFI INIT 426a8 22 .cfa: $rsp .ra: .cfa 8 - ^
STACK CFI 426a8 .cfa: $rsp 48 +
STACK CFI INIT 426d4 22 .cfa: $rsp .ra: .cfa 8 - ^
STACK CFI 426d4 .cfa: $rsp 48 +
STACK CFI INIT 42700 3d .cfa: $rsp .ra: .cfa 8 - ^
STACK CFI 42700 .cfa: $rsp 48 +
STACK CFI INIT 4274c 3d .cfa: $rsp .ra: .cfa 8 - ^
STACK CFI 4274c .cfa: $rsp 48 +
STACK CFI INIT 427b0 25 .cfa: $rsp .ra: .cfa 8 - ^
STACK CFI 427b0 .cfa: $rsp 64 +
STACK CFI INIT 42868 2f .cfa: $rsp .ra: .cfa 8 - ^
STACK CFI 42868 .cfa: $rsp 80 +
STACK CFI INIT 428a4 49 .cfa: $rsp .ra: .cfa 8 - ^
STACK CFI 428a4 .cfa: $rsp 80 +
STACK CFI INIT 42900 22 .cfa: $rsp .ra: .cfa 8 - ^
STACK CFI 42900 .cfa: $rsp 48 +
STACK CFI INIT 4292c 22 .cfa: $rsp .ra: .cfa 8 - ^
STACK CFI 4292c .cfa: $rsp 48 +
STACK CFI INIT 42958 5b .cfa: $rsp .ra: .cfa 8 - ^
STACK CFI 42958 .cfa: $rsp 48 +
STACK CFI INIT 429cc 5c .cfa: $rsp .ra: .cfa 8 - ^
STACK CFI 429cc .cfa: $rsp 48 +
STACK CFI INIT 42a40 24 .cfa: $rsp .ra: .cfa 8 - ^
STACK CFI 42a40 .cfa: $rsp 48 +
STACK CFI INIT 42a70 de .cfa: $rsp .ra: .cfa 8 - ^
STACK CFI 42a70 .cfa: $rsp 48 +
STACK CFI INIT 42b88 de .cfa: $rsp .ra: .cfa 8 - ^
STACK CFI 42b88 .cfa: $rsp 48 +
STACK CFI INIT 42cb8 22 .cfa: $rsp .ra: .cfa 8 - ^
STACK CFI 42cb8 .cfa: $rsp 48 +
STACK CFI INIT 42ce4 14 .cfa: $rsp .ra: .cfa 8 - ^
STACK CFI 42ce4 .cfa: $rsp 48 +
STACK CFI INIT 42d30 c7 .cfa: $rsp .ra: .cfa 8 - ^
STACK CFI 42d30 .cfa: $rsp 48 +
STACK CFI INIT 42e28 c7 .cfa: $rsp .ra: .cfa 8 - ^
STACK CFI 42e28 .cfa: $rsp 48 +
STACK CFI INIT 42f24 9d .cfa: $rsp .ra: .cfa 8 - ^
STACK CFI 42f24 .cfa: $rsp 80 +
STACK CFI INIT 42ff8 9d .cfa: $rsp .ra: .cfa 8 - ^
STACK CFI 42ff8 .cfa: $rsp 80 +
STACK CFI INIT 430cc 31 .cfa: $rsp .ra: .cfa 8 - ^
STACK CFI 430cc .cfa: $rsp 48 +
STACK CFI INIT 4310c 31 .cfa: $rsp .ra: .cfa 8 - ^
STACK CFI 4310c .cfa: $rsp 48 +
STACK CFI INIT 4319c 119 .cfa: $rsp .ra: .cfa 8 - ^
STACK CFI 4319c .cfa: $rsp 80 +
STACK CFI INIT 432fc 111 .cfa: $rsp .ra: .cfa 8 - ^
STACK CFI 432fc .cfa: $rsp 80 +
STACK CFI INIT 43488 2f .cfa: $rsp .ra: .cfa 8 - ^
STACK CFI 43488 .cfa: $rsp 80 +
STACK CFI INIT 434d4 30 .cfa: $rsp .ra: .cfa 8 - ^
STACK CFI 434d4 .cfa: $rsp 48 +
STACK CFI INIT 43510 17 .cfa: $rsp .ra: .cfa 8 - ^
STACK CFI 43510 .cfa: $rsp 48 +
STACK CFI INIT 43570 11e .cfa: $rsp .ra: .cfa 8 - ^
STACK CFI 43570 .cfa: $rsp 672 +
STACK CFI INIT 436e4 1ba .cfa: $rsp .ra: .cfa 8 - ^
STACK CFI 436e4 .cfa: $rsp 48 +
STACK CFI INIT 4390c 26 .cfa: $rsp .ra: .cfa 8 - ^
STACK CFI 4390c .cfa: $rsp 48 +
STACK CFI INIT 43974 1b .cfa: $rsp .ra: .cfa 8 - ^
STACK CFI 43974 .cfa: $rsp 48 +
STACK CFI INIT 439ac 1a0 .cfa: $rsp .ra: .cfa 8 - ^
STACK CFI 439ac .cfa: $rsp 48 +
STACK CFI INIT 43c1c 7d .cfa: $rsp .ra: .cfa 8 - ^
STACK CFI 43c1c .cfa: $rsp 80 +
STACK CFI INIT 43cb8 27 .cfa: $rsp .ra: .cfa 8 - ^
STACK CFI 43cb8 .cfa: $rsp 8 +
STACK CFI INIT 43cf4 1b .cfa: $rsp .ra: .cfa 8 - ^
STACK CFI 43cf4 .cfa: $rsp 48 +
STACK CFI INIT 43d18 90 .cfa: $rsp .ra: .cfa 8 - ^
STACK CFI 43d18 .cfa: $rsp 48 +
STACK CFI INIT 43dcc 1e3 .cfa: $rsp .ra: .cfa 8 - ^
STACK CFI 43dcc .cfa: $rsp 1936 +
STACK CFI INIT 44028 1c2 .cfa: $rsp .ra: .cfa 8 - ^
STACK CFI 44028 .cfa: $rsp 96 +
STACK CFI INIT 4425c b8 .cfa: $rsp .ra: .cfa 8 - ^
STACK CFI 4425c .cfa: $rsp 48 +
STACK CFI INIT 4434c 60 .cfa: $rsp .ra: .cfa 8 - ^
STACK CFI 4434c .cfa: $rsp 48 +
STACK CFI INIT 443c4 1c .cfa: $rsp .ra: .cfa 8 - ^
STACK CFI 443c4 .cfa: $rsp 48 +
STACK CFI INIT 44400 3a .cfa: $rsp .ra: .cfa 8 - ^
STACK CFI 44400 .cfa: $rsp 80 +
STACK CFI INIT 44448 25 .cfa: $rsp .ra: .cfa 8 - ^
STACK CFI 44448 .cfa: $rsp 48 +
STACK CFI INIT 44478 2b9 .cfa: $rsp .ra: .cfa 8 - ^
STACK CFI 44478 .cfa: $rsp 128 +
STACK CFI INIT 447e0 87 .cfa: $rsp .ra: .cfa 8 - ^
STACK CFI 447e0 .cfa: $rsp 48 +
STACK CFI INIT 44888 75 .cfa: $rsp .ra: .cfa 8 - ^
STACK CFI 44888 .cfa: $rsp 80 +
STACK CFI INIT 44a58 65 .cfa: $rsp .ra: .cfa 8 - ^
STACK CFI 44a58 .cfa: $rsp 80 +
STACK CFI INIT 44c18 25 .cfa: $rsp .ra: .cfa 8 - ^
STACK CFI 44c18 .cfa: $rsp 48 +
STACK CFI INIT 44ca0 36 .cfa: $rsp .ra: .cfa 8 - ^
STACK CFI 44ca0 .cfa: $rsp 48 +
STACK CFI INIT 44ce4 36 .cfa: $rsp .ra: .cfa 8 - ^
STACK CFI 44ce4 .cfa: $rsp 48 +
STACK CFI INIT 44d28 6c .cfa: $rsp .ra: .cfa 8 - ^
STACK CFI 44d28 .cfa: $rsp 48 +
STACK CFI INIT 44db0 65 .cfa: $rsp .ra: .cfa 8 - ^
STACK CFI 44db0 .cfa: $rsp 48 +
STACK CFI INIT 44f64 96 .cfa: $rsp .ra: .cfa 8 - ^
STACK CFI 44f64 .cfa: $rsp 16 +
STACK CFI INIT 45028 21 .cfa: $rsp .ra: .cfa 8 - ^
STACK CFI 45028 .cfa: $rsp 48 +
STACK CFI INIT 45060 21 .cfa: $rsp .ra: .cfa 8 - ^
STACK CFI 45060 .cfa: $rsp 48 +
STACK CFI INIT 4508c 11 .cfa: $rsp .ra: .cfa 8 - ^
STACK CFI 4508c .cfa: $rsp 48 +
STACK CFI INIT 450e4 101 .cfa: $rsp .ra: .cfa 8 - ^
STACK CFI 450e4 .cfa: $rsp 80 +
STACK CFI INIT 45228 9f .cfa: $rsp .ra: .cfa 8 - ^
STACK CFI 45228 .cfa: $rsp 48 +
STACK CFI INIT 452f0 320 .cfa: $rsp .ra: .cfa 8 - ^
STACK CFI 452f0 .cfa: $rsp 112 +
STACK CFI INIT 456d8 322 .cfa: $rsp .ra: .cfa 8 - ^
STACK CFI 456d8 .cfa: $rsp 96 +
STACK CFI INIT 45ac4 e5 .cfa: $rsp .ra: .cfa 8 - ^
STACK CFI 45ac4 .cfa: $rsp 64 +
STACK CFI INIT 45be4 ef .cfa: $rsp .ra: .cfa 8 - ^
STACK CFI 45be4 .cfa: $rsp 64 +
STACK CFI INIT 45d10 25 .cfa: $rsp .ra: .cfa 8 - ^
STACK CFI 45d10 .cfa: $rsp 48 +
STACK CFI INIT 45d40 25 .cfa: $rsp .ra: .cfa 8 - ^
STACK CFI 45d40 .cfa: $rsp 48 +
STACK CFI INIT 45d70 81 .cfa: $rsp .ra: .cfa 8 - ^
STACK CFI 45d70 .cfa: $rsp 48 +
STACK CFI INIT 45e14 91 .cfa: $rsp .ra: .cfa 8 - ^
STACK CFI 45e14 .cfa: $rsp 48 +
STACK CFI INIT 46034 95 .cfa: $rsp .ra: .cfa 8 - ^
STACK CFI 46034 .cfa: $rsp 48 +
STACK CFI INIT 46130 79 .cfa: $rsp .ra: .cfa 8 - ^
STACK CFI 46130 .cfa: $rsp 48 +
STACK CFI INIT 461c8 26 .cfa: $rsp .ra: .cfa 8 - ^
STACK CFI 461c8 .cfa: $rsp 48 +
STACK CFI INIT 46278 53 .cfa: $rsp .ra: .cfa 8 - ^
STACK CFI 46278 .cfa: $rsp 48 +
STACK CFI INIT 46314 4d .cfa: $rsp .ra: .cfa 8 - ^
STACK CFI 46314 .cfa: $rsp 48 +
STACK CFI INIT 468c8 119 .cfa: $rsp .ra: .cfa 8 - ^
STACK CFI 468c8 .cfa: $rsp 64 +
STACK CFI INIT 46a28 1d6 .cfa: $rsp .ra: .cfa 8 - ^
STACK CFI 46a28 .cfa: $rsp 80 +
STACK CFI INIT 46c74 fe .cfa: $rsp .ra: .cfa 8 - ^
STACK CFI 46c74 .cfa: $rsp 48 +
STACK CFI INIT 46db4 137 .cfa: $rsp .ra: .cfa 8 - ^
STACK CFI 46db4 .cfa: $rsp 64 +
STACK CFI INIT 46f38 73 .cfa: $rsp .ra: .cfa 8 - ^
STACK CFI 46f38 .cfa: $rsp 48 +
STACK CFI INIT 46fd4 4e .cfa: $rsp .ra: .cfa 8 - ^
STACK CFI 46fd4 .cfa: $rsp 48 +
STACK CFI INIT 47038 4e .cfa: $rsp .ra: .cfa 8 - ^
STACK CFI 47038 .cfa: $rsp 48 +
STACK CFI INIT 4709c 4e .cfa: $rsp .ra: .cfa 8 - ^
STACK CFI 4709c .cfa: $rsp 48 +
STACK CFI INIT 47100 4e .cfa: $rsp .ra: .cfa 8 - ^
STACK CFI 47100 .cfa: $rsp 48 +
STACK CFI INIT 47164 3a .cfa: $rsp .ra: .cfa 8 - ^
STACK CFI 47164 .cfa: $rsp 48 +
STACK CFI INIT 471ac dc .cfa: $rsp .ra: .cfa 8 - ^
STACK CFI 471ac .cfa: $rsp 96 +
STACK CFI INIT 472c0 95 .cfa: $rsp .ra: .cfa 8 - ^
STACK CFI 472c0 .cfa: $rsp 96 +
STACK CFI INIT 4737c 48 .cfa: $rsp .ra: .cfa 8 - ^
STACK CFI 4737c .cfa: $rsp 48 +
STACK CFI INIT 473d8 46 .cfa: $rsp .ra: .cfa 8 - ^
STACK CFI 473d8 .cfa: $rsp 48 +
STACK CFI INIT 47430 46 .cfa: $rsp .ra: .cfa 8 - ^
STACK CFI 47430 .cfa: $rsp 48 +
STACK CFI INIT 47488 51 .cfa: $rsp .ra: .cfa 8 - ^
STACK CFI 47488 .cfa: $rsp 48 +
STACK CFI INIT 474f0 b6 .cfa: $rsp .ra: .cfa 8 - ^
STACK CFI 474f0 .cfa: $rsp 80 +
STACK CFI INIT 475d4 39 .cfa: $rsp .ra: .cfa 8 - ^
STACK CFI 475d4 .cfa: $rsp 48 +
STACK CFI INIT 4761c 82 .cfa: $rsp .ra: .cfa 8 - ^
STACK CFI 4761c .cfa: $rsp 64 +
STACK CFI INIT 476c0 48 .cfa: $rsp .ra: .cfa 8 - ^
STACK CFI 476c0 .cfa: $rsp 48 +
STACK CFI INIT 4771c ab .cfa: $rsp .ra: .cfa 8 - ^
STACK CFI 4771c .cfa: $rsp 80 +
STACK CFI INIT 477f4 61 .cfa: $rsp .ra: .cfa 8 - ^
STACK CFI 477f4 .cfa: $rsp 48 +
STACK CFI INIT 47870 51 .cfa: $rsp .ra: .cfa 8 - ^
STACK CFI 47870 .cfa: $rsp 48 +
STACK CFI INIT 478d8 61 .cfa: $rsp .ra: .cfa 8 - ^
STACK CFI 478d8 .cfa: $rsp 48 +
STACK CFI INIT 47954 56 .cfa: $rsp .ra: .cfa 8 - ^
STACK CFI 47954 .cfa: $rsp 48 +
STACK CFI INIT 479c0 70 .cfa: $rsp .ra: .cfa 8 - ^
STACK CFI 479c0 .cfa: $rsp 64 +
STACK CFI INIT 47a4c dc .cfa: $rsp .ra: .cfa 8 - ^
STACK CFI 47a4c .cfa: $rsp 96 +
STACK CFI INIT 47b60 50 .cfa: $rsp .ra: .cfa 8 - ^
STACK CFI 47b60 .cfa: $rsp 48 +
STACK CFI INIT 47bc4 5f .cfa: $rsp .ra: .cfa 8 - ^
STACK CFI 47bc4 .cfa: $rsp 48 +
STACK CFI INIT 47c3c 71 .cfa: $rsp .ra: .cfa 8 - ^
STACK CFI 47c3c .cfa: $rsp 64 +
STACK CFI INIT 47ccc 71 .cfa: $rsp .ra: .cfa 8 - ^
STACK CFI 47ccc .cfa: $rsp 64 +
STACK CFI INIT 47d5c 40 .cfa: $rsp .ra: .cfa 8 - ^
STACK CFI 47d5c .cfa: $rsp 48 +
STACK CFI INIT 47dac 33 .cfa: $rsp .ra: .cfa 8 - ^
STACK CFI 47dac .cfa: $rsp 48 +
STACK CFI INIT 47dec 4f .cfa: $rsp .ra: .cfa 8 - ^
STACK CFI 47dec .cfa: $rsp 48 +
STACK CFI INIT 47e50 42 .cfa: $rsp .ra: .cfa 8 - ^
STACK CFI 47e50 .cfa: $rsp 48 +
STACK CFI INIT 47ea4 6d .cfa: $rsp .ra: .cfa 8 - ^
STACK CFI 47ea4 .cfa: $rsp 48 +
STACK CFI INIT 47f2c 2e .cfa: $rsp .ra: .cfa 8 - ^
STACK CFI 47f2c .cfa: $rsp 48 +
STACK CFI INIT 47f68 2e .cfa: $rsp .ra: .cfa 8 - ^
STACK CFI 47f68 .cfa: $rsp 48 +
STACK CFI INIT 47fa4 15a .cfa: $rsp .ra: .cfa 8 - ^
STACK CFI 47fa4 .cfa: $rsp 48 +
STACK CFI INIT 48154 78 .cfa: $rsp .ra: .cfa 8 - ^
STACK CFI 48154 .cfa: $rsp 48 +
STACK CFI INIT 481ec 31 .cfa: $rsp .ra: .cfa 8 - ^
STACK CFI 481ec .cfa: $rsp 8 +
STACK CFI INIT 4822c c6 .cfa: $rsp .ra: .cfa 8 - ^
STACK CFI 4822c .cfa: $rsp 96 +
STACK CFI INIT 48324 41 .cfa: $rsp .ra: .cfa 8 - ^
STACK CFI 48324 .cfa: $rsp 48 +
STACK CFI INIT 48384 1c .cfa: $rsp .ra: .cfa 8 - ^
STACK CFI 48384 .cfa: $rsp 48 +
STACK CFI INIT 483e8 ed .cfa: $rsp .ra: .cfa 8 - ^
STACK CFI 483e8 .cfa: $rsp 160 +
STACK CFI INIT 48510 10c .cfa: $rsp .ra: .cfa 8 - ^
STACK CFI 48510 .cfa: $rsp 48 +
STACK CFI INIT 48660 3b .cfa: $rsp .ra: .cfa 8 - ^
STACK CFI 48660 .cfa: $rsp 48 +
STACK CFI INIT 486ac 40 .cfa: $rsp .ra: .cfa 8 - ^
STACK CFI 486ac .cfa: $rsp 48 +
STACK CFI INIT 486fc 80 .cfa: $rsp .ra: .cfa 8 - ^
STACK CFI 486fc .cfa: $rsp 48 +
STACK CFI INIT 4879c 3c .cfa: $rsp .ra: .cfa 8 - ^
STACK CFI 4879c .cfa: $rsp 48 +
STACK CFI INIT 48848 27 .cfa: $rsp .ra: .cfa 8 - ^
STACK CFI 48848 .cfa: $rsp 8 +
STACK CFI INIT 48888 2f .cfa: $rsp .ra: .cfa 8 - ^
STACK CFI 48888 .cfa: $rsp 48 +
STACK CFI INIT 488c4 34 .cfa: $rsp .ra: .cfa 8 - ^
STACK CFI 488c4 .cfa: $rsp 48 +
STACK CFI INIT 48908 59 .cfa: $rsp .ra: .cfa 8 - ^
STACK CFI 48908 .cfa: $rsp 48 +
STACK CFI INIT 48984 45 .cfa: $rsp .ra: .cfa 8 - ^
STACK CFI 48984 .cfa: $rsp 48 +
STACK CFI INIT 489dc 26 .cfa: $rsp .ra: .cfa 8 - ^
STACK CFI 489dc .cfa: $rsp 48 +
STACK CFI INIT 48a94 92 .cfa: $rsp .ra: .cfa 8 - ^
STACK CFI 48a94 .cfa: $rsp 48 +
STACK CFI INIT 48b98 27 .cfa: $rsp .ra: .cfa 8 - ^
STACK CFI 48b98 .cfa: $rsp 8 +
STACK CFI INIT 48c24 27 .cfa: $rsp .ra: .cfa 8 - ^
STACK CFI 48c24 .cfa: $rsp 48 +
STACK CFI INIT 48c58 2e .cfa: $rsp .ra: .cfa 8 - ^
STACK CFI 48c58 .cfa: $rsp 48 +
STACK CFI INIT 48cb8 12 .cfa: $rsp .ra: .cfa 8 - ^
STACK CFI 48cb8 .cfa: $rsp 48 +
STACK CFI INIT 48cd0 12 .cfa: $rsp .ra: .cfa 8 - ^
STACK CFI 48cd0 .cfa: $rsp 48 +
STACK CFI INIT 48ce8 26c .cfa: $rsp .ra: .cfa 8 - ^
STACK CFI 48ce8 .cfa: $rsp 112 +
STACK CFI INIT 48ff0 1da .cfa: $rsp .ra: .cfa 8 - ^
STACK CFI 48ff0 .cfa: $rsp 64 +
STACK CFI INIT 49284 27 .cfa: $rsp .ra: .cfa 8 - ^
STACK CFI 49284 .cfa: $rsp 8 +
STACK CFI INIT 49354 9a .cfa: $rsp .ra: .cfa 8 - ^
STACK CFI 49354 .cfa: $rsp 48 +
STACK CFI INIT 49414 e0 .cfa: $rsp .ra: .cfa 8 - ^
STACK CFI 49414 .cfa: $rsp 128 +
STACK CFI INIT 4952c 40 .cfa: $rsp .ra: .cfa 8 - ^
STACK CFI 4952c .cfa: $rsp 48 +
STACK CFI INIT 4957c 26 .cfa: $rsp .ra: .cfa 8 - ^
STACK CFI 4957c .cfa: $rsp 48 +
STACK CFI INIT 495ac 28 .cfa: $rsp .ra: .cfa 8 - ^
STACK CFI 495ac .cfa: $rsp 48 +
STACK CFI INIT 495e0 28 .cfa: $rsp .ra: .cfa 8 - ^
STACK CFI 495e0 .cfa: $rsp 48 +
STACK CFI INIT 496d0 ae .cfa: $rsp .ra: .cfa 8 - ^
STACK CFI 496d0 .cfa: $rsp 112 +
STACK CFI INIT 497b8 78 .cfa: $rsp .ra: .cfa 8 - ^
STACK CFI 497b8 .cfa: $rsp 48 +
STACK CFI INIT 49874 5d .cfa: $rsp .ra: .cfa 8 - ^
STACK CFI 49874 .cfa: $rsp 80 +
STACK CFI INIT 499d8 7a .cfa: $rsp .ra: .cfa 8 - ^
STACK CFI 499d8 .cfa: $rsp 48 +
STACK CFI INIT 49a70 4b .cfa: $rsp .ra: .cfa 8 - ^
STACK CFI 49a70 .cfa: $rsp 48 +
STACK CFI INIT 49ad8 66 .cfa: $rsp .ra: .cfa 8 - ^
STACK CFI 49ad8 .cfa: $rsp 64 +
STACK CFI INIT 49b58 30 .cfa: $rsp .ra: .cfa 8 - ^
STACK CFI 49b58 .cfa: $rsp 48 +
STACK CFI INIT 49ba8 1b .cfa: $rsp .ra: .cfa 8 - ^
STACK CFI 49ba8 .cfa: $rsp 48 +
STACK CFI INIT 49bd8 1b .cfa: $rsp .ra: .cfa 8 - ^
STACK CFI 49bd8 .cfa: $rsp 48 +
STACK CFI INIT 49bfc 11f .cfa: $rsp .ra: .cfa 8 - ^
STACK CFI 49bfc .cfa: $rsp 48 +
STACK CFI INIT 49d7c 5b .cfa: $rsp .ra: .cfa 8 - ^
STACK CFI 49d7c .cfa: $rsp 48 +
STACK CFI INIT 49df0 47 .cfa: $rsp .ra: .cfa 8 - ^
STACK CFI 49df0 .cfa: $rsp 48 +
STACK CFI INIT 49e9c cf .cfa: $rsp .ra: .cfa 8 - ^
STACK CFI 49e9c .cfa: $rsp 48 +
STACK CFI INIT 49fa0 39 .cfa: $rsp .ra: .cfa 8 - ^
STACK CFI 49fa0 .cfa: $rsp 48 +
STACK CFI INIT 49fe8 5e .cfa: $rsp .ra: .cfa 8 - ^
STACK CFI 49fe8 .cfa: $rsp 48 +
STACK CFI INIT 4a090 2e .cfa: $rsp .ra: .cfa 8 - ^
STACK CFI 4a090 .cfa: $rsp 64 +
STACK CFI INIT 4a0cc 2e .cfa: $rsp .ra: .cfa 8 - ^
STACK CFI 4a0cc .cfa: $rsp 64 +
STACK CFI INIT 4a108 2e .cfa: $rsp .ra: .cfa 8 - ^
STACK CFI 4a108 .cfa: $rsp 64 +
STACK CFI INIT 4a144 2e .cfa: $rsp .ra: .cfa 8 - ^
STACK CFI 4a144 .cfa: $rsp 64 +
STACK CFI INIT 4a180 2e .cfa: $rsp .ra: .cfa 8 - ^
STACK CFI 4a180 .cfa: $rsp 64 +
STACK CFI INIT 4a1bc 2e .cfa: $rsp .ra: .cfa 8 - ^
STACK CFI 4a1bc .cfa: $rsp 64 +
STACK CFI INIT 4a1f8 2e .cfa: $rsp .ra: .cfa 8 - ^
STACK CFI 4a1f8 .cfa: $rsp 64 +
STACK CFI INIT 4a234 2e .cfa: $rsp .ra: .cfa 8 - ^
STACK CFI 4a234 .cfa: $rsp 64 +
STACK CFI INIT 4a270 2a .cfa: $rsp .ra: .cfa 8 - ^
STACK CFI 4a270 .cfa: $rsp 64 +
STACK CFI INIT 4a2a4 2e .cfa: $rsp .ra: .cfa 8 - ^
STACK CFI 4a2a4 .cfa: $rsp 64 +
STACK CFI INIT 4a2e0 2e .cfa: $rsp .ra: .cfa 8 - ^
STACK CFI 4a2e0 .cfa: $rsp 64 +
STACK CFI INIT 4a31c 2e .cfa: $rsp .ra: .cfa 8 - ^
STACK CFI 4a31c .cfa: $rsp 64 +
STACK CFI INIT 4a358 2e .cfa: $rsp .ra: .cfa 8 - ^
STACK CFI 4a358 .cfa: $rsp 64 +
STACK CFI INIT 4a394 2a .cfa: $rsp .ra: .cfa 8 - ^
STACK CFI 4a394 .cfa: $rsp 64 +
STACK CFI INIT 4a3c8 2e .cfa: $rsp .ra: .cfa 8 - ^
STACK CFI 4a3c8 .cfa: $rsp 64 +
STACK CFI INIT 4a404 2e .cfa: $rsp .ra: .cfa 8 - ^
STACK CFI 4a404 .cfa: $rsp 64 +
STACK CFI INIT 4a440 2e .cfa: $rsp .ra: .cfa 8 - ^
STACK CFI 4a440 .cfa: $rsp 64 +
STACK CFI INIT 4a47c 2e .cfa: $rsp .ra: .cfa 8 - ^
STACK CFI 4a47c .cfa: $rsp 64 +
STACK CFI INIT 4a4b8 2a .cfa: $rsp .ra: .cfa 8 - ^
STACK CFI 4a4b8 .cfa: $rsp 64 +
STACK CFI INIT 4a4ec 2e .cfa: $rsp .ra: .cfa 8 - ^
STACK CFI 4a4ec .cfa: $rsp 64 +
STACK CFI INIT 4a528 2e .cfa: $rsp .ra: .cfa 8 - ^
STACK CFI 4a528 .cfa: $rsp 64 +
STACK CFI INIT 4a564 2e .cfa: $rsp .ra: .cfa 8 - ^
STACK CFI 4a564 .cfa: $rsp 64 +
STACK CFI INIT 4a5a0 2e .cfa: $rsp .ra: .cfa 8 - ^
STACK CFI 4a5a0 .cfa: $rsp 64 +
STACK CFI INIT 4a5dc 2a .cfa: $rsp .ra: .cfa 8 - ^
STACK CFI 4a5dc .cfa: $rsp 64 +
STACK CFI INIT 4a610 2e .cfa: $rsp .ra: .cfa 8 - ^
STACK CFI 4a610 .cfa: $rsp 64 +
STACK CFI INIT 4a64c 2e .cfa: $rsp .ra: .cfa 8 - ^
STACK CFI 4a64c .cfa: $rsp 64 +
STACK CFI INIT 4a688 2e .cfa: $rsp .ra: .cfa 8 - ^
STACK CFI 4a688 .cfa: $rsp 64 +
STACK CFI INIT 4a6c4 2e .cfa: $rsp .ra: .cfa 8 - ^
STACK CFI 4a6c4 .cfa: $rsp 64 +
STACK CFI INIT 4a700 2a .cfa: $rsp .ra: .cfa 8 - ^
STACK CFI 4a700 .cfa: $rsp 64 +
STACK CFI INIT 4a734 2a .cfa: $rsp .ra: .cfa 8 - ^
STACK CFI 4a734 .cfa: $rsp 64 +
STACK CFI INIT 4a768 2a .cfa: $rsp .ra: .cfa 8 - ^
STACK CFI 4a768 .cfa: $rsp 64 +
STACK CFI INIT 4a79c 2a .cfa: $rsp .ra: .cfa 8 - ^
STACK CFI 4a79c .cfa: $rsp 64 +
STACK CFI INIT 4a7d0 2a .cfa: $rsp .ra: .cfa 8 - ^
STACK CFI 4a7d0 .cfa: $rsp 64 +
STACK CFI INIT 4a804 2a .cfa: $rsp .ra: .cfa 8 - ^
STACK CFI 4a804 .cfa: $rsp 64 +
STACK CFI INIT 4a838 2a .cfa: $rsp .ra: .cfa 8 - ^
STACK CFI 4a838 .cfa: $rsp 64 +
STACK CFI INIT 4a86c 2a .cfa: $rsp .ra: .cfa 8 - ^
STACK CFI 4a86c .cfa: $rsp 64 +
STACK CFI INIT 4a8a0 2a .cfa: $rsp .ra: .cfa 8 - ^
STACK CFI 4a8a0 .cfa: $rsp 64 +
STACK CFI INIT 4a8d4 2a .cfa: $rsp .ra: .cfa 8 - ^
STACK CFI 4a8d4 .cfa: $rsp 64 +
STACK CFI INIT 4a908 2a .cfa: $rsp .ra: .cfa 8 - ^
STACK CFI 4a908 .cfa: $rsp 64 +
STACK CFI INIT 4a93c 2a .cfa: $rsp .ra: .cfa 8 - ^
STACK CFI 4a93c .cfa: $rsp 64 +
STACK CFI INIT 4a970 17e .cfa: $rsp .ra: .cfa 8 - ^
STACK CFI 4a970 .cfa: $rsp 96 +
STACK CFI INIT 4ab5c 72 .cfa: $rsp .ra: .cfa 8 - ^
STACK CFI 4ab5c .cfa: $rsp 96 +
STACK CFI INIT 4abec 19c .cfa: $rsp .ra: .cfa 8 - ^
STACK CFI 4abec .cfa: $rsp 128 +
STACK CFI INIT 4adf0 4d .cfa: $rsp .ra: .cfa 8 - ^
STACK CFI 4adf0 .cfa: $rsp 64 +
STACK CFI INIT 4ae50 14 .cfa: $rsp .ra: .cfa 8 - ^
STACK CFI 4ae50 .cfa: $rsp 64 +
STACK CFI INIT 4befc 31 .cfa: $rsp .ra: .cfa 8 - ^
STACK CFI 4befc .cfa: $rsp 48 +
STACK CFI INIT 4bf3c 31 .cfa: $rsp .ra: .cfa 8 - ^
STACK CFI 4bf3c .cfa: $rsp 48 +
STACK CFI INIT 4bffc 36d .cfa: $rsp .ra: .cfa 8 - ^
STACK CFI 4bffc .cfa: $rsp 160 +
STACK CFI INIT 4c444 db .cfa: $rsp .ra: .cfa 8 - ^
STACK CFI 4c444 .cfa: $rsp 96 +
STACK CFI INIT 4c558 1d2 .cfa: $rsp .ra: .cfa 8 - ^
STACK CFI 4c558 .cfa: $rsp 96 +
STACK CFI INIT 4c7a0 a6 .cfa: $rsp .ra: .cfa 8 - ^
STACK CFI 4c7a0 .cfa: $rsp 80 +
STACK CFI INIT 4c870 143 .cfa: $rsp .ra: .cfa 8 - ^
STACK CFI 4c870 .cfa: $rsp 80 +
STACK CFI INIT 4ca04 132 .cfa: $rsp .ra: .cfa 8 - ^
STACK CFI 4ca04 .cfa: $rsp 96 +
STACK CFI INIT 4cb84 a5 .cfa: $rsp .ra: .cfa 8 - ^
STACK CFI 4cb84 .cfa: $rsp 64 +
STACK CFI INIT 4cc54 30 .cfa: $rsp .ra: .cfa 8 - ^
STACK CFI 4cc54 .cfa: $rsp 48 +
STACK CFI INIT 4cc98 304 .cfa: $rsp .ra: .cfa 8 - ^
STACK CFI 4cc98 .cfa: $rsp 112 +
STACK CFI INIT 4d084 17c .cfa: $rsp .ra: .cfa 8 - ^
STACK CFI 4d084 .cfa: $rsp 96 +
STACK CFI INIT 4d260 23 .cfa: $rsp .ra: .cfa 8 - ^
STACK CFI 4d260 .cfa: $rsp 48 +
STACK CFI INIT 4d294 5e .cfa: $rsp .ra: .cfa 8 - ^
STACK CFI 4d294 .cfa: $rsp 48 +
STACK CFI INIT 4d324 26 .cfa: $rsp .ra: .cfa 8 - ^
STACK CFI 4d324 .cfa: $rsp 48 +
STACK CFI INIT 4d370 21 .cfa: $rsp .ra: .cfa 8 - ^
STACK CFI 4d370 .cfa: $rsp 48 +
STACK CFI INIT 4d3b8 124 .cfa: $rsp .ra: .cfa 8 - ^
STACK CFI 4d3b8 .cfa: $rsp 64 +
STACK CFI INIT 4d5a4 3e .cfa: $rsp .ra: .cfa 8 - ^
STACK CFI 4d5a4 .cfa: $rsp 48 +
STACK CFI INIT 4d5f4 13a .cfa: $rsp .ra: .cfa 8 - ^
STACK CFI 4d5f4 .cfa: $rsp 48 +
STACK CFI INIT 4d77c 6e .cfa: $rsp .ra: .cfa 8 - ^
STACK CFI 4d77c .cfa: $rsp 64 +
STACK CFI INIT 4d808 29 .cfa: $rsp .ra: .cfa 8 - ^
STACK CFI 4d808 .cfa: $rsp 48 +
STACK CFI INIT 4d83c 41 .cfa: $rsp .ra: .cfa 8 - ^
STACK CFI 4d83c .cfa: $rsp 48 +
STACK CFI INIT 4d890 26 .cfa: $rsp .ra: .cfa 8 - ^
STACK CFI 4d890 .cfa: $rsp 48 +
STACK CFI INIT 4d8c0 26 .cfa: $rsp .ra: .cfa 8 - ^
STACK CFI 4d8c0 .cfa: $rsp 48 +
STACK CFI INIT 4d8f0 26 .cfa: $rsp .ra: .cfa 8 - ^
STACK CFI 4d8f0 .cfa: $rsp 48 +
STACK CFI INIT 4d920 26 .cfa: $rsp .ra: .cfa 8 - ^
STACK CFI 4d920 .cfa: $rsp 48 +
STACK CFI INIT 4d96c 4e .cfa: $rsp .ra: .cfa 8 - ^
STACK CFI 4d96c .cfa: $rsp 48 +
STACK CFI INIT 4dab0 59 .cfa: $rsp .ra: .cfa 8 - ^
STACK CFI 4dab0 .cfa: $rsp 64 +
STACK CFI INIT 4db20 1b .cfa: $rsp .ra: .cfa 8 - ^
STACK CFI 4db20 .cfa: $rsp 48 +
STACK CFI INIT 4db44 1b .cfa: $rsp .ra: .cfa 8 - ^
STACK CFI 4db44 .cfa: $rsp 48 +
STACK CFI INIT 4db68 48 .cfa: $rsp .ra: .cfa 8 - ^
STACK CFI 4db68 .cfa: $rsp 64 +
STACK CFI INIT 4dbf4 8e .cfa: $rsp .ra: .cfa 8 - ^
STACK CFI 4dbf4 .cfa: $rsp 96 +
STACK CFI INIT 4dca8 26 .cfa: $rsp .ra: .cfa 8 - ^
STACK CFI 4dca8 .cfa: $rsp 48 +
STACK CFI INIT 4dce0 2c .cfa: $rsp .ra: .cfa 8 - ^
STACK CFI 4dce0 .cfa: $rsp 48 +
STACK CFI INIT 4dd78 11d .cfa: $rsp .ra: .cfa 8 - ^
STACK CFI 4dd78 .cfa: $rsp 48 +
STACK CFI INIT 4dedc 77 .cfa: $rsp .ra: .cfa 8 - ^
STACK CFI 4dedc .cfa: $rsp 64 +
STACK CFI INIT 4df70 3f .cfa: $rsp .ra: .cfa 8 - ^
STACK CFI 4df70 .cfa: $rsp 64 +
STACK CFI INIT 4dff8 1b .cfa: $rsp .ra: .cfa 8 - ^
STACK CFI 4dff8 .cfa: $rsp 48 +
STACK CFI INIT 4e01c 1b .cfa: $rsp .ra: .cfa 8 - ^
STACK CFI 4e01c .cfa: $rsp 48 +
STACK CFI INIT 4e040 82 .cfa: $rsp .ra: .cfa 8 - ^
STACK CFI 4e040 .cfa: $rsp 64 +
STACK CFI INIT 4e0f4 2e .cfa: $rsp .ra: .cfa 8 - ^
STACK CFI 4e0f4 .cfa: $rsp 48 +
STACK CFI INIT 4e154 a2 .cfa: $rsp .ra: .cfa 8 - ^
STACK CFI 4e154 .cfa: $rsp 64 +
STACK CFI INIT 4e220 166 .cfa: $rsp .ra: .cfa 8 - ^
STACK CFI 4e220 .cfa: $rsp 80 +
STACK CFI INIT 4e3e0 69 .cfa: $rsp .ra: .cfa 8 - ^
STACK CFI 4e3e0 .cfa: $rsp 48 +
STACK CFI INIT 4e464 be .cfa: $rsp .ra: .cfa 8 - ^
STACK CFI 4e464 .cfa: $rsp 48 +
STACK CFI INIT 4e554 76 .cfa: $rsp .ra: .cfa 8 - ^
STACK CFI 4e554 .cfa: $rsp 352 +
STACK CFI INIT 4e5e8 47f .cfa: $rsp .ra: .cfa 8 - ^
STACK CFI 4e5e8 .cfa: $rsp 688 +
STACK CFI INIT 4eb88 a2 .cfa: $rsp .ra: .cfa 8 - ^
STACK CFI 4eb88 .cfa: $rsp 48 +
STACK CFI INIT 4ec54 bb .cfa: $rsp .ra: .cfa 8 - ^
STACK CFI 4ec54 .cfa: $rsp 80 +
STACK CFI INIT 4ed40 148 .cfa: $rsp .ra: .cfa 8 - ^
STACK CFI 4ed40 .cfa: $rsp 64 +
STACK CFI INIT 4eedc 65 .cfa: $rsp .ra: .cfa 8 - ^
STACK CFI 4eedc .cfa: $rsp 96 +
STACK CFI INIT 4ef5c a1 .cfa: $rsp .ra: .cfa 8 - ^
STACK CFI 4ef5c .cfa: $rsp 112 +
STACK CFI INIT 4f028 1ea .cfa: $rsp .ra: .cfa 8 - ^
STACK CFI 4f028 .cfa: $rsp 96 +
STACK CFI INIT 4f28c 296 .cfa: $rsp .ra: .cfa 8 - ^
STACK CFI 4f28c .cfa: $rsp 592 +
STACK CFI INIT 4f5c8 352 .cfa: $rsp .ra: .cfa 8 - ^
STACK CFI 4f5c8 .cfa: $rsp 880 +
STACK CFI INIT 4fa1c 34 .cfa: $rsp .ra: .cfa 8 - ^
STACK CFI 4fa1c .cfa: $rsp 48 +
STACK CFI INIT 4fa60 1ff .cfa: $rsp .ra: .cfa 8 - ^
STACK CFI 4fa60 .cfa: $rsp 208 +
STACK CFI INIT 4fce0 47 .cfa: $rsp .ra: .cfa 8 - ^
STACK CFI 4fce0 .cfa: $rsp 64 +
STACK CFI INIT 4fd38 89 .cfa: $rsp .ra: .cfa 8 - ^
STACK CFI 4fd38 .cfa: $rsp 64 +
STACK CFI INIT 4fde4 10a .cfa: $rsp .ra: .cfa 8 - ^
STACK CFI 4fde4 .cfa: $rsp 64 +
STACK CFI INIT 4ff30 8f .cfa: $rsp .ra: .cfa 8 - ^
STACK CFI 4ff30 .cfa: $rsp 64 +
STACK CFI INIT 4ffe4 72 .cfa: $rsp .ra: .cfa 8 - ^
STACK CFI 4ffe4 .cfa: $rsp 48 +
STACK CFI INIT 50074 6f .cfa: $rsp .ra: .cfa 8 - ^
STACK CFI 50074 .cfa: $rsp 48 +
STACK CFI INIT 50134 2f .cfa: $rsp .ra: .cfa 8 - ^
STACK CFI 50134 .cfa: $rsp 48 +
STACK CFI INIT 50184 6f .cfa: $rsp .ra: .cfa 8 - ^
STACK CFI 50184 .cfa: $rsp 48 +
STACK CFI INIT 5024c 108 .cfa: $rsp .ra: .cfa 8 - ^
STACK CFI 5024c .cfa: $rsp 144 +
STACK CFI INIT 50468 176 .cfa: $rsp .ra: .cfa 8 - ^
STACK CFI 50468 .cfa: $rsp 48 +
STACK CFI INIT 5066c 36 .cfa: $rsp .ra: .cfa 8 - ^
STACK CFI 5066c .cfa: $rsp 48 +
STACK CFI INIT 506e0 a8 .cfa: $rsp .ra: .cfa 8 - ^
STACK CFI 506e0 .cfa: $rsp 48 +
STACK CFI INIT 507b4 6c .cfa: $rsp .ra: .cfa 8 - ^
STACK CFI 507b4 .cfa: $rsp 48 +
STACK CFI INIT 5083c 65 .cfa: $rsp .ra: .cfa 8 - ^
STACK CFI 5083c .cfa: $rsp 48 +
STACK CFI INIT 508c8 2b .cfa: $rsp .ra: .cfa 8 - ^
STACK CFI 508c8 .cfa: $rsp 48 +
STACK CFI INIT 50900 17 .cfa: $rsp .ra: .cfa 8 - ^
STACK CFI 50900 .cfa: $rsp 64 +
STACK CFI INIT 50917 a4 .cfa: $rsp .ra: .cfa 8 - ^
STACK CFI 50917 .cfa: $rsp 64 +
STACK CFI INIT 509bb 1 .cfa: $rsp .ra: .cfa 8 - ^
STACK CFI 509bb .cfa: $rsp 64 +
STACK CFI INIT 50a30 5b .cfa: $rsp .ra: .cfa 8 - ^
STACK CFI 50a30 .cfa: $rsp 1136 +
STACK CFI INIT 50a8b 334 .cfa: $rsp .ra: .cfa 8 - ^
STACK CFI 50a8b .cfa: $rsp 1136 +
STACK CFI INIT 50dbf 1e .cfa: $rsp .ra: .cfa 8 - ^
STACK CFI 50dbf .cfa: $rsp 1136 +
STACK CFI INIT 50ec8 db .cfa: $rsp .ra: .cfa 8 - ^
STACK CFI 50ec8 .cfa: $rsp 48 +
STACK CFI INIT 50fdc e4 .cfa: $rsp .ra: .cfa 8 - ^
STACK CFI 50fdc .cfa: $rsp 48 +
STACK CFI INIT 51140 c6 .cfa: $rsp .ra: .cfa 8 - ^
STACK CFI 51140 .cfa: $rsp 48 +
STACK CFI INIT 51238 d3 .cfa: $rsp .ra: .cfa 8 - ^
STACK CFI 51238 .cfa: $rsp 48 +
STACK CFI INIT 51340 9e .cfa: $rsp .ra: .cfa 8 - ^
STACK CFI 51340 .cfa: $rsp 96 +
STACK CFI INIT 51410 3e0 .cfa: $rsp .ra: .cfa 8 - ^
STACK CFI 51410 .cfa: $rsp 64 +
STACK CFI INIT 518f4 94 .cfa: $rsp .ra: .cfa 8 - ^
STACK CFI 518f4 .cfa: $rsp 80 +
STACK CFI INIT 519c0 22 .cfa: $rsp .ra: .cfa 8 - ^
STACK CFI 519c0 .cfa: $rsp 48 +
STACK CFI INIT 51a18 18d .cfa: $rsp .ra: .cfa 8 - ^
STACK CFI 51a18 .cfa: $rsp 144 +
STACK CFI INIT 51c08 1f .cfa: $rsp .ra: .cfa 8 - ^
STACK CFI 51c08 .cfa: $rsp 48 +
STACK CFI INIT 51c3c 315 .cfa: $rsp .ra: .cfa 8 - ^
STACK CFI 51c3c .cfa: $rsp 144 +
STACK CFI INIT 52018 96 .cfa: $rsp .ra: .cfa 8 - ^
STACK CFI 52018 .cfa: $rsp 128 +
STACK CFI INIT 520d4 17 .cfa: $rsp .ra: .cfa 8 - ^
STACK CFI 520d4 .cfa: $rsp 48 +
STACK CFI INIT 520f0 4f .cfa: $rsp .ra: .cfa 8 - ^
STACK CFI 520f0 .cfa: $rsp 48 +
STACK CFI INIT 52154 f0 .cfa: $rsp .ra: .cfa 8 - ^
STACK CFI 52154 .cfa: $rsp 96 +
STACK CFI INIT 5229c 100 .cfa: $rsp .ra: .cfa 8 - ^
STACK CFI 5229c .cfa: $rsp 112 +
STACK CFI INIT 523dc 179 .cfa: $rsp .ra: .cfa 8 - ^
STACK CFI 523dc .cfa: $rsp 64 +
STACK CFI INIT 525b4 25 .cfa: $rsp .ra: .cfa 8 - ^
STACK CFI 525b4 .cfa: $rsp 64 +
STACK CFI INIT 525e4 197 .cfa: $rsp .ra: .cfa 8 - ^
STACK CFI 525e4 .cfa: $rsp 192 +
STACK CFI INIT 527e8 39 .cfa: $rsp .ra: .cfa 8 - ^
STACK CFI 527e8 .cfa: $rsp 48 +
STACK CFI INIT 52830 7a .cfa: $rsp .ra: .cfa 8 - ^
STACK CFI 52830 .cfa: $rsp 48 +
STACK CFI INIT 52928 87 .cfa: $rsp .ra: .cfa 8 - ^
STACK CFI 52928 .cfa: $rsp 64 +
STACK CFI INIT 529d0 f4 .cfa: $rsp .ra: .cfa 8 - ^
STACK CFI 529d0 .cfa: $rsp 64 +
STACK CFI INIT 52b04 af .cfa: $rsp .ra: .cfa 8 - ^
STACK CFI 52b04 .cfa: $rsp 64 +
STACK CFI INIT 52bf4 1b .cfa: $rsp .ra: .cfa 8 - ^
STACK CFI 52bf4 .cfa: $rsp 48 +
STACK CFI INIT 52c40 1b .cfa: $rsp .ra: .cfa 8 - ^
STACK CFI 52c40 .cfa: $rsp 48 +
STACK CFI INIT 52c64 a5 .cfa: $rsp .ra: .cfa 8 - ^
STACK CFI 52c64 .cfa: $rsp 48 +
STACK CFI INIT 52d34 50 .cfa: $rsp .ra: .cfa 8 - ^
STACK CFI 52d34 .cfa: $rsp 48 +
STACK CFI INIT 52d98 a8 .cfa: $rsp .ra: .cfa 8 - ^
STACK CFI 52d98 .cfa: $rsp 64 +
STACK CFI INIT 52e9c bf .cfa: $rsp .ra: .cfa 8 - ^
STACK CFI 52e9c .cfa: $rsp 48 +
STACK CFI INIT 52fbc 13e .cfa: $rsp .ra: .cfa 8 - ^
STACK CFI 52fbc .cfa: $rsp 80 +
STACK CFI INIT 5314c ba .cfa: $rsp .ra: .cfa 8 - ^
STACK CFI 5314c .cfa: $rsp 48 +
STACK CFI INIT 53234 75 .cfa: $rsp .ra: .cfa 8 - ^
STACK CFI 53234 .cfa: $rsp 48 +
STACK CFI INIT 532c8 101 .cfa: $rsp .ra: .cfa 8 - ^
STACK CFI 532c8 .cfa: $rsp 64 +
STACK CFI INIT 5340c 8c .cfa: $rsp .ra: .cfa 8 - ^
STACK CFI 5340c .cfa: $rsp 48 +
STACK CFI INIT 534bc 26 .cfa: $rsp .ra: .cfa 8 - ^
STACK CFI 534bc .cfa: $rsp 48 +
STACK CFI INIT 5350c 69 .cfa: $rsp .ra: .cfa 8 - ^
STACK CFI 5350c .cfa: $rsp 48 +
STACK CFI INIT 535a0 91 .cfa: $rsp .ra: .cfa 8 - ^
STACK CFI 535a0 .cfa: $rsp 64 +
STACK CFI INIT 53658 6c .cfa: $rsp .ra: .cfa 8 - ^
STACK CFI 53658 .cfa: $rsp 64 +
STACK CFI INIT 536e0 4d0 .cfa: $rsp .ra: .cfa 8 - ^
STACK CFI 536e0 .cfa: $rsp 320 +
STACK CFI INIT 53ce4 95 .cfa: $rsp .ra: .cfa 8 - ^
STACK CFI 53ce4 .cfa: $rsp 48 +
STACK CFI INIT 53da0 8e .cfa: $rsp .ra: .cfa 8 - ^
STACK CFI 53da0 .cfa: $rsp 48 +
STACK CFI INIT 53e54 102 .cfa: $rsp .ra: .cfa 8 - ^
STACK CFI 53e54 .cfa: $rsp 5232 +
STACK CFI INIT 53f98 119 .cfa: $rsp .ra: .cfa 8 - ^
STACK CFI 53f98 .cfa: $rsp 5232 +
STACK CFI INIT 540f8 170 .cfa: $rsp .ra: .cfa 8 - ^
STACK CFI 540f8 .cfa: $rsp 5280 +
STACK CFI INIT 542d8 eb .cfa: $rsp .ra: .cfa 8 - ^
STACK CFI 542d8 .cfa: $rsp 80 +
STACK CFI INIT 54400 2da .cfa: $rsp .ra: .cfa 8 - ^
STACK CFI 54400 .cfa: $rsp 160 +
STACK CFI INIT 54790 33 .cfa: $rsp .ra: .cfa 8 - ^
STACK CFI 54790 .cfa: $rsp 48 +
STACK CFI INIT 547e0 b1 .cfa: $rsp .ra: .cfa 8 - ^
STACK CFI 547e0 .cfa: $rsp 64 +
STACK CFI INIT 548d0 40 .cfa: $rsp .ra: .cfa 8 - ^
STACK CFI 548d0 .cfa: $rsp 48 +
STACK CFI INIT 54920 5f .cfa: $rsp .ra: .cfa 8 - ^
STACK CFI 54920 .cfa: $rsp 48 +
STACK CFI INIT 54998 2c .cfa: $rsp .ra: .cfa 8 - ^
STACK CFI 54998 .cfa: $rsp 48 +
STACK CFI INIT 549d0 2c .cfa: $rsp .ra: .cfa 8 - ^
STACK CFI 549d0 .cfa: $rsp 48 +
STACK CFI INIT 54a08 4b .cfa: $rsp .ra: .cfa 8 - ^
STACK CFI 54a08 .cfa: $rsp 80 +
STACK CFI INIT 54aa8 2c .cfa: $rsp .ra: .cfa 8 - ^
STACK CFI 54aa8 .cfa: $rsp 48 +
STACK CFI INIT 54ae0 2c .cfa: $rsp .ra: .cfa 8 - ^
STACK CFI 54ae0 .cfa: $rsp 48 +
STACK CFI INIT 54b78 4d .cfa: $rsp .ra: .cfa 8 - ^
STACK CFI 54b78 .cfa: $rsp 80 +
STACK CFI INIT 54cbc 39 .cfa: $rsp .ra: .cfa 8 - ^
STACK CFI 54cbc .cfa: $rsp 64 +
STACK CFI INIT 54d04 176 .cfa: $rsp .ra: .cfa 8 - ^
STACK CFI 54d04 .cfa: $rsp 80 +
STACK CFI INIT 54ed8 251 .cfa: $rsp .ra: .cfa 8 - ^
STACK CFI 54ed8 .cfa: $rsp 112 +
STACK CFI INIT 551c0 15e .cfa: $rsp .ra: .cfa 8 - ^
STACK CFI 551c0 .cfa: $rsp 144 +
STACK CFI INIT 55378 66 .cfa: $rsp .ra: .cfa 8 - ^
STACK CFI 55378 .cfa: $rsp 64 +
STACK CFI INIT 553f8 3e .cfa: $rsp .ra: .cfa 8 - ^
STACK CFI 553f8 .cfa: $rsp 64 +
STACK CFI INIT 55448 60 .cfa: $rsp .ra: .cfa 8 - ^
STACK CFI 55448 .cfa: $rsp 64 +
STACK CFI INIT 554c8 d1 .cfa: $rsp .ra: .cfa 8 - ^
STACK CFI 554c8 .cfa: $rsp 48 +
STACK CFI INIT 555f8 1b .cfa: $rsp .ra: .cfa 8 - ^
STACK CFI 555f8 .cfa: $rsp 48 +
STACK CFI INIT 5561c 1b .cfa: $rsp .ra: .cfa 8 - ^
STACK CFI 5561c .cfa: $rsp 48 +
STACK CFI INIT 55658 1b .cfa: $rsp .ra: .cfa 8 - ^
STACK CFI 55658 .cfa: $rsp 48 +
STACK CFI INIT 5567c 1b .cfa: $rsp .ra: .cfa 8 - ^
STACK CFI 5567c .cfa: $rsp 48 +
STACK CFI INIT 556a0 2f .cfa: $rsp .ra: .cfa 8 - ^
STACK CFI 556a0 .cfa: $rsp 48 +
STACK CFI INIT 556dc 2f .cfa: $rsp .ra: .cfa 8 - ^
STACK CFI 556dc .cfa: $rsp 48 +
STACK CFI INIT 55718 32 .cfa: $rsp .ra: .cfa 8 - ^
STACK CFI 55718 .cfa: $rsp 48 +
STACK CFI INIT 55758 2f .cfa: $rsp .ra: .cfa 8 - ^
STACK CFI 55758 .cfa: $rsp 48 +
STACK CFI INIT 557a8 661 .cfa: $rsp .ra: .cfa 8 - ^
STACK CFI 557a8 .cfa: $rsp 208 +
STACK CFI INIT 55fa4 b3 .cfa: $rsp .ra: .cfa 8 - ^
STACK CFI 55fa4 .cfa: $rsp 48 +
STACK CFI INIT 56090 1c .cfa: $rsp .ra: .cfa 8 - ^
STACK CFI 56090 .cfa: $rsp 48 +
STACK CFI INIT 560bc e2 .cfa: $rsp .ra: .cfa 8 - ^
STACK CFI 560bc .cfa: $rsp 48 +
STACK CFI INIT 561d8 114d .cfa: $rsp .ra: .cfa 8 - ^
STACK CFI 561d8 .cfa: $rsp 2064 +
STACK CFI INIT 57780 2f .cfa: $rsp .ra: .cfa 8 - ^
STACK CFI 57780 .cfa: $rsp 48 +
STACK CFI INIT 577cc 3b .cfa: $rsp .ra: .cfa 8 - ^
STACK CFI 577cc .cfa: $rsp 48 +
STACK CFI INIT 57818 14 .cfa: $rsp .ra: .cfa 8 - ^
STACK CFI 57818 .cfa: $rsp 48 +
STACK CFI INIT 57840 2f .cfa: $rsp .ra: .cfa 8 - ^
STACK CFI 57840 .cfa: $rsp 48 +
STACK CFI INIT 579a0 22c .cfa: $rsp .ra: .cfa 8 - ^
STACK CFI 579a0 .cfa: $rsp 608 +
STACK CFI INIT 57bcc 1b4 .cfa: $rsp .ra: .cfa 8 - ^
STACK CFI 57bcc .cfa: $rsp 608 +
STACK CFI INIT 57d80 49 .cfa: $rsp .ra: .cfa 8 - ^
STACK CFI 57d80 .cfa: $rsp 608 +
STACK CFI INIT 57f10 67 .cfa: $rsp .ra: .cfa 8 - ^
STACK CFI 57f10 .cfa: $rsp 48 +
STACK CFI INIT 57f90 e4 .cfa: $rsp .ra: .cfa 8 - ^
STACK CFI 57f90 .cfa: $rsp 1056 +
STACK CFI INIT 58074 f4 .cfa: $rsp .ra: .cfa 8 - ^
STACK CFI 58074 .cfa: $rsp 1056 +
STACK CFI INIT 58168 187 .cfa: $rsp .ra: .cfa 8 - ^
STACK CFI 58168 .cfa: $rsp 1056 +
STACK CFI INIT 582ef 10 .cfa: $rsp .ra: .cfa 8 - ^
STACK CFI 582ef .cfa: $rsp 1056 +
STACK CFI INIT 582ff 1b .cfa: $rsp .ra: .cfa 8 - ^
STACK CFI 582ff .cfa: $rsp 1056 +
STACK CFI INIT 5831a 1e .cfa: $rsp .ra: .cfa 8 - ^
STACK CFI 5831a .cfa: $rsp 1056 +
STACK CFI INIT 58430 39 .cfa: $rsp .ra: .cfa 8 - ^
STACK CFI 58430 .cfa: $rsp 512 +
STACK CFI INIT 58469 1e .cfa: $rsp .ra: .cfa 8 - ^
STACK CFI 58469 .cfa: $rsp 512 +
STACK CFI INIT 58487 4b .cfa: $rsp .ra: .cfa 8 - ^
STACK CFI 58487 .cfa: $rsp 512 +
STACK CFI INIT 584d2 2a .cfa: $rsp .ra: .cfa 8 - ^
STACK CFI 584d2 .cfa: $rsp 512 +
STACK CFI INIT 584fc 21 .cfa: $rsp .ra: .cfa 8 - ^
STACK CFI 584fc .cfa: $rsp 512 +
STACK CFI INIT 58570 5a8 .cfa: $rsp .ra: .cfa 8 - ^
STACK CFI 58570 .cfa: $rsp 1536 +
STACK CFI INIT 58c90 49 .cfa: $rsp .ra: .cfa 8 - ^
STACK CFI 58c90 .cfa: $rsp 8 +
STACK CFI INIT 58cf0 74 .cfa: $rsp .ra: .cfa 8 - ^
STACK CFI 58cf0 .cfa: $rsp 544 +
STACK CFI INIT 58d64 a1 .cfa: $rsp .ra: .cfa 8 - ^
STACK CFI 58d64 .cfa: $rsp 544 +
STACK CFI INIT 58e05 38 .cfa: $rsp .ra: .cfa 8 - ^
STACK CFI 58e05 .cfa: $rsp 544 +
STACK CFI INIT 58e90 1231 .cfa: $rsp .ra: .cfa 8 - ^
STACK CFI 58e90 .cfa: $rsp 2080 +
STACK CFI INIT 5a550 87 .cfa: $rsp .ra: .cfa 8 - ^
STACK CFI 5a550 .cfa: $rsp 48 +
STACK CFI INIT 5a5f8 e8 .cfa: $rsp .ra: .cfa 8 - ^
STACK CFI 5a5f8 .cfa: $rsp 48 +
STACK CFI INIT 5a71c e9 .cfa: $rsp .ra: .cfa 8 - ^
STACK CFI 5a71c .cfa: $rsp 48 +
STACK CFI INIT 5a840 e4 .cfa: $rsp .ra: .cfa 8 - ^
STACK CFI 5a840 .cfa: $rsp 48 +
STACK CFI INIT 5a960 e8 .cfa: $rsp .ra: .cfa 8 - ^
STACK CFI 5a960 .cfa: $rsp 48 +
STACK CFI INIT 5aa94 79 .cfa: $rsp .ra: .cfa 8 - ^
STACK CFI 5aa94 .cfa: $rsp 48 +
STACK CFI INIT 5ab2c ea .cfa: $rsp .ra: .cfa 8 - ^
STACK CFI 5ab2c .cfa: $rsp 48 +
STACK CFI INIT 5ac50 eb .cfa: $rsp .ra: .cfa 8 - ^
STACK CFI 5ac50 .cfa: $rsp 48 +
STACK CFI INIT 5ad8c 1b .cfa: $rsp .ra: .cfa 8 - ^
STACK CFI 5ad8c .cfa: $rsp 48 +
STACK CFI INIT 5adbc 1b .cfa: $rsp .ra: .cfa 8 - ^
STACK CFI 5adbc .cfa: $rsp 48 +
STACK CFI INIT 5ade0 10a .cfa: $rsp .ra: .cfa 8 - ^
STACK CFI 5ade0 .cfa: $rsp 48 +
STACK CFI INIT 5af2c 533 .cfa: $rsp .ra: .cfa 8 - ^
STACK CFI 5af2c .cfa: $rsp 112 +
STACK CFI INIT 5b5f0 6c .cfa: $rsp .ra: .cfa 8 - ^
STACK CFI 5b5f0 .cfa: $rsp 48 +
STACK CFI INIT 5b678 2e8 .cfa: $rsp .ra: .cfa 8 - ^
STACK CFI 5b678 .cfa: $rsp 112 +
STACK CFI INIT 5babc 1b .cfa: $rsp .ra: .cfa 8 - ^
STACK CFI 5babc .cfa: $rsp 48 +
STACK CFI INIT 5baf8 58 .cfa: $rsp .ra: .cfa 8 - ^
STACK CFI 5baf8 .cfa: $rsp 48 +
STACK CFI INIT 5bb6c 77 .cfa: $rsp .ra: .cfa 8 - ^
STACK CFI 5bb6c .cfa: $rsp 48 +
STACK CFI INIT 5bc00 33e .cfa: $rsp .ra: .cfa 8 - ^
STACK CFI 5bc00 .cfa: $rsp 112 +
STACK CFI INIT 5c01c 1b .cfa: $rsp .ra: .cfa 8 - ^
STACK CFI 5c01c .cfa: $rsp 48 +
STACK CFI INIT 5c040 108 .cfa: $rsp .ra: .cfa 8 - ^
STACK CFI 5c040 .cfa: $rsp 48 +
STACK CFI INIT 5c18c 9c .cfa: $rsp .ra: .cfa 8 - ^
STACK CFI 5c18c .cfa: $rsp 48 +
STACK CFI INIT 5c250 86 .cfa: $rsp .ra: .cfa 8 - ^
STACK CFI 5c250 .cfa: $rsp 48 +
STACK CFI INIT 5c2f8 7f .cfa: $rsp .ra: .cfa 8 - ^
STACK CFI 5c2f8 .cfa: $rsp 48 +
STACK CFI INIT 5c398 f6 .cfa: $rsp .ra: .cfa 8 - ^
STACK CFI 5c398 .cfa: $rsp 48 +
STACK CFI INIT 5c4cc fd .cfa: $rsp .ra: .cfa 8 - ^
STACK CFI 5c4cc .cfa: $rsp 48 +
STACK CFI INIT 5c658 a5 .cfa: $rsp .ra: .cfa 8 - ^
STACK CFI 5c658 .cfa: $rsp 256 +
STACK CFI INIT 5c728 cf .cfa: $rsp .ra: .cfa 8 - ^
STACK CFI 5c728 .cfa: $rsp 48 +
STACK CFI INIT 5c82c 98 .cfa: $rsp .ra: .cfa 8 - ^
STACK CFI 5c82c .cfa: $rsp 48 +
STACK CFI INIT 5c928 2ea .cfa: $rsp .ra: .cfa 8 - ^
STACK CFI 5c928 .cfa: $rsp 224 +
STACK CFI INIT 5cccc ea .cfa: $rsp .ra: .cfa 8 - ^
STACK CFI 5cccc .cfa: $rsp 320 +
STACK CFI INIT 5cdf0 c9 .cfa: $rsp .ra: .cfa 8 - ^
STACK CFI 5cdf0 .cfa: $rsp 48 +
STACK CFI INIT 5ceec 63 .cfa: $rsp .ra: .cfa 8 - ^
STACK CFI 5ceec .cfa: $rsp 80 +
STACK CFI INIT 5cf68 77 .cfa: $rsp .ra: .cfa 8 - ^
STACK CFI 5cf68 .cfa: $rsp 48 +
STACK CFI INIT 5cffc 99 .cfa: $rsp .ra: .cfa 8 - ^
STACK CFI 5cffc .cfa: $rsp 64 +
STACK CFI INIT 5d0bc 263 .cfa: $rsp .ra: .cfa 8 - ^
STACK CFI 5d0bc .cfa: $rsp 80 +
STACK CFI INIT 5d3b8 e8 .cfa: $rsp .ra: .cfa 8 - ^
STACK CFI 5d3b8 .cfa: $rsp 304 +
STACK CFI INIT 5d4dc 5f .cfa: $rsp .ra: .cfa 8 - ^
STACK CFI 5d4dc .cfa: $rsp 48 +
STACK CFI INIT 5d554 21 .cfa: $rsp .ra: .cfa 8 - ^
STACK CFI 5d554 .cfa: $rsp 48 +
STACK CFI INIT 5d580 cd .cfa: $rsp .ra: .cfa 8 - ^
STACK CFI 5d580 .cfa: $rsp 48 +
STACK CFI INIT 5d680 96 .cfa: $rsp .ra: .cfa 8 - ^
STACK CFI 5d680 .cfa: $rsp 48 +
STACK CFI INIT 5d76c 24a .cfa: $rsp .ra: .cfa 8 - ^
STACK CFI 5d76c .cfa: $rsp 320 +
STACK CFI INIT 5da48 108 .cfa: $rsp .ra: .cfa 8 - ^
STACK CFI 5da48 .cfa: $rsp 304 +
STACK CFI INIT 5dbf8 ae .cfa: $rsp .ra: .cfa 8 - ^
STACK CFI 5dbf8 .cfa: $rsp 48 +
STACK CFI INIT 5dd04 ab .cfa: $rsp .ra: .cfa 8 - ^
STACK CFI 5dd04 .cfa: $rsp 48 +
STACK CFI INIT 5dddc 7f .cfa: $rsp .ra: .cfa 8 - ^
STACK CFI 5dddc .cfa: $rsp 64 +
STACK CFI INIT 5de7c 27e .cfa: $rsp .ra: .cfa 8 - ^
STACK CFI 5de7c .cfa: $rsp 128 +
STACK CFI INIT 5e1c0 bd .cfa: $rsp .ra: .cfa 8 - ^
STACK CFI 5e1c0 .cfa: $rsp 96 +
STACK CFI INIT 5e380 46 .cfa: $rsp .ra: .cfa 8 - ^
STACK CFI 5e380 .cfa: $rsp 48 +
STACK CFI INIT 5e3d8 150 .cfa: $rsp .ra: .cfa 8 - ^
STACK CFI 5e3d8 .cfa: $rsp 96 +
STACK CFI INIT 5e5d8 4f .cfa: $rsp .ra: .cfa 8 - ^
STACK CFI 5e5d8 .cfa: $rsp 48 +
STACK CFI INIT 5e63c ad .cfa: $rsp .ra: .cfa 8 - ^
STACK CFI 5e63c .cfa: $rsp 80 +
STACK CFI INIT 5e714 35d .cfa: $rsp .ra: .cfa 8 - ^
STACK CFI 5e714 .cfa: $rsp 208 +
STACK CFI INIT 5eb48 89 .cfa: $rsp .ra: .cfa 8 - ^
STACK CFI 5eb48 .cfa: $rsp 112 +
STACK CFI INIT 5ebf8 2b .cfa: $rsp .ra: .cfa 8 - ^
STACK CFI 5ebf8 .cfa: $rsp 48 +
STACK CFI INIT 5ec30 a7 .cfa: $rsp .ra: .cfa 8 - ^
STACK CFI 5ec30 .cfa: $rsp 608 +
STACK CFI INIT 5ed00 15d .cfa: $rsp .ra: .cfa 8 - ^
STACK CFI 5ed00 .cfa: $rsp 80 +
STACK CFI INIT 5eec4 eb .cfa: $rsp .ra: .cfa 8 - ^
STACK CFI 5eec4 .cfa: $rsp 80 +
STACK CFI INIT 5efec ef .cfa: $rsp .ra: .cfa 8 - ^
STACK CFI 5efec .cfa: $rsp 80 +
STACK CFI INIT 5f118 f3 .cfa: $rsp .ra: .cfa 8 - ^
STACK CFI 5f118 .cfa: $rsp 64 +
STACK CFI INIT 5f248 99 .cfa: $rsp .ra: .cfa 8 - ^
STACK CFI 5f248 .cfa: $rsp 48 +
STACK CFI INIT 5f308 9e .cfa: $rsp .ra: .cfa 8 - ^
STACK CFI 5f308 .cfa: $rsp 64 +
STACK CFI INIT 5f3d0 33 .cfa: $rsp .ra: .cfa 8 - ^
STACK CFI 5f3d0 .cfa: $rsp 48 +
STACK CFI INIT 5f430 40 .cfa: $rsp .ra: .cfa 8 - ^
STACK CFI 5f430 .cfa: $rsp 48 +
STACK CFI INIT 5f480 26 .cfa: $rsp .ra: .cfa 8 - ^
STACK CFI 5f480 .cfa: $rsp 48 +
STACK CFI INIT 5f4f0 3b .cfa: $rsp .ra: .cfa 8 - ^
STACK CFI 5f4f0 .cfa: $rsp 64 +
STACK CFI INIT 5f53c 3b .cfa: $rsp .ra: .cfa 8 - ^
STACK CFI 5f53c .cfa: $rsp 48 +
STACK CFI INIT 5f588 1bd .cfa: $rsp .ra: .cfa 8 - ^
STACK CFI 5f588 .cfa: $rsp 112 +
STACK CFI INIT 5f7b4 27b .cfa: $rsp .ra: .cfa 8 - ^
STACK CFI 5f7b4 .cfa: $rsp 128 +
STACK CFI INIT 5fb50 19b .cfa: $rsp .ra: .cfa 8 - ^
STACK CFI 5fb50 .cfa: $rsp 80 +
STACK CFI INIT 5fd54 8f .cfa: $rsp .ra: .cfa 8 - ^
STACK CFI 5fd54 .cfa: $rsp 8 +
STACK CFI INIT 5fe08 119 .cfa: $rsp .ra: .cfa 8 - ^
STACK CFI 5fe08 .cfa: $rsp 64 +
STACK CFI INIT 5ff68 456 .cfa: $rsp .ra: .cfa 8 - ^
STACK CFI 5ff68 .cfa: $rsp 160 +
STACK CFI INIT 604d4 83 .cfa: $rsp .ra: .cfa 8 - ^
STACK CFI 604d4 .cfa: $rsp 48 +
STACK CFI INIT 60578 62 .cfa: $rsp .ra: .cfa 8 - ^
STACK CFI 60578 .cfa: $rsp 48 +
STACK CFI INIT 605f4 1dc .cfa: $rsp .ra: .cfa 8 - ^
STACK CFI 605f4 .cfa: $rsp 112 +
STACK CFI INIT 60850 179 .cfa: $rsp .ra: .cfa 8 - ^
STACK CFI 60850 .cfa: $rsp 144 +
STACK CFI INIT 60a28 1c8 .cfa: $rsp .ra: .cfa 8 - ^
STACK CFI 60a28 .cfa: $rsp 272 +
STACK CFI INIT 60c64 20 .cfa: $rsp .ra: .cfa 8 - ^
STACK CFI 60c64 .cfa: $rsp 48 +
STACK CFI INIT 60c8c 4c .cfa: $rsp .ra: .cfa 8 - ^
STACK CFI 60c8c .cfa: $rsp 48 +
STACK CFI INIT 60cec 50 .cfa: $rsp .ra: .cfa 8 - ^
STACK CFI 60cec .cfa: $rsp 48 +
STACK CFI INIT 60e50 5ab .cfa: $rsp .ra: .cfa 8 - ^
STACK CFI 60e50 .cfa: $rsp 96 +
STACK CFI INIT 61568 66 .cfa: $rsp .ra: .cfa 8 - ^
STACK CFI 61568 .cfa: $rsp 48 +
STACK CFI INIT 615e8 c6 .cfa: $rsp .ra: .cfa 8 - ^
STACK CFI 615e8 .cfa: $rsp 48 +
STACK CFI INIT 616e0 d4 .cfa: $rsp .ra: .cfa 8 - ^
STACK CFI 616e0 .cfa: $rsp 64 +
STACK CFI INIT 617ec cb .cfa: $rsp .ra: .cfa 8 - ^
STACK CFI 617ec .cfa: $rsp 48 +
STACK CFI INIT 618ec d9 .cfa: $rsp .ra: .cfa 8 - ^
STACK CFI 618ec .cfa: $rsp 64 +
STACK CFI INIT 619fc 67 .cfa: $rsp .ra: .cfa 8 - ^
STACK CFI 619fc .cfa: $rsp 64 +
STACK CFI INIT 61a7c 69 .cfa: $rsp .ra: .cfa 8 - ^
STACK CFI 61a7c .cfa: $rsp 64 +
STACK CFI INIT 61b00 67 .cfa: $rsp .ra: .cfa 8 - ^
STACK CFI 61b00 .cfa: $rsp 64 +
STACK CFI INIT 61b80 69 .cfa: $rsp .ra: .cfa 8 - ^
STACK CFI 61b80 .cfa: $rsp 64 +
STACK CFI INIT 61c04 31 .cfa: $rsp .ra: .cfa 8 - ^
STACK CFI 61c04 .cfa: $rsp 64 +
STACK CFI INIT 61c44 21 .cfa: $rsp .ra: .cfa 8 - ^
STACK CFI 61c44 .cfa: $rsp 64 +
STACK CFI INIT 61c70 31 .cfa: $rsp .ra: .cfa 8 - ^
STACK CFI 61c70 .cfa: $rsp 64 +
STACK CFI INIT 61cb0 21 .cfa: $rsp .ra: .cfa 8 - ^
STACK CFI 61cb0 .cfa: $rsp 64 +
STACK CFI INIT 61cdc 30 .cfa: $rsp .ra: .cfa 8 - ^
STACK CFI 61cdc .cfa: $rsp 64 +
STACK CFI INIT 61d18 20 .cfa: $rsp .ra: .cfa 8 - ^
STACK CFI 61d18 .cfa: $rsp 64 +
STACK CFI INIT 61d40 30 .cfa: $rsp .ra: .cfa 8 - ^
STACK CFI 61d40 .cfa: $rsp 64 +
STACK CFI INIT 61d7c 20 .cfa: $rsp .ra: .cfa 8 - ^
STACK CFI 61d7c .cfa: $rsp 64 +
STACK CFI INIT 61da4 30 .cfa: $rsp .ra: .cfa 8 - ^
STACK CFI 61da4 .cfa: $rsp 64 +
STACK CFI INIT 61de0 20 .cfa: $rsp .ra: .cfa 8 - ^
STACK CFI 61de0 .cfa: $rsp 64 +
STACK CFI INIT 61e08 30 .cfa: $rsp .ra: .cfa 8 - ^
STACK CFI 61e08 .cfa: $rsp 64 +
STACK CFI INIT 61e44 20 .cfa: $rsp .ra: .cfa 8 - ^
STACK CFI 61e44 .cfa: $rsp 64 +
STACK CFI INIT 61e6c 23 .cfa: $rsp .ra: .cfa 8 - ^
STACK CFI 61e6c .cfa: $rsp 64 +
STACK CFI INIT 61e98 13 .cfa: $rsp .ra: .cfa 8 - ^
STACK CFI 61e98 .cfa: $rsp 64 +
STACK CFI INIT 61eb0 23 .cfa: $rsp .ra: .cfa 8 - ^
STACK CFI 61eb0 .cfa: $rsp 64 +
STACK CFI INIT 61edc 13 .cfa: $rsp .ra: .cfa 8 - ^
STACK CFI 61edc .cfa: $rsp 64 +
STACK CFI INIT 61ef4 23 .cfa: $rsp .ra: .cfa 8 - ^
STACK CFI 61ef4 .cfa: $rsp 64 +
STACK CFI INIT 61f20 13 .cfa: $rsp .ra: .cfa 8 - ^
STACK CFI 61f20 .cfa: $rsp 64 +
STACK CFI INIT 61f38 23 .cfa: $rsp .ra: .cfa 8 - ^
STACK CFI 61f38 .cfa: $rsp 64 +
STACK CFI INIT 61f64 13 .cfa: $rsp .ra: .cfa 8 - ^
STACK CFI 61f64 .cfa: $rsp 64 +
STACK CFI INIT 61fcc 46 .cfa: $rsp .ra: .cfa 8 - ^
STACK CFI 61fcc .cfa: $rsp 48 +
STACK CFI INIT 62024 127 .cfa: $rsp .ra: .cfa 8 - ^
STACK CFI 62024 .cfa: $rsp 96 +
STACK CFI INIT 621d8 bb .cfa: $rsp .ra: .cfa 8 - ^
STACK CFI 621d8 .cfa: $rsp 96 +
STACK CFI INIT 622cc 40 .cfa: $rsp .ra: .cfa 8 - ^
STACK CFI 622cc .cfa: $rsp 48 +
STACK CFI INIT 6231c a3 .cfa: $rsp .ra: .cfa 8 - ^
STACK CFI 6231c .cfa: $rsp 48 +
STACK CFI INIT 623e8 a4 .cfa: $rsp .ra: .cfa 8 - ^
STACK CFI 623e8 .cfa: $rsp 48 +
STACK CFI INIT 62530 a3 .cfa: $rsp .ra: .cfa 8 - ^
STACK CFI 62530 .cfa: $rsp 48 +
STACK CFI INIT 625fc a4 .cfa: $rsp .ra: .cfa 8 - ^
STACK CFI 625fc .cfa: $rsp 48 +
STACK CFI INIT 626cc aa .cfa: $rsp .ra: .cfa 8 - ^
STACK CFI 626cc .cfa: $rsp 80 +
STACK CFI INIT 627bc 27 .cfa: $rsp .ra: .cfa 8 - ^
STACK CFI 627bc .cfa: $rsp 64 +
STACK CFI INIT 627ec 3b .cfa: $rsp .ra: .cfa 8 - ^
STACK CFI 627ec .cfa: $rsp 80 +
STACK CFI INIT 62838 52 .cfa: $rsp .ra: .cfa 8 - ^
STACK CFI 62838 .cfa: $rsp 80 +
STACK CFI INIT 628a0 1c .cfa: $rsp .ra: .cfa 8 - ^
STACK CFI 628a0 .cfa: $rsp 48 +
STACK CFI INIT 628c4 be .cfa: $rsp .ra: .cfa 8 - ^
STACK CFI 628c4 .cfa: $rsp 80 +
STACK CFI INIT 629b4 71 .cfa: $rsp .ra: .cfa 8 - ^
STACK CFI 629b4 .cfa: $rsp 48 +
STACK CFI INIT 62a44 26 .cfa: $rsp .ra: .cfa 8 - ^
STACK CFI 62a44 .cfa: $rsp 48 +
STACK CFI INIT 62a94 49 .cfa: $rsp .ra: .cfa 8 - ^
STACK CFI 62a94 .cfa: $rsp 48 +
STACK CFI INIT 62b00 7e .cfa: $rsp .ra: .cfa 8 - ^
STACK CFI 62b00 .cfa: $rsp 48 +
STACK CFI INIT 62ba0 a1 .cfa: $rsp .ra: .cfa 8 - ^
STACK CFI 62ba0 .cfa: $rsp 64 +
STACK CFI INIT 62c6c bd .cfa: $rsp .ra: .cfa 8 - ^
STACK CFI 62c6c .cfa: $rsp 48 +
STACK CFI INIT 62d78 1b .cfa: $rsp .ra: .cfa 8 - ^
STACK CFI 62d78 .cfa: $rsp 48 +
STACK CFI INIT 62d9c 56 .cfa: $rsp .ra: .cfa 8 - ^
STACK CFI 62d9c .cfa: $rsp 48 +
STACK CFI INIT 62e44 ea .cfa: $rsp .ra: .cfa 8 - ^
STACK CFI 62e44 .cfa: $rsp 48 +
STACK CFI INIT 62f74 1b .cfa: $rsp .ra: .cfa 8 - ^
STACK CFI 62f74 .cfa: $rsp 48 +
STACK CFI INIT 63538 137 .cfa: $rsp .ra: .cfa 8 - ^
STACK CFI 63538 .cfa: $rsp 8 +
STACK CFI INIT 63978 147 .cfa: $rsp .ra: .cfa 8 - ^
STACK CFI 63978 .cfa: $rsp 8 +
STACK CFI INIT 63d20 6e .cfa: $rsp .ra: .cfa 8 - ^
STACK CFI 63d20 .cfa: $rsp 48 +
STACK CFI INIT 63ebc 34 .cfa: $rsp .ra: .cfa 8 - ^
STACK CFI 63ebc .cfa: $rsp 48 +
STACK CFI INIT 63f7c 2be .cfa: $rsp .ra: .cfa 8 - ^
STACK CFI 63f7c .cfa: $rsp 64 +
STACK CFI INIT 642ec 65 .cfa: $rsp .ra: .cfa 8 - ^
STACK CFI 642ec .cfa: $rsp 96 +
STACK CFI INIT 6436c ba .cfa: $rsp .ra: .cfa 8 - ^
STACK CFI 6436c .cfa: $rsp 48 +
STACK CFI INIT 64454 127 .cfa: $rsp .ra: .cfa 8 - ^
STACK CFI 64454 .cfa: $rsp 288 +
STACK CFI INIT 645c4 133 .cfa: $rsp .ra: .cfa 8 - ^
STACK CFI 645c4 .cfa: $rsp 288 +
STACK CFI INIT 64780 70 .cfa: $rsp .ra: .cfa 8 - ^
STACK CFI 64780 .cfa: $rsp 32 +
STACK CFI INIT 64830 20 .cfa: $rsp .ra: .cfa 8 - ^
STACK CFI 64830 .cfa: $rsp 64 +
STACK CFI INIT 64858 20 .cfa: $rsp .ra: .cfa 8 - ^
STACK CFI 64858 .cfa: $rsp 64 +
STACK CFI INIT 64880 20 .cfa: $rsp .ra: .cfa 8 - ^
STACK CFI 64880 .cfa: $rsp 64 +
STACK CFI INIT 648a8 96 .cfa: $rsp .ra: .cfa 8 - ^
STACK CFI 648a8 .cfa: $rsp 112 +
STACK CFI INIT 64964 20 .cfa: $rsp .ra: .cfa 8 - ^
STACK CFI 64964 .cfa: $rsp 64 +
STACK CFI INIT 6498c 9c .cfa: $rsp .ra: .cfa 8 - ^
STACK CFI 6498c .cfa: $rsp 128 +
STACK CFI INIT 64a50 87 .cfa: $rsp .ra: .cfa 8 - ^
STACK CFI 64a50 .cfa: $rsp 96 +
STACK CFI INIT 64af8 9c .cfa: $rsp .ra: .cfa 8 - ^
STACK CFI 64af8 .cfa: $rsp 80 +
STACK CFI INIT 64bd0 10 .cfa: $rsp .ra: .cfa 8 - ^
STACK CFI 64bd0 .cfa: $rsp 16 +
STACK CFI INIT 64c88 f1 .cfa: $rsp .ra: .cfa 8 - ^
STACK CFI 64c88 .cfa: $rsp 256 +
STACK CFI INIT 64db8 106 .cfa: $rsp .ra: .cfa 8 - ^
STACK CFI 64db8 .cfa: $rsp 272 +
STACK CFI INIT 64f40 267 .cfa: $rsp .ra: .cfa 8 - ^
STACK CFI 64f40 .cfa: $rsp 112 +
STACK CFI INIT 65248 27 .cfa: $rsp .ra: .cfa 8 - ^
STACK CFI 65248 .cfa: $rsp 80 +
STACK CFI INIT 65278 30d .cfa: $rsp .ra: .cfa 8 - ^
STACK CFI 65278 .cfa: $rsp 48 +
STACK CFI INIT 65648 2a .cfa: $rsp .ra: .cfa 8 - ^
STACK CFI 65648 .cfa: $rsp 80 +
STACK CFI INIT 6567c 2e .cfa: $rsp .ra: .cfa 8 - ^
STACK CFI 6567c .cfa: $rsp 48 +
STACK CFI INIT 656b8 d4 .cfa: $rsp .ra: .cfa 8 - ^
STACK CFI 656b8 .cfa: $rsp 96 +
STACK CFI INIT 657c4 1d .cfa: $rsp .ra: .cfa 8 - ^
STACK CFI 657c4 .cfa: $rsp 48 +
STACK CFI INIT 657e8 7c .cfa: $rsp .ra: .cfa 8 - ^
STACK CFI 657e8 .cfa: $rsp 48 +
STACK CFI INIT 65884 1f .cfa: $rsp .ra: .cfa 8 - ^
STACK CFI 65884 .cfa: $rsp 48 +
STACK CFI INIT 658ac 11 .cfa: $rsp .ra: .cfa 8 - ^
STACK CFI 658ac .cfa: $rsp 48 +
STACK CFI INIT 658c4 200 .cfa: $rsp .ra: .cfa 8 - ^
STACK CFI 658c4 .cfa: $rsp 128 +
STACK CFI INIT 65b4c 133 .cfa: $rsp .ra: .cfa 8 - ^
STACK CFI 65b4c .cfa: $rsp 96 +
STACK CFI INIT 65cec 1e .cfa: $rsp .ra: .cfa 8 - ^
STACK CFI 65cec .cfa: $rsp 64 +
STACK CFI INIT 66090 4d .cfa: $rsp .ra: .cfa 8 - ^
STACK CFI 66090 .cfa: $rsp 48 +
STACK CFI INIT 66138 2b .cfa: $rsp .ra: .cfa 8 - ^
STACK CFI 66138 .cfa: $rsp 48 +
STACK CFI INIT 66170 1d .cfa: $rsp .ra: .cfa 8 - ^
STACK CFI 66170 .cfa: $rsp 48 +
STACK CFI INIT 66194 5b .cfa: $rsp .ra: .cfa 8 - ^
STACK CFI 66194 .cfa: $rsp 16 +
STACK CFI INIT 66208 85 .cfa: $rsp .ra: .cfa 8 - ^
STACK CFI 66208 .cfa: $rsp 48 +
STACK CFI INIT 662c0 51 .cfa: $rsp .ra: .cfa 8 - ^
STACK CFI 662c0 .cfa: $rsp 24 +
STACK CFI INIT 664bc 89 .cfa: $rsp .ra: .cfa 8 - ^
STACK CFI 664bc .cfa: $rsp 32 +
STACK CFI INIT 66568 91 .cfa: $rsp .ra: .cfa 8 - ^
STACK CFI 66568 .cfa: $rsp 32 +
STACK CFI INIT 66620 149 .cfa: $rsp .ra: .cfa 8 - ^
STACK CFI 66620 .cfa: $rsp 32 +
STACK CFI INIT 667bc 29 .cfa: $rsp .ra: .cfa 8 - ^
STACK CFI 667bc .cfa: $rsp 48 +
STACK CFI INIT 66800 c7 .cfa: $rsp .ra: .cfa 8 - ^
STACK CFI 66800 .cfa: $rsp 8 +
STACK CFI INIT 68460 2 .cfa: $rsp .ra: .cfa 8 - ^
STACK CFI 68460 .cfa: $rsp 8 +
STACK CFI INIT 69470 17 .cfa: $rsp .ra: .cfa 8 - ^
STACK CFI 69470 .cfa: $rsp 48 +
STACK CFI INIT 6948c 1c .cfa: $rsp .ra: .cfa 8 - ^
STACK CFI 6948c .cfa: $rsp 48 +
STACK CFI INIT 694af 36 .cfa: $rsp .ra: .cfa 8 - ^
STACK CFI 694af .cfa: $rsp 64 +
STACK CFI INIT 694f2 18 .cfa: $rsp .ra: .cfa 8 - ^
STACK CFI 694f2 .cfa: $rsp 16 +
STACK CFI INIT 69510 18 .cfa: $rsp .ra: .cfa 8 - ^
STACK CFI 69510 .cfa: $rsp 48 +
STACK CFI INIT 6953d 16 .cfa: $rsp .ra: .cfa 8 - ^
STACK CFI 6953d .cfa: $rsp 48 +
STACK CFI INIT 69558 91 .cfa: $rsp .ra: .cfa 8 - ^
STACK CFI 69558 .cfa: $rsp 96 +
STACK CFI INIT 6960d 91 .cfa: $rsp .ra: .cfa 8 - ^
STACK CFI 6960d .cfa: $rsp 96 +
STACK CFI INIT 696c2 25 .cfa: $rsp .ra: .cfa 8 - ^
STACK CFI 696c2 .cfa: $rsp 48 +
STACK CFI INIT 696e7 78 .cfa: $rsp .ra: .cfa 8 - ^
STACK CFI 696e7 .cfa: $rsp 64 +
STACK CFI INIT 69786 3e .cfa: $rsp .ra: .cfa 8 - ^
STACK CFI 69786 .cfa: $rsp 64 +
STACK CFI INIT 697c4 94 .cfa: $rsp .ra: .cfa 8 - ^
STACK CFI 697c4 .cfa: $rsp 64 +
STACK CFI INIT 6988c 16 .cfa: $rsp .ra: .cfa 8 - ^
STACK CFI 6988c .cfa: $rsp 48 +
STACK CFI INIT 698a2 23 .cfa: $rsp .ra: .cfa 8 - ^
STACK CFI 698a2 .cfa: $rsp 48 +
STACK CFI INIT 698d3 16 .cfa: $rsp .ra: .cfa 8 - ^
STACK CFI 698d3 .cfa: $rsp 64 +
STACK CFI INIT 698e9 23 .cfa: $rsp .ra: .cfa 8 - ^
STACK CFI 698e9 .cfa: $rsp 64 +
STACK CFI INIT 6991a 1a .cfa: $rsp .ra: .cfa 8 - ^
STACK CFI 6991a .cfa: $rsp 48 +
STACK CFI INIT 6993a 1b .cfa: $rsp .ra: .cfa 8 - ^
STACK CFI 6993a .cfa: $rsp 48 +
STACK CFI INIT 6995b 1a .cfa: $rsp .ra: .cfa 8 - ^
STACK CFI 6995b .cfa: $rsp 48 +
STACK CFI INIT 6997b 1a .cfa: $rsp .ra: .cfa 8 - ^
STACK CFI 6997b .cfa: $rsp 48 +
STACK CFI INIT 6999b 1b .cfa: $rsp .ra: .cfa 8 - ^
STACK CFI 6999b .cfa: $rsp 48 +
STACK CFI INIT 699bc 1b .cfa: $rsp .ra: .cfa 8 - ^
STACK CFI 699bc .cfa: $rsp 48 +
STACK CFI INIT 699dd 1b .cfa: $rsp .ra: .cfa 8 - ^
STACK CFI 699dd .cfa: $rsp 48 +
STACK CFI INIT 699fe 1b .cfa: $rsp .ra: .cfa 8 - ^
STACK CFI 699fe .cfa: $rsp 48 +
STACK CFI INIT 69a1f 1b .cfa: $rsp .ra: .cfa 8 - ^
STACK CFI 69a1f .cfa: $rsp 48 +
STACK CFI INIT 69a40 1b .cfa: $rsp .ra: .cfa 8 - ^
STACK CFI 69a40 .cfa: $rsp 48 +
STACK CFI INIT 69a61 1a .cfa: $rsp .ra: .cfa 8 - ^
STACK CFI 69a61 .cfa: $rsp 48 +
STACK CFI INIT 69a81 1a .cfa: $rsp .ra: .cfa 8 - ^
STACK CFI 69a81 .cfa: $rsp 48 +
STACK CFI INIT 69aa1 1a .cfa: $rsp .ra: .cfa 8 - ^
STACK CFI 69aa1 .cfa: $rsp 48 +
STACK CFI INIT 69ac1 1a .cfa: $rsp .ra: .cfa 8 - ^
STACK CFI 69ac1 .cfa: $rsp 48 +
STACK CFI INIT 69ae1 1a .cfa: $rsp .ra: .cfa 8 - ^
STACK CFI 69ae1 .cfa: $rsp 48 +
STACK CFI INIT 69b01 19 .cfa: $rsp .ra: .cfa 8 - ^
STACK CFI 69b01 .cfa: $rsp 48 +
STACK CFI INIT 69b20 1a .cfa: $rsp .ra: .cfa 8 - ^
STACK CFI 69b20 .cfa: $rsp 48 +
STACK CFI INIT 69b40 19 .cfa: $rsp .ra: .cfa 8 - ^
STACK CFI 69b40 .cfa: $rsp 48 +
STACK CFI INIT 69b5f 16 .cfa: $rsp .ra: .cfa 8 - ^
STACK CFI 69b5f .cfa: $rsp 48 +
STACK CFI INIT 69b7a 16 .cfa: $rsp .ra: .cfa 8 - ^
STACK CFI 69b7a .cfa: $rsp 48 +
STACK CFI INIT 69b95 1a .cfa: $rsp .ra: .cfa 8 - ^
STACK CFI 69b95 .cfa: $rsp 48 +
STACK CFI INIT 69bb5 19 .cfa: $rsp .ra: .cfa 8 - ^
STACK CFI 69bb5 .cfa: $rsp 48 +
STACK CFI INIT 69bd4 21 .cfa: $rsp .ra: .cfa 8 - ^
STACK CFI 69bd4 .cfa: $rsp 48 +
STACK CFI INIT 69bfd 19 .cfa: $rsp .ra: .cfa 8 - ^
STACK CFI 69bfd .cfa: $rsp 48 +
STACK CFI INIT 69c1c 1b .cfa: $rsp .ra: .cfa 8 - ^
STACK CFI 69c1c .cfa: $rsp 48 +
STACK CFI INIT 69c3d 1d .cfa: $rsp .ra: .cfa 8 - ^
STACK CFI 69c3d .cfa: $rsp 48 +
STACK CFI INIT 69c61 1b .cfa: $rsp .ra: .cfa 8 - ^
STACK CFI 69c61 .cfa: $rsp 48 +
STACK CFI INIT 69c82 18 .cfa: $rsp .ra: .cfa 8 - ^
STACK CFI 69c82 .cfa: $rsp 48 +
STACK CFI INIT 69ca0 1a .cfa: $rsp .ra: .cfa 8 - ^
STACK CFI 69ca0 .cfa: $rsp 48 +
STACK CFI INIT 69cc0 1a .cfa: $rsp .ra: .cfa 8 - ^
STACK CFI 69cc0 .cfa: $rsp 48 +
STACK CFI INIT 69ce0 1a .cfa: $rsp .ra: .cfa 8 - ^
STACK CFI 69ce0 .cfa: $rsp 48 +
STACK CFI INIT 69d00 1a .cfa: $rsp .ra: .cfa 8 - ^
STACK CFI 69d00 .cfa: $rsp 48 +
STACK CFI INIT 69d20 21 .cfa: $rsp .ra: .cfa 8 - ^
STACK CFI 69d20 .cfa: $rsp 48 +
STACK CFI INIT 69d49 1a .cfa: $rsp .ra: .cfa 8 - ^
STACK CFI 69d49 .cfa: $rsp 48 +
STACK CFI INIT 69d69 19 .cfa: $rsp .ra: .cfa 8 - ^
STACK CFI 69d69 .cfa: $rsp 48 +
STACK CFI INIT 69d82 19 .cfa: $rsp .ra: .cfa 8 - ^
STACK CFI 69d82 .cfa: $rsp 48 +
STACK CFI INIT 69da7 19 .cfa: $rsp .ra: .cfa 8 - ^
STACK CFI 69da7 .cfa: $rsp 48 +
STACK CFI INIT 69dc6 19 .cfa: $rsp .ra: .cfa 8 - ^
STACK CFI 69dc6 .cfa: $rsp 48 +
STACK CFI INIT 69de5 19 .cfa: $rsp .ra: .cfa 8 - ^
STACK CFI 69de5 .cfa: $rsp 48 +
STACK CFI INIT 69e04 41 .cfa: $rsp .ra: .cfa 8 - ^
STACK CFI 69e04 .cfa: $rsp 48 +
STACK CFI INIT 69e55 1a .cfa: $rsp .ra: .cfa 8 - ^
STACK CFI 69e55 .cfa: $rsp 48 +
STACK CFI INIT 69e75 17 .cfa: $rsp .ra: .cfa 8 - ^
STACK CFI 69e75 .cfa: $rsp 48 +
STACK CFI INIT 69e91 19 .cfa: $rsp .ra: .cfa 8 - ^
STACK CFI 69e91 .cfa: $rsp 48 +
STACK CFI INIT 69eb0 17 .cfa: $rsp .ra: .cfa 8 - ^
STACK CFI 69eb0 .cfa: $rsp 48 +
STACK CFI INIT 69ecc 17 .cfa: $rsp .ra: .cfa 8 - ^
STACK CFI 69ecc .cfa: $rsp 48 +
STACK CFI INIT 69ee8 1a .cfa: $rsp .ra: .cfa 8 - ^
STACK CFI 69ee8 .cfa: $rsp 48 +
STACK CFI INIT 69f08 17 .cfa: $rsp .ra: .cfa 8 - ^
STACK CFI 69f08 .cfa: $rsp 48 +
STACK CFI INIT 69f24 18 .cfa: $rsp .ra: .cfa 8 - ^
STACK CFI 69f24 .cfa: $rsp 48 +
STACK CFI INIT 69f42 1a .cfa: $rsp .ra: .cfa 8 - ^
STACK CFI 69f42 .cfa: $rsp 48 +
STACK CFI INIT 69f62 19 .cfa: $rsp .ra: .cfa 8 - ^
STACK CFI 69f62 .cfa: $rsp 48 +
STACK CFI INIT 69f81 2c .cfa: $rsp .ra: .cfa 8 - ^
STACK CFI 69f81 .cfa: $rsp 48 +
STACK CFI INIT 69fb8 2c .cfa: $rsp .ra: .cfa 8 - ^
STACK CFI 69fb8 .cfa: $rsp 48 +
STACK CFI INIT 69ff0 20 .cfa: $rsp .ra: .cfa 8 - ^
STACK CFI 69ff0 .cfa: $rsp 48 +
