MODULE windows x86_64 72E103A85CB249078B76B2E7C06257B13 dump_syms_regtest64.pdb
INFO CODE_ID 589DFD111A000 dump_syms_regtest64.exe
FUNC 1000 6 0 google_breakpad::i()
FUNC 1010 6a 0 main(int, char**)
FUNC 1080 26 0 google_breakpad::C::C()
FUNC 10b0 15 0 google_breakpad::C::~C()
FUNC 10d0 36 0 google_breakpad::C::`scalar deleting destructor'(unsigned int)
FUNC 1110 26 0 google_breakpad::C::f()
FUNC 1140 b 0 google_breakpad::C::g()
FUNC 1150 8 0 google_breakpad::C::h(google_breakpad::C const&)
FUNC 1160 16 0 google_breakpad::C::set_member(int)
FUNC 1178 5 0 operator delete(void*)
FUNC 1180 39 0 type_info::`scalar deleting destructor'(unsigned int)
FUNC 11bc 180 0 __tmainCRTStartup()
FUNC 133c 2c 0 fast_error_exit(int)
FUNC 1368 12 0 mainCRTStartup()
FUNC 137c 3d 0 free(void*)
FUNC 13d0 67 0 strcmp()
FUNC 1438 6c 0 type_info::_Type_info_dtor(type_info*)
FUNC 14a4 38 0 __CxxUnhandledExceptionFilter(_EXCEPTION_POINTERS*)
FUNC 14dc 17 0 __CxxSetUnhandledExceptionFilter()
FUNC 14f4 1cc 0 _XcptFilter(unsigned long, _EXCEPTION_POINTERS*)
FUNC 16c0 133 0 _freefls(void*)
FUNC 17f4 24 0 _getptd()
FUNC 1818 82 0 _getptd_noexit()
FUNC 189c c2 0 _initptd(_tiddata*, threadlocaleinfostruct*)
FUNC 1960 7f 0 _mtinit()
FUNC 19e0 24 0 _mtterm()
FUNC 1a04 41 0 __crtCorExitProcess(int)
FUNC 1a48 16 0 __crtExitProcess(int)
FUNC 1a60 26 0 _amsg_exit(int)
FUNC 1a88 f 0 _c_exit()
FUNC 1a98 d 0 _cexit()
FUNC 1aa8 96 0 _cinit(int)
FUNC 1b40 c 0 _exit(int)
FUNC 1b4c 4b 0 _init_pointers(<NoType>)
FUNC 1b98 60 0 _initterm(void (**)(), void (**)())
FUNC 1bf8 39 0 _initterm_e(int (**)(), int (**)())
FUNC 1c34 a 0 _lockexit()
FUNC 1c40 a 0 _unlockexit()
FUNC 1c4c 195 0 doexit(int, int, int)
FUNC 1de4 a 0 exit(int)
FUNC 1df0 20 0 _heap_init()
FUNC 1e10 32d 0 _ioinit()
FUNC 2140 f3 0 _setargv()
FUNC 2234 1c7 0 parse_cmdline(char*, char**, char*, int*, int*)
FUNC 23fc 131 0 _setenvp()
FUNC 2530 43 0 _FF_MSGBANNER()
FUNC 2574 2f 0 _GET_RTERRMSG(int)
FUNC 25a4 26f 0 _NMSG_WRITE(int)
FUNC 2814 7 0 __set_app_type(int)
FUNC 281c 40 0 _set_error_mode(int)
FUNC 285c ac 0 __security_init_cookie()
FUNC 2908 38 0 _RTC_Initialize()
FUNC 2940 38 0 _RTC_Terminate()
FUNC 2978 f4 0 __crtGetEnvironmentStringsA()
FUNC 2a6c 1e1 0 __C_specific_handler(_EXCEPTION_RECORD*, void*, _CONTEXT*, _DISPATCHER_CONTEXT*)
FUNC 2c50 20 0 __doserrno()
FUNC 2c70 4e 0 _dosmaperr(unsigned long)
FUNC 2cc0 20 0 _errno()
FUNC 2ce0 4d 0 _get_errno_from_oserr(unsigned long)
FUNC 2d30 f2 0 _call_reportfault(int, unsigned long, unsigned long)
FUNC 2e24 8 0 _initp_misc_invarg(void*)
FUNC 2e2c 65 0 _invalid_parameter(wchar_t const*, wchar_t const*, wchar_t const*, unsigned int, unsigned long long)
FUNC 2e94 1e 0 _invalid_parameter_noinfo()
FUNC 2eb4 3b 0 _invoke_watson(wchar_t const*, wchar_t const*, wchar_t const*, unsigned int, unsigned long long)
FUNC 2ef0 61 0 strcpy_s(char*, unsigned long long, char const*)
FUNC 2f70 a8 0 strlen()
FUNC 3018 44 0 _lock(int)
FUNC 305c 87 0 _mtdeletelocks()
FUNC 30e4 bd 0 _mtinitlocknum(int)
FUNC 31a4 61 0 _mtinitlocks()
FUNC 3208 18 0 _unlock(int)
FUNC 3220 b6 0 malloc(unsigned long long)
FUNC 32f0 24 0 _local_unwind()
FUNC 3320 18 0 _NLG_Notify()
FUNC 3340 1 0 __NLG_Dispatch2()
FUNC 3350 1 0 __NLG_Return2()
FUNC 3354 1f 0 terminate()
FUNC 3374 1d 0 _initp_eh_hooks(void*)
FUNC 3394 6d 0 __crtCaptureCurrentContext(_CONTEXT*)
FUNC 3404 71 0 __crtCapturePreviousContext(_CONTEXT*)
FUNC 3478 1a 0 __crtFlsAlloc(void (*)(void*))
FUNC 3494 1a 0 __crtFlsFree(unsigned long)
FUNC 34b0 1a 0 __crtFlsGetValue(unsigned long)
FUNC 34cc 1a 0 __crtFlsSetValue(unsigned long, void*)
FUNC 34e8 2b 0 __crtInitializeCriticalSectionEx(_RTL_CRITICAL_SECTION*, unsigned long, unsigned long)
FUNC 3514 4c 0 __crtIsPackagedApp()
FUNC 3560 3fa 0 __crtLoadWinApiPointers()
FUNC 395c 7 0 __crtSetUnhandledExceptionFilter(long (*)(_EXCEPTION_POINTERS*))
FUNC 3964 7 0 __crtSleep(unsigned long)
FUNC 396c 1f 0 __crtTerminateProcess(unsigned int)
FUNC 398c 20 0 __crtUnhandledException(_EXCEPTION_POINTERS*)
FUNC 39ac 7f 0 _calloc_crt(unsigned long long, unsigned long long)
FUNC 3a2c 7a 0 _malloc_crt(unsigned long long)
FUNC 3aa8 81 0 _realloc_crt(void*, unsigned long long)
FUNC 3b2c 8c 0 __addlocaleref(threadlocaleinfostruct*)
FUNC 3bb8 196 0 __freetlocinfo(threadlocaleinfostruct*)
FUNC 3d50 a4 0 __removelocaleref(threadlocaleinfostruct*)
FUNC 3df4 75 0 __updatetlocinfo()
FUNC 3e6c 62 0 _updatetlocinfoEx_nolock(threadlocaleinfostruct**, threadlocaleinfostruct*)
FUNC 3ed0 28 0 __initmbctable()
FUNC 3ef8 a8 0 _LocaleUpdate::_LocaleUpdate(localeinfo_struct*)
FUNC 3fa0 7d 0 getSystemCP(int)
FUNC 4020 8e 0 setSBCS(threadmbcinfostruct*)
FUNC 40b0 1e1 0 setSBUpLow(threadmbcinfostruct*)
FUNC 4294 ba 0 __updatetmbcinfo()
FUNC 4350 244 0 _setmbcp(int)
FUNC 4594 2ae 0 _setmbcp_nolock(int, threadmbcinfostruct*)
FUNC 4850 44 0 _FindPESection(unsigned char*, unsigned long long)
FUNC 48a0 4d 0 _IsNonwritableInCurrentImage(unsigned char*)
FUNC 48f0 2e 0 _ValidateImageBase(unsigned char*)
FUNC 4920 43 0 __onexitinit()
FUNC 4964 10a 0 _onexit(int (*)())
FUNC 4a70 17 0 atexit(void (*)())
FUNC 4a88 39 0 _initp_misc_cfltcvt_tab(<NoType>)
FUNC 4ac4 33 0 _callnewh(unsigned long long)
FUNC 4af8 8 0 _initp_heap_handler(void*)
FUNC 4b00 8 0 _initp_misc_purevirt(void*)
FUNC 4b08 e 0 __get_sigabrt()
FUNC 4b18 1d 0 _initp_misc_winsig(void*)
FUNC 4b38 233 0 raise(int)
FUNC 4d6c 8 0 _initp_misc_rand_s(void*)
FUNC 4d74 98 0 __initstdio()
FUNC 4e0c 30 0 __endstdio()
FUNC 4e3c 65 0 _lock_file(_iobuf*)
FUNC 4ea4 31 0 _lock_file2(int, void*)
FUNC 4ed8 4e 0 _unlock_file(_iobuf*)
FUNC 4f28 1d 0 _unlock_file2(int, void*)
FUNC 4f48 79 0 x_ismbbtype_l(localeinfo_struct*, unsigned int, int, int)
FUNC 4fc4 12 0 _ismbblead(unsigned int)
FUNC 4fd8 85 0 wcscat_s(unsigned short*, unsigned long long, wchar_t const*)
FUNC 5060 6b 0 wcscpy_s(unsigned short*, unsigned long long, wchar_t const*)
FUNC 50cc 19 0 wcslen(wchar_t const*)
FUNC 50e8 cc 0 wcsncpy_s(unsigned short*, unsigned long long, wchar_t const*, unsigned long long)
FUNC 51b4 273 0 __crtMessageBoxW(wchar_t const*, wchar_t const*, unsigned int)
FUNC 5428 1d 0 __GSHandlerCheck(_EXCEPTION_RECORD*, void*, _CONTEXT*, _DISPATCHER_CONTEXT*)
FUNC 5448 63 0 __GSHandlerCheckCommon(void*, _DISPATCHER_CONTEXT*, _GS_HANDLER_DATA*)
FUNC 54c0 1f 0 __security_check_cookie()
FUNC 54e0 8 0 __crt_debugger_hook(int)
FUNC 5500 22a 0 memset()
FUNC 572c 55 0 abort()
FUNC 5784 d3 0 realloc(void*, unsigned long long)
FUNC 5858 9a 0 _calloc_impl(unsigned long long, unsigned long long, int*)
FUNC 58f4 10a 0 __free_lconv_mon(lconv*)
FUNC 5a00 6c 0 __free_lconv_num(lconv*)
FUNC 5a6c 3fa 0 __free_lc_time(__lc_time_data*)
FUNC 5e68 2ec 0 __crtLCMapStringA_stat(localeinfo_struct*, wchar_t const*, unsigned long, char const*, int, char*, int, int, int)
FUNC 6154 96 0 __crtLCMapStringA(localeinfo_struct*, wchar_t const*, unsigned long, char const*, int, char*, int, int, int)
FUNC 61ec 176 0 __crtGetStringTypeA_stat(localeinfo_struct*, unsigned long, char const*, int, unsigned short*, int, int)
FUNC 6364 7c 0 __crtGetStringTypeA(localeinfo_struct*, unsigned long, char const*, int, unsigned short*, int, int)
FUNC 63e0 39 0 _msize(void*)
FUNC 641c a 0 _fptrap()
FUNC 6428 8a 0 GetTableIndexFromLocaleName(wchar_t const*)
FUNC 64b4 32 0 __crtDownlevelLocaleNameToLCID(wchar_t const*)
FUNC 64e8 8f 0 __crtLCMapStringEx(wchar_t const*, unsigned long, wchar_t const*, int, unsigned short*, int)
FUNC 6578 55 0 __wcsnicmp_ascii(wchar_t const*, wchar_t const*, unsigned long long)
FUNC 65e0 565 0 memcpy()
FUNC 6b48 26 0 _fileno(_iobuf*)
FUNC 6b70 5f 0 _isatty(int)
FUNC 6bd0 4c 0 _fflush_nolock(_iobuf*)
FUNC 6c1c 79 0 _flush(_iobuf*)
FUNC 6c98 a 0 _flushall()
FUNC 6ca4 e6 0 flsall(int)
FUNC 6d8c a8 0 _fcloseall()
FUNC 6e34 49 0 __raise_securityfailure(_EXCEPTION_POINTERS*)
FUNC 6e80 d1 0 __report_gsfailure(unsigned long long)
FUNC 6f54 1a4 0 __isa_available_init(<NoType>)
FUNC 70f8 47 0 _locterm()
FUNC 7150 4e 0 __chkstk()
FUNC 71a0 d7 0 _commit(int)
FUNC 7278 e1 0 _write(int, void const*, unsigned int)
FUNC 735c 7f1 0 _write_nolock(int, void const*, unsigned int)
FUNC 7b50 7a 0 _fclose_nolock(_iobuf*)
FUNC 7bcc 66 0 fclose(_iobuf*)
FUNC 7c34 db 0 _isctype_l(int, int, localeinfo_struct*)
FUNC 7d10 cf 0 __crt_atoflt_l(_CRT_FLOAT*, char const*, localeinfo_struct*, char**)
FUNC 7de0 c7 0 _atodbl_l(_CRT_DOUBLE*, char*, localeinfo_struct*)
FUNC 7ea8 8 0 _atoflt_l(_CRT_FLOAT*, char const*, localeinfo_struct*)
FUNC 7eb0 5 0 _fpmath(int)
FUNC 7eb8 86 0 _cfltcvt_init(<NoType>)
FUNC 7f50 c7 0 memcmp()
FUNC 8018 98 0 __lock_fhandle(int)
FUNC 80b0 aa 0 _free_osfhnd(int)
FUNC 815c 74 0 _get_osfhandle(int)
FUNC 81d0 2a 0 _unlock_fhandle(int)
FUNC 81fc 43 0 _isleadbyte_l(int, localeinfo_struct*)
FUNC 8240 45 0 isleadbyte(int)
FUNC 8288 93 0 _lseeki64_nolock(int, long long, int)
FUNC 831c 151 0 _mbtowc_l(wchar_t*, char const*, unsigned long long, localeinfo_struct*)
FUNC 8470 8 0 mbtowc(wchar_t*, char const*, unsigned long long)
FUNC 8478 59 0 _putwch_nolock(wchar_t)
FUNC 84d4 c3 0 _close(int)
FUNC 8598 ba 0 _close_nolock(int)
FUNC 8654 37 0 _freebuf(_iobuf*)
FUNC 8690 5b6 0 _ld12tod(_LDBL12*, _CRT_DOUBLE*)
FUNC 8c48 5b6 0 _ld12tof(_LDBL12*, _CRT_FLOAT*)
FUNC 9200 861 0 __strgtold12_l(_LDBL12*, char const**, char const*, int, int, int, int, localeinfo_struct*)
FUNC 9a64 24 0 _cfltcvt(double*, char*, unsigned long long, int, int, int)
FUNC 9a88 7e 0 _cfltcvt_l(double*, char*, unsigned long long, int, int, int, localeinfo_struct*)
FUNC 9b08 3b0 0 _cftoa_l(double*, char*, unsigned long long, int, int, localeinfo_struct*)
FUNC 9eb8 1f9 0 _cftoe2_l(char*, unsigned long long, int, int, _strflt*, char, localeinfo_struct*)
FUNC a0b4 f7 0 _cftoe_l(double*, char*, unsigned long long, int, int, localeinfo_struct*)
FUNC a1ac 161 0 _cftof2_l(char*, unsigned long long, int, _strflt*, char, localeinfo_struct*)
FUNC a310 d1 0 _cftof_l(double*, char*, unsigned long long, int, localeinfo_struct*)
FUNC a3e4 134 0 _cftog_l(double*, char*, unsigned long long, int, int, localeinfo_struct*)
FUNC a518 7 0 _cropzeros(char*)
FUNC a520 96 0 _cropzeros_l(char*, localeinfo_struct*)
FUNC a5b8 8 0 _fassign(int, char*, char*)
FUNC a5c0 40 0 _fassign_l(int, char*, char*, localeinfo_struct*)
FUNC a600 7 0 _forcdecpt(char*)
FUNC a608 7f 0 _forcdecpt_l(char*, localeinfo_struct*)
FUNC a688 12 0 _positive(double*)
FUNC a69c 20 0 __termconout()
FUNC a6bc 3b 0 __initconout()
FUNC a6f8 222 0 __mtold12(char*, unsigned int, _LDBL12*)
FUNC a91c 7a 0 isdigit(int)
FUNC a998 152 0 _tolower_l(int, localeinfo_struct*)
FUNC aaec 1e 0 tolower(int)
FUNC ab0c 144 0 strrchr(char const*, int)
FUNC ac50 cb 0 _fptostr(char*, unsigned long long, int, _strflt*)
FUNC ad1c cd 0 __dtold(_LDOUBLE*, double*)
FUNC adec b7 0 _fltout2(_CRT_DOUBLE, _strflt*, char*, unsigned long long)
FUNC aea4 ad8 0 $I10_OUTPUT(_LDOUBLE, int, unsigned int, _FloatOutStruct*)
PUBLIC b97c 0 RtlUnwindEx
PUBLIC b982 0 IsProcessorFeaturePresent
FUNC b990 1e 0 __tmainCRTStartup$filt$0
FUNC b9ae 19 0 `type_info::_Type_info_dtor'::`1'::fin$0
FUNC b9c7 19 0 _freefls$fin$1
FUNC b9e0 19 0 _freefls$fin$0
FUNC b9f9 19 0 _initptd$fin$1
FUNC ba12 19 0 _initptd$fin$0
FUNC ba2b 24 0 doexit$fin$0
FUNC ba4f 1b 0 _ioinit$fin$0
FUNC ba6a 1d 0 _mtinitlocknum$fin$0
FUNC ba87 19 0 __updatetlocinfo$fin$0
FUNC baa0 19 0 __updatetmbcinfo$fin$0
FUNC bab9 19 0 _setmbcp$fin$0
FUNC bae0 20 0 _IsNonwritableInCurrentImage$filt$0
FUNC bb00 14 0 _onexit$fin$0
FUNC bb14 1e 0 raise$fin$0
FUNC bb32 28 0 flsall$fin$0
FUNC bb5a 19 0 flsall$fin$1
FUNC bb73 19 0 _fcloseall$fin$0
FUNC bb8c 19 0 _locterm$fin$0
FUNC bba5 17 0 _commit$fin$0
FUNC bbbc 17 0 _write$fin$0
FUNC bbd3 18 0 fclose$fin$0
FUNC bbeb 19 0 __lock_fhandle$fin$0
FUNC bc04 17 0 _close$fin$0
PUBLIC bc1b 0 <unknown in dump_syms_regtest64.exe>
STACK CFI INIT 1010 6a .cfa: $rsp 80 + .ra: .cfa 8 - ^
STACK CFI INIT 10d0 36 .cfa: $rsp 48 + .ra: .cfa 8 - ^
STACK CFI INIT 1110 26 .cfa: $rsp 48 + .ra: .cfa 8 - ^
STACK CFI INIT 1180 39 .cfa: $rsp 48 + $rdi: .cfa 16 - ^ $rbx: .cfa 0 - ^ .ra: .cfa 8 - ^
STACK CFI INIT 11bc 180 .cfa: $rsp 64 + $rdi: .cfa 16 - ^ $rbx: .cfa 0 - ^ .ra: .cfa 8 - ^
STACK CFI INIT 133c 2c .cfa: $rsp 48 + $rbx: .cfa 16 - ^ .ra: .cfa 8 - ^
STACK CFI INIT 1368 12 .cfa: $rsp 48 + .ra: .cfa 8 - ^
STACK CFI INIT 137c 3d .cfa: $rsp 48 + $rbx: .cfa 16 - ^ .ra: .cfa 8 - ^
STACK CFI INIT 13d0 67 .cfa: $rsp 8 + .ra: .cfa 8 - ^
STACK CFI INIT 1438 6c .cfa: $rsp 64 + $rbx: .cfa 16 - ^ .ra: .cfa 8 - ^
STACK CFI INIT 14a4 38 .cfa: $rsp 48 + .ra: .cfa 8 - ^
STACK CFI INIT 14dc 17 .cfa: $rsp 48 + .ra: .cfa 8 - ^
STACK CFI INIT 14f4 1cc .cfa: $rsp 48 + $rdi: .cfa 16 - ^ $rbx: .cfa 0 - ^ $rbp: .cfa 0 - ^ $rsi: .cfa 0 - ^ .ra: .cfa 8 - ^
STACK CFI INIT 16c0 133 .cfa: $rsp 48 + $rdi: .cfa 16 - ^ $rbx: .cfa 0 - ^ .ra: .cfa 8 - ^
STACK CFI INIT 17f4 24 .cfa: $rsp 48 + $rbx: .cfa 16 - ^ .ra: .cfa 8 - ^
STACK CFI INIT 1818 82 .cfa: $rsp 48 + $rdi: .cfa 16 - ^ $rbx: .cfa 0 - ^ .ra: .cfa 8 - ^
STACK CFI INIT 189c c2 .cfa: $rsp 48 + $rdi: .cfa 16 - ^ $rbx: .cfa 0 - ^ .ra: .cfa 8 - ^
STACK CFI INIT 1960 7f .cfa: $rsp 48 + $rbx: .cfa 16 - ^ .ra: .cfa 8 - ^
STACK CFI INIT 19e0 24 .cfa: $rsp 48 + .ra: .cfa 8 - ^
STACK CFI INIT 1a04 41 .cfa: $rsp 48 + $rbx: .cfa 16 - ^ .ra: .cfa 8 - ^
STACK CFI INIT 1a48 16 .cfa: $rsp 48 + $rbx: .cfa 16 - ^ .ra: .cfa 8 - ^
STACK CFI INIT 1a60 26 .cfa: $rsp 48 + $rbx: .cfa 16 - ^ .ra: .cfa 8 - ^
STACK CFI INIT 1aa8 96 .cfa: $rsp 48 + $rbx: .cfa 16 - ^ .ra: .cfa 8 - ^
STACK CFI INIT 1b4c 4b .cfa: $rsp 48 + $rbx: .cfa 16 - ^ .ra: .cfa 8 - ^
STACK CFI INIT 1b98 60 .cfa: $rsp 48 + $rdi: .cfa 16 - ^ $rbx: .cfa 0 - ^ $rbp: .cfa 0 - ^ $rsi: .cfa 0 - ^ .ra: .cfa 8 - ^
STACK CFI INIT 1bf8 39 .cfa: $rsp 48 + $rdi: .cfa 16 - ^ $rbx: .cfa 0 - ^ .ra: .cfa 8 - ^
STACK CFI INIT 1c4c 195 .cfa: $rsp 112 + $rdi: .cfa 16 - ^ $r12: .cfa 24 - ^ $r13: .cfa 32 - ^ $r14: .cfa 40 - ^ $r15: .cfa 48 - ^ $rbx: .cfa 0 - ^ $rsi: .cfa 0 - ^ .ra: .cfa 8 - ^
STACK CFI INIT 1df0 20 .cfa: $rsp 48 + .ra: .cfa 8 - ^
STACK CFI INIT 1e10 32d .cfa: $rsp 224 + $r13: .cfa 16 - ^ $r14: .cfa 24 - ^ $r15: .cfa 32 - ^ $rbx: .cfa 0 - ^ $rsi: .cfa 0 - ^ $rdi: .cfa 0 - ^ $r12: .cfa 0 - ^ .ra: .cfa 8 - ^
STACK CFI INIT 2140 f3 .cfa: $rsp 64 + $rdi: .cfa 16 - ^ $rbx: .cfa 0 - ^ $rsi: .cfa 0 - ^ .ra: .cfa 8 - ^
STACK CFI INIT 2234 1c7 .cfa: $rsp 64 + $r12: .cfa 16 - ^ $r14: .cfa 24 - ^ $r15: .cfa 32 - ^ $rbx: .cfa 0 - ^ $rbp: .cfa 0 - ^ $rsi: .cfa 0 - ^ $rdi: .cfa 0 - ^ .ra: .cfa 8 - ^
STACK CFI INIT 23fc 131 .cfa: $rsp 64 + $rdi: .cfa 16 - ^ $rbx: .cfa 0 - ^ $rbp: .cfa 0 - ^ $rsi: .cfa 0 - ^ .ra: .cfa 8 - ^
STACK CFI INIT 2530 43 .cfa: $rsp 48 + .ra: .cfa 8 - ^
STACK CFI INIT 25a4 26f .cfa: $rsp 624 + $rdi: .cfa 16 - ^ $r14: .cfa 24 - ^ $r15: .cfa 32 - ^ $rbx: .cfa 0 - ^ $rbp: .cfa 0 - ^ $rsi: .cfa 0 - ^ .ra: .cfa 8 - ^
STACK CFI INIT 281c 40 .cfa: $rsp 48 + .ra: .cfa 8 - ^
STACK CFI INIT 285c ac .cfa: $rsp 48 + $rbp: .cfa 16 - ^ $rbx: .cfa 0 - ^ .ra: .cfa 8 - ^
STACK CFI INIT 2908 38 .cfa: $rsp 48 + $rdi: .cfa 16 - ^ $rbx: .cfa 0 - ^ .ra: .cfa 8 - ^
STACK CFI INIT 2940 38 .cfa: $rsp 48 + $rdi: .cfa 16 - ^ $rbx: .cfa 0 - ^ .ra: .cfa 8 - ^
STACK CFI INIT 2978 f4 .cfa: $rsp 80 + $r14: .cfa 16 - ^ $rbx: .cfa 0 - ^ $rbp: .cfa 0 - ^ $rsi: .cfa 0 - ^ $rdi: .cfa 0 - ^ .ra: .cfa 8 - ^
STACK CFI INIT 2a6c 1e1 .cfa: $rsp 112 + $rdi: .cfa 16 - ^ $r12: .cfa 24 - ^ $r13: .cfa 32 - ^ $r14: .cfa 40 - ^ $r15: .cfa 48 - ^ $rbx: .cfa 0 - ^ $rbp: .cfa 0 - ^ $rsi: .cfa 0 - ^ .ra: .cfa 8 - ^
STACK CFI INIT 2c50 20 .cfa: $rsp 48 + .ra: .cfa 8 - ^
STACK CFI INIT 2c70 4e .cfa: $rsp 48 + $rdi: .cfa 16 - ^ $rbx: .cfa 0 - ^ .ra: .cfa 8 - ^
STACK CFI INIT 2cc0 20 .cfa: $rsp 48 + .ra: .cfa 8 - ^
STACK CFI INIT 2d30 f2 .cfa: $rsp 1472 + $rbp: .cfa 16 - ^ $rbx: .cfa 0 - ^ $rsi: .cfa 0 - ^ $rdi: .cfa 0 - ^ .ra: .cfa 8 - ^
STACK CFI INIT 2e2c 65 .cfa: $rsp 64 + $rdi: .cfa 16 - ^ $rbx: .cfa 0 - ^ $rbp: .cfa 0 - ^ $rsi: .cfa 0 - ^ .ra: .cfa 8 - ^
STACK CFI INIT 2e94 1e .cfa: $rsp 64 + .ra: .cfa 8 - ^
STACK CFI INIT 2eb4 3b .cfa: $rsp 48 + .ra: .cfa 8 - ^
STACK CFI INIT 2ef0 61 .cfa: $rsp 48 + $rbx: .cfa 16 - ^ .ra: .cfa 8 - ^
STACK CFI INIT 2f70 a8 .cfa: $rsp 8 + .ra: .cfa 8 - ^
STACK CFI INIT 3018 44 .cfa: $rsp 48 + $rdi: .cfa 16 - ^ $rbx: .cfa 0 - ^ .ra: .cfa 8 - ^
STACK CFI INIT 305c 87 .cfa: $rsp 48 + $rdi: .cfa 16 - ^ $rbx: .cfa 0 - ^ $rbp: .cfa 0 - ^ $rsi: .cfa 0 - ^ .ra: .cfa 8 - ^
STACK CFI INIT 30e4 bd .cfa: $rsp 48 + $r14: .cfa 16 - ^ $rbx: .cfa 0 - ^ $rdi: .cfa 0 - ^ .ra: .cfa 8 - ^
STACK CFI INIT 31a4 61 .cfa: $rsp 48 + $rdi: .cfa 16 - ^ $rbx: .cfa 0 - ^ $rsi: .cfa 0 - ^ .ra: .cfa 8 - ^
STACK CFI INIT 3220 b6 .cfa: $rsp 48 + $rdi: .cfa 16 - ^ $rbx: .cfa 0 - ^ $rsi: .cfa 0 - ^ .ra: .cfa 8 - ^
STACK CFI INIT 32f0 24 .cfa: $rsp 1248 + .ra: .cfa 8 - ^
STACK CFI INIT 3320 18 .cfa: $rsp 8 + .ra: .cfa 8 - ^
STACK CFI INIT 3340 1 .cfa: $rsp 8 + .ra: .cfa 8 - ^
STACK CFI INIT 3350 1 .cfa: $rsp 8 + .ra: .cfa 8 - ^
STACK CFI INIT 3354 1f .cfa: $rsp 48 + .ra: .cfa 8 - ^
STACK CFI INIT 3374 1d .cfa: $rsp 48 + .ra: .cfa 8 - ^
STACK CFI INIT 3394 6d .cfa: $rsp 80 + $rdi: .cfa 16 - ^ $rbx: .cfa 0 - ^ .ra: .cfa 8 - ^
STACK CFI INIT 3404 71 .cfa: $rsp 96 + $rbx: .cfa 16 - ^ $rsi: .cfa 24 - ^ $rdi: .cfa 32 - ^ .ra: .cfa 8 - ^
STACK CFI INIT 34e8 2b .cfa: $rsp 48 + .ra: .cfa 8 - ^
STACK CFI INIT 3514 4c .cfa: $rsp 48 + $rbx: .cfa 16 - ^ .ra: .cfa 8 - ^
STACK CFI INIT 3560 3fa .cfa: $rsp 48 + $rbx: .cfa 16 - ^ .ra: .cfa 8 - ^
STACK CFI INIT 396c 1f .cfa: $rsp 48 + $rbx: .cfa 16 - ^ .ra: .cfa 8 - ^
STACK CFI INIT 398c 20 .cfa: $rsp 48 + $rbx: .cfa 16 - ^ .ra: .cfa 8 - ^
STACK CFI INIT 39ac 7f .cfa: $rsp 48 + $r14: .cfa 16 - ^ $rbx: .cfa 0 - ^ $rbp: .cfa 0 - ^ $rsi: .cfa 0 - ^ $rdi: .cfa 0 - ^ .ra: .cfa 8 - ^
STACK CFI INIT 3a2c 7a .cfa: $rsp 48 + $r14: .cfa 16 - ^ $rbx: .cfa 0 - ^ $rbp: .cfa 0 - ^ $rsi: .cfa 0 - ^ $rdi: .cfa 0 - ^ .ra: .cfa 8 - ^
STACK CFI INIT 3aa8 81 .cfa: $rsp 48 + $r14: .cfa 16 - ^ $rbx: .cfa 0 - ^ $rbp: .cfa 0 - ^ $rsi: .cfa 0 - ^ $rdi: .cfa 0 - ^ .ra: .cfa 8 - ^
STACK CFI INIT 3bb8 196 .cfa: $rsp 48 + $rdi: .cfa 16 - ^ $rbx: .cfa 0 - ^ $rbp: .cfa 0 - ^ $rsi: .cfa 0 - ^ .ra: .cfa 8 - ^
STACK CFI INIT 3df4 75 .cfa: $rsp 48 + $rbx: .cfa 16 - ^ .ra: .cfa 8 - ^
STACK CFI INIT 3e6c 62 .cfa: $rsp 48 + $rdi: .cfa 16 - ^ $rbx: .cfa 0 - ^ .ra: .cfa 8 - ^
STACK CFI INIT 3ed0 28 .cfa: $rsp 48 + .ra: .cfa 8 - ^
STACK CFI INIT 3ef8 a8 .cfa: $rsp 48 + $rbx: .cfa 16 - ^ .ra: .cfa 8 - ^
STACK CFI INIT 3fa0 7d .cfa: $rsp 80 + $rbx: .cfa 16 - ^ .ra: .cfa 8 - ^
STACK CFI INIT 4020 8e .cfa: $rsp 48 + $rdi: .cfa 16 - ^ $rbx: .cfa 0 - ^ $rbp: .cfa 0 - ^ $rsi: .cfa 0 - ^ .ra: .cfa 8 - ^
STACK CFI INIT 40b0 1e1 .cfa: $rsp 1424 + $rbp: .cfa 16 - ^ $rbx: .cfa 0 - ^ $rdi: .cfa 0 - ^ .ra: .cfa 8 - ^
STACK CFI INIT 4294 ba .cfa: $rsp 48 + $rdi: .cfa 16 - ^ $rbx: .cfa 0 - ^ .ra: .cfa 8 - ^
STACK CFI INIT 4350 244 .cfa: $rsp 64 + $r15: .cfa 16 - ^ $rbx: .cfa 0 - ^ $rsi: .cfa 0 - ^ $rdi: .cfa 0 - ^ $r14: .cfa 0 - ^ .ra: .cfa 8 - ^
STACK CFI INIT 4594 2ae .cfa: $rsp 112 + $rsi: .cfa 16 - ^ $rdi: .cfa 24 - ^ $r12: .cfa 32 - ^ $r14: .cfa 40 - ^ $r15: .cfa 48 - ^ $rbx: .cfa 0 - ^ $rbp: .cfa 0 - ^ .ra: .cfa 8 - ^
STACK CFI INIT 48a0 4d .cfa: $rsp 48 + $rdi: .cfa 16 - ^ $rbx: .cfa 0 - ^ .ra: .cfa 8 - ^
STACK CFI INIT 4920 43 .cfa: $rsp 48 + $rbx: .cfa 16 - ^ .ra: .cfa 8 - ^
STACK CFI INIT 4964 10a .cfa: $rsp 64 + $r12: .cfa 16 - ^ $r14: .cfa 24 - ^ $r15: .cfa 32 - ^ $rbx: .cfa 0 - ^ $rsi: .cfa 0 - ^ $rdi: .cfa 0 - ^ .ra: .cfa 8 - ^
STACK CFI INIT 4a70 17 .cfa: $rsp 48 + .ra: .cfa 8 - ^
STACK CFI INIT 4a88 39 .cfa: $rsp 48 + $rdi: .cfa 16 - ^ $rbx: .cfa 0 - ^ .ra: .cfa 8 - ^
STACK CFI INIT 4ac4 33 .cfa: $rsp 48 + $rbx: .cfa 16 - ^ .ra: .cfa 8 - ^
STACK CFI INIT 4b38 233 .cfa: $rsp 96 + $rdi: .cfa 16 - ^ $r12: .cfa 24 - ^ $r13: .cfa 32 - ^ $r14: .cfa 40 - ^ $r15: .cfa 48 - ^ $rbx: .cfa 0 - ^ $rsi: .cfa 0 - ^ .ra: .cfa 8 - ^
STACK CFI INIT 4d74 98 .cfa: $rsp 48 + $rdi: .cfa 16 - ^ $rbx: .cfa 0 - ^ .ra: .cfa 8 - ^
STACK CFI INIT 4e0c 30 .cfa: $rsp 48 + .ra: .cfa 8 - ^
STACK CFI INIT 4e3c 65 .cfa: $rsp 48 + $rbx: .cfa 16 - ^ .ra: .cfa 8 - ^
STACK CFI INIT 4ea4 31 .cfa: $rsp 48 + $rbx: .cfa 16 - ^ .ra: .cfa 8 - ^
STACK CFI INIT 4f48 79 .cfa: $rsp 80 + $rdi: .cfa 16 - ^ $rbx: .cfa 0 - ^ $rsi: .cfa 0 - ^ .ra: .cfa 8 - ^
STACK CFI INIT 4fd8 85 .cfa: $rsp 48 + $rbx: .cfa 16 - ^ .ra: .cfa 8 - ^
STACK CFI INIT 5060 6b .cfa: $rsp 48 + $rbx: .cfa 16 - ^ .ra: .cfa 8 - ^
STACK CFI INIT 50e8 cc .cfa: $rsp 48 + $rbx: .cfa 16 - ^ .ra: .cfa 8 - ^
STACK CFI INIT 51b4 273 .cfa: $rsp 144 + $rbx: .cfa 16 - ^ $rbp: .cfa 24 - ^ $rsi: .cfa 32 - ^ $rdi: .cfa 40 - ^ $r12: .cfa 48 - ^ $r14: .cfa 56 - ^ $r15: .cfa 64 - ^ .ra: .cfa 8 - ^
STACK CFI INIT 5428 1d .cfa: $rsp 48 + .ra: .cfa 8 - ^
STACK CFI INIT 5448 63 .cfa: $rsp 48 + $rbx: .cfa 16 - ^ .ra: .cfa 8 - ^
STACK CFI INIT 54c0 1f .cfa: $rsp 8 + .ra: .cfa 8 - ^
STACK CFI INIT 5500 22a .cfa: $rsp 8 + .ra: .cfa 8 - ^
STACK CFI INIT 572c 55 .cfa: $rsp 48 + .ra: .cfa 8 - ^
STACK CFI INIT 5784 d3 .cfa: $rsp 48 + $rdi: .cfa 16 - ^ $rbx: .cfa 0 - ^ $rsi: .cfa 0 - ^ .ra: .cfa 8 - ^
STACK CFI INIT 5858 9a .cfa: $rsp 48 + $rdi: .cfa 16 - ^ $rbx: .cfa 0 - ^ .ra: .cfa 8 - ^
STACK CFI INIT 58f4 10a .cfa: $rsp 48 + $rbx: .cfa 16 - ^ .ra: .cfa 8 - ^
STACK CFI INIT 5a00 6c .cfa: $rsp 48 + $rbx: .cfa 16 - ^ .ra: .cfa 8 - ^
STACK CFI INIT 5a6c 3fa .cfa: $rsp 48 + $rbx: .cfa 16 - ^ .ra: .cfa 8 - ^
STACK CFI INIT 5e68 2ec .cfa: $rbp 64 + $rbp: .cfa 16 - ^ $r12: .cfa 24 - ^ $r13: .cfa 32 - ^ $r14: .cfa 40 - ^ $r15: .cfa 48 - ^ $rbx: $rbp 64 + ^ $rsi: $rbp 72 + ^ $rdi: $rbp 80 + ^ .ra: .cfa 8 - ^
STACK CFI INIT 6154 96 .cfa: $rsp 128 + $rdi: .cfa 16 - ^ $rbx: .cfa 0 - ^ $rsi: .cfa 0 - ^ .ra: .cfa 8 - ^
STACK CFI INIT 61ec 176 .cfa: $rbp 64 + $rbp: .cfa 16 - ^ $r12: .cfa 24 - ^ $r13: .cfa 32 - ^ $r14: .cfa 40 - ^ $r15: .cfa 48 - ^ $rbx: $rbp 64 + ^ $rsi: $rbp 72 + ^ $rdi: $rbp 80 + ^ .ra: .cfa 8 - ^
STACK CFI INIT 6364 7c .cfa: $rsp 112 + $rdi: .cfa 16 - ^ $rbx: .cfa 0 - ^ $rsi: .cfa 0 - ^ .ra: .cfa 8 - ^
STACK CFI INIT 63e0 39 .cfa: $rsp 48 + .ra: .cfa 8 - ^
STACK CFI INIT 6428 8a .cfa: $rsp 48 + $r14: .cfa 16 - ^ $rbx: .cfa 0 - ^ $rbp: .cfa 0 - ^ $rsi: .cfa 0 - ^ $rdi: .cfa 0 - ^ .ra: .cfa 8 - ^
STACK CFI INIT 64b4 32 .cfa: $rsp 48 + .ra: .cfa 8 - ^
STACK CFI INIT 64e8 8f .cfa: $rsp 96 + $rdi: .cfa 16 - ^ $rbx: .cfa 0 - ^ $rsi: .cfa 0 - ^ .ra: .cfa 8 - ^
STACK CFI INIT 65e0 565 .cfa: $rsp 8 + .ra: .cfa 8 - ^
STACK CFI INIT 6b48 26 .cfa: $rsp 48 + .ra: .cfa 8 - ^
STACK CFI INIT 6b70 5f .cfa: $rsp 48 + .ra: .cfa 8 - ^
STACK CFI INIT 6bd0 4c .cfa: $rsp 48 + $rbx: .cfa 16 - ^ .ra: .cfa 8 - ^
STACK CFI INIT 6c1c 79 .cfa: $rsp 48 + $rdi: .cfa 16 - ^ $rbx: .cfa 0 - ^ $rsi: .cfa 0 - ^ .ra: .cfa 8 - ^
STACK CFI INIT 6ca4 e6 .cfa: $rsp 80 + $r13: .cfa 16 - ^ $r14: .cfa 24 - ^ $r15: .cfa 32 - ^ $rbx: .cfa 0 - ^ $rsi: .cfa 0 - ^ $rdi: .cfa 0 - ^ .ra: .cfa 8 - ^
STACK CFI INIT 6d8c a8 .cfa: $rsp 64 + $rdi: .cfa 16 - ^ $rbx: .cfa 0 - ^ $rsi: .cfa 0 - ^ .ra: .cfa 8 - ^
STACK CFI INIT 6e34 49 .cfa: $rsp 48 + $rbx: .cfa 16 - ^ .ra: .cfa 8 - ^
STACK CFI INIT 6e80 d1 .cfa: $rsp 64 + .ra: .cfa 8 - ^
STACK CFI INIT 6f54 1a4 .cfa: $rsp 32 + $rdi: .cfa 16 - ^ $rbx: .cfa 0 - ^ $rbp: .cfa 0 - ^ $rsi: .cfa 0 - ^ .ra: .cfa 8 - ^
STACK CFI INIT 70f8 47 .cfa: $rsp 48 + $rdi: .cfa 16 - ^ .ra: .cfa 8 - ^
STACK CFI INIT 7150 4e .cfa: $rsp 24 + .ra: .cfa 8 - ^
STACK CFI INIT 71a0 d7 .cfa: $rsp 64 + $rsi: .cfa 16 - ^ $rdi: .cfa 24 - ^ $r14: .cfa 32 - ^ $rbx: .cfa 0 - ^ .ra: .cfa 8 - ^
STACK CFI INIT 7278 e1 .cfa: $rsp 80 + $rsi: .cfa 16 - ^ $rdi: .cfa 24 - ^ $r12: .cfa 32 - ^ $r14: .cfa 40 - ^ $r15: .cfa 48 - ^ $rbx: .cfa 0 - ^ .ra: .cfa 8 - ^
STACK CFI INIT 735c 7f1 .cfa: $rsp 7040 + $rbp: .cfa 16 - ^ $rsi: .cfa 24 - ^ $rdi: .cfa 32 - ^ $r12: .cfa 40 - ^ $r13: .cfa 48 - ^ $r14: .cfa 56 - ^ $r15: .cfa 64 - ^ $rbx: .cfa 0 - ^ .ra: .cfa 8 - ^
STACK CFI INIT 7b50 7a .cfa: $rsp 48 + $rdi: .cfa 16 - ^ $rbx: .cfa 0 - ^ .ra: .cfa 8 - ^
STACK CFI INIT 7bcc 66 .cfa: $rsp 48 + $rdi: .cfa 16 - ^ $rbx: .cfa 0 - ^ .ra: .cfa 8 - ^
STACK CFI INIT 7c34 db .cfa: $rsp 128 + $rbp: .cfa 16 - ^ $rdi: .cfa 24 - ^ $r14: .cfa 32 - ^ $rsi: .cfa 0 - ^ .ra: .cfa 8 - ^
STACK CFI INIT 7d10 cf .cfa: $rsp 160 + $rbx: .cfa 16 - ^ $rsi: .cfa 24 - ^ $rdi: .cfa 32 - ^ .ra: .cfa 8 - ^
STACK CFI INIT 7de0 c7 .cfa: $rsp 144 + $rdi: .cfa 16 - ^ $rbx: .cfa 0 - ^ .ra: .cfa 8 - ^
STACK CFI INIT 7f50 c7 .cfa: $rsp 8 + .ra: .cfa 8 - ^
STACK CFI INIT 8018 98 .cfa: $rsp 48 + $r15: .cfa 16 - ^ $rbx: .cfa 0 - ^ $rsi: .cfa 0 - ^ $rdi: .cfa 0 - ^ .ra: .cfa 8 - ^
STACK CFI INIT 80b0 aa .cfa: $rsp 48 + $r14: .cfa 16 - ^ $rbx: .cfa 0 - ^ $rdi: .cfa 0 - ^ .ra: .cfa 8 - ^
STACK CFI INIT 815c 74 .cfa: $rsp 48 + .ra: .cfa 8 - ^
STACK CFI INIT 81fc 43 .cfa: $rsp 80 + $rbx: .cfa 16 - ^ .ra: .cfa 8 - ^
STACK CFI INIT 8240 45 .cfa: $rsp 80 + $rbx: .cfa 16 - ^ .ra: .cfa 8 - ^
STACK CFI INIT 8288 93 .cfa: $rsp 48 + $rdi: .cfa 16 - ^ $rbx: .cfa 0 - ^ $rsi: .cfa 0 - ^ .ra: .cfa 8 - ^
STACK CFI INIT 831c 151 .cfa: $rsp 96 + $r14: .cfa 16 - ^ $rbx: .cfa 0 - ^ $rbp: .cfa 0 - ^ $rsi: .cfa 0 - ^ $rdi: .cfa 0 - ^ .ra: .cfa 8 - ^
STACK CFI INIT 8478 59 .cfa: $rsp 64 + .ra: .cfa 8 - ^
STACK CFI INIT 84d4 c3 .cfa: $rsp 64 + $rsi: .cfa 16 - ^ $rdi: .cfa 24 - ^ $r14: .cfa 32 - ^ $rbx: .cfa 0 - ^ .ra: .cfa 8 - ^
STACK CFI INIT 8598 ba .cfa: $rsp 48 + $rdi: .cfa 16 - ^ $rbx: .cfa 0 - ^ .ra: .cfa 8 - ^
STACK CFI INIT 8654 37 .cfa: $rsp 48 + $rbx: .cfa 16 - ^ .ra: .cfa 8 - ^
STACK CFI INIT 8690 5b6 .cfa: $rsp 144 + $rbp: .cfa 16 - ^ $r12: .cfa 24 - ^ $r13: .cfa 32 - ^ $r14: .cfa 40 - ^ $r15: .cfa 48 - ^ $rbx: .cfa 0 - ^ $rsi: .cfa 0 - ^ $rdi: .cfa 0 - ^ .ra: .cfa 8 - ^
STACK CFI INIT 8c48 5b6 .cfa: $rsp 144 + $rbp: .cfa 16 - ^ $r12: .cfa 24 - ^ $r13: .cfa 32 - ^ $r14: .cfa 40 - ^ $r15: .cfa 48 - ^ $rbx: .cfa 0 - ^ $rsi: .cfa 0 - ^ $rdi: .cfa 0 - ^ .ra: .cfa 8 - ^
STACK CFI INIT 9200 861 .cfa: $rsp 224 + $rbp: .cfa 16 - ^ $rsi: .cfa 24 - ^ $rdi: .cfa 32 - ^ $r12: .cfa 40 - ^ $r13: .cfa 48 - ^ $r14: .cfa 56 - ^ $r15: .cfa 64 - ^ $rbx: .cfa 0 - ^ .ra: .cfa 8 - ^
STACK CFI INIT 9a64 24 .cfa: $rsp 80 + .ra: .cfa 8 - ^
STACK CFI INIT 9a88 7e .cfa: $rsp 64 + .ra: .cfa 8 - ^
STACK CFI INIT 9b08 3b0 .cfa: $rsp 128 + $rdi: .cfa 16 - ^ $r12: .cfa 24 - ^ $r13: .cfa 32 - ^ $r14: .cfa 40 - ^ $r15: .cfa 48 - ^ $rbx: .cfa 0 - ^ $rbp: .cfa 0 - ^ $rsi: .cfa 0 - ^ .ra: .cfa 8 - ^
STACK CFI INIT 9eb8 1f9 .cfa: $rsp 112 + $r13: .cfa 16 - ^ $r14: .cfa 24 - ^ $r15: .cfa 32 - ^ $rbx: .cfa 0 - ^ $rbp: .cfa 0 - ^ $rsi: .cfa 0 - ^ $rdi: .cfa 0 - ^ .ra: .cfa 8 - ^
STACK CFI INIT a0b4 f7 .cfa: $rsp 176 + $rbx: .cfa 16 - ^ $rbp: .cfa 24 - ^ $rsi: .cfa 32 - ^ $rdi: .cfa 40 - ^ .ra: .cfa 8 - ^
STACK CFI INIT a1ac 161 .cfa: $rsp 80 + $r14: .cfa 16 - ^ $rbx: .cfa 0 - ^ $rbp: .cfa 0 - ^ $rsi: .cfa 0 - ^ $rdi: .cfa 0 - ^ .ra: .cfa 8 - ^
STACK CFI INIT a310 d1 .cfa: $rsp 160 + $rbx: .cfa 16 - ^ $rbp: .cfa 24 - ^ $rsi: .cfa 32 - ^ $rdi: .cfa 40 - ^ .ra: .cfa 8 - ^
STACK CFI INIT a3e4 134 .cfa: $rsp 176 + $rbx: .cfa 16 - ^ $rbp: .cfa 24 - ^ $rsi: .cfa 32 - ^ $rdi: .cfa 40 - ^ $r14: .cfa 48 - ^ .ra: .cfa 8 - ^
STACK CFI INIT a520 96 .cfa: $rsp 80 + $rbx: .cfa 16 - ^ .ra: .cfa 8 - ^
STACK CFI INIT a5c0 40 .cfa: $rsp 64 + $rbx: .cfa 16 - ^ .ra: .cfa 8 - ^
STACK CFI INIT a608 7f .cfa: $rsp 80 + $rbx: .cfa 16 - ^ .ra: .cfa 8 - ^
STACK CFI INIT a69c 20 .cfa: $rsp 48 + .ra: .cfa 8 - ^
STACK CFI INIT a6bc 3b .cfa: $rsp 80 + .ra: .cfa 8 - ^
STACK CFI INIT a6f8 222 .cfa: $rsp 48 + $rdi: .cfa 16 - ^ $r12: .cfa 24 - ^ $r14: .cfa 32 - ^ $rbx: .cfa 0 - ^ $rbp: .cfa 0 - ^ $rsi: .cfa 0 - ^ .ra: .cfa 8 - ^
STACK CFI INIT a91c 7a .cfa: $rsp 80 + $rbx: .cfa 16 - ^ .ra: .cfa 8 - ^
STACK CFI INIT a998 152 .cfa: $rsp 128 + $rbp: .cfa 16 - ^ $rdi: .cfa 0 - ^ $r14: .cfa 0 - ^ .ra: .cfa 8 - ^
STACK CFI INIT ab0c 144 .cfa: $rsp 32 + .ra: .cfa 8 - ^
STACK CFI INIT ac50 cb .cfa: $rsp 48 + $rdi: .cfa 16 - ^ $rbx: .cfa 0 - ^ .ra: .cfa 8 - ^
STACK CFI INIT ad1c cd .cfa: $rsp 8 + $rbx: .cfa 0 - ^ .ra: .cfa 8 - ^
STACK CFI INIT adec b7 .cfa: $rsp 176 + $rbp: .cfa 16 - ^ $rbx: .cfa 24 - ^ $rsi: .cfa 32 - ^ $rdi: .cfa 40 - ^ .ra: .cfa 8 - ^
STACK CFI INIT aea4 ad8 .cfa: $rsp 256 + $rbp: .cfa 16 - ^ $rsi: .cfa 24 - ^ $rdi: .cfa 32 - ^ $r12: .cfa 40 - ^ $r13: .cfa 48 - ^ $r14: .cfa 56 - ^ $r15: .cfa 64 - ^ $rbx: .cfa 0 - ^ .ra: .cfa 8 - ^
STACK CFI INIT b990 1e .cfa: $rsp 48 + $rbp: .cfa 16 - ^ .ra: .cfa 8 - ^
STACK CFI INIT b9ae 19 .cfa: $rsp 48 + $rbp: .cfa 16 - ^ .ra: .cfa 8 - ^
STACK CFI INIT b9c7 19 .cfa: $rsp 48 + $rbp: .cfa 16 - ^ .ra: .cfa 8 - ^
STACK CFI INIT b9e0 19 .cfa: $rsp 48 + $rbp: .cfa 16 - ^ .ra: .cfa 8 - ^
STACK CFI INIT b9f9 19 .cfa: $rsp 48 + $rbp: .cfa 16 - ^ .ra: .cfa 8 - ^
STACK CFI INIT ba12 19 .cfa: $rsp 48 + $rbp: .cfa 16 - ^ .ra: .cfa 8 - ^
STACK CFI INIT ba2b 24 .cfa: $rsp 48 + $rbp: .cfa 16 - ^ .ra: .cfa 8 - ^
STACK CFI INIT ba4f 1b .cfa: $rsp 48 + $rbp: .cfa 16 - ^ .ra: .cfa 8 - ^
STACK CFI INIT ba6a 1d .cfa: $rsp 48 + $rbp: .cfa 16 - ^ .ra: .cfa 8 - ^
STACK CFI INIT ba87 19 .cfa: $rsp 48 + $rbp: .cfa 16 - ^ .ra: .cfa 8 - ^
STACK CFI INIT baa0 19 .cfa: $rsp 48 + $rbp: .cfa 16 - ^ .ra: .cfa 8 - ^
STACK CFI INIT bab9 19 .cfa: $rsp 48 + $rbp: .cfa 16 - ^ .ra: .cfa 8 - ^
STACK CFI INIT bae0 20 .cfa: $rsp 48 + $rbp: .cfa 16 - ^ .ra: .cfa 8 - ^
STACK CFI INIT bb00 14 .cfa: $rsp 48 + $rbp: .cfa 16 - ^ .ra: .cfa 8 - ^
STACK CFI INIT bb14 1e .cfa: $rsp 48 + $rbp: .cfa 16 - ^ .ra: .cfa 8 - ^
STACK CFI INIT bb32 28 .cfa: $rsp 48 + $rbp: .cfa 16 - ^ .ra: .cfa 8 - ^
STACK CFI INIT bb5a 19 .cfa: $rsp 48 + $rbp: .cfa 16 - ^ .ra: .cfa 8 - ^
STACK CFI INIT bb73 19 .cfa: $rsp 48 + $rbp: .cfa 16 - ^ .ra: .cfa 8 - ^
STACK CFI INIT bb8c 19 .cfa: $rsp 48 + $rbp: .cfa 16 - ^ .ra: .cfa 8 - ^
STACK CFI INIT bba5 17 .cfa: $rsp 48 + $rbp: .cfa 16 - ^ .ra: .cfa 8 - ^
STACK CFI INIT bbbc 17 .cfa: $rsp 48 + $rbp: .cfa 16 - ^ .ra: .cfa 8 - ^
STACK CFI INIT bbd3 18 .cfa: $rsp 48 + $rbp: .cfa 16 - ^ .ra: .cfa 8 - ^
STACK CFI INIT bbeb 19 .cfa: $rsp 48 + $rbp: .cfa 16 - ^ .ra: .cfa 8 - ^
STACK CFI INIT bc04 17 .cfa: $rsp 48 + $rbp: .cfa 16 - ^ .ra: .cfa 8 - ^
