MODULE windows x86_64 5A9EC5FA8DE834784C4C44205044422E1 mozwer.pdb
INFO CODE_ID 5FDB6A2871000 mozwer.dll
FUNC 1000 94 0 OutOfProcessExceptionEventCallback
FUNC 10a0 267 0 OutOfProcessExceptionEventSignatureCallback
FUNC 1310 64 0 <unknown in mozwer.dll>
PUBLIC 1380 0 OutOfProcessExceptionEventDebuggerLaunchCallback
FUNC 13c0 21 0 <unknown in mozwer.dll>
FUNC 13e4 9b 0 <unknown in mozwer.dll>
FUNC 1480 10e 0 <unknown in mozwer.dll>
FUNC 1590 13 0 <unknown in mozwer.dll>
FUNC 15b0 d1 0 <unknown in mozwer.dll>
FUNC 1684 6d 0 <unknown in mozwer.dll>
FUNC 16f4 71 0 <unknown in mozwer.dll>
FUNC 1768 34 0 <unknown in mozwer.dll>
FUNC 179c 116 0 <unknown in mozwer.dll>
FUNC 18b4 84 0 <unknown in mozwer.dll>
FUNC 1940 50 0 <unknown in mozwer.dll>
FUNC 19b4 131 0 <unknown in mozwer.dll>
FUNC 1af0 3d 0 <unknown in mozwer.dll>
FUNC 1b30 ac 0 <unknown in mozwer.dll>
FUNC 1bdc 6b 0 <unknown in mozwer.dll>
FUNC 1c64 1b 0 <unknown in mozwer.dll>
FUNC 1c88 17 0 <unknown in mozwer.dll>
FUNC 1ca0 3a 0 <unknown in mozwer.dll>
FUNC 1d08 98 0 <unknown in mozwer.dll>
FUNC 1da0 39 0 <unknown in mozwer.dll>
FUNC 1ddc 24 0 <unknown in mozwer.dll>
FUNC 1e00 49 0 <unknown in mozwer.dll>
FUNC 1e4c 29 0 <unknown in mozwer.dll>
FUNC 1e78 8b 0 <unknown in mozwer.dll>
FUNC 1f04 60 0 <unknown in mozwer.dll>
FUNC 1f64 15 0 <unknown in mozwer.dll>
FUNC 1f7c 34 0 <unknown in mozwer.dll>
FUNC 1fb0 30 0 <unknown in mozwer.dll>
FUNC 1fe0 14 0 <unknown in mozwer.dll>
FUNC 1ff4 28 0 <unknown in mozwer.dll>
FUNC 201c 15 0 <unknown in mozwer.dll>
FUNC 2034 14 0 <unknown in mozwer.dll>
FUNC 20dc 3a 0 <unknown in mozwer.dll>
FUNC 2118 52 0 <unknown in mozwer.dll>
FUNC 2188 14a 0 <unknown in mozwer.dll>
FUNC 22e0 5b 0 <unknown in mozwer.dll>
FUNC 233c 3c 0 <unknown in mozwer.dll>
FUNC 2378 3c 0 <unknown in mozwer.dll>
FUNC 244c 3e 0 <unknown in mozwer.dll>
FUNC 251c 57 0 <unknown in mozwer.dll>
FUNC 2574 1a1 0 <unknown in mozwer.dll>
FUNC 2730 20b 0 <unknown in mozwer.dll>
FUNC 2940 6d 0 <unknown in mozwer.dll>
FUNC 29b0 a 0 <unknown in mozwer.dll>
FUNC 29bc a5 0 <unknown in mozwer.dll>
FUNC 2a68 2f 0 <unknown in mozwer.dll>
FUNC 2a98 12 0 <unknown in mozwer.dll>
FUNC 2aac 12 0 <unknown in mozwer.dll>
FUNC 2ac0 12 0 <unknown in mozwer.dll>
FUNC 2b00 5b 0 <unknown in mozwer.dll>
FUNC 2b5c 66 0 <unknown in mozwer.dll>
FUNC 2bcc 58 0 <unknown in mozwer.dll>
FUNC 2c28 2a 0 <unknown in mozwer.dll>
FUNC 2cb4 117 0 <unknown in mozwer.dll>
FUNC 2e08 1b 0 <unknown in mozwer.dll>
FUNC 2e24 1b 0 <unknown in mozwer.dll>
FUNC 2e5c 1b 0 <unknown in mozwer.dll>
FUNC 2e80 1b 0 <unknown in mozwer.dll>
FUNC 2ecc 28 0 <unknown in mozwer.dll>
FUNC 2ef4 19 0 <unknown in mozwer.dll>
FUNC 2f10 10 0 <unknown in mozwer.dll>
FUNC 2f20 14 0 <unknown in mozwer.dll>
FUNC 2f34 12 0 <unknown in mozwer.dll>
FUNC 2f60 10 0 <unknown in mozwer.dll>
FUNC 2f80 190 0 <unknown in mozwer.dll>
FUNC 3130 23 0 <unknown in mozwer.dll>
FUNC 3180 10 0 <unknown in mozwer.dll>
FUNC 31b0 3d 0 <unknown in mozwer.dll>
FUNC 3200 40 0 <unknown in mozwer.dll>
FUNC 3240 5b 0 <unknown in mozwer.dll>
FUNC 32b8 35 0 <unknown in mozwer.dll>
FUNC 32f0 10 0 <unknown in mozwer.dll>
FUNC 3300 14 0 <unknown in mozwer.dll>
FUNC 3314 10 0 <unknown in mozwer.dll>
FUNC 3344 27 0 <unknown in mozwer.dll>
FUNC 3374 3e 0 <unknown in mozwer.dll>
FUNC 33b4 6f 0 <unknown in mozwer.dll>
FUNC 34cc 9b 0 <unknown in mozwer.dll>
FUNC 358c 1f 0 <unknown in mozwer.dll>
FUNC 35d0 8b 0 <unknown in mozwer.dll>
FUNC 365c 8b 0 <unknown in mozwer.dll>
FUNC 36e8 8b 0 <unknown in mozwer.dll>
FUNC 377c 6e 0 <unknown in mozwer.dll>
FUNC 37ec 143 0 <unknown in mozwer.dll>
FUNC 3938 8b 0 <unknown in mozwer.dll>
FUNC 39c4 8b 0 <unknown in mozwer.dll>
FUNC 3a50 8b 0 <unknown in mozwer.dll>
FUNC 3ae4 63 0 <unknown in mozwer.dll>
FUNC 3b48 134 0 <unknown in mozwer.dll>
FUNC 3cb4 20 0 <unknown in mozwer.dll>
FUNC 3ce0 9a 0 <unknown in mozwer.dll>
FUNC 3d94 34 0 <unknown in mozwer.dll>
FUNC 3dc8 23 0 <unknown in mozwer.dll>
FUNC 3f08 85 0 <unknown in mozwer.dll>
FUNC 3f90 85 0 <unknown in mozwer.dll>
FUNC 4018 85 0 <unknown in mozwer.dll>
FUNC 40a0 85 0 <unknown in mozwer.dll>
FUNC 4128 85 0 <unknown in mozwer.dll>
FUNC 41b0 85 0 <unknown in mozwer.dll>
FUNC 4238 1cb 0 <unknown in mozwer.dll>
FUNC 4404 1d2 0 <unknown in mozwer.dll>
FUNC 45d8 63 0 <unknown in mozwer.dll>
FUNC 463c 6e 0 <unknown in mozwer.dll>
FUNC 46ac 114 0 <unknown in mozwer.dll>
FUNC 47c0 117 0 <unknown in mozwer.dll>
FUNC 48d8 1e7 0 <unknown in mozwer.dll>
FUNC 4ac0 1ee 0 <unknown in mozwer.dll>
FUNC 4cfc 23 0 <unknown in mozwer.dll>
FUNC 4d80 48 0 <unknown in mozwer.dll>
FUNC 4dc8 f5 0 <unknown in mozwer.dll>
FUNC 4ec8 2c 0 <unknown in mozwer.dll>
FUNC 4ef4 40 0 <unknown in mozwer.dll>
FUNC 4f58 23 0 <unknown in mozwer.dll>
FUNC 4fe0 23 0 <unknown in mozwer.dll>
FUNC 5070 216 0 <unknown in mozwer.dll>
FUNC 5288 70 0 <unknown in mozwer.dll>
FUNC 52f8 5c 0 <unknown in mozwer.dll>
FUNC 5354 a2 0 <unknown in mozwer.dll>
FUNC 5448 a1 0 <unknown in mozwer.dll>
FUNC 5550 171 0 <unknown in mozwer.dll>
FUNC 56c4 284 0 <unknown in mozwer.dll>
FUNC 5950 bc 0 <unknown in mozwer.dll>
FUNC 5a80 96 0 <unknown in mozwer.dll>
FUNC 5b24 215 0 <unknown in mozwer.dll>
FUNC 5dac 1c5 0 <unknown in mozwer.dll>
FUNC 5f74 db 0 <unknown in mozwer.dll>
FUNC 6050 121 0 <unknown in mozwer.dll>
FUNC 61d4 23 0 <unknown in mozwer.dll>
FUNC 61f8 12d 0 <unknown in mozwer.dll>
FUNC 634c 28 0 <unknown in mozwer.dll>
FUNC 63c4 23 0 <unknown in mozwer.dll>
FUNC 644c 4b 0 <unknown in mozwer.dll>
FUNC 6498 103 0 <unknown in mozwer.dll>
FUNC 65a4 25 0 <unknown in mozwer.dll>
FUNC 65cc 43 0 <unknown in mozwer.dll>
FUNC 6634 23 0 <unknown in mozwer.dll>
FUNC 66bc 23 0 <unknown in mozwer.dll>
FUNC 6750 26a 0 <unknown in mozwer.dll>
FUNC 69bc 58 0 <unknown in mozwer.dll>
FUNC 6a14 58 0 <unknown in mozwer.dll>
FUNC 6ad0 a3 0 <unknown in mozwer.dll>
FUNC 6bd8 196 0 <unknown in mozwer.dll>
FUNC 6d70 2dd 0 <unknown in mozwer.dll>
FUNC 7058 a6 0 <unknown in mozwer.dll>
FUNC 7100 79 0 <unknown in mozwer.dll>
FUNC 717c c7 0 <unknown in mozwer.dll>
FUNC 7244 53 0 <unknown in mozwer.dll>
FUNC 7298 239 0 <unknown in mozwer.dll>
FUNC 7544 1cb 0 <unknown in mozwer.dll>
FUNC 7710 db 0 <unknown in mozwer.dll>
FUNC 77ec 106 0 <unknown in mozwer.dll>
FUNC 7954 23 0 <unknown in mozwer.dll>
FUNC 7978 131 0 <unknown in mozwer.dll>
FUNC 7ad0 28 0 <unknown in mozwer.dll>
FUNC 7af8 2b 0 <unknown in mozwer.dll>
FUNC 7b34 23 0 <unknown in mozwer.dll>
FUNC 7bc4 227 0 <unknown in mozwer.dll>
FUNC 7dec 70 0 <unknown in mozwer.dll>
FUNC 7e5c 5c 0 <unknown in mozwer.dll>
FUNC 7eb8 a2 0 <unknown in mozwer.dll>
FUNC 7fac a1 0 <unknown in mozwer.dll>
FUNC 80b4 171 0 <unknown in mozwer.dll>
FUNC 8228 284 0 <unknown in mozwer.dll>
FUNC 84b4 bc 0 <unknown in mozwer.dll>
FUNC 85e4 96 0 <unknown in mozwer.dll>
FUNC 8688 215 0 <unknown in mozwer.dll>
FUNC 8910 1c5 0 <unknown in mozwer.dll>
FUNC 8ad8 db 0 <unknown in mozwer.dll>
FUNC 8bb4 121 0 <unknown in mozwer.dll>
FUNC 8d3c 23 0 <unknown in mozwer.dll>
FUNC 8d60 12d 0 <unknown in mozwer.dll>
FUNC 8eb4 28 0 <unknown in mozwer.dll>
FUNC 8edc 2b 0 <unknown in mozwer.dll>
FUNC 8f18 23 0 <unknown in mozwer.dll>
FUNC 8fac 277 0 <unknown in mozwer.dll>
FUNC 9224 58 0 <unknown in mozwer.dll>
FUNC 927c 58 0 <unknown in mozwer.dll>
FUNC 9338 a3 0 <unknown in mozwer.dll>
FUNC 9440 196 0 <unknown in mozwer.dll>
FUNC 95d8 2dd 0 <unknown in mozwer.dll>
FUNC 98c0 a6 0 <unknown in mozwer.dll>
FUNC 9968 79 0 <unknown in mozwer.dll>
FUNC 99e4 c7 0 <unknown in mozwer.dll>
FUNC 9aac 53 0 <unknown in mozwer.dll>
FUNC 9b00 239 0 <unknown in mozwer.dll>
FUNC 9dac 1cb 0 <unknown in mozwer.dll>
FUNC 9f78 db 0 <unknown in mozwer.dll>
FUNC a054 106 0 <unknown in mozwer.dll>
FUNC a1c0 23 0 <unknown in mozwer.dll>
FUNC a1e4 131 0 <unknown in mozwer.dll>
FUNC a33c 28 0 <unknown in mozwer.dll>
FUNC a3b4 9b 0 <unknown in mozwer.dll>
FUNC a468 115 0 <unknown in mozwer.dll>
FUNC a580 115 0 <unknown in mozwer.dll>
FUNC a698 9b 0 <unknown in mozwer.dll>
FUNC a75c 10b 0 <unknown in mozwer.dll>
FUNC a8c4 230 0 <unknown in mozwer.dll>
FUNC aaf4 3f 0 <unknown in mozwer.dll>
FUNC ab34 23 0 <unknown in mozwer.dll>
FUNC abe0 2a6 0 <unknown in mozwer.dll>
FUNC ae88 94 0 <unknown in mozwer.dll>
FUNC af1c 5c 0 <unknown in mozwer.dll>
FUNC af78 a2 0 <unknown in mozwer.dll>
FUNC b06c a1 0 <unknown in mozwer.dll>
FUNC b110 50 0 <unknown in mozwer.dll>
FUNC b168 4a 0 <unknown in mozwer.dll>
FUNC b1b4 171 0 <unknown in mozwer.dll>
FUNC b328 29a 0 <unknown in mozwer.dll>
FUNC b5cc ff 0 <unknown in mozwer.dll>
FUNC b6cc 158 0 <unknown in mozwer.dll>
FUNC b824 b5 0 <unknown in mozwer.dll>
FUNC b8e8 252 0 <unknown in mozwer.dll>
FUNC bbac 202 0 <unknown in mozwer.dll>
FUNC bdb0 104 0 <unknown in mozwer.dll>
FUNC beb4 121 0 <unknown in mozwer.dll>
FUNC c03c 23 0 <unknown in mozwer.dll>
FUNC c060 14a 0 <unknown in mozwer.dll>
FUNC c1d0 28 0 <unknown in mozwer.dll>
FUNC c248 9b 0 <unknown in mozwer.dll>
FUNC c2fc 118 0 <unknown in mozwer.dll>
FUNC c414 118 0 <unknown in mozwer.dll>
FUNC c52c 9d 0 <unknown in mozwer.dll>
FUNC c5f4 114 0 <unknown in mozwer.dll>
FUNC c764 200 0 <unknown in mozwer.dll>
FUNC c964 40 0 <unknown in mozwer.dll>
FUNC c9a4 23 0 <unknown in mozwer.dll>
FUNC ca54 2b2 0 <unknown in mozwer.dll>
FUNC cd08 7c 0 <unknown in mozwer.dll>
FUNC cd84 58 0 <unknown in mozwer.dll>
FUNC ce40 a3 0 <unknown in mozwer.dll>
FUNC cee4 51 0 <unknown in mozwer.dll>
FUNC cf40 4b 0 <unknown in mozwer.dll>
FUNC cf8c 196 0 <unknown in mozwer.dll>
FUNC d124 2f3 0 <unknown in mozwer.dll>
FUNC d420 cc 0 <unknown in mozwer.dll>
FUNC d4ec 13e 0 <unknown in mozwer.dll>
FUNC d62c e9 0 <unknown in mozwer.dll>
FUNC d718 53 0 <unknown in mozwer.dll>
FUNC d76c 276 0 <unknown in mozwer.dll>
FUNC da54 208 0 <unknown in mozwer.dll>
FUNC dc5c 104 0 <unknown in mozwer.dll>
FUNC dd60 106 0 <unknown in mozwer.dll>
FUNC decc 23 0 <unknown in mozwer.dll>
FUNC def0 14e 0 <unknown in mozwer.dll>
FUNC e064 28 0 <unknown in mozwer.dll>
FUNC e094 25 0 <unknown in mozwer.dll>
FUNC e104 a3 0 <unknown in mozwer.dll>
FUNC e208 23 0 <unknown in mozwer.dll>
FUNC e290 23 0 <unknown in mozwer.dll>
FUNC e320 20a 0 <unknown in mozwer.dll>
FUNC e52c 74 0 <unknown in mozwer.dll>
FUNC e5a0 60 0 <unknown in mozwer.dll>
FUNC e600 a8 0 <unknown in mozwer.dll>
FUNC e6f8 a1 0 <unknown in mozwer.dll>
FUNC e800 171 0 <unknown in mozwer.dll>
FUNC e974 266 0 <unknown in mozwer.dll>
FUNC ebe4 bc 0 <unknown in mozwer.dll>
FUNC ed14 96 0 <unknown in mozwer.dll>
FUNC edb8 215 0 <unknown in mozwer.dll>
FUNC f040 1c5 0 <unknown in mozwer.dll>
FUNC f208 db 0 <unknown in mozwer.dll>
FUNC f2e4 d5 0 <unknown in mozwer.dll>
FUNC f41c 23 0 <unknown in mozwer.dll>
FUNC f448 25 0 <unknown in mozwer.dll>
FUNC f4b8 a5 0 <unknown in mozwer.dll>
FUNC f5c4 23 0 <unknown in mozwer.dll>
FUNC f64c 23 0 <unknown in mozwer.dll>
FUNC f6e0 27b 0 <unknown in mozwer.dll>
FUNC fa68 a3 0 <unknown in mozwer.dll>
FUNC fb70 196 0 <unknown in mozwer.dll>
FUNC fd08 2ca 0 <unknown in mozwer.dll>
FUNC ffdc a6 0 <unknown in mozwer.dll>
FUNC 10084 79 0 <unknown in mozwer.dll>
FUNC 10100 c7 0 <unknown in mozwer.dll>
FUNC 101c8 53 0 <unknown in mozwer.dll>
FUNC 1021c 239 0 <unknown in mozwer.dll>
FUNC 104c8 1cb 0 <unknown in mozwer.dll>
FUNC 10694 db 0 <unknown in mozwer.dll>
FUNC 10770 eb 0 <unknown in mozwer.dll>
FUNC 108bc 23 0 <unknown in mozwer.dll>
FUNC 108e0 1cb 0 <unknown in mozwer.dll>
FUNC 10aac 1d2 0 <unknown in mozwer.dll>
FUNC 10c80 2b 0 <unknown in mozwer.dll>
FUNC 10cbc 23 0 <unknown in mozwer.dll>
FUNC 10d30 9b 0 <unknown in mozwer.dll>
FUNC 10de4 115 0 <unknown in mozwer.dll>
FUNC 10efc 115 0 <unknown in mozwer.dll>
FUNC 11014 9b 0 <unknown in mozwer.dll>
FUNC 110d8 10b 0 <unknown in mozwer.dll>
FUNC 11240 230 0 <unknown in mozwer.dll>
FUNC 11470 3f 0 <unknown in mozwer.dll>
FUNC 114b0 23 0 <unknown in mozwer.dll>
FUNC 1155c 295 0 <unknown in mozwer.dll>
FUNC 117f4 98 0 <unknown in mozwer.dll>
FUNC 1188c 60 0 <unknown in mozwer.dll>
FUNC 118ec a8 0 <unknown in mozwer.dll>
FUNC 119e4 a1 0 <unknown in mozwer.dll>
FUNC 11a88 50 0 <unknown in mozwer.dll>
FUNC 11ae0 4a 0 <unknown in mozwer.dll>
FUNC 11b2c 171 0 <unknown in mozwer.dll>
FUNC 11ca0 27c 0 <unknown in mozwer.dll>
FUNC 11f24 ff 0 <unknown in mozwer.dll>
FUNC 12024 158 0 <unknown in mozwer.dll>
FUNC 1217c b5 0 <unknown in mozwer.dll>
FUNC 12240 252 0 <unknown in mozwer.dll>
FUNC 12504 202 0 <unknown in mozwer.dll>
FUNC 12708 104 0 <unknown in mozwer.dll>
FUNC 1280c d5 0 <unknown in mozwer.dll>
FUNC 12948 23 0 <unknown in mozwer.dll>
FUNC 1296c 2b 0 <unknown in mozwer.dll>
FUNC 129a8 23 0 <unknown in mozwer.dll>
FUNC 12a1c 9b 0 <unknown in mozwer.dll>
FUNC 12ad0 118 0 <unknown in mozwer.dll>
FUNC 12be8 118 0 <unknown in mozwer.dll>
FUNC 12d00 9d 0 <unknown in mozwer.dll>
FUNC 12dc8 114 0 <unknown in mozwer.dll>
FUNC 12f38 200 0 <unknown in mozwer.dll>
FUNC 13138 40 0 <unknown in mozwer.dll>
FUNC 13178 23 0 <unknown in mozwer.dll>
FUNC 13228 2b2 0 <unknown in mozwer.dll>
FUNC 1360c a3 0 <unknown in mozwer.dll>
FUNC 136b0 51 0 <unknown in mozwer.dll>
FUNC 1370c 4b 0 <unknown in mozwer.dll>
FUNC 13758 196 0 <unknown in mozwer.dll>
FUNC 138f0 2e0 0 <unknown in mozwer.dll>
FUNC 13bd8 cc 0 <unknown in mozwer.dll>
FUNC 13ca4 13e 0 <unknown in mozwer.dll>
FUNC 13de4 e9 0 <unknown in mozwer.dll>
FUNC 13ed0 53 0 <unknown in mozwer.dll>
FUNC 13f24 276 0 <unknown in mozwer.dll>
FUNC 1420c 208 0 <unknown in mozwer.dll>
FUNC 14414 104 0 <unknown in mozwer.dll>
FUNC 14518 eb 0 <unknown in mozwer.dll>
FUNC 14668 23 0 <unknown in mozwer.dll>
FUNC 1468c a2 0 <unknown in mozwer.dll>
FUNC 14730 9e 0 <unknown in mozwer.dll>
FUNC 147d0 85 0 <unknown in mozwer.dll>
FUNC 14858 81 0 <unknown in mozwer.dll>
FUNC 148dc a2 0 <unknown in mozwer.dll>
FUNC 14980 9e 0 <unknown in mozwer.dll>
FUNC 14a20 85 0 <unknown in mozwer.dll>
FUNC 14aa8 81 0 <unknown in mozwer.dll>
FUNC 14b2c 85 0 <unknown in mozwer.dll>
FUNC 14bb4 81 0 <unknown in mozwer.dll>
FUNC 14c38 7a 0 <unknown in mozwer.dll>
FUNC 14cf4 75 0 <unknown in mozwer.dll>
FUNC 14d7c 91 0 <unknown in mozwer.dll>
FUNC 14e10 8b 0 <unknown in mozwer.dll>
FUNC 14e9c bc 0 <unknown in mozwer.dll>
FUNC 14f58 a6 0 <unknown in mozwer.dll>
FUNC 1502c bc 0 <unknown in mozwer.dll>
FUNC 15128 bc 0 <unknown in mozwer.dll>
FUNC 15224 bc 0 <unknown in mozwer.dll>
FUNC 152f4 ba 0 <unknown in mozwer.dll>
FUNC 153b0 ba 0 <unknown in mozwer.dll>
FUNC 1546c ba 0 <unknown in mozwer.dll>
FUNC 15550 ba 0 <unknown in mozwer.dll>
FUNC 156c4 bc 0 <unknown in mozwer.dll>
FUNC 15780 bc 0 <unknown in mozwer.dll>
FUNC 1583c bc 0 <unknown in mozwer.dll>
FUNC 158f8 bc 0 <unknown in mozwer.dll>
FUNC 159b4 ba 0 <unknown in mozwer.dll>
FUNC 15a70 ba 0 <unknown in mozwer.dll>
FUNC 15b2c ba 0 <unknown in mozwer.dll>
FUNC 15be8 ba 0 <unknown in mozwer.dll>
FUNC 15d74 be 0 <unknown in mozwer.dll>
FUNC 15e34 bd 0 <unknown in mozwer.dll>
FUNC 15ef4 be 0 <unknown in mozwer.dll>
FUNC 15fb4 bd 0 <unknown in mozwer.dll>
FUNC 16074 bc 0 <unknown in mozwer.dll>
FUNC 16130 bb 0 <unknown in mozwer.dll>
FUNC 161ec bc 0 <unknown in mozwer.dll>
FUNC 162a8 bc 0 <unknown in mozwer.dll>
FUNC 16364 a9 0 <unknown in mozwer.dll>
FUNC 16410 a4 0 <unknown in mozwer.dll>
FUNC 164b4 a3 0 <unknown in mozwer.dll>
FUNC 16558 be 0 <unknown in mozwer.dll>
FUNC 16628 bc 0 <unknown in mozwer.dll>
FUNC 166e4 bb 0 <unknown in mozwer.dll>
FUNC 167a0 bc 0 <unknown in mozwer.dll>
FUNC 1685c bb 0 <unknown in mozwer.dll>
FUNC 16918 ba 0 <unknown in mozwer.dll>
FUNC 169d4 b9 0 <unknown in mozwer.dll>
FUNC 16a90 ba 0 <unknown in mozwer.dll>
FUNC 16b4c ba 0 <unknown in mozwer.dll>
FUNC 16c08 8d 0 <unknown in mozwer.dll>
FUNC 16c98 87 0 <unknown in mozwer.dll>
FUNC 16d20 bc 0 <unknown in mozwer.dll>
FUNC 16ddc b8 0 <unknown in mozwer.dll>
FUNC 16f34 a4 0 <unknown in mozwer.dll>
FUNC 16fd8 a3 0 <unknown in mozwer.dll>
FUNC 17130 8d 0 <unknown in mozwer.dll>
FUNC 171c0 87 0 <unknown in mozwer.dll>
FUNC 17270 be 0 <unknown in mozwer.dll>
FUNC 17330 bd 0 <unknown in mozwer.dll>
FUNC 173f0 be 0 <unknown in mozwer.dll>
FUNC 174b0 bd 0 <unknown in mozwer.dll>
FUNC 17570 bc 0 <unknown in mozwer.dll>
FUNC 1762c bb 0 <unknown in mozwer.dll>
FUNC 176e8 bc 0 <unknown in mozwer.dll>
FUNC 177a4 bc 0 <unknown in mozwer.dll>
FUNC 17860 a4 0 <unknown in mozwer.dll>
FUNC 17904 a3 0 <unknown in mozwer.dll>
FUNC 179a8 be 0 <unknown in mozwer.dll>
FUNC 17a68 bc 0 <unknown in mozwer.dll>
FUNC 17b24 bb 0 <unknown in mozwer.dll>
FUNC 17be0 bc 0 <unknown in mozwer.dll>
FUNC 17c9c bb 0 <unknown in mozwer.dll>
FUNC 17d58 ba 0 <unknown in mozwer.dll>
FUNC 17e14 b9 0 <unknown in mozwer.dll>
FUNC 17ed0 ba 0 <unknown in mozwer.dll>
FUNC 17f8c ba 0 <unknown in mozwer.dll>
FUNC 18048 8d 0 <unknown in mozwer.dll>
FUNC 180d8 87 0 <unknown in mozwer.dll>
FUNC 18160 bc 0 <unknown in mozwer.dll>
FUNC 1821c b8 0 <unknown in mozwer.dll>
FUNC 18374 a4 0 <unknown in mozwer.dll>
FUNC 18418 a3 0 <unknown in mozwer.dll>
FUNC 18570 8d 0 <unknown in mozwer.dll>
FUNC 18600 87 0 <unknown in mozwer.dll>
FUNC 186b0 a4 0 <unknown in mozwer.dll>
FUNC 18754 a3 0 <unknown in mozwer.dll>
FUNC 187f8 8d 0 <unknown in mozwer.dll>
FUNC 18888 87 0 <unknown in mozwer.dll>
FUNC 18a80 3d 0 <unknown in mozwer.dll>
FUNC 18ae8 3d 0 <unknown in mozwer.dll>
FUNC 18b50 3d 0 <unknown in mozwer.dll>
FUNC 18bb8 3d 0 <unknown in mozwer.dll>
FUNC 18c20 3d 0 <unknown in mozwer.dll>
FUNC 18c88 3d 0 <unknown in mozwer.dll>
FUNC 18d34 218 0 <unknown in mozwer.dll>
FUNC 18f4c 74 0 <unknown in mozwer.dll>
FUNC 18fc0 60 0 <unknown in mozwer.dll>
FUNC 19020 a8 0 <unknown in mozwer.dll>
FUNC 19118 a1 0 <unknown in mozwer.dll>
FUNC 19220 171 0 <unknown in mozwer.dll>
FUNC 19394 266 0 <unknown in mozwer.dll>
FUNC 19604 bc 0 <unknown in mozwer.dll>
FUNC 19734 96 0 <unknown in mozwer.dll>
FUNC 197d8 215 0 <unknown in mozwer.dll>
FUNC 19a60 1c5 0 <unknown in mozwer.dll>
FUNC 19c28 db 0 <unknown in mozwer.dll>
FUNC 19d04 d5 0 <unknown in mozwer.dll>
FUNC 19e40 23 0 <unknown in mozwer.dll>
FUNC 19ed4 288 0 <unknown in mozwer.dll>
FUNC 1a268 a3 0 <unknown in mozwer.dll>
FUNC 1a370 196 0 <unknown in mozwer.dll>
FUNC 1a508 2ca 0 <unknown in mozwer.dll>
FUNC 1a7dc a6 0 <unknown in mozwer.dll>
FUNC 1a884 79 0 <unknown in mozwer.dll>
FUNC 1a900 c7 0 <unknown in mozwer.dll>
FUNC 1a9c8 53 0 <unknown in mozwer.dll>
FUNC 1aa1c 239 0 <unknown in mozwer.dll>
FUNC 1acc8 1cb 0 <unknown in mozwer.dll>
FUNC 1ae94 db 0 <unknown in mozwer.dll>
FUNC 1af70 eb 0 <unknown in mozwer.dll>
FUNC 1b0c0 23 0 <unknown in mozwer.dll>
FUNC 1b0e4 85 0 <unknown in mozwer.dll>
FUNC 1b16c 81 0 <unknown in mozwer.dll>
FUNC 1b3c8 a4 0 <unknown in mozwer.dll>
FUNC 1b46c a3 0 <unknown in mozwer.dll>
FUNC 1b510 8d 0 <unknown in mozwer.dll>
FUNC 1b5a0 87 0 <unknown in mozwer.dll>
FUNC 1b6c8 3c 0 <unknown in mozwer.dll>
FUNC 1b70c 14 0 <unknown in mozwer.dll>
FUNC 1b72c 52 0 <unknown in mozwer.dll>
FUNC 1b780 5b 0 <unknown in mozwer.dll>
FUNC 1b7e4 21 0 <unknown in mozwer.dll>
FUNC 1b80c 21 0 <unknown in mozwer.dll>
FUNC 1b83c 30 0 <unknown in mozwer.dll>
FUNC 1b86c 4a 0 <unknown in mozwer.dll>
FUNC 1b8ec bc 0 <unknown in mozwer.dll>
FUNC 1b9a8 c1 0 <unknown in mozwer.dll>
FUNC 1ba94 26 0 <unknown in mozwer.dll>
FUNC 1badc 38 0 <unknown in mozwer.dll>
FUNC 1bb14 186 0 <unknown in mozwer.dll>
FUNC 1bc9c 182 0 <unknown in mozwer.dll>
FUNC 1be30 5d 0 <unknown in mozwer.dll>
FUNC 1becc 16 0 <unknown in mozwer.dll>
FUNC 1bef0 1b 0 <unknown in mozwer.dll>
FUNC 1bf14 1b 0 <unknown in mozwer.dll>
FUNC 1bf44 175 0 <unknown in mozwer.dll>
FUNC 1c0bc 171 0 <unknown in mozwer.dll>
FUNC 1c250 1c3 0 <unknown in mozwer.dll>
FUNC 1c41c 1b 0 <unknown in mozwer.dll>
FUNC 1c440 1b 0 <unknown in mozwer.dll>
FUNC 1c4a4 1a2 0 <unknown in mozwer.dll>
FUNC 1c650 1b 0 <unknown in mozwer.dll>
FUNC 1c674 1b 0 <unknown in mozwer.dll>
FUNC 1c6f4 48 0 <unknown in mozwer.dll>
FUNC 1c73c 3a 0 <unknown in mozwer.dll>
FUNC 1c7a4 1b0 0 <unknown in mozwer.dll>
FUNC 1c980 1b 0 <unknown in mozwer.dll>
FUNC 1c9a4 1b 0 <unknown in mozwer.dll>
FUNC 1ca08 26 0 <unknown in mozwer.dll>
FUNC 1ca30 116 0 <unknown in mozwer.dll>
FUNC 1cb68 26 0 <unknown in mozwer.dll>
FUNC 1cbd8 3b 0 <unknown in mozwer.dll>
FUNC 1cc34 3b 0 <unknown in mozwer.dll>
FUNC 1cc80 4e 0 <unknown in mozwer.dll>
FUNC 1ccd0 4e 0 <unknown in mozwer.dll>
FUNC 1cd30 3b 0 <unknown in mozwer.dll>
FUNC 1cd6c 3b 0 <unknown in mozwer.dll>
FUNC 1cda8 38 0 <unknown in mozwer.dll>
FUNC 1cde0 31 0 <unknown in mozwer.dll>
FUNC 1ce18 24 0 <unknown in mozwer.dll>
FUNC 1ce3c 2e 0 <unknown in mozwer.dll>
FUNC 1ce6c 23 0 <unknown in mozwer.dll>
FUNC 1ce90 2e 0 <unknown in mozwer.dll>
FUNC 1cec4 27 0 <unknown in mozwer.dll>
FUNC 1cef0 27 0 <unknown in mozwer.dll>
FUNC 1cf54 6c 0 <unknown in mozwer.dll>
FUNC 1cfc0 67 0 <unknown in mozwer.dll>
FUNC 1d028 1a 0 <unknown in mozwer.dll>
FUNC 1d044 43 0 <unknown in mozwer.dll>
FUNC 1d088 1a 0 <unknown in mozwer.dll>
FUNC 1d0a4 43 0 <unknown in mozwer.dll>
FUNC 1d0e8 41 0 <unknown in mozwer.dll>
FUNC 1d12c 41 0 <unknown in mozwer.dll>
FUNC 1d170 3b 0 <unknown in mozwer.dll>
FUNC 1d1ac 3b 0 <unknown in mozwer.dll>
FUNC 1d1e8 4e 0 <unknown in mozwer.dll>
FUNC 1d238 4e 0 <unknown in mozwer.dll>
FUNC 1d298 106 0 <unknown in mozwer.dll>
FUNC 1d3c0 1b 0 <unknown in mozwer.dll>
FUNC 1d3e4 1b 0 <unknown in mozwer.dll>
FUNC 1d414 113 0 <unknown in mozwer.dll>
FUNC 1d538 d1 0 <unknown in mozwer.dll>
FUNC 1d60c b1 0 <unknown in mozwer.dll>
FUNC 1d798 64 0 <unknown in mozwer.dll>
FUNC 1d7fc 3d 0 <unknown in mozwer.dll>
FUNC 1d850 182 0 <unknown in mozwer.dll>
FUNC 1d9f4 62 0 <unknown in mozwer.dll>
FUNC 1da58 83 0 <unknown in mozwer.dll>
FUNC 1daf4 58 0 <unknown in mozwer.dll>
FUNC 1db54 58 0 <unknown in mozwer.dll>
FUNC 1dbc8 b9 0 <unknown in mozwer.dll>
FUNC 1dc84 53 0 <unknown in mozwer.dll>
FUNC 1dcd8 c9 0 <unknown in mozwer.dll>
FUNC 1dda4 53 0 <unknown in mozwer.dll>
FUNC 1de20 81 0 <unknown in mozwer.dll>
FUNC 1dea4 1aa 0 <unknown in mozwer.dll>
FUNC 1e09c 64 0 <unknown in mozwer.dll>
FUNC 1e118 28 0 <unknown in mozwer.dll>
FUNC 1e168 3f 0 <unknown in mozwer.dll>
FUNC 1e1a8 20 0 <unknown in mozwer.dll>
FUNC 1e1c8 2c 0 <unknown in mozwer.dll>
FUNC 1e1f4 22 0 <unknown in mozwer.dll>
FUNC 1e22c 65 0 <unknown in mozwer.dll>
FUNC 1e294 6c 0 <unknown in mozwer.dll>
FUNC 1e380 4d 0 <unknown in mozwer.dll>
FUNC 1e3e0 18 0 <unknown in mozwer.dll>
FUNC 1e400 1 0 <unknown in mozwer.dll>
FUNC 1e410 1 0 <unknown in mozwer.dll>
FUNC 1e44c 5b 0 <unknown in mozwer.dll>
FUNC 1e4f0 56 0 <unknown in mozwer.dll>
FUNC 1e564 47 0 <unknown in mozwer.dll>
FUNC 1e5ac 22 0 <unknown in mozwer.dll>
FUNC 1e5d0 19 0 <unknown in mozwer.dll>
FUNC 1e5ec bf 0 <unknown in mozwer.dll>
FUNC 1e6ac 4d 0 <unknown in mozwer.dll>
FUNC 1e6fc 4d 0 <unknown in mozwer.dll>
FUNC 1e750 1f 0 <unknown in mozwer.dll>
FUNC 1e770 1a 0 <unknown in mozwer.dll>
FUNC 1e798 2a 0 <unknown in mozwer.dll>
FUNC 1e7cc 1b 0 <unknown in mozwer.dll>
FUNC 1e7f0 1b 0 <unknown in mozwer.dll>
FUNC 1e840 2b 0 <unknown in mozwer.dll>
FUNC 1e888 5f 0 <unknown in mozwer.dll>
FUNC 1e8e8 62 0 <unknown in mozwer.dll>
FUNC 1e94c 106 0 <unknown in mozwer.dll>
FUNC 1ea54 27 0 <unknown in mozwer.dll>
FUNC 1ea7c 132 0 <unknown in mozwer.dll>
FUNC 1ebb0 62 0 <unknown in mozwer.dll>
FUNC 1ec14 52 0 <unknown in mozwer.dll>
FUNC 1ecfc 8e 0 <unknown in mozwer.dll>
FUNC 1ed8c 42 0 <unknown in mozwer.dll>
FUNC 1ee3c 1f 0 <unknown in mozwer.dll>
FUNC 1ee5c 2b 0 <unknown in mozwer.dll>
FUNC 1ee88 af 0 <unknown in mozwer.dll>
FUNC 1ef68 81 0 <unknown in mozwer.dll>
FUNC 1efec 88 0 <unknown in mozwer.dll>
FUNC 1f074 a6 0 <unknown in mozwer.dll>
FUNC 1f228 91 0 <unknown in mozwer.dll>
FUNC 1f2d8 29 0 <unknown in mozwer.dll>
FUNC 1f304 29 0 <unknown in mozwer.dll>
FUNC 1f330 29 0 <unknown in mozwer.dll>
FUNC 1f35c 29 0 <unknown in mozwer.dll>
FUNC 1f388 29 0 <unknown in mozwer.dll>
FUNC 1f3b4 6c 0 <unknown in mozwer.dll>
FUNC 1f420 7e 0 <unknown in mozwer.dll>
FUNC 1f4a0 93 0 <unknown in mozwer.dll>
FUNC 1f534 6b 0 <unknown in mozwer.dll>
FUNC 1f5a0 b3 0 <unknown in mozwer.dll>
FUNC 1f668 26 0 <unknown in mozwer.dll>
FUNC 1f6a0 1f 0 <unknown in mozwer.dll>
FUNC 1f6c0 76 0 <unknown in mozwer.dll>
FUNC 1f758 36 0 <unknown in mozwer.dll>
FUNC 1f790 42 0 <unknown in mozwer.dll>
FUNC 1f7d4 49 0 <unknown in mozwer.dll>
FUNC 1f820 50 0 <unknown in mozwer.dll>
FUNC 1f884 58 0 <unknown in mozwer.dll>
FUNC 1f91c 2e4 0 <unknown in mozwer.dll>
FUNC 1fc00 4c 0 <unknown in mozwer.dll>
FUNC 1fc4c 2e5 0 <unknown in mozwer.dll>
FUNC 1ff34 847 0 <unknown in mozwer.dll>
FUNC 2077c 4b3 0 <unknown in mozwer.dll>
FUNC 20c30 139 0 <unknown in mozwer.dll>
FUNC 20d6c 71 0 <unknown in mozwer.dll>
FUNC 20de0 86 0 <unknown in mozwer.dll>
FUNC 20e68 14a 0 <unknown in mozwer.dll>
FUNC 20fb4 11f 0 <unknown in mozwer.dll>
FUNC 210d4 150 0 <unknown in mozwer.dll>
FUNC 21224 c6 0 <unknown in mozwer.dll>
FUNC 212ec 68 0 <unknown in mozwer.dll>
FUNC 213c8 291 0 <unknown in mozwer.dll>
FUNC 2165c 272 0 <unknown in mozwer.dll>
FUNC 218d0 479 0 <unknown in mozwer.dll>
FUNC 21d4c 167 0 <unknown in mozwer.dll>
FUNC 21eb4 ea5 0 <unknown in mozwer.dll>
FUNC 22d5c 374 0 <unknown in mozwer.dll>
FUNC 230d0 f6 0 <unknown in mozwer.dll>
FUNC 231c8 17 0 <unknown in mozwer.dll>
FUNC 231e0 126 0 <unknown in mozwer.dll>
FUNC 23308 13f 0 <unknown in mozwer.dll>
FUNC 23448 34 0 <unknown in mozwer.dll>
FUNC 2347c 111 0 <unknown in mozwer.dll>
FUNC 23590 2b2 0 <unknown in mozwer.dll>
FUNC 23844 897 0 <unknown in mozwer.dll>
FUNC 240dc 207 0 <unknown in mozwer.dll>
FUNC 242e4 3a 0 <unknown in mozwer.dll>
FUNC 24320 541 0 <unknown in mozwer.dll>
FUNC 24864 1df 0 <unknown in mozwer.dll>
FUNC 24a44 1d5 0 <unknown in mozwer.dll>
FUNC 24c1c 1cc 0 <unknown in mozwer.dll>
FUNC 24de8 247 0 <unknown in mozwer.dll>
FUNC 25030 535 0 <unknown in mozwer.dll>
FUNC 25568 15c 0 <unknown in mozwer.dll>
FUNC 256c4 192 0 <unknown in mozwer.dll>
FUNC 2587c 62 0 <unknown in mozwer.dll>
FUNC 258e0 1cc 0 <unknown in mozwer.dll>
FUNC 25af8 63 0 <unknown in mozwer.dll>
FUNC 25b5c 3a 0 <unknown in mozwer.dll>
FUNC 25b98 3e 0 <unknown in mozwer.dll>
FUNC 25bd8 1d 0 <unknown in mozwer.dll>
FUNC 25bf8 1a 0 <unknown in mozwer.dll>
FUNC 25c14 17 0 <unknown in mozwer.dll>
FUNC 25c2c c0 0 <unknown in mozwer.dll>
FUNC 25cec 19 0 <unknown in mozwer.dll>
FUNC 25d08 19 0 <unknown in mozwer.dll>
FUNC 25d24 19 0 <unknown in mozwer.dll>
FUNC 25d40 207 0 <unknown in mozwer.dll>
FUNC 25f48 17 0 <unknown in mozwer.dll>
FUNC 25f60 7c 0 <unknown in mozwer.dll>
FUNC 25fdc 75 0 <unknown in mozwer.dll>
FUNC 26054 e1 0 <unknown in mozwer.dll>
FUNC 26138 112 0 <unknown in mozwer.dll>
FUNC 2639c 4c 0 <unknown in mozwer.dll>
FUNC 263e8 152 0 <unknown in mozwer.dll>
FUNC 2653c 11d 0 <unknown in mozwer.dll>
FUNC 2665c 40 0 <unknown in mozwer.dll>
FUNC 266b0 40 0 <unknown in mozwer.dll>
FUNC 26728 40 0 <unknown in mozwer.dll>
FUNC 26890 28 0 <unknown in mozwer.dll>
FUNC 268d0 29 0 <unknown in mozwer.dll>
FUNC 26900 2d 0 <unknown in mozwer.dll>
FUNC 269f0 46 0 <unknown in mozwer.dll>
FUNC 26a50 35 0 <unknown in mozwer.dll>
FUNC 26a90 4b 0 <unknown in mozwer.dll>
FUNC 26b1c a1 0 <unknown in mozwer.dll>
FUNC 26bc0 95 0 <unknown in mozwer.dll>
FUNC 26c58 62 0 <unknown in mozwer.dll>
FUNC 26cd4 62 0 <unknown in mozwer.dll>
FUNC 26d38 62 0 <unknown in mozwer.dll>
FUNC 26d9c 62 0 <unknown in mozwer.dll>
FUNC 26e00 62 0 <unknown in mozwer.dll>
FUNC 26e64 95 0 <unknown in mozwer.dll>
FUNC 26f20 72 0 <unknown in mozwer.dll>
FUNC 26f94 72 0 <unknown in mozwer.dll>
FUNC 27008 32 0 <unknown in mozwer.dll>
FUNC 2703c 37 0 <unknown in mozwer.dll>
FUNC 270c0 31 0 <unknown in mozwer.dll>
FUNC 27100 41 0 <unknown in mozwer.dll>
FUNC 27144 3a 0 <unknown in mozwer.dll>
FUNC 27180 dc 0 <unknown in mozwer.dll>
FUNC 2725c 95 0 <unknown in mozwer.dll>
FUNC 272f4 48 0 <unknown in mozwer.dll>
FUNC 2733c 46 0 <unknown in mozwer.dll>
FUNC 27384 46 0 <unknown in mozwer.dll>
FUNC 273cc 51 0 <unknown in mozwer.dll>
FUNC 27420 b6 0 <unknown in mozwer.dll>
FUNC 274d8 39 0 <unknown in mozwer.dll>
FUNC 27514 82 0 <unknown in mozwer.dll>
FUNC 27598 48 0 <unknown in mozwer.dll>
FUNC 275e0 ab 0 <unknown in mozwer.dll>
FUNC 2768c 61 0 <unknown in mozwer.dll>
FUNC 276f0 51 0 <unknown in mozwer.dll>
FUNC 27744 61 0 <unknown in mozwer.dll>
FUNC 277a8 56 0 <unknown in mozwer.dll>
FUNC 27800 dc 0 <unknown in mozwer.dll>
FUNC 278dc 70 0 <unknown in mozwer.dll>
FUNC 2794c 50 0 <unknown in mozwer.dll>
FUNC 2799c 5f 0 <unknown in mozwer.dll>
FUNC 279fc 71 0 <unknown in mozwer.dll>
FUNC 27a70 71 0 <unknown in mozwer.dll>
FUNC 27ae4 40 0 <unknown in mozwer.dll>
FUNC 27b24 33 0 <unknown in mozwer.dll>
FUNC 27b58 4f 0 <unknown in mozwer.dll>
FUNC 27ba8 4e 0 <unknown in mozwer.dll>
FUNC 27bf8 4e 0 <unknown in mozwer.dll>
FUNC 27c48 4e 0 <unknown in mozwer.dll>
FUNC 27c98 4e 0 <unknown in mozwer.dll>
FUNC 27ce8 42 0 <unknown in mozwer.dll>
FUNC 27d2c 6d 0 <unknown in mozwer.dll>
FUNC 27d9c 2e 0 <unknown in mozwer.dll>
FUNC 27dcc 15a 0 <unknown in mozwer.dll>
FUNC 27f28 2e 0 <unknown in mozwer.dll>
FUNC 27f58 78 0 <unknown in mozwer.dll>
FUNC 27fd0 c6 0 <unknown in mozwer.dll>
FUNC 280a0 73 0 <unknown in mozwer.dll>
FUNC 28114 fe 0 <unknown in mozwer.dll>
FUNC 28228 119 0 <unknown in mozwer.dll>
FUNC 28344 137 0 <unknown in mozwer.dll>
FUNC 2847c 1d6 0 <unknown in mozwer.dll>
FUNC 28ab4 4d 0 <unknown in mozwer.dll>
FUNC 28ba0 53 0 <unknown in mozwer.dll>
FUNC 28bfc 26 0 <unknown in mozwer.dll>
FUNC 28c44 79 0 <unknown in mozwer.dll>
FUNC 28cc0 48 0 <unknown in mozwer.dll>
FUNC 28d10 37 0 <unknown in mozwer.dll>
FUNC 28d80 1b 0 <unknown in mozwer.dll>
FUNC 28dc0 1c 0 <unknown in mozwer.dll>
FUNC 28e10 39 0 <unknown in mozwer.dll>
FUNC 28e50 22 0 <unknown in mozwer.dll>
FUNC 28e74 d4 0 <unknown in mozwer.dll>
FUNC 28f48 a7 0 <unknown in mozwer.dll>
FUNC 28ff0 cc 0 <unknown in mozwer.dll>
FUNC 290bc 41 0 <unknown in mozwer.dll>
FUNC 29100 1a 0 <unknown in mozwer.dll>
FUNC 29130 20 0 <unknown in mozwer.dll>
FUNC 29150 67 0 <unknown in mozwer.dll>
FUNC 291c0 c5 0 <unknown in mozwer.dll>
FUNC 292a4 26 0 <unknown in mozwer.dll>
FUNC 292f0 26 0 <unknown in mozwer.dll>
FUNC 29318 cd 0 <unknown in mozwer.dll>
FUNC 293e8 f5 0 <unknown in mozwer.dll>
FUNC 294e0 38 0 <unknown in mozwer.dll>
FUNC 29520 26 0 <unknown in mozwer.dll>
FUNC 29560 26 0 <unknown in mozwer.dll>
FUNC 29588 f5 0 <unknown in mozwer.dll>
FUNC 29680 20 0 <unknown in mozwer.dll>
FUNC 296a0 9f 0 <unknown in mozwer.dll>
FUNC 29748 1b 0 <unknown in mozwer.dll>
FUNC 2976c 1b 0 <unknown in mozwer.dll>
FUNC 2979c c8 0 <unknown in mozwer.dll>
FUNC 2988c 3f 0 <unknown in mozwer.dll>
FUNC 298ec 45 0 <unknown in mozwer.dll>
FUNC 29954 5f 0 <unknown in mozwer.dll>
FUNC 299d4 3d 0 <unknown in mozwer.dll>
FUNC 29a20 3b 0 <unknown in mozwer.dll>
FUNC 29a60 40 0 <unknown in mozwer.dll>
FUNC 29abc ed 0 <unknown in mozwer.dll>
FUNC 29bac 10c 0 <unknown in mozwer.dll>
FUNC 29cd8 36 0 <unknown in mozwer.dll>
FUNC 29d10 36 0 <unknown in mozwer.dll>
FUNC 29d60 25 0 <unknown in mozwer.dll>
FUNC 29d94 87 0 <unknown in mozwer.dll>
FUNC 29e1c 1c 0 <unknown in mozwer.dll>
FUNC 29e40 60 0 <unknown in mozwer.dll>
FUNC 29eb0 25 0 <unknown in mozwer.dll>
FUNC 29ed8 3a 0 <unknown in mozwer.dll>
FUNC 29f20 27 0 <unknown in mozwer.dll>
FUNC 29f4c 2b9 0 <unknown in mozwer.dll>
FUNC 2a208 7d 0 <unknown in mozwer.dll>
FUNC 2a288 90 0 <unknown in mozwer.dll>
FUNC 2a318 b8 0 <unknown in mozwer.dll>
FUNC 2a3d0 1c2 0 <unknown in mozwer.dll>
FUNC 2a59c 1b 0 <unknown in mozwer.dll>
FUNC 2a5c0 1b 0 <unknown in mozwer.dll>
FUNC 2a5f0 1a0 0 <unknown in mozwer.dll>
FUNC 2a79c 26 0 <unknown in mozwer.dll>
FUNC 2a800 1e3 0 <unknown in mozwer.dll>
FUNC 2aa14 1ba 0 <unknown in mozwer.dll>
FUNC 2abd0 3d 0 <unknown in mozwer.dll>
FUNC 2ac18 80 0 <unknown in mozwer.dll>
FUNC 2ac98 3c 0 <unknown in mozwer.dll>
FUNC 2acd4 1e 0 <unknown in mozwer.dll>
FUNC 2acf4 2f 0 <unknown in mozwer.dll>
FUNC 2ad24 47 0 <unknown in mozwer.dll>
FUNC 2adb8 25 0 <unknown in mozwer.dll>
FUNC 2ade0 1a 0 <unknown in mozwer.dll>
FUNC 2adfc 15b 0 <unknown in mozwer.dll>
FUNC 2af68 6d 0 <unknown in mozwer.dll>
FUNC 2afe0 ae 0 <unknown in mozwer.dll>
FUNC 2b0c8 2f 0 <unknown in mozwer.dll>
FUNC 2b100 34 0 <unknown in mozwer.dll>
FUNC 2b134 59 0 <unknown in mozwer.dll>
FUNC 2b194 27 0 <unknown in mozwer.dll>
FUNC 2b228 2e 0 <unknown in mozwer.dll>
FUNC 2b258 12 0 <unknown in mozwer.dll>
FUNC 2b26c 12 0 <unknown in mozwer.dll>
FUNC 2b280 1da 0 <unknown in mozwer.dll>
FUNC 2b45c 26c 0 <unknown in mozwer.dll>
FUNC 2b6cc 27 0 <unknown in mozwer.dll>
FUNC 2b758 27 0 <unknown in mozwer.dll>
FUNC 2b7b0 92 0 <unknown in mozwer.dll>
FUNC 2b89c 26 0 <unknown in mozwer.dll>
FUNC 2b8e4 45 0 <unknown in mozwer.dll>
FUNC 2b9b0 27 0 <unknown in mozwer.dll>
FUNC 2ba10 66 0 <unknown in mozwer.dll>
FUNC 2ba80 4b 0 <unknown in mozwer.dll>
FUNC 2bb0c 7a 0 <unknown in mozwer.dll>
FUNC 2bc04 5d 0 <unknown in mozwer.dll>
FUNC 2bc64 ae 0 <unknown in mozwer.dll>
FUNC 2bd24 78 0 <unknown in mozwer.dll>
FUNC 2bdb4 28 0 <unknown in mozwer.dll>
FUNC 2bddc 26 0 <unknown in mozwer.dll>
FUNC 2be18 28 0 <unknown in mozwer.dll>
FUNC 2be68 9a 0 <unknown in mozwer.dll>
FUNC 2bf24 e0 0 <unknown in mozwer.dll>
FUNC 2c02c 40 0 <unknown in mozwer.dll>
FUNC 2c06c 30 0 <unknown in mozwer.dll>
FUNC 2c0b0 47 0 <unknown in mozwer.dll>
FUNC 2c110 11f 0 <unknown in mozwer.dll>
FUNC 2c238 1b 0 <unknown in mozwer.dll>
FUNC 2c25c 1b 0 <unknown in mozwer.dll>
FUNC 2c280 5b 0 <unknown in mozwer.dll>
FUNC 2c2f0 cf 0 <unknown in mozwer.dll>
FUNC 2c3c0 39 0 <unknown in mozwer.dll>
FUNC 2c3fc 20 0 <unknown in mozwer.dll>
FUNC 2c41c 3a 0 <unknown in mozwer.dll>
FUNC 2c458 3b 0 <unknown in mozwer.dll>
FUNC 2c494 20 0 <unknown in mozwer.dll>
FUNC 2c4b4 3a 0 <unknown in mozwer.dll>
FUNC 2c4f0 3b 0 <unknown in mozwer.dll>
FUNC 2c52c 4e 0 <unknown in mozwer.dll>
FUNC 2c5c4 5e 0 <unknown in mozwer.dll>
FUNC 2c664 61 0 <unknown in mozwer.dll>
FUNC 2c6c8 76 0 <unknown in mozwer.dll>
FUNC 2c740 2a 0 <unknown in mozwer.dll>
FUNC 2c76c 2e 0 <unknown in mozwer.dll>
FUNC 2c79c 2a 0 <unknown in mozwer.dll>
FUNC 2c7c8 2e 0 <unknown in mozwer.dll>
FUNC 2c7f8 2a 0 <unknown in mozwer.dll>
FUNC 2c824 2e 0 <unknown in mozwer.dll>
FUNC 2c854 2a 0 <unknown in mozwer.dll>
FUNC 2c880 2e 0 <unknown in mozwer.dll>
FUNC 2c8b0 2a 0 <unknown in mozwer.dll>
FUNC 2c8dc 2e 0 <unknown in mozwer.dll>
FUNC 2c90c 2a 0 <unknown in mozwer.dll>
FUNC 2c938 2e 0 <unknown in mozwer.dll>
FUNC 2c968 2a 0 <unknown in mozwer.dll>
FUNC 2c994 2e 0 <unknown in mozwer.dll>
FUNC 2c9c4 2a 0 <unknown in mozwer.dll>
FUNC 2c9f0 2e 0 <unknown in mozwer.dll>
FUNC 2ca20 2a 0 <unknown in mozwer.dll>
FUNC 2ca4c 2e 0 <unknown in mozwer.dll>
FUNC 2ca7c 2a 0 <unknown in mozwer.dll>
FUNC 2caa8 2e 0 <unknown in mozwer.dll>
FUNC 2cad8 2a 0 <unknown in mozwer.dll>
FUNC 2cb04 2e 0 <unknown in mozwer.dll>
FUNC 2cb34 2a 0 <unknown in mozwer.dll>
FUNC 2cb60 2e 0 <unknown in mozwer.dll>
FUNC 2cf30 1e 0 <unknown in mozwer.dll>
FUNC 2cf50 18 0 <unknown in mozwer.dll>
FUNC 2cf90 2a 0 <unknown in mozwer.dll>
FUNC 2cfbc 2e 0 <unknown in mozwer.dll>
FUNC 2cfec 2a 0 <unknown in mozwer.dll>
FUNC 2d018 2e 0 <unknown in mozwer.dll>
FUNC 2d048 2a 0 <unknown in mozwer.dll>
FUNC 2d074 2e 0 <unknown in mozwer.dll>
FUNC 2d0a4 2a 0 <unknown in mozwer.dll>
FUNC 2d0d0 2e 0 <unknown in mozwer.dll>
FUNC 2d100 2e 0 <unknown in mozwer.dll>
FUNC 2d130 2e 0 <unknown in mozwer.dll>
FUNC 2d160 2e 0 <unknown in mozwer.dll>
FUNC 2d190 2e 0 <unknown in mozwer.dll>
FUNC 2d1c0 2e 0 <unknown in mozwer.dll>
FUNC 2d1f0 2e 0 <unknown in mozwer.dll>
FUNC 2d220 2e 0 <unknown in mozwer.dll>
FUNC 2d250 2e 0 <unknown in mozwer.dll>
FUNC 2d2b8 25 0 <unknown in mozwer.dll>
FUNC 2d2ec 2a 0 <unknown in mozwer.dll>
FUNC 2d324 305 0 <unknown in mozwer.dll>
FUNC 2d62c 2f0 0 <unknown in mozwer.dll>
FUNC 2d954 25 0 <unknown in mozwer.dll>
FUNC 2d98c 2d 0 <unknown in mozwer.dll>
FUNC 2d9c8 6a8 0 <unknown in mozwer.dll>
FUNC 2e070 758 0 <unknown in mozwer.dll>
FUNC 2e824 17e 0 <unknown in mozwer.dll>
FUNC 2e9a4 4d 0 <unknown in mozwer.dll>
FUNC 2e9f4 72 0 <unknown in mozwer.dll>
FUNC 2ea68 14 0 <unknown in mozwer.dll>
FUNC 2ea7c 19c 0 <unknown in mozwer.dll>
FUNC 2f97c 31 0 <unknown in mozwer.dll>
FUNC 2f9b0 31 0 <unknown in mozwer.dll>
FUNC 2fa50 304 0 <unknown in mozwer.dll>
FUNC 2fd54 30 0 <unknown in mozwer.dll>
FUNC 2fd84 a5 0 <unknown in mozwer.dll>
FUNC 2fe2c 1d2 0 <unknown in mozwer.dll>
FUNC 30000 db 0 <unknown in mozwer.dll>
FUNC 300dc 36d 0 <unknown in mozwer.dll>
FUNC 3044c 143 0 <unknown in mozwer.dll>
FUNC 30590 a6 0 <unknown in mozwer.dll>
FUNC 30638 132 0 <unknown in mozwer.dll>
FUNC 3076c 5e 0 <unknown in mozwer.dll>
FUNC 307cc 23 0 <unknown in mozwer.dll>
FUNC 30800 17c 0 <unknown in mozwer.dll>
FUNC 309a0 26 0 <unknown in mozwer.dll>
FUNC 309d0 124 0 <unknown in mozwer.dll>
FUNC 30af4 21 0 <unknown in mozwer.dll>
FUNC 30b98 5b 0 <unknown in mozwer.dll>
FUNC 30bf4 1d 0 <unknown in mozwer.dll>
FUNC 30c30 13 0 <unknown in mozwer.dll>
FUNC 30c50 3d5 0 <unknown in mozwer.dll>
FUNC 31054 82 0 <unknown in mozwer.dll>
FUNC 310e4 69 0 <unknown in mozwer.dll>
FUNC 31150 bb 0 <unknown in mozwer.dll>
FUNC 3120c 76 0 <unknown in mozwer.dll>
FUNC 31284 a2 0 <unknown in mozwer.dll>
FUNC 31328 a1 0 <unknown in mozwer.dll>
FUNC 313cc 148 0 <unknown in mozwer.dll>
FUNC 31514 47f 0 <unknown in mozwer.dll>
FUNC 31994 65 0 <unknown in mozwer.dll>
FUNC 319fc a2 0 <unknown in mozwer.dll>
FUNC 31aa0 166 0 <unknown in mozwer.dll>
FUNC 31c08 352 0 <unknown in mozwer.dll>
FUNC 31f5c 1ea 0 <unknown in mozwer.dll>
FUNC 32148 296 0 <unknown in mozwer.dll>
FUNC 323e0 2e 0 <unknown in mozwer.dll>
FUNC 32410 2c 0 <unknown in mozwer.dll>
FUNC 3243c 26 0 <unknown in mozwer.dll>
FUNC 32464 4e 0 <unknown in mozwer.dll>
FUNC 324b4 26 0 <unknown in mozwer.dll>
FUNC 324e4 1b 0 <unknown in mozwer.dll>
FUNC 32508 1b 0 <unknown in mozwer.dll>
FUNC 32550 26 0 <unknown in mozwer.dll>
FUNC 32590 26 0 <unknown in mozwer.dll>
FUNC 325b8 be 0 <unknown in mozwer.dll>
FUNC 326ac 1b 0 <unknown in mozwer.dll>
FUNC 326d0 1b 0 <unknown in mozwer.dll>
FUNC 32700 8e 0 <unknown in mozwer.dll>
FUNC 327b4 11d 0 <unknown in mozwer.dll>
FUNC 328f8 26 0 <unknown in mozwer.dll>
FUNC 32974 72 0 <unknown in mozwer.dll>
FUNC 329e8 6f 0 <unknown in mozwer.dll>
FUNC 32a58 89 0 <unknown in mozwer.dll>
FUNC 32ae4 8f 0 <unknown in mozwer.dll>
FUNC 32b74 10a 0 <unknown in mozwer.dll>
FUNC 32c80 47 0 <unknown in mozwer.dll>
FUNC 32cc8 1ff 0 <unknown in mozwer.dll>
FUNC 32ec8 34 0 <unknown in mozwer.dll>
FUNC 32efc 59 0 <unknown in mozwer.dll>
FUNC 32f58 48 0 <unknown in mozwer.dll>
FUNC 32fa0 77 0 <unknown in mozwer.dll>
FUNC 33018 3f 0 <unknown in mozwer.dll>
FUNC 33088 6e 0 <unknown in mozwer.dll>
FUNC 33118 3e 0 <unknown in mozwer.dll>
FUNC 33178 41 0 <unknown in mozwer.dll>
FUNC 331dc 13a 0 <unknown in mozwer.dll>
FUNC 3331c 29 0 <unknown in mozwer.dll>
FUNC 33348 3c 0 <unknown in mozwer.dll>
FUNC 33384 51 0 <unknown in mozwer.dll>
FUNC 333d8 51 0 <unknown in mozwer.dll>
FUNC 3342c 6c 0 <unknown in mozwer.dll>
FUNC 334ac 38 0 <unknown in mozwer.dll>
FUNC 334f8 4c 0 <unknown in mozwer.dll>
FUNC 33558 4c 0 <unknown in mozwer.dll>
FUNC 335d4 69 0 <unknown in mozwer.dll>
FUNC 33640 75 0 <unknown in mozwer.dll>
FUNC 336d8 14 0 <unknown in mozwer.dll>
FUNC 336f4 24 0 <unknown in mozwer.dll>
FUNC 33720 49 0 <unknown in mozwer.dll>
FUNC 3377c 9d 0 <unknown in mozwer.dll>
FUNC 33838 22 0 <unknown in mozwer.dll>
FUNC 33878 5c 0 <unknown in mozwer.dll>
FUNC 338d4 31 0 <unknown in mozwer.dll>
FUNC 33908 22 0 <unknown in mozwer.dll>
FUNC 3392c 176 0 <unknown in mozwer.dll>
FUNC 33aa8 9d 0 <unknown in mozwer.dll>
FUNC 33b64 22 0 <unknown in mozwer.dll>
FUNC 33ba4 5b 0 <unknown in mozwer.dll>
FUNC 33c00 31 0 <unknown in mozwer.dll>
FUNC 33c34 22 0 <unknown in mozwer.dll>
FUNC 33c58 18a 0 <unknown in mozwer.dll>
FUNC 33de8 209 0 <unknown in mozwer.dll>
FUNC 33ff4 3ca 0 <unknown in mozwer.dll>
FUNC 343c0 25 0 <unknown in mozwer.dll>
FUNC 343e8 179 0 <unknown in mozwer.dll>
FUNC 34564 2f 0 <unknown in mozwer.dll>
FUNC 34594 18b 0 <unknown in mozwer.dll>
FUNC 3474c de 0 <unknown in mozwer.dll>
FUNC 3482c 3d 0 <unknown in mozwer.dll>
FUNC 3486c c7 0 <unknown in mozwer.dll>
FUNC 3493c 187 0 <unknown in mozwer.dll>
FUNC 34ac4 30e 0 <unknown in mozwer.dll>
FUNC 34e14 de 0 <unknown in mozwer.dll>
FUNC 34ef4 3d 0 <unknown in mozwer.dll>
FUNC 34f34 c7 0 <unknown in mozwer.dll>
FUNC 35004 189 0 <unknown in mozwer.dll>
FUNC 35190 19b 0 <unknown in mozwer.dll>
FUNC 353a8 22 0 <unknown in mozwer.dll>
FUNC 353d0 22 0 <unknown in mozwer.dll>
FUNC 354bc 11e 0 <unknown in mozwer.dll>
FUNC 355dc 17 0 <unknown in mozwer.dll>
FUNC 35644 30 0 <unknown in mozwer.dll>
FUNC 35698 111 0 <unknown in mozwer.dll>
FUNC 357ac 2f 0 <unknown in mozwer.dll>
FUNC 357dc 119 0 <unknown in mozwer.dll>
FUNC 359e4 65 0 <unknown in mozwer.dll>
FUNC 35b7c 75 0 <unknown in mozwer.dll>
FUNC 35bf4 95 0 <unknown in mozwer.dll>
FUNC 35d48 96 0 <unknown in mozwer.dll>
FUNC 35e24 101 0 <unknown in mozwer.dll>
FUNC 35f28 9f 0 <unknown in mozwer.dll>
FUNC 35fc8 11 0 <unknown in mozwer.dll>
FUNC 3600c 21 0 <unknown in mozwer.dll>
FUNC 36034 21 0 <unknown in mozwer.dll>
FUNC 360b8 320 0 <unknown in mozwer.dll>
FUNC 363d8 322 0 <unknown in mozwer.dll>
FUNC 36708 25 0 <unknown in mozwer.dll>
FUNC 36738 81 0 <unknown in mozwer.dll>
FUNC 367f8 25 0 <unknown in mozwer.dll>
FUNC 36828 91 0 <unknown in mozwer.dll>
FUNC 368f0 e5 0 <unknown in mozwer.dll>
FUNC 369e8 ef 0 <unknown in mozwer.dll>
FUNC 36b08 a1 0 <unknown in mozwer.dll>
FUNC 36bac bd 0 <unknown in mozwer.dll>
FUNC 36c6c 7e 0 <unknown in mozwer.dll>
FUNC 36cec 49 0 <unknown in mozwer.dll>
FUNC 36d40 26 0 <unknown in mozwer.dll>
FUNC 36d88 71 0 <unknown in mozwer.dll>
FUNC 36e38 56 0 <unknown in mozwer.dll>
FUNC 36eac ea 0 <unknown in mozwer.dll>
FUNC 36fa0 1b 0 <unknown in mozwer.dll>
FUNC 36fc4 1b 0 <unknown in mozwer.dll>
FUNC 36ff4 40 0 <unknown in mozwer.dll>
FUNC 37034 9c 0 <unknown in mozwer.dll>
FUNC 370d0 9c 0 <unknown in mozwer.dll>
FUNC 37264 96 0 <unknown in mozwer.dll>
FUNC 372fc 96 0 <unknown in mozwer.dll>
FUNC 37394 2be 0 <unknown in mozwer.dll>
FUNC 37674 2ff 0 <unknown in mozwer.dll>
FUNC 379f4 eb 0 <unknown in mozwer.dll>
FUNC 37af0 2da 0 <unknown in mozwer.dll>
FUNC 37dcc 8e 0 <unknown in mozwer.dll>
FUNC 37e5c 4d0 0 <unknown in mozwer.dll>
FUNC 3832c 95 0 <unknown in mozwer.dll>
FUNC 383c4 102 0 <unknown in mozwer.dll>
FUNC 384c8 119 0 <unknown in mozwer.dll>
FUNC 385e4 170 0 <unknown in mozwer.dll>
FUNC 38754 6c 0 <unknown in mozwer.dll>
FUNC 387c0 ea 0 <unknown in mozwer.dll>
FUNC 388ac eb 0 <unknown in mozwer.dll>
FUNC 38998 79 0 <unknown in mozwer.dll>
FUNC 38a14 e8 0 <unknown in mozwer.dll>
FUNC 38afc e9 0 <unknown in mozwer.dll>
FUNC 38be8 e4 0 <unknown in mozwer.dll>
FUNC 38ccc e8 0 <unknown in mozwer.dll>
FUNC 38dbc 45 0 <unknown in mozwer.dll>
FUNC 38e04 46 0 <unknown in mozwer.dll>
FUNC 38e4c 46 0 <unknown in mozwer.dll>
FUNC 38e94 51 0 <unknown in mozwer.dll>
FUNC 38ee8 61 0 <unknown in mozwer.dll>
FUNC 38f54 5a 0 <unknown in mozwer.dll>
FUNC 38fb0 e1 0 <unknown in mozwer.dll>
FUNC 39094 f4 0 <unknown in mozwer.dll>
FUNC 39188 10b 0 <unknown in mozwer.dll>
FUNC 39294 14c 0 <unknown in mozwer.dll>
FUNC 39490 1a 0 <unknown in mozwer.dll>
FUNC 394cc 29 0 <unknown in mozwer.dll>
FUNC 394f8 2d 0 <unknown in mozwer.dll>
FUNC 39528 29 0 <unknown in mozwer.dll>
FUNC 39554 2d 0 <unknown in mozwer.dll>
FUNC 39584 29 0 <unknown in mozwer.dll>
FUNC 395b0 2d 0 <unknown in mozwer.dll>
FUNC 395e0 29 0 <unknown in mozwer.dll>
FUNC 3960c 2d 0 <unknown in mozwer.dll>
FUNC 3963c 29 0 <unknown in mozwer.dll>
FUNC 39668 29 0 <unknown in mozwer.dll>
FUNC 39694 29 0 <unknown in mozwer.dll>
FUNC 396c0 29 0 <unknown in mozwer.dll>
FUNC 396ec 2d 0 <unknown in mozwer.dll>
FUNC 3971c 2d 0 <unknown in mozwer.dll>
FUNC 3974c 2d 0 <unknown in mozwer.dll>
FUNC 3977c 2d 0 <unknown in mozwer.dll>
FUNC 397ac 2e 0 <unknown in mozwer.dll>
FUNC 397dc 2e 0 <unknown in mozwer.dll>
FUNC 3980c 2e 0 <unknown in mozwer.dll>
FUNC 3983c 2e 0 <unknown in mozwer.dll>
FUNC 398b0 7d 0 <unknown in mozwer.dll>
FUNC 39994 122 0 <unknown in mozwer.dll>
FUNC 39ab8 13 0 <unknown in mozwer.dll>
FUNC 39e0c 53 0 <unknown in mozwer.dll>
FUNC 39e60 2a 0 <unknown in mozwer.dll>
FUNC 39e8c 64 0 <unknown in mozwer.dll>
FUNC 39ef0 c9 0 <unknown in mozwer.dll>
FUNC 39fbc 103 0 <unknown in mozwer.dll>
FUNC 3a0cc 13f 0 <unknown in mozwer.dll>
FUNC 3a214 32 0 <unknown in mozwer.dll>
FUNC 3a248 11f 0 <unknown in mozwer.dll>
FUNC 3a38c 166 0 <unknown in mozwer.dll>
FUNC 3a4f4 12 0 <unknown in mozwer.dll>
FUNC 3a508 18 0 <unknown in mozwer.dll>
FUNC 3a520 12 0 <unknown in mozwer.dll>
FUNC 3a534 18 0 <unknown in mozwer.dll>
FUNC 3a54c 3a 0 <unknown in mozwer.dll>
FUNC 3a588 53 0 <unknown in mozwer.dll>
FUNC 3a5dc 86 0 <unknown in mozwer.dll>
FUNC 3a664 bf 0 <unknown in mozwer.dll>
FUNC 3a734 51 0 <unknown in mozwer.dll>
FUNC 3a788 51 0 <unknown in mozwer.dll>
FUNC 3a804 a4 0 <unknown in mozwer.dll>
FUNC 3a8a8 95 0 <unknown in mozwer.dll>
FUNC 3a974 af 0 <unknown in mozwer.dll>
FUNC 3aa24 f4 0 <unknown in mozwer.dll>
FUNC 3ab18 87 0 <unknown in mozwer.dll>
FUNC 3ac78 a8 0 <unknown in mozwer.dll>
FUNC 3ad20 176 0 <unknown in mozwer.dll>
FUNC 3aee8 36 0 <unknown in mozwer.dll>
FUNC 3af20 6c 0 <unknown in mozwer.dll>
FUNC 3af8c 65 0 <unknown in mozwer.dll>
FUNC 3aff4 75 0 <unknown in mozwer.dll>
FUNC 3b06c 101 0 <unknown in mozwer.dll>
FUNC 3b170 13e 0 <unknown in mozwer.dll>
FUNC 3b2b0 ba 0 <unknown in mozwer.dll>
FUNC 3b36c bf 0 <unknown in mozwer.dll>
FUNC 3b42c a5 0 <unknown in mozwer.dll>
FUNC 3b4d4 50 0 <unknown in mozwer.dll>
FUNC 3b524 a8 0 <unknown in mozwer.dll>
FUNC 3b624 1b 0 <unknown in mozwer.dll>
FUNC 3b648 1b 0 <unknown in mozwer.dll>
FUNC 3b6a0 1f 0 <unknown in mozwer.dll>
FUNC 3b6c0 18d 0 <unknown in mozwer.dll>
FUNC 3b860 22 0 <unknown in mozwer.dll>
FUNC 3b888 96 0 <unknown in mozwer.dll>
FUNC 3b920 315 0 <unknown in mozwer.dll>
FUNC 3bc40 17 0 <unknown in mozwer.dll>
FUNC 3bc58 91 0 <unknown in mozwer.dll>
FUNC 3bcec 69 0 <unknown in mozwer.dll>
FUNC 3bd60 26 0 <unknown in mozwer.dll>
FUNC 3bda8 8c 0 <unknown in mozwer.dll>
FUNC 3be34 33 0 <unknown in mozwer.dll>
FUNC 3be68 2f 0 <unknown in mozwer.dll>
FUNC 3bea0 b1 0 <unknown in mozwer.dll>
FUNC 3bf54 5f 0 <unknown in mozwer.dll>
FUNC 3bfbc 2b 0 <unknown in mozwer.dll>
FUNC 3bfec 6f 0 <unknown in mozwer.dll>
FUNC 3c094 108 0 <unknown in mozwer.dll>
FUNC 3c260 2c 0 <unknown in mozwer.dll>
FUNC 3c28c 2c 0 <unknown in mozwer.dll>
FUNC 3c354 2c 0 <unknown in mozwer.dll>
FUNC 3c380 2c 0 <unknown in mozwer.dll>
FUNC 3c3ac 4d 0 <unknown in mozwer.dll>
FUNC 3c3fc 4b 0 <unknown in mozwer.dll>
FUNC 3c448 39 0 <unknown in mozwer.dll>
FUNC 3c484 176 0 <unknown in mozwer.dll>
FUNC 3c5fc 66 0 <unknown in mozwer.dll>
FUNC 3c664 3e 0 <unknown in mozwer.dll>
FUNC 3c6a4 60 0 <unknown in mozwer.dll>
FUNC 3c704 d1 0 <unknown in mozwer.dll>
FUNC 3c7e0 251 0 <unknown in mozwer.dll>
FUNC 3ca34 15e 0 <unknown in mozwer.dll>
FUNC 3cbbc 2f 0 <unknown in mozwer.dll>
FUNC 3cc00 661 0 <unknown in mozwer.dll>
FUNC 3d264 32 0 <unknown in mozwer.dll>
FUNC 3d298 2f 0 <unknown in mozwer.dll>
FUNC 3d2c8 2f 0 <unknown in mozwer.dll>
FUNC 3d300 1b 0 <unknown in mozwer.dll>
FUNC 3d324 1b 0 <unknown in mozwer.dll>
FUNC 3d348 1b 0 <unknown in mozwer.dll>
FUNC 3d36c 1b 0 <unknown in mozwer.dll>
FUNC 3d3a0 b3 0 <unknown in mozwer.dll>
FUNC 3d454 1c 0 <unknown in mozwer.dll>
FUNC 3d5a8 e2 0 <unknown in mozwer.dll>
FUNC 3d68c 87 0 <unknown in mozwer.dll>
FUNC 3d714 1231 0 <unknown in mozwer.dll>
FUNC 3e960 2f 0 <unknown in mozwer.dll>
FUNC 3e990 2f 0 <unknown in mozwer.dll>
FUNC 3ea50 67 0 <unknown in mozwer.dll>
FUNC 3eaf0 74 0 <unknown in mozwer.dll>
FUNC 3eb64 a1 0 <unknown in mozwer.dll>
FUNC 3ec05 38 0 <unknown in mozwer.dll>
FUNC 3ec80 49 0 <unknown in mozwer.dll>
FUNC 3ecd0 39 0 <unknown in mozwer.dll>
FUNC 3ed09 1e 0 <unknown in mozwer.dll>
FUNC 3ed27 4b 0 <unknown in mozwer.dll>
FUNC 3ed72 2a 0 <unknown in mozwer.dll>
FUNC 3ed9c 21 0 <unknown in mozwer.dll>
FUNC 3edc0 e4 0 <unknown in mozwer.dll>
FUNC 3eea4 f4 0 <unknown in mozwer.dll>
FUNC 3ef98 187 0 <unknown in mozwer.dll>
FUNC 3f11f 10 0 <unknown in mozwer.dll>
FUNC 3f12f 1b 0 <unknown in mozwer.dll>
FUNC 3f14a 1e 0 <unknown in mozwer.dll>
FUNC 3f170 5a8 0 <unknown in mozwer.dll>
FUNC 3f750 22c 0 <unknown in mozwer.dll>
FUNC 3f97c 1b4 0 <unknown in mozwer.dll>
FUNC 3fb30 49 0 <unknown in mozwer.dll>
FUNC 3fb7c 3b 0 <unknown in mozwer.dll>
FUNC 3fbb8 14 0 <unknown in mozwer.dll>
FUNC 3fbcc 114d 0 <unknown in mozwer.dll>
FUNC 40d1c 29 0 <unknown in mozwer.dll>
FUNC 40d50 533 0 <unknown in mozwer.dll>
FUNC 41284 10a 0 <unknown in mozwer.dll>
FUNC 413cc 1b 0 <unknown in mozwer.dll>
FUNC 413f0 1b 0 <unknown in mozwer.dll>
FUNC 41420 2e8 0 <unknown in mozwer.dll>
FUNC 41708 6c 0 <unknown in mozwer.dll>
FUNC 417b0 9c 0 <unknown in mozwer.dll>
FUNC 4184c 108 0 <unknown in mozwer.dll>
FUNC 41954 33e 0 <unknown in mozwer.dll>
FUNC 41c94 77 0 <unknown in mozwer.dll>
FUNC 41d14 1b 0 <unknown in mozwer.dll>
FUNC 41d38 1b 0 <unknown in mozwer.dll>
FUNC 41d68 58 0 <unknown in mozwer.dll>
FUNC 41e10 7f 0 <unknown in mozwer.dll>
FUNC 41e90 86 0 <unknown in mozwer.dll>
FUNC 41f18 fd 0 <unknown in mozwer.dll>
FUNC 42018 f6 0 <unknown in mozwer.dll>
FUNC 42110 e4 0 <unknown in mozwer.dll>
FUNC 421f4 db 0 <unknown in mozwer.dll>
FUNC 42344 263 0 <unknown in mozwer.dll>
FUNC 425a8 99 0 <unknown in mozwer.dll>
FUNC 42644 cf 0 <unknown in mozwer.dll>
FUNC 42720 2ea 0 <unknown in mozwer.dll>
FUNC 42a0c 98 0 <unknown in mozwer.dll>
FUNC 42ab0 ea 0 <unknown in mozwer.dll>
FUNC 42b9c a5 0 <unknown in mozwer.dll>
FUNC 42c44 c9 0 <unknown in mozwer.dll>
FUNC 42d10 63 0 <unknown in mozwer.dll>
FUNC 42d74 77 0 <unknown in mozwer.dll>
FUNC 42e1c 27e 0 <unknown in mozwer.dll>
FUNC 4309c 7f 0 <unknown in mozwer.dll>
FUNC 4311c cd 0 <unknown in mozwer.dll>
FUNC 431f0 24a 0 <unknown in mozwer.dll>
FUNC 4343c 96 0 <unknown in mozwer.dll>
FUNC 434e0 108 0 <unknown in mozwer.dll>
FUNC 435e8 5f 0 <unknown in mozwer.dll>
FUNC 43650 e8 0 <unknown in mozwer.dll>
FUNC 43738 21 0 <unknown in mozwer.dll>
FUNC 4375c ae 0 <unknown in mozwer.dll>
FUNC 43830 ab 0 <unknown in mozwer.dll>
FUNC 43970 c7 0 <unknown in mozwer.dll>
FUNC 43a40 5b 0 <unknown in mozwer.dll>
FUNC 43a9b 334 0 <unknown in mozwer.dll>
FUNC 43dcf 1e 0 <unknown in mozwer.dll>
FUNC 43e20 17 0 <unknown in mozwer.dll>
FUNC 43e37 a4 0 <unknown in mozwer.dll>
FUNC 43edb 1 0 <unknown in mozwer.dll>
FUNC 43edc d3 0 <unknown in mozwer.dll>
FUNC 43fb0 c6 0 <unknown in mozwer.dll>
FUNC 44080 3e0 0 <unknown in mozwer.dll>
FUNC 44460 9e 0 <unknown in mozwer.dll>
FUNC 44508 94 0 <unknown in mozwer.dll>
FUNC 4459c 39 0 <unknown in mozwer.dll>
FUNC 445e0 7a 0 <unknown in mozwer.dll>
FUNC 44758 4f 0 <unknown in mozwer.dll>
FUNC 447a8 f0 0 <unknown in mozwer.dll>
FUNC 448b0 100 0 <unknown in mozwer.dll>
FUNC 449b0 197 0 <unknown in mozwer.dll>
FUNC 44b48 25 0 <unknown in mozwer.dll>
FUNC 44b70 179 0 <unknown in mozwer.dll>
FUNC 44cec 46 0 <unknown in mozwer.dll>
FUNC 44d34 150 0 <unknown in mozwer.dll>
FUNC 44f2c 4f 0 <unknown in mozwer.dll>
FUNC 44f7c ad 0 <unknown in mozwer.dll>
FUNC 45078 32 0 <unknown in mozwer.dll>
FUNC 450b4 32 0 <unknown in mozwer.dll>
FUNC 450f0 117 0 <unknown in mozwer.dll>
FUNC 45208 3e7 0 <unknown in mozwer.dll>
FUNC 455f0 23 0 <unknown in mozwer.dll>
FUNC 45614 b0 0 <unknown in mozwer.dll>
FUNC 456c4 23 0 <unknown in mozwer.dll>
FUNC 456e8 b0 0 <unknown in mozwer.dll>
FUNC 45798 c3 0 <unknown in mozwer.dll>
FUNC 4585c c3 0 <unknown in mozwer.dll>
FUNC 45920 37 0 <unknown in mozwer.dll>
FUNC 45958 5a 0 <unknown in mozwer.dll>
FUNC 459b4 7c 0 <unknown in mozwer.dll>
FUNC 45a30 56 0 <unknown in mozwer.dll>
FUNC 45a88 4b 0 <unknown in mozwer.dll>
FUNC 45ad4 20a 0 <unknown in mozwer.dll>
FUNC 45ce0 c1 0 <unknown in mozwer.dll>
FUNC 45da4 291 0 <unknown in mozwer.dll>
FUNC 46038 41 0 <unknown in mozwer.dll>
FUNC 4607c 41 0 <unknown in mozwer.dll>
FUNC 461a0 25 0 <unknown in mozwer.dll>
FUNC 461c8 179 0 <unknown in mozwer.dll>
FUNC 4636c 9e 0 <unknown in mozwer.dll>
FUNC 4640c 33 0 <unknown in mozwer.dll>
FUNC 46440 eb 0 <unknown in mozwer.dll>
FUNC 4652c ef 0 <unknown in mozwer.dll>
FUNC 4661c f3 0 <unknown in mozwer.dll>
FUNC 46710 99 0 <unknown in mozwer.dll>
FUNC 467ac 3b 0 <unknown in mozwer.dll>
FUNC 467e8 3b 0 <unknown in mozwer.dll>
FUNC 46838 26 0 <unknown in mozwer.dll>
FUNC 46880 40 0 <unknown in mozwer.dll>
FUNC 468d0 51 0 <unknown in mozwer.dll>
FUNC 46924 119 0 <unknown in mozwer.dll>
FUNC 46a40 456 0 <unknown in mozwer.dll>
FUNC 46f00 8f 0 <unknown in mozwer.dll>
FUNC 46f90 19b 0 <unknown in mozwer.dll>
FUNC 4712c 1bd 0 <unknown in mozwer.dll>
FUNC 472ec 27b 0 <unknown in mozwer.dll>
FUNC 47568 66 0 <unknown in mozwer.dll>
FUNC 475f8 66 0 <unknown in mozwer.dll>
FUNC 47660 27 0 <unknown in mozwer.dll>
FUNC 47694 3b 0 <unknown in mozwer.dll>
FUNC 476d0 29 0 <unknown in mozwer.dll>
FUNC 47704 e7 0 <unknown in mozwer.dll>
FUNC 47874 3d 0 <unknown in mozwer.dll>
FUNC 478b4 1e 0 <unknown in mozwer.dll>
FUNC 478d4 53 0 <unknown in mozwer.dll>
FUNC 4797c ce 0 <unknown in mozwer.dll>
FUNC 47a4c c7 0 <unknown in mozwer.dll>
FUNC 47bb4 36 0 <unknown in mozwer.dll>
FUNC 47cdc 7a 0 <unknown in mozwer.dll>
FUNC 47d64 1d 0 <unknown in mozwer.dll>
FUNC 47dd4 39 0 <unknown in mozwer.dll>
FUNC 47e20 4e 0 <unknown in mozwer.dll>
FUNC 47ff8 18a 0 <unknown in mozwer.dll>
FUNC 48184 96 0 <unknown in mozwer.dll>
FUNC 48254 28 0 <unknown in mozwer.dll>
FUNC 48280 1ea 0 <unknown in mozwer.dll>
FUNC 48554 2e6 0 <unknown in mozwer.dll>
FUNC 4883c 62 0 <unknown in mozwer.dll>
FUNC 48910 250 0 <unknown in mozwer.dll>
FUNC 48b94 32 0 <unknown in mozwer.dll>
FUNC 48c00 42 0 <unknown in mozwer.dll>
FUNC 48c78 3c 0 <unknown in mozwer.dll>
FUNC 48cc0 42 0 <unknown in mozwer.dll>
FUNC 48d04 1b 0 <unknown in mozwer.dll>
FUNC 48d30 87 0 <unknown in mozwer.dll>
FUNC 48db8 30 0 <unknown in mozwer.dll>
FUNC 48de8 ed 0 <unknown in mozwer.dll>
FUNC 48ed8 88 0 <unknown in mozwer.dll>
FUNC 48f60 237 0 <unknown in mozwer.dll>
FUNC 49198 294 0 <unknown in mozwer.dll>
FUNC 4942c 13d 0 <unknown in mozwer.dll>
FUNC 4956c 142 0 <unknown in mozwer.dll>
FUNC 496cc 1fe 0 <unknown in mozwer.dll>
FUNC 498cc 201 0 <unknown in mozwer.dll>
FUNC 49ad0 c0 0 <unknown in mozwer.dll>
FUNC 49b90 c1 0 <unknown in mozwer.dll>
FUNC 49c54 4f0 0 <unknown in mozwer.dll>
FUNC 4a144 50f 0 <unknown in mozwer.dll>
FUNC 4a654 d1 0 <unknown in mozwer.dll>
FUNC 4a728 215 0 <unknown in mozwer.dll>
FUNC 4a940 d1 0 <unknown in mozwer.dll>
FUNC 4aa14 2ef 0 <unknown in mozwer.dll>
FUNC 4ad14 15d 0 <unknown in mozwer.dll>
FUNC 4ae78 2b 0 <unknown in mozwer.dll>
FUNC 4aea4 a7 0 <unknown in mozwer.dll>
FUNC 4af74 1dc 0 <unknown in mozwer.dll>
FUNC 4b150 1c8 0 <unknown in mozwer.dll>
FUNC 4b318 179 0 <unknown in mozwer.dll>
FUNC 4b494 20 0 <unknown in mozwer.dll>
FUNC 4b4b4 4c 0 <unknown in mozwer.dll>
FUNC 4b500 50 0 <unknown in mozwer.dll>
FUNC 4b620 5ab 0 <unknown in mozwer.dll>
FUNC 4bbcc 20 0 <unknown in mozwer.dll>
FUNC 4bbec 30 0 <unknown in mozwer.dll>
FUNC 4bc1c 20 0 <unknown in mozwer.dll>
FUNC 4bc3c 30 0 <unknown in mozwer.dll>
FUNC 4bc6c 13 0 <unknown in mozwer.dll>
FUNC 4bc80 23 0 <unknown in mozwer.dll>
FUNC 4bca4 21 0 <unknown in mozwer.dll>
FUNC 4bcc8 31 0 <unknown in mozwer.dll>
FUNC 4bcfc 13 0 <unknown in mozwer.dll>
FUNC 4bd10 23 0 <unknown in mozwer.dll>
FUNC 4bd34 20 0 <unknown in mozwer.dll>
FUNC 4bd54 30 0 <unknown in mozwer.dll>
FUNC 4bd84 20 0 <unknown in mozwer.dll>
FUNC 4bda4 30 0 <unknown in mozwer.dll>
FUNC 4bdd4 13 0 <unknown in mozwer.dll>
FUNC 4bde8 23 0 <unknown in mozwer.dll>
FUNC 4be0c 21 0 <unknown in mozwer.dll>
FUNC 4be30 31 0 <unknown in mozwer.dll>
FUNC 4be64 13 0 <unknown in mozwer.dll>
FUNC 4be78 23 0 <unknown in mozwer.dll>
FUNC 4be9c 67 0 <unknown in mozwer.dll>
FUNC 4bf04 c6 0 <unknown in mozwer.dll>
FUNC 4bfcc 67 0 <unknown in mozwer.dll>
FUNC 4c034 cb 0 <unknown in mozwer.dll>
FUNC 4c100 69 0 <unknown in mozwer.dll>
FUNC 4c16c d4 0 <unknown in mozwer.dll>
FUNC 4c240 69 0 <unknown in mozwer.dll>
FUNC 4c2ac d9 0 <unknown in mozwer.dll>
FUNC 4c388 46 0 <unknown in mozwer.dll>
FUNC 4c3d0 127 0 <unknown in mozwer.dll>
FUNC 4c570 bd 0 <unknown in mozwer.dll>
FUNC 4c630 89 0 <unknown in mozwer.dll>
FUNC 4c6bc 35d 0 <unknown in mozwer.dll>
FUNC 4ca24 bb 0 <unknown in mozwer.dll>
FUNC 4cae0 101 0 <unknown in mozwer.dll>
FUNC 4cbe4 3d 0 <unknown in mozwer.dll>
FUNC 4cc24 2f 0 <unknown in mozwer.dll>
FUNC 4cc54 de 0 <unknown in mozwer.dll>
FUNC 4cd3c 15 0 <unknown in mozwer.dll>
FUNC 4cd54 c7 0 <unknown in mozwer.dll>
FUNC 4ce1c 16c 0 <unknown in mozwer.dll>
FUNC 4cf88 53 0 <unknown in mozwer.dll>
FUNC 4cfe8 26 0 <unknown in mozwer.dll>
FUNC 4d010 55 0 <unknown in mozwer.dll>
FUNC 4d098 76 0 <unknown in mozwer.dll>
FUNC 4d124 3d 0 <unknown in mozwer.dll>
FUNC 4d164 52 0 <unknown in mozwer.dll>
FUNC 4d1b8 be 0 <unknown in mozwer.dll>
FUNC 4d278 3b 0 <unknown in mozwer.dll>
FUNC 4d2c0 1c 0 <unknown in mozwer.dll>
FUNC 4d2dc 27 0 <unknown in mozwer.dll>
FUNC 4d31c aa 0 <unknown in mozwer.dll>
FUNC 4d3e0 40 0 <unknown in mozwer.dll>
FUNC 4d430 2a 0 <unknown in mozwer.dll>
FUNC 4d460 26 0 <unknown in mozwer.dll>
FUNC 4d490 47 0 <unknown in mozwer.dll>
FUNC 4d4d8 8d 0 <unknown in mozwer.dll>
FUNC 4d568 25 0 <unknown in mozwer.dll>
FUNC 4d598 1b 0 <unknown in mozwer.dll>
FUNC 4d5bc 1b 0 <unknown in mozwer.dll>
FUNC 4d5f4 a0 0 <unknown in mozwer.dll>
FUNC 4d694 85 0 <unknown in mozwer.dll>
FUNC 4d71c 40 0 <unknown in mozwer.dll>
FUNC 4d75c a3 0 <unknown in mozwer.dll>
FUNC 4d800 a4 0 <unknown in mozwer.dll>
FUNC 4d8a4 a3 0 <unknown in mozwer.dll>
FUNC 4d948 a4 0 <unknown in mozwer.dll>
FUNC 4dce8 147 0 <unknown in mozwer.dll>
FUNC 4e0d8 137 0 <unknown in mozwer.dll>
FUNC 4e414 6e 0 <unknown in mozwer.dll>
FUNC 4e490 34 0 <unknown in mozwer.dll>
FUNC 4e720 2be 0 <unknown in mozwer.dll>
FUNC 4e9e0 65 0 <unknown in mozwer.dll>
FUNC 4ea48 ba 0 <unknown in mozwer.dll>
FUNC 4eb14 133 0 <unknown in mozwer.dll>
FUNC 4ec64 127 0 <unknown in mozwer.dll>
FUNC 4edb0 70 0 <unknown in mozwer.dll>
FUNC 4ee20 9c 0 <unknown in mozwer.dll>
FUNC 4eebc 20 0 <unknown in mozwer.dll>
FUNC 4eedc 20 0 <unknown in mozwer.dll>
FUNC 4eefc 96 0 <unknown in mozwer.dll>
FUNC 4ef94 20 0 <unknown in mozwer.dll>
FUNC 4efc0 20 0 <unknown in mozwer.dll>
FUNC 4efe0 87 0 <unknown in mozwer.dll>
FUNC 4f070 9c 0 <unknown in mozwer.dll>
FUNC 4f120 10 0 <unknown in mozwer.dll>
FUNC 4f170 f1 0 <unknown in mozwer.dll>
FUNC 4f264 106 0 <unknown in mozwer.dll>
FUNC 4f3b8 2e 0 <unknown in mozwer.dll>
FUNC 4f3e8 267 0 <unknown in mozwer.dll>
FUNC 4f650 2a 0 <unknown in mozwer.dll>
FUNC 4f67c 27 0 <unknown in mozwer.dll>
FUNC 4f6a4 d4 0 <unknown in mozwer.dll>
FUNC 4f7ac 30d 0 <unknown in mozwer.dll>
FUNC 4fabc 1d 0 <unknown in mozwer.dll>
FUNC 4fadc 7c 0 <unknown in mozwer.dll>
FUNC 4fb58 11 0 <unknown in mozwer.dll>
FUNC 4fb6c 1f 0 <unknown in mozwer.dll>
FUNC 4fb8c 1e 0 <unknown in mozwer.dll>
FUNC 4fbc8 133 0 <unknown in mozwer.dll>
FUNC 4fd04 200 0 <unknown in mozwer.dll>
FUNC 50190 2 0 <unknown in mozwer.dll>
FUNC 501b0 6 0 <unknown in mozwer.dll>
FUNC 501b6 17 0 <unknown in mozwer.dll>
FUNC 501cd 19 0 <unknown in mozwer.dll>
FUNC 501e6 14 0 <unknown in mozwer.dll>
FUNC 501fa 36 0 <unknown in mozwer.dll>
FUNC 50230 18 0 <unknown in mozwer.dll>
FUNC 50248 96 0 <unknown in mozwer.dll>
FUNC 502de 1b 0 <unknown in mozwer.dll>
FUNC 502f9 1b 0 <unknown in mozwer.dll>
FUNC 50314 1b 0 <unknown in mozwer.dll>
FUNC 5032f 1b 0 <unknown in mozwer.dll>
FUNC 5034a 1b 0 <unknown in mozwer.dll>
FUNC 50365 1b 0 <unknown in mozwer.dll>
FUNC 50380 1a 0 <unknown in mozwer.dll>
FUNC 5039a 1b 0 <unknown in mozwer.dll>
FUNC 503b5 1a 0 <unknown in mozwer.dll>
FUNC 503cf 1a 0 <unknown in mozwer.dll>
FUNC 503e9 18 0 <unknown in mozwer.dll>
FUNC 50401 2b 0 <unknown in mozwer.dll>
FUNC 5042c 2b 0 <unknown in mozwer.dll>
FUNC 50457 1b 0 <unknown in mozwer.dll>
FUNC 50480 20 0 <unknown in mozwer.dll>
FUNC 504ac 16 0 <unknown in mozwer.dll>
FUNC 504c2 1a 0 <unknown in mozwer.dll>
FUNC 504dc 1a 0 <unknown in mozwer.dll>
FUNC 504f6 1a 0 <unknown in mozwer.dll>
FUNC 50510 1a 0 <unknown in mozwer.dll>
FUNC 5052a 1a 0 <unknown in mozwer.dll>
FUNC 50544 19 0 <unknown in mozwer.dll>
FUNC 5055d 1a 0 <unknown in mozwer.dll>
FUNC 50577 19 0 <unknown in mozwer.dll>
FUNC 50590 16 0 <unknown in mozwer.dll>
FUNC 505a6 16 0 <unknown in mozwer.dll>
FUNC 505bc 1a 0 <unknown in mozwer.dll>
FUNC 505d6 19 0 <unknown in mozwer.dll>
FUNC 505ef 21 0 <unknown in mozwer.dll>
FUNC 50610 19 0 <unknown in mozwer.dll>
FUNC 50629 1b 0 <unknown in mozwer.dll>
FUNC 50644 1d 0 <unknown in mozwer.dll>
FUNC 50661 1b 0 <unknown in mozwer.dll>
FUNC 5067c 18 0 <unknown in mozwer.dll>
FUNC 50694 1a 0 <unknown in mozwer.dll>
FUNC 506ae 1a 0 <unknown in mozwer.dll>
FUNC 506c8 1a 0 <unknown in mozwer.dll>
FUNC 506e2 1a 0 <unknown in mozwer.dll>
FUNC 506fc 21 0 <unknown in mozwer.dll>
FUNC 5071d 1a 0 <unknown in mozwer.dll>
FUNC 50737 19 0 <unknown in mozwer.dll>
FUNC 50750 19 0 <unknown in mozwer.dll>
FUNC 50769 1a 0 <unknown in mozwer.dll>
FUNC 50783 19 0 <unknown in mozwer.dll>
FUNC 5079c 17 0 <unknown in mozwer.dll>
FUNC 507b3 91 0 <unknown in mozwer.dll>
FUNC 50844 9f 0 <unknown in mozwer.dll>
FUNC 508e3 19 0 <unknown in mozwer.dll>
FUNC 508fc 19 0 <unknown in mozwer.dll>
FUNC 50915 19 0 <unknown in mozwer.dll>
FUNC 5092e 41 0 <unknown in mozwer.dll>
FUNC 5096f 1a 0 <unknown in mozwer.dll>
FUNC 50989 19 0 <unknown in mozwer.dll>
FUNC 509a2 47 0 <unknown in mozwer.dll>
FUNC 509e9 47 0 <unknown in mozwer.dll>
FUNC 50a30 53 0 <unknown in mozwer.dll>
FUNC 50a83 53 0 <unknown in mozwer.dll>
FUNC 50ad6 17 0 <unknown in mozwer.dll>
FUNC 50aed 17 0 <unknown in mozwer.dll>
FUNC 50b04 1a 0 <unknown in mozwer.dll>
FUNC 50b1e 17 0 <unknown in mozwer.dll>
FUNC 50b35 25 0 <unknown in mozwer.dll>
FUNC 50b5a 78 0 <unknown in mozwer.dll>
FUNC 50bd2 2f 0 <unknown in mozwer.dll>
FUNC 50c01 83 0 <unknown in mozwer.dll>
FUNC 50c84 16 0 <unknown in mozwer.dll>
FUNC 50c9a 23 0 <unknown in mozwer.dll>
FUNC 50cbd 16 0 <unknown in mozwer.dll>
FUNC 50cd3 23 0 <unknown in mozwer.dll>
FUNC 50cf6 17 0 <unknown in mozwer.dll>
FUNC 50d0d 1a 0 <unknown in mozwer.dll>
FUNC 50d27 2c 0 <unknown in mozwer.dll>
FUNC 50d53 2c 0 <unknown in mozwer.dll>
PUBLIC 50d7f 0 <unknown in mozwer.dll>
STACK CFI INIT 1000 94 .cfa: $rsp 8 + .ra: .cfa 8 - ^
STACK CFI 1000 .cfa: $rsp 80 +
STACK CFI INIT 10a0 267 .cfa: $rsp 8 + .ra: .cfa 8 - ^
STACK CFI 10a0 .cfa: $rsp 288 +
STACK CFI INIT 1310 64 .cfa: $rsp 8 + .ra: .cfa 8 - ^
STACK CFI 1310 .cfa: $rsp 96 +
STACK CFI INIT 13c0 21 .cfa: $rsp 8 + .ra: .cfa 8 - ^
STACK CFI 13c0 .cfa: $rsp 8 +
STACK CFI INIT 13e4 9b .cfa: $rsp 8 + .ra: .cfa 8 - ^
STACK CFI 13e4 .cfa: $rsp 48 +
STACK CFI INIT 1480 10e .cfa: $rsp 8 + .ra: .cfa 8 - ^
STACK CFI 1480 .cfa: $rsp 64 +
STACK CFI INIT 1590 13 .cfa: $rsp 8 + .ra: .cfa 8 - ^
STACK CFI 1590 .cfa: $rsp 48 +
STACK CFI INIT 15b0 d1 .cfa: $rsp 8 + .ra: .cfa 8 - ^
STACK CFI 15b0 .cfa: $rsp 64 +
STACK CFI INIT 1684 6d .cfa: $rsp 8 + .ra: .cfa 8 - ^
STACK CFI 1684 .cfa: $rsp 80 +
STACK CFI INIT 16f4 71 .cfa: $rsp 8 + .ra: .cfa 8 - ^
STACK CFI 16f4 .cfa: $rsp 96 +
STACK CFI INIT 1768 34 .cfa: $rsp 8 + .ra: .cfa 8 - ^
STACK CFI 1768 .cfa: $rsp 48 +
STACK CFI INIT 179c 116 .cfa: $rsp 8 + .ra: .cfa 8 - ^
STACK CFI 179c .cfa: $rsp 48 +
STACK CFI INIT 18b4 84 .cfa: $rsp 8 + .ra: .cfa 8 - ^
STACK CFI 18b4 .cfa: $rsp 64 +
STACK CFI INIT 1940 50 .cfa: $rsp 8 + .ra: .cfa 8 - ^
STACK CFI 1940 .cfa: $rsp 48 +
STACK CFI INIT 19b4 131 .cfa: $rsp 8 + .ra: .cfa 8 - ^
STACK CFI 19b4 .cfa: $rsp 96 +
STACK CFI INIT 1af0 3d .cfa: $rsp 8 + .ra: .cfa 8 - ^
STACK CFI 1af0 .cfa: $rsp 48 +
STACK CFI INIT 1b30 ac .cfa: $rsp 8 + .ra: .cfa 8 - ^
STACK CFI 1b30 .cfa: $rsp 48 +
STACK CFI INIT 1bdc 6b .cfa: $rsp 8 + .ra: .cfa 8 - ^
STACK CFI 1bdc .cfa: $rsp 48 +
STACK CFI INIT 1c64 1b .cfa: $rsp 8 + .ra: .cfa 8 - ^
STACK CFI 1c64 .cfa: $rsp 48 +
STACK CFI INIT 1c88 17 .cfa: $rsp 8 + .ra: .cfa 8 - ^
STACK CFI 1c88 .cfa: $rsp 48 +
STACK CFI INIT 1ca0 3a .cfa: $rsp 8 + .ra: .cfa 8 - ^
STACK CFI 1ca0 .cfa: $rsp 48 +
STACK CFI INIT 1d08 98 .cfa: $rsp 8 + .ra: .cfa 8 - ^
STACK CFI 1d08 .cfa: $rsp 32 +
STACK CFI INIT 1da0 39 .cfa: $rsp 8 + .ra: .cfa 8 - ^
STACK CFI 1da0 .cfa: $rsp 48 +
STACK CFI INIT 1ddc 24 .cfa: $rsp 8 + .ra: .cfa 8 - ^
STACK CFI 1ddc .cfa: $rsp 48 +
STACK CFI INIT 1e00 49 .cfa: $rsp 8 + .ra: .cfa 8 - ^
STACK CFI 1e00 .cfa: $rsp 48 +
STACK CFI INIT 1e4c 29 .cfa: $rsp 8 + .ra: .cfa 8 - ^
STACK CFI 1e4c .cfa: $rsp 48 +
STACK CFI INIT 1e78 8b .cfa: $rsp 8 + .ra: .cfa 8 - ^
STACK CFI 1e78 .cfa: $rsp 48 +
STACK CFI INIT 1f04 60 .cfa: $rsp 8 + .ra: .cfa 8 - ^
STACK CFI 1f04 .cfa: $rsp 48 +
STACK CFI INIT 1f64 15 .cfa: $rsp 8 + .ra: .cfa 8 - ^
STACK CFI 1f64 .cfa: $rsp 48 +
STACK CFI INIT 1f7c 34 .cfa: $rsp 8 + .ra: .cfa 8 - ^
STACK CFI 1f7c .cfa: $rsp 48 +
STACK CFI INIT 1fb0 30 .cfa: $rsp 8 + .ra: .cfa 8 - ^
STACK CFI 1fb0 .cfa: $rsp 48 +
STACK CFI INIT 1fe0 14 .cfa: $rsp 8 + .ra: .cfa 8 - ^
STACK CFI 1fe0 .cfa: $rsp 48 +
STACK CFI INIT 1ff4 28 .cfa: $rsp 8 + .ra: .cfa 8 - ^
STACK CFI 1ff4 .cfa: $rsp 48 +
STACK CFI INIT 201c 15 .cfa: $rsp 8 + .ra: .cfa 8 - ^
STACK CFI 201c .cfa: $rsp 48 +
STACK CFI INIT 2034 14 .cfa: $rsp 8 + .ra: .cfa 8 - ^
STACK CFI 2034 .cfa: $rsp 48 +
STACK CFI INIT 20dc 3a .cfa: $rsp 8 + .ra: .cfa 8 - ^
STACK CFI 20dc .cfa: $rsp 160 +
STACK CFI INIT 2118 52 .cfa: $rsp 8 + .ra: .cfa 8 - ^
STACK CFI 2118 .cfa: $rsp 48 +
STACK CFI INIT 2188 14a .cfa: $rsp 8 + .ra: .cfa 8 - ^
STACK CFI 2188 .cfa: $rsp 1488 +
STACK CFI INIT 22e0 5b .cfa: $rsp 8 + .ra: .cfa 8 - ^
STACK CFI 22e0 .cfa: $rsp 48 +
STACK CFI INIT 233c 3c .cfa: $rsp 8 + .ra: .cfa 8 - ^
STACK CFI 233c .cfa: $rsp 48 +
STACK CFI INIT 2378 3c .cfa: $rsp 8 + .ra: .cfa 8 - ^
STACK CFI 2378 .cfa: $rsp 48 +
STACK CFI INIT 244c 3e .cfa: $rsp 8 + .ra: .cfa 8 - ^
STACK CFI 244c .cfa: $rsp 48 +
STACK CFI INIT 251c 57 .cfa: $rsp 8 + .ra: .cfa 8 - ^
STACK CFI 251c .cfa: $rsp 48 +
STACK CFI INIT 2574 1a1 .cfa: $rsp 8 + .ra: .cfa 8 - ^
STACK CFI 2574 .cfa: $rsp 32 +
STACK CFI INIT 2730 20b .cfa: $rsp 8 + .ra: .cfa 8 - ^
STACK CFI 2730 .cfa: $rsp 112 +
STACK CFI INIT 2940 6d .cfa: $rsp 8 + .ra: .cfa 8 - ^
STACK CFI 2940 .cfa: $rsp 80 +
STACK CFI INIT 29b0 a .cfa: $rsp 8 + .ra: .cfa 8 - ^
STACK CFI 29b0 .cfa: $rsp 48 +
STACK CFI INIT 29bc a5 .cfa: $rsp 8 + .ra: .cfa 8 - ^
STACK CFI 29bc .cfa: $rsp 48 +
STACK CFI INIT 2a68 2f .cfa: $rsp 8 + .ra: .cfa 8 - ^
STACK CFI 2a68 .cfa: $rsp 48 +
STACK CFI INIT 2a98 12 .cfa: $rsp 8 + .ra: .cfa 8 - ^
STACK CFI 2a98 .cfa: $rsp 48 +
STACK CFI INIT 2aac 12 .cfa: $rsp 8 + .ra: .cfa 8 - ^
STACK CFI 2aac .cfa: $rsp 48 +
STACK CFI INIT 2ac0 12 .cfa: $rsp 8 + .ra: .cfa 8 - ^
STACK CFI 2ac0 .cfa: $rsp 48 +
STACK CFI INIT 2b00 5b .cfa: $rsp 8 + .ra: .cfa 8 - ^
STACK CFI 2b00 .cfa: $rsp 64 +
STACK CFI INIT 2b5c 66 .cfa: $rsp 8 + .ra: .cfa 8 - ^
STACK CFI 2b5c .cfa: $rsp 48 +
STACK CFI INIT 2bcc 58 .cfa: $rsp 8 + .ra: .cfa 8 - ^
STACK CFI 2bcc .cfa: $rsp 48 +
STACK CFI INIT 2c28 2a .cfa: $rsp 8 + .ra: .cfa 8 - ^
STACK CFI 2c28 .cfa: $rsp 48 +
STACK CFI INIT 2cb4 117 .cfa: $rsp 8 + .ra: .cfa 8 - ^
STACK CFI 2cb4 .cfa: $rsp 112 +
STACK CFI INIT 2e08 1b .cfa: $rsp 8 + .ra: .cfa 8 - ^
STACK CFI 2e08 .cfa: $rsp 48 +
STACK CFI INIT 2e24 1b .cfa: $rsp 8 + .ra: .cfa 8 - ^
STACK CFI 2e24 .cfa: $rsp 48 +
STACK CFI INIT 2e5c 1b .cfa: $rsp 8 + .ra: .cfa 8 - ^
STACK CFI 2e5c .cfa: $rsp 48 +
STACK CFI INIT 2e80 1b .cfa: $rsp 8 + .ra: .cfa 8 - ^
STACK CFI 2e80 .cfa: $rsp 48 +
STACK CFI INIT 2ecc 28 .cfa: $rsp 8 + .ra: .cfa 8 - ^
STACK CFI 2ecc .cfa: $rsp 48 +
STACK CFI INIT 2ef4 19 .cfa: $rsp 8 + .ra: .cfa 8 - ^
STACK CFI 2ef4 .cfa: $rsp 48 +
STACK CFI INIT 2f10 10 .cfa: $rsp 8 + .ra: .cfa 8 - ^
STACK CFI 2f10 .cfa: $rsp 48 +
STACK CFI INIT 2f20 14 .cfa: $rsp 8 + .ra: .cfa 8 - ^
STACK CFI 2f20 .cfa: $rsp 48 +
STACK CFI INIT 2f34 12 .cfa: $rsp 8 + .ra: .cfa 8 - ^
STACK CFI 2f34 .cfa: $rsp 48 +
STACK CFI INIT 2f60 10 .cfa: $rsp 8 + .ra: .cfa 8 - ^
STACK CFI 2f60 .cfa: $rsp 16 +
STACK CFI INIT 2f80 190 .cfa: $rsp 8 + .ra: .cfa 8 - ^
STACK CFI 2f80 .cfa: $rsp 8 +
STACK CFI INIT 3130 23 .cfa: $rsp 8 + .ra: .cfa 8 - ^
STACK CFI 3130 .cfa: $rsp 48 +
STACK CFI INIT 3180 10 .cfa: $rsp 8 + .ra: .cfa 8 - ^
STACK CFI 3180 .cfa: $rsp 48 +
STACK CFI INIT 31b0 3d .cfa: $rsp 8 + .ra: .cfa 8 - ^
STACK CFI 31b0 .cfa: $rsp 48 +
STACK CFI INIT 3200 40 .cfa: $rsp 8 + .ra: .cfa 8 - ^
STACK CFI 3200 .cfa: $rsp 48 +
STACK CFI INIT 3240 5b .cfa: $rsp 8 + .ra: .cfa 8 - ^
STACK CFI 3240 .cfa: $rsp 48 +
STACK CFI INIT 32b8 35 .cfa: $rsp 8 + .ra: .cfa 8 - ^
STACK CFI 32b8 .cfa: $rsp 48 +
STACK CFI INIT 32f0 10 .cfa: $rsp 8 + .ra: .cfa 8 - ^
STACK CFI 32f0 .cfa: $rsp 48 +
STACK CFI INIT 3300 14 .cfa: $rsp 8 + .ra: .cfa 8 - ^
STACK CFI 3300 .cfa: $rsp 48 +
STACK CFI INIT 3314 10 .cfa: $rsp 8 + .ra: .cfa 8 - ^
STACK CFI 3314 .cfa: $rsp 48 +
STACK CFI INIT 3344 27 .cfa: $rsp 8 + .ra: .cfa 8 - ^
STACK CFI 3344 .cfa: $rsp 8 +
STACK CFI INIT 3374 3e .cfa: $rsp 8 + .ra: .cfa 8 - ^
STACK CFI 3374 .cfa: $rsp 48 +
STACK CFI INIT 33b4 6f .cfa: $rsp 8 + .ra: .cfa 8 - ^
STACK CFI 33b4 .cfa: $rsp 48 +
STACK CFI INIT 34cc 9b .cfa: $rsp 8 + .ra: .cfa 8 - ^
STACK CFI 34cc .cfa: $rsp 48 +
STACK CFI INIT 358c 1f .cfa: $rsp 8 + .ra: .cfa 8 - ^
STACK CFI 358c .cfa: $rsp 48 +
STACK CFI INIT 35d0 8b .cfa: $rsp 8 + .ra: .cfa 8 - ^
STACK CFI 35d0 .cfa: $rsp 112 +
STACK CFI INIT 365c 8b .cfa: $rsp 8 + .ra: .cfa 8 - ^
STACK CFI 365c .cfa: $rsp 112 +
STACK CFI INIT 36e8 8b .cfa: $rsp 8 + .ra: .cfa 8 - ^
STACK CFI 36e8 .cfa: $rsp 112 +
STACK CFI INIT 377c 6e .cfa: $rsp 8 + .ra: .cfa 8 - ^
STACK CFI 377c .cfa: $rsp 64 +
STACK CFI INIT 37ec 143 .cfa: $rsp 8 + .ra: .cfa 8 - ^
STACK CFI 37ec .cfa: $rsp 80 +
STACK CFI INIT 3938 8b .cfa: $rsp 8 + .ra: .cfa 8 - ^
STACK CFI 3938 .cfa: $rsp 112 +
STACK CFI INIT 39c4 8b .cfa: $rsp 8 + .ra: .cfa 8 - ^
STACK CFI 39c4 .cfa: $rsp 112 +
STACK CFI INIT 3a50 8b .cfa: $rsp 8 + .ra: .cfa 8 - ^
STACK CFI 3a50 .cfa: $rsp 112 +
STACK CFI INIT 3ae4 63 .cfa: $rsp 8 + .ra: .cfa 8 - ^
STACK CFI 3ae4 .cfa: $rsp 64 +
STACK CFI INIT 3b48 134 .cfa: $rsp 8 + .ra: .cfa 8 - ^
STACK CFI 3b48 .cfa: $rsp 80 +
STACK CFI INIT 3cb4 20 .cfa: $rsp 8 + .ra: .cfa 8 - ^
STACK CFI 3cb4 .cfa: $rsp 48 +
STACK CFI INIT 3ce0 9a .cfa: $rsp 8 + .ra: .cfa 8 - ^
STACK CFI 3ce0 .cfa: $rsp 48 +
STACK CFI INIT 3d94 34 .cfa: $rsp 8 + .ra: .cfa 8 - ^
STACK CFI 3d94 .cfa: $rsp 48 +
STACK CFI INIT 3dc8 23 .cfa: $rsp 8 + .ra: .cfa 8 - ^
STACK CFI 3dc8 .cfa: $rsp 48 +
STACK CFI INIT 3f08 85 .cfa: $rsp 8 + .ra: .cfa 8 - ^
STACK CFI 3f08 .cfa: $rsp 112 +
STACK CFI INIT 3f90 85 .cfa: $rsp 8 + .ra: .cfa 8 - ^
STACK CFI 3f90 .cfa: $rsp 112 +
STACK CFI INIT 4018 85 .cfa: $rsp 8 + .ra: .cfa 8 - ^
STACK CFI 4018 .cfa: $rsp 112 +
STACK CFI INIT 40a0 85 .cfa: $rsp 8 + .ra: .cfa 8 - ^
STACK CFI 40a0 .cfa: $rsp 112 +
STACK CFI INIT 4128 85 .cfa: $rsp 8 + .ra: .cfa 8 - ^
STACK CFI 4128 .cfa: $rsp 112 +
STACK CFI INIT 41b0 85 .cfa: $rsp 8 + .ra: .cfa 8 - ^
STACK CFI 41b0 .cfa: $rsp 112 +
STACK CFI INIT 4238 1cb .cfa: $rsp 8 + .ra: .cfa 8 - ^
STACK CFI 4238 .cfa: $rsp 1328 +
STACK CFI INIT 4404 1d2 .cfa: $rsp 8 + .ra: .cfa 8 - ^
STACK CFI 4404 .cfa: $rsp 1328 +
STACK CFI INIT 45d8 63 .cfa: $rsp 8 + .ra: .cfa 8 - ^
STACK CFI 45d8 .cfa: $rsp 64 +
STACK CFI INIT 463c 6e .cfa: $rsp 8 + .ra: .cfa 8 - ^
STACK CFI 463c .cfa: $rsp 64 +
STACK CFI INIT 46ac 114 .cfa: $rsp 8 + .ra: .cfa 8 - ^
STACK CFI 46ac .cfa: $rsp 64 +
STACK CFI INIT 47c0 117 .cfa: $rsp 8 + .ra: .cfa 8 - ^
STACK CFI 47c0 .cfa: $rsp 80 +
STACK CFI INIT 48d8 1e7 .cfa: $rsp 8 + .ra: .cfa 8 - ^
STACK CFI 48d8 .cfa: $rsp 3744 +
STACK CFI INIT 4ac0 1ee .cfa: $rsp 8 + .ra: .cfa 8 - ^
STACK CFI 4ac0 .cfa: $rsp 3744 +
STACK CFI INIT 4cfc 23 .cfa: $rsp 8 + .ra: .cfa 8 - ^
STACK CFI 4cfc .cfa: $rsp 48 +
STACK CFI INIT 4d80 48 .cfa: $rsp 8 + .ra: .cfa 8 - ^
STACK CFI 4d80 .cfa: $rsp 48 +
STACK CFI INIT 4dc8 f5 .cfa: $rsp 8 + .ra: .cfa 8 - ^
STACK CFI 4dc8 .cfa: $rsp 64 +
STACK CFI INIT 4ec8 2c .cfa: $rsp 8 + .ra: .cfa 8 - ^
STACK CFI 4ec8 .cfa: $rsp 48 +
STACK CFI INIT 4ef4 40 .cfa: $rsp 8 + .ra: .cfa 8 - ^
STACK CFI 4ef4 .cfa: $rsp 48 +
STACK CFI INIT 4f58 23 .cfa: $rsp 8 + .ra: .cfa 8 - ^
STACK CFI 4f58 .cfa: $rsp 48 +
STACK CFI INIT 4fe0 23 .cfa: $rsp 8 + .ra: .cfa 8 - ^
STACK CFI 4fe0 .cfa: $rsp 48 +
STACK CFI INIT 5070 216 .cfa: $rsp 8 + .ra: .cfa 8 - ^
STACK CFI 5070 .cfa: $rsp 48 +
STACK CFI INIT 5288 70 .cfa: $rsp 8 + .ra: .cfa 8 - ^
STACK CFI 5288 .cfa: $rsp 48 +
STACK CFI INIT 52f8 5c .cfa: $rsp 8 + .ra: .cfa 8 - ^
STACK CFI 52f8 .cfa: $rsp 48 +
STACK CFI INIT 5354 a2 .cfa: $rsp 8 + .ra: .cfa 8 - ^
STACK CFI 5354 .cfa: $rsp 48 +
STACK CFI INIT 5448 a1 .cfa: $rsp 8 + .ra: .cfa 8 - ^
STACK CFI 5448 .cfa: $rsp 64 +
STACK CFI INIT 5550 171 .cfa: $rsp 8 + .ra: .cfa 8 - ^
STACK CFI 5550 .cfa: $rsp 48 +
STACK CFI INIT 56c4 284 .cfa: $rsp 8 + .ra: .cfa 8 - ^
STACK CFI 56c4 .cfa: $rsp 80 +
STACK CFI INIT 5950 bc .cfa: $rsp 8 + .ra: .cfa 8 - ^
STACK CFI 5950 .cfa: $rsp 48 +
STACK CFI INIT 5a80 96 .cfa: $rsp 8 + .ra: .cfa 8 - ^
STACK CFI 5a80 .cfa: $rsp 48 +
STACK CFI INIT 5b24 215 .cfa: $rsp 8 + .ra: .cfa 8 - ^
STACK CFI 5b24 .cfa: $rsp 96 +
STACK CFI INIT 5dac 1c5 .cfa: $rsp 8 + .ra: .cfa 8 - ^
STACK CFI 5dac .cfa: $rsp 64 +
STACK CFI INIT 5f74 db .cfa: $rsp 8 + .ra: .cfa 8 - ^
STACK CFI 5f74 .cfa: $rsp 48 +
STACK CFI INIT 6050 121 .cfa: $rsp 8 + .ra: .cfa 8 - ^
STACK CFI 6050 .cfa: $rsp 96 +
STACK CFI INIT 61d4 23 .cfa: $rsp 8 + .ra: .cfa 8 - ^
STACK CFI 61d4 .cfa: $rsp 48 +
STACK CFI INIT 61f8 12d .cfa: $rsp 8 + .ra: .cfa 8 - ^
STACK CFI 61f8 .cfa: $rsp 1264 +
STACK CFI INIT 634c 28 .cfa: $rsp 8 + .ra: .cfa 8 - ^
STACK CFI 634c .cfa: $rsp 48 +
STACK CFI INIT 63c4 23 .cfa: $rsp 8 + .ra: .cfa 8 - ^
STACK CFI 63c4 .cfa: $rsp 48 +
STACK CFI INIT 644c 4b .cfa: $rsp 8 + .ra: .cfa 8 - ^
STACK CFI 644c .cfa: $rsp 48 +
STACK CFI INIT 6498 103 .cfa: $rsp 8 + .ra: .cfa 8 - ^
STACK CFI 6498 .cfa: $rsp 64 +
STACK CFI INIT 65a4 25 .cfa: $rsp 8 + .ra: .cfa 8 - ^
STACK CFI 65a4 .cfa: $rsp 48 +
STACK CFI INIT 65cc 43 .cfa: $rsp 8 + .ra: .cfa 8 - ^
STACK CFI 65cc .cfa: $rsp 48 +
STACK CFI INIT 6634 23 .cfa: $rsp 8 + .ra: .cfa 8 - ^
STACK CFI 6634 .cfa: $rsp 48 +
STACK CFI INIT 66bc 23 .cfa: $rsp 8 + .ra: .cfa 8 - ^
STACK CFI 66bc .cfa: $rsp 48 +
STACK CFI INIT 6750 26a .cfa: $rsp 8 + .ra: .cfa 8 - ^
STACK CFI 6750 .cfa: $rsp 64 +
STACK CFI INIT 69bc 58 .cfa: $rsp 8 + .ra: .cfa 8 - ^
STACK CFI 69bc .cfa: $rsp 48 +
STACK CFI INIT 6a14 58 .cfa: $rsp 8 + .ra: .cfa 8 - ^
STACK CFI 6a14 .cfa: $rsp 48 +
STACK CFI INIT 6ad0 a3 .cfa: $rsp 8 + .ra: .cfa 8 - ^
STACK CFI 6ad0 .cfa: $rsp 48 +
STACK CFI INIT 6bd8 196 .cfa: $rsp 8 + .ra: .cfa 8 - ^
STACK CFI 6bd8 .cfa: $rsp 48 +
STACK CFI INIT 6d70 2dd .cfa: $rsp 8 + .ra: .cfa 8 - ^
STACK CFI 6d70 .cfa: $rsp 112 +
STACK CFI INIT 7058 a6 .cfa: $rsp 8 + .ra: .cfa 8 - ^
STACK CFI 7058 .cfa: $rsp 48 +
STACK CFI INIT 7100 79 .cfa: $rsp 8 + .ra: .cfa 8 - ^
STACK CFI 7100 .cfa: $rsp 48 +
STACK CFI INIT 717c c7 .cfa: $rsp 8 + .ra: .cfa 8 - ^
STACK CFI 717c .cfa: $rsp 48 +
STACK CFI INIT 7244 53 .cfa: $rsp 8 + .ra: .cfa 8 - ^
STACK CFI 7244 .cfa: $rsp 8 +
STACK CFI INIT 7298 239 .cfa: $rsp 8 + .ra: .cfa 8 - ^
STACK CFI 7298 .cfa: $rsp 96 +
STACK CFI INIT 7544 1cb .cfa: $rsp 8 + .ra: .cfa 8 - ^
STACK CFI 7544 .cfa: $rsp 64 +
STACK CFI INIT 7710 db .cfa: $rsp 8 + .ra: .cfa 8 - ^
STACK CFI 7710 .cfa: $rsp 48 +
STACK CFI INIT 77ec 106 .cfa: $rsp 8 + .ra: .cfa 8 - ^
STACK CFI 77ec .cfa: $rsp 80 +
STACK CFI INIT 7954 23 .cfa: $rsp 8 + .ra: .cfa 8 - ^
STACK CFI 7954 .cfa: $rsp 48 +
STACK CFI INIT 7978 131 .cfa: $rsp 8 + .ra: .cfa 8 - ^
STACK CFI 7978 .cfa: $rsp 1264 +
STACK CFI INIT 7ad0 28 .cfa: $rsp 8 + .ra: .cfa 8 - ^
STACK CFI 7ad0 .cfa: $rsp 48 +
STACK CFI INIT 7af8 2b .cfa: $rsp 8 + .ra: .cfa 8 - ^
STACK CFI 7af8 .cfa: $rsp 48 +
STACK CFI INIT 7b34 23 .cfa: $rsp 8 + .ra: .cfa 8 - ^
STACK CFI 7b34 .cfa: $rsp 48 +
STACK CFI INIT 7bc4 227 .cfa: $rsp 8 + .ra: .cfa 8 - ^
STACK CFI 7bc4 .cfa: $rsp 48 +
STACK CFI INIT 7dec 70 .cfa: $rsp 8 + .ra: .cfa 8 - ^
STACK CFI 7dec .cfa: $rsp 48 +
STACK CFI INIT 7e5c 5c .cfa: $rsp 8 + .ra: .cfa 8 - ^
STACK CFI 7e5c .cfa: $rsp 48 +
STACK CFI INIT 7eb8 a2 .cfa: $rsp 8 + .ra: .cfa 8 - ^
STACK CFI 7eb8 .cfa: $rsp 48 +
STACK CFI INIT 7fac a1 .cfa: $rsp 8 + .ra: .cfa 8 - ^
STACK CFI 7fac .cfa: $rsp 64 +
STACK CFI INIT 80b4 171 .cfa: $rsp 8 + .ra: .cfa 8 - ^
STACK CFI 80b4 .cfa: $rsp 48 +
STACK CFI INIT 8228 284 .cfa: $rsp 8 + .ra: .cfa 8 - ^
STACK CFI 8228 .cfa: $rsp 80 +
STACK CFI INIT 84b4 bc .cfa: $rsp 8 + .ra: .cfa 8 - ^
STACK CFI 84b4 .cfa: $rsp 48 +
STACK CFI INIT 85e4 96 .cfa: $rsp 8 + .ra: .cfa 8 - ^
STACK CFI 85e4 .cfa: $rsp 48 +
STACK CFI INIT 8688 215 .cfa: $rsp 8 + .ra: .cfa 8 - ^
STACK CFI 8688 .cfa: $rsp 96 +
STACK CFI INIT 8910 1c5 .cfa: $rsp 8 + .ra: .cfa 8 - ^
STACK CFI 8910 .cfa: $rsp 64 +
STACK CFI INIT 8ad8 db .cfa: $rsp 8 + .ra: .cfa 8 - ^
STACK CFI 8ad8 .cfa: $rsp 48 +
STACK CFI INIT 8bb4 121 .cfa: $rsp 8 + .ra: .cfa 8 - ^
STACK CFI 8bb4 .cfa: $rsp 96 +
STACK CFI INIT 8d3c 23 .cfa: $rsp 8 + .ra: .cfa 8 - ^
STACK CFI 8d3c .cfa: $rsp 48 +
STACK CFI INIT 8d60 12d .cfa: $rsp 8 + .ra: .cfa 8 - ^
STACK CFI 8d60 .cfa: $rsp 1264 +
STACK CFI INIT 8eb4 28 .cfa: $rsp 8 + .ra: .cfa 8 - ^
STACK CFI 8eb4 .cfa: $rsp 48 +
STACK CFI INIT 8edc 2b .cfa: $rsp 8 + .ra: .cfa 8 - ^
STACK CFI 8edc .cfa: $rsp 48 +
STACK CFI INIT 8f18 23 .cfa: $rsp 8 + .ra: .cfa 8 - ^
STACK CFI 8f18 .cfa: $rsp 48 +
STACK CFI INIT 8fac 277 .cfa: $rsp 8 + .ra: .cfa 8 - ^
STACK CFI 8fac .cfa: $rsp 64 +
STACK CFI INIT 9224 58 .cfa: $rsp 8 + .ra: .cfa 8 - ^
STACK CFI 9224 .cfa: $rsp 48 +
STACK CFI INIT 927c 58 .cfa: $rsp 8 + .ra: .cfa 8 - ^
STACK CFI 927c .cfa: $rsp 48 +
STACK CFI INIT 9338 a3 .cfa: $rsp 8 + .ra: .cfa 8 - ^
STACK CFI 9338 .cfa: $rsp 48 +
STACK CFI INIT 9440 196 .cfa: $rsp 8 + .ra: .cfa 8 - ^
STACK CFI 9440 .cfa: $rsp 48 +
STACK CFI INIT 95d8 2dd .cfa: $rsp 8 + .ra: .cfa 8 - ^
STACK CFI 95d8 .cfa: $rsp 112 +
STACK CFI INIT 98c0 a6 .cfa: $rsp 8 + .ra: .cfa 8 - ^
STACK CFI 98c0 .cfa: $rsp 48 +
STACK CFI INIT 9968 79 .cfa: $rsp 8 + .ra: .cfa 8 - ^
STACK CFI 9968 .cfa: $rsp 48 +
STACK CFI INIT 99e4 c7 .cfa: $rsp 8 + .ra: .cfa 8 - ^
STACK CFI 99e4 .cfa: $rsp 48 +
STACK CFI INIT 9aac 53 .cfa: $rsp 8 + .ra: .cfa 8 - ^
STACK CFI 9aac .cfa: $rsp 8 +
STACK CFI INIT 9b00 239 .cfa: $rsp 8 + .ra: .cfa 8 - ^
STACK CFI 9b00 .cfa: $rsp 96 +
STACK CFI INIT 9dac 1cb .cfa: $rsp 8 + .ra: .cfa 8 - ^
STACK CFI 9dac .cfa: $rsp 64 +
STACK CFI INIT 9f78 db .cfa: $rsp 8 + .ra: .cfa 8 - ^
STACK CFI 9f78 .cfa: $rsp 48 +
STACK CFI INIT a054 106 .cfa: $rsp 8 + .ra: .cfa 8 - ^
STACK CFI a054 .cfa: $rsp 80 +
STACK CFI INIT a1c0 23 .cfa: $rsp 8 + .ra: .cfa 8 - ^
STACK CFI a1c0 .cfa: $rsp 48 +
STACK CFI INIT a1e4 131 .cfa: $rsp 8 + .ra: .cfa 8 - ^
STACK CFI a1e4 .cfa: $rsp 1264 +
STACK CFI INIT a33c 28 .cfa: $rsp 8 + .ra: .cfa 8 - ^
STACK CFI a33c .cfa: $rsp 48 +
STACK CFI INIT a3b4 9b .cfa: $rsp 8 + .ra: .cfa 8 - ^
STACK CFI a3b4 .cfa: $rsp 48 +
STACK CFI INIT a468 115 .cfa: $rsp 8 + .ra: .cfa 8 - ^
STACK CFI a468 .cfa: $rsp 64 +
STACK CFI INIT a580 115 .cfa: $rsp 8 + .ra: .cfa 8 - ^
STACK CFI a580 .cfa: $rsp 64 +
STACK CFI INIT a698 9b .cfa: $rsp 8 + .ra: .cfa 8 - ^
STACK CFI a698 .cfa: $rsp 64 +
STACK CFI INIT a75c 10b .cfa: $rsp 8 + .ra: .cfa 8 - ^
STACK CFI a75c .cfa: $rsp 48 +
STACK CFI INIT a8c4 230 .cfa: $rsp 8 + .ra: .cfa 8 - ^
STACK CFI a8c4 .cfa: $rsp 8 +
STACK CFI INIT aaf4 3f .cfa: $rsp 8 + .ra: .cfa 8 - ^
STACK CFI aaf4 .cfa: $rsp 64 +
STACK CFI INIT ab34 23 .cfa: $rsp 8 + .ra: .cfa 8 - ^
STACK CFI ab34 .cfa: $rsp 48 +
STACK CFI INIT abe0 2a6 .cfa: $rsp 8 + .ra: .cfa 8 - ^
STACK CFI abe0 .cfa: $rsp 64 +
STACK CFI INIT ae88 94 .cfa: $rsp 8 + .ra: .cfa 8 - ^
STACK CFI ae88 .cfa: $rsp 48 +
STACK CFI INIT af1c 5c .cfa: $rsp 8 + .ra: .cfa 8 - ^
STACK CFI af1c .cfa: $rsp 48 +
STACK CFI INIT af78 a2 .cfa: $rsp 8 + .ra: .cfa 8 - ^
STACK CFI af78 .cfa: $rsp 48 +
STACK CFI INIT b06c a1 .cfa: $rsp 8 + .ra: .cfa 8 - ^
STACK CFI b06c .cfa: $rsp 64 +
STACK CFI INIT b110 50 .cfa: $rsp 8 + .ra: .cfa 8 - ^
STACK CFI b110 .cfa: $rsp 48 +
STACK CFI INIT b168 4a .cfa: $rsp 8 + .ra: .cfa 8 - ^
STACK CFI b168 .cfa: $rsp 48 +
STACK CFI INIT b1b4 171 .cfa: $rsp 8 + .ra: .cfa 8 - ^
STACK CFI b1b4 .cfa: $rsp 48 +
STACK CFI INIT b328 29a .cfa: $rsp 8 + .ra: .cfa 8 - ^
STACK CFI b328 .cfa: $rsp 80 +
STACK CFI INIT b5cc ff .cfa: $rsp 8 + .ra: .cfa 8 - ^
STACK CFI b5cc .cfa: $rsp 48 +
STACK CFI INIT b6cc 158 .cfa: $rsp 8 + .ra: .cfa 8 - ^
STACK CFI b6cc .cfa: $rsp 64 +
STACK CFI INIT b824 b5 .cfa: $rsp 8 + .ra: .cfa 8 - ^
STACK CFI b824 .cfa: $rsp 48 +
STACK CFI INIT b8e8 252 .cfa: $rsp 8 + .ra: .cfa 8 - ^
STACK CFI b8e8 .cfa: $rsp 96 +
STACK CFI INIT bbac 202 .cfa: $rsp 8 + .ra: .cfa 8 - ^
STACK CFI bbac .cfa: $rsp 80 +
STACK CFI INIT bdb0 104 .cfa: $rsp 8 + .ra: .cfa 8 - ^
STACK CFI bdb0 .cfa: $rsp 48 +
STACK CFI INIT beb4 121 .cfa: $rsp 8 + .ra: .cfa 8 - ^
STACK CFI beb4 .cfa: $rsp 96 +
STACK CFI INIT c03c 23 .cfa: $rsp 8 + .ra: .cfa 8 - ^
STACK CFI c03c .cfa: $rsp 48 +
STACK CFI INIT c060 14a .cfa: $rsp 8 + .ra: .cfa 8 - ^
STACK CFI c060 .cfa: $rsp 3680 +
STACK CFI INIT c1d0 28 .cfa: $rsp 8 + .ra: .cfa 8 - ^
STACK CFI c1d0 .cfa: $rsp 48 +
STACK CFI INIT c248 9b .cfa: $rsp 8 + .ra: .cfa 8 - ^
STACK CFI c248 .cfa: $rsp 48 +
STACK CFI INIT c2fc 118 .cfa: $rsp 8 + .ra: .cfa 8 - ^
STACK CFI c2fc .cfa: $rsp 64 +
STACK CFI INIT c414 118 .cfa: $rsp 8 + .ra: .cfa 8 - ^
STACK CFI c414 .cfa: $rsp 64 +
STACK CFI INIT c52c 9d .cfa: $rsp 8 + .ra: .cfa 8 - ^
STACK CFI c52c .cfa: $rsp 64 +
STACK CFI INIT c5f4 114 .cfa: $rsp 8 + .ra: .cfa 8 - ^
STACK CFI c5f4 .cfa: $rsp 48 +
STACK CFI INIT c764 200 .cfa: $rsp 8 + .ra: .cfa 8 - ^
STACK CFI c764 .cfa: $rsp 48 +
STACK CFI INIT c964 40 .cfa: $rsp 8 + .ra: .cfa 8 - ^
STACK CFI c964 .cfa: $rsp 64 +
STACK CFI INIT c9a4 23 .cfa: $rsp 8 + .ra: .cfa 8 - ^
STACK CFI c9a4 .cfa: $rsp 48 +
STACK CFI INIT ca54 2b2 .cfa: $rsp 8 + .ra: .cfa 8 - ^
STACK CFI ca54 .cfa: $rsp 80 +
STACK CFI INIT cd08 7c .cfa: $rsp 8 + .ra: .cfa 8 - ^
STACK CFI cd08 .cfa: $rsp 48 +
STACK CFI INIT cd84 58 .cfa: $rsp 8 + .ra: .cfa 8 - ^
STACK CFI cd84 .cfa: $rsp 48 +
STACK CFI INIT ce40 a3 .cfa: $rsp 8 + .ra: .cfa 8 - ^
STACK CFI ce40 .cfa: $rsp 48 +
STACK CFI INIT cee4 51 .cfa: $rsp 8 + .ra: .cfa 8 - ^
STACK CFI cee4 .cfa: $rsp 48 +
STACK CFI INIT cf40 4b .cfa: $rsp 8 + .ra: .cfa 8 - ^
STACK CFI cf40 .cfa: $rsp 48 +
STACK CFI INIT cf8c 196 .cfa: $rsp 8 + .ra: .cfa 8 - ^
STACK CFI cf8c .cfa: $rsp 48 +
STACK CFI INIT d124 2f3 .cfa: $rsp 8 + .ra: .cfa 8 - ^
STACK CFI d124 .cfa: $rsp 112 +
STACK CFI INIT d420 cc .cfa: $rsp 8 + .ra: .cfa 8 - ^
STACK CFI d420 .cfa: $rsp 48 +
STACK CFI INIT d4ec 13e .cfa: $rsp 8 + .ra: .cfa 8 - ^
STACK CFI d4ec .cfa: $rsp 64 +
STACK CFI INIT d62c e9 .cfa: $rsp 8 + .ra: .cfa 8 - ^
STACK CFI d62c .cfa: $rsp 48 +
STACK CFI INIT d718 53 .cfa: $rsp 8 + .ra: .cfa 8 - ^
STACK CFI d718 .cfa: $rsp 8 +
STACK CFI INIT d76c 276 .cfa: $rsp 8 + .ra: .cfa 8 - ^
STACK CFI d76c .cfa: $rsp 96 +
STACK CFI INIT da54 208 .cfa: $rsp 8 + .ra: .cfa 8 - ^
STACK CFI da54 .cfa: $rsp 80 +
STACK CFI INIT dc5c 104 .cfa: $rsp 8 + .ra: .cfa 8 - ^
STACK CFI dc5c .cfa: $rsp 48 +
STACK CFI INIT dd60 106 .cfa: $rsp 8 + .ra: .cfa 8 - ^
STACK CFI dd60 .cfa: $rsp 80 +
STACK CFI INIT decc 23 .cfa: $rsp 8 + .ra: .cfa 8 - ^
STACK CFI decc .cfa: $rsp 48 +
STACK CFI INIT def0 14e .cfa: $rsp 8 + .ra: .cfa 8 - ^
STACK CFI def0 .cfa: $rsp 3680 +
STACK CFI INIT e064 28 .cfa: $rsp 8 + .ra: .cfa 8 - ^
STACK CFI e064 .cfa: $rsp 48 +
STACK CFI INIT e094 25 .cfa: $rsp 8 + .ra: .cfa 8 - ^
STACK CFI e094 .cfa: $rsp 48 +
STACK CFI INIT e104 a3 .cfa: $rsp 8 + .ra: .cfa 8 - ^
STACK CFI e104 .cfa: $rsp 48 +
STACK CFI INIT e208 23 .cfa: $rsp 8 + .ra: .cfa 8 - ^
STACK CFI e208 .cfa: $rsp 48 +
STACK CFI INIT e290 23 .cfa: $rsp 8 + .ra: .cfa 8 - ^
STACK CFI e290 .cfa: $rsp 48 +
STACK CFI INIT e320 20a .cfa: $rsp 8 + .ra: .cfa 8 - ^
STACK CFI e320 .cfa: $rsp 48 +
STACK CFI INIT e52c 74 .cfa: $rsp 8 + .ra: .cfa 8 - ^
STACK CFI e52c .cfa: $rsp 48 +
STACK CFI INIT e5a0 60 .cfa: $rsp 8 + .ra: .cfa 8 - ^
STACK CFI e5a0 .cfa: $rsp 48 +
STACK CFI INIT e600 a8 .cfa: $rsp 8 + .ra: .cfa 8 - ^
STACK CFI e600 .cfa: $rsp 48 +
STACK CFI INIT e6f8 a1 .cfa: $rsp 8 + .ra: .cfa 8 - ^
STACK CFI e6f8 .cfa: $rsp 64 +
STACK CFI INIT e800 171 .cfa: $rsp 8 + .ra: .cfa 8 - ^
STACK CFI e800 .cfa: $rsp 48 +
STACK CFI INIT e974 266 .cfa: $rsp 8 + .ra: .cfa 8 - ^
STACK CFI e974 .cfa: $rsp 80 +
STACK CFI INIT ebe4 bc .cfa: $rsp 8 + .ra: .cfa 8 - ^
STACK CFI ebe4 .cfa: $rsp 48 +
STACK CFI INIT ed14 96 .cfa: $rsp 8 + .ra: .cfa 8 - ^
STACK CFI ed14 .cfa: $rsp 48 +
STACK CFI INIT edb8 215 .cfa: $rsp 8 + .ra: .cfa 8 - ^
STACK CFI edb8 .cfa: $rsp 96 +
STACK CFI INIT f040 1c5 .cfa: $rsp 8 + .ra: .cfa 8 - ^
STACK CFI f040 .cfa: $rsp 64 +
STACK CFI INIT f208 db .cfa: $rsp 8 + .ra: .cfa 8 - ^
STACK CFI f208 .cfa: $rsp 48 +
STACK CFI INIT f2e4 d5 .cfa: $rsp 8 + .ra: .cfa 8 - ^
STACK CFI f2e4 .cfa: $rsp 96 +
STACK CFI INIT f41c 23 .cfa: $rsp 8 + .ra: .cfa 8 - ^
STACK CFI f41c .cfa: $rsp 48 +
STACK CFI INIT f448 25 .cfa: $rsp 8 + .ra: .cfa 8 - ^
STACK CFI f448 .cfa: $rsp 48 +
STACK CFI INIT f4b8 a5 .cfa: $rsp 8 + .ra: .cfa 8 - ^
STACK CFI f4b8 .cfa: $rsp 64 +
STACK CFI INIT f5c4 23 .cfa: $rsp 8 + .ra: .cfa 8 - ^
STACK CFI f5c4 .cfa: $rsp 48 +
STACK CFI INIT f64c 23 .cfa: $rsp 8 + .ra: .cfa 8 - ^
STACK CFI f64c .cfa: $rsp 48 +
STACK CFI INIT f6e0 27b .cfa: $rsp 8 + .ra: .cfa 8 - ^
STACK CFI f6e0 .cfa: $rsp 64 +
STACK CFI INIT fa68 a3 .cfa: $rsp 8 + .ra: .cfa 8 - ^
STACK CFI fa68 .cfa: $rsp 48 +
STACK CFI INIT fb70 196 .cfa: $rsp 8 + .ra: .cfa 8 - ^
STACK CFI fb70 .cfa: $rsp 48 +
STACK CFI INIT fd08 2ca .cfa: $rsp 8 + .ra: .cfa 8 - ^
STACK CFI fd08 .cfa: $rsp 112 +
STACK CFI INIT ffdc a6 .cfa: $rsp 8 + .ra: .cfa 8 - ^
STACK CFI ffdc .cfa: $rsp 48 +
STACK CFI INIT 10084 79 .cfa: $rsp 8 + .ra: .cfa 8 - ^
STACK CFI 10084 .cfa: $rsp 48 +
STACK CFI INIT 10100 c7 .cfa: $rsp 8 + .ra: .cfa 8 - ^
STACK CFI 10100 .cfa: $rsp 48 +
STACK CFI INIT 101c8 53 .cfa: $rsp 8 + .ra: .cfa 8 - ^
STACK CFI 101c8 .cfa: $rsp 8 +
STACK CFI INIT 1021c 239 .cfa: $rsp 8 + .ra: .cfa 8 - ^
STACK CFI 1021c .cfa: $rsp 96 +
STACK CFI INIT 104c8 1cb .cfa: $rsp 8 + .ra: .cfa 8 - ^
STACK CFI 104c8 .cfa: $rsp 64 +
STACK CFI INIT 10694 db .cfa: $rsp 8 + .ra: .cfa 8 - ^
STACK CFI 10694 .cfa: $rsp 48 +
STACK CFI INIT 10770 eb .cfa: $rsp 8 + .ra: .cfa 8 - ^
STACK CFI 10770 .cfa: $rsp 64 +
STACK CFI INIT 108bc 23 .cfa: $rsp 8 + .ra: .cfa 8 - ^
STACK CFI 108bc .cfa: $rsp 48 +
STACK CFI INIT 108e0 1cb .cfa: $rsp 8 + .ra: .cfa 8 - ^
STACK CFI 108e0 .cfa: $rsp 1328 +
STACK CFI INIT 10aac 1d2 .cfa: $rsp 8 + .ra: .cfa 8 - ^
STACK CFI 10aac .cfa: $rsp 1328 +
STACK CFI INIT 10c80 2b .cfa: $rsp 8 + .ra: .cfa 8 - ^
STACK CFI 10c80 .cfa: $rsp 48 +
STACK CFI INIT 10cbc 23 .cfa: $rsp 8 + .ra: .cfa 8 - ^
STACK CFI 10cbc .cfa: $rsp 48 +
STACK CFI INIT 10d30 9b .cfa: $rsp 8 + .ra: .cfa 8 - ^
STACK CFI 10d30 .cfa: $rsp 48 +
STACK CFI INIT 10de4 115 .cfa: $rsp 8 + .ra: .cfa 8 - ^
STACK CFI 10de4 .cfa: $rsp 64 +
STACK CFI INIT 10efc 115 .cfa: $rsp 8 + .ra: .cfa 8 - ^
STACK CFI 10efc .cfa: $rsp 64 +
STACK CFI INIT 11014 9b .cfa: $rsp 8 + .ra: .cfa 8 - ^
STACK CFI 11014 .cfa: $rsp 64 +
STACK CFI INIT 110d8 10b .cfa: $rsp 8 + .ra: .cfa 8 - ^
STACK CFI 110d8 .cfa: $rsp 48 +
STACK CFI INIT 11240 230 .cfa: $rsp 8 + .ra: .cfa 8 - ^
STACK CFI 11240 .cfa: $rsp 8 +
STACK CFI INIT 11470 3f .cfa: $rsp 8 + .ra: .cfa 8 - ^
STACK CFI 11470 .cfa: $rsp 64 +
STACK CFI INIT 114b0 23 .cfa: $rsp 8 + .ra: .cfa 8 - ^
STACK CFI 114b0 .cfa: $rsp 48 +
STACK CFI INIT 1155c 295 .cfa: $rsp 8 + .ra: .cfa 8 - ^
STACK CFI 1155c .cfa: $rsp 64 +
STACK CFI INIT 117f4 98 .cfa: $rsp 8 + .ra: .cfa 8 - ^
STACK CFI 117f4 .cfa: $rsp 48 +
STACK CFI INIT 1188c 60 .cfa: $rsp 8 + .ra: .cfa 8 - ^
STACK CFI 1188c .cfa: $rsp 48 +
STACK CFI INIT 118ec a8 .cfa: $rsp 8 + .ra: .cfa 8 - ^
STACK CFI 118ec .cfa: $rsp 48 +
STACK CFI INIT 119e4 a1 .cfa: $rsp 8 + .ra: .cfa 8 - ^
STACK CFI 119e4 .cfa: $rsp 64 +
STACK CFI INIT 11a88 50 .cfa: $rsp 8 + .ra: .cfa 8 - ^
STACK CFI 11a88 .cfa: $rsp 48 +
STACK CFI INIT 11ae0 4a .cfa: $rsp 8 + .ra: .cfa 8 - ^
STACK CFI 11ae0 .cfa: $rsp 48 +
STACK CFI INIT 11b2c 171 .cfa: $rsp 8 + .ra: .cfa 8 - ^
STACK CFI 11b2c .cfa: $rsp 48 +
STACK CFI INIT 11ca0 27c .cfa: $rsp 8 + .ra: .cfa 8 - ^
STACK CFI 11ca0 .cfa: $rsp 80 +
STACK CFI INIT 11f24 ff .cfa: $rsp 8 + .ra: .cfa 8 - ^
STACK CFI 11f24 .cfa: $rsp 48 +
STACK CFI INIT 12024 158 .cfa: $rsp 8 + .ra: .cfa 8 - ^
STACK CFI 12024 .cfa: $rsp 64 +
STACK CFI INIT 1217c b5 .cfa: $rsp 8 + .ra: .cfa 8 - ^
STACK CFI 1217c .cfa: $rsp 48 +
STACK CFI INIT 12240 252 .cfa: $rsp 8 + .ra: .cfa 8 - ^
STACK CFI 12240 .cfa: $rsp 96 +
STACK CFI INIT 12504 202 .cfa: $rsp 8 + .ra: .cfa 8 - ^
STACK CFI 12504 .cfa: $rsp 80 +
STACK CFI INIT 12708 104 .cfa: $rsp 8 + .ra: .cfa 8 - ^
STACK CFI 12708 .cfa: $rsp 48 +
STACK CFI INIT 1280c d5 .cfa: $rsp 8 + .ra: .cfa 8 - ^
STACK CFI 1280c .cfa: $rsp 96 +
STACK CFI INIT 12948 23 .cfa: $rsp 8 + .ra: .cfa 8 - ^
STACK CFI 12948 .cfa: $rsp 48 +
STACK CFI INIT 1296c 2b .cfa: $rsp 8 + .ra: .cfa 8 - ^
STACK CFI 1296c .cfa: $rsp 48 +
STACK CFI INIT 129a8 23 .cfa: $rsp 8 + .ra: .cfa 8 - ^
STACK CFI 129a8 .cfa: $rsp 48 +
STACK CFI INIT 12a1c 9b .cfa: $rsp 8 + .ra: .cfa 8 - ^
STACK CFI 12a1c .cfa: $rsp 48 +
STACK CFI INIT 12ad0 118 .cfa: $rsp 8 + .ra: .cfa 8 - ^
STACK CFI 12ad0 .cfa: $rsp 64 +
STACK CFI INIT 12be8 118 .cfa: $rsp 8 + .ra: .cfa 8 - ^
STACK CFI 12be8 .cfa: $rsp 64 +
STACK CFI INIT 12d00 9d .cfa: $rsp 8 + .ra: .cfa 8 - ^
STACK CFI 12d00 .cfa: $rsp 64 +
STACK CFI INIT 12dc8 114 .cfa: $rsp 8 + .ra: .cfa 8 - ^
STACK CFI 12dc8 .cfa: $rsp 48 +
STACK CFI INIT 12f38 200 .cfa: $rsp 8 + .ra: .cfa 8 - ^
STACK CFI 12f38 .cfa: $rsp 48 +
STACK CFI INIT 13138 40 .cfa: $rsp 8 + .ra: .cfa 8 - ^
STACK CFI 13138 .cfa: $rsp 64 +
STACK CFI INIT 13178 23 .cfa: $rsp 8 + .ra: .cfa 8 - ^
STACK CFI 13178 .cfa: $rsp 48 +
STACK CFI INIT 13228 2b2 .cfa: $rsp 8 + .ra: .cfa 8 - ^
STACK CFI 13228 .cfa: $rsp 80 +
STACK CFI INIT 1360c a3 .cfa: $rsp 8 + .ra: .cfa 8 - ^
STACK CFI 1360c .cfa: $rsp 48 +
STACK CFI INIT 136b0 51 .cfa: $rsp 8 + .ra: .cfa 8 - ^
STACK CFI 136b0 .cfa: $rsp 48 +
STACK CFI INIT 1370c 4b .cfa: $rsp 8 + .ra: .cfa 8 - ^
STACK CFI 1370c .cfa: $rsp 48 +
STACK CFI INIT 13758 196 .cfa: $rsp 8 + .ra: .cfa 8 - ^
STACK CFI 13758 .cfa: $rsp 48 +
STACK CFI INIT 138f0 2e0 .cfa: $rsp 8 + .ra: .cfa 8 - ^
STACK CFI 138f0 .cfa: $rsp 112 +
STACK CFI INIT 13bd8 cc .cfa: $rsp 8 + .ra: .cfa 8 - ^
STACK CFI 13bd8 .cfa: $rsp 48 +
STACK CFI INIT 13ca4 13e .cfa: $rsp 8 + .ra: .cfa 8 - ^
STACK CFI 13ca4 .cfa: $rsp 64 +
STACK CFI INIT 13de4 e9 .cfa: $rsp 8 + .ra: .cfa 8 - ^
STACK CFI 13de4 .cfa: $rsp 48 +
STACK CFI INIT 13ed0 53 .cfa: $rsp 8 + .ra: .cfa 8 - ^
STACK CFI 13ed0 .cfa: $rsp 8 +
STACK CFI INIT 13f24 276 .cfa: $rsp 8 + .ra: .cfa 8 - ^
STACK CFI 13f24 .cfa: $rsp 96 +
STACK CFI INIT 1420c 208 .cfa: $rsp 8 + .ra: .cfa 8 - ^
STACK CFI 1420c .cfa: $rsp 80 +
STACK CFI INIT 14414 104 .cfa: $rsp 8 + .ra: .cfa 8 - ^
STACK CFI 14414 .cfa: $rsp 48 +
STACK CFI INIT 14518 eb .cfa: $rsp 8 + .ra: .cfa 8 - ^
STACK CFI 14518 .cfa: $rsp 64 +
STACK CFI INIT 14668 23 .cfa: $rsp 8 + .ra: .cfa 8 - ^
STACK CFI 14668 .cfa: $rsp 48 +
STACK CFI INIT 1468c a2 .cfa: $rsp 8 + .ra: .cfa 8 - ^
STACK CFI 1468c .cfa: $rsp 8 +
STACK CFI INIT 14730 9e .cfa: $rsp 8 + .ra: .cfa 8 - ^
STACK CFI 14730 .cfa: $rsp 8 +
STACK CFI INIT 147d0 85 .cfa: $rsp 8 + .ra: .cfa 8 - ^
STACK CFI 147d0 .cfa: $rsp 8 +
STACK CFI INIT 14858 81 .cfa: $rsp 8 + .ra: .cfa 8 - ^
STACK CFI 14858 .cfa: $rsp 8 +
STACK CFI INIT 148dc a2 .cfa: $rsp 8 + .ra: .cfa 8 - ^
STACK CFI 148dc .cfa: $rsp 8 +
STACK CFI INIT 14980 9e .cfa: $rsp 8 + .ra: .cfa 8 - ^
STACK CFI 14980 .cfa: $rsp 8 +
STACK CFI INIT 14a20 85 .cfa: $rsp 8 + .ra: .cfa 8 - ^
STACK CFI 14a20 .cfa: $rsp 8 +
STACK CFI INIT 14aa8 81 .cfa: $rsp 8 + .ra: .cfa 8 - ^
STACK CFI 14aa8 .cfa: $rsp 8 +
STACK CFI INIT 14b2c 85 .cfa: $rsp 8 + .ra: .cfa 8 - ^
STACK CFI 14b2c .cfa: $rsp 8 +
STACK CFI INIT 14bb4 81 .cfa: $rsp 8 + .ra: .cfa 8 - ^
STACK CFI 14bb4 .cfa: $rsp 8 +
STACK CFI INIT 14c38 7a .cfa: $rsp 8 + .ra: .cfa 8 - ^
STACK CFI 14c38 .cfa: $rsp 8 +
STACK CFI INIT 14cf4 75 .cfa: $rsp 8 + .ra: .cfa 8 - ^
STACK CFI 14cf4 .cfa: $rsp 8 +
STACK CFI INIT 14d7c 91 .cfa: $rsp 8 + .ra: .cfa 8 - ^
STACK CFI 14d7c .cfa: $rsp 48 +
STACK CFI INIT 14e10 8b .cfa: $rsp 8 + .ra: .cfa 8 - ^
STACK CFI 14e10 .cfa: $rsp 48 +
STACK CFI INIT 14e9c bc .cfa: $rsp 8 + .ra: .cfa 8 - ^
STACK CFI 14e9c .cfa: $rsp 64 +
STACK CFI INIT 14f58 a6 .cfa: $rsp 8 + .ra: .cfa 8 - ^
STACK CFI 14f58 .cfa: $rsp 48 +
STACK CFI INIT 1502c bc .cfa: $rsp 8 + .ra: .cfa 8 - ^
STACK CFI 1502c .cfa: $rsp 64 +
STACK CFI INIT 15128 bc .cfa: $rsp 8 + .ra: .cfa 8 - ^
STACK CFI 15128 .cfa: $rsp 64 +
STACK CFI INIT 15224 bc .cfa: $rsp 8 + .ra: .cfa 8 - ^
STACK CFI 15224 .cfa: $rsp 64 +
STACK CFI INIT 152f4 ba .cfa: $rsp 8 + .ra: .cfa 8 - ^
STACK CFI 152f4 .cfa: $rsp 64 +
STACK CFI INIT 153b0 ba .cfa: $rsp 8 + .ra: .cfa 8 - ^
STACK CFI 153b0 .cfa: $rsp 64 +
STACK CFI INIT 1546c ba .cfa: $rsp 8 + .ra: .cfa 8 - ^
STACK CFI 1546c .cfa: $rsp 64 +
STACK CFI INIT 15550 ba .cfa: $rsp 8 + .ra: .cfa 8 - ^
STACK CFI 15550 .cfa: $rsp 64 +
STACK CFI INIT 156c4 bc .cfa: $rsp 8 + .ra: .cfa 8 - ^
STACK CFI 156c4 .cfa: $rsp 64 +
STACK CFI INIT 15780 bc .cfa: $rsp 8 + .ra: .cfa 8 - ^
STACK CFI 15780 .cfa: $rsp 64 +
STACK CFI INIT 1583c bc .cfa: $rsp 8 + .ra: .cfa 8 - ^
STACK CFI 1583c .cfa: $rsp 64 +
STACK CFI INIT 158f8 bc .cfa: $rsp 8 + .ra: .cfa 8 - ^
STACK CFI 158f8 .cfa: $rsp 64 +
STACK CFI INIT 159b4 ba .cfa: $rsp 8 + .ra: .cfa 8 - ^
STACK CFI 159b4 .cfa: $rsp 64 +
STACK CFI INIT 15a70 ba .cfa: $rsp 8 + .ra: .cfa 8 - ^
STACK CFI 15a70 .cfa: $rsp 64 +
STACK CFI INIT 15b2c ba .cfa: $rsp 8 + .ra: .cfa 8 - ^
STACK CFI 15b2c .cfa: $rsp 64 +
STACK CFI INIT 15be8 ba .cfa: $rsp 8 + .ra: .cfa 8 - ^
STACK CFI 15be8 .cfa: $rsp 64 +
STACK CFI INIT 15d74 be .cfa: $rsp 8 + .ra: .cfa 8 - ^
STACK CFI 15d74 .cfa: $rsp 64 +
STACK CFI INIT 15e34 bd .cfa: $rsp 8 + .ra: .cfa 8 - ^
STACK CFI 15e34 .cfa: $rsp 64 +
STACK CFI INIT 15ef4 be .cfa: $rsp 8 + .ra: .cfa 8 - ^
STACK CFI 15ef4 .cfa: $rsp 64 +
STACK CFI INIT 15fb4 bd .cfa: $rsp 8 + .ra: .cfa 8 - ^
STACK CFI 15fb4 .cfa: $rsp 64 +
STACK CFI INIT 16074 bc .cfa: $rsp 8 + .ra: .cfa 8 - ^
STACK CFI 16074 .cfa: $rsp 64 +
STACK CFI INIT 16130 bb .cfa: $rsp 8 + .ra: .cfa 8 - ^
STACK CFI 16130 .cfa: $rsp 64 +
STACK CFI INIT 161ec bc .cfa: $rsp 8 + .ra: .cfa 8 - ^
STACK CFI 161ec .cfa: $rsp 64 +
STACK CFI INIT 162a8 bc .cfa: $rsp 8 + .ra: .cfa 8 - ^
STACK CFI 162a8 .cfa: $rsp 64 +
STACK CFI INIT 16364 a9 .cfa: $rsp 8 + .ra: .cfa 8 - ^
STACK CFI 16364 .cfa: $rsp 48 +
STACK CFI INIT 16410 a4 .cfa: $rsp 8 + .ra: .cfa 8 - ^
STACK CFI 16410 .cfa: $rsp 8 +
STACK CFI INIT 164b4 a3 .cfa: $rsp 8 + .ra: .cfa 8 - ^
STACK CFI 164b4 .cfa: $rsp 8 +
STACK CFI INIT 16558 be .cfa: $rsp 8 + .ra: .cfa 8 - ^
STACK CFI 16558 .cfa: $rsp 64 +
STACK CFI INIT 16628 bc .cfa: $rsp 8 + .ra: .cfa 8 - ^
STACK CFI 16628 .cfa: $rsp 64 +
STACK CFI INIT 166e4 bb .cfa: $rsp 8 + .ra: .cfa 8 - ^
STACK CFI 166e4 .cfa: $rsp 64 +
STACK CFI INIT 167a0 bc .cfa: $rsp 8 + .ra: .cfa 8 - ^
STACK CFI 167a0 .cfa: $rsp 64 +
STACK CFI INIT 1685c bb .cfa: $rsp 8 + .ra: .cfa 8 - ^
STACK CFI 1685c .cfa: $rsp 64 +
STACK CFI INIT 16918 ba .cfa: $rsp 8 + .ra: .cfa 8 - ^
STACK CFI 16918 .cfa: $rsp 64 +
STACK CFI INIT 169d4 b9 .cfa: $rsp 8 + .ra: .cfa 8 - ^
STACK CFI 169d4 .cfa: $rsp 64 +
STACK CFI INIT 16a90 ba .cfa: $rsp 8 + .ra: .cfa 8 - ^
STACK CFI 16a90 .cfa: $rsp 64 +
STACK CFI INIT 16b4c ba .cfa: $rsp 8 + .ra: .cfa 8 - ^
STACK CFI 16b4c .cfa: $rsp 64 +
STACK CFI INIT 16c08 8d .cfa: $rsp 8 + .ra: .cfa 8 - ^
STACK CFI 16c08 .cfa: $rsp 8 +
STACK CFI INIT 16c98 87 .cfa: $rsp 8 + .ra: .cfa 8 - ^
STACK CFI 16c98 .cfa: $rsp 8 +
STACK CFI INIT 16d20 bc .cfa: $rsp 8 + .ra: .cfa 8 - ^
STACK CFI 16d20 .cfa: $rsp 64 +
STACK CFI INIT 16ddc b8 .cfa: $rsp 8 + .ra: .cfa 8 - ^
STACK CFI 16ddc .cfa: $rsp 64 +
STACK CFI INIT 16f34 a4 .cfa: $rsp 8 + .ra: .cfa 8 - ^
STACK CFI 16f34 .cfa: $rsp 8 +
STACK CFI INIT 16fd8 a3 .cfa: $rsp 8 + .ra: .cfa 8 - ^
STACK CFI 16fd8 .cfa: $rsp 8 +
STACK CFI INIT 17130 8d .cfa: $rsp 8 + .ra: .cfa 8 - ^
STACK CFI 17130 .cfa: $rsp 8 +
STACK CFI INIT 171c0 87 .cfa: $rsp 8 + .ra: .cfa 8 - ^
STACK CFI 171c0 .cfa: $rsp 8 +
STACK CFI INIT 17270 be .cfa: $rsp 8 + .ra: .cfa 8 - ^
STACK CFI 17270 .cfa: $rsp 64 +
STACK CFI INIT 17330 bd .cfa: $rsp 8 + .ra: .cfa 8 - ^
STACK CFI 17330 .cfa: $rsp 64 +
STACK CFI INIT 173f0 be .cfa: $rsp 8 + .ra: .cfa 8 - ^
STACK CFI 173f0 .cfa: $rsp 64 +
STACK CFI INIT 174b0 bd .cfa: $rsp 8 + .ra: .cfa 8 - ^
STACK CFI 174b0 .cfa: $rsp 64 +
STACK CFI INIT 17570 bc .cfa: $rsp 8 + .ra: .cfa 8 - ^
STACK CFI 17570 .cfa: $rsp 64 +
STACK CFI INIT 1762c bb .cfa: $rsp 8 + .ra: .cfa 8 - ^
STACK CFI 1762c .cfa: $rsp 64 +
STACK CFI INIT 176e8 bc .cfa: $rsp 8 + .ra: .cfa 8 - ^
STACK CFI 176e8 .cfa: $rsp 64 +
STACK CFI INIT 177a4 bc .cfa: $rsp 8 + .ra: .cfa 8 - ^
STACK CFI 177a4 .cfa: $rsp 64 +
STACK CFI INIT 17860 a4 .cfa: $rsp 8 + .ra: .cfa 8 - ^
STACK CFI 17860 .cfa: $rsp 8 +
STACK CFI INIT 17904 a3 .cfa: $rsp 8 + .ra: .cfa 8 - ^
STACK CFI 17904 .cfa: $rsp 8 +
STACK CFI INIT 179a8 be .cfa: $rsp 8 + .ra: .cfa 8 - ^
STACK CFI 179a8 .cfa: $rsp 64 +
STACK CFI INIT 17a68 bc .cfa: $rsp 8 + .ra: .cfa 8 - ^
STACK CFI 17a68 .cfa: $rsp 64 +
STACK CFI INIT 17b24 bb .cfa: $rsp 8 + .ra: .cfa 8 - ^
STACK CFI 17b24 .cfa: $rsp 64 +
STACK CFI INIT 17be0 bc .cfa: $rsp 8 + .ra: .cfa 8 - ^
STACK CFI 17be0 .cfa: $rsp 64 +
STACK CFI INIT 17c9c bb .cfa: $rsp 8 + .ra: .cfa 8 - ^
STACK CFI 17c9c .cfa: $rsp 64 +
STACK CFI INIT 17d58 ba .cfa: $rsp 8 + .ra: .cfa 8 - ^
STACK CFI 17d58 .cfa: $rsp 64 +
STACK CFI INIT 17e14 b9 .cfa: $rsp 8 + .ra: .cfa 8 - ^
STACK CFI 17e14 .cfa: $rsp 64 +
STACK CFI INIT 17ed0 ba .cfa: $rsp 8 + .ra: .cfa 8 - ^
STACK CFI 17ed0 .cfa: $rsp 64 +
STACK CFI INIT 17f8c ba .cfa: $rsp 8 + .ra: .cfa 8 - ^
STACK CFI 17f8c .cfa: $rsp 64 +
STACK CFI INIT 18048 8d .cfa: $rsp 8 + .ra: .cfa 8 - ^
STACK CFI 18048 .cfa: $rsp 8 +
STACK CFI INIT 180d8 87 .cfa: $rsp 8 + .ra: .cfa 8 - ^
STACK CFI 180d8 .cfa: $rsp 8 +
STACK CFI INIT 18160 bc .cfa: $rsp 8 + .ra: .cfa 8 - ^
STACK CFI 18160 .cfa: $rsp 64 +
STACK CFI INIT 1821c b8 .cfa: $rsp 8 + .ra: .cfa 8 - ^
STACK CFI 1821c .cfa: $rsp 64 +
STACK CFI INIT 18374 a4 .cfa: $rsp 8 + .ra: .cfa 8 - ^
STACK CFI 18374 .cfa: $rsp 8 +
STACK CFI INIT 18418 a3 .cfa: $rsp 8 + .ra: .cfa 8 - ^
STACK CFI 18418 .cfa: $rsp 8 +
STACK CFI INIT 18570 8d .cfa: $rsp 8 + .ra: .cfa 8 - ^
STACK CFI 18570 .cfa: $rsp 8 +
STACK CFI INIT 18600 87 .cfa: $rsp 8 + .ra: .cfa 8 - ^
STACK CFI 18600 .cfa: $rsp 8 +
STACK CFI INIT 186b0 a4 .cfa: $rsp 8 + .ra: .cfa 8 - ^
STACK CFI 186b0 .cfa: $rsp 8 +
STACK CFI INIT 18754 a3 .cfa: $rsp 8 + .ra: .cfa 8 - ^
STACK CFI 18754 .cfa: $rsp 8 +
STACK CFI INIT 187f8 8d .cfa: $rsp 8 + .ra: .cfa 8 - ^
STACK CFI 187f8 .cfa: $rsp 8 +
STACK CFI INIT 18888 87 .cfa: $rsp 8 + .ra: .cfa 8 - ^
STACK CFI 18888 .cfa: $rsp 8 +
STACK CFI INIT 18a80 3d .cfa: $rsp 8 + .ra: .cfa 8 - ^
STACK CFI 18a80 .cfa: $rsp 48 +
STACK CFI INIT 18ae8 3d .cfa: $rsp 8 + .ra: .cfa 8 - ^
STACK CFI 18ae8 .cfa: $rsp 48 +
STACK CFI INIT 18b50 3d .cfa: $rsp 8 + .ra: .cfa 8 - ^
STACK CFI 18b50 .cfa: $rsp 48 +
STACK CFI INIT 18bb8 3d .cfa: $rsp 8 + .ra: .cfa 8 - ^
STACK CFI 18bb8 .cfa: $rsp 48 +
STACK CFI INIT 18c20 3d .cfa: $rsp 8 + .ra: .cfa 8 - ^
STACK CFI 18c20 .cfa: $rsp 48 +
STACK CFI INIT 18c88 3d .cfa: $rsp 8 + .ra: .cfa 8 - ^
STACK CFI 18c88 .cfa: $rsp 48 +
STACK CFI INIT 18d34 218 .cfa: $rsp 8 + .ra: .cfa 8 - ^
STACK CFI 18d34 .cfa: $rsp 48 +
STACK CFI INIT 18f4c 74 .cfa: $rsp 8 + .ra: .cfa 8 - ^
STACK CFI 18f4c .cfa: $rsp 48 +
STACK CFI INIT 18fc0 60 .cfa: $rsp 8 + .ra: .cfa 8 - ^
STACK CFI 18fc0 .cfa: $rsp 48 +
STACK CFI INIT 19020 a8 .cfa: $rsp 8 + .ra: .cfa 8 - ^
STACK CFI 19020 .cfa: $rsp 48 +
STACK CFI INIT 19118 a1 .cfa: $rsp 8 + .ra: .cfa 8 - ^
STACK CFI 19118 .cfa: $rsp 64 +
STACK CFI INIT 19220 171 .cfa: $rsp 8 + .ra: .cfa 8 - ^
STACK CFI 19220 .cfa: $rsp 48 +
STACK CFI INIT 19394 266 .cfa: $rsp 8 + .ra: .cfa 8 - ^
STACK CFI 19394 .cfa: $rsp 80 +
STACK CFI INIT 19604 bc .cfa: $rsp 8 + .ra: .cfa 8 - ^
STACK CFI 19604 .cfa: $rsp 48 +
STACK CFI INIT 19734 96 .cfa: $rsp 8 + .ra: .cfa 8 - ^
STACK CFI 19734 .cfa: $rsp 48 +
STACK CFI INIT 197d8 215 .cfa: $rsp 8 + .ra: .cfa 8 - ^
STACK CFI 197d8 .cfa: $rsp 96 +
STACK CFI INIT 19a60 1c5 .cfa: $rsp 8 + .ra: .cfa 8 - ^
STACK CFI 19a60 .cfa: $rsp 64 +
STACK CFI INIT 19c28 db .cfa: $rsp 8 + .ra: .cfa 8 - ^
STACK CFI 19c28 .cfa: $rsp 48 +
STACK CFI INIT 19d04 d5 .cfa: $rsp 8 + .ra: .cfa 8 - ^
STACK CFI 19d04 .cfa: $rsp 96 +
STACK CFI INIT 19e40 23 .cfa: $rsp 8 + .ra: .cfa 8 - ^
STACK CFI 19e40 .cfa: $rsp 48 +
STACK CFI INIT 19ed4 288 .cfa: $rsp 8 + .ra: .cfa 8 - ^
STACK CFI 19ed4 .cfa: $rsp 64 +
STACK CFI INIT 1a268 a3 .cfa: $rsp 8 + .ra: .cfa 8 - ^
STACK CFI 1a268 .cfa: $rsp 48 +
STACK CFI INIT 1a370 196 .cfa: $rsp 8 + .ra: .cfa 8 - ^
STACK CFI 1a370 .cfa: $rsp 48 +
STACK CFI INIT 1a508 2ca .cfa: $rsp 8 + .ra: .cfa 8 - ^
STACK CFI 1a508 .cfa: $rsp 112 +
STACK CFI INIT 1a7dc a6 .cfa: $rsp 8 + .ra: .cfa 8 - ^
STACK CFI 1a7dc .cfa: $rsp 48 +
STACK CFI INIT 1a884 79 .cfa: $rsp 8 + .ra: .cfa 8 - ^
STACK CFI 1a884 .cfa: $rsp 48 +
STACK CFI INIT 1a900 c7 .cfa: $rsp 8 + .ra: .cfa 8 - ^
STACK CFI 1a900 .cfa: $rsp 48 +
STACK CFI INIT 1a9c8 53 .cfa: $rsp 8 + .ra: .cfa 8 - ^
STACK CFI 1a9c8 .cfa: $rsp 8 +
STACK CFI INIT 1aa1c 239 .cfa: $rsp 8 + .ra: .cfa 8 - ^
STACK CFI 1aa1c .cfa: $rsp 96 +
STACK CFI INIT 1acc8 1cb .cfa: $rsp 8 + .ra: .cfa 8 - ^
STACK CFI 1acc8 .cfa: $rsp 64 +
STACK CFI INIT 1ae94 db .cfa: $rsp 8 + .ra: .cfa 8 - ^
STACK CFI 1ae94 .cfa: $rsp 48 +
STACK CFI INIT 1af70 eb .cfa: $rsp 8 + .ra: .cfa 8 - ^
STACK CFI 1af70 .cfa: $rsp 64 +
STACK CFI INIT 1b0c0 23 .cfa: $rsp 8 + .ra: .cfa 8 - ^
STACK CFI 1b0c0 .cfa: $rsp 48 +
STACK CFI INIT 1b0e4 85 .cfa: $rsp 8 + .ra: .cfa 8 - ^
STACK CFI 1b0e4 .cfa: $rsp 8 +
STACK CFI INIT 1b16c 81 .cfa: $rsp 8 + .ra: .cfa 8 - ^
STACK CFI 1b16c .cfa: $rsp 8 +
STACK CFI INIT 1b3c8 a4 .cfa: $rsp 8 + .ra: .cfa 8 - ^
STACK CFI 1b3c8 .cfa: $rsp 8 +
STACK CFI INIT 1b46c a3 .cfa: $rsp 8 + .ra: .cfa 8 - ^
STACK CFI 1b46c .cfa: $rsp 8 +
STACK CFI INIT 1b510 8d .cfa: $rsp 8 + .ra: .cfa 8 - ^
STACK CFI 1b510 .cfa: $rsp 8 +
STACK CFI INIT 1b5a0 87 .cfa: $rsp 8 + .ra: .cfa 8 - ^
STACK CFI 1b5a0 .cfa: $rsp 8 +
STACK CFI INIT 1b6c8 3c .cfa: $rsp 8 + .ra: .cfa 8 - ^
STACK CFI 1b6c8 .cfa: $rsp 48 +
STACK CFI INIT 1b70c 14 .cfa: $rsp 8 + .ra: .cfa 8 - ^
STACK CFI 1b70c .cfa: $rsp 48 +
STACK CFI INIT 1b72c 52 .cfa: $rsp 8 + .ra: .cfa 8 - ^
STACK CFI 1b72c .cfa: $rsp 48 +
STACK CFI INIT 1b780 5b .cfa: $rsp 8 + .ra: .cfa 8 - ^
STACK CFI 1b780 .cfa: $rsp 48 +
STACK CFI INIT 1b7e4 21 .cfa: $rsp 8 + .ra: .cfa 8 - ^
STACK CFI 1b7e4 .cfa: $rsp 48 +
STACK CFI INIT 1b80c 21 .cfa: $rsp 8 + .ra: .cfa 8 - ^
STACK CFI 1b80c .cfa: $rsp 48 +
STACK CFI INIT 1b83c 30 .cfa: $rsp 8 + .ra: .cfa 8 - ^
STACK CFI 1b83c .cfa: $rsp 48 +
STACK CFI INIT 1b86c 4a .cfa: $rsp 8 + .ra: .cfa 8 - ^
STACK CFI 1b86c .cfa: $rsp 48 +
STACK CFI INIT 1b8ec bc .cfa: $rsp 8 + .ra: .cfa 8 - ^
STACK CFI 1b8ec .cfa: $rsp 96 +
STACK CFI INIT 1b9a8 c1 .cfa: $rsp 8 + .ra: .cfa 8 - ^
STACK CFI 1b9a8 .cfa: $rsp 48 +
STACK CFI INIT 1ba94 26 .cfa: $rsp 8 + .ra: .cfa 8 - ^
STACK CFI 1ba94 .cfa: $rsp 48 +
STACK CFI INIT 1badc 38 .cfa: $rsp 8 + .ra: .cfa 8 - ^
STACK CFI 1badc .cfa: $rsp 48 +
STACK CFI INIT 1bb14 186 .cfa: $rsp 8 + .ra: .cfa 8 - ^
STACK CFI 1bb14 .cfa: $rsp 96 +
STACK CFI INIT 1bc9c 182 .cfa: $rsp 8 + .ra: .cfa 8 - ^
STACK CFI 1bc9c .cfa: $rsp 96 +
STACK CFI INIT 1be30 5d .cfa: $rsp 8 + .ra: .cfa 8 - ^
STACK CFI 1be30 .cfa: $rsp 48 +
STACK CFI INIT 1becc 16 .cfa: $rsp 8 + .ra: .cfa 8 - ^
STACK CFI 1becc .cfa: $rsp 48 +
STACK CFI INIT 1bef0 1b .cfa: $rsp 8 + .ra: .cfa 8 - ^
STACK CFI 1bef0 .cfa: $rsp 48 +
STACK CFI INIT 1bf14 1b .cfa: $rsp 8 + .ra: .cfa 8 - ^
STACK CFI 1bf14 .cfa: $rsp 48 +
STACK CFI INIT 1bf44 175 .cfa: $rsp 8 + .ra: .cfa 8 - ^
STACK CFI 1bf44 .cfa: $rsp 96 +
STACK CFI INIT 1c0bc 171 .cfa: $rsp 8 + .ra: .cfa 8 - ^
STACK CFI 1c0bc .cfa: $rsp 96 +
STACK CFI INIT 1c250 1c3 .cfa: $rsp 8 + .ra: .cfa 8 - ^
STACK CFI 1c250 .cfa: $rsp 64 +
STACK CFI INIT 1c41c 1b .cfa: $rsp 8 + .ra: .cfa 8 - ^
STACK CFI 1c41c .cfa: $rsp 48 +
STACK CFI INIT 1c440 1b .cfa: $rsp 8 + .ra: .cfa 8 - ^
STACK CFI 1c440 .cfa: $rsp 48 +
STACK CFI INIT 1c4a4 1a2 .cfa: $rsp 8 + .ra: .cfa 8 - ^
STACK CFI 1c4a4 .cfa: $rsp 16 +
STACK CFI INIT 1c650 1b .cfa: $rsp 8 + .ra: .cfa 8 - ^
STACK CFI 1c650 .cfa: $rsp 48 +
STACK CFI INIT 1c674 1b .cfa: $rsp 8 + .ra: .cfa 8 - ^
STACK CFI 1c674 .cfa: $rsp 48 +
STACK CFI INIT 1c6f4 48 .cfa: $rsp 8 + .ra: .cfa 8 - ^
STACK CFI 1c6f4 .cfa: $rsp 80 +
STACK CFI INIT 1c73c 3a .cfa: $rsp 8 + .ra: .cfa 8 - ^
STACK CFI 1c73c .cfa: $rsp 64 +
STACK CFI INIT 1c7a4 1b0 .cfa: $rsp 8 + .ra: .cfa 8 - ^
STACK CFI 1c7a4 .cfa: $rsp 64 +
STACK CFI INIT 1c980 1b .cfa: $rsp 8 + .ra: .cfa 8 - ^
STACK CFI 1c980 .cfa: $rsp 48 +
STACK CFI INIT 1c9a4 1b .cfa: $rsp 8 + .ra: .cfa 8 - ^
STACK CFI 1c9a4 .cfa: $rsp 48 +
STACK CFI INIT 1ca08 26 .cfa: $rsp 8 + .ra: .cfa 8 - ^
STACK CFI 1ca08 .cfa: $rsp 48 +
STACK CFI INIT 1ca30 116 .cfa: $rsp 8 + .ra: .cfa 8 - ^
STACK CFI 1ca30 .cfa: $rsp 64 +
STACK CFI INIT 1cb68 26 .cfa: $rsp 8 + .ra: .cfa 8 - ^
STACK CFI 1cb68 .cfa: $rsp 48 +
STACK CFI INIT 1cbd8 3b .cfa: $rsp 8 + .ra: .cfa 8 - ^
STACK CFI 1cbd8 .cfa: $rsp 48 +
STACK CFI INIT 1cc34 3b .cfa: $rsp 8 + .ra: .cfa 8 - ^
STACK CFI 1cc34 .cfa: $rsp 48 +
STACK CFI INIT 1cc80 4e .cfa: $rsp 8 + .ra: .cfa 8 - ^
STACK CFI 1cc80 .cfa: $rsp 48 +
STACK CFI INIT 1ccd0 4e .cfa: $rsp 8 + .ra: .cfa 8 - ^
STACK CFI 1ccd0 .cfa: $rsp 48 +
STACK CFI INIT 1cd30 3b .cfa: $rsp 8 + .ra: .cfa 8 - ^
STACK CFI 1cd30 .cfa: $rsp 48 +
STACK CFI INIT 1cd6c 3b .cfa: $rsp 8 + .ra: .cfa 8 - ^
STACK CFI 1cd6c .cfa: $rsp 48 +
STACK CFI INIT 1cda8 38 .cfa: $rsp 8 + .ra: .cfa 8 - ^
STACK CFI 1cda8 .cfa: $rsp 48 +
STACK CFI INIT 1cde0 31 .cfa: $rsp 8 + .ra: .cfa 8 - ^
STACK CFI 1cde0 .cfa: $rsp 64 +
STACK CFI INIT 1ce18 24 .cfa: $rsp 8 + .ra: .cfa 8 - ^
STACK CFI 1ce18 .cfa: $rsp 64 +
STACK CFI INIT 1ce3c 2e .cfa: $rsp 8 + .ra: .cfa 8 - ^
STACK CFI 1ce3c .cfa: $rsp 80 +
STACK CFI INIT 1ce6c 23 .cfa: $rsp 8 + .ra: .cfa 8 - ^
STACK CFI 1ce6c .cfa: $rsp 64 +
STACK CFI INIT 1ce90 2e .cfa: $rsp 8 + .ra: .cfa 8 - ^
STACK CFI 1ce90 .cfa: $rsp 80 +
STACK CFI INIT 1cec4 27 .cfa: $rsp 8 + .ra: .cfa 8 - ^
STACK CFI 1cec4 .cfa: $rsp 8 +
STACK CFI INIT 1cef0 27 .cfa: $rsp 8 + .ra: .cfa 8 - ^
STACK CFI 1cef0 .cfa: $rsp 8 +
STACK CFI INIT 1cf54 6c .cfa: $rsp 8 + .ra: .cfa 8 - ^
STACK CFI 1cf54 .cfa: $rsp 48 +
STACK CFI INIT 1cfc0 67 .cfa: $rsp 8 + .ra: .cfa 8 - ^
STACK CFI 1cfc0 .cfa: $rsp 48 +
STACK CFI INIT 1d028 1a .cfa: $rsp 8 + .ra: .cfa 8 - ^
STACK CFI 1d028 .cfa: $rsp 48 +
STACK CFI INIT 1d044 43 .cfa: $rsp 8 + .ra: .cfa 8 - ^
STACK CFI 1d044 .cfa: $rsp 48 +
STACK CFI INIT 1d088 1a .cfa: $rsp 8 + .ra: .cfa 8 - ^
STACK CFI 1d088 .cfa: $rsp 48 +
STACK CFI INIT 1d0a4 43 .cfa: $rsp 8 + .ra: .cfa 8 - ^
STACK CFI 1d0a4 .cfa: $rsp 48 +
STACK CFI INIT 1d0e8 41 .cfa: $rsp 8 + .ra: .cfa 8 - ^
STACK CFI 1d0e8 .cfa: $rsp 48 +
STACK CFI INIT 1d12c 41 .cfa: $rsp 8 + .ra: .cfa 8 - ^
STACK CFI 1d12c .cfa: $rsp 48 +
STACK CFI INIT 1d170 3b .cfa: $rsp 8 + .ra: .cfa 8 - ^
STACK CFI 1d170 .cfa: $rsp 48 +
STACK CFI INIT 1d1ac 3b .cfa: $rsp 8 + .ra: .cfa 8 - ^
STACK CFI 1d1ac .cfa: $rsp 48 +
STACK CFI INIT 1d1e8 4e .cfa: $rsp 8 + .ra: .cfa 8 - ^
STACK CFI 1d1e8 .cfa: $rsp 48 +
STACK CFI INIT 1d238 4e .cfa: $rsp 8 + .ra: .cfa 8 - ^
STACK CFI 1d238 .cfa: $rsp 48 +
STACK CFI INIT 1d298 106 .cfa: $rsp 8 + .ra: .cfa 8 - ^
STACK CFI 1d298 .cfa: $rsp 80 +
STACK CFI INIT 1d3c0 1b .cfa: $rsp 8 + .ra: .cfa 8 - ^
STACK CFI 1d3c0 .cfa: $rsp 48 +
STACK CFI INIT 1d3e4 1b .cfa: $rsp 8 + .ra: .cfa 8 - ^
STACK CFI 1d3e4 .cfa: $rsp 48 +
STACK CFI INIT 1d414 113 .cfa: $rsp 8 + .ra: .cfa 8 - ^
STACK CFI 1d414 .cfa: $rsp 80 +
STACK CFI INIT 1d538 d1 .cfa: $rsp 8 + .ra: .cfa 8 - ^
STACK CFI 1d538 .cfa: $rsp 80 +
STACK CFI INIT 1d60c b1 .cfa: $rsp 8 + .ra: .cfa 8 - ^
STACK CFI 1d60c .cfa: $rsp 64 +
STACK CFI INIT 1d798 64 .cfa: $rsp 8 + .ra: .cfa 8 - ^
STACK CFI 1d798 .cfa: $rsp 48 +
STACK CFI INIT 1d7fc 3d .cfa: $rsp 8 + .ra: .cfa 8 - ^
STACK CFI 1d7fc .cfa: $rsp 48 +
STACK CFI INIT 1d850 182 .cfa: $rsp 8 + .ra: .cfa 8 - ^
STACK CFI 1d850 .cfa: $rsp 48 +
STACK CFI INIT 1d9f4 62 .cfa: $rsp 8 + .ra: .cfa 8 - ^
STACK CFI 1d9f4 .cfa: $rsp 48 +
STACK CFI INIT 1da58 83 .cfa: $rsp 8 + .ra: .cfa 8 - ^
STACK CFI 1da58 .cfa: $rsp 48 +
STACK CFI INIT 1daf4 58 .cfa: $rsp 8 + .ra: .cfa 8 - ^
STACK CFI 1daf4 .cfa: $rsp 48 +
STACK CFI INIT 1db54 58 .cfa: $rsp 8 + .ra: .cfa 8 - ^
STACK CFI 1db54 .cfa: $rsp 48 +
STACK CFI INIT 1dbc8 b9 .cfa: $rsp 8 + .ra: .cfa 8 - ^
STACK CFI 1dbc8 .cfa: $rsp 64 +
STACK CFI INIT 1dc84 53 .cfa: $rsp 8 + .ra: .cfa 8 - ^
STACK CFI 1dc84 .cfa: $rsp 48 +
STACK CFI INIT 1dcd8 c9 .cfa: $rsp 8 + .ra: .cfa 8 - ^
STACK CFI 1dcd8 .cfa: $rsp 64 +
STACK CFI INIT 1dda4 53 .cfa: $rsp 8 + .ra: .cfa 8 - ^
STACK CFI 1dda4 .cfa: $rsp 48 +
STACK CFI INIT 1de20 81 .cfa: $rsp 8 + .ra: .cfa 8 - ^
STACK CFI 1de20 .cfa: $rsp 112 +
STACK CFI INIT 1dea4 1aa .cfa: $rsp 8 + .ra: .cfa 8 - ^
STACK CFI 1dea4 .cfa: $rsp 80 +
STACK CFI INIT 1e09c 64 .cfa: $rsp 8 + .ra: .cfa 8 - ^
STACK CFI 1e09c .cfa: $rsp 48 +
STACK CFI INIT 1e118 28 .cfa: $rsp 8 + .ra: .cfa 8 - ^
STACK CFI 1e118 .cfa: $rsp 48 +
STACK CFI INIT 1e168 3f .cfa: $rsp 8 + .ra: .cfa 8 - ^
STACK CFI 1e168 .cfa: $rsp 48 +
STACK CFI INIT 1e1a8 20 .cfa: $rsp 8 + .ra: .cfa 8 - ^
STACK CFI 1e1a8 .cfa: $rsp 48 +
STACK CFI INIT 1e1c8 2c .cfa: $rsp 8 + .ra: .cfa 8 - ^
STACK CFI 1e1c8 .cfa: $rsp 48 +
STACK CFI INIT 1e1f4 22 .cfa: $rsp 8 + .ra: .cfa 8 - ^
STACK CFI 1e1f4 .cfa: $rsp 48 +
STACK CFI INIT 1e22c 65 .cfa: $rsp 8 + .ra: .cfa 8 - ^
STACK CFI 1e22c .cfa: $rsp 48 +
STACK CFI INIT 1e294 6c .cfa: $rsp 8 + .ra: .cfa 8 - ^
STACK CFI 1e294 .cfa: $rsp 48 +
STACK CFI INIT 1e380 4d .cfa: $rsp 8 + .ra: .cfa 8 - ^
STACK CFI 1e380 .cfa: $rsp 48 +
STACK CFI INIT 1e3e0 18 .cfa: $rsp 8 + .ra: .cfa 8 - ^
STACK CFI 1e3e0 .cfa: $rsp 8 +
STACK CFI INIT 1e400 1 .cfa: $rsp 8 + .ra: .cfa 8 - ^
STACK CFI 1e400 .cfa: $rsp 8 +
STACK CFI INIT 1e410 1 .cfa: $rsp 8 + .ra: .cfa 8 - ^
STACK CFI 1e410 .cfa: $rsp 8 +
STACK CFI INIT 1e44c 5b .cfa: $rsp 8 + .ra: .cfa 8 - ^
STACK CFI 1e44c .cfa: $rsp 48 +
STACK CFI INIT 1e4f0 56 .cfa: $rsp 8 + .ra: .cfa 8 - ^
STACK CFI 1e4f0 .cfa: $rsp 48 +
STACK CFI INIT 1e564 47 .cfa: $rsp 8 + .ra: .cfa 8 - ^
STACK CFI 1e564 .cfa: $rsp 48 +
STACK CFI INIT 1e5ac 22 .cfa: $rsp 8 + .ra: .cfa 8 - ^
STACK CFI 1e5ac .cfa: $rsp 48 +
STACK CFI INIT 1e5d0 19 .cfa: $rsp 8 + .ra: .cfa 8 - ^
STACK CFI 1e5d0 .cfa: $rsp 48 +
STACK CFI INIT 1e5ec bf .cfa: $rsp 8 + .ra: .cfa 8 - ^
STACK CFI 1e5ec .cfa: $rsp 48 +
STACK CFI INIT 1e6ac 4d .cfa: $rsp 8 + .ra: .cfa 8 - ^
STACK CFI 1e6ac .cfa: $rsp 48 +
STACK CFI INIT 1e6fc 4d .cfa: $rsp 8 + .ra: .cfa 8 - ^
STACK CFI 1e6fc .cfa: $rsp 48 +
STACK CFI INIT 1e750 1f .cfa: $rsp 8 + .ra: .cfa 8 - ^
STACK CFI 1e750 .cfa: $rsp 48 +
STACK CFI INIT 1e770 1a .cfa: $rsp 8 + .ra: .cfa 8 - ^
STACK CFI 1e770 .cfa: $rsp 48 +
STACK CFI INIT 1e798 2a .cfa: $rsp 8 + .ra: .cfa 8 - ^
STACK CFI 1e798 .cfa: $rsp 48 +
STACK CFI INIT 1e7cc 1b .cfa: $rsp 8 + .ra: .cfa 8 - ^
STACK CFI 1e7cc .cfa: $rsp 48 +
STACK CFI INIT 1e7f0 1b .cfa: $rsp 8 + .ra: .cfa 8 - ^
STACK CFI 1e7f0 .cfa: $rsp 48 +
STACK CFI INIT 1e840 2b .cfa: $rsp 8 + .ra: .cfa 8 - ^
STACK CFI 1e840 .cfa: $rsp 48 +
STACK CFI INIT 1e888 5f .cfa: $rsp 8 + .ra: .cfa 8 - ^
STACK CFI 1e888 .cfa: $rsp 48 +
STACK CFI INIT 1e8e8 62 .cfa: $rsp 8 + .ra: .cfa 8 - ^
STACK CFI 1e8e8 .cfa: $rsp 48 +
STACK CFI INIT 1e94c 106 .cfa: $rsp 8 + .ra: .cfa 8 - ^
STACK CFI 1e94c .cfa: $rsp 224 +
STACK CFI INIT 1ea54 27 .cfa: $rsp 8 + .ra: .cfa 8 - ^
STACK CFI 1ea54 .cfa: $rsp 80 +
STACK CFI INIT 1ea7c 132 .cfa: $rsp 8 + .ra: .cfa 8 - ^
STACK CFI 1ea7c .cfa: $rsp 224 +
STACK CFI INIT 1ebb0 62 .cfa: $rsp 8 + .ra: .cfa 8 - ^
STACK CFI 1ebb0 .cfa: $rsp 64 +
STACK CFI INIT 1ec14 52 .cfa: $rsp 8 + .ra: .cfa 8 - ^
STACK CFI 1ec14 .cfa: $rsp 96 +
STACK CFI INIT 1ecfc 8e .cfa: $rsp 8 + .ra: .cfa 8 - ^
STACK CFI 1ecfc .cfa: $rsp 48 +
STACK CFI INIT 1ed8c 42 .cfa: $rsp 8 + .ra: .cfa 8 - ^
STACK CFI 1ed8c .cfa: $rsp 48 +
STACK CFI INIT 1ee3c 1f .cfa: $rsp 8 + .ra: .cfa 8 - ^
STACK CFI 1ee3c .cfa: $rsp 48 +
STACK CFI INIT 1ee5c 2b .cfa: $rsp 8 + .ra: .cfa 8 - ^
STACK CFI 1ee5c .cfa: $rsp 48 +
STACK CFI INIT 1ee88 af .cfa: $rsp 8 + .ra: .cfa 8 - ^
STACK CFI 1ee88 .cfa: $rsp 48 +
STACK CFI INIT 1ef68 81 .cfa: $rsp 8 + .ra: .cfa 8 - ^
STACK CFI 1ef68 .cfa: $rsp 48 +
STACK CFI INIT 1efec 88 .cfa: $rsp 8 + .ra: .cfa 8 - ^
STACK CFI 1efec .cfa: $rsp 80 +
STACK CFI INIT 1f074 a6 .cfa: $rsp 8 + .ra: .cfa 8 - ^
STACK CFI 1f074 .cfa: $rsp 80 +
STACK CFI INIT 1f228 91 .cfa: $rsp 8 + .ra: .cfa 8 - ^
STACK CFI 1f228 .cfa: $rsp 48 +
STACK CFI INIT 1f2d8 29 .cfa: $rsp 8 + .ra: .cfa 8 - ^
STACK CFI 1f2d8 .cfa: $rsp 48 +
STACK CFI INIT 1f304 29 .cfa: $rsp 8 + .ra: .cfa 8 - ^
STACK CFI 1f304 .cfa: $rsp 48 +
STACK CFI INIT 1f330 29 .cfa: $rsp 8 + .ra: .cfa 8 - ^
STACK CFI 1f330 .cfa: $rsp 48 +
STACK CFI INIT 1f35c 29 .cfa: $rsp 8 + .ra: .cfa 8 - ^
STACK CFI 1f35c .cfa: $rsp 48 +
STACK CFI INIT 1f388 29 .cfa: $rsp 8 + .ra: .cfa 8 - ^
STACK CFI 1f388 .cfa: $rsp 48 +
STACK CFI INIT 1f3b4 6c .cfa: $rsp 8 + .ra: .cfa 8 - ^
STACK CFI 1f3b4 .cfa: $rsp 48 +
STACK CFI INIT 1f420 7e .cfa: $rsp 8 + .ra: .cfa 8 - ^
STACK CFI 1f420 .cfa: $rsp 48 +
STACK CFI INIT 1f4a0 93 .cfa: $rsp 8 + .ra: .cfa 8 - ^
STACK CFI 1f4a0 .cfa: $rsp 48 +
STACK CFI INIT 1f534 6b .cfa: $rsp 8 + .ra: .cfa 8 - ^
STACK CFI 1f534 .cfa: $rsp 48 +
STACK CFI INIT 1f5a0 b3 .cfa: $rsp 8 + .ra: .cfa 8 - ^
STACK CFI 1f5a0 .cfa: $rsp 48 +
STACK CFI INIT 1f668 26 .cfa: $rsp 8 + .ra: .cfa 8 - ^
STACK CFI 1f668 .cfa: $rsp 48 +
STACK CFI INIT 1f6a0 1f .cfa: $rsp 8 + .ra: .cfa 8 - ^
STACK CFI 1f6a0 .cfa: $rsp 48 +
STACK CFI INIT 1f6c0 76 .cfa: $rsp 8 + .ra: .cfa 8 - ^
STACK CFI 1f6c0 .cfa: $rsp 48 +
STACK CFI INIT 1f758 36 .cfa: $rsp 8 + .ra: .cfa 8 - ^
STACK CFI 1f758 .cfa: $rsp 64 +
STACK CFI INIT 1f790 42 .cfa: $rsp 8 + .ra: .cfa 8 - ^
STACK CFI 1f790 .cfa: $rsp 64 +
STACK CFI INIT 1f7d4 49 .cfa: $rsp 8 + .ra: .cfa 8 - ^
STACK CFI 1f7d4 .cfa: $rsp 64 +
STACK CFI INIT 1f820 50 .cfa: $rsp 8 + .ra: .cfa 8 - ^
STACK CFI 1f820 .cfa: $rsp 48 +
STACK CFI INIT 1f884 58 .cfa: $rsp 8 + .ra: .cfa 8 - ^
STACK CFI 1f884 .cfa: $rsp 48 +
STACK CFI INIT 1f91c 2e4 .cfa: $rsp 8 + .ra: .cfa 8 - ^
STACK CFI 1f91c .cfa: $rsp 160 +
STACK CFI INIT 1fc00 4c .cfa: $rsp 8 + .ra: .cfa 8 - ^
STACK CFI 1fc00 .cfa: $rsp 48 +
STACK CFI INIT 1fc4c 2e5 .cfa: $rsp 8 + .ra: .cfa 8 - ^
STACK CFI 1fc4c .cfa: $rsp 176 +
STACK CFI INIT 1ff34 847 .cfa: $rsp 8 + .ra: .cfa 8 - ^
STACK CFI 1ff34 .cfa: $rsp 144 +
STACK CFI INIT 2077c 4b3 .cfa: $rsp 8 + .ra: .cfa 8 - ^
STACK CFI 2077c .cfa: $rsp 608 +
STACK CFI INIT 20c30 139 .cfa: $rsp 8 + .ra: .cfa 8 - ^
STACK CFI 20c30 .cfa: $rsp 112 +
STACK CFI INIT 20d6c 71 .cfa: $rsp 8 + .ra: .cfa 8 - ^
STACK CFI 20d6c .cfa: $rsp 48 +
STACK CFI INIT 20de0 86 .cfa: $rsp 8 + .ra: .cfa 8 - ^
STACK CFI 20de0 .cfa: $rsp 80 +
STACK CFI INIT 20e68 14a .cfa: $rsp 8 + .ra: .cfa 8 - ^
STACK CFI 20e68 .cfa: $rsp 112 +
STACK CFI INIT 20fb4 11f .cfa: $rsp 8 + .ra: .cfa 8 - ^
STACK CFI 20fb4 .cfa: $rsp 160 +
STACK CFI INIT 210d4 150 .cfa: $rsp 8 + .ra: .cfa 8 - ^
STACK CFI 210d4 .cfa: $rsp 144 +
STACK CFI INIT 21224 c6 .cfa: $rsp 8 + .ra: .cfa 8 - ^
STACK CFI 21224 .cfa: $rsp 80 +
STACK CFI INIT 212ec 68 .cfa: $rsp 8 + .ra: .cfa 8 - ^
STACK CFI 212ec .cfa: $rsp 48 +
STACK CFI INIT 213c8 291 .cfa: $rsp 8 + .ra: .cfa 8 - ^
STACK CFI 213c8 .cfa: $rsp 416 +
STACK CFI INIT 2165c 272 .cfa: $rsp 8 + .ra: .cfa 8 - ^
STACK CFI 2165c .cfa: $rsp 192 +
STACK CFI INIT 218d0 479 .cfa: $rsp 8 + .ra: .cfa 8 - ^
STACK CFI 218d0 .cfa: $rsp 160 +
STACK CFI INIT 21d4c 167 .cfa: $rsp 8 + .ra: .cfa 8 - ^
STACK CFI 21d4c .cfa: $rsp 128 +
STACK CFI INIT 21eb4 ea5 .cfa: $rsp 8 + .ra: .cfa 8 - ^
STACK CFI 21eb4 .cfa: $rsp 352 +
STACK CFI INIT 22d5c 374 .cfa: $rsp 8 + .ra: .cfa 8 - ^
STACK CFI 22d5c .cfa: $rsp 48 +
STACK CFI INIT 230d0 f6 .cfa: $rsp 8 + .ra: .cfa 8 - ^
STACK CFI 230d0 .cfa: $rsp 96 +
STACK CFI INIT 231c8 17 .cfa: $rsp 8 + .ra: .cfa 8 - ^
STACK CFI 231c8 .cfa: $rsp 48 +
STACK CFI INIT 231e0 126 .cfa: $rsp 8 + .ra: .cfa 8 - ^
STACK CFI 231e0 .cfa: $rsp 96 +
STACK CFI INIT 23308 13f .cfa: $rsp 8 + .ra: .cfa 8 - ^
STACK CFI 23308 .cfa: $rsp 80 +
STACK CFI INIT 23448 34 .cfa: $rsp 8 + .ra: .cfa 8 - ^
STACK CFI 23448 .cfa: $rsp 48 +
STACK CFI INIT 2347c 111 .cfa: $rsp 8 + .ra: .cfa 8 - ^
STACK CFI 2347c .cfa: $rsp 112 +
STACK CFI INIT 23590 2b2 .cfa: $rsp 8 + .ra: .cfa 8 - ^
STACK CFI 23590 .cfa: $rsp 96 +
STACK CFI INIT 23844 897 .cfa: $rsp 8 + .ra: .cfa 8 - ^
STACK CFI 23844 .cfa: $rsp 384 +
STACK CFI INIT 240dc 207 .cfa: $rsp 8 + .ra: .cfa 8 - ^
STACK CFI 240dc .cfa: $rsp 96 +
STACK CFI INIT 242e4 3a .cfa: $rsp 8 + .ra: .cfa 8 - ^
STACK CFI 242e4 .cfa: $rsp 96 +
STACK CFI INIT 24320 541 .cfa: $rsp 8 + .ra: .cfa 8 - ^
STACK CFI 24320 .cfa: $rsp 96 +
STACK CFI INIT 24864 1df .cfa: $rsp 8 + .ra: .cfa 8 - ^
STACK CFI 24864 .cfa: $rsp 128 +
STACK CFI INIT 24a44 1d5 .cfa: $rsp 8 + .ra: .cfa 8 - ^
STACK CFI 24a44 .cfa: $rsp 112 +
STACK CFI INIT 24c1c 1cc .cfa: $rsp 8 + .ra: .cfa 8 - ^
STACK CFI 24c1c .cfa: $rsp 96 +
STACK CFI INIT 24de8 247 .cfa: $rsp 8 + .ra: .cfa 8 - ^
STACK CFI 24de8 .cfa: $rsp 160 +
STACK CFI INIT 25030 535 .cfa: $rsp 8 + .ra: .cfa 8 - ^
STACK CFI 25030 .cfa: $rsp 208 +
STACK CFI INIT 25568 15c .cfa: $rsp 8 + .ra: .cfa 8 - ^
STACK CFI 25568 .cfa: $rsp 96 +
STACK CFI INIT 256c4 192 .cfa: $rsp 8 + .ra: .cfa 8 - ^
STACK CFI 256c4 .cfa: $rsp 96 +
STACK CFI INIT 2587c 62 .cfa: $rsp 8 + .ra: .cfa 8 - ^
STACK CFI 2587c .cfa: $rsp 64 +
STACK CFI INIT 258e0 1cc .cfa: $rsp 8 + .ra: .cfa 8 - ^
STACK CFI 258e0 .cfa: $rsp 128 +
STACK CFI INIT 25af8 63 .cfa: $rsp 8 + .ra: .cfa 8 - ^
STACK CFI 25af8 .cfa: $rsp 96 +
STACK CFI INIT 25b5c 3a .cfa: $rsp 8 + .ra: .cfa 8 - ^
STACK CFI 25b5c .cfa: $rsp 96 +
STACK CFI INIT 25b98 3e .cfa: $rsp 8 + .ra: .cfa 8 - ^
STACK CFI 25b98 .cfa: $rsp 96 +
STACK CFI INIT 25bd8 1d .cfa: $rsp 8 + .ra: .cfa 8 - ^
STACK CFI 25bd8 .cfa: $rsp 48 +
STACK CFI INIT 25bf8 1a .cfa: $rsp 8 + .ra: .cfa 8 - ^
STACK CFI 25bf8 .cfa: $rsp 48 +
STACK CFI INIT 25c14 17 .cfa: $rsp 8 + .ra: .cfa 8 - ^
STACK CFI 25c14 .cfa: $rsp 48 +
STACK CFI INIT 25c2c c0 .cfa: $rsp 8 + .ra: .cfa 8 - ^
STACK CFI 25c2c .cfa: $rsp 144 +
STACK CFI INIT 25cec 19 .cfa: $rsp 8 + .ra: .cfa 8 - ^
STACK CFI 25cec .cfa: $rsp 48 +
STACK CFI INIT 25d08 19 .cfa: $rsp 8 + .ra: .cfa 8 - ^
STACK CFI 25d08 .cfa: $rsp 48 +
STACK CFI INIT 25d24 19 .cfa: $rsp 8 + .ra: .cfa 8 - ^
STACK CFI 25d24 .cfa: $rsp 48 +
STACK CFI INIT 25d40 207 .cfa: $rsp 8 + .ra: .cfa 8 - ^
STACK CFI 25d40 .cfa: $rsp 160 +
STACK CFI INIT 25f48 17 .cfa: $rsp 8 + .ra: .cfa 8 - ^
STACK CFI 25f48 .cfa: $rsp 48 +
STACK CFI INIT 25f60 7c .cfa: $rsp 8 + .ra: .cfa 8 - ^
STACK CFI 25f60 .cfa: $rsp 64 +
STACK CFI INIT 25fdc 75 .cfa: $rsp 8 + .ra: .cfa 8 - ^
STACK CFI 25fdc .cfa: $rsp 64 +
STACK CFI INIT 26054 e1 .cfa: $rsp 8 + .ra: .cfa 8 - ^
STACK CFI 26054 .cfa: $rsp 80 +
STACK CFI INIT 26138 112 .cfa: $rsp 8 + .ra: .cfa 8 - ^
STACK CFI 26138 .cfa: $rsp 96 +
STACK CFI INIT 2639c 4c .cfa: $rsp 8 + .ra: .cfa 8 - ^
STACK CFI 2639c .cfa: $rsp 32 +
STACK CFI INIT 263e8 152 .cfa: $rsp 8 + .ra: .cfa 8 - ^
STACK CFI 263e8 .cfa: $rsp 64 +
STACK CFI INIT 2653c 11d .cfa: $rsp 8 + .ra: .cfa 8 - ^
STACK CFI 2653c .cfa: $rsp 64 +
STACK CFI INIT 2665c 40 .cfa: $rsp 8 + .ra: .cfa 8 - ^
STACK CFI 2665c .cfa: $rsp 48 +
STACK CFI INIT 266b0 40 .cfa: $rsp 8 + .ra: .cfa 8 - ^
STACK CFI 266b0 .cfa: $rsp 48 +
STACK CFI INIT 26728 40 .cfa: $rsp 8 + .ra: .cfa 8 - ^
STACK CFI 26728 .cfa: $rsp 48 +
STACK CFI INIT 26890 28 .cfa: $rsp 8 + .ra: .cfa 8 - ^
STACK CFI 26890 .cfa: $rsp 48 +
STACK CFI INIT 268d0 29 .cfa: $rsp 8 + .ra: .cfa 8 - ^
STACK CFI 268d0 .cfa: $rsp 48 +
STACK CFI INIT 26900 2d .cfa: $rsp 8 + .ra: .cfa 8 - ^
STACK CFI 26900 .cfa: $rsp 48 +
STACK CFI INIT 269f0 46 .cfa: $rsp 8 + .ra: .cfa 8 - ^
STACK CFI 269f0 .cfa: $rsp 48 +
STACK CFI INIT 26a50 35 .cfa: $rsp 8 + .ra: .cfa 8 - ^
STACK CFI 26a50 .cfa: $rsp 48 +
STACK CFI INIT 26a90 4b .cfa: $rsp 8 + .ra: .cfa 8 - ^
STACK CFI 26a90 .cfa: $rsp 48 +
STACK CFI INIT 26b1c a1 .cfa: $rsp 8 + .ra: .cfa 8 - ^
STACK CFI 26b1c .cfa: $rsp 48 +
STACK CFI INIT 26bc0 95 .cfa: $rsp 8 + .ra: .cfa 8 - ^
STACK CFI 26bc0 .cfa: $rsp 48 +
STACK CFI INIT 26c58 62 .cfa: $rsp 8 + .ra: .cfa 8 - ^
STACK CFI 26c58 .cfa: $rsp 48 +
STACK CFI INIT 26cd4 62 .cfa: $rsp 8 + .ra: .cfa 8 - ^
STACK CFI 26cd4 .cfa: $rsp 48 +
STACK CFI INIT 26d38 62 .cfa: $rsp 8 + .ra: .cfa 8 - ^
STACK CFI 26d38 .cfa: $rsp 48 +
STACK CFI INIT 26d9c 62 .cfa: $rsp 8 + .ra: .cfa 8 - ^
STACK CFI 26d9c .cfa: $rsp 48 +
STACK CFI INIT 26e00 62 .cfa: $rsp 8 + .ra: .cfa 8 - ^
STACK CFI 26e00 .cfa: $rsp 48 +
STACK CFI INIT 26e64 95 .cfa: $rsp 8 + .ra: .cfa 8 - ^
STACK CFI 26e64 .cfa: $rsp 48 +
STACK CFI INIT 26f20 72 .cfa: $rsp 8 + .ra: .cfa 8 - ^
STACK CFI 26f20 .cfa: $rsp 48 +
STACK CFI INIT 26f94 72 .cfa: $rsp 8 + .ra: .cfa 8 - ^
STACK CFI 26f94 .cfa: $rsp 48 +
STACK CFI INIT 27008 32 .cfa: $rsp 8 + .ra: .cfa 8 - ^
STACK CFI 27008 .cfa: $rsp 48 +
STACK CFI INIT 2703c 37 .cfa: $rsp 8 + .ra: .cfa 8 - ^
STACK CFI 2703c .cfa: $rsp 48 +
STACK CFI INIT 270c0 31 .cfa: $rsp 8 + .ra: .cfa 8 - ^
STACK CFI 270c0 .cfa: $rsp 8 +
STACK CFI INIT 27100 41 .cfa: $rsp 8 + .ra: .cfa 8 - ^
STACK CFI 27100 .cfa: $rsp 48 +
STACK CFI INIT 27144 3a .cfa: $rsp 8 + .ra: .cfa 8 - ^
STACK CFI 27144 .cfa: $rsp 48 +
STACK CFI INIT 27180 dc .cfa: $rsp 8 + .ra: .cfa 8 - ^
STACK CFI 27180 .cfa: $rsp 96 +
STACK CFI INIT 2725c 95 .cfa: $rsp 8 + .ra: .cfa 8 - ^
STACK CFI 2725c .cfa: $rsp 96 +
STACK CFI INIT 272f4 48 .cfa: $rsp 8 + .ra: .cfa 8 - ^
STACK CFI 272f4 .cfa: $rsp 48 +
STACK CFI INIT 2733c 46 .cfa: $rsp 8 + .ra: .cfa 8 - ^
STACK CFI 2733c .cfa: $rsp 48 +
STACK CFI INIT 27384 46 .cfa: $rsp 8 + .ra: .cfa 8 - ^
STACK CFI 27384 .cfa: $rsp 48 +
STACK CFI INIT 273cc 51 .cfa: $rsp 8 + .ra: .cfa 8 - ^
STACK CFI 273cc .cfa: $rsp 48 +
STACK CFI INIT 27420 b6 .cfa: $rsp 8 + .ra: .cfa 8 - ^
STACK CFI 27420 .cfa: $rsp 80 +
STACK CFI INIT 274d8 39 .cfa: $rsp 8 + .ra: .cfa 8 - ^
STACK CFI 274d8 .cfa: $rsp 48 +
STACK CFI INIT 27514 82 .cfa: $rsp 8 + .ra: .cfa 8 - ^
STACK CFI 27514 .cfa: $rsp 64 +
STACK CFI INIT 27598 48 .cfa: $rsp 8 + .ra: .cfa 8 - ^
STACK CFI 27598 .cfa: $rsp 48 +
STACK CFI INIT 275e0 ab .cfa: $rsp 8 + .ra: .cfa 8 - ^
STACK CFI 275e0 .cfa: $rsp 80 +
STACK CFI INIT 2768c 61 .cfa: $rsp 8 + .ra: .cfa 8 - ^
STACK CFI 2768c .cfa: $rsp 48 +
STACK CFI INIT 276f0 51 .cfa: $rsp 8 + .ra: .cfa 8 - ^
STACK CFI 276f0 .cfa: $rsp 48 +
STACK CFI INIT 27744 61 .cfa: $rsp 8 + .ra: .cfa 8 - ^
STACK CFI 27744 .cfa: $rsp 48 +
STACK CFI INIT 277a8 56 .cfa: $rsp 8 + .ra: .cfa 8 - ^
STACK CFI 277a8 .cfa: $rsp 48 +
STACK CFI INIT 27800 dc .cfa: $rsp 8 + .ra: .cfa 8 - ^
STACK CFI 27800 .cfa: $rsp 96 +
STACK CFI INIT 278dc 70 .cfa: $rsp 8 + .ra: .cfa 8 - ^
STACK CFI 278dc .cfa: $rsp 64 +
STACK CFI INIT 2794c 50 .cfa: $rsp 8 + .ra: .cfa 8 - ^
STACK CFI 2794c .cfa: $rsp 48 +
STACK CFI INIT 2799c 5f .cfa: $rsp 8 + .ra: .cfa 8 - ^
STACK CFI 2799c .cfa: $rsp 48 +
STACK CFI INIT 279fc 71 .cfa: $rsp 8 + .ra: .cfa 8 - ^
STACK CFI 279fc .cfa: $rsp 64 +
STACK CFI INIT 27a70 71 .cfa: $rsp 8 + .ra: .cfa 8 - ^
STACK CFI 27a70 .cfa: $rsp 64 +
STACK CFI INIT 27ae4 40 .cfa: $rsp 8 + .ra: .cfa 8 - ^
STACK CFI 27ae4 .cfa: $rsp 48 +
STACK CFI INIT 27b24 33 .cfa: $rsp 8 + .ra: .cfa 8 - ^
STACK CFI 27b24 .cfa: $rsp 48 +
STACK CFI INIT 27b58 4f .cfa: $rsp 8 + .ra: .cfa 8 - ^
STACK CFI 27b58 .cfa: $rsp 48 +
STACK CFI INIT 27ba8 4e .cfa: $rsp 8 + .ra: .cfa 8 - ^
STACK CFI 27ba8 .cfa: $rsp 48 +
STACK CFI INIT 27bf8 4e .cfa: $rsp 8 + .ra: .cfa 8 - ^
STACK CFI 27bf8 .cfa: $rsp 48 +
STACK CFI INIT 27c48 4e .cfa: $rsp 8 + .ra: .cfa 8 - ^
STACK CFI 27c48 .cfa: $rsp 48 +
STACK CFI INIT 27c98 4e .cfa: $rsp 8 + .ra: .cfa 8 - ^
STACK CFI 27c98 .cfa: $rsp 48 +
STACK CFI INIT 27ce8 42 .cfa: $rsp 8 + .ra: .cfa 8 - ^
STACK CFI 27ce8 .cfa: $rsp 48 +
STACK CFI INIT 27d2c 6d .cfa: $rsp 8 + .ra: .cfa 8 - ^
STACK CFI 27d2c .cfa: $rsp 48 +
STACK CFI INIT 27d9c 2e .cfa: $rsp 8 + .ra: .cfa 8 - ^
STACK CFI 27d9c .cfa: $rsp 48 +
STACK CFI INIT 27dcc 15a .cfa: $rsp 8 + .ra: .cfa 8 - ^
STACK CFI 27dcc .cfa: $rsp 48 +
STACK CFI INIT 27f28 2e .cfa: $rsp 8 + .ra: .cfa 8 - ^
STACK CFI 27f28 .cfa: $rsp 48 +
STACK CFI INIT 27f58 78 .cfa: $rsp 8 + .ra: .cfa 8 - ^
STACK CFI 27f58 .cfa: $rsp 48 +
STACK CFI INIT 27fd0 c6 .cfa: $rsp 8 + .ra: .cfa 8 - ^
STACK CFI 27fd0 .cfa: $rsp 96 +
STACK CFI INIT 280a0 73 .cfa: $rsp 8 + .ra: .cfa 8 - ^
STACK CFI 280a0 .cfa: $rsp 48 +
STACK CFI INIT 28114 fe .cfa: $rsp 8 + .ra: .cfa 8 - ^
STACK CFI 28114 .cfa: $rsp 48 +
STACK CFI INIT 28228 119 .cfa: $rsp 8 + .ra: .cfa 8 - ^
STACK CFI 28228 .cfa: $rsp 64 +
STACK CFI INIT 28344 137 .cfa: $rsp 8 + .ra: .cfa 8 - ^
STACK CFI 28344 .cfa: $rsp 64 +
STACK CFI INIT 2847c 1d6 .cfa: $rsp 8 + .ra: .cfa 8 - ^
STACK CFI 2847c .cfa: $rsp 80 +
STACK CFI INIT 28ab4 4d .cfa: $rsp 8 + .ra: .cfa 8 - ^
STACK CFI 28ab4 .cfa: $rsp 48 +
STACK CFI INIT 28ba0 53 .cfa: $rsp 8 + .ra: .cfa 8 - ^
STACK CFI 28ba0 .cfa: $rsp 48 +
STACK CFI INIT 28bfc 26 .cfa: $rsp 8 + .ra: .cfa 8 - ^
STACK CFI 28bfc .cfa: $rsp 48 +
STACK CFI INIT 28c44 79 .cfa: $rsp 8 + .ra: .cfa 8 - ^
STACK CFI 28c44 .cfa: $rsp 48 +
STACK CFI INIT 28cc0 48 .cfa: $rsp 8 + .ra: .cfa 8 - ^
STACK CFI 28cc0 .cfa: $rsp 48 +
STACK CFI INIT 28d10 37 .cfa: $rsp 8 + .ra: .cfa 8 - ^
STACK CFI 28d10 .cfa: $rsp 48 +
STACK CFI INIT 28d80 1b .cfa: $rsp 8 + .ra: .cfa 8 - ^
STACK CFI 28d80 .cfa: $rsp 48 +
STACK CFI INIT 28dc0 1c .cfa: $rsp 8 + .ra: .cfa 8 - ^
STACK CFI 28dc0 .cfa: $rsp 48 +
STACK CFI INIT 28e10 39 .cfa: $rsp 8 + .ra: .cfa 8 - ^
STACK CFI 28e10 .cfa: $rsp 48 +
STACK CFI INIT 28e50 22 .cfa: $rsp 8 + .ra: .cfa 8 - ^
STACK CFI 28e50 .cfa: $rsp 48 +
STACK CFI INIT 28e74 d4 .cfa: $rsp 8 + .ra: .cfa 8 - ^
STACK CFI 28e74 .cfa: $rsp 48 +
STACK CFI INIT 28f48 a7 .cfa: $rsp 8 + .ra: .cfa 8 - ^
STACK CFI 28f48 .cfa: $rsp 48 +
STACK CFI INIT 28ff0 cc .cfa: $rsp 8 + .ra: .cfa 8 - ^
STACK CFI 28ff0 .cfa: $rsp 48 +
STACK CFI INIT 290bc 41 .cfa: $rsp 8 + .ra: .cfa 8 - ^
STACK CFI 290bc .cfa: $rsp 48 +
STACK CFI INIT 29100 1a .cfa: $rsp 8 + .ra: .cfa 8 - ^
STACK CFI 29100 .cfa: $rsp 48 +
STACK CFI INIT 29130 20 .cfa: $rsp 8 + .ra: .cfa 8 - ^
STACK CFI 29130 .cfa: $rsp 48 +
STACK CFI INIT 29150 67 .cfa: $rsp 8 + .ra: .cfa 8 - ^
STACK CFI 29150 .cfa: $rsp 48 +
STACK CFI INIT 291c0 c5 .cfa: $rsp 8 + .ra: .cfa 8 - ^
STACK CFI 291c0 .cfa: $rsp 80 +
STACK CFI INIT 292a4 26 .cfa: $rsp 8 + .ra: .cfa 8 - ^
STACK CFI 292a4 .cfa: $rsp 48 +
STACK CFI INIT 292f0 26 .cfa: $rsp 8 + .ra: .cfa 8 - ^
STACK CFI 292f0 .cfa: $rsp 48 +
STACK CFI INIT 29318 cd .cfa: $rsp 8 + .ra: .cfa 8 - ^
STACK CFI 29318 .cfa: $rsp 96 +
STACK CFI INIT 293e8 f5 .cfa: $rsp 8 + .ra: .cfa 8 - ^
STACK CFI 293e8 .cfa: $rsp 64 +
STACK CFI INIT 294e0 38 .cfa: $rsp 8 + .ra: .cfa 8 - ^
STACK CFI 294e0 .cfa: $rsp 48 +
STACK CFI INIT 29520 26 .cfa: $rsp 8 + .ra: .cfa 8 - ^
STACK CFI 29520 .cfa: $rsp 48 +
STACK CFI INIT 29560 26 .cfa: $rsp 8 + .ra: .cfa 8 - ^
STACK CFI 29560 .cfa: $rsp 48 +
STACK CFI INIT 29588 f5 .cfa: $rsp 8 + .ra: .cfa 8 - ^
STACK CFI 29588 .cfa: $rsp 80 +
STACK CFI INIT 29680 20 .cfa: $rsp 8 + .ra: .cfa 8 - ^
STACK CFI 29680 .cfa: $rsp 48 +
STACK CFI INIT 296a0 9f .cfa: $rsp 8 + .ra: .cfa 8 - ^
STACK CFI 296a0 .cfa: $rsp 48 +
STACK CFI INIT 29748 1b .cfa: $rsp 8 + .ra: .cfa 8 - ^
STACK CFI 29748 .cfa: $rsp 48 +
STACK CFI INIT 2976c 1b .cfa: $rsp 8 + .ra: .cfa 8 - ^
STACK CFI 2976c .cfa: $rsp 48 +
STACK CFI INIT 2979c c8 .cfa: $rsp 8 + .ra: .cfa 8 - ^
STACK CFI 2979c .cfa: $rsp 48 +
STACK CFI INIT 2988c 3f .cfa: $rsp 8 + .ra: .cfa 8 - ^
STACK CFI 2988c .cfa: $rsp 48 +
STACK CFI INIT 298ec 45 .cfa: $rsp 8 + .ra: .cfa 8 - ^
STACK CFI 298ec .cfa: $rsp 48 +
STACK CFI INIT 29954 5f .cfa: $rsp 8 + .ra: .cfa 8 - ^
STACK CFI 29954 .cfa: $rsp 48 +
STACK CFI INIT 299d4 3d .cfa: $rsp 8 + .ra: .cfa 8 - ^
STACK CFI 299d4 .cfa: $rsp 48 +
STACK CFI INIT 29a20 3b .cfa: $rsp 8 + .ra: .cfa 8 - ^
STACK CFI 29a20 .cfa: $rsp 48 +
STACK CFI INIT 29a60 40 .cfa: $rsp 8 + .ra: .cfa 8 - ^
STACK CFI 29a60 .cfa: $rsp 48 +
STACK CFI INIT 29abc ed .cfa: $rsp 8 + .ra: .cfa 8 - ^
STACK CFI 29abc .cfa: $rsp 160 +
STACK CFI INIT 29bac 10c .cfa: $rsp 8 + .ra: .cfa 8 - ^
STACK CFI 29bac .cfa: $rsp 48 +
STACK CFI INIT 29cd8 36 .cfa: $rsp 8 + .ra: .cfa 8 - ^
STACK CFI 29cd8 .cfa: $rsp 48 +
STACK CFI INIT 29d10 36 .cfa: $rsp 8 + .ra: .cfa 8 - ^
STACK CFI 29d10 .cfa: $rsp 48 +
STACK CFI INIT 29d60 25 .cfa: $rsp 8 + .ra: .cfa 8 - ^
STACK CFI 29d60 .cfa: $rsp 48 +
STACK CFI INIT 29d94 87 .cfa: $rsp 8 + .ra: .cfa 8 - ^
STACK CFI 29d94 .cfa: $rsp 48 +
STACK CFI INIT 29e1c 1c .cfa: $rsp 8 + .ra: .cfa 8 - ^
STACK CFI 29e1c .cfa: $rsp 48 +
STACK CFI INIT 29e40 60 .cfa: $rsp 8 + .ra: .cfa 8 - ^
STACK CFI 29e40 .cfa: $rsp 48 +
STACK CFI INIT 29eb0 25 .cfa: $rsp 8 + .ra: .cfa 8 - ^
STACK CFI 29eb0 .cfa: $rsp 48 +
STACK CFI INIT 29ed8 3a .cfa: $rsp 8 + .ra: .cfa 8 - ^
STACK CFI 29ed8 .cfa: $rsp 80 +
STACK CFI INIT 29f20 27 .cfa: $rsp 8 + .ra: .cfa 8 - ^
STACK CFI 29f20 .cfa: $rsp 8 +
STACK CFI INIT 29f4c 2b9 .cfa: $rsp 8 + .ra: .cfa 8 - ^
STACK CFI 29f4c .cfa: $rsp 128 +
STACK CFI INIT 2a208 7d .cfa: $rsp 8 + .ra: .cfa 8 - ^
STACK CFI 2a208 .cfa: $rsp 80 +
STACK CFI INIT 2a288 90 .cfa: $rsp 8 + .ra: .cfa 8 - ^
STACK CFI 2a288 .cfa: $rsp 48 +
STACK CFI INIT 2a318 b8 .cfa: $rsp 8 + .ra: .cfa 8 - ^
STACK CFI 2a318 .cfa: $rsp 48 +
STACK CFI INIT 2a3d0 1c2 .cfa: $rsp 8 + .ra: .cfa 8 - ^
STACK CFI 2a3d0 .cfa: $rsp 96 +
STACK CFI INIT 2a59c 1b .cfa: $rsp 8 + .ra: .cfa 8 - ^
STACK CFI 2a59c .cfa: $rsp 48 +
STACK CFI INIT 2a5c0 1b .cfa: $rsp 8 + .ra: .cfa 8 - ^
STACK CFI 2a5c0 .cfa: $rsp 48 +
STACK CFI INIT 2a5f0 1a0 .cfa: $rsp 8 + .ra: .cfa 8 - ^
STACK CFI 2a5f0 .cfa: $rsp 48 +
STACK CFI INIT 2a79c 26 .cfa: $rsp 8 + .ra: .cfa 8 - ^
STACK CFI 2a79c .cfa: $rsp 48 +
STACK CFI INIT 2a800 1e3 .cfa: $rsp 8 + .ra: .cfa 8 - ^
STACK CFI 2a800 .cfa: $rsp 1936 +
STACK CFI INIT 2aa14 1ba .cfa: $rsp 8 + .ra: .cfa 8 - ^
STACK CFI 2aa14 .cfa: $rsp 48 +
STACK CFI INIT 2abd0 3d .cfa: $rsp 8 + .ra: .cfa 8 - ^
STACK CFI 2abd0 .cfa: $rsp 48 +
STACK CFI INIT 2ac18 80 .cfa: $rsp 8 + .ra: .cfa 8 - ^
STACK CFI 2ac18 .cfa: $rsp 48 +
STACK CFI INIT 2ac98 3c .cfa: $rsp 8 + .ra: .cfa 8 - ^
STACK CFI 2ac98 .cfa: $rsp 48 +
STACK CFI INIT 2acd4 1e .cfa: $rsp 8 + .ra: .cfa 8 - ^
STACK CFI 2acd4 .cfa: $rsp 64 +
STACK CFI INIT 2acf4 2f .cfa: $rsp 8 + .ra: .cfa 8 - ^
STACK CFI 2acf4 .cfa: $rsp 64 +
STACK CFI INIT 2ad24 47 .cfa: $rsp 8 + .ra: .cfa 8 - ^
STACK CFI 2ad24 .cfa: $rsp 48 +
STACK CFI INIT 2adb8 25 .cfa: $rsp 8 + .ra: .cfa 8 - ^
STACK CFI 2adb8 .cfa: $rsp 48 +
STACK CFI INIT 2ade0 1a .cfa: $rsp 8 + .ra: .cfa 8 - ^
STACK CFI 2ade0 .cfa: $rsp 48 +
STACK CFI INIT 2adfc 15b .cfa: $rsp 8 + .ra: .cfa 8 - ^
STACK CFI 2adfc .cfa: $rsp 1552 +
STACK CFI INIT 2af68 6d .cfa: $rsp 8 + .ra: .cfa 8 - ^
STACK CFI 2af68 .cfa: $rsp 80 +
STACK CFI INIT 2afe0 ae .cfa: $rsp 8 + .ra: .cfa 8 - ^
STACK CFI 2afe0 .cfa: $rsp 64 +
STACK CFI INIT 2b0c8 2f .cfa: $rsp 8 + .ra: .cfa 8 - ^
STACK CFI 2b0c8 .cfa: $rsp 48 +
STACK CFI INIT 2b100 34 .cfa: $rsp 8 + .ra: .cfa 8 - ^
STACK CFI 2b100 .cfa: $rsp 48 +
STACK CFI INIT 2b134 59 .cfa: $rsp 8 + .ra: .cfa 8 - ^
STACK CFI 2b134 .cfa: $rsp 48 +
STACK CFI INIT 2b194 27 .cfa: $rsp 8 + .ra: .cfa 8 - ^
STACK CFI 2b194 .cfa: $rsp 8 +
STACK CFI INIT 2b228 2e .cfa: $rsp 8 + .ra: .cfa 8 - ^
STACK CFI 2b228 .cfa: $rsp 48 +
STACK CFI INIT 2b258 12 .cfa: $rsp 8 + .ra: .cfa 8 - ^
STACK CFI 2b258 .cfa: $rsp 48 +
STACK CFI INIT 2b26c 12 .cfa: $rsp 8 + .ra: .cfa 8 - ^
STACK CFI 2b26c .cfa: $rsp 48 +
STACK CFI INIT 2b280 1da .cfa: $rsp 8 + .ra: .cfa 8 - ^
STACK CFI 2b280 .cfa: $rsp 64 +
STACK CFI INIT 2b45c 26c .cfa: $rsp 8 + .ra: .cfa 8 - ^
STACK CFI 2b45c .cfa: $rsp 112 +
STACK CFI INIT 2b6cc 27 .cfa: $rsp 8 + .ra: .cfa 8 - ^
STACK CFI 2b6cc .cfa: $rsp 8 +
STACK CFI INIT 2b758 27 .cfa: $rsp 8 + .ra: .cfa 8 - ^
STACK CFI 2b758 .cfa: $rsp 48 +
STACK CFI INIT 2b7b0 92 .cfa: $rsp 8 + .ra: .cfa 8 - ^
STACK CFI 2b7b0 .cfa: $rsp 48 +
STACK CFI INIT 2b89c 26 .cfa: $rsp 8 + .ra: .cfa 8 - ^
STACK CFI 2b89c .cfa: $rsp 48 +
STACK CFI INIT 2b8e4 45 .cfa: $rsp 8 + .ra: .cfa 8 - ^
STACK CFI 2b8e4 .cfa: $rsp 48 +
STACK CFI INIT 2b9b0 27 .cfa: $rsp 8 + .ra: .cfa 8 - ^
STACK CFI 2b9b0 .cfa: $rsp 8 +
STACK CFI INIT 2ba10 66 .cfa: $rsp 8 + .ra: .cfa 8 - ^
STACK CFI 2ba10 .cfa: $rsp 64 +
STACK CFI INIT 2ba80 4b .cfa: $rsp 8 + .ra: .cfa 8 - ^
STACK CFI 2ba80 .cfa: $rsp 48 +
STACK CFI INIT 2bb0c 7a .cfa: $rsp 8 + .ra: .cfa 8 - ^
STACK CFI 2bb0c .cfa: $rsp 48 +
STACK CFI INIT 2bc04 5d .cfa: $rsp 8 + .ra: .cfa 8 - ^
STACK CFI 2bc04 .cfa: $rsp 80 +
STACK CFI INIT 2bc64 ae .cfa: $rsp 8 + .ra: .cfa 8 - ^
STACK CFI 2bc64 .cfa: $rsp 112 +
STACK CFI INIT 2bd24 78 .cfa: $rsp 8 + .ra: .cfa 8 - ^
STACK CFI 2bd24 .cfa: $rsp 48 +
STACK CFI INIT 2bdb4 28 .cfa: $rsp 8 + .ra: .cfa 8 - ^
STACK CFI 2bdb4 .cfa: $rsp 48 +
STACK CFI INIT 2bddc 26 .cfa: $rsp 8 + .ra: .cfa 8 - ^
STACK CFI 2bddc .cfa: $rsp 48 +
STACK CFI INIT 2be18 28 .cfa: $rsp 8 + .ra: .cfa 8 - ^
STACK CFI 2be18 .cfa: $rsp 48 +
STACK CFI INIT 2be68 9a .cfa: $rsp 8 + .ra: .cfa 8 - ^
STACK CFI 2be68 .cfa: $rsp 48 +
STACK CFI INIT 2bf24 e0 .cfa: $rsp 8 + .ra: .cfa 8 - ^
STACK CFI 2bf24 .cfa: $rsp 128 +
STACK CFI INIT 2c02c 40 .cfa: $rsp 8 + .ra: .cfa 8 - ^
STACK CFI 2c02c .cfa: $rsp 48 +
STACK CFI INIT 2c06c 30 .cfa: $rsp 8 + .ra: .cfa 8 - ^
STACK CFI 2c06c .cfa: $rsp 48 +
STACK CFI INIT 2c0b0 47 .cfa: $rsp 8 + .ra: .cfa 8 - ^
STACK CFI 2c0b0 .cfa: $rsp 48 +
STACK CFI INIT 2c110 11f .cfa: $rsp 8 + .ra: .cfa 8 - ^
STACK CFI 2c110 .cfa: $rsp 48 +
STACK CFI INIT 2c238 1b .cfa: $rsp 8 + .ra: .cfa 8 - ^
STACK CFI 2c238 .cfa: $rsp 48 +
STACK CFI INIT 2c25c 1b .cfa: $rsp 8 + .ra: .cfa 8 - ^
STACK CFI 2c25c .cfa: $rsp 48 +
STACK CFI INIT 2c280 5b .cfa: $rsp 8 + .ra: .cfa 8 - ^
STACK CFI 2c280 .cfa: $rsp 48 +
STACK CFI INIT 2c2f0 cf .cfa: $rsp 8 + .ra: .cfa 8 - ^
STACK CFI 2c2f0 .cfa: $rsp 48 +
STACK CFI INIT 2c3c0 39 .cfa: $rsp 8 + .ra: .cfa 8 - ^
STACK CFI 2c3c0 .cfa: $rsp 48 +
STACK CFI INIT 2c3fc 20 .cfa: $rsp 8 + .ra: .cfa 8 - ^
STACK CFI 2c3fc .cfa: $rsp 48 +
STACK CFI INIT 2c41c 3a .cfa: $rsp 8 + .ra: .cfa 8 - ^
STACK CFI 2c41c .cfa: $rsp 48 +
STACK CFI INIT 2c458 3b .cfa: $rsp 8 + .ra: .cfa 8 - ^
STACK CFI 2c458 .cfa: $rsp 48 +
STACK CFI INIT 2c494 20 .cfa: $rsp 8 + .ra: .cfa 8 - ^
STACK CFI 2c494 .cfa: $rsp 48 +
STACK CFI INIT 2c4b4 3a .cfa: $rsp 8 + .ra: .cfa 8 - ^
STACK CFI 2c4b4 .cfa: $rsp 48 +
STACK CFI INIT 2c4f0 3b .cfa: $rsp 8 + .ra: .cfa 8 - ^
STACK CFI 2c4f0 .cfa: $rsp 48 +
STACK CFI INIT 2c52c 4e .cfa: $rsp 8 + .ra: .cfa 8 - ^
STACK CFI 2c52c .cfa: $rsp 48 +
STACK CFI INIT 2c5c4 5e .cfa: $rsp 8 + .ra: .cfa 8 - ^
STACK CFI 2c5c4 .cfa: $rsp 48 +
STACK CFI INIT 2c664 61 .cfa: $rsp 8 + .ra: .cfa 8 - ^
STACK CFI 2c664 .cfa: $rsp 48 +
STACK CFI INIT 2c6c8 76 .cfa: $rsp 8 + .ra: .cfa 8 - ^
STACK CFI 2c6c8 .cfa: $rsp 48 +
STACK CFI INIT 2c740 2a .cfa: $rsp 8 + .ra: .cfa 8 - ^
STACK CFI 2c740 .cfa: $rsp 64 +
STACK CFI INIT 2c76c 2e .cfa: $rsp 8 + .ra: .cfa 8 - ^
STACK CFI 2c76c .cfa: $rsp 64 +
STACK CFI INIT 2c79c 2a .cfa: $rsp 8 + .ra: .cfa 8 - ^
STACK CFI 2c79c .cfa: $rsp 64 +
STACK CFI INIT 2c7c8 2e .cfa: $rsp 8 + .ra: .cfa 8 - ^
STACK CFI 2c7c8 .cfa: $rsp 64 +
STACK CFI INIT 2c7f8 2a .cfa: $rsp 8 + .ra: .cfa 8 - ^
STACK CFI 2c7f8 .cfa: $rsp 64 +
STACK CFI INIT 2c824 2e .cfa: $rsp 8 + .ra: .cfa 8 - ^
STACK CFI 2c824 .cfa: $rsp 64 +
STACK CFI INIT 2c854 2a .cfa: $rsp 8 + .ra: .cfa 8 - ^
STACK CFI 2c854 .cfa: $rsp 64 +
STACK CFI INIT 2c880 2e .cfa: $rsp 8 + .ra: .cfa 8 - ^
STACK CFI 2c880 .cfa: $rsp 64 +
STACK CFI INIT 2c8b0 2a .cfa: $rsp 8 + .ra: .cfa 8 - ^
STACK CFI 2c8b0 .cfa: $rsp 64 +
STACK CFI INIT 2c8dc 2e .cfa: $rsp 8 + .ra: .cfa 8 - ^
STACK CFI 2c8dc .cfa: $rsp 64 +
STACK CFI INIT 2c90c 2a .cfa: $rsp 8 + .ra: .cfa 8 - ^
STACK CFI 2c90c .cfa: $rsp 64 +
STACK CFI INIT 2c938 2e .cfa: $rsp 8 + .ra: .cfa 8 - ^
STACK CFI 2c938 .cfa: $rsp 64 +
STACK CFI INIT 2c968 2a .cfa: $rsp 8 + .ra: .cfa 8 - ^
STACK CFI 2c968 .cfa: $rsp 64 +
STACK CFI INIT 2c994 2e .cfa: $rsp 8 + .ra: .cfa 8 - ^
STACK CFI 2c994 .cfa: $rsp 64 +
STACK CFI INIT 2c9c4 2a .cfa: $rsp 8 + .ra: .cfa 8 - ^
STACK CFI 2c9c4 .cfa: $rsp 64 +
STACK CFI INIT 2c9f0 2e .cfa: $rsp 8 + .ra: .cfa 8 - ^
STACK CFI 2c9f0 .cfa: $rsp 64 +
STACK CFI INIT 2ca20 2a .cfa: $rsp 8 + .ra: .cfa 8 - ^
STACK CFI 2ca20 .cfa: $rsp 64 +
STACK CFI INIT 2ca4c 2e .cfa: $rsp 8 + .ra: .cfa 8 - ^
STACK CFI 2ca4c .cfa: $rsp 64 +
STACK CFI INIT 2ca7c 2a .cfa: $rsp 8 + .ra: .cfa 8 - ^
STACK CFI 2ca7c .cfa: $rsp 64 +
STACK CFI INIT 2caa8 2e .cfa: $rsp 8 + .ra: .cfa 8 - ^
STACK CFI 2caa8 .cfa: $rsp 64 +
STACK CFI INIT 2cad8 2a .cfa: $rsp 8 + .ra: .cfa 8 - ^
STACK CFI 2cad8 .cfa: $rsp 64 +
STACK CFI INIT 2cb04 2e .cfa: $rsp 8 + .ra: .cfa 8 - ^
STACK CFI 2cb04 .cfa: $rsp 64 +
STACK CFI INIT 2cb34 2a .cfa: $rsp 8 + .ra: .cfa 8 - ^
STACK CFI 2cb34 .cfa: $rsp 64 +
STACK CFI INIT 2cb60 2e .cfa: $rsp 8 + .ra: .cfa 8 - ^
STACK CFI 2cb60 .cfa: $rsp 64 +
STACK CFI INIT 2cf30 1e .cfa: $rsp 8 + .ra: .cfa 8 - ^
STACK CFI 2cf30 .cfa: $rsp 48 +
STACK CFI INIT 2cf50 18 .cfa: $rsp 8 + .ra: .cfa 8 - ^
STACK CFI 2cf50 .cfa: $rsp 48 +
STACK CFI INIT 2cf90 2a .cfa: $rsp 8 + .ra: .cfa 8 - ^
STACK CFI 2cf90 .cfa: $rsp 64 +
STACK CFI INIT 2cfbc 2e .cfa: $rsp 8 + .ra: .cfa 8 - ^
STACK CFI 2cfbc .cfa: $rsp 64 +
STACK CFI INIT 2cfec 2a .cfa: $rsp 8 + .ra: .cfa 8 - ^
STACK CFI 2cfec .cfa: $rsp 64 +
STACK CFI INIT 2d018 2e .cfa: $rsp 8 + .ra: .cfa 8 - ^
STACK CFI 2d018 .cfa: $rsp 64 +
STACK CFI INIT 2d048 2a .cfa: $rsp 8 + .ra: .cfa 8 - ^
STACK CFI 2d048 .cfa: $rsp 64 +
STACK CFI INIT 2d074 2e .cfa: $rsp 8 + .ra: .cfa 8 - ^
STACK CFI 2d074 .cfa: $rsp 64 +
STACK CFI INIT 2d0a4 2a .cfa: $rsp 8 + .ra: .cfa 8 - ^
STACK CFI 2d0a4 .cfa: $rsp 64 +
STACK CFI INIT 2d0d0 2e .cfa: $rsp 8 + .ra: .cfa 8 - ^
STACK CFI 2d0d0 .cfa: $rsp 64 +
STACK CFI INIT 2d100 2e .cfa: $rsp 8 + .ra: .cfa 8 - ^
STACK CFI 2d100 .cfa: $rsp 64 +
STACK CFI INIT 2d130 2e .cfa: $rsp 8 + .ra: .cfa 8 - ^
STACK CFI 2d130 .cfa: $rsp 64 +
STACK CFI INIT 2d160 2e .cfa: $rsp 8 + .ra: .cfa 8 - ^
STACK CFI 2d160 .cfa: $rsp 64 +
STACK CFI INIT 2d190 2e .cfa: $rsp 8 + .ra: .cfa 8 - ^
STACK CFI 2d190 .cfa: $rsp 64 +
STACK CFI INIT 2d1c0 2e .cfa: $rsp 8 + .ra: .cfa 8 - ^
STACK CFI 2d1c0 .cfa: $rsp 64 +
STACK CFI INIT 2d1f0 2e .cfa: $rsp 8 + .ra: .cfa 8 - ^
STACK CFI 2d1f0 .cfa: $rsp 64 +
STACK CFI INIT 2d220 2e .cfa: $rsp 8 + .ra: .cfa 8 - ^
STACK CFI 2d220 .cfa: $rsp 64 +
STACK CFI INIT 2d250 2e .cfa: $rsp 8 + .ra: .cfa 8 - ^
STACK CFI 2d250 .cfa: $rsp 64 +
STACK CFI INIT 2d2b8 25 .cfa: $rsp 8 + .ra: .cfa 8 - ^
STACK CFI 2d2b8 .cfa: $rsp 48 +
STACK CFI INIT 2d2ec 2a .cfa: $rsp 8 + .ra: .cfa 8 - ^
STACK CFI 2d2ec .cfa: $rsp 48 +
STACK CFI INIT 2d324 305 .cfa: $rsp 8 + .ra: .cfa 8 - ^
STACK CFI 2d324 .cfa: $rsp 96 +
STACK CFI INIT 2d62c 2f0 .cfa: $rsp 8 + .ra: .cfa 8 - ^
STACK CFI 2d62c .cfa: $rsp 96 +
STACK CFI INIT 2d954 25 .cfa: $rsp 8 + .ra: .cfa 8 - ^
STACK CFI 2d954 .cfa: $rsp 48 +
STACK CFI INIT 2d98c 2d .cfa: $rsp 8 + .ra: .cfa 8 - ^
STACK CFI 2d98c .cfa: $rsp 48 +
STACK CFI INIT 2d9c8 6a8 .cfa: $rsp 8 + .ra: .cfa 8 - ^
STACK CFI 2d9c8 .cfa: $rsp 112 +
STACK CFI INIT 2e070 758 .cfa: $rsp 8 + .ra: .cfa 8 - ^
STACK CFI 2e070 .cfa: $rsp 208 +
STACK CFI INIT 2e824 17e .cfa: $rsp 8 + .ra: .cfa 8 - ^
STACK CFI 2e824 .cfa: $rsp 96 +
STACK CFI INIT 2e9a4 4d .cfa: $rsp 8 + .ra: .cfa 8 - ^
STACK CFI 2e9a4 .cfa: $rsp 64 +
STACK CFI INIT 2e9f4 72 .cfa: $rsp 8 + .ra: .cfa 8 - ^
STACK CFI 2e9f4 .cfa: $rsp 96 +
STACK CFI INIT 2ea68 14 .cfa: $rsp 8 + .ra: .cfa 8 - ^
STACK CFI 2ea68 .cfa: $rsp 64 +
STACK CFI INIT 2ea7c 19c .cfa: $rsp 8 + .ra: .cfa 8 - ^
STACK CFI 2ea7c .cfa: $rsp 128 +
STACK CFI INIT 2f97c 31 .cfa: $rsp 8 + .ra: .cfa 8 - ^
STACK CFI 2f97c .cfa: $rsp 48 +
STACK CFI INIT 2f9b0 31 .cfa: $rsp 8 + .ra: .cfa 8 - ^
STACK CFI 2f9b0 .cfa: $rsp 48 +
STACK CFI INIT 2fa50 304 .cfa: $rsp 8 + .ra: .cfa 8 - ^
STACK CFI 2fa50 .cfa: $rsp 112 +
STACK CFI INIT 2fd54 30 .cfa: $rsp 8 + .ra: .cfa 8 - ^
STACK CFI 2fd54 .cfa: $rsp 48 +
STACK CFI INIT 2fd84 a5 .cfa: $rsp 8 + .ra: .cfa 8 - ^
STACK CFI 2fd84 .cfa: $rsp 64 +
STACK CFI INIT 2fe2c 1d2 .cfa: $rsp 8 + .ra: .cfa 8 - ^
STACK CFI 2fe2c .cfa: $rsp 96 +
STACK CFI INIT 30000 db .cfa: $rsp 8 + .ra: .cfa 8 - ^
STACK CFI 30000 .cfa: $rsp 96 +
STACK CFI INIT 300dc 36d .cfa: $rsp 8 + .ra: .cfa 8 - ^
STACK CFI 300dc .cfa: $rsp 160 +
STACK CFI INIT 3044c 143 .cfa: $rsp 8 + .ra: .cfa 8 - ^
STACK CFI 3044c .cfa: $rsp 80 +
STACK CFI INIT 30590 a6 .cfa: $rsp 8 + .ra: .cfa 8 - ^
STACK CFI 30590 .cfa: $rsp 80 +
STACK CFI INIT 30638 132 .cfa: $rsp 8 + .ra: .cfa 8 - ^
STACK CFI 30638 .cfa: $rsp 96 +
STACK CFI INIT 3076c 5e .cfa: $rsp 8 + .ra: .cfa 8 - ^
STACK CFI 3076c .cfa: $rsp 48 +
STACK CFI INIT 307cc 23 .cfa: $rsp 8 + .ra: .cfa 8 - ^
STACK CFI 307cc .cfa: $rsp 48 +
STACK CFI INIT 30800 17c .cfa: $rsp 8 + .ra: .cfa 8 - ^
STACK CFI 30800 .cfa: $rsp 96 +
STACK CFI INIT 309a0 26 .cfa: $rsp 8 + .ra: .cfa 8 - ^
STACK CFI 309a0 .cfa: $rsp 48 +
STACK CFI INIT 309d0 124 .cfa: $rsp 8 + .ra: .cfa 8 - ^
STACK CFI 309d0 .cfa: $rsp 64 +
STACK CFI INIT 30af4 21 .cfa: $rsp 8 + .ra: .cfa 8 - ^
STACK CFI 30af4 .cfa: $rsp 48 +
STACK CFI INIT 30b98 5b .cfa: $rsp 8 + .ra: .cfa 8 - ^
STACK CFI 30b98 .cfa: $rsp 16 +
STACK CFI INIT 30bf4 1d .cfa: $rsp 8 + .ra: .cfa 8 - ^
STACK CFI 30bf4 .cfa: $rsp 48 +
STACK CFI INIT 30c30 13 .cfa: $rsp 8 + .ra: .cfa 8 - ^
STACK CFI 30c30 .cfa: $rsp 24 +
STACK CFI INIT 30c50 3d5 .cfa: $rsp 8 + .ra: .cfa 8 - ^
STACK CFI 30c50 .cfa: $rsp 8 +
STACK CFI INIT 31054 82 .cfa: $rsp 8 + .ra: .cfa 8 - ^
STACK CFI 31054 .cfa: $rsp 64 +
STACK CFI INIT 310e4 69 .cfa: $rsp 8 + .ra: .cfa 8 - ^
STACK CFI 310e4 .cfa: $rsp 48 +
STACK CFI INIT 31150 bb .cfa: $rsp 8 + .ra: .cfa 8 - ^
STACK CFI 31150 .cfa: $rsp 80 +
STACK CFI INIT 3120c 76 .cfa: $rsp 8 + .ra: .cfa 8 - ^
STACK CFI 3120c .cfa: $rsp 352 +
STACK CFI INIT 31284 a2 .cfa: $rsp 8 + .ra: .cfa 8 - ^
STACK CFI 31284 .cfa: $rsp 48 +
STACK CFI INIT 31328 a1 .cfa: $rsp 8 + .ra: .cfa 8 - ^
STACK CFI 31328 .cfa: $rsp 112 +
STACK CFI INIT 313cc 148 .cfa: $rsp 8 + .ra: .cfa 8 - ^
STACK CFI 313cc .cfa: $rsp 64 +
STACK CFI INIT 31514 47f .cfa: $rsp 8 + .ra: .cfa 8 - ^
STACK CFI 31514 .cfa: $rsp 688 +
STACK CFI INIT 31994 65 .cfa: $rsp 8 + .ra: .cfa 8 - ^
STACK CFI 31994 .cfa: $rsp 96 +
STACK CFI INIT 319fc a2 .cfa: $rsp 8 + .ra: .cfa 8 - ^
STACK CFI 319fc .cfa: $rsp 64 +
STACK CFI INIT 31aa0 166 .cfa: $rsp 8 + .ra: .cfa 8 - ^
STACK CFI 31aa0 .cfa: $rsp 80 +
STACK CFI INIT 31c08 352 .cfa: $rsp 8 + .ra: .cfa 8 - ^
STACK CFI 31c08 .cfa: $rsp 880 +
STACK CFI INIT 31f5c 1ea .cfa: $rsp 8 + .ra: .cfa 8 - ^
STACK CFI 31f5c .cfa: $rsp 96 +
STACK CFI INIT 32148 296 .cfa: $rsp 8 + .ra: .cfa 8 - ^
STACK CFI 32148 .cfa: $rsp 592 +
STACK CFI INIT 323e0 2e .cfa: $rsp 8 + .ra: .cfa 8 - ^
STACK CFI 323e0 .cfa: $rsp 48 +
STACK CFI INIT 32410 2c .cfa: $rsp 8 + .ra: .cfa 8 - ^
STACK CFI 32410 .cfa: $rsp 48 +
STACK CFI INIT 3243c 26 .cfa: $rsp 8 + .ra: .cfa 8 - ^
STACK CFI 3243c .cfa: $rsp 48 +
STACK CFI INIT 32464 4e .cfa: $rsp 8 + .ra: .cfa 8 - ^
STACK CFI 32464 .cfa: $rsp 48 +
STACK CFI INIT 324b4 26 .cfa: $rsp 8 + .ra: .cfa 8 - ^
STACK CFI 324b4 .cfa: $rsp 48 +
STACK CFI INIT 324e4 1b .cfa: $rsp 8 + .ra: .cfa 8 - ^
STACK CFI 324e4 .cfa: $rsp 48 +
STACK CFI INIT 32508 1b .cfa: $rsp 8 + .ra: .cfa 8 - ^
STACK CFI 32508 .cfa: $rsp 48 +
STACK CFI INIT 32550 26 .cfa: $rsp 8 + .ra: .cfa 8 - ^
STACK CFI 32550 .cfa: $rsp 48 +
STACK CFI INIT 32590 26 .cfa: $rsp 8 + .ra: .cfa 8 - ^
STACK CFI 32590 .cfa: $rsp 48 +
STACK CFI INIT 325b8 be .cfa: $rsp 8 + .ra: .cfa 8 - ^
STACK CFI 325b8 .cfa: $rsp 48 +
STACK CFI INIT 326ac 1b .cfa: $rsp 8 + .ra: .cfa 8 - ^
STACK CFI 326ac .cfa: $rsp 48 +
STACK CFI INIT 326d0 1b .cfa: $rsp 8 + .ra: .cfa 8 - ^
STACK CFI 326d0 .cfa: $rsp 48 +
STACK CFI INIT 32700 8e .cfa: $rsp 8 + .ra: .cfa 8 - ^
STACK CFI 32700 .cfa: $rsp 96 +
STACK CFI INIT 327b4 11d .cfa: $rsp 8 + .ra: .cfa 8 - ^
STACK CFI 327b4 .cfa: $rsp 48 +
STACK CFI INIT 328f8 26 .cfa: $rsp 8 + .ra: .cfa 8 - ^
STACK CFI 328f8 .cfa: $rsp 48 +
STACK CFI INIT 32974 72 .cfa: $rsp 8 + .ra: .cfa 8 - ^
STACK CFI 32974 .cfa: $rsp 48 +
STACK CFI INIT 329e8 6f .cfa: $rsp 8 + .ra: .cfa 8 - ^
STACK CFI 329e8 .cfa: $rsp 48 +
STACK CFI INIT 32a58 89 .cfa: $rsp 8 + .ra: .cfa 8 - ^
STACK CFI 32a58 .cfa: $rsp 64 +
STACK CFI INIT 32ae4 8f .cfa: $rsp 8 + .ra: .cfa 8 - ^
STACK CFI 32ae4 .cfa: $rsp 64 +
STACK CFI INIT 32b74 10a .cfa: $rsp 8 + .ra: .cfa 8 - ^
STACK CFI 32b74 .cfa: $rsp 64 +
STACK CFI INIT 32c80 47 .cfa: $rsp 8 + .ra: .cfa 8 - ^
STACK CFI 32c80 .cfa: $rsp 64 +
STACK CFI INIT 32cc8 1ff .cfa: $rsp 8 + .ra: .cfa 8 - ^
STACK CFI 32cc8 .cfa: $rsp 208 +
STACK CFI INIT 32ec8 34 .cfa: $rsp 8 + .ra: .cfa 8 - ^
STACK CFI 32ec8 .cfa: $rsp 48 +
STACK CFI INIT 32efc 59 .cfa: $rsp 8 + .ra: .cfa 8 - ^
STACK CFI 32efc .cfa: $rsp 64 +
STACK CFI INIT 32f58 48 .cfa: $rsp 8 + .ra: .cfa 8 - ^
STACK CFI 32f58 .cfa: $rsp 64 +
STACK CFI INIT 32fa0 77 .cfa: $rsp 8 + .ra: .cfa 8 - ^
STACK CFI 32fa0 .cfa: $rsp 64 +
STACK CFI INIT 33018 3f .cfa: $rsp 8 + .ra: .cfa 8 - ^
STACK CFI 33018 .cfa: $rsp 64 +
STACK CFI INIT 33088 6e .cfa: $rsp 8 + .ra: .cfa 8 - ^
STACK CFI 33088 .cfa: $rsp 64 +
STACK CFI INIT 33118 3e .cfa: $rsp 8 + .ra: .cfa 8 - ^
STACK CFI 33118 .cfa: $rsp 48 +
STACK CFI INIT 33178 41 .cfa: $rsp 8 + .ra: .cfa 8 - ^
STACK CFI 33178 .cfa: $rsp 48 +
STACK CFI INIT 331dc 13a .cfa: $rsp 8 + .ra: .cfa 8 - ^
STACK CFI 331dc .cfa: $rsp 48 +
STACK CFI INIT 3331c 29 .cfa: $rsp 8 + .ra: .cfa 8 - ^
STACK CFI 3331c .cfa: $rsp 48 +
STACK CFI INIT 33348 3c .cfa: $rsp 8 + .ra: .cfa 8 - ^
STACK CFI 33348 .cfa: $rsp 48 +
STACK CFI INIT 33384 51 .cfa: $rsp 8 + .ra: .cfa 8 - ^
STACK CFI 33384 .cfa: $rsp 48 +
STACK CFI INIT 333d8 51 .cfa: $rsp 8 + .ra: .cfa 8 - ^
STACK CFI 333d8 .cfa: $rsp 48 +
STACK CFI INIT 3342c 6c .cfa: $rsp 8 + .ra: .cfa 8 - ^
STACK CFI 3342c .cfa: $rsp 48 +
STACK CFI INIT 334ac 38 .cfa: $rsp 8 + .ra: .cfa 8 - ^
STACK CFI 334ac .cfa: $rsp 48 +
STACK CFI INIT 334f8 4c .cfa: $rsp 8 + .ra: .cfa 8 - ^
STACK CFI 334f8 .cfa: $rsp 48 +
STACK CFI INIT 33558 4c .cfa: $rsp 8 + .ra: .cfa 8 - ^
STACK CFI 33558 .cfa: $rsp 48 +
STACK CFI INIT 335d4 69 .cfa: $rsp 8 + .ra: .cfa 8 - ^
STACK CFI 335d4 .cfa: $rsp 48 +
STACK CFI INIT 33640 75 .cfa: $rsp 8 + .ra: .cfa 8 - ^
STACK CFI 33640 .cfa: $rsp 48 +
STACK CFI INIT 336d8 14 .cfa: $rsp 8 + .ra: .cfa 8 - ^
STACK CFI 336d8 .cfa: $rsp 48 +
STACK CFI INIT 336f4 24 .cfa: $rsp 8 + .ra: .cfa 8 - ^
STACK CFI 336f4 .cfa: $rsp 48 +
STACK CFI INIT 33720 49 .cfa: $rsp 8 + .ra: .cfa 8 - ^
STACK CFI 33720 .cfa: $rsp 80 +
STACK CFI INIT 3377c 9d .cfa: $rsp 8 + .ra: .cfa 8 - ^
STACK CFI 3377c .cfa: $rsp 80 +
STACK CFI INIT 33838 22 .cfa: $rsp 8 + .ra: .cfa 8 - ^
STACK CFI 33838 .cfa: $rsp 48 +
STACK CFI INIT 33878 5c .cfa: $rsp 8 + .ra: .cfa 8 - ^
STACK CFI 33878 .cfa: $rsp 48 +
STACK CFI INIT 338d4 31 .cfa: $rsp 8 + .ra: .cfa 8 - ^
STACK CFI 338d4 .cfa: $rsp 48 +
STACK CFI INIT 33908 22 .cfa: $rsp 8 + .ra: .cfa 8 - ^
STACK CFI 33908 .cfa: $rsp 48 +
STACK CFI INIT 3392c 176 .cfa: $rsp 8 + .ra: .cfa 8 - ^
STACK CFI 3392c .cfa: $rsp 64 +
STACK CFI INIT 33aa8 9d .cfa: $rsp 8 + .ra: .cfa 8 - ^
STACK CFI 33aa8 .cfa: $rsp 80 +
STACK CFI INIT 33b64 22 .cfa: $rsp 8 + .ra: .cfa 8 - ^
STACK CFI 33b64 .cfa: $rsp 48 +
STACK CFI INIT 33ba4 5b .cfa: $rsp 8 + .ra: .cfa 8 - ^
STACK CFI 33ba4 .cfa: $rsp 48 +
STACK CFI INIT 33c00 31 .cfa: $rsp 8 + .ra: .cfa 8 - ^
STACK CFI 33c00 .cfa: $rsp 48 +
STACK CFI INIT 33c34 22 .cfa: $rsp 8 + .ra: .cfa 8 - ^
STACK CFI 33c34 .cfa: $rsp 48 +
STACK CFI INIT 33c58 18a .cfa: $rsp 8 + .ra: .cfa 8 - ^
STACK CFI 33c58 .cfa: $rsp 80 +
STACK CFI INIT 33de8 209 .cfa: $rsp 8 + .ra: .cfa 8 - ^
STACK CFI 33de8 .cfa: $rsp 160 +
STACK CFI INIT 33ff4 3ca .cfa: $rsp 8 + .ra: .cfa 8 - ^
STACK CFI 33ff4 .cfa: $rsp 768 +
STACK CFI INIT 343c0 25 .cfa: $rsp 8 + .ra: .cfa 8 - ^
STACK CFI 343c0 .cfa: $rsp 64 +
STACK CFI INIT 343e8 179 .cfa: $rsp 8 + .ra: .cfa 8 - ^
STACK CFI 343e8 .cfa: $rsp 64 +
STACK CFI INIT 34564 2f .cfa: $rsp 8 + .ra: .cfa 8 - ^
STACK CFI 34564 .cfa: $rsp 80 +
STACK CFI INIT 34594 18b .cfa: $rsp 8 + .ra: .cfa 8 - ^
STACK CFI 34594 .cfa: $rsp 80 +
STACK CFI INIT 3474c de .cfa: $rsp 8 + .ra: .cfa 8 - ^
STACK CFI 3474c .cfa: $rsp 48 +
STACK CFI INIT 3482c 3d .cfa: $rsp 8 + .ra: .cfa 8 - ^
STACK CFI 3482c .cfa: $rsp 48 +
STACK CFI INIT 3486c c7 .cfa: $rsp 8 + .ra: .cfa 8 - ^
STACK CFI 3486c .cfa: $rsp 48 +
STACK CFI INIT 3493c 187 .cfa: $rsp 8 + .ra: .cfa 8 - ^
STACK CFI 3493c .cfa: $rsp 96 +
STACK CFI INIT 34ac4 30e .cfa: $rsp 8 + .ra: .cfa 8 - ^
STACK CFI 34ac4 .cfa: $rsp 880 +
STACK CFI INIT 34e14 de .cfa: $rsp 8 + .ra: .cfa 8 - ^
STACK CFI 34e14 .cfa: $rsp 48 +
STACK CFI INIT 34ef4 3d .cfa: $rsp 8 + .ra: .cfa 8 - ^
STACK CFI 34ef4 .cfa: $rsp 48 +
STACK CFI INIT 34f34 c7 .cfa: $rsp 8 + .ra: .cfa 8 - ^
STACK CFI 34f34 .cfa: $rsp 48 +
STACK CFI INIT 35004 189 .cfa: $rsp 8 + .ra: .cfa 8 - ^
STACK CFI 35004 .cfa: $rsp 96 +
STACK CFI INIT 35190 19b .cfa: $rsp 8 + .ra: .cfa 8 - ^
STACK CFI 35190 .cfa: $rsp 704 +
STACK CFI INIT 353a8 22 .cfa: $rsp 8 + .ra: .cfa 8 - ^
STACK CFI 353a8 .cfa: $rsp 48 +
STACK CFI INIT 353d0 22 .cfa: $rsp 8 + .ra: .cfa 8 - ^
STACK CFI 353d0 .cfa: $rsp 48 +
STACK CFI INIT 354bc 11e .cfa: $rsp 8 + .ra: .cfa 8 - ^
STACK CFI 354bc .cfa: $rsp 672 +
STACK CFI INIT 355dc 17 .cfa: $rsp 8 + .ra: .cfa 8 - ^
STACK CFI 355dc .cfa: $rsp 48 +
STACK CFI INIT 35644 30 .cfa: $rsp 8 + .ra: .cfa 8 - ^
STACK CFI 35644 .cfa: $rsp 48 +
STACK CFI INIT 35698 111 .cfa: $rsp 8 + .ra: .cfa 8 - ^
STACK CFI 35698 .cfa: $rsp 80 +
STACK CFI INIT 357ac 2f .cfa: $rsp 8 + .ra: .cfa 8 - ^
STACK CFI 357ac .cfa: $rsp 80 +
STACK CFI INIT 357dc 119 .cfa: $rsp 8 + .ra: .cfa 8 - ^
STACK CFI 357dc .cfa: $rsp 80 +
STACK CFI INIT 359e4 65 .cfa: $rsp 8 + .ra: .cfa 8 - ^
STACK CFI 359e4 .cfa: $rsp 80 +
STACK CFI INIT 35b7c 75 .cfa: $rsp 8 + .ra: .cfa 8 - ^
STACK CFI 35b7c .cfa: $rsp 80 +
STACK CFI INIT 35bf4 95 .cfa: $rsp 8 + .ra: .cfa 8 - ^
STACK CFI 35bf4 .cfa: $rsp 48 +
STACK CFI INIT 35d48 96 .cfa: $rsp 8 + .ra: .cfa 8 - ^
STACK CFI 35d48 .cfa: $rsp 16 +
STACK CFI INIT 35e24 101 .cfa: $rsp 8 + .ra: .cfa 8 - ^
STACK CFI 35e24 .cfa: $rsp 80 +
STACK CFI INIT 35f28 9f .cfa: $rsp 8 + .ra: .cfa 8 - ^
STACK CFI 35f28 .cfa: $rsp 48 +
STACK CFI INIT 35fc8 11 .cfa: $rsp 8 + .ra: .cfa 8 - ^
STACK CFI 35fc8 .cfa: $rsp 48 +
STACK CFI INIT 3600c 21 .cfa: $rsp 8 + .ra: .cfa 8 - ^
STACK CFI 3600c .cfa: $rsp 48 +
STACK CFI INIT 36034 21 .cfa: $rsp 8 + .ra: .cfa 8 - ^
STACK CFI 36034 .cfa: $rsp 48 +
STACK CFI INIT 360b8 320 .cfa: $rsp 8 + .ra: .cfa 8 - ^
STACK CFI 360b8 .cfa: $rsp 112 +
STACK CFI INIT 363d8 322 .cfa: $rsp 8 + .ra: .cfa 8 - ^
STACK CFI 363d8 .cfa: $rsp 96 +
STACK CFI INIT 36708 25 .cfa: $rsp 8 + .ra: .cfa 8 - ^
STACK CFI 36708 .cfa: $rsp 48 +
STACK CFI INIT 36738 81 .cfa: $rsp 8 + .ra: .cfa 8 - ^
STACK CFI 36738 .cfa: $rsp 48 +
STACK CFI INIT 367f8 25 .cfa: $rsp 8 + .ra: .cfa 8 - ^
STACK CFI 367f8 .cfa: $rsp 48 +
STACK CFI INIT 36828 91 .cfa: $rsp 8 + .ra: .cfa 8 - ^
STACK CFI 36828 .cfa: $rsp 48 +
STACK CFI INIT 368f0 e5 .cfa: $rsp 8 + .ra: .cfa 8 - ^
STACK CFI 368f0 .cfa: $rsp 64 +
STACK CFI INIT 369e8 ef .cfa: $rsp 8 + .ra: .cfa 8 - ^
STACK CFI 369e8 .cfa: $rsp 64 +
STACK CFI INIT 36b08 a1 .cfa: $rsp 8 + .ra: .cfa 8 - ^
STACK CFI 36b08 .cfa: $rsp 64 +
STACK CFI INIT 36bac bd .cfa: $rsp 8 + .ra: .cfa 8 - ^
STACK CFI 36bac .cfa: $rsp 48 +
STACK CFI INIT 36c6c 7e .cfa: $rsp 8 + .ra: .cfa 8 - ^
STACK CFI 36c6c .cfa: $rsp 48 +
STACK CFI INIT 36cec 49 .cfa: $rsp 8 + .ra: .cfa 8 - ^
STACK CFI 36cec .cfa: $rsp 48 +
STACK CFI INIT 36d40 26 .cfa: $rsp 8 + .ra: .cfa 8 - ^
STACK CFI 36d40 .cfa: $rsp 48 +
STACK CFI INIT 36d88 71 .cfa: $rsp 8 + .ra: .cfa 8 - ^
STACK CFI 36d88 .cfa: $rsp 48 +
STACK CFI INIT 36e38 56 .cfa: $rsp 8 + .ra: .cfa 8 - ^
STACK CFI 36e38 .cfa: $rsp 48 +
STACK CFI INIT 36eac ea .cfa: $rsp 8 + .ra: .cfa 8 - ^
STACK CFI 36eac .cfa: $rsp 48 +
STACK CFI INIT 36fa0 1b .cfa: $rsp 8 + .ra: .cfa 8 - ^
STACK CFI 36fa0 .cfa: $rsp 48 +
STACK CFI INIT 36fc4 1b .cfa: $rsp 8 + .ra: .cfa 8 - ^
STACK CFI 36fc4 .cfa: $rsp 48 +
STACK CFI INIT 36ff4 40 .cfa: $rsp 8 + .ra: .cfa 8 - ^
STACK CFI 36ff4 .cfa: $rsp 48 +
STACK CFI INIT 37034 9c .cfa: $rsp 8 + .ra: .cfa 8 - ^
STACK CFI 37034 .cfa: $rsp 96 +
STACK CFI INIT 370d0 9c .cfa: $rsp 8 + .ra: .cfa 8 - ^
STACK CFI 370d0 .cfa: $rsp 96 +
STACK CFI INIT 37264 96 .cfa: $rsp 8 + .ra: .cfa 8 - ^
STACK CFI 37264 .cfa: $rsp 112 +
STACK CFI INIT 372fc 96 .cfa: $rsp 8 + .ra: .cfa 8 - ^
STACK CFI 372fc .cfa: $rsp 112 +
STACK CFI INIT 37394 2be .cfa: $rsp 8 + .ra: .cfa 8 - ^
STACK CFI 37394 .cfa: $rsp 48 +
STACK CFI INIT 37674 2ff .cfa: $rsp 8 + .ra: .cfa 8 - ^
STACK CFI 37674 .cfa: $rsp 48 +
STACK CFI INIT 379f4 eb .cfa: $rsp 8 + .ra: .cfa 8 - ^
STACK CFI 379f4 .cfa: $rsp 80 +
STACK CFI INIT 37af0 2da .cfa: $rsp 8 + .ra: .cfa 8 - ^
STACK CFI 37af0 .cfa: $rsp 160 +
STACK CFI INIT 37dcc 8e .cfa: $rsp 8 + .ra: .cfa 8 - ^
STACK CFI 37dcc .cfa: $rsp 48 +
STACK CFI INIT 37e5c 4d0 .cfa: $rsp 8 + .ra: .cfa 8 - ^
STACK CFI 37e5c .cfa: $rsp 320 +
STACK CFI INIT 3832c 95 .cfa: $rsp 8 + .ra: .cfa 8 - ^
STACK CFI 3832c .cfa: $rsp 48 +
STACK CFI INIT 383c4 102 .cfa: $rsp 8 + .ra: .cfa 8 - ^
STACK CFI 383c4 .cfa: $rsp 5232 +
STACK CFI INIT 384c8 119 .cfa: $rsp 8 + .ra: .cfa 8 - ^
STACK CFI 384c8 .cfa: $rsp 5232 +
STACK CFI INIT 385e4 170 .cfa: $rsp 8 + .ra: .cfa 8 - ^
STACK CFI 385e4 .cfa: $rsp 5280 +
STACK CFI INIT 38754 6c .cfa: $rsp 8 + .ra: .cfa 8 - ^
STACK CFI 38754 .cfa: $rsp 64 +
STACK CFI INIT 387c0 ea .cfa: $rsp 8 + .ra: .cfa 8 - ^
STACK CFI 387c0 .cfa: $rsp 48 +
STACK CFI INIT 388ac eb .cfa: $rsp 8 + .ra: .cfa 8 - ^
STACK CFI 388ac .cfa: $rsp 48 +
STACK CFI INIT 38998 79 .cfa: $rsp 8 + .ra: .cfa 8 - ^
STACK CFI 38998 .cfa: $rsp 48 +
STACK CFI INIT 38a14 e8 .cfa: $rsp 8 + .ra: .cfa 8 - ^
STACK CFI 38a14 .cfa: $rsp 48 +
STACK CFI INIT 38afc e9 .cfa: $rsp 8 + .ra: .cfa 8 - ^
STACK CFI 38afc .cfa: $rsp 48 +
STACK CFI INIT 38be8 e4 .cfa: $rsp 8 + .ra: .cfa 8 - ^
STACK CFI 38be8 .cfa: $rsp 48 +
STACK CFI INIT 38ccc e8 .cfa: $rsp 8 + .ra: .cfa 8 - ^
STACK CFI 38ccc .cfa: $rsp 48 +
STACK CFI INIT 38dbc 45 .cfa: $rsp 8 + .ra: .cfa 8 - ^
STACK CFI 38dbc .cfa: $rsp 48 +
STACK CFI INIT 38e04 46 .cfa: $rsp 8 + .ra: .cfa 8 - ^
STACK CFI 38e04 .cfa: $rsp 48 +
STACK CFI INIT 38e4c 46 .cfa: $rsp 8 + .ra: .cfa 8 - ^
STACK CFI 38e4c .cfa: $rsp 48 +
STACK CFI INIT 38e94 51 .cfa: $rsp 8 + .ra: .cfa 8 - ^
STACK CFI 38e94 .cfa: $rsp 48 +
STACK CFI INIT 38ee8 61 .cfa: $rsp 8 + .ra: .cfa 8 - ^
STACK CFI 38ee8 .cfa: $rsp 48 +
STACK CFI INIT 38f54 5a .cfa: $rsp 8 + .ra: .cfa 8 - ^
STACK CFI 38f54 .cfa: $rsp 48 +
STACK CFI INIT 38fb0 e1 .cfa: $rsp 8 + .ra: .cfa 8 - ^
STACK CFI 38fb0 .cfa: $rsp 48 +
STACK CFI INIT 39094 f4 .cfa: $rsp 8 + .ra: .cfa 8 - ^
STACK CFI 39094 .cfa: $rsp 64 +
STACK CFI INIT 39188 10b .cfa: $rsp 8 + .ra: .cfa 8 - ^
STACK CFI 39188 .cfa: $rsp 64 +
STACK CFI INIT 39294 14c .cfa: $rsp 8 + .ra: .cfa 8 - ^
STACK CFI 39294 .cfa: $rsp 80 +
STACK CFI INIT 39490 1a .cfa: $rsp 8 + .ra: .cfa 8 - ^
STACK CFI 39490 .cfa: $rsp 48 +
STACK CFI INIT 394cc 29 .cfa: $rsp 8 + .ra: .cfa 8 - ^
STACK CFI 394cc .cfa: $rsp 64 +
STACK CFI INIT 394f8 2d .cfa: $rsp 8 + .ra: .cfa 8 - ^
STACK CFI 394f8 .cfa: $rsp 64 +
STACK CFI INIT 39528 29 .cfa: $rsp 8 + .ra: .cfa 8 - ^
STACK CFI 39528 .cfa: $rsp 64 +
STACK CFI INIT 39554 2d .cfa: $rsp 8 + .ra: .cfa 8 - ^
STACK CFI 39554 .cfa: $rsp 64 +
STACK CFI INIT 39584 29 .cfa: $rsp 8 + .ra: .cfa 8 - ^
STACK CFI 39584 .cfa: $rsp 64 +
STACK CFI INIT 395b0 2d .cfa: $rsp 8 + .ra: .cfa 8 - ^
STACK CFI 395b0 .cfa: $rsp 64 +
STACK CFI INIT 395e0 29 .cfa: $rsp 8 + .ra: .cfa 8 - ^
STACK CFI 395e0 .cfa: $rsp 64 +
STACK CFI INIT 3960c 2d .cfa: $rsp 8 + .ra: .cfa 8 - ^
STACK CFI 3960c .cfa: $rsp 64 +
STACK CFI INIT 3963c 29 .cfa: $rsp 8 + .ra: .cfa 8 - ^
STACK CFI 3963c .cfa: $rsp 64 +
STACK CFI INIT 39668 29 .cfa: $rsp 8 + .ra: .cfa 8 - ^
STACK CFI 39668 .cfa: $rsp 64 +
STACK CFI INIT 39694 29 .cfa: $rsp 8 + .ra: .cfa 8 - ^
STACK CFI 39694 .cfa: $rsp 64 +
STACK CFI INIT 396c0 29 .cfa: $rsp 8 + .ra: .cfa 8 - ^
STACK CFI 396c0 .cfa: $rsp 64 +
STACK CFI INIT 396ec 2d .cfa: $rsp 8 + .ra: .cfa 8 - ^
STACK CFI 396ec .cfa: $rsp 64 +
STACK CFI INIT 3971c 2d .cfa: $rsp 8 + .ra: .cfa 8 - ^
STACK CFI 3971c .cfa: $rsp 64 +
STACK CFI INIT 3974c 2d .cfa: $rsp 8 + .ra: .cfa 8 - ^
STACK CFI 3974c .cfa: $rsp 64 +
STACK CFI INIT 3977c 2d .cfa: $rsp 8 + .ra: .cfa 8 - ^
STACK CFI 3977c .cfa: $rsp 64 +
STACK CFI INIT 397ac 2e .cfa: $rsp 8 + .ra: .cfa 8 - ^
STACK CFI 397ac .cfa: $rsp 64 +
STACK CFI INIT 397dc 2e .cfa: $rsp 8 + .ra: .cfa 8 - ^
STACK CFI 397dc .cfa: $rsp 64 +
STACK CFI INIT 3980c 2e .cfa: $rsp 8 + .ra: .cfa 8 - ^
STACK CFI 3980c .cfa: $rsp 64 +
STACK CFI INIT 3983c 2e .cfa: $rsp 8 + .ra: .cfa 8 - ^
STACK CFI 3983c .cfa: $rsp 64 +
STACK CFI INIT 398b0 7d .cfa: $rsp 8 + .ra: .cfa 8 - ^
STACK CFI 398b0 .cfa: $rsp 8 +
STACK CFI INIT 39994 122 .cfa: $rsp 8 + .ra: .cfa 8 - ^
STACK CFI 39994 .cfa: $rsp 16 +
STACK CFI INIT 39ab8 13 .cfa: $rsp 8 + .ra: .cfa 8 - ^
STACK CFI 39ab8 .cfa: $rsp 64 +
STACK CFI INIT 39e0c 53 .cfa: $rsp 8 + .ra: .cfa 8 - ^
STACK CFI 39e0c .cfa: $rsp 48 +
STACK CFI INIT 39e60 2a .cfa: $rsp 8 + .ra: .cfa 8 - ^
STACK CFI 39e60 .cfa: $rsp 48 +
STACK CFI INIT 39e8c 64 .cfa: $rsp 8 + .ra: .cfa 8 - ^
STACK CFI 39e8c .cfa: $rsp 48 +
STACK CFI INIT 39ef0 c9 .cfa: $rsp 8 + .ra: .cfa 8 - ^
STACK CFI 39ef0 .cfa: $rsp 80 +
STACK CFI INIT 39fbc 103 .cfa: $rsp 8 + .ra: .cfa 8 - ^
STACK CFI 39fbc .cfa: $rsp 240 +
STACK CFI INIT 3a0cc 13f .cfa: $rsp 8 + .ra: .cfa 8 - ^
STACK CFI 3a0cc .cfa: $rsp 112 +
STACK CFI INIT 3a214 32 .cfa: $rsp 8 + .ra: .cfa 8 - ^
STACK CFI 3a214 .cfa: $rsp 48 +
STACK CFI INIT 3a248 11f .cfa: $rsp 8 + .ra: .cfa 8 - ^
STACK CFI 3a248 .cfa: $rsp 240 +
STACK CFI INIT 3a38c 166 .cfa: $rsp 8 + .ra: .cfa 8 - ^
STACK CFI 3a38c .cfa: $rsp 112 +
STACK CFI INIT 3a4f4 12 .cfa: $rsp 8 + .ra: .cfa 8 - ^
STACK CFI 3a4f4 .cfa: $rsp 48 +
STACK CFI INIT 3a508 18 .cfa: $rsp 8 + .ra: .cfa 8 - ^
STACK CFI 3a508 .cfa: $rsp 48 +
STACK CFI INIT 3a520 12 .cfa: $rsp 8 + .ra: .cfa 8 - ^
STACK CFI 3a520 .cfa: $rsp 48 +
STACK CFI INIT 3a534 18 .cfa: $rsp 8 + .ra: .cfa 8 - ^
STACK CFI 3a534 .cfa: $rsp 48 +
STACK CFI INIT 3a54c 3a .cfa: $rsp 8 + .ra: .cfa 8 - ^
STACK CFI 3a54c .cfa: $rsp 48 +
STACK CFI INIT 3a588 53 .cfa: $rsp 8 + .ra: .cfa 8 - ^
STACK CFI 3a588 .cfa: $rsp 48 +
STACK CFI INIT 3a5dc 86 .cfa: $rsp 8 + .ra: .cfa 8 - ^
STACK CFI 3a5dc .cfa: $rsp 80 +
STACK CFI INIT 3a664 bf .cfa: $rsp 8 + .ra: .cfa 8 - ^
STACK CFI 3a664 .cfa: $rsp 112 +
STACK CFI INIT 3a734 51 .cfa: $rsp 8 + .ra: .cfa 8 - ^
STACK CFI 3a734 .cfa: $rsp 128 +
STACK CFI INIT 3a788 51 .cfa: $rsp 8 + .ra: .cfa 8 - ^
STACK CFI 3a788 .cfa: $rsp 128 +
STACK CFI INIT 3a804 a4 .cfa: $rsp 8 + .ra: .cfa 8 - ^
STACK CFI 3a804 .cfa: $rsp 80 +
STACK CFI INIT 3a8a8 95 .cfa: $rsp 8 + .ra: .cfa 8 - ^
STACK CFI 3a8a8 .cfa: $rsp 80 +
STACK CFI INIT 3a974 af .cfa: $rsp 8 + .ra: .cfa 8 - ^
STACK CFI 3a974 .cfa: $rsp 64 +
STACK CFI INIT 3aa24 f4 .cfa: $rsp 8 + .ra: .cfa 8 - ^
STACK CFI 3aa24 .cfa: $rsp 64 +
STACK CFI INIT 3ab18 87 .cfa: $rsp 8 + .ra: .cfa 8 - ^
STACK CFI 3ab18 .cfa: $rsp 64 +
STACK CFI INIT 3ac78 a8 .cfa: $rsp 8 + .ra: .cfa 8 - ^
STACK CFI 3ac78 .cfa: $rsp 48 +
STACK CFI INIT 3ad20 176 .cfa: $rsp 8 + .ra: .cfa 8 - ^
STACK CFI 3ad20 .cfa: $rsp 48 +
STACK CFI INIT 3aee8 36 .cfa: $rsp 8 + .ra: .cfa 8 - ^
STACK CFI 3aee8 .cfa: $rsp 48 +
STACK CFI INIT 3af20 6c .cfa: $rsp 8 + .ra: .cfa 8 - ^
STACK CFI 3af20 .cfa: $rsp 48 +
STACK CFI INIT 3af8c 65 .cfa: $rsp 8 + .ra: .cfa 8 - ^
STACK CFI 3af8c .cfa: $rsp 48 +
STACK CFI INIT 3aff4 75 .cfa: $rsp 8 + .ra: .cfa 8 - ^
STACK CFI 3aff4 .cfa: $rsp 48 +
STACK CFI INIT 3b06c 101 .cfa: $rsp 8 + .ra: .cfa 8 - ^
STACK CFI 3b06c .cfa: $rsp 64 +
STACK CFI INIT 3b170 13e .cfa: $rsp 8 + .ra: .cfa 8 - ^
STACK CFI 3b170 .cfa: $rsp 80 +
STACK CFI INIT 3b2b0 ba .cfa: $rsp 8 + .ra: .cfa 8 - ^
STACK CFI 3b2b0 .cfa: $rsp 48 +
STACK CFI INIT 3b36c bf .cfa: $rsp 8 + .ra: .cfa 8 - ^
STACK CFI 3b36c .cfa: $rsp 48 +
STACK CFI INIT 3b42c a5 .cfa: $rsp 8 + .ra: .cfa 8 - ^
STACK CFI 3b42c .cfa: $rsp 48 +
STACK CFI INIT 3b4d4 50 .cfa: $rsp 8 + .ra: .cfa 8 - ^
STACK CFI 3b4d4 .cfa: $rsp 48 +
STACK CFI INIT 3b524 a8 .cfa: $rsp 8 + .ra: .cfa 8 - ^
STACK CFI 3b524 .cfa: $rsp 64 +
STACK CFI INIT 3b624 1b .cfa: $rsp 8 + .ra: .cfa 8 - ^
STACK CFI 3b624 .cfa: $rsp 48 +
STACK CFI INIT 3b648 1b .cfa: $rsp 8 + .ra: .cfa 8 - ^
STACK CFI 3b648 .cfa: $rsp 48 +
STACK CFI INIT 3b6a0 1f .cfa: $rsp 8 + .ra: .cfa 8 - ^
STACK CFI 3b6a0 .cfa: $rsp 48 +
STACK CFI INIT 3b6c0 18d .cfa: $rsp 8 + .ra: .cfa 8 - ^
STACK CFI 3b6c0 .cfa: $rsp 144 +
STACK CFI INIT 3b860 22 .cfa: $rsp 8 + .ra: .cfa 8 - ^
STACK CFI 3b860 .cfa: $rsp 48 +
STACK CFI INIT 3b888 96 .cfa: $rsp 8 + .ra: .cfa 8 - ^
STACK CFI 3b888 .cfa: $rsp 128 +
STACK CFI INIT 3b920 315 .cfa: $rsp 8 + .ra: .cfa 8 - ^
STACK CFI 3b920 .cfa: $rsp 144 +
STACK CFI INIT 3bc40 17 .cfa: $rsp 8 + .ra: .cfa 8 - ^
STACK CFI 3bc40 .cfa: $rsp 48 +
STACK CFI INIT 3bc58 91 .cfa: $rsp 8 + .ra: .cfa 8 - ^
STACK CFI 3bc58 .cfa: $rsp 64 +
STACK CFI INIT 3bcec 69 .cfa: $rsp 8 + .ra: .cfa 8 - ^
STACK CFI 3bcec .cfa: $rsp 48 +
STACK CFI INIT 3bd60 26 .cfa: $rsp 8 + .ra: .cfa 8 - ^
STACK CFI 3bd60 .cfa: $rsp 48 +
STACK CFI INIT 3bda8 8c .cfa: $rsp 8 + .ra: .cfa 8 - ^
STACK CFI 3bda8 .cfa: $rsp 48 +
STACK CFI INIT 3be34 33 .cfa: $rsp 8 + .ra: .cfa 8 - ^
STACK CFI 3be34 .cfa: $rsp 48 +
STACK CFI INIT 3be68 2f .cfa: $rsp 8 + .ra: .cfa 8 - ^
STACK CFI 3be68 .cfa: $rsp 48 +
STACK CFI INIT 3bea0 b1 .cfa: $rsp 8 + .ra: .cfa 8 - ^
STACK CFI 3bea0 .cfa: $rsp 64 +
STACK CFI INIT 3bf54 5f .cfa: $rsp 8 + .ra: .cfa 8 - ^
STACK CFI 3bf54 .cfa: $rsp 48 +
STACK CFI INIT 3bfbc 2b .cfa: $rsp 8 + .ra: .cfa 8 - ^
STACK CFI 3bfbc .cfa: $rsp 48 +
STACK CFI INIT 3bfec 6f .cfa: $rsp 8 + .ra: .cfa 8 - ^
STACK CFI 3bfec .cfa: $rsp 48 +
STACK CFI INIT 3c094 108 .cfa: $rsp 8 + .ra: .cfa 8 - ^
STACK CFI 3c094 .cfa: $rsp 144 +
STACK CFI INIT 3c260 2c .cfa: $rsp 8 + .ra: .cfa 8 - ^
STACK CFI 3c260 .cfa: $rsp 48 +
STACK CFI INIT 3c28c 2c .cfa: $rsp 8 + .ra: .cfa 8 - ^
STACK CFI 3c28c .cfa: $rsp 48 +
STACK CFI INIT 3c354 2c .cfa: $rsp 8 + .ra: .cfa 8 - ^
STACK CFI 3c354 .cfa: $rsp 48 +
STACK CFI INIT 3c380 2c .cfa: $rsp 8 + .ra: .cfa 8 - ^
STACK CFI 3c380 .cfa: $rsp 48 +
STACK CFI INIT 3c3ac 4d .cfa: $rsp 8 + .ra: .cfa 8 - ^
STACK CFI 3c3ac .cfa: $rsp 80 +
STACK CFI INIT 3c3fc 4b .cfa: $rsp 8 + .ra: .cfa 8 - ^
STACK CFI 3c3fc .cfa: $rsp 80 +
STACK CFI INIT 3c448 39 .cfa: $rsp 8 + .ra: .cfa 8 - ^
STACK CFI 3c448 .cfa: $rsp 64 +
STACK CFI INIT 3c484 176 .cfa: $rsp 8 + .ra: .cfa 8 - ^
STACK CFI 3c484 .cfa: $rsp 80 +
STACK CFI INIT 3c5fc 66 .cfa: $rsp 8 + .ra: .cfa 8 - ^
STACK CFI 3c5fc .cfa: $rsp 64 +
STACK CFI INIT 3c664 3e .cfa: $rsp 8 + .ra: .cfa 8 - ^
STACK CFI 3c664 .cfa: $rsp 64 +
STACK CFI INIT 3c6a4 60 .cfa: $rsp 8 + .ra: .cfa 8 - ^
STACK CFI 3c6a4 .cfa: $rsp 64 +
STACK CFI INIT 3c704 d1 .cfa: $rsp 8 + .ra: .cfa 8 - ^
STACK CFI 3c704 .cfa: $rsp 48 +
STACK CFI INIT 3c7e0 251 .cfa: $rsp 8 + .ra: .cfa 8 - ^
STACK CFI 3c7e0 .cfa: $rsp 112 +
STACK CFI INIT 3ca34 15e .cfa: $rsp 8 + .ra: .cfa 8 - ^
STACK CFI 3ca34 .cfa: $rsp 144 +
STACK CFI INIT 3cbbc 2f .cfa: $rsp 8 + .ra: .cfa 8 - ^
STACK CFI 3cbbc .cfa: $rsp 48 +
STACK CFI INIT 3cc00 661 .cfa: $rsp 8 + .ra: .cfa 8 - ^
STACK CFI 3cc00 .cfa: $rsp 208 +
STACK CFI INIT 3d264 32 .cfa: $rsp 8 + .ra: .cfa 8 - ^
STACK CFI 3d264 .cfa: $rsp 48 +
STACK CFI INIT 3d298 2f .cfa: $rsp 8 + .ra: .cfa 8 - ^
STACK CFI 3d298 .cfa: $rsp 48 +
STACK CFI INIT 3d2c8 2f .cfa: $rsp 8 + .ra: .cfa 8 - ^
STACK CFI 3d2c8 .cfa: $rsp 48 +
STACK CFI INIT 3d300 1b .cfa: $rsp 8 + .ra: .cfa 8 - ^
STACK CFI 3d300 .cfa: $rsp 48 +
STACK CFI INIT 3d324 1b .cfa: $rsp 8 + .ra: .cfa 8 - ^
STACK CFI 3d324 .cfa: $rsp 48 +
STACK CFI INIT 3d348 1b .cfa: $rsp 8 + .ra: .cfa 8 - ^
STACK CFI 3d348 .cfa: $rsp 48 +
STACK CFI INIT 3d36c 1b .cfa: $rsp 8 + .ra: .cfa 8 - ^
STACK CFI 3d36c .cfa: $rsp 48 +
STACK CFI INIT 3d3a0 b3 .cfa: $rsp 8 + .ra: .cfa 8 - ^
STACK CFI 3d3a0 .cfa: $rsp 48 +
STACK CFI INIT 3d454 1c .cfa: $rsp 8 + .ra: .cfa 8 - ^
STACK CFI 3d454 .cfa: $rsp 48 +
STACK CFI INIT 3d5a8 e2 .cfa: $rsp 8 + .ra: .cfa 8 - ^
STACK CFI 3d5a8 .cfa: $rsp 48 +
STACK CFI INIT 3d68c 87 .cfa: $rsp 8 + .ra: .cfa 8 - ^
STACK CFI 3d68c .cfa: $rsp 48 +
STACK CFI INIT 3d714 1231 .cfa: $rsp 8 + .ra: .cfa 8 - ^
STACK CFI 3d714 .cfa: $rsp 2080 +
STACK CFI INIT 3e960 2f .cfa: $rsp 8 + .ra: .cfa 8 - ^
STACK CFI 3e960 .cfa: $rsp 48 +
STACK CFI INIT 3e990 2f .cfa: $rsp 8 + .ra: .cfa 8 - ^
STACK CFI 3e990 .cfa: $rsp 48 +
STACK CFI INIT 3ea50 67 .cfa: $rsp 8 + .ra: .cfa 8 - ^
STACK CFI 3ea50 .cfa: $rsp 48 +
STACK CFI INIT 3eaf0 74 .cfa: $rsp 8 + .ra: .cfa 8 - ^
STACK CFI 3eaf0 .cfa: $rsp 544 +
STACK CFI INIT 3eb64 a1 .cfa: $rsp 8 + .ra: .cfa 8 - ^
STACK CFI 3eb64 .cfa: $rsp 544 +
STACK CFI INIT 3ec05 38 .cfa: $rsp 8 + .ra: .cfa 8 - ^
STACK CFI 3ec05 .cfa: $rsp 544 +
STACK CFI INIT 3ec80 49 .cfa: $rsp 8 + .ra: .cfa 8 - ^
STACK CFI 3ec80 .cfa: $rsp 8 +
STACK CFI INIT 3ecd0 39 .cfa: $rsp 8 + .ra: .cfa 8 - ^
STACK CFI 3ecd0 .cfa: $rsp 512 +
STACK CFI INIT 3ed09 1e .cfa: $rsp 8 + .ra: .cfa 8 - ^
STACK CFI 3ed09 .cfa: $rsp 512 +
STACK CFI INIT 3ed27 4b .cfa: $rsp 8 + .ra: .cfa 8 - ^
STACK CFI 3ed27 .cfa: $rsp 512 +
STACK CFI INIT 3ed72 2a .cfa: $rsp 8 + .ra: .cfa 8 - ^
STACK CFI 3ed72 .cfa: $rsp 512 +
STACK CFI INIT 3ed9c 21 .cfa: $rsp 8 + .ra: .cfa 8 - ^
STACK CFI 3ed9c .cfa: $rsp 512 +
STACK CFI INIT 3edc0 e4 .cfa: $rsp 8 + .ra: .cfa 8 - ^
STACK CFI 3edc0 .cfa: $rsp 1056 +
STACK CFI INIT 3eea4 f4 .cfa: $rsp 8 + .ra: .cfa 8 - ^
STACK CFI 3eea4 .cfa: $rsp 1056 +
STACK CFI INIT 3ef98 187 .cfa: $rsp 8 + .ra: .cfa 8 - ^
STACK CFI 3ef98 .cfa: $rsp 1056 +
STACK CFI INIT 3f11f 10 .cfa: $rsp 8 + .ra: .cfa 8 - ^
STACK CFI 3f11f .cfa: $rsp 1056 +
STACK CFI INIT 3f12f 1b .cfa: $rsp 8 + .ra: .cfa 8 - ^
STACK CFI 3f12f .cfa: $rsp 1056 +
STACK CFI INIT 3f14a 1e .cfa: $rsp 8 + .ra: .cfa 8 - ^
STACK CFI 3f14a .cfa: $rsp 1056 +
STACK CFI INIT 3f170 5a8 .cfa: $rsp 8 + .ra: .cfa 8 - ^
STACK CFI 3f170 .cfa: $rsp 1536 +
STACK CFI INIT 3f750 22c .cfa: $rsp 8 + .ra: .cfa 8 - ^
STACK CFI 3f750 .cfa: $rsp 608 +
STACK CFI INIT 3f97c 1b4 .cfa: $rsp 8 + .ra: .cfa 8 - ^
STACK CFI 3f97c .cfa: $rsp 608 +
STACK CFI INIT 3fb30 49 .cfa: $rsp 8 + .ra: .cfa 8 - ^
STACK CFI 3fb30 .cfa: $rsp 608 +
STACK CFI INIT 3fb7c 3b .cfa: $rsp 8 + .ra: .cfa 8 - ^
STACK CFI 3fb7c .cfa: $rsp 48 +
STACK CFI INIT 3fbb8 14 .cfa: $rsp 8 + .ra: .cfa 8 - ^
STACK CFI 3fbb8 .cfa: $rsp 48 +
STACK CFI INIT 3fbcc 114d .cfa: $rsp 8 + .ra: .cfa 8 - ^
STACK CFI 3fbcc .cfa: $rsp 2064 +
STACK CFI INIT 40d1c 29 .cfa: $rsp 8 + .ra: .cfa 8 - ^
STACK CFI 40d1c .cfa: $rsp 48 +
STACK CFI INIT 40d50 533 .cfa: $rsp 8 + .ra: .cfa 8 - ^
STACK CFI 40d50 .cfa: $rsp 112 +
STACK CFI INIT 41284 10a .cfa: $rsp 8 + .ra: .cfa 8 - ^
STACK CFI 41284 .cfa: $rsp 48 +
STACK CFI INIT 413cc 1b .cfa: $rsp 8 + .ra: .cfa 8 - ^
STACK CFI 413cc .cfa: $rsp 48 +
STACK CFI INIT 413f0 1b .cfa: $rsp 8 + .ra: .cfa 8 - ^
STACK CFI 413f0 .cfa: $rsp 48 +
STACK CFI INIT 41420 2e8 .cfa: $rsp 8 + .ra: .cfa 8 - ^
STACK CFI 41420 .cfa: $rsp 112 +
STACK CFI INIT 41708 6c .cfa: $rsp 8 + .ra: .cfa 8 - ^
STACK CFI 41708 .cfa: $rsp 48 +
STACK CFI INIT 417b0 9c .cfa: $rsp 8 + .ra: .cfa 8 - ^
STACK CFI 417b0 .cfa: $rsp 48 +
STACK CFI INIT 4184c 108 .cfa: $rsp 8 + .ra: .cfa 8 - ^
STACK CFI 4184c .cfa: $rsp 48 +
STACK CFI INIT 41954 33e .cfa: $rsp 8 + .ra: .cfa 8 - ^
STACK CFI 41954 .cfa: $rsp 112 +
STACK CFI INIT 41c94 77 .cfa: $rsp 8 + .ra: .cfa 8 - ^
STACK CFI 41c94 .cfa: $rsp 48 +
STACK CFI INIT 41d14 1b .cfa: $rsp 8 + .ra: .cfa 8 - ^
STACK CFI 41d14 .cfa: $rsp 48 +
STACK CFI INIT 41d38 1b .cfa: $rsp 8 + .ra: .cfa 8 - ^
STACK CFI 41d38 .cfa: $rsp 48 +
STACK CFI INIT 41d68 58 .cfa: $rsp 8 + .ra: .cfa 8 - ^
STACK CFI 41d68 .cfa: $rsp 48 +
STACK CFI INIT 41e10 7f .cfa: $rsp 8 + .ra: .cfa 8 - ^
STACK CFI 41e10 .cfa: $rsp 48 +
STACK CFI INIT 41e90 86 .cfa: $rsp 8 + .ra: .cfa 8 - ^
STACK CFI 41e90 .cfa: $rsp 48 +
STACK CFI INIT 41f18 fd .cfa: $rsp 8 + .ra: .cfa 8 - ^
STACK CFI 41f18 .cfa: $rsp 48 +
STACK CFI INIT 42018 f6 .cfa: $rsp 8 + .ra: .cfa 8 - ^
STACK CFI 42018 .cfa: $rsp 48 +
STACK CFI INIT 42110 e4 .cfa: $rsp 8 + .ra: .cfa 8 - ^
STACK CFI 42110 .cfa: $rsp 48 +
STACK CFI INIT 421f4 db .cfa: $rsp 8 + .ra: .cfa 8 - ^
STACK CFI 421f4 .cfa: $rsp 48 +
STACK CFI INIT 42344 263 .cfa: $rsp 8 + .ra: .cfa 8 - ^
STACK CFI 42344 .cfa: $rsp 80 +
STACK CFI INIT 425a8 99 .cfa: $rsp 8 + .ra: .cfa 8 - ^
STACK CFI 425a8 .cfa: $rsp 64 +
STACK CFI INIT 42644 cf .cfa: $rsp 8 + .ra: .cfa 8 - ^
STACK CFI 42644 .cfa: $rsp 48 +
STACK CFI INIT 42720 2ea .cfa: $rsp 8 + .ra: .cfa 8 - ^
STACK CFI 42720 .cfa: $rsp 224 +
STACK CFI INIT 42a0c 98 .cfa: $rsp 8 + .ra: .cfa 8 - ^
STACK CFI 42a0c .cfa: $rsp 48 +
STACK CFI INIT 42ab0 ea .cfa: $rsp 8 + .ra: .cfa 8 - ^
STACK CFI 42ab0 .cfa: $rsp 320 +
STACK CFI INIT 42b9c a5 .cfa: $rsp 8 + .ra: .cfa 8 - ^
STACK CFI 42b9c .cfa: $rsp 256 +
STACK CFI INIT 42c44 c9 .cfa: $rsp 8 + .ra: .cfa 8 - ^
STACK CFI 42c44 .cfa: $rsp 48 +
STACK CFI INIT 42d10 63 .cfa: $rsp 8 + .ra: .cfa 8 - ^
STACK CFI 42d10 .cfa: $rsp 80 +
STACK CFI INIT 42d74 77 .cfa: $rsp 8 + .ra: .cfa 8 - ^
STACK CFI 42d74 .cfa: $rsp 48 +
STACK CFI INIT 42e1c 27e .cfa: $rsp 8 + .ra: .cfa 8 - ^
STACK CFI 42e1c .cfa: $rsp 128 +
STACK CFI INIT 4309c 7f .cfa: $rsp 8 + .ra: .cfa 8 - ^
STACK CFI 4309c .cfa: $rsp 64 +
STACK CFI INIT 4311c cd .cfa: $rsp 8 + .ra: .cfa 8 - ^
STACK CFI 4311c .cfa: $rsp 48 +
STACK CFI INIT 431f0 24a .cfa: $rsp 8 + .ra: .cfa 8 - ^
STACK CFI 431f0 .cfa: $rsp 320 +
STACK CFI INIT 4343c 96 .cfa: $rsp 8 + .ra: .cfa 8 - ^
STACK CFI 4343c .cfa: $rsp 48 +
STACK CFI INIT 434e0 108 .cfa: $rsp 8 + .ra: .cfa 8 - ^
STACK CFI 434e0 .cfa: $rsp 304 +
STACK CFI INIT 435e8 5f .cfa: $rsp 8 + .ra: .cfa 8 - ^
STACK CFI 435e8 .cfa: $rsp 48 +
STACK CFI INIT 43650 e8 .cfa: $rsp 8 + .ra: .cfa 8 - ^
STACK CFI 43650 .cfa: $rsp 304 +
STACK CFI INIT 43738 21 .cfa: $rsp 8 + .ra: .cfa 8 - ^
STACK CFI 43738 .cfa: $rsp 48 +
STACK CFI INIT 4375c ae .cfa: $rsp 8 + .ra: .cfa 8 - ^
STACK CFI 4375c .cfa: $rsp 48 +
STACK CFI INIT 43830 ab .cfa: $rsp 8 + .ra: .cfa 8 - ^
STACK CFI 43830 .cfa: $rsp 48 +
STACK CFI INIT 43970 c7 .cfa: $rsp 8 + .ra: .cfa 8 - ^
STACK CFI 43970 .cfa: $rsp 8 +
STACK CFI INIT 43a40 5b .cfa: $rsp 8 + .ra: .cfa 8 - ^
STACK CFI 43a40 .cfa: $rsp 1136 +
STACK CFI INIT 43a9b 334 .cfa: $rsp 8 + .ra: .cfa 8 - ^
STACK CFI 43a9b .cfa: $rsp 1136 +
STACK CFI INIT 43dcf 1e .cfa: $rsp 8 + .ra: .cfa 8 - ^
STACK CFI 43dcf .cfa: $rsp 1136 +
STACK CFI INIT 43e20 17 .cfa: $rsp 8 + .ra: .cfa 8 - ^
STACK CFI 43e20 .cfa: $rsp 64 +
STACK CFI INIT 43e37 a4 .cfa: $rsp 8 + .ra: .cfa 8 - ^
STACK CFI 43e37 .cfa: $rsp 64 +
STACK CFI INIT 43edb 1 .cfa: $rsp 8 + .ra: .cfa 8 - ^
STACK CFI 43edb .cfa: $rsp 64 +
STACK CFI INIT 43edc d3 .cfa: $rsp 8 + .ra: .cfa 8 - ^
STACK CFI 43edc .cfa: $rsp 48 +
STACK CFI INIT 43fb0 c6 .cfa: $rsp 8 + .ra: .cfa 8 - ^
STACK CFI 43fb0 .cfa: $rsp 48 +
STACK CFI INIT 44080 3e0 .cfa: $rsp 8 + .ra: .cfa 8 - ^
STACK CFI 44080 .cfa: $rsp 64 +
STACK CFI INIT 44460 9e .cfa: $rsp 8 + .ra: .cfa 8 - ^
STACK CFI 44460 .cfa: $rsp 96 +
STACK CFI INIT 44508 94 .cfa: $rsp 8 + .ra: .cfa 8 - ^
STACK CFI 44508 .cfa: $rsp 80 +
STACK CFI INIT 4459c 39 .cfa: $rsp 8 + .ra: .cfa 8 - ^
STACK CFI 4459c .cfa: $rsp 48 +
STACK CFI INIT 445e0 7a .cfa: $rsp 8 + .ra: .cfa 8 - ^
STACK CFI 445e0 .cfa: $rsp 48 +
STACK CFI INIT 44758 4f .cfa: $rsp 8 + .ra: .cfa 8 - ^
STACK CFI 44758 .cfa: $rsp 48 +
STACK CFI INIT 447a8 f0 .cfa: $rsp 8 + .ra: .cfa 8 - ^
STACK CFI 447a8 .cfa: $rsp 96 +
STACK CFI INIT 448b0 100 .cfa: $rsp 8 + .ra: .cfa 8 - ^
STACK CFI 448b0 .cfa: $rsp 112 +
STACK CFI INIT 449b0 197 .cfa: $rsp 8 + .ra: .cfa 8 - ^
STACK CFI 449b0 .cfa: $rsp 192 +
STACK CFI INIT 44b48 25 .cfa: $rsp 8 + .ra: .cfa 8 - ^
STACK CFI 44b48 .cfa: $rsp 64 +
STACK CFI INIT 44b70 179 .cfa: $rsp 8 + .ra: .cfa 8 - ^
STACK CFI 44b70 .cfa: $rsp 64 +
STACK CFI INIT 44cec 46 .cfa: $rsp 8 + .ra: .cfa 8 - ^
STACK CFI 44cec .cfa: $rsp 48 +
STACK CFI INIT 44d34 150 .cfa: $rsp 8 + .ra: .cfa 8 - ^
STACK CFI 44d34 .cfa: $rsp 96 +
STACK CFI INIT 44f2c 4f .cfa: $rsp 8 + .ra: .cfa 8 - ^
STACK CFI 44f2c .cfa: $rsp 48 +
STACK CFI INIT 44f7c ad .cfa: $rsp 8 + .ra: .cfa 8 - ^
STACK CFI 44f7c .cfa: $rsp 80 +
STACK CFI INIT 45078 32 .cfa: $rsp 8 + .ra: .cfa 8 - ^
STACK CFI 45078 .cfa: $rsp 64 +
STACK CFI INIT 450b4 32 .cfa: $rsp 8 + .ra: .cfa 8 - ^
STACK CFI 450b4 .cfa: $rsp 64 +
STACK CFI INIT 450f0 117 .cfa: $rsp 8 + .ra: .cfa 8 - ^
STACK CFI 450f0 .cfa: $rsp 160 +
STACK CFI INIT 45208 3e7 .cfa: $rsp 8 + .ra: .cfa 8 - ^
STACK CFI 45208 .cfa: $rsp 224 +
STACK CFI INIT 455f0 23 .cfa: $rsp 8 + .ra: .cfa 8 - ^
STACK CFI 455f0 .cfa: $rsp 48 +
STACK CFI INIT 45614 b0 .cfa: $rsp 8 + .ra: .cfa 8 - ^
STACK CFI 45614 .cfa: $rsp 96 +
STACK CFI INIT 456c4 23 .cfa: $rsp 8 + .ra: .cfa 8 - ^
STACK CFI 456c4 .cfa: $rsp 48 +
STACK CFI INIT 456e8 b0 .cfa: $rsp 8 + .ra: .cfa 8 - ^
STACK CFI 456e8 .cfa: $rsp 96 +
STACK CFI INIT 45798 c3 .cfa: $rsp 8 + .ra: .cfa 8 - ^
STACK CFI 45798 .cfa: $rsp 96 +
STACK CFI INIT 4585c c3 .cfa: $rsp 8 + .ra: .cfa 8 - ^
STACK CFI 4585c .cfa: $rsp 96 +
STACK CFI INIT 45920 37 .cfa: $rsp 8 + .ra: .cfa 8 - ^
STACK CFI 45920 .cfa: $rsp 80 +
STACK CFI INIT 45958 5a .cfa: $rsp 8 + .ra: .cfa 8 - ^
STACK CFI 45958 .cfa: $rsp 48 +
STACK CFI INIT 459b4 7c .cfa: $rsp 8 + .ra: .cfa 8 - ^
STACK CFI 459b4 .cfa: $rsp 48 +
STACK CFI INIT 45a30 56 .cfa: $rsp 8 + .ra: .cfa 8 - ^
STACK CFI 45a30 .cfa: $rsp 48 +
STACK CFI INIT 45a88 4b .cfa: $rsp 8 + .ra: .cfa 8 - ^
STACK CFI 45a88 .cfa: $rsp 64 +
STACK CFI INIT 45ad4 20a .cfa: $rsp 8 + .ra: .cfa 8 - ^
STACK CFI 45ad4 .cfa: $rsp 80 +
STACK CFI INIT 45ce0 c1 .cfa: $rsp 8 + .ra: .cfa 8 - ^
STACK CFI 45ce0 .cfa: $rsp 48 +
STACK CFI INIT 45da4 291 .cfa: $rsp 8 + .ra: .cfa 8 - ^
STACK CFI 45da4 .cfa: $rsp 80 +
STACK CFI INIT 46038 41 .cfa: $rsp 8 + .ra: .cfa 8 - ^
STACK CFI 46038 .cfa: $rsp 80 +
STACK CFI INIT 4607c 41 .cfa: $rsp 8 + .ra: .cfa 8 - ^
STACK CFI 4607c .cfa: $rsp 80 +
STACK CFI INIT 461a0 25 .cfa: $rsp 8 + .ra: .cfa 8 - ^
STACK CFI 461a0 .cfa: $rsp 64 +
STACK CFI INIT 461c8 179 .cfa: $rsp 8 + .ra: .cfa 8 - ^
STACK CFI 461c8 .cfa: $rsp 64 +
STACK CFI INIT 4636c 9e .cfa: $rsp 8 + .ra: .cfa 8 - ^
STACK CFI 4636c .cfa: $rsp 64 +
STACK CFI INIT 4640c 33 .cfa: $rsp 8 + .ra: .cfa 8 - ^
STACK CFI 4640c .cfa: $rsp 48 +
STACK CFI INIT 46440 eb .cfa: $rsp 8 + .ra: .cfa 8 - ^
STACK CFI 46440 .cfa: $rsp 80 +
STACK CFI INIT 4652c ef .cfa: $rsp 8 + .ra: .cfa 8 - ^
STACK CFI 4652c .cfa: $rsp 80 +
STACK CFI INIT 4661c f3 .cfa: $rsp 8 + .ra: .cfa 8 - ^
STACK CFI 4661c .cfa: $rsp 64 +
STACK CFI INIT 46710 99 .cfa: $rsp 8 + .ra: .cfa 8 - ^
STACK CFI 46710 .cfa: $rsp 48 +
STACK CFI INIT 467ac 3b .cfa: $rsp 8 + .ra: .cfa 8 - ^
STACK CFI 467ac .cfa: $rsp 64 +
STACK CFI INIT 467e8 3b .cfa: $rsp 8 + .ra: .cfa 8 - ^
STACK CFI 467e8 .cfa: $rsp 48 +
STACK CFI INIT 46838 26 .cfa: $rsp 8 + .ra: .cfa 8 - ^
STACK CFI 46838 .cfa: $rsp 48 +
STACK CFI INIT 46880 40 .cfa: $rsp 8 + .ra: .cfa 8 - ^
STACK CFI 46880 .cfa: $rsp 48 +
STACK CFI INIT 468d0 51 .cfa: $rsp 8 + .ra: .cfa 8 - ^
STACK CFI 468d0 .cfa: $rsp 24 +
STACK CFI INIT 46924 119 .cfa: $rsp 8 + .ra: .cfa 8 - ^
STACK CFI 46924 .cfa: $rsp 64 +
STACK CFI INIT 46a40 456 .cfa: $rsp 8 + .ra: .cfa 8 - ^
STACK CFI 46a40 .cfa: $rsp 160 +
STACK CFI INIT 46f00 8f .cfa: $rsp 8 + .ra: .cfa 8 - ^
STACK CFI 46f00 .cfa: $rsp 8 +
STACK CFI INIT 46f90 19b .cfa: $rsp 8 + .ra: .cfa 8 - ^
STACK CFI 46f90 .cfa: $rsp 80 +
STACK CFI INIT 4712c 1bd .cfa: $rsp 8 + .ra: .cfa 8 - ^
STACK CFI 4712c .cfa: $rsp 112 +
STACK CFI INIT 472ec 27b .cfa: $rsp 8 + .ra: .cfa 8 - ^
STACK CFI 472ec .cfa: $rsp 128 +
STACK CFI INIT 47568 66 .cfa: $rsp 8 + .ra: .cfa 8 - ^
STACK CFI 47568 .cfa: $rsp 48 +
STACK CFI INIT 475f8 66 .cfa: $rsp 8 + .ra: .cfa 8 - ^
STACK CFI 475f8 .cfa: $rsp 48 +
STACK CFI INIT 47660 27 .cfa: $rsp 8 + .ra: .cfa 8 - ^
STACK CFI 47660 .cfa: $rsp 48 +
STACK CFI INIT 47694 3b .cfa: $rsp 8 + .ra: .cfa 8 - ^
STACK CFI 47694 .cfa: $rsp 48 +
STACK CFI INIT 476d0 29 .cfa: $rsp 8 + .ra: .cfa 8 - ^
STACK CFI 476d0 .cfa: $rsp 48 +
STACK CFI INIT 47704 e7 .cfa: $rsp 8 + .ra: .cfa 8 - ^
STACK CFI 47704 .cfa: $rsp 8 +
STACK CFI INIT 47874 3d .cfa: $rsp 8 + .ra: .cfa 8 - ^
STACK CFI 47874 .cfa: $rsp 48 +
STACK CFI INIT 478b4 1e .cfa: $rsp 8 + .ra: .cfa 8 - ^
STACK CFI 478b4 .cfa: $rsp 48 +
STACK CFI INIT 478d4 53 .cfa: $rsp 8 + .ra: .cfa 8 - ^
STACK CFI 478d4 .cfa: $rsp 48 +
STACK CFI INIT 4797c ce .cfa: $rsp 8 + .ra: .cfa 8 - ^
STACK CFI 4797c .cfa: $rsp 96 +
STACK CFI INIT 47a4c c7 .cfa: $rsp 8 + .ra: .cfa 8 - ^
STACK CFI 47a4c .cfa: $rsp 64 +
STACK CFI INIT 47bb4 36 .cfa: $rsp 8 + .ra: .cfa 8 - ^
STACK CFI 47bb4 .cfa: $rsp 48 +
STACK CFI INIT 47cdc 7a .cfa: $rsp 8 + .ra: .cfa 8 - ^
STACK CFI 47cdc .cfa: $rsp 48 +
STACK CFI INIT 47d64 1d .cfa: $rsp 8 + .ra: .cfa 8 - ^
STACK CFI 47d64 .cfa: $rsp 48 +
STACK CFI INIT 47dd4 39 .cfa: $rsp 8 + .ra: .cfa 8 - ^
STACK CFI 47dd4 .cfa: $rsp 48 +
STACK CFI INIT 47e20 4e .cfa: $rsp 8 + .ra: .cfa 8 - ^
STACK CFI 47e20 .cfa: $rsp 48 +
STACK CFI INIT 47ff8 18a .cfa: $rsp 8 + .ra: .cfa 8 - ^
STACK CFI 47ff8 .cfa: $rsp 112 +
STACK CFI INIT 48184 96 .cfa: $rsp 8 + .ra: .cfa 8 - ^
STACK CFI 48184 .cfa: $rsp 48 +
STACK CFI INIT 48254 28 .cfa: $rsp 8 + .ra: .cfa 8 - ^
STACK CFI 48254 .cfa: $rsp 48 +
STACK CFI INIT 48280 1ea .cfa: $rsp 8 + .ra: .cfa 8 - ^
STACK CFI 48280 .cfa: $rsp 176 +
STACK CFI INIT 48554 2e6 .cfa: $rsp 8 + .ra: .cfa 8 - ^
STACK CFI 48554 .cfa: $rsp 304 +
STACK CFI INIT 4883c 62 .cfa: $rsp 8 + .ra: .cfa 8 - ^
STACK CFI 4883c .cfa: $rsp 48 +
STACK CFI INIT 48910 250 .cfa: $rsp 8 + .ra: .cfa 8 - ^
STACK CFI 48910 .cfa: $rsp 224 +
STACK CFI INIT 48b94 32 .cfa: $rsp 8 + .ra: .cfa 8 - ^
STACK CFI 48b94 .cfa: $rsp 48 +
STACK CFI INIT 48c00 42 .cfa: $rsp 8 + .ra: .cfa 8 - ^
STACK CFI 48c00 .cfa: $rsp 48 +
STACK CFI INIT 48c78 3c .cfa: $rsp 8 + .ra: .cfa 8 - ^
STACK CFI 48c78 .cfa: $rsp 48 +
STACK CFI INIT 48cc0 42 .cfa: $rsp 8 + .ra: .cfa 8 - ^
STACK CFI 48cc0 .cfa: $rsp 48 +
STACK CFI INIT 48d04 1b .cfa: $rsp 8 + .ra: .cfa 8 - ^
STACK CFI 48d04 .cfa: $rsp 48 +
STACK CFI INIT 48d30 87 .cfa: $rsp 8 + .ra: .cfa 8 - ^
STACK CFI 48d30 .cfa: $rsp 48 +
STACK CFI INIT 48db8 30 .cfa: $rsp 8 + .ra: .cfa 8 - ^
STACK CFI 48db8 .cfa: $rsp 48 +
STACK CFI INIT 48de8 ed .cfa: $rsp 8 + .ra: .cfa 8 - ^
STACK CFI 48de8 .cfa: $rsp 80 +
STACK CFI INIT 48ed8 88 .cfa: $rsp 8 + .ra: .cfa 8 - ^
STACK CFI 48ed8 .cfa: $rsp 48 +
STACK CFI INIT 48f60 237 .cfa: $rsp 8 + .ra: .cfa 8 - ^
STACK CFI 48f60 .cfa: $rsp 96 +
STACK CFI INIT 49198 294 .cfa: $rsp 8 + .ra: .cfa 8 - ^
STACK CFI 49198 .cfa: $rsp 160 +
STACK CFI INIT 4942c 13d .cfa: $rsp 8 + .ra: .cfa 8 - ^
STACK CFI 4942c .cfa: $rsp 48 +
STACK CFI INIT 4956c 142 .cfa: $rsp 8 + .ra: .cfa 8 - ^
STACK CFI 4956c .cfa: $rsp 48 +
STACK CFI INIT 496cc 1fe .cfa: $rsp 8 + .ra: .cfa 8 - ^
STACK CFI 496cc .cfa: $rsp 80 +
STACK CFI INIT 498cc 201 .cfa: $rsp 8 + .ra: .cfa 8 - ^
STACK CFI 498cc .cfa: $rsp 80 +
STACK CFI INIT 49ad0 c0 .cfa: $rsp 8 + .ra: .cfa 8 - ^
STACK CFI 49ad0 .cfa: $rsp 48 +
STACK CFI INIT 49b90 c1 .cfa: $rsp 8 + .ra: .cfa 8 - ^
STACK CFI 49b90 .cfa: $rsp 48 +
STACK CFI INIT 49c54 4f0 .cfa: $rsp 8 + .ra: .cfa 8 - ^
STACK CFI 49c54 .cfa: $rsp 368 +
STACK CFI INIT 4a144 50f .cfa: $rsp 8 + .ra: .cfa 8 - ^
STACK CFI 4a144 .cfa: $rsp 464 +
STACK CFI INIT 4a654 d1 .cfa: $rsp 8 + .ra: .cfa 8 - ^
STACK CFI 4a654 .cfa: $rsp 160 +
STACK CFI INIT 4a728 215 .cfa: $rsp 8 + .ra: .cfa 8 - ^
STACK CFI 4a728 .cfa: $rsp 256 +
STACK CFI INIT 4a940 d1 .cfa: $rsp 8 + .ra: .cfa 8 - ^
STACK CFI 4a940 .cfa: $rsp 160 +
STACK CFI INIT 4aa14 2ef .cfa: $rsp 8 + .ra: .cfa 8 - ^
STACK CFI 4aa14 .cfa: $rsp 384 +
STACK CFI INIT 4ad14 15d .cfa: $rsp 8 + .ra: .cfa 8 - ^
STACK CFI 4ad14 .cfa: $rsp 80 +
STACK CFI INIT 4ae78 2b .cfa: $rsp 8 + .ra: .cfa 8 - ^
STACK CFI 4ae78 .cfa: $rsp 48 +
STACK CFI INIT 4aea4 a7 .cfa: $rsp 8 + .ra: .cfa 8 - ^
STACK CFI 4aea4 .cfa: $rsp 608 +
STACK CFI INIT 4af74 1dc .cfa: $rsp 8 + .ra: .cfa 8 - ^
STACK CFI 4af74 .cfa: $rsp 112 +
STACK CFI INIT 4b150 1c8 .cfa: $rsp 8 + .ra: .cfa 8 - ^
STACK CFI 4b150 .cfa: $rsp 272 +
STACK CFI INIT 4b318 179 .cfa: $rsp 8 + .ra: .cfa 8 - ^
STACK CFI 4b318 .cfa: $rsp 144 +
STACK CFI INIT 4b494 20 .cfa: $rsp 8 + .ra: .cfa 8 - ^
STACK CFI 4b494 .cfa: $rsp 48 +
STACK CFI INIT 4b4b4 4c .cfa: $rsp 8 + .ra: .cfa 8 - ^
STACK CFI 4b4b4 .cfa: $rsp 48 +
STACK CFI INIT 4b500 50 .cfa: $rsp 8 + .ra: .cfa 8 - ^
STACK CFI 4b500 .cfa: $rsp 48 +
STACK CFI INIT 4b620 5ab .cfa: $rsp 8 + .ra: .cfa 8 - ^
STACK CFI 4b620 .cfa: $rsp 96 +
STACK CFI INIT 4bbcc 20 .cfa: $rsp 8 + .ra: .cfa 8 - ^
STACK CFI 4bbcc .cfa: $rsp 64 +
STACK CFI INIT 4bbec 30 .cfa: $rsp 8 + .ra: .cfa 8 - ^
STACK CFI 4bbec .cfa: $rsp 64 +
STACK CFI INIT 4bc1c 20 .cfa: $rsp 8 + .ra: .cfa 8 - ^
STACK CFI 4bc1c .cfa: $rsp 64 +
STACK CFI INIT 4bc3c 30 .cfa: $rsp 8 + .ra: .cfa 8 - ^
STACK CFI 4bc3c .cfa: $rsp 64 +
STACK CFI INIT 4bc6c 13 .cfa: $rsp 8 + .ra: .cfa 8 - ^
STACK CFI 4bc6c .cfa: $rsp 64 +
STACK CFI INIT 4bc80 23 .cfa: $rsp 8 + .ra: .cfa 8 - ^
STACK CFI 4bc80 .cfa: $rsp 64 +
STACK CFI INIT 4bca4 21 .cfa: $rsp 8 + .ra: .cfa 8 - ^
STACK CFI 4bca4 .cfa: $rsp 64 +
STACK CFI INIT 4bcc8 31 .cfa: $rsp 8 + .ra: .cfa 8 - ^
STACK CFI 4bcc8 .cfa: $rsp 64 +
STACK CFI INIT 4bcfc 13 .cfa: $rsp 8 + .ra: .cfa 8 - ^
STACK CFI 4bcfc .cfa: $rsp 64 +
STACK CFI INIT 4bd10 23 .cfa: $rsp 8 + .ra: .cfa 8 - ^
STACK CFI 4bd10 .cfa: $rsp 64 +
STACK CFI INIT 4bd34 20 .cfa: $rsp 8 + .ra: .cfa 8 - ^
STACK CFI 4bd34 .cfa: $rsp 64 +
STACK CFI INIT 4bd54 30 .cfa: $rsp 8 + .ra: .cfa 8 - ^
STACK CFI 4bd54 .cfa: $rsp 64 +
STACK CFI INIT 4bd84 20 .cfa: $rsp 8 + .ra: .cfa 8 - ^
STACK CFI 4bd84 .cfa: $rsp 64 +
STACK CFI INIT 4bda4 30 .cfa: $rsp 8 + .ra: .cfa 8 - ^
STACK CFI 4bda4 .cfa: $rsp 64 +
STACK CFI INIT 4bdd4 13 .cfa: $rsp 8 + .ra: .cfa 8 - ^
STACK CFI 4bdd4 .cfa: $rsp 64 +
STACK CFI INIT 4bde8 23 .cfa: $rsp 8 + .ra: .cfa 8 - ^
STACK CFI 4bde8 .cfa: $rsp 64 +
STACK CFI INIT 4be0c 21 .cfa: $rsp 8 + .ra: .cfa 8 - ^
STACK CFI 4be0c .cfa: $rsp 64 +
STACK CFI INIT 4be30 31 .cfa: $rsp 8 + .ra: .cfa 8 - ^
STACK CFI 4be30 .cfa: $rsp 64 +
STACK CFI INIT 4be64 13 .cfa: $rsp 8 + .ra: .cfa 8 - ^
STACK CFI 4be64 .cfa: $rsp 64 +
STACK CFI INIT 4be78 23 .cfa: $rsp 8 + .ra: .cfa 8 - ^
STACK CFI 4be78 .cfa: $rsp 64 +
STACK CFI INIT 4be9c 67 .cfa: $rsp 8 + .ra: .cfa 8 - ^
STACK CFI 4be9c .cfa: $rsp 64 +
STACK CFI INIT 4bf04 c6 .cfa: $rsp 8 + .ra: .cfa 8 - ^
STACK CFI 4bf04 .cfa: $rsp 48 +
STACK CFI INIT 4bfcc 67 .cfa: $rsp 8 + .ra: .cfa 8 - ^
STACK CFI 4bfcc .cfa: $rsp 64 +
STACK CFI INIT 4c034 cb .cfa: $rsp 8 + .ra: .cfa 8 - ^
STACK CFI 4c034 .cfa: $rsp 48 +
STACK CFI INIT 4c100 69 .cfa: $rsp 8 + .ra: .cfa 8 - ^
STACK CFI 4c100 .cfa: $rsp 64 +
STACK CFI INIT 4c16c d4 .cfa: $rsp 8 + .ra: .cfa 8 - ^
STACK CFI 4c16c .cfa: $rsp 64 +
STACK CFI INIT 4c240 69 .cfa: $rsp 8 + .ra: .cfa 8 - ^
STACK CFI 4c240 .cfa: $rsp 64 +
STACK CFI INIT 4c2ac d9 .cfa: $rsp 8 + .ra: .cfa 8 - ^
STACK CFI 4c2ac .cfa: $rsp 64 +
STACK CFI INIT 4c388 46 .cfa: $rsp 8 + .ra: .cfa 8 - ^
STACK CFI 4c388 .cfa: $rsp 48 +
STACK CFI INIT 4c3d0 127 .cfa: $rsp 8 + .ra: .cfa 8 - ^
STACK CFI 4c3d0 .cfa: $rsp 96 +
STACK CFI INIT 4c570 bd .cfa: $rsp 8 + .ra: .cfa 8 - ^
STACK CFI 4c570 .cfa: $rsp 96 +
STACK CFI INIT 4c630 89 .cfa: $rsp 8 + .ra: .cfa 8 - ^
STACK CFI 4c630 .cfa: $rsp 112 +
STACK CFI INIT 4c6bc 35d .cfa: $rsp 8 + .ra: .cfa 8 - ^
STACK CFI 4c6bc .cfa: $rsp 208 +
STACK CFI INIT 4ca24 bb .cfa: $rsp 8 + .ra: .cfa 8 - ^
STACK CFI 4ca24 .cfa: $rsp 96 +
STACK CFI INIT 4cae0 101 .cfa: $rsp 8 + .ra: .cfa 8 - ^
STACK CFI 4cae0 .cfa: $rsp 64 +
STACK CFI INIT 4cbe4 3d .cfa: $rsp 8 + .ra: .cfa 8 - ^
STACK CFI 4cbe4 .cfa: $rsp 48 +
STACK CFI INIT 4cc24 2f .cfa: $rsp 8 + .ra: .cfa 8 - ^
STACK CFI 4cc24 .cfa: $rsp 48 +
STACK CFI INIT 4cc54 de .cfa: $rsp 8 + .ra: .cfa 8 - ^
STACK CFI 4cc54 .cfa: $rsp 8 +
STACK CFI INIT 4cd3c 15 .cfa: $rsp 8 + .ra: .cfa 8 - ^
STACK CFI 4cd3c .cfa: $rsp 48 +
STACK CFI INIT 4cd54 c7 .cfa: $rsp 8 + .ra: .cfa 8 - ^
STACK CFI 4cd54 .cfa: $rsp 96 +
STACK CFI INIT 4ce1c 16c .cfa: $rsp 8 + .ra: .cfa 8 - ^
STACK CFI 4ce1c .cfa: $rsp 64 +
STACK CFI INIT 4cf88 53 .cfa: $rsp 8 + .ra: .cfa 8 - ^
STACK CFI 4cf88 .cfa: $rsp 48 +
STACK CFI INIT 4cfe8 26 .cfa: $rsp 8 + .ra: .cfa 8 - ^
STACK CFI 4cfe8 .cfa: $rsp 48 +
STACK CFI INIT 4d010 55 .cfa: $rsp 8 + .ra: .cfa 8 - ^
STACK CFI 4d010 .cfa: $rsp 48 +
STACK CFI INIT 4d098 76 .cfa: $rsp 8 + .ra: .cfa 8 - ^
STACK CFI 4d098 .cfa: $rsp 48 +
STACK CFI INIT 4d124 3d .cfa: $rsp 8 + .ra: .cfa 8 - ^
STACK CFI 4d124 .cfa: $rsp 48 +
STACK CFI INIT 4d164 52 .cfa: $rsp 8 + .ra: .cfa 8 - ^
STACK CFI 4d164 .cfa: $rsp 80 +
STACK CFI INIT 4d1b8 be .cfa: $rsp 8 + .ra: .cfa 8 - ^
STACK CFI 4d1b8 .cfa: $rsp 80 +
STACK CFI INIT 4d278 3b .cfa: $rsp 8 + .ra: .cfa 8 - ^
STACK CFI 4d278 .cfa: $rsp 80 +
STACK CFI INIT 4d2c0 1c .cfa: $rsp 8 + .ra: .cfa 8 - ^
STACK CFI 4d2c0 .cfa: $rsp 48 +
STACK CFI INIT 4d2dc 27 .cfa: $rsp 8 + .ra: .cfa 8 - ^
STACK CFI 4d2dc .cfa: $rsp 64 +
STACK CFI INIT 4d31c aa .cfa: $rsp 8 + .ra: .cfa 8 - ^
STACK CFI 4d31c .cfa: $rsp 80 +
STACK CFI INIT 4d3e0 40 .cfa: $rsp 8 + .ra: .cfa 8 - ^
STACK CFI 4d3e0 .cfa: $rsp 48 +
STACK CFI INIT 4d430 2a .cfa: $rsp 8 + .ra: .cfa 8 - ^
STACK CFI 4d430 .cfa: $rsp 48 +
STACK CFI INIT 4d460 26 .cfa: $rsp 8 + .ra: .cfa 8 - ^
STACK CFI 4d460 .cfa: $rsp 48 +
STACK CFI INIT 4d490 47 .cfa: $rsp 8 + .ra: .cfa 8 - ^
STACK CFI 4d490 .cfa: $rsp 48 +
STACK CFI INIT 4d4d8 8d .cfa: $rsp 8 + .ra: .cfa 8 - ^
STACK CFI 4d4d8 .cfa: $rsp 48 +
STACK CFI INIT 4d568 25 .cfa: $rsp 8 + .ra: .cfa 8 - ^
STACK CFI 4d568 .cfa: $rsp 48 +
STACK CFI INIT 4d598 1b .cfa: $rsp 8 + .ra: .cfa 8 - ^
STACK CFI 4d598 .cfa: $rsp 48 +
STACK CFI INIT 4d5bc 1b .cfa: $rsp 8 + .ra: .cfa 8 - ^
STACK CFI 4d5bc .cfa: $rsp 48 +
STACK CFI INIT 4d5f4 a0 .cfa: $rsp 8 + .ra: .cfa 8 - ^
STACK CFI 4d5f4 .cfa: $rsp 96 +
STACK CFI INIT 4d694 85 .cfa: $rsp 8 + .ra: .cfa 8 - ^
STACK CFI 4d694 .cfa: $rsp 48 +
STACK CFI INIT 4d71c 40 .cfa: $rsp 8 + .ra: .cfa 8 - ^
STACK CFI 4d71c .cfa: $rsp 48 +
STACK CFI INIT 4d75c a3 .cfa: $rsp 8 + .ra: .cfa 8 - ^
STACK CFI 4d75c .cfa: $rsp 48 +
STACK CFI INIT 4d800 a4 .cfa: $rsp 8 + .ra: .cfa 8 - ^
STACK CFI 4d800 .cfa: $rsp 48 +
STACK CFI INIT 4d8a4 a3 .cfa: $rsp 8 + .ra: .cfa 8 - ^
STACK CFI 4d8a4 .cfa: $rsp 48 +
STACK CFI INIT 4d948 a4 .cfa: $rsp 8 + .ra: .cfa 8 - ^
STACK CFI 4d948 .cfa: $rsp 48 +
STACK CFI INIT 4dce8 147 .cfa: $rsp 8 + .ra: .cfa 8 - ^
STACK CFI 4dce8 .cfa: $rsp 8 +
STACK CFI INIT 4e0d8 137 .cfa: $rsp 8 + .ra: .cfa 8 - ^
STACK CFI 4e0d8 .cfa: $rsp 8 +
STACK CFI INIT 4e414 6e .cfa: $rsp 8 + .ra: .cfa 8 - ^
STACK CFI 4e414 .cfa: $rsp 48 +
STACK CFI INIT 4e490 34 .cfa: $rsp 8 + .ra: .cfa 8 - ^
STACK CFI 4e490 .cfa: $rsp 48 +
STACK CFI INIT 4e720 2be .cfa: $rsp 8 + .ra: .cfa 8 - ^
STACK CFI 4e720 .cfa: $rsp 64 +
STACK CFI INIT 4e9e0 65 .cfa: $rsp 8 + .ra: .cfa 8 - ^
STACK CFI 4e9e0 .cfa: $rsp 96 +
STACK CFI INIT 4ea48 ba .cfa: $rsp 8 + .ra: .cfa 8 - ^
STACK CFI 4ea48 .cfa: $rsp 48 +
STACK CFI INIT 4eb14 133 .cfa: $rsp 8 + .ra: .cfa 8 - ^
STACK CFI 4eb14 .cfa: $rsp 288 +
STACK CFI INIT 4ec64 127 .cfa: $rsp 8 + .ra: .cfa 8 - ^
STACK CFI 4ec64 .cfa: $rsp 288 +
STACK CFI INIT 4edb0 70 .cfa: $rsp 8 + .ra: .cfa 8 - ^
STACK CFI 4edb0 .cfa: $rsp 32 +
STACK CFI INIT 4ee20 9c .cfa: $rsp 8 + .ra: .cfa 8 - ^
STACK CFI 4ee20 .cfa: $rsp 128 +
STACK CFI INIT 4eebc 20 .cfa: $rsp 8 + .ra: .cfa 8 - ^
STACK CFI 4eebc .cfa: $rsp 64 +
STACK CFI INIT 4eedc 20 .cfa: $rsp 8 + .ra: .cfa 8 - ^
STACK CFI 4eedc .cfa: $rsp 64 +
STACK CFI INIT 4eefc 96 .cfa: $rsp 8 + .ra: .cfa 8 - ^
STACK CFI 4eefc .cfa: $rsp 112 +
STACK CFI INIT 4ef94 20 .cfa: $rsp 8 + .ra: .cfa 8 - ^
STACK CFI 4ef94 .cfa: $rsp 64 +
STACK CFI INIT 4efc0 20 .cfa: $rsp 8 + .ra: .cfa 8 - ^
STACK CFI 4efc0 .cfa: $rsp 64 +
STACK CFI INIT 4efe0 87 .cfa: $rsp 8 + .ra: .cfa 8 - ^
STACK CFI 4efe0 .cfa: $rsp 96 +
STACK CFI INIT 4f070 9c .cfa: $rsp 8 + .ra: .cfa 8 - ^
STACK CFI 4f070 .cfa: $rsp 80 +
STACK CFI INIT 4f120 10 .cfa: $rsp 8 + .ra: .cfa 8 - ^
STACK CFI 4f120 .cfa: $rsp 16 +
STACK CFI INIT 4f170 f1 .cfa: $rsp 8 + .ra: .cfa 8 - ^
STACK CFI 4f170 .cfa: $rsp 256 +
STACK CFI INIT 4f264 106 .cfa: $rsp 8 + .ra: .cfa 8 - ^
STACK CFI 4f264 .cfa: $rsp 272 +
STACK CFI INIT 4f3b8 2e .cfa: $rsp 8 + .ra: .cfa 8 - ^
STACK CFI 4f3b8 .cfa: $rsp 48 +
STACK CFI INIT 4f3e8 267 .cfa: $rsp 8 + .ra: .cfa 8 - ^
STACK CFI 4f3e8 .cfa: $rsp 112 +
STACK CFI INIT 4f650 2a .cfa: $rsp 8 + .ra: .cfa 8 - ^
STACK CFI 4f650 .cfa: $rsp 80 +
STACK CFI INIT 4f67c 27 .cfa: $rsp 8 + .ra: .cfa 8 - ^
STACK CFI 4f67c .cfa: $rsp 80 +
STACK CFI INIT 4f6a4 d4 .cfa: $rsp 8 + .ra: .cfa 8 - ^
STACK CFI 4f6a4 .cfa: $rsp 96 +
STACK CFI INIT 4f7ac 30d .cfa: $rsp 8 + .ra: .cfa 8 - ^
STACK CFI 4f7ac .cfa: $rsp 48 +
STACK CFI INIT 4fabc 1d .cfa: $rsp 8 + .ra: .cfa 8 - ^
STACK CFI 4fabc .cfa: $rsp 48 +
STACK CFI INIT 4fadc 7c .cfa: $rsp 8 + .ra: .cfa 8 - ^
STACK CFI 4fadc .cfa: $rsp 48 +
STACK CFI INIT 4fb58 11 .cfa: $rsp 8 + .ra: .cfa 8 - ^
STACK CFI 4fb58 .cfa: $rsp 48 +
STACK CFI INIT 4fb6c 1f .cfa: $rsp 8 + .ra: .cfa 8 - ^
STACK CFI 4fb6c .cfa: $rsp 48 +
STACK CFI INIT 4fb8c 1e .cfa: $rsp 8 + .ra: .cfa 8 - ^
STACK CFI 4fb8c .cfa: $rsp 64 +
STACK CFI INIT 4fbc8 133 .cfa: $rsp 8 + .ra: .cfa 8 - ^
STACK CFI 4fbc8 .cfa: $rsp 96 +
STACK CFI INIT 4fd04 200 .cfa: $rsp 8 + .ra: .cfa 8 - ^
STACK CFI 4fd04 .cfa: $rsp 128 +
STACK CFI INIT 50190 2 .cfa: $rsp 8 + .ra: .cfa 8 - ^
STACK CFI 50190 .cfa: $rsp 8 +
STACK CFI INIT 501b0 6 .cfa: $rsp 8 + .ra: .cfa 8 - ^
STACK CFI 501b0 .cfa: $rsp 8 +
STACK CFI INIT 501b6 17 .cfa: $rsp 8 + .ra: .cfa 8 - ^
STACK CFI 501b6 .cfa: $rsp 48 +
STACK CFI INIT 501cd 19 .cfa: $rsp 8 + .ra: .cfa 8 - ^
STACK CFI 501cd .cfa: $rsp 48 +
STACK CFI INIT 501e6 14 .cfa: $rsp 8 + .ra: .cfa 8 - ^
STACK CFI 501e6 .cfa: $rsp 48 +
STACK CFI INIT 501fa 36 .cfa: $rsp 8 + .ra: .cfa 8 - ^
STACK CFI 501fa .cfa: $rsp 64 +
STACK CFI INIT 50230 18 .cfa: $rsp 8 + .ra: .cfa 8 - ^
STACK CFI 50230 .cfa: $rsp 16 +
STACK CFI INIT 50248 96 .cfa: $rsp 8 + .ra: .cfa 8 - ^
STACK CFI 50248 .cfa: $rsp 64 +
STACK CFI INIT 502de 1b .cfa: $rsp 8 + .ra: .cfa 8 - ^
STACK CFI 502de .cfa: $rsp 48 +
STACK CFI INIT 502f9 1b .cfa: $rsp 8 + .ra: .cfa 8 - ^
STACK CFI 502f9 .cfa: $rsp 48 +
STACK CFI INIT 50314 1b .cfa: $rsp 8 + .ra: .cfa 8 - ^
STACK CFI 50314 .cfa: $rsp 48 +
STACK CFI INIT 5032f 1b .cfa: $rsp 8 + .ra: .cfa 8 - ^
STACK CFI 5032f .cfa: $rsp 48 +
STACK CFI INIT 5034a 1b .cfa: $rsp 8 + .ra: .cfa 8 - ^
STACK CFI 5034a .cfa: $rsp 48 +
STACK CFI INIT 50365 1b .cfa: $rsp 8 + .ra: .cfa 8 - ^
STACK CFI 50365 .cfa: $rsp 48 +
STACK CFI INIT 50380 1a .cfa: $rsp 8 + .ra: .cfa 8 - ^
STACK CFI 50380 .cfa: $rsp 48 +
STACK CFI INIT 5039a 1b .cfa: $rsp 8 + .ra: .cfa 8 - ^
STACK CFI 5039a .cfa: $rsp 48 +
STACK CFI INIT 503b5 1a .cfa: $rsp 8 + .ra: .cfa 8 - ^
STACK CFI 503b5 .cfa: $rsp 48 +
STACK CFI INIT 503cf 1a .cfa: $rsp 8 + .ra: .cfa 8 - ^
STACK CFI 503cf .cfa: $rsp 48 +
STACK CFI INIT 503e9 18 .cfa: $rsp 8 + .ra: .cfa 8 - ^
STACK CFI 503e9 .cfa: $rsp 48 +
STACK CFI INIT 50401 2b .cfa: $rsp 8 + .ra: .cfa 8 - ^
STACK CFI 50401 .cfa: $rsp 48 +
STACK CFI INIT 5042c 2b .cfa: $rsp 8 + .ra: .cfa 8 - ^
STACK CFI 5042c .cfa: $rsp 48 +
STACK CFI INIT 50457 1b .cfa: $rsp 8 + .ra: .cfa 8 - ^
STACK CFI 50457 .cfa: $rsp 48 +
STACK CFI INIT 50480 20 .cfa: $rsp 8 + .ra: .cfa 8 - ^
STACK CFI 50480 .cfa: $rsp 48 +
STACK CFI INIT 504ac 16 .cfa: $rsp 8 + .ra: .cfa 8 - ^
STACK CFI 504ac .cfa: $rsp 48 +
STACK CFI INIT 504c2 1a .cfa: $rsp 8 + .ra: .cfa 8 - ^
STACK CFI 504c2 .cfa: $rsp 48 +
STACK CFI INIT 504dc 1a .cfa: $rsp 8 + .ra: .cfa 8 - ^
STACK CFI 504dc .cfa: $rsp 48 +
STACK CFI INIT 504f6 1a .cfa: $rsp 8 + .ra: .cfa 8 - ^
STACK CFI 504f6 .cfa: $rsp 48 +
STACK CFI INIT 50510 1a .cfa: $rsp 8 + .ra: .cfa 8 - ^
STACK CFI 50510 .cfa: $rsp 48 +
STACK CFI INIT 5052a 1a .cfa: $rsp 8 + .ra: .cfa 8 - ^
STACK CFI 5052a .cfa: $rsp 48 +
STACK CFI INIT 50544 19 .cfa: $rsp 8 + .ra: .cfa 8 - ^
STACK CFI 50544 .cfa: $rsp 48 +
STACK CFI INIT 5055d 1a .cfa: $rsp 8 + .ra: .cfa 8 - ^
STACK CFI 5055d .cfa: $rsp 48 +
STACK CFI INIT 50577 19 .cfa: $rsp 8 + .ra: .cfa 8 - ^
STACK CFI 50577 .cfa: $rsp 48 +
STACK CFI INIT 50590 16 .cfa: $rsp 8 + .ra: .cfa 8 - ^
STACK CFI 50590 .cfa: $rsp 48 +
STACK CFI INIT 505a6 16 .cfa: $rsp 8 + .ra: .cfa 8 - ^
STACK CFI 505a6 .cfa: $rsp 48 +
STACK CFI INIT 505bc 1a .cfa: $rsp 8 + .ra: .cfa 8 - ^
STACK CFI 505bc .cfa: $rsp 48 +
STACK CFI INIT 505d6 19 .cfa: $rsp 8 + .ra: .cfa 8 - ^
STACK CFI 505d6 .cfa: $rsp 48 +
STACK CFI INIT 505ef 21 .cfa: $rsp 8 + .ra: .cfa 8 - ^
STACK CFI 505ef .cfa: $rsp 48 +
STACK CFI INIT 50610 19 .cfa: $rsp 8 + .ra: .cfa 8 - ^
STACK CFI 50610 .cfa: $rsp 48 +
STACK CFI INIT 50629 1b .cfa: $rsp 8 + .ra: .cfa 8 - ^
STACK CFI 50629 .cfa: $rsp 48 +
STACK CFI INIT 50644 1d .cfa: $rsp 8 + .ra: .cfa 8 - ^
STACK CFI 50644 .cfa: $rsp 48 +
STACK CFI INIT 50661 1b .cfa: $rsp 8 + .ra: .cfa 8 - ^
STACK CFI 50661 .cfa: $rsp 48 +
STACK CFI INIT 5067c 18 .cfa: $rsp 8 + .ra: .cfa 8 - ^
STACK CFI 5067c .cfa: $rsp 48 +
STACK CFI INIT 50694 1a .cfa: $rsp 8 + .ra: .cfa 8 - ^
STACK CFI 50694 .cfa: $rsp 48 +
STACK CFI INIT 506ae 1a .cfa: $rsp 8 + .ra: .cfa 8 - ^
STACK CFI 506ae .cfa: $rsp 48 +
STACK CFI INIT 506c8 1a .cfa: $rsp 8 + .ra: .cfa 8 - ^
STACK CFI 506c8 .cfa: $rsp 48 +
STACK CFI INIT 506e2 1a .cfa: $rsp 8 + .ra: .cfa 8 - ^
STACK CFI 506e2 .cfa: $rsp 48 +
STACK CFI INIT 506fc 21 .cfa: $rsp 8 + .ra: .cfa 8 - ^
STACK CFI 506fc .cfa: $rsp 48 +
STACK CFI INIT 5071d 1a .cfa: $rsp 8 + .ra: .cfa 8 - ^
STACK CFI 5071d .cfa: $rsp 48 +
STACK CFI INIT 50737 19 .cfa: $rsp 8 + .ra: .cfa 8 - ^
STACK CFI 50737 .cfa: $rsp 48 +
STACK CFI INIT 50750 19 .cfa: $rsp 8 + .ra: .cfa 8 - ^
STACK CFI 50750 .cfa: $rsp 48 +
STACK CFI INIT 50769 1a .cfa: $rsp 8 + .ra: .cfa 8 - ^
STACK CFI 50769 .cfa: $rsp 48 +
STACK CFI INIT 50783 19 .cfa: $rsp 8 + .ra: .cfa 8 - ^
STACK CFI 50783 .cfa: $rsp 48 +
STACK CFI INIT 5079c 17 .cfa: $rsp 8 + .ra: .cfa 8 - ^
STACK CFI 5079c .cfa: $rsp 48 +
STACK CFI INIT 507b3 91 .cfa: $rsp 8 + .ra: .cfa 8 - ^
STACK CFI 507b3 .cfa: $rsp 96 +
STACK CFI INIT 50844 9f .cfa: $rsp 8 + .ra: .cfa 8 - ^
STACK CFI 50844 .cfa: $rsp 96 +
STACK CFI INIT 508e3 19 .cfa: $rsp 8 + .ra: .cfa 8 - ^
STACK CFI 508e3 .cfa: $rsp 48 +
STACK CFI INIT 508fc 19 .cfa: $rsp 8 + .ra: .cfa 8 - ^
STACK CFI 508fc .cfa: $rsp 48 +
STACK CFI INIT 50915 19 .cfa: $rsp 8 + .ra: .cfa 8 - ^
STACK CFI 50915 .cfa: $rsp 48 +
STACK CFI INIT 5092e 41 .cfa: $rsp 8 + .ra: .cfa 8 - ^
STACK CFI 5092e .cfa: $rsp 48 +
STACK CFI INIT 5096f 1a .cfa: $rsp 8 + .ra: .cfa 8 - ^
STACK CFI 5096f .cfa: $rsp 48 +
STACK CFI INIT 50989 19 .cfa: $rsp 8 + .ra: .cfa 8 - ^
STACK CFI 50989 .cfa: $rsp 48 +
STACK CFI INIT 509a2 47 .cfa: $rsp 8 + .ra: .cfa 8 - ^
STACK CFI 509a2 .cfa: $rsp 80 +
STACK CFI INIT 509e9 47 .cfa: $rsp 8 + .ra: .cfa 8 - ^
STACK CFI 509e9 .cfa: $rsp 80 +
STACK CFI INIT 50a30 53 .cfa: $rsp 8 + .ra: .cfa 8 - ^
STACK CFI 50a30 .cfa: $rsp 80 +
STACK CFI INIT 50a83 53 .cfa: $rsp 8 + .ra: .cfa 8 - ^
STACK CFI 50a83 .cfa: $rsp 80 +
STACK CFI INIT 50ad6 17 .cfa: $rsp 8 + .ra: .cfa 8 - ^
STACK CFI 50ad6 .cfa: $rsp 48 +
STACK CFI INIT 50aed 17 .cfa: $rsp 8 + .ra: .cfa 8 - ^
STACK CFI 50aed .cfa: $rsp 48 +
STACK CFI INIT 50b04 1a .cfa: $rsp 8 + .ra: .cfa 8 - ^
STACK CFI 50b04 .cfa: $rsp 48 +
STACK CFI INIT 50b1e 17 .cfa: $rsp 8 + .ra: .cfa 8 - ^
STACK CFI 50b1e .cfa: $rsp 48 +
STACK CFI INIT 50b35 25 .cfa: $rsp 8 + .ra: .cfa 8 - ^
STACK CFI 50b35 .cfa: $rsp 48 +
STACK CFI INIT 50b5a 78 .cfa: $rsp 8 + .ra: .cfa 8 - ^
STACK CFI 50b5a .cfa: $rsp 64 +
STACK CFI INIT 50bd2 2f .cfa: $rsp 8 + .ra: .cfa 8 - ^
STACK CFI 50bd2 .cfa: $rsp 48 +
STACK CFI INIT 50c01 83 .cfa: $rsp 8 + .ra: .cfa 8 - ^
STACK CFI 50c01 .cfa: $rsp 64 +
STACK CFI INIT 50c84 16 .cfa: $rsp 8 + .ra: .cfa 8 - ^
STACK CFI 50c84 .cfa: $rsp 48 +
STACK CFI INIT 50c9a 23 .cfa: $rsp 8 + .ra: .cfa 8 - ^
STACK CFI 50c9a .cfa: $rsp 48 +
STACK CFI INIT 50cbd 16 .cfa: $rsp 8 + .ra: .cfa 8 - ^
STACK CFI 50cbd .cfa: $rsp 64 +
STACK CFI INIT 50cd3 23 .cfa: $rsp 8 + .ra: .cfa 8 - ^
STACK CFI 50cd3 .cfa: $rsp 64 +
STACK CFI INIT 50cf6 17 .cfa: $rsp 8 + .ra: .cfa 8 - ^
STACK CFI 50cf6 .cfa: $rsp 48 +
STACK CFI INIT 50d0d 1a .cfa: $rsp 8 + .ra: .cfa 8 - ^
STACK CFI 50d0d .cfa: $rsp 48 +
STACK CFI INIT 50d27 2c .cfa: $rsp 8 + .ra: .cfa 8 - ^
STACK CFI 50d27 .cfa: $rsp 48 +
STACK CFI INIT 50d53 2c .cfa: $rsp 8 + .ra: .cfa 8 - ^
STACK CFI 50d53 .cfa: $rsp 48 +
