MODULE windows x86_64 BD298DA990CD4BF9BE5CE4796D7924C61 ntdll.pdb
INFO CODE_ID 5D6AA5581AD000 ntdll.dll
FUNC 14600 ec 0 RtlCompressBufferLZNT1
FUNC 146f4 2e5 0 LZNT1CompressChunk
PUBLIC 149e0 0 LZNT1FindMatchStandard
FUNC 14b30 84 0 RtlDecompressBuffer
FUNC 14bc0 138 0 RtlDecompressBufferLZNT1
FUNC 14d00 f8 0 Normalization__AppendDecomposedChar
FUNC 14e00 72 0 RtlStringCopyWorkerW
FUNC 14e80 19 0 RtlCompressWorkSpaceSizeLZNT1
FUNC 14ea0 85 0 RtlPrefixString
FUNC 14f2c a8 0 RtlpTreeDoubleRotateNodes
FUNC 14ff0 1e6 0 TpAllocIoCompletion
PUBLIC 151dc 0 TpBindFileToDirect
PUBLIC 1525c 0 WerpPathTail
PUBLIC 152c0 0 RtlWnfDllUnloadCallback
FUNC 152d0 174 0 RtlWaitForWnfMetaNotification
FUNC 1544c 63 0 RtlpWaitOnAddressWithTimeout
PUBLIC 154c0 0 RtlUserThreadStart
PUBLIC 1552c 0 WerpProcessId
FUNC 15560 1f3 0 WerpGlobalFlagsForProcess
FUNC 1575c a6 0 LdrpReleaseTlsEntry
FUNC 15808 47 0 TppWaitTimerExpiration
FUNC 15860 3d 0 TppExecuteWaitTimerCallback
FUNC 158b0 137 0 TpAllocWork
PUBLIC 159f0 0 TppCleanupGroupAddMember
FUNC 15a60 102 0 TppDirectExecuteCallback
FUNC 15b68 15 0 TppFreeDirectParams
PUBLIC 15b84 0 RtlpDecrementWnfSerializationGroup
FUNC 15c10 140 0 LdrpIsReparsePoint
FUNC 15d60 cb 0 RtlWaitOnAddress
PUBLIC 15e34 0 RtlpAddWaitBlockToWaitList
FUNC 15ea4 14d 0 RtlpWaitOnAddressRemoveWaitBlock
PUBLIC 16000 0 RtlUnsubscribeWnfNotificationWaitForCompletion
PUBLIC 16060 0 RtlWakeAddressAll
FUNC 1607c 152 0 RtlpWakeByAddress
PUBLIC 161d4 0 LdrpIncrementNodeDependencyCount
PUBLIC 16200 0 RtlUnsubscribeWnfStateChangeNotification
FUNC 16220 141 0 RtlpRemoveUserSubFromNameSub
FUNC 16368 182 0 LdrpGetDataModulePath
FUNC 164f0 e1 0 LdrpGetLoadAsEntry
FUNC 165e0 12e 0 TpSimpleTryPost
FUNC 16720 ab 0 TppSimplepExecuteCallback
FUNC 167d4 69 0 RtlStringCbPrintfA
PUBLIC 16844 0 LdrpRemoveAlternateModuleCacheItem
FUNC 168e0 11c 0 RtlpWnfNotificationThread
FUNC 16a04 1ae 0 RtlpWnfProcessCurrentDescriptor
FUNC 16bb8 3f8 0 RtlpWnfWalkUserSubscriptionList
PUBLIC 16fb8 0 RtlpDecRefWnfUserSubscription
FUNC 1707c c4 0 RtlpDecRefWnfNameSubscription
FUNC 17148 369 0 LdrpMergeNodes
PUBLIC 174b8 0 LdrpDecrementNodeDependencyCount
FUNC 1752c 1b0 0 LdrpUnloadNode
PUBLIC 176f0 0 LdrUnloadAlternateResourceModule
FUNC 17700 221 0 LdrUnloadAlternateResourceModuleEx
FUNC 17928 143 0 LdrpProcessDetachNode
PUBLIC 17a74 0 LdrpRecordUnloadEvent
PUBLIC 17c8c 0 WerEscalationReadImageVersionInfoForModuleBaseSafe
PUBLIC 17d0c 0 GetResourceDirectoryEntry
PUBLIC 17d50 0 WerEscalationReadImageVersionInfoForModuleBase
PUBLIC 17fe4 0 ValidatePointer
PUBLIC 18020 0 FindDirectoryEntry
FUNC 1808c a9 0 RtlCreateInvertedFunctionTableCacheEntry
PUBLIC 1813c 0 RtlRemoveInvertedFunctionTable
FUNC 18208 117 0 LdrpDoDeferredNodeRemoval
FUNC 18330 15f 0 RtlReportSilentProcessExit
FUNC 184a0 a9 0 RtlExitUserProcess
FUNC 18550 53 0 SbCleanupTrace
PUBLIC 185b0 0 RtlExitUserThread
FUNC 18610 85 0 TpCheckTerminateWorker
FUNC 186a0 30b 0 RtlVerifyVersionInfo
FUNC 189b4 ef 0 RtlpVerCompare
PUBLIC 18aac 0 RtlpVerGetConditionMask
PUBLIC 18ad0 0 LdrFindEntryForAddress
FUNC 18b20 ca 0 RtlpTpTimerCallback
PUBLIC 18bf0 0 LdrGetDllHandleByName
PUBLIC 18c90 0 LdrInitializeThunk
FUNC 18cb8 32 0 LdrpInitialize
FUNC 18cf0 e9 0 LdrpInitialize
PUBLIC 18de0 0 SbAtomicCaptureContextGuid
FUNC 18ea0 bb 0 TppTimerpExecuteCallback
FUNC 18f70 266 0 TppTimerQueueExpiration
FUNC 191dc 15b 0 TppSingleTimerExpiration
FUNC 19340 15c 0 TppWorkCallbackPrologRelease
FUNC 194a4 a9 0 TppWorkPost
FUNC 19560 c1 0 TppWaitCompletion
FUNC 19628 f7 0 TppExecuteWaitCallback
FUNC 19728 b3 0 LdrpFindLoadedDllByAddress
FUNC 197f0 304 0 RtlQueueWorkItem
FUNC 19b00 66 0 LdrAddRefDll
FUNC 19b6c 1a9 0 LdrpPrepareModuleForExecution
FUNC 19d1c 91 0 LdrpIncrementNodeLoadCount
FUNC 19dc0 173 0 RtlPcToFileHeader
PUBLIC 19f40 0 LdrpCompareModuleBaseAddressRange
PUBLIC 19f70 0 RtlTryAcquireSRWLockExclusive
PUBLIC 19f80 0 TpReserveTaskPost
FUNC 1a000 66 0 LdrpDynamicShimModule
FUNC 1a06c 15c 0 SbpDetermineDllContext
FUNC 1a1d0 79 0 LdrpNotifyLoadOfGraph
FUNC 1a250 140 0 LdrpSendPostSnapNotifications
PUBLIC 1a398 0 LdrpSendDllNotifications
FUNC 1a438 c6 0 LdrpCheckModule
FUNC 1a504 247 0 SbUpdateSwitchContextBasedOnDll
FUNC 1a760 d6 0 SbSelectProcedure
FUNC 1a83c 87 0 SbpSelectCachedProc
FUNC 1a8cc 80 0 SbpTraceSbCall
FUNC 1a954 80 0 SbpTraceSbImpl
FUNC 1a9dc 72 0 SbObtainTraceHandle
PUBLIC 1aa54 0 SbGetContextDetailsByGuid
PUBLIC 1aabc 0 SbGetContextDetailsById
FUNC 1aae4 160 0 SbpUpdateCache
FUNC 1ac4c 17b 0 SbpUpdateCacheWithCurrentImpl
PUBLIC 1add0 0 SbpFindMatchingContext
FUNC 1ae0c 82 0 SbGetContextDetailsByVersion
FUNC 1aea0 102 0 RtlGetVersion
PUBLIC 1afa8 0 LdrpCondenseGraphRecurse
FUNC 1b0e0 4e 0 RtlGetNtProductType
FUNC 1b140 206 0 RtlpTpWorkCallback
FUNC 1b34c 8a 0 TppStartThreadData
FUNC 1b3e0 265 0 LdrShutdownProcess
FUNC 1b64c c6 0 LdrpInitializeGraph
FUNC 1b718 2a4 0 LdrpInitializeNode
PUBLIC 1b9c4 0 LdrpFreeSnapContext
FUNC 1ba20 259 0 LdrShutdownThread
FUNC 1bc80 225 0 LdrpInitializeThread
FUNC 1beb0 144 0 RtlDeactivateActivationContextUnsafeFast
FUNC 1c000 bf 0 RtlActivateActivationContextUnsafeFast
FUNC 1c0c8 81 0 LdrpCallInitRoutine
PUBLIC 1c150 0 TppCompleteThreadData
PUBLIC 1c190 0 LdrUnloadDll
FUNC 1c1e4 db 0 LdrpDecrementNodeLoadCount
FUNC 1c2d0 d0 0 RtlpTpWorkUnposted
FUNC 1c3a8 5e 0 TpUnreserveTaskPost
PUBLIC 1c40c 0 LdrpAddNodeServiceTag
FUNC 1c4a0 c4 0 RtlGetActiveActivationContext
FUNC 1c570 1dd 0 TppIopExecuteCallback
PUBLIC 1c754 0 TppCleanupGroupMemberCallbackProlog
PUBLIC 1c7e4 0 TppCleanupGroupMemberAddCallback
PUBLIC 1c7fc 0 TppPHDelete
FUNC 1c868 ad 0 TppPHExtractMin
PUBLIC 1c920 0 EtwEventUnregister
FUNC 1c930 41 0 EtwUnregisterTraceGuids
PUBLIC 1c980 0 EtwNotificationUnregister
PUBLIC 1ca5c 0 EtwpFreeRegistration
PUBLIC 1ca98 0 EtwpRemoveRegistrationFromTable
PUBLIC 1caf0 0 RtlRbRemoveNode
FUNC 1ce00 61 0 TpCallbackMayRunLong
FUNC 1ce68 102 0 TppCallbackMayRunLongProlog
PUBLIC 1cf70 0 LdrpCallTlsInitializers
PUBLIC 1d064 0 LdrpFindTlsEntry
FUNC 1d08c 1a8 0 LdrpAllocateTls
PUBLIC 1d23c 0 LdrpComputeTlsSizeAndAlignment
PUBLIC 1d280 0 RtlAllocateActivationContextStack
FUNC 1d2fc f8 0 SbpRetrieveCompatibilityManifest
FUNC 1d3fc 16b 0 LdrpMarkNodeForRemoval
PUBLIC 1d570 0 LdrpPinNode
PUBLIC 1d5d8 0 LdrpPinNodeRecurse
PUBLIC 1d640 0 RtlFreeThreadActivationContextStack
PUBLIC 1d680 0 RtlFreeActivationContextStack
PUBLIC 1d75c 0 LdrpFreeTls
PUBLIC 1d818 0 LdrpCleanupThreadTlsData
FUNC 1d8f0 17c 0 RtlProcessFlsData
FUNC 1da74 6b 0 LdrpGetNewTlsVector
FUNC 1dae8 12e 0 LdrpInitializeTls
FUNC 1dc20 2b 0 RtlDetectHeapLeaks
FUNC 1dc60 11e 0 RtlpTpWaitCallback
PUBLIC 1dd84 0 RtlpTpWaitCheckReset
PUBLIC 1ddf0 0 TpReleaseWait
FUNC 1deb0 254 0 RtlRegisterWait
FUNC 1e110 1a0 0 TpAllocWait
PUBLIC 1e2c0 0 TpSetWait
FUNC 1e2d0 f5 0 TpSetWaitEx
FUNC 1e3cc d5 0 TppCancelWait
FUNC 1e4a8 49 0 TppWaitpValidateWait
FUNC 1e4f8 d3 0 TppSetupNextWait
FUNC 1e5e0 a4 0 EtwpRegisterTpNotificationOnce
PUBLIC 1e690 0 EtwRegisterTraceGuidsA
FUNC 1e6d0 19c 0 CsrClientConnectToServer
FUNC 1e874 3d6 0 CsrpConnectToServer
PUBLIC 1ec50 0 RtlpGetLFHContext
PUBLIC 1ecb0 0 RtlpInitializeSegmentInfoForBucket
FUNC 1ed04 c8 0 RtlpExtendLowFragHeapSegment
FUNC 1ede0 a0 0 RtlRandomEx
PUBLIC 1ee88 0 RtlpPerformHeapMaintenance
PUBLIC 1eedc 0 RtlpActivateLowFragmentationHeap
PUBLIC 1f0dc 0 RtlpExtendListLookup
FUNC 1f1a0 f5 0 RtlInitializeResource
FUNC 1f29c 10a 0 LdrEnsureMrdataHeapExists
FUNC 1f3ac 1dd 0 RtlpCreateLowFragHeap
FUNC 1f590 155 0 RtlDestroyHeap
FUNC 1f6ec 87 0 RtlpDestroyHeapSegment
FUNC 1f780 ac8 0 RtlCreateHeap
FUNC 20250 16b 0 RtlDeleteFunctionTable
FUNC 203d0 1b3 0 RtlAddFunctionTable
PUBLIC 2058c 0 RtlGuardCheckImageBase
PUBLIC 20610 0 RtlProtectHeap
FUNC 206c4 ed 0 RtlpProtectHeap
PUBLIC 207b8 0 RtlpMoveHeapBetweenLists
FUNC 20854 b9 0 RtlpCommitBlock
FUNC 20914 7f 0 RtlpGetHeapProtection
FUNC 2099c b8 0 RtlpCollectFreeBlocks
FUNC 20a5c ed 0 RtlpDecommitBlock
PUBLIC 20b50 0 RtlpGetFreeBlockInsidePageBoundaries
FUNC 20ba4 4a 0 RtlpSecMemFreeVirtualMemory
FUNC 20bf4 dc 0 RtlpAddHeapToUnprotectedList
PUBLIC 20cd8 0 RtlpRemoveHeapFromUnprotectedList
FUNC 20de0 5d 0 RtlpAddHeapToProtectedList
PUBLIC 20e44 0 RtlpRemoveHeapFromProtectedList
FUNC 20eb0 18a 0 RtlpPopulateListIndex
FUNC 21040 1dd 0 RtlpInitializeHeapSegment
FUNC 21224 14b 0 RtlpCreateUCREntry
FUNC 21378 a0 0 RtlpInsertUCRBlock
PUBLIC 21420 0 RtlpUpdateUCRIndexInsert
FUNC 2147c 8a 0 RtlpFindUCREntry
PUBLIC 2150c 0 RtlpCreateHeapEncoding
FUNC 21568 140 0 RtlpHeapRemoveListEntry
FUNC 216b0 f6 0 RtlInitializeCriticalSectionEx
FUNC 217ac c4 0 RtlpAddDebugInfoToCriticalSection
FUNC 21878 31 0 RtlLogStackBackTraceEx
PUBLIC 218b0 0 RtlpAllocateDebugInfo
PUBLIC 218f4 0 RtlpInitializeLowFragHeap
FUNC 219a0 66 0 RtlQueryResourcePolicy
PUBLIC 21a0c 0 RtlpQueryPhysicalMemoryPolicy
FUNC 21a70 ce 0 EtwRegisterTraceGuidsW
PUBLIC 21b50 0 EtwEventRegister
PUBLIC 21ba0 0 EtwNotificationRegister
FUNC 21ca0 12f 0 EtwpRegisterProvider
PUBLIC 21de0 0 RtlDllShutdownInProgress
FUNC 21df4 fa 0 EtwpAllocateRegistration
PUBLIC 21ef4 0 EtwpInsertRegistration
PUBLIC 21fa0 0 EtwpRegistrationCompare
FUNC 21ff0 c6 0 EtwpUpdateEnableInfoAndCallback
FUNC 220c0 cd 0 RtlRunOnceExecuteOnce
FUNC 221a0 d1 0 RtlRunOnceBeginInitialize
FUNC 22280 d9 0 RtlRunOnceComplete
FUNC 22360 ca 0 EtwpCreateRegGuidsContext
FUNC 22430 c4 0 RtlpTestHookInitialize
FUNC 224fc 92 0 RtlpExtendFrontEndUsageArray
FUNC 22594 111 0 EtwpEventApiCallback
PUBLIC 226b0 0 RtlpInitializeLangRegistryInfo
FUNC 226dc 149 0 RtlpMuiRegDeserializeRegistryInfo
FUNC 2282c 12d 0 RtlpMuiRegCreateAndLoadRegistryInfo
FUNC 22960 fa 0 RtlpMuiRegAddNeutralToInstalled
FUNC 22a60 11a 0 RtlpMuiRegAddNeutralLanguage
FUNC 22b80 94 0 RtlpMuiRegGetLanguageSpec
FUNC 22c1c 115 0 RtlpPopulateLanguageConfigList
PUBLIC 22d38 0 RtlpMuiRegCreateLanguageConfigList
FUNC 22da0 ae 0 RtlpLoadUserUIByPolicy
FUNC 22e54 58c 0 LdrpSetAlternateResourceModuleHandle
PUBLIC 233e8 0 WinSqmGetProcessHashValue
FUNC 23500 e0 0 RtlpMuiRegLoadRegistryInfo
FUNC 235f0 21f 0 RtlpMuiRegFreeRegistryInfo
FUNC 23818 5a 0 RtlpInitMuiCriticalSection
FUNC 23878 1af 0 RtlpLoadLanguageConfigList
FUNC 23a30 370 0 RtlpMuiRegLoadPreferredUILanguages
PUBLIC 23da8 0 LdrpOpenKey
FUNC 23df4 144 0 LdrpQueryValueKey
PUBLIC 23f40 0 RtlOpenCurrentUser
FUNC 24018 3a2 0 LdrResFallbackLangList
FUNC 243c0 e1 0 RtlpResUltimateFallbackInfo
FUNC 244b0 424 0 LdrResGetRCConfig
FUNC 248e0 138 0 RtlpQueryDefaultUILanguage
FUNC 24a20 bd 0 InitializeUserOrMachineLangList
FUNC 24ae4 14f 0 RtlpSetProcUserMachineLangList
FUNC 24c3c 26a 0 InitializeTEBUserLangList
FUNC 24eac 7f 0 GetLCIDFromLangListNode
FUNC 24f40 21a 0 RtlGetSystemPreferredUILanguages
FUNC 25160 148 0 RtlpConsoleFallbackNameFromLocaleName
FUNC 252b0 2e1 0 RtlpComputeLangListCheckSum
PUBLIC 255a0 0 RtlUpcaseUnicodeChar
PUBLIC 25600 0 RtlIntegerToUnicodeString
FUNC 25690 fc 0 RtlIntegerToChar
FUNC 257a0 113 0 RtlUpcaseUnicodeString
FUNC 258bc 4f 0 RtlpIsALicensedLIPLanguage
FUNC 25920 11b 0 RtlGetParentLocaleName
FUNC 25a44 1c8 0 RtlpFilterandReplaceConsoleLanguages
FUNC 25c20 c2 0 LdrGetDllFullName
FUNC 25ce8 14b 0 RtlpMUIRegPatchLicenseInfortmation
FUNC 25e3c 60 0 RtlpIsALicensedRegularLanguage
PUBLIC 25ea4 0 RtlpLangNameInMultiSzString
PUBLIC 25f10 0 LdrResFindResourceDirectory
FUNC 25f94 23b 0 RtlpAddNeutralsToMergedList
FUNC 261d8 11e 0 RtlGetNeutralFallback
FUNC 26300 1b0 0 LdrpResGetMappingSize
FUNC 264c0 2d1 0 LdrResSearchResource
FUNC 267a0 b4 0 RtlpGetSystemDefaultUILanguage
FUNC 2685c 7cb 0 LdrpResSearchResourceMappedFile
FUNC 27030 432 0 LdrpResGetResourceDirectory
FUNC 27468 d5 0 RtlpMuiRegGetInstalledLanguageIndexByName
PUBLIC 27550 0 RtlIdnToAscii
PUBLIC 27580 0 RtlEqualDomainName
FUNC 27600 1dc 0 RtlCanonicalizeDomainName
FUNC 277f0 89 0 RtlIpv4StringToAddressExW
FUNC 27880 234 0 RtlIpv4StringToAddressW
FUNC 27ac0 16c 0 RtlIpv6StringToAddressExW
PUBLIC 27c40 0 RtlIpv6StringToAddressW
FUNC 28060 78 0 RtlCopyUnicodeString
FUNC 280e0 293 0 RtlpNameprepAsciiWorker
FUNC 2837c 188 0 RtlpValidateAsciiStd3AndLength
FUNC 28510 ab 0 RtlCreateUnicodeString
FUNC 285d0 1ca 0 RtlIdnToUnicode
FUNC 287a0 2b7 0 punycode_decode
FUNC 28a60 523 0 LdrpMergeLangFallbackLists
PUBLIC 28f8c 0 RtlStringCbCopyW
FUNC 2900c 9f 0 GetNameFromLangListNode
FUNC 290b4 2e7 0 RtlpMuiRegAddMultiSzToLangFallbackList
FUNC 293a4 6a 0 RtlpMuiRegGetInstalledLanguageIndex
FUNC 29414 fb4 0 LdrpResSearchResourceInsideDirectory
PUBLIC 2a3d0 0 RtlULongLongAdd
PUBLIC 2a3f0 0 RtlLCIDToCultureName
FUNC 2a4d4 13d 0 RtlpMuiRegGetInstalledLanguageIndexByLangId
FUNC 2a618 36 0 MuiRegAllocArray
FUNC 2a654 f8 0 LdrpLangFallbackListAppendNode
FUNC 2a754 142 0 LdrpLangFallbackListFindNode
PUBLIC 2a8a0 0 RtlCultureNameToLCID
FUNC 2a9f8 9e 0 RtlpMuiRegGetOrAddString
FUNC 2aa9c 9f 0 RtlpMuiRegGetOrAddStringToPool
PUBLIC 2ab44 0 RtlpMuiRegGetStringIndexInPool
PUBLIC 2abe0 0 RtlInitUnicodeString
FUNC 2ac24 158 0 LdrpResCompareResourceNames
FUNC 2ad90 126 0 RtlLcidToLocaleName
FUNC 2aebc 71 0 RtlpInitUnicodeStringUsingBuffer
PUBLIC 2af34 0 RtlStringCchLengthW
PUBLIC 2af9c 0 RtlpNlsGetLcidIndex
FUNC 2aff0 8b 0 RtlLocaleNameToLcid
FUNC 2b084 821 0 LdrpLoadDll
FUNC 2b8ac 108 0 ApiSetResolveToHost
PUBLIC 2b9c0 0 RtlDosPathNameToRelativeNtPathName_U
FUNC 2b9f0 8f 0 RtlAppendUnicodeStringToString
PUBLIC 2ba90 0 RtlTryEnterCriticalSection
PUBLIC 2bacc 0 RtlpInitializeLfhRandomDataArray
PUBLIC 2bb14 0 ApiSetpSearchForApiSetHost
PUBLIC 2bbd0 0 RtlCompareUnicodeString
PUBLIC 2bc04 0 ApiSetpSearchForApiSet
FUNC 2bca4 10b 0 RtlpNlsGetNameIndex
FUNC 2bdc0 e9 0 RtlCompareUnicodeStrings
FUNC 2beb0 231 0 LdrpSnapKernelBaseExtensions
FUNC 2c0e8 aa 0 RtlpZeroBlockFromOffset
FUNC 2c198 409 0 RtlpCreateSplitBlock
PUBLIC 2c5a8 0 RtlpHeapAddListEntry
PUBLIC 2c658 0 RtlpFindEntry
PUBLIC 2c6d0 0 RtlDosPathNameToRelativeNtPathName_U_WithStatus
FUNC 2c6f8 1b 0 LdrpLogDllState
FUNC 2c71c 11f 0 sxsisol_CanonicalizeFullPathFileName
PUBLIC 2c844 0 RtlpDosPathNameToRelativeNtPathName_U
PUBLIC 2c8b0 0 RtlpHeapGenerateRandomValue64
FUNC 2c8e0 9f 0 RtlAppendUnicodeToString
PUBLIC 2c990 0 RtlInitUnicodeStringEx
PUBLIC 2c9e0 0 RtlIsDosDeviceName_U
FUNC 2ca10 489 0 RtlpGrowBlockInPlace
PUBLIC 2cea0 0 RtlDosPathNameToNtPathName_U_WithStatus
PUBLIC 2cf20 0 RtlCreateUnicodeStringFromAsciiz
FUNC 2cf7c 41c 0 LdrpLocateModuleDependencies
FUNC 2d3a0 397 0 LdrpFindOrMapDependency
FUNC 2d740 483 0 LdrpApplyFileNameRedirection
FUNC 2dbd0 b7c 0 RtlGetFullPathName_Ustr
FUNC 2e760 3b8 0 RtlpIsDosDeviceName_Ustr
FUNC 2eb20 4b2 0 RtlDosPathNameToRelativeNtPathName
FUNC 2efd8 b8 0 RtlDetermineDosPathNameType_Ustr
FUNC 2f0a0 13d 0 RtlReAllocateHeap
FUNC 2f1f0 1122 0 RtlpReAllocateHeap
FUNC 30320 3aa 0 RtlpSubSegmentInitialize
FUNC 306d0 db 0 RtlpHeapGenerateRandomValue32
FUNC 307c0 110 0 RtlAnsiStringToUnicodeString
PUBLIC 308e0 0 RtlAnsiCharToUnicodeChar
FUNC 30960 304 0 RtlMultiByteToUnicodeN
PUBLIC m 30c70 0 NtdllpAllocateStringRoutine
FUNC 30c90 213 0 RtlAllocateHeap
FUNC 30eb0 f20 0 RtlpLowFragHeapAllocFromContext
FUNC 31de0 259b 0 RtlpAllocateHeap
FUNC 34390 d30 0 RtlpExtendHeap
FUNC 350d0 5f3 0 RtlpFindAndCommitPages
FUNC 356d0 52e 0 RtlFreeHeap
FUNC 35c10 19f9 0 RtlpFreeHeap
FUNC 37610 65 0 RtlpIsSubSegmentReuseThresholdExceeded
PUBLIC m 37680 0 IdnaMemFree
FUNC 376a0 53 0 RtlFreeUnicodeString
FUNC 376fc 196 0 RtlpFreeUserBlock
FUNC 37898 5d8 0 RtlpDeCommitFreeBlock
FUNC 37e80 409 0 RtlpInsertFreeBlock
FUNC 38290 2cc 0 RtlpHeapFindListLookupEntry
FUNC 38564 4a2 0 RtlpCoalesceFreeBlocks
FUNC 38a10 1316 0 TppWorkerThread
FUNC 39d30 37c 0 TppCallbackEpilog
FUNC 3a0c0 19a 0 TppCallbackCheckThreadAfterCallback
FUNC 3a260 48d 0 TppPrepareDirectParams
PUBLIC 3a700 0 TppWorkCallbackEpilog
FUNC 3a750 448 0 TppWorkpExecuteCallback
FUNC 3aba0 16c 0 RtlAcquireSRWLockExclusive
FUNC 3ad20 21 0 TppAlpcpCallbackEpilog
FUNC 3ad50 2d3 0 TppAlpcpExecuteCallback
PUBLIC 3b02c 0 LdrpFindLoadedDllByHandle
PUBLIC 3b140 0 LdrpCompareModuleBaseAddresses
FUNC 3b160 1d9 0 LdrpFindLoadedDllByName
PUBLIC 3b340 0 LdrpReleaseModuleDatatableLock
PUBLIC 3b364 0 LdrpAcquireModuleDatatableLock
PUBLIC 3b388 0 LdrpHashUnicodeString
PUBLIC 3b3b0 0 RtlHashUnicodeString
FUNC 3b4b0 ce 0 RtlEqualUnicodeString
FUNC 3b584 7d 0 LdrpApplyLookupReference
PUBLIC 3b610 0 RtlIsCriticalSectionLockedByThread
PUBLIC 3b630 0 LdrpReferenceNode
PUBLIC 3b670 0 RtlReleaseSRWLockExclusive
FUNC 3b6b0 44 0 LdrpAcquireLoaderLock
PUBLIC 3b700 0 RtlEnterCriticalSection
PUBLIC 3b740 0 RtlpEnterCriticalSectionContended
FUNC 3b960 16d 0 RtlAcquireSRWLockShared
FUNC 3bae0 3ec 0 RtlQueryEnvironmentVariable
FUNC 3bed4 4f 0 LdrpReleaseLoaderLock
PUBLIC 3bf2c 0 LdrpReleaseModuleEnumLock
PUBLIC 3bfa0 0 RtlLeaveCriticalSection
PUBLIC 3c020 0 RtlReleaseSRWLockShared
FUNC 3c100 24f 0 RtlpScanEnvironment
PUBLIC 3c358 0 LdrpResolveDelayloadAddress
PUBLIC 3c518 0 LdrpReleaseDllPath
PUBLIC 3c530 0 RtlImageNtHeader
PUBLIC 3c560 0 RtlCaptureImageExceptionValues
FUNC 3c588 2d1 0 LdrpResolveNonStaticDependency
FUNC 3c860 e9 0 LdrpInsertDependencyRecord
FUNC 3c950 676 0 LdrpSnapModule
PUBLIC 3cfd0 0 RtlImageDirectoryEntryToData
FUNC 3d000 d8 0 RtlpImageDirectoryEntryToDataEx
FUNC 3d0e0 22c 0 LdrpGetProcedureAddress
FUNC 3d320 fd 0 RtlImageNtHeaderEx
PUBLIC 3d424 0 RtlpImageDirectoryEntryToData64
FUNC 3d4ac 1e5 0 LdrpResolveForwarder
FUNC 3d698 8f 0 LdrpParseForwarderDescription
FUNC 3d730 5a 0 LdrpInitializeDllPath
PUBLIC 3d790 0 LdrpGetDelayloadAPIInfo
PUBLIC m 3d7f0 0 RtlInitAnsiString
FUNC 3d82c 1bb 0 TpPostTask
FUNC 3d9f0 ff 0 TpPostWork
FUNC 3daf8 f8 0 TppBarrierAdjust
FUNC 3dc00 84 0 RtlUnlockHeap
FUNC 3dc8c 3a 0 RtlpCheckHeapSignature
FUNC 3dcd0 7f 0 RtlLockHeap
FUNC 3dd58 18a 0 RtlpWaitOnCriticalSection
FUNC 3dee8 1c 0 RtlpWaitCouldDeadlock
FUNC 3df10 3f 0 RtlpUnWaitCriticalSection
PUBLIC 3df60 0 TpStartAsyncIoOperation
FUNC 3dfbc 52 0 TppIopValidateIo
FUNC 3e014 61 0 TppTimerpValidateTimer
FUNC 3e07c 22 0 TppValidateCleanupGroupMember
FUNC 3e0a4 144 0 RtlpAllocateUserBlockFromHeap
FUNC 3e1f0 25e 0 RtlFindActivationContextSectionString
FUNC 3e454 291 0 RtlpFindUnicodeStringInSection
PUBLIC 3e6ec 0 RtlpFindFirstActivationContextSection
FUNC 3e738 182 0 RtlpFindNextActivationContextSection
FUNC 3e8c0 172 0 RtlpLocateActivationContextSection
FUNC 3ea38 7f 0 RtlpFindActivationContextSection_CheckParameters
FUNC 3eac0 416 0 sxsisol_SearchActCtxForDllName
FUNC 3eee0 3c8 0 RtlDosApplyFileIsolationRedirection_Ustr
FUNC 3f2b0 d0 0 sxsisol_PathAppendDefaultExtension
FUNC 3f388 7c 0 sxsisol_FreeUnicodeStringBufferAroundUnicodeStrings_Failure
FUNC 3f40c 109 0 TppCancelTimer
FUNC 3f520 38f 0 LdrGetProcedureAddressForCaller
PUBLIC 3f8b8 0 LdrpDereferenceNode
FUNC 3f900 1ee 0 RtlFindActivationContextSectionGuid
FUNC 3faf4 106 0 RtlpFindGuidInSection
PUBLIC 3fc00 0 TpIsTimerSet
FUNC 3fc40 ea 0 TpSetTimerEx
PUBLIC 3fd30 0 RtlpImageDirectoryEntryToData32
FUNC 3fdb0 17f 0 LdrpGetFromMUIMemCache
PUBLIC 3ff40 0 RtlAddressInSectionTable
PUBLIC 3ff70 0 RtlSectionTableFromVirtualAddress
FUNC 3ffc0 25f 0 RtlFindCharInUnicodeString
FUNC 40228 c2 0 LdrpGetImageSize
PUBLIC 402f0 0 LdrpAccessResourceDataNoMultipleLanguage
FUNC 40518 13b 0 LdrpPrepareImportAddressTableForSnap
FUNC 40660 13d 0 RtlValidateHeap
FUNC 407a4 13a 0 RtlpValidateHeapEntry
FUNC 408e4 a5b 0 LdrpSearchResourceSection_U
PUBLIC 41348 0 ResourceEntryBinarySearch
FUNC 41450 74 0 LdrpCompareResourceNames_U
FUNC 414cc 112 0 TppSetTimer
FUNC 415e4 190 0 TppUpdateSubQueueTimer
FUNC 4177c 15d 0 LdrpFindLoadedDllByMapping
PUBLIC 418e0 0 TppEnqueueTimer
FUNC 41a18 259 0 LdrpProcessMappedModule
PUBLIC 41c80 0 LdrpCompareModuleMappingInfo
PUBLIC 41cc0 0 RtlRbInsertNodeEx
FUNC 41e18 89 0 LdrpGetFileSizeFromLoadAsDataTable
PUBLIC 41ea8 0 LdrpInitMuiCrits
FUNC 41f20 9d 0 TpReleaseTimer
PUBLIC 41fc4 0 TppCleanupGroupMemberRelease
FUNC 42020 265 0 RtlCreateTimer
PUBLIC 4228c 0 RtlpTpResumeImpersonation
PUBLIC 422d0 0 TppTimerpFree
FUNC 42310 ee 0 TpAllocTimer
PUBLIC 42404 0 TppDestroyTimer
FUNC 4242c 16a 0 TppCleanupGroupMemberDestroy
FUNC 425a0 85 0 RtlReleaseActivationContext
FUNC 4262c 53 0 TppPoolpDereferenceGlobalPool
FUNC 42688 24 0 TppCallbackCheckThreadBeforeCallback
PUBLIC 426b4 0 TppInitializeTimer
PUBLIC 42750 0 TpAdjustBindingCount
PUBLIC 427a8 0 TppWorkInitialize
PUBLIC 4283c 0 TppGetCurrentThreadNumaNode
FUNC 42908 27a 0 TppCleanupGroupMemberInitialize
PUBLIC 42b90 0 RtlQueryInformationActivationContext
FUNC 43108 9c 0 RtlpGetActivationContextData
FUNC 431ac 7a 0 RtlpQueryInformationActivationContextBasicInformation
PUBLIC 43230 0 RtlAddRefActivationContext
FUNC 4326c 17a 0 TppPoolpReferenceGlobalPool
PUBLIC 433ec 0 RtlpTpInitializeData
FUNC 43468 78 0 RtlpTpRevertCapture
PUBLIC 434f0 0 RtlpTpTimerFinalizationCallback
FUNC 43520 139 0 RtlDeleteTimer
PUBLIC 43660 0 TpTimerOutstandingCallbackCount
FUNC 436ac 14e 0 LdrpAccessResourceData
FUNC 43800 4d 0 RtlpTpTimerRundown
PUBLIC 43854 0 RtlpTpDeleteData
PUBLIC 43870 0 TppDueTimeCompare
PUBLIC 4388c 0 LdrpGetRcConfig
FUNC 439d4 80 0 LdrIsResItemExist
FUNC 43a60 1f3 0 LdrRscIsTypeExist
FUNC 43c5c f8 0 RtlInsertInvertedFunctionTable
PUBLIC 43d5c 0 LdrProtectMrdata
PUBLIC 43dc4 0 LdrpChangeMrdataProtection
PUBLIC 43e30 0 LdrpValidateEntrySection
FUNC 43e78 e7 0 LdrInitSecurityCookie
FUNC 43f68 d3 0 LdrpFetchAddressOfSecurityCookie
FUNC 44044 17 0 LdrpGenRandom
FUNC 44064 4a1 0 LdrpLoadResourceFromAlternativeModule
FUNC 44510 79f 0 LdrLoadAlternateResourceModuleEx
PUBLIC 44cc0 0 LdrAccessResource
PUBLIC 44ccc 0 LdrpMapAndSnapModules
FUNC 44ddc b8 0 LdrpSignalModule
PUBLIC 44e9c 0 LdrpGenSecurityCookie
FUNC 44f50 6da 0 RtlGetThreadPreferredUILanguages
PUBLIC 45630 0 LdrpCreateLangFallbackList
FUNC 45678 99 0 RtlpMuiRegCreateLanguageList
FUNC 45718 75 0 SafeAllocBlob
PUBLIC 45794 0 RtlpMuiRegFreeLanguageList
PUBLIC 457d4 0 LdrpSetThreadPreferredLangList
PUBLIC 45920 0 RtlpCreateProcessRegistryInfo
FUNC 4599c 242 0 LdrpConvertLangFallbackListToMultiSz
FUNC 45be4 ce 0 RtlpMuiRegTryToAppendLanguageToMuiszFromLangList
FUNC 45cb8 111 0 GetLCIDFromLangListNodeWithLICCheck
FUNC 45dd0 117 0 RtlpMuiRegTryToAppendLangId
FUNC 45ef0 12f 0 RtlFormatCurrentUserKeyPath
FUNC 46030 54 0 RtlLengthSidAsUnicodeString
PUBLIC 46090 0 RtlValidRelativeSecurityDescriptor
PUBLIC 46200 0 RtlpValidateSDOffsetAndSize
PUBLIC 46230 0 RtlAddAccessAllowedAceEx
PUBLIC 46260 0 RtlNewSecurityObjectEx
FUNC 462d0 1c9 0 RtlConvertSidToUnicodeString
FUNC 464a0 141 0 RtlIntegerToUnicode
FUNC 465e8 14c5 0 RtlpNewSecurityObject
FUNC 47ab4 1d8 0 RtlpInheritAcl
FUNC 47c94 3ba 0 RtlpInheritAcl2
PUBLIC 48060 0 RtlCreateAcl
PUBLIC 480a0 0 RtlpGenerateInheritAcl
FUNC 48270 321 0 RtlpGenerateInheritedAce
FUNC 485a0 1ad 0 RtlpIsDuplicateAce
FUNC 48754 48e 0 RtlpCopyEffectiveAce
FUNC 48bf0 ba 0 RtlEqualPrefixSid
FUNC 48cb0 1da 0 RtlpCompareKnownObjectAces
PUBLIC 48e90 0 RtlFindAceByType
FUNC 48ee4 43c 0 RtlpCopyAces
PUBLIC 49330 0 RtlCheckTokenCapability
PUBLIC 49710 0 RtlAddAccessAllowedAce
FUNC 49734 133 0 RtlpAddKnownAce
PUBLIC 49870 0 RtlFirstFreeAce
PUBLIC 498d0 0 RtlValidSecurityDescriptor
PUBLIC 499d0 0 RtlValidSid
PUBLIC 49a10 0 RtlValidAcl
PUBLIC 49c80 0 RtlSetDaclSecurityDescriptor
PUBLIC 49cf0 0 RtlSetGroupSecurityDescriptor
PUBLIC 49d50 0 RtlSetOwnerSecurityDescriptor
PUBLIC 49db0 0 RtlCreateSecurityDescriptor
PUBLIC 49df0 0 RtlIsCapabilitySid
FUNC 49e5c 44d 0 RtlpCombineAcls
FUNC 4a2b0 27f 0 RtlpGetDefaultsSubjectContext
FUNC 4a538 163 0 RtlpGetDefaultTrustSubjectContext
FUNC 4a6b0 84 0 RtlSidDominatesForTrust
PUBLIC 4a740 0 RtlIsValidProcessTrustLabelSid
PUBLIC 4a7b0 0 RtlCopySid
PUBLIC 4a7f0 0 RtlCheckTokenMembershipEx
FUNC 4aba0 164 0 RtlAddMandatoryAce
PUBLIC 4ad10 0 RtlMapGenericMask
FUNC 4ad60 8d 0 RtlQueryInformationAcl
FUNC 4ae00 153 0 RtlAddAce
PUBLIC 4af5c 0 RtlpApplyAclToObject
PUBLIC 4b010 0 RtlDeleteAce
PUBLIC 4b090 0 RtlpDeleteData
FUNC 4b0e0 923 0 RtlpSetSecurityObject
FUNC 4ba0c 217 0 RtlpValidOwnerSubjectContext
PUBLIC 4bc30 0 RtlEqualSid
FUNC 4bc64 17f 0 RtlpAddKnownObjectAce
FUNC 4bdf0 43 0 RtlAddAccessAllowedObjectAce
FUNC 4be3c 1f7 0 OpenAdaptiveSqmPrivateSection
FUNC 4c03c 109 0 RtlAddSIDToBoundaryDescriptorEx
PUBLIC 4c14c 0 RtlpValidateSidBuffer
FUNC 4c190 124 0 RtlCreateServiceSid
FUNC 4c2c0 fd 0 RtlAllocateAndInitializeSid
PUBLIC 4c3d0 0 RtlLengthRequiredSid
PUBLIC 4c3f0 0 RtlInitializeSid
PUBLIC 4c420 0 A_SHAFinal
PUBLIC 4c530 0 DWORDToBigEndian
PUBLIC 4c560 0 A_SHAInit
PUBLIC 4c5a0 0 A_SHAUpdate
FUNC 4e9d8 d9 0 RtlEnumerateBoundaryDescriptorEntries
PUBLIC 4eac0 0 RtlSetSecurityObject
FUNC 4eaf0 cc 0 RtlCreateBoundaryDescriptor
FUNC 4ebd0 250 0 WinSqmAddToStream
PUBLIC 4ee30 0 WinSqmSetDWORD
PUBLIC 4ee50 0 WinSqmIncrementDWORD
FUNC 4ee6c 148 0 WinSqmDWORDEvent
PUBLIC 4efc0 0 WinSqmEventWrite
PUBLIC 4f040 0 EtwEventWrite
PUBLIC 4f074 0 EtwpEventWriteFull
FUNC 4f2d0 1af 0 WinSqmSetString
PUBLIC 4f490 0 WinSqmEventEnabled
PUBLIC 4f52c 0 IsExtendedWinSqmHandle
PUBLIC 4f580 0 EtwEventEnabled
FUNC 4f64c 19b 0 WinSqmEscalationManagerAcquire
FUNC 4f7f0 12e 0 RegisterWinSqmProvider
FUNC 4f930 318 0 WinSqmIsSessionDisabled
FUNC 4fc50 249 0 IsMachineSampledOut
FUNC 4fea0 110 0 GetWinSQMStudyId
PUBLIC 4ffc0 0 WinSqmIsOptedIn
FUNC 4ffd0 9a 0 WinSqmIsOptedInEx
FUNC 50070 120 0 CheckWinSQMOptinValue
FUNC 50198 a9 0 ReadUlongFromKey
FUNC 50248 103 0 IsProcessDisabled
FUNC 50360 35d 0 WinSqmAddToStreamEx
PUBLIC 506c4 0 StringCchCopyW
PUBLIC 50750 0 EtwEventWriteTransfer
PUBLIC 507a0 0 EtwEventWriteFull
FUNC 507e8 3d0 0 EvtIntReportEventWorker
FUNC 50bc0 c3 0 EtwSendNotification
PUBLIC 50c90 0 DbgPrintEx
PUBLIC 50ccc 0 ResCGetRegistryFlags
PUBLIC 50d98 0 ResCOpenRegistryKey
FUNC 50ec4 fb 0 ResCKeOpenRuntimeView
FUNC 50fc8 98 0 ResCKeDirectoryOpenMapping
PUBLIC 51068 0 ResCMapCMFModule
FUNC 510b0 149 0 LdrpGetMUIFromCMFSegment
PUBLIC 51200 0 RtlSetLastWin32ErrorAndNtStatusFromNtStatus
PUBLIC 51220 0 RtlSetLastWin32Error
FUNC 51250 176 0 RtlNtStatusToDosError
PUBLIC 513d0 0 DbgPrint
FUNC 51418 24e 0 vDbgPrintExWithPrefixInternal
PUBLIC 5166c 0 ResCKeGetBaseFolder
FUNC 516d0 107 0 ResGetSystemWindowsDirectory
PUBLIC 517e0 0 long StringCchCatW(unsigned short *,uint64_t,unsigned short const *)
FUNC 51860 4c 0 StringCopyWorkerW
FUNC 518c0 77 0 RtlExpandEnvironmentStrings_U
PUBLIC 51940 0 RtlExpandEnvironmentStrings
FUNC 51ac8 10a 0 ResQueryValueKey
PUBLIC 51be0 0 EvtIntReportEventAndSourceAsync
FUNC 51c4c a2 0 AitpIsEnabledNt
PUBLIC 51cf4 0 AitpOpenRegKeyNt
PUBLIC 51d70 0 AitIsEnabledCached
FUNC 51db0 187 0 AitpDoFirstTelemetryHitSetupWorker
FUNC 51f40 be 0 AitpDoFirstTelemetryHitSetup
PUBLIC 52010 0 AitLogFeatureUsageByApp
PUBLIC 520e0 0 EtwTraceMessage
FUNC 52110 b8 0 EtwTraceMessageVa
FUNC 521d0 c2 0 AitpReadUlongFromKeyNt
FUNC 52298 e7 0 AeGetImageHeaderHashForCurrentProcess
FUNC 52388 178 0 AeComputeHeaderHashFromNtHeaders
PUBLIC 52510 0 RtlQueryTimeZoneInformation
FUNC 52520 204 0 RtlpQueryTimeZoneInformationWorker
PUBLIC 5272c 0 RtlpGetTimeZoneInfoHandle
PUBLIC 52750 0 RtlCheckRegistryKey
FUNC 52790 1dc 0 RtlpCheckDynamicTimeZoneInformation
PUBLIC 52974 0 RtlpRegTziFormatToTzi
FUNC 52a28 ad 0 RtlpGetDynamicTimeZoneInfoHandle
PUBLIC 52adc 0 RtlStringCbCatW
FUNC 52b74 1aa 0 RtlpFindRegTziForCurrentYear
PUBLIC 52d30 0 RtlQueryRegistryValuesEx
FUNC 52d54 3fc 0 RtlpQueryRegistryValues
FUNC 53158 34c 0 RtlpCallQueryRegistryRoutine
PUBLIC 534ac 0 RtlpAllocDeallocQueryBuffer
FUNC 53544 bf 0 RtlpQueryRegistryDirect
PUBLIC 5360c 0 RtlpValidateKeyTrust
FUNC 53654 16a 0 RtlpGetRegistryHandle
FUNC 537d0 b0 0 RtlCheckPortableOperatingSystem
FUNC 53890 97 0 RtlCaptureStackBackTrace
PUBLIC 53930 0 RtlWalkFrameChain
FUNC 53970 1ad 0 RtlRaiseException
PUBLIC 53b24 0 RtlInitializeHistoryTable
PUBLIC 53bfc 0 RtlpFunctionAddressTableEntry
FUNC 53c54 21c 0 RtlpWalkFrameChain
FUNC 53e78 7c2 0 RtlpVirtualUnwind
FUNC 54640 ec 0 RtlpLookupFunctionEntryForStackWalks
FUNC 54740 208 0 RtlDispatchException
PUBLIC 54950 0 RtlpIsFrameInBounds
FUNC 54970 78c 0 RtlVirtualUnwind
FUNC 55110 953 0 RtlUnwindEx
PUBLIC 55a70 0 RtlLookupFunctionEntry
PUBLIC 55d48 0 RtlpSearchFunctionTable
PUBLIC 55dc8 0 RtlpGetStackLimits
PUBLIC 55e00 0 RtlGuardRestoreContext
FUNC 55e9c 122 0 RtlpCallVectoredHandlers
PUBLIC 55fd0 0 RtlDecodePointer
PUBLIC 5602c 0 RtlGuardIsValidStackPointer
FUNC 56060 b1 0 RtlSetEnvironmentStrings
PUBLIC 56120 0 RtlCreateEnvironment
FUNC 56140 42f 0 RtlCreateProcessParametersEx
PUBLIC 56578 0 RtlpCopyProcString
FUNC 56618 c 0 ValidateOptionalString
FUNC 5662c 24 0 ValidateStringParameter
PUBLIC 56660 0 RtlDestroyEnvironment
FUNC 56680 212 0 RtlCreateEnvironmentEx
FUNC 56898 a8 0 RtlpInitEnvironmentBlock
PUBLIC 56948 0 RtlpWow64ThunkEnvironment32To64
PUBLIC 56a20 0 RtlQueryEnvironmentVariable_U
PUBLIC 56a90 0 RtlSetEnvironmentVariable
FUNC 56ae0 8fe 0 RtlSetEnvironmentVar
PUBLIC 573e4 0 RtlpAllocationSize
FUNC 57410 18e 0 RtlSizeHeap
PUBLIC 575a4 0 RtlpAllocateEnvBlock
PUBLIC 575d0 0 RtlpGetBlockSizeEx
FUNC 57630 32e 0 RtlUnicodeToUTF8N
FUNC 57970 206 0 CountUnicodeToUTF8
FUNC 57b80 3f1 0 RtlUTF8ToUnicodeN
FUNC 57f80 245 0 CountUTF8ToUnicode
FUNC 581d0 e1 0 RtlpIsQualifiedLanguage
PUBLIC 582b8 0 RtlpFreeTraverseNodes
FUNC 582f4 8e 0 RtlpTraverseParents
FUNC 58388 5d 0 RtlpCreateTraverseNodes
PUBLIC 583f0 0 RtlDoesFileExists_U
PUBLIC 58400 0 RtlCreateAtomTable
PUBLIC 58410 0 RtlCreateAtomTableEx
PUBLIC 584e0 0 RtlInitializeHandleTable
PUBLIC 58540 0 RtlAddAtomToAtomTable
FUNC 5854c 1fb 0 RtlAddAtomToAtomTableEx
FUNC 58750 135 0 RtlLookupAtomInAtomTable
FUNC 5888c 125 0 RtlpHashStringToAtom
FUNC 589c0 31 0 RtlGetIntegerAtom
PUBLIC 589f8 0 RtlpLockAtomTable
PUBLIC 58a24 0 RtlpAtomMapAtomToHandleEntry
PUBLIC 58a60 0 RtlIsValidIndexHandle
PUBLIC 58aa0 0 RtlIsValidHandle
FUNC 58acc 85 0 RtlpInsertStringAtom
FUNC 58b60 1b1 0 RtlAllocateHandle
PUBLIC 58d18 0 RtlpAllocateAtomTableEntry
FUNC 58d70 205 0 RtlDosSearchPath_U
PUBLIC 58f7c 0 RtlpFileIsWin32WithRCManifest
FUNC 59210 538 0 RtlGetFileMUIPath
PUBLIC 59750 0 RtlpGetMUIRedirectedFilePath
FUNC 59960 170 0 RtlCreateActivationContext
FUNC 59ad8 142 0 RtlGetAssemblyStorageRoot
FUNC 59c20 43f 0 RtlpResolveAssemblyStorageMapEntry
FUNC 5a070 203 0 RtlpAssemblyStorageMapResolutionDefaultCallback
FUNC 5a27c 2d0 0 RtlpGetActivationContextDataStorageMapAndRosterHeader
FUNC 5a554 128 0 RtlpInsertAssemblyStorageMapEntry
FUNC 5a684 2d5 0 RtlpProbeAssemblyStorageRootForAssembly
PUBLIC 5a960 0 RtlDoesFileExists_UEx
FUNC 5a998 90 0 RtlUnicodeStringCbCatStringN
PUBLIC 5aa30 0 RtlUnicodeStringCbCopyStringN
FUNC 5aab4 5b 0 RtlWideCharArrayCopyStringWorker
FUNC 5ab18 27d 0 LdrpMapResourceFile
FUNC 5ada0 5c7 0 RtlDosSearchPath_Ustr
FUNC 5b370 11b 0 RtlDoesFileExists_UstrEx
FUNC 5b4a0 31 0 RtlReleaseRelativeName
FUNC 5b4e0 2ec 0 RtlGetFullPathName_UstrEx
PUBLIC 5b7d4 0 RtlUnicodeStringCat
PUBLIC 5b864 0 RtlUnicodeStringCopy
FUNC 5b8ec 5c 0 RtlWideCharArrayCopyWorker
FUNC 5b950 35 0 RtlUnicodeStringValidateSrcWorker
FUNC 5b98c 68 0 RtlUnicodeStringValidateDestWorker
FUNC 5b9fc 38 0 RtlUnicodeStringValidateWorker
FUNC 5ba3c 6d 0 RtlpInitializeAssemblyStorageMap
FUNC 5bab0 d3 0 RtlpValidateActivationContextData
PUBLIC 5bb8c 0 LdrpCalcAllocSize
FUNC 5bbc8 3f8 0 LdrpHandleTlsData
FUNC 5bfc8 177 0 LdrpAllocateTlsEntry
FUNC 5c148 d1 0 LdrpAcquireTlsIndex
PUBLIC 5c220 0 RtlULongLongMult
PUBLIC 5c250 0 RtlGetFullPathName_U
PUBLIC 5c280 0 RtlGetFullPathName_UEx
FUNC 5c310 1ee 0 RtlFlsAlloc
FUNC 5c510 210 0 RtlFindClearBitsAndSet
PUBLIC 5c730 0 RtlSetBits
FUNC 5c7e0 121 0 RtlFlsFree
PUBLIC 5c910 0 RtlClearBits
PUBLIC 5c9c0 0 RtlAreBitsSet
FUNC 5ca80 7b 0 RtlDetermineDosPathNameType_U
FUNC 5cb10 20b 0 LdrAddDllDirectory
PUBLIC 5cd24 0 RtlpInvalidatePathCache
FUNC 5cd40 15f 0 RtlpOwnerAcesPresent
FUNC 5ceb0 193 0 RtlCutoverTimeToSystemTime
PUBLIC 5d050 0 RtlTimeFieldsToTime
FUNC 5d260 22f 0 RtlTimeToTimeFields
PUBLIC 5d4a0 0 RtlLengthSid
FUNC 5d4c0 521 0 RtlIsTextUnicode
PUBLIC 5d9f0 0 RtlConvertSharedToExclusive
FUNC 5da50 f5 0 RtlAcquireResourceExclusive
FUNC 5db50 e2 0 RtlAcquireResourceShared
PUBLIC 5dc40 0 RtlReleaseResource
PUBLIC 5dd0c 0 RtlpNonNegativeDecrement
FUNC 5dd40 85 0 RtlInitializeCriticalSection
FUNC 5ddd0 2d 0 RtlLookupElementGenericTableFullAvl
PUBLIC 5de10 0 RtlDeleteElementGenericTableAvl
PUBLIC 5de50 0 RtlInsertElementGenericTableAvl
FUNC 5dec0 13d 0 RtlInsertElementGenericTableFullAvl
PUBLIC 5e004 0 FindNodeOrParent
PUBLIC 5e0b0 0 RtlDeleteElementGenericTableAvlEx
PUBLIC 5e11c 0 DeleteNodeFromTree
PUBLIC 5e2c4 0 RebalanceNode
PUBLIC 5e380 0 PromoteNode
PUBLIC 5e3d8 0 RealPredecessor
FUNC 5e420 ae 0 RtlInitializeCriticalSectionAndSpinCount
PUBLIC 5e4e0 0 RtlLookupElementGenericTableAvl
FUNC 5e570 134 0 TpCallbackIndependent
PUBLIC 5e6b0 0 RtlDeleteResource
PUBLIC 5e700 0 RtlDeleteCriticalSection
PUBLIC 5e7ec 0 RtlpFreeDebugInfo
FUNC 5e870 21 0 RtlpGetStackTraceAddressEx
PUBLIC 5e8a0 0 RtlSubAuthoritySid
FUNC 5e8c0 16a 0 RtlNtPathNameToDosPathName
FUNC 5ea30 aa 0 RtlpApplyLengthFunction
PUBLIC 5eae0 0 RtlGetLengthWithoutLastFullDosOrNtPathElement
FUNC 5eaf4 f7 0 RtlpGetLengthWithoutLastPathElement
FUNC 5ebf4 1a7 0 RtlpDetermineDosPathNameType4
FUNC 5edb0 ce 0 RtlPrefixUnicodeString
PUBLIC 5ee90 0 RtlGetLengthWithoutTrailingPathSeperators
PUBLIC 5eef0 0 RtlComputeCrc32
PUBLIC 5ef40 0 RtlSubAuthorityCountSid
FUNC 5ef50 df 0 TpCallbackSendAlpcMessageOnCompletion
FUNC 5f040 145 0 RtlIpv6AddressToStringExW
FUNC 5f190 285 0 RtlIpv6AddressToStringW
FUNC 5f420 d2 0 RtlUnicodeStringToOemString
FUNC 5f500 1ae 0 RtlUnicodeToOemN
PUBLIC 5f6c0 0 RtlSetCurrentTransaction
FUNC 5f6f0 159 0 RtlSelfRelativeToAbsoluteSD2
FUNC 5f850 a7 0 RtlCopySecurityDescriptor
FUNC 5f900 1b0 0 RtlSelfRelativeToAbsoluteSD
PUBLIC 5fac0 0 RtlAbsoluteToSelfRelativeSD
FUNC 5fae0 145 0 RtlMakeSelfRelativeSD
PUBLIC 5fc2c 0 RtlpQuerySecurityDescriptor
PUBLIC 5fda0 0 RtlGetSystemTimePrecise
PUBLIC 5fe60 0 RtlQueryPerformanceCounter
FUNC 5fed0 f0 0 RtlUnicodeStringToAnsiString
FUNC 5ffd0 19f 0 RtlUnicodeToMultiByteN
PUBLIC 60178 0 RtlStringCbCopyExW
FUNC 60210 600 0 RtlFormatMessageEx
FUNC 60818 11b 0 RtlStringCchPrintfExW
FUNC 6093c 7d 0 RtlStringVPrintfWorkerW
PUBLIC 609c0 0 RtlPushFrame
PUBLIC 609f0 0 RtlEnumerateGenericTableAvl
PUBLIC 60a10 0 RtlEnumerateGenericTableWithoutSplayingAvl
PUBLIC 60a68 0 RealSuccessor
PUBLIC 60ac0 0 RtlEqualString
FUNC 60b60 8f 0 RtlUpperChar
PUBLIC 60c00 0 RtlPopFrame
PUBLIC 60c20 0 RtlpCompareActivationContextDataTOCEntryById
PUBLIC 60c40 0 RtlGetCurrentUmsThread
PUBLIC 60cc0 0 RtlEnumerateGenericTable
FUNC 60d40 8f 0 RtlDeleteElementGenericTable
PUBLIC 60de0 0 RtlDelete
PUBLIC 60e80 0 RtlInsertElementGenericTable
FUNC 60ef0 111 0 RtlInsertElementGenericTableFull
PUBLIC 61010 0 RtlEnumerateGenericTableWithoutSplaying
PUBLIC 61070 0 RtlLookupElementGenericTable
PUBLIC 61090 0 RtlLookupElementGenericTableFull
FUNC 610e0 9f 0 FindNodeOrParent
PUBLIC 61190 0 RtlIsGenericTableEmpty
PUBLIC 611a0 0 RtlSplay
PUBLIC 613b0 0 RtlRealSuccessor
PUBLIC 61400 0 RtlDeleteNoSplay
FUNC 614ac 127 0 SwapSplayLinks
PUBLIC 615e0 0 RtlSubtreePredecessor
PUBLIC 61604 0 RtlBackoff
PUBLIC 61680 0 LdrGetDllHandle
FUNC 616b0 415 0 LdrGetDllHandleEx
FUNC 61acc 20 0 LdrpAcquireLoaderLockToPrepareNode
PUBLIC 61b00 0 RtlInterlockedPushEntrySList
PUBLIC 61b10 0 RtlInitAnsiStringEx
PUBLIC 61b50 0 RtlQuerySystemTime
PUBLIC 61b70 0 RtlLengthSecurityDescriptor
PUBLIC m 61c70 0 InitializeSListHead
PUBLIC 61ca0 0 RtlQueryDepthSList
PUBLIC 61cb0 0 RtlIpv4AddressToStringExW
PUBLIC 61d90 0 RtlIpv4AddressToStringW
FUNC 61de0 21b 0 LdrAddLoadAsDataTable
FUNC 62004 18 0 LdrLogNewDataDllLoad
FUNC 62030 352 0 LdrRemoveLoadAsDataTable
PUBLIC 62390 0 RtlGetCurrentTransaction
FUNC 623b0 389 0 RtlSetThreadPreferredUILanguages
FUNC 62740 9a 0 LdrpMultiSZCchLength
PUBLIC 627e0 0 RtlpCheckMuiMultiStringSafe
FUNC 6285c fc 0 RtlpInitializeUserList
FUNC 62960 ed 0 RtlpUpdateTEBLanguage
PUBLIC 62a54 0 RtlpMuiRegDupLanguageList
FUNC 62af0 a7 0 RtlIpv6StringToAddressExA
FUNC 62ba0 39d 0 RtlIpv6StringToAddressA
FUNC 62f50 a4 0 RtlSidHashInitialize
PUBLIC 63000 0 RtlSubscribeWnfStateChangeNotification
FUNC 6304c 11b 0 RtlSubscribeWnfStateChangeNotificationInternal
FUNC 63170 14d 0 RtlpAddWnfUserSubToNameSub
FUNC 632c4 1a7 0 RtlpCreateWnfNameSubscription
FUNC 63474 e7 0 RtlpCreateWnfUserSubscription
FUNC 63564 121 0 RtlpCreateSerializationGroup
PUBLIC 6368c 0 LdrpResolveDelayLoadDescriptor
PUBLIC 63720 0 RtlInitEnumerationHashTable
PUBLIC 63790 0 RtlInsertEntryHashTable
PUBLIC 63820 0 RtlLookupEntryHashTable
PUBLIC 6387c 0 RtlpPopulateContext
PUBLIC 63920 0 RtlEnumerateEntryHashTable
FUNC 639ec 26 0 RtlpGetChainHead
FUNC 63a20 1f5 0 RtlLoadString
PUBLIC 63c20 0 RtlAddVectoredContinueHandler
PUBLIC 63c40 0 RtlAddVectoredExceptionHandler
PUBLIC 63c50 0 RtlpAddVectoredHandler
PUBLIC 63d50 0 RtlSetUnhandledExceptionFilter
PUBLIC 63d70 0 RtlEncodePointer
FUNC 63dc0 10b 0 RtlSidHashLookup
FUNC 63ed4 184 0 RtlpMuiRegTryToAppendLanguageName
PUBLIC 64060 0 RtlpInitAndCallLcidToCultureName
FUNC 64080 90 0 RtlpLangNameInMultiSzString_Size
PUBLIC 64120 0 RtlDuplicateUnicodeString
PUBLIC 642b0 0 RtlValidateUnicodeString
PUBLIC 64300 0 RtlGUIDFromString
FUNC 643f8 15d 0 ScanHexFormat
FUNC 64560 3a 0 RtlGetSearchPath
FUNC 645a0 7d 0 RtlGetExePath
FUNC 64624 122 0 RtlpGetCachedPath
FUNC 64750 8f 0 RtlpComputeDllPath
FUNC 647e8 452 0 RtlpComputePath
FUNC 64c40 90 0 RtlpGetDirPath
FUNC 64ce0 10a 0 RtlpComputeDllPathWithOptions
FUNC 64df0 c5 0 RtlpLookupCurDirSetting
PUBLIC 64ec0 0 RtlReleasePath
PUBLIC 64f30 0 RtlpComputeSearchPath
PUBLIC 64fc0 0 RtlpComputeExePath
PUBLIC 65020 0 TppIopCallbackEpilog
PUBLIC 65060 0 TpReleaseIoCompletion
PUBLIC 650d0 0 TppIopFree
FUNC 65128 7e 0 LdrpFindMessageInAlternateModule
FUNC 651ac 56 0 RtlpHeapListCompare
FUNC 65210 4fe 0 RtlConsoleMultiByteToUnicodeN
FUNC 65714 103 0 RtlpLowFragHeapAllocateFromZone
PUBLIC 65820 0 RtlInterlockedFlushSList
FUNC 6582c ae 0 CsrpClientConnectToServer
PUBLIC 658e0 0 CsrFreeCaptureBuffer
FUNC 65900 16a 0 CsrClientCallServer
PUBLIC 65a70 0 CsrCaptureMessageBuffer
FUNC 65ad0 e1 0 CsrCaptureMessageMultiUnicodeStringsInPlace
FUNC 65bc0 a5 0 CsrCaptureMessageString
PUBLIC 65c70 0 CsrAllocateMessagePointer
FUNC 65cb0 be 0 CsrAllocateCaptureBuffer
FUNC 65d74 11f 0 LdrpInsertDataTableEntry
FUNC 65ea0 39 0 RtlSetCriticalSectionSpinCount
FUNC 65ee0 10a 0 LdrpAllocateDataTableEntry
PUBLIC 65ff0 0 RtlClearAllBits
PUBLIC 66020 0 RtlFlushHeaps
PUBLIC 66038 0 RtlpEnumProcessHeaps
PUBLIC 66130 0 RtlpFlushHeapsCallback
PUBLIC 6613c 0 RtlpFlushHeap
FUNC 6619c e7 0 RtlpSetSegmentInfo
FUNC 6628c 2bb 0 RtlpLowFragHeapFree
FUNC 66550 1a5 0 RtlpLowFragHeapFlushCaches
FUNC 666fc 2eb 0 RtlpLocalInfoAllocFromCache
PUBLIC 669f0 0 RtlpTryAcquireSubSegmentLock
FUNC 66a6c 9b 0 RtlpLfhFindClearBitAndSet
PUBLIC 66b10 0 RtlpIsSubSegmentReuseable
PUBLIC 66b40 0 RtlpFreeUserBlockToHeap
FUNC 66be0 109 0 RtlDowncaseUnicodeString
FUNC 66cf0 24f 0 RtlGetUserInfoHeap
PUBLIC 66f48 0 RtlpProbeUserBufferSafe
FUNC 66fd0 188 0 RtlSetUserValueHeap
PUBLIC 67160 0 RtlpGetExtraStuffPointer
PUBLIC 67190 0 RtlFindMessage
PUBLIC 67244 0 RtlFindMessageInTable
FUNC 672a0 42d 0 TpAllocPool
FUNC 676d4 6a 0 TppInitializeTimerQueue
PUBLIC 67744 0 TppInitializeTimerSubQueue
FUNC 6785c 106 0 TppPoolUpdateNodeRelation
PUBLIC 67970 0 TpWaitForAlpcCompletion
FUNC 679d0 2ec 0 TpReleaseCleanupGroupMembers
PUBLIC 67cd0 0 RtlpTpWaitFinalizationCallback
PUBLIC 67d00 0 RtlDeregisterWait
FUNC 67d10 141 0 RtlDeregisterWaitEx
PUBLIC 67e58 0 TpWaitOutstandingCallbackCount
PUBLIC 67e9c 0 RtlpTpWaitRundown
FUNC 67ee0 48 0 TpWaitForIoCompletion
FUNC 67f30 bf 0 TpWaitForWait
PUBLIC 68000 0 TpWaitForWork
FUNC 68040 d5 0 TpWaitForTimer
FUNC 6811c 4d 0 TppWorkWait
PUBLIC 68170 0 TppCleanupGroupMemberWait
PUBLIC 68190 0 TpReleaseWork
PUBLIC 681f8 0 TppWorkpValidateWork
PUBLIC 68270 0 TppWorkpFree
FUNC 682b0 30 0 TppWorkCancelPendingCallbacks
FUNC 682f0 4a 0 TppTimerpStopCallbackGeneration
PUBLIC 68340 0 TppFreeWait
PUBLIC 68390 0 TpReleaseAlpcCompletion
PUBLIC 68400 0 TppAlpcpFree
FUNC 68458 56 0 TppAlpcpValidateAlpc
FUNC 684b4 174 0 LdrpReportError
FUNC 68630 a7 0 LdrpRecordFailureInfo
FUNC 686e0 9c 0 EtwWriteUMSecurityEvent
PUBLIC 68784 0 LdrpMapViewOfSection
FUNC 68970 138 0 LdrpFindDllActivationContext
FUNC 68ab0 192 0 LdrpCorInitialize
FUNC 68c48 d9 0 LdrpLoadWow64
PUBLIC 68d30 0 LdrGetProcedureAddress
FUNC 68d60 fe 0 LdrLoadDll
FUNC 68e70 408 0 RtlUpcaseUnicodeToMultiByteN
PUBLIC 69280 0 LdrpFindKnownDll
PUBLIC 69450 0 RtlGetCriticalSectionRecursionCount
FUNC 69470 16e 0 RtlUnicodeStringToInteger
PUBLIC 695f0 0 RtlFreeSid
FUNC 69630 194 0 RtlGetAppContainerNamedObjectPath
PUBLIC 697d0 0 RtlGetAce
PUBLIC 69840 0 RtlCopyLuid
FUNC 69850 105 0 RtlMultiAppendUnicodeStringBuffer
FUNC 69960 b8 0 RtlpEnsureBufferSize
PUBLIC 69a20 0 RtlSystemTimeToLocalTime
FUNC 69a90 166 0 RtlSetCurrentDirectory_U
FUNC 69bfc ab 0 RtlpCheckForSameCurdir
FUNC 69cb0 dc 0 RtlGetCurrentDirectory_U
FUNC 69d94 85 0 RtlpReferenceCurrentDirectory
FUNC 69e20 68 0 RtlpInitCurrentDir
FUNC 69e90 1d6 0 RtlpCreateNewDirectoryReference
PUBLIC 6a070 0 RtlIdentifierAuthoritySid
PUBLIC 6a080 0 AlpcInitializeMessageAttribute
PUBLIC 6a0e0 0 AlpcGetMessageAttribute
PUBLIC 6a120 0 AlpcGetHeaderSize
PUBLIC 6a160 0 RtlSleepConditionVariableCS
FUNC 6a29c c2 0 RtlpWakeSingle
PUBLIC 6a364 0 TppCleanupGroupRemoveMember
PUBLIC 6a3d0 0 RtlSetSaclSecurityDescriptor
FUNC 6a440 f0 0 RtlDnsHostNameToComputerName
FUNC 6a540 105 0 RtlOemStringToUnicodeString
FUNC 6a650 1d7 0 RtlOemToUnicodeN
FUNC 6a830 fa 0 RtlUpcaseUnicodeStringToOemString
FUNC 6a930 7e 0 RtlpDidUnicodeToOemWork
FUNC 6a9c0 461 0 RtlUpcaseUnicodeToOemN
FUNC 6ae30 e1 0 EtwEventActivityIdControl
FUNC 6af18 fc 0 RtlpQueryRunLevel
FUNC 6b01c 259 0 RtlpQueryInformationActivationContextDetailedInformation
PUBLIC 6b27c 0 RtlpQueryInformationActivationContextCompatibilityInformation
PUBLIC 6b340 0 RtlpLocateActivationContextSectionForQuery
FUNC 6b400 109 0 RtlpCrackActivationContextStringSectionHeader
PUBLIC 6b510 0 LdrpMakePermanentImageCommit
PUBLIC m 6b590 0 RtlInitializeConditionVariable
PUBLIC 6b5a0 0 RtlGetDaclSecurityDescriptor
FUNC 6b600 15e 0 LdrLockLoaderLock
FUNC 6b764 61 0 LdrpTryAcquireLoaderLock
FUNC 6b7d0 c0 0 ApiSetQueryApiSetPresence
FUNC 6b898 15d 0 RtlpWin32NtNameToNtPathName
FUNC 6ba00 2d 0 RtlWakeConditionVariable
FUNC 6ba34 e8 0 RtlpWakeConditionVariable
PUBLIC 6bb30 0 RtlInitializeBitMap
PUBLIC 6bb40 0 RtlImpersonateSelf
FUNC 6bb50 11a 0 RtlImpersonateSelfEx
PUBLIC 6bc70 0 RtlDosPathNameToNtPathName_U
PUBLIC 6bca0 0 LdrGetDllHandleByMapping
FUNC 6bd58 9b 0 RtlpMuiRegGetInstalledLangInfoIndex
PUBLIC m 6be00 0 RtlpCompareActivationContextGuidSectionEntryByGuid
PUBLIC 6be20 0 RtlTimeToSecondsSince1980
PUBLIC 6be70 0 RtlTimeToElapsedTimeFields
FUNC 6bf04 58 0 TimeToDaysAndFraction
PUBLIC 6bf70 0 RtlTimeToSecondsSince1970
PUBLIC 6bfb4 0 RtlExtendedMagicDivide
FUNC 6bff0 32 0 RtlQueryPackageIdentity
FUNC 6c030 de 0 RtlQueryPackageIdentityEx
PUBLIC 6c120 0 RtlAreAllAccessesGranted
PUBLIC 6c130 0 LdrpLogDllStateEx2
FUNC 6c220 6b 0 LdrFindResource_U
PUBLIC 6c2a0 0 RtlGetOwnerSecurityDescriptor
FUNC 6c2e0 3c 0 RtlTryConvertSRWLockSharedToExclusiveOrRelease
PUBLIC 6c324 0 LdrpLogNewDllLoad
FUNC 6c394 246 0 LdrpCodeAuthzInitialize
FUNC 6c5e0 8b 0 LdrUnlockLoaderLock
PUBLIC 6c680 0 RtlGetControlSecurityDescriptor
FUNC 6c6b0 1c 0 RtlUnicodeToMultiByteSize
FUNC 6c6e0 1ce 0 RtlIpv4StringToAddressA
PUBLIC 6c8c0 0 LdrDisableThreadCalloutsForDll
PUBLIC 6c920 0 RtlGetSaclSecurityDescriptor
PUBLIC 6c980 0 RtlDeleteSecurityObject
PUBLIC 6c9a8 0 LdrpVerifyAlternateResourceModule
FUNC 6ca80 20d 0 LdrpQuerySxSMUIFile
FUNC 6cc94 ca 0 RtlpLoadNlsData
FUNC 6cd70 97 0 RtlGetLocaleFileMappingAddress
PUBLIC 6ce10 0 RtlStringFromGUID
FUNC 6ce20 ef 0 RtlStringFromGUIDEx
FUNC 6cf20 127 0 EtwpNotificationThread
FUNC 6d050 d3 0 EtwDeliverDataBlock
FUNC 6d12c bd 0 EtwpProcessNotification
FUNC 6d1f0 c1 0 EtwpFindRegistration
FUNC 6d2c0 27 0 RtlTryAcquireSRWLockShared
PUBLIC 6d2f0 0 TpInitializePackage
FUNC 6d380 5a 0 RtlCreateTagHeap
PUBLIC 6d3e0 0 RtlActivateActivationContext
FUNC 6d430 122 0 RtlActivateActivationContextEx
FUNC 6d558 151 0 RtlpAllocateActivationContextStackFrame
PUBLIC 6d6b0 0 RtlpInitializeActivationContextStackFrameList
PUBLIC 6d6f0 0 RtlUniform
PUBLIC 6d740 0 RtlReleasePebLock
FUNC 6d760 117 0 RtlpNtQueryValueKey
FUNC 6d880 12b 0 RtlpInitParameterBlock
PUBLIC 6d9b4 0 RtlpOptimizeSRWLockList
PUBLIC 6da18 0 RtlpWakeSRWLock
PUBLIC 6dad0 0 RtlGetGroupSecurityDescriptor
PUBLIC 6db10 0 TpAllocAlpcCompletionEx
FUNC 6db34 278 0 TppAllocAlpcCompletion
PUBLIC 6ddc0 0 VerSetConditionMask
PUBLIC 6de00 0 RtlAcquirePebLock
PUBLIC 6de20 0 RtlSetThreadErrorMode
PUBLIC 6de58 0 LdrpCodeAuthzCheckDllAllowed
PUBLIC 6ded0 0 RtlCleanUpTEBLangLists
PUBLIC m 6dfd4 0 RtlpMuiRegFreeLanguageConfigList
PUBLIC 6e000 0 RtlFreeAnsiString
PUBLIC 6e050 0 RtlCreateHashTable
FUNC 6e068 eb 0 RtlpCreateHashTable
PUBLIC 6e15c 0 RtlpAllocateSecondLevelDir
PUBLIC 6e1a4 0 LdrpComputeLazyDllPath
PUBLIC 6e2cc 0 TppAllocThreadData
FUNC 6e350 52 0 RtlRemoveEntryHashTable
PUBLIC 6e3b0 0 RtlGetNtGlobalFlags
PUBLIC 6e3d0 0 LdrQueryImageFileExecutionOptions
PUBLIC 6e400 0 RtlQueryImageFileExecutionOptions
FUNC 6e490 b1 0 RtlpOpenImageFileOptionsKey
FUNC 6e548 89 0 RtlpOpenBaseImageFileOptionsKey
FUNC 6e5d8 cb 0 RtlpProcessIFEOKeyFilter
FUNC 6e6ac 89 0 RtlQueryApplicationKeyOption
FUNC 6e740 de 0 RtlQueryImageFileKeyOption
PUBLIC 6e830 0 RtlStartRXact
FUNC 6e890 47 0 RtlpUpdateHeapRates
FUNC 6e8e0 a5 0 RtlApplyRXact
PUBLIC 6e990 0 RtlApplyRXactNoFlush
PUBLIC 6e9c0 0 RtlAbortRXact
FUNC 6ea04 156 0 RXactpCommit
FUNC 6eb60 99 0 RXactpOpenTargetKey
FUNC 6ec00 106 0 RtlDeactivateActivationContext
FUNC 6ed0c 117 0 RtlpFreeActivationContextStackFrame
PUBLIC 6ee30 0 RtlpCompareActivationContextStringSectionEntryByPseudoKey
FUNC 6ee50 77 0 LdrGetDllDirectory
FUNC 6eed0 1a4 0 RtlpFindActivationContextSection_FillOutReturnedData
PUBLIC 6f07c 0 LdrpSectionTableFromVirtualAddress
PUBLIC 6f110 0 RtlpCreateDeferredCriticalSectionEvent
FUNC 6f180 65 0 RtlWakeAllConditionVariable
PUBLIC 6f1ec 0 RtlULongLongSub
FUNC 6f20c ea 0 RtlpAffinitizeSegmentInfoForBucket
PUBLIC 6f2fc 0 TppPoolAddWorker
PUBLIC 6f37c 0 TppCallbackSendAndDestroyAlpcMessage
PUBLIC 6f3f0 0 RtlSetAllBits
PUBLIC 6f460 0 RtlQueryElevationFlags
PUBLIC 6f4a0 0 RtlFreeHandle
PUBLIC 6f4e0 0 RtlAdjustPrivilege
FUNC 6f5f0 2e 0 RtlGetNextEntryHashTable
FUNC 6f630 20b 0 RtlInstallFunctionTableCallback
FUNC 6f844 91 0 sxsisol_FreeUnicodeStringBufferAroundUnicodeStrings_Success
FUNC 6f8e0 17f 0 RtlQueryActivationContextApplicationSettings
FUNC 6fa68 95 0 TppCritSetThread
FUNC 6fb04 1f 0 RtlpComputeBackupIndex
FUNC 6fb30 5a 0 RtlInterlockedClearBitRun
FUNC 6fb90 cd 0 RtlpInitializeWnf
FUNC 6fc64 8b 0 RtlpWnfRegisterTpNotification
PUBLIC 6fd00 0 RtlpNtOpenKey
FUNC 6fd20 f6 0 RtlpNtEnumerateSubKey
PUBLIC 6fe1c 0 RtlpSetProcMergedLangList
PUBLIC 6fe88 0 TppPoolRemoveWorker
FUNC 6fef0 f7 0 LdrGetKnownDllSectionHandle
PUBLIC 6fff0 0 RtlQueryPerformanceFrequency
PUBLIC 70010 0 RtlQueryWnfStateData
PUBLIC 700e0 0 LdrpCorFixupImage
FUNC 70260 200 0 LdrLoadAlternateResourceModule
PUBLIC 70468 0 LdrpCompareServiceChecksum
PUBLIC 704d8 0 CheckOneBitValidFlag
FUNC 70500 ba 0 RtlNtStatusToDosErrorNoTeb
FUNC 705c0 112 0 TpSetDefaultPoolStackInformation
PUBLIC 706e0 0 TpSetPoolStackInformation
PUBLIC 7070c 0 TpPoolReferenceExistingGlobalPool
PUBLIC 70760 0 RtlDestroyProcessParameters
PUBLIC 70790 0 TpCallbackUnloadDllOnCompletion
PUBLIC 707d0 0 RtlNewSecurityObjectWithMultipleInheritance
PUBLIC 70830 0 TpSetTimer
FUNC 70840 19b 0 RtlIpv6AddressToStringA
PUBLIC 709f0 0 RtlGetNtVersionNumbers
FUNC 70a1c 6e 0 LdrpInitializePerUserWindowsDirectory
PUBLIC 70a90 0 TppFreeDirectParamsCache
FUNC 70ae0 ac 0 RtlCreateTimerQueue
FUNC 70ba0 9d 0 RtlCharToInteger
FUNC 70c50 b8 0 TpAllocCleanupGroup
PUBLIC 70d10 0 TppFreeThreadData
PUBLIC 70d5c 0 NormalizationList__Initialize
FUNC 70dc0 80 0 RtlNormalizeString
FUNC 70e48 7d 0 RtlpNormalizeStringWorker
FUNC 70ecc 14d 0 Normalization__Normalize
FUNC 71020 151 0 Normalization__NormalizeCharacter
FUNC 71178 5a 0 NormBuffer__AppendEx
FUNC 711d8 27 0 NormBuffer__Append
FUNC 71208 13b 0 RtlpGetNormalization
PUBLIC 7134c 0 NormalizationList__Lookup
FUNC 7137c 17f 0 Normalization__LoadTables
PUBLIC 71504 0 Normalization__LoadClassMapExceptions
FUNC 71560 71 0 RtlPublishWnfStateData
PUBLIC 715e0 0 RtlRegisterThreadWithCsrss
PUBLIC 71690 0 RtlInitializeGenericTable
PUBLIC 716d0 0 RtlTryAcquirePebLock
FUNC 716f0 e0 0 RtlUpdateTimer
PUBLIC 717e0 0 TpCaptureCaller
FUNC 71840 e9 0 RtlLargeIntegerToChar
PUBLIC 71930 0 RtlIsPackageSid
FUNC 719a0 284 0 RtlGetUserPreferredUILanguages
FUNC 71c2c 126 0 LdrpGetParentLangId
PUBLIC 71d60 0 RtlEndEnumerationHashTable
FUNC 71db0 33 0 RtlContractHashTable
FUNC 71dec 52 0 TppPoolUpdateTrimmedWorker
PUBLIC 71e50 0 RtlSetControlSecurityDescriptor
FUNC 71e88 40 0 TpDereferenceGlobalPool
PUBLIC 71ed0 0 RtlAddActionToRXact
FUNC 71f50 176 0 RtlAddAttributeActionToRXact
FUNC 720d0 64 0 TpDisassociateCallback
PUBLIC 7213c 0 TppCleanupGroupMemberCompleteCallbacks
FUNC 72150 6f 0 LdrFindResourceEx_U
PUBLIC 721d0 0 RtlRemoveVectoredExceptionHandler
FUNC 721e0 d8 0 RtlpRemoveVectoredHandler
PUBLIC 722c0 0 RtlGetSecurityDescriptorRMControl
PUBLIC 722e0 0 RtlpFreeActivationContext
FUNC 72360 a9 0 RtlpUninitializeAssemblyStorageMap
PUBLIC 72410 0 RtlFreeOemString
PUBLIC 72450 0 RtlSetThreadPoolStartFunc
PUBLIC 72470 0 LdrSetDllManifestProber
PUBLIC 72490 0 RtlQueryInformationActiveActivationContext
PUBLIC 724c0 0 TppSimplepFree
FUNC 72500 6b 0 RtlGetElementGenericTable
PUBLIC 72574 0 LdrpRelocateImage
FUNC 726a8 ec 0 LdrpProtectAndRelocateImage
FUNC 7279c f6 0 LdrpSetProtection
FUNC 72898 f7 0 LdrRelocateImage
FUNC 72998 c7 0 LdrProcessRelocationBlockLongLong
PUBLIC 72a68 0 LdrpLogDllRelocationEtwEvent
PUBLIC 72b60 0 RtlNewSecurityObject
PUBLIC 72bb0 0 RtlCheckForOrphanedCriticalSections
FUNC 72bd0 7a 0 RtlCheckHeldCriticalSections
FUNC 72c50 7c 0 RtlpRemoveUCRBlock
PUBLIC 72cd4 0 RtlpUpdateUCRIndexRemove
FUNC 72d30 1c 0 TppCallbackPerformDeferredWork
FUNC 72d60 12a 0 RtlCreateVirtualAccountSid
PUBLIC m 72e90 0 AlpcMaxAllowedMessageLength
FUNC 72ea0 15c 0 RtlDeleteTimerQueueEx
FUNC 73004 3f 0 RtlpTpTimerQueueRundown
FUNC 7304c 2fd 0 punycode_encode
FUNC 73350 27 0 FindLabelEnd
FUNC 73380 24 0 RtlConvertExclusiveToShared
FUNC 733b0 21f 0 RtlAvlRemoveNode
PUBLIC 735e0 0 RtlAvlInsertNodeEx
PUBLIC 736e8 0 RtlpTreeSingleRotateNodes
FUNC 73744 a 0 TppCritResetThread
PUBLIC 73760 0 RtlNumberGenericTableElements
PUBLIC 73770 0 RtlInitializeGenericTableAvl
PUBLIC 737d0 0 RtlCreateUserThread
FUNC 73840 160 0 RtlpCreateUserThreadEx
FUNC 739b0 26 0 RtlMultiByteToUnicodeSize
PUBLIC 739dc 0 LdrpCorValidateImage
PUBLIC 73a10 0 RtlAddAuditAccessAceEx
PUBLIC 73a40 0 RtlIsThreadWithinLoaderCallout
FUNC 73a60 81 0 RtlRunEncodeUnicodeString
PUBLIC 73af0 0 EtwpGetCpuSpeed
PUBLIC 73afc 0 EtwpGetCpuSpeedFromRegistry
FUNC 73be4 11a 0 RtlpComputeMergedAcl
FUNC 73d04 20c 0 RtlpComputeMergedAcl2
PUBLIC 73f18 0 TppUpdatePoolNodeStatus
PUBLIC 73f60 0 TpReleaseCleanupGroup
PUBLIC 73fc0 0 RtlSetBit
FUNC 73fd0 4d 0 RtlQueryUnbiasedInterruptTime
FUNC 74030 3c 0 TpDisablePoolCallbackChecks
FUNC 74080 b6 0 RtlCompressBuffer
PUBLIC 74140 0 RtlNumberGenericTableElementsAvl
PUBLIC 74150 0 RtlIpv4AddressToStringA
PUBLIC 741a0 0 RtlAllocateWnfSerializationGroup
PUBLIC 741d0 0 RtlDecodeSystemPointer
FUNC 74200 d1 0 RtlSidDominates
FUNC 742e0 1e 0 LdrpProcessInitializationComplete
FUNC 74304 d6 0 EtwpRegisterGuidsApiCallback
FUNC 743e0 7a 0 RtlTestAndPublishWnfStateData
PUBLIC 74460 0 TppItePush
FUNC 74490 eb 0 RtlpMuiRegLoadMachinePreferredUILanguages
FUNC 74590 6c 0 TpSetPoolMinThreads
PUBLIC 74610 0 RtlGetLongestNtPathLength
PUBLIC 74620 0 RtlRunDecodeUnicodeString
FUNC 74680 7b 0 RtlGetCompressionWorkSpaceSize
PUBLIC 74704 0 RtlpInitializeUCRIndex
FUNC 747e0 98 0 RtlInitCodePageTable
PUBLIC 74880 0 TppIteWakeWaiters
FUNC 748b0 5b 0 TpSetPoolMaxThreads
PUBLIC 74920 0 RtlCopyString
FUNC 7495c 71 0 LdrpCorProcessImports
FUNC 749d4 4f 0 AVrfDllLoadNotification
PUBLIC 74a30 0 RtlSecondsSince1970ToTime
PUBLIC 74a60 0 errno
FUNC 74a80 138 0 RtlGetProductInfo
FUNC 74bc0 31 0 CompareVersions
PUBLIC 74c00 0 RtlEncodeSystemPointer
PUBLIC 74c20 0 RtlAddSIDToBoundaryDescriptor
FUNC 74c30 5f 0 RtlDeleteHashTable
PUBLIC 74c98 0 LdrpLogDeprecatedDllEtwEvent
PUBLIC 74e30 0 RtlNumberOfSetBitsUlongPtr
FUNC 74e90 3c 0 EtwGetTraceLoggerHandle
FUNC 74ee0 86 0 RtlDispatchAPC
PUBLIC 74f70 0 EtwEventProviderEnabled
PUBLIC 75020 0 RtlAddAuditAccessAce
PUBLIC 75060 0 EtwGetTraceEnableFlags
PUBLIC 750a0 0 EtwGetTraceEnableLevel
PUBLIC 750d8 0 LdrpRedirectDelayloadFailure
FUNC 75290 52 0 RtlAddAuditAccessObjectAce
FUNC 752f0 9c 0 RtlpGetNameFromLangInfoNode
PUBLIC 753a0 0 RtlFindLeastSignificantBit
FUNC 753c0 3a 0 RtlQueryProtectedPolicy
PUBLIC 75400 0 RtlAddAccessDeniedAceEx
PUBLIC 75430 0 RtlFindMostSignificantBit
PUBLIC 75450 0 RtlCopyMappedMemory
PUBLIC 75470 0 RtlpCopyMappedMemoryEx
FUNC 754c0 22 0 RtlDestroyHandleTable
FUNC 754f0 5e 0 EtwLogTraceEvent
FUNC 75560 122 0 RtlCompactHeap
FUNC 75688 107 0 RtlpCoalesceHeap
FUNC 757a0 47 0 RtlpGetLCIDFromLangInfoNode
PUBLIC 757f0 0 LdrResFindResource
PUBLIC 75870 0 RtlQueryWnfMetaNotification
PUBLIC 758c0 0 RtlSetSecurityObjectEx
PUBLIC 75900 0 RtlAddAccessDeniedAce
FUNC 75930 46 0 RtlpMuiFreeLangRegistryInfo
FUNC 75980 3f 0 RtlMapSecurityErrorToNtStatus
PUBLIC 759d0 0 TpCallbackSetEventOnCompletion
PUBLIC 75a04 0 LdrpLogError
FUNC 75a60 3d 0 RtlAddAccessDeniedObjectAce
PUBLIC 75ab0 0 WinSqmSetIfMaxDWORD
PUBLIC 75ad0 0 RtlCheckTokenMembership
PUBLIC m 75af0 0 RtlWow64CallFunction64
PUBLIC 75b00 0 RtlEqualComputerName
PUBLIC 75b10 0 TpCallbackReleaseMutexOnCompletion
PUBLIC 75b44 0 LdrpCfgProcessLoadConfig
PUBLIC 75d00 0 LdrResolveDelayLoadedAPI
PUBLIC 75e50 0 LdrpFindLoadedDll
PUBLIC 76250 0 LdrpFindOrMapDll
PUBLIC 77450 0 LdrGetDllPath
PUBLIC 7746c 0 RtlpxLookupFunctionTable
PUBLIC 776c0 0 RtlFindNextForwardRunClear
FUNC 776d0 131 0 RtlFindNextForwardRunClearCapped
FUNC 77810 120 0 AlpcGetMessageFromCompletionList
FUNC 77940 f0 0 AlpcFreeCompletionListMessage
PUBLIC 77a40 0 AlpcUnregisterCompletionListWorkerThread
PUBLIC 77aa0 0 AlpcRegisterCompletionListWorkerThread
PUBLIC 77b00 0 RtlCopyExtendedContext
PUBLIC 77b20 0 RtlpCopyExtendedContext
FUNC 77bb0 19 0 RtlpCopyLegacyContext
FUNC 77bd0 2bb 0 RtlpCopyLegacyContextX86
FUNC 77ea0 d9 0 RtlInitializeExtendedContext
FUNC 77f80 7f 0 RtlGetExtendedContextLength
FUNC 78008 5c 0 RtlpValidateContextFlags
FUNC 7806c a1 0 RtlpCopyXStateChunk
FUNC 78120 65 0 RtlImageRvaToVa
PUBLIC 78190 0 RtlImageRvaToSection
PUBLIC 781e0 0 TpCallbackSendPendingAlpcMessage
PUBLIC 78220 0 RtlLocateLegacyContext
PUBLIC 78260 0 RtlGetEnabledExtendedFeatures
PUBLIC 78280 0 RtlpTpIoDllNotification
FUNC 78298 ab 0 RtlpTpIoDllLoaded
PUBLIC 7834c 0 RtlpTpIoDllUnloaded
FUNC 783c0 28e 0 RtlCreateUserStack
FUNC 78660 4e 0 TpAlpcRegisterCompletionList
PUBLIC 786b4 0 TppFastAlpcAdjustConcurrencyCount
PUBLIC 78730 0 AlpcAdjustCompletionListConcurrencyCount
FUNC 78760 131 0 RtlSetIoCompletionCallback
PUBLIC 78898 0 RtlpTpIoLookup
FUNC 789e4 14d 0 RtlpTpIoAlloc
FUNC 78b40 c4 0 LdrRegisterDllNotification
PUBLIC 78c0c 0 RtlpOptimizeWaitOnAddressWaitList
PUBLIC 78c64 0 RtlpWaitOnAddressWakeEntireList
FUNC 78ca0 5d 0 TpCancelAsyncIoOperation
PUBLIC 78d10 0 AlpcRegisterCompletionList
PUBLIC 78d60 0 RtlWriteRegistryValue
PUBLIC 78e00 0 RtlpNtSetValueKey
PUBLIC 78e30 0 RtlGetLastNtStatus
FUNC 78e50 36 0 TpAlpcUnregisterCompletionList
PUBLIC 78e90 0 RtlpNtCreateKey
PUBLIC 78ed0 0 RtlQueryRegistryValues
FUNC 78ef4 f1 0 ResetEventCountOnConsolidatorRun
FUNC 78fec a5 0 ReadUlonglongFromKey
PUBLIC 790a0 0 RtlFreeUserStack
PUBLIC 790e0 0 AlpcRundownCompletionList
PUBLIC 79100 0 AlpcUnregisterCompletionList
PUBLIC 79120 0 RtlGetCurrentPeb
PUBLIC 79140 0 AlpcGetOutstandingCompletionListMessageCount
FUNC 79158 55 0 EtwpQueryUmLogger
PUBLIC 791c0 0 RtlGetProcessHeapsCallback
FUNC 791e0 6a 0 RtlGetProcessHeaps
PUBLIC 79250 0 RtlGetLastWin32Error
FUNC 79270 3e 0 TpSetPoolThreadBasePriority
FUNC 792c0 88 0 RtlDecompressBufferEx
FUNC 79350 538 0 RtlDecompressBufferXpressHuff
FUNC 79890 3bb 0 XpressBuildHuffmanDecodingTable
FUNC 79c60 56 0 RtlCompressBufferXpressHuff
FUNC 79cbc 76e 0 RtlCompressBufferXpressHuffStandard
FUNC 7a430 30a 0 XpressDoHuffmanPass
FUNC 7a740 36c 0 XpressBuildHuffmanEncodings
FUNC 7aac0 1c8 0 RtlFindClearBits
PUBLIC 7ac90 0 WinSqmCopyString
FUNC 7acc0 325 0 LdrVerifyImageMatchesChecksumEx
FUNC 7aff0 db 0 EtwProcessPrivateLoggerRequest
PUBLIC 7b0d4 0 EtwpValidateLoggerInfo
FUNC 7b120 62 0 EtwpStopUmLogger
FUNC 7b188 3e 0 EtwpGetPrivateLoggerContext
FUNC 7b1cc 61 0 EtwpGetPrivateLoggerContextByName
FUNC 7b240 ae 0 RtlCompareString
PUBLIC 7b300 0 WinSqmStartSession
FUNC 7b310 39c 0 WinSqmStartSessionInternal
FUNC 7b6c0 ff 0 RtlRemovePrivileges
FUNC 7b7d0 350 0 RtlCreateAndSetSD
FUNC 7bb30 f2 0 RtlCreateUserProcess
FUNC 7bc28 28a 0 RtlpCreateUserProcess
FUNC 7bec0 18 0 RtlNormalizeProcessParams
FUNC 7bee0 77 0 RtlSetThreadIsCritical
PUBLIC 7bf60 0 RtlQueryWnfStateDataWithExplicitScope
FUNC 7c030 220 0 RtlpQueryPseudoEnvironmentVariable
FUNC 7c258 f5 0 RtlStringCbPrintfExW
FUNC 7c354 7d 0 RtlStringVPrintfWorkerW
PUBLIC 7c3e0 0 LdrFlushAlternateResourceModules
FUNC 7c540 188 0 RtlConnectToSm
FUNC 7c6d0 84 0 TppStopWaitCallbackGeneration
FUNC 7c760 1b8 0 RtlAcquirePrivilege
FUNC 7c920 cc 0 RtlSendMsgToSm
FUNC 7ca00 215 0 RtlpVerifyAndCommitUILanguageSettings
PUBLIC 7cc1c 0 RtlUpdateProcessRegistryInfo
FUNC 7ccc4 8f 0 RtlpGetInstalledLanguageType
FUNC 7cd60 138 0 RtlAddProcessTrustLabelAce
FUNC 7cea0 ec 0 EtwEventWriteStartScenario
FUNC 7cfa0 dc 0 EtwEventWriteEndScenario
PUBLIC 7d084 0 EtwpGetKmRegHandle
FUNC 7d0d0 110 0 WinSqmEndSession
FUNC 7d1f0 188 0 RtlGetSetBootStatusData
FUNC 7d380 1d5 0 RtlInitializeRXact
FUNC 7d560 a5 0 RtlReleasePrivilege
PUBLIC 7d610 0 RtlRegisterForWnfMetaNotification
FUNC 7d670 9b 0 EtwEventWriteNoRegistration
FUNC 7d720 1be 0 RtlFindSetBits
PUBLIC 7d8f0 0 RtlpWnfMetaCallbackProc
PUBLIC 7d930 0 TpAllocAlpcCompletion
PUBLIC 7d960 0 RtlCompressWorkSpaceSizeXpressHuff
PUBLIC 7d9a0 0 RtlLockBootStatusData
FUNC 7da80 74 0 RtlSetProcessIsCritical
FUNC 7dafc 132 0 RtlpLoadInstallLanguageFallback
FUNC 7dc40 b1 0 RtlSetCurrentEnvironment
PUBLIC 7dd00 0 RtlUnlockBootStatusData
FUNC 7dd68 6e 0 RtlpTpImpersonate
FUNC 7dde0 37 0 EtwRegisterSecurityProvider
PUBLIC 7de20 0 LdrSetMUICacheType
PUBLIC 7de90 0 LdrpUnloadShimEngine
PUBLIC 7dec0 0 RtlEqualWnfChangeStamps
PUBLIC 7ded0 0 RtlTestBit
PUBLIC 7dee4 0 RtlpTpRevert
PUBLIC 7df18 0 LdrpGetModuleInfoFromVirtualMemory
FUNC 7e0c0 1a6 0 RtlSetProcessPreferredUILanguages
PUBLIC 7e270 0 LdrpQueueDeferredTlsData
FUNC 7e2d0 96 0 WinSqmSetEscalationInfo
PUBLIC 7e370 0 RtlOwnerAcesPresent
PUBLIC 7e380 0 TppQueueRemoveHead
PUBLIC 7e3e4 0 TppAreNodeWorkersSteadyState
FUNC 7e440 9f 0 RtlDeleteAtomFromAtomTable
PUBLIC 7e4e8 0 RtlpDereferenceAtom
PUBLIC 7e540 0 RtlpFreeAllAtom
PUBLIC 7e5bc 0 RtlpFreeHandleForAtom
FUNC 7e610 15f 0 RtlSleepConditionVariableSRW
FUNC 7e778 48 0 RtlpOptimizeConditionVariableWaitList
PUBLIC 7e7d0 0 RtlEraseUnicodeString
FUNC 7e810 1ee 0 RtlQueryAtomInAtomTable
FUNC 7ea04 1c3 0 RtlpSysVolCheckOwnerAndSecurity
FUNC 7ebd0 25d 0 RtlCreateSystemVolumeInformationFolder
FUNC 7ee34 13f 0 RtlpSysVolCreateSecurityDescriptor
PUBLIC 7ef7c 0 RtlpSysVolAllocate
FUNC 7ef9c 159 0 LdrpInitShimEngine
FUNC 7f0fc 1d8 0 LdrpLoadShimEngine
PUBLIC 7f2dc 0 LdrpSendShimEngineInitialNotifications
FUNC 7f36c b5 0 LdrpInitializeShimDllDependencies
FUNC 7f428 378 0 LdrpGetShimEngineInterface
PUBLIC 7f7b0 0 LdrGetProcedureAddressEx
FUNC 7f7e0 207 0 RtlAddGrowableFunctionTable
PUBLIC 7f9f0 0 ValidateStd3Range
FUNC 7fa30 20b 0 TpReleasePool
PUBLIC 7fc44 0 TppPoolpFree
PUBLIC 7fd54 0 TppDestroyTimerSubQueue
FUNC 7fd90 83 0 LdrEnumerateLoadedModules
PUBLIC 7fe1c 0 RtlpRunOnceWaitForInit
FUNC 7fe80 5e 0 LdrpLogLoadFailureEtwEvent
FUNC 7fef0 a4 0 RtlSetSearchPathMode
PUBLIC 7ffa0 0 RtlUnsubscribeWnfNotificationWithCompletionCallback
PUBLIC 7ffd4 0 RtlpUnwindOpSlots
FUNC 80020 b9 0 RtlpLookupDynamicFunctionEntry
FUNC 800e0 61 0 RtlpSameFunction
PUBLIC 80148 0 RtlpLookupPrimaryFunctionEntry
FUNC 80198 72 0 RtlpUpdateHeapWatermarks
PUBLIC 80210 0 RtlLocalTimeToSystemTime
FUNC 80280 c2 0 LdrQueryModuleInfoFromLdrEntry32
PUBLIC 80350 0 LdrQueryNextListEntry32
FUNC 80390 226 0 RtlQueryProcessDebugInformation
FUNC 805bc ef 0 RtlQueryProcessModuleInformation
FUNC 806b4 176 0 LdrpGetModuleName
PUBLIC 80830 0 LdrQueryProcessModuleInformationEx
PUBLIC 80b60 0 LdrQueryNextListEntry
PUBLIC 80b80 0 LdrQueryModuleInfoFromLdrEntry
FUNC 80c90 6c 0 LdrpReadMemory
FUNC 80d10 3f 0 RtlpQueryReadVirtualMemory
FUNC 80d60 5b 0 LdrpProtectedCopyMemory
PUBLIC 80dd0 0 LdrQueryInLoadOrderModuleList32
PUBLIC 80e80 0 LdrQueryInLoadOrderModuleList
PUBLIC 80ea4 0 RtlpCommitQueryDebugInfo
PUBLIC 80f40 0 RtlDestroyQueryDebugBuffer
FUNC 80f78 1b9 0 RtlpChangeQueryDebugBufferTarget
FUNC 81140 9 0 LdrpQueryInformationCurrentProcess
PUBLIC 81150 0 LdrQueryModuleInfoLocalLoaderUnlock
PUBLIC 81170 0 LdrQueryModuleInfoLocalLoaderLock
FUNC 81180 266 0 RtlCreateQueryDebugBuffer
FUNC 813ec fe 0 RtlpSysVolTakeOwnership
FUNC 814f0 93 0 WinSqmGetInstrumentationProperty
PUBLIC 81590 0 RtlTestProtectedAccess
FUNC 815e0 93 0 WinSqmCheckEscalationSetDWORD
PUBLIC 81690 0 LdrpValidateUserCallTargetEH
PUBLIC 816b0 0 LdrpValidateUserCallTarget
PUBLIC 81700 0 UninitUser32Proc
PUBLIC 81730 0 RtlInitializeNtUserPfn
PUBLIC 81990 0 RtlResetNtUserPfn
PUBLIC 81a10 0 RtlRetrieveNtUserPfn
PUBLIC 81a50 0 invalid_parameter
PUBLIC 81b20 0 _security_check_cookie
PUBLIC 81b44 0 _raise_securityfailure
PUBLIC 81b70 0 _report_gsfailure
PUBLIC 81cc0 0 _report_rangecheckfailure
PUBLIC 81cd8 0 _report_securityfailure
PUBLIC m 81d70 0 LdrQueryModuleInfoLocalLoaderLock32
PUBLIC 81d90 0 _C_specific_handler
PUBLIC 81f50 0 _isascii
PUBLIC 81f70 0 _iscsym
PUBLIC 81fc0 0 _iscsymf
PUBLIC 82010 0 _toascii
PUBLIC 82020 0 isalnum
PUBLIC 82050 0 isalpha
PUBLIC 82080 0 iscntrl
PUBLIC 820b0 0 isdigit
PUBLIC 820e0 0 isgraph
PUBLIC 82110 0 islower
PUBLIC 82140 0 isprint
PUBLIC 82170 0 ispunct
PUBLIC 821a0 0 isspace
PUBLIC 821d0 0 isupper
PUBLIC 82200 0 isxdigit
PUBLIC 82230 0 atoi64
PUBLIC 82250 0 atoi
PUBLIC 82280 0 atol
PUBLIC 822a0 0 i64toa
PUBLIC 822e0 0 itoa
PUBLIC 82310 0 ltoa
PUBLIC 82340 0 ui64toa
PUBLIC 823a0 0 ultoa
FUNC 823c0 58 0 x64toa
FUNC 82420 52 0 xtoa
PUBLIC 82480 0 i64tow
PUBLIC 824c0 0 itow
PUBLIC 824f0 0 ltow
PUBLIC 82520 0 ui64tow
PUBLIC 82540 0 ultow
FUNC 82560 74 0 x64tow
FUNC 825e0 6e 0 xtow
PUBLIC 82660 0 lfind
PUBLIC 82720 0 local_unwind
PUBLIC 82750 0 memccpy
PUBLIC 82780 0 _ascii_memicmp
PUBLIC 827e0 0 memicmp
PUBLIC 82800 0 snprintf
PUBLIC 828b0 0 snwprintf
PUBLIC 82990 0 splitpath
FUNC 82a20 277 0 splitpath_helper
PUBLIC 82ca0 0 _ascii_stricmp
PUBLIC 82ce0 0 stricmp
PUBLIC 82cf0 0 strlwr
PUBLIC 82d20 0 strlwr_s
PUBLIC 82d90 0 _ascii_strnicmp
PUBLIC 82de0 0 strnicmp
PUBLIC 82df0 0 strupr
PUBLIC 82e40 0 strupr_s
PUBLIC m 82eb0 0 swprintf
PUBLIC 82f70 0 vscwprintf
PUBLIC 82f8c 0 vscwprintf_helper
PUBLIC 83020 0 vswprintf
PUBLIC 83034 0 vswprintf_l
PUBLIC 830e0 0 vsnprintf
PUBLIC 830fc 0 vsnprintf_l
PUBLIC 831b0 0 vsnwprintf
PUBLIC 831cc 0 vsnwprintf_l
PUBLIC 832b0 0 wcsicmp
PUBLIC 83300 0 wcslwr
PUBLIC 83350 0 wcslwr_s
PUBLIC 833d0 0 wcsnicmp
PUBLIC 83430 0 wcsnset_s
PUBLIC 834c0 0 wcsset_s
FUNC 83520 24c 0 wcstoxq
PUBLIC 83780 0 wcstoi64
PUBLIC 837b0 0 wcstoui64
PUBLIC 837e0 0 wcsupr
PUBLIC 83820 0 wcsupr_s
PUBLIC 838a0 0 wtoi
PUBLIC 838d0 0 wtoi64
PUBLIC 838f0 0 wtol
PUBLIC 83910 0 atan
PUBLIC 83b80 0 bsearch
PUBLIC 83c90 0 ceil
PUBLIC 83db0 0 cos
PUBLIC 841d0 0 sin
FUNC 84614 9b 0 sin_piby4
PUBLIC 846c0 0 fabs
PUBLIC 847b0 0 floor
PUBLIC 848b8 0 isleadbyte
PUBLIC 848e0 0 iswalnum
PUBLIC 848f0 0 iswalpha
PUBLIC 84900 0 iswascii
PUBLIC 84920 0 iswdigit
PUBLIC 84930 0 iswgraph
PUBLIC 84940 0 iswlower
PUBLIC 84950 0 iswprint
PUBLIC 84960 0 iswspace
PUBLIC 84970 0 iswxdigit
PUBLIC 84980 0 iswctype_l
PUBLIC 849b0 0 iswctype
PUBLIC m 849e0 0 abs
PUBLIC 849f0 0 log
PUBLIC 84ce0 0 longjmp
PUBLIC 84d10 0 mbstowcs
PUBLIC 84de0 0 memchr
PUBLIC 84e10 0 memcmp
PUBLIC 84ef0 0 qsort
FUNC 851e0 cd 0 shortsort
PUBLIC 852c0 0 qsort_s
FUNC 85620 ce 0 shortsort_s
PUBLIC 85700 0 sprintf
PUBLIC 857a0 0 sqrt
PUBLIC 858b0 0 sscanf
FUNC 858ec 99 0 vscan_fn
PUBLIC 859a0 0 strcat
PUBLIC 85a40 0 strcpy
PUBLIC 85a43 0 __entry_from_strcat_in_strcpy
PUBLIC 85b00 0 strchr
PUBLIC 85b30 0 strcmp
PUBLIC 85bf0 0 strcspn
PUBLIC 85ca0 0 strlen
PUBLIC 85d60 0 strncat
PUBLIC 85f10 0 strncmp
PUBLIC 85fe0 0 strncpy
PUBLIC 86150 0 strnlen
PUBLIC 86170 0 strpbrk
PUBLIC 86220 0 strrchr
PUBLIC 86250 0 strspn
PUBLIC 86320 0 strstr
FUNC 86380 239 0 strtoxlX
PUBLIC 865c0 0 strtol
PUBLIC 865f0 0 strtolX
PUBLIC 86620 0 strtoul
PUBLIC 86660 0 tan
FUNC 86930 1cd 0 tan_piby4
PUBLIC 86b10 0 tolower
PUBLIC 86b50 0 toupper
PUBLIC 86bc0 0 towlower
PUBLIC 86bf0 0 towupper
PUBLIC 86bfc 0 vsprintf_l
PUBLIC 86c80 0 vsprintf
PUBLIC 86ca0 0 wcscat
PUBLIC 86ce0 0 wcscpy
PUBLIC 86d10 0 wcschr
PUBLIC 86d40 0 wcscmp
PUBLIC 86d80 0 wcscspn
PUBLIC 86dd0 0 wcslen
PUBLIC 86df0 0 wcsncat
PUBLIC 86e40 0 wcsncmp
PUBLIC 86e80 0 wcsncpy
PUBLIC 86ed0 0 wcsnlen
PUBLIC 86f00 0 wcspbrk
PUBLIC 86f50 0 wcsrchr
PUBLIC 86f90 0 wcsspn
PUBLIC 86fe0 0 wcsstr
FUNC 87050 206 0 wcstoxlX
PUBLIC 87260 0 wcstol
PUBLIC 87290 0 wcstolX
PUBLIC 872c0 0 wcstoul
PUBLIC 87300 0 wcstombs
PUBLIC 87384 0 _GSHandlerCheck
PUBLIC 873a8 0 _GSHandlerCheckCommon
PUBLIC 87420 0 NLG_Notify
PUBLIC 87440 0 _NLG_Dispatch2
PUBLIC 87450 0 _NLG_Return2
PUBLIC 87458 0 _except_validate_context_record
PUBLIC 87494 0 _except_validate_jump_buffer
PUBLIC 874e0 0 _pctype_func
FUNC 874f0 230 0 strtoxq
PUBLIC 87730 0 strtoi64
PUBLIC m 87760 0 flsbuf
PUBLIC 87770 0 output_l
FUNC 87fb4 46 0 write_char
FUNC 88000 51 0 write_multi_char
FUNC 88058 80 0 write_string
PUBLIC 880e0 0 woutput_l
FUNC 88a04 49 0 write_char
FUNC 88a54 51 0 write_multi_char
FUNC 88aac 85 0 write_string
PUBLIC 88b40 0 wchartodigit
PUBLIC 88cdc 0 control87
PUBLIC 88f74 0 controlfp
FUNC 88f84 65 0 call_matherr
FUNC 88ff0 b9 0 exception_enabled
PUBLIC 890b0 0 handle_error
PUBLIC 891e0 0 _remainder_piby2
PUBLIC 896c0 0 RaiseException
PUBLIC 89754 0 errcode
PUBLIC 897a0 0 except1
PUBLIC 89898 0 handle_exc
PUBLIC 89b00 0 handle_qnan1
PUBLIC 89b68 0 raise_exc
PUBLIC 89b98 0 raise_exc_ex
PUBLIC 89e10 0 set_errno_from_matherr
PUBLIC 89e44 0 umatherr
PUBLIC 89f20 0 decomp
PUBLIC 8a05c 0 sptype
PUBLIC 8a0d8 0 clrfp
PUBLIC 8a0fc 0 ctrlfp
PUBLIC 8a180 0 set_statfp
PUBLIC 8a1a8 0 statfp
PUBLIC 8a1d0 0 mbstrlen
PUBLIC 8a210 0 pow_special
FUNC 8a314 1ba 0 ReadString
FUNC 8a4d4 15b 0 ReadStringDelimited
FUNC 8a638 25 0 inc
PUBLIC 8a670 0 input_l
PUBLIC 8af78 0 get_printf_count_output
PUBLIC 8afa0 0 wctomb_s_l
PUBLIC 8b058 0 wctomb_s
PUBLIC 8b074 0 fputwc_nolock
PUBLIC 8b0d0 0 set_fpsr
PUBLIC 8b0da 0 fclrf
PUBLIC m 8b100 0 CsrIdentifyAlertableThread
PUBLIC 8b110 0 ungetc_nolock
PUBLIC 8b1b4 0 flswbuf
PUBLIC 8b1c4 0 getbuf
PUBLIC 8b1f0 0 i64toa_s
PUBLIC 8b220 0 itoa_s
PUBLIC 8b250 0 ltoa_s
PUBLIC 8b280 0 ui64toa_s
PUBLIC 8b2a0 0 ultoa_s
FUNC 8b2c0 10b 0 x64toa_s
FUNC 8b3e0 10a 0 xtoa_s
PUBLIC 8b4f0 0 i64tow_s
PUBLIC 8b520 0 itow_s
PUBLIC 8b550 0 ltow_s
PUBLIC 8b580 0 ui64tow_s
PUBLIC 8b5a0 0 ultow_s
FUNC 8b5c0 123 0 x64tow_s
FUNC 8b6f0 122 0 xtow_s
PUBLIC 8b820 0 makepath_s
PUBLIC 8b960 0 snprintf_s
PUBLIC 8b990 0 vsnprintf_s
PUBLIC 8ba30 0 snscanf_s
PUBLIC 8ba70 0 snwprintf_s
PUBLIC 8baa0 0 vsnwprintf_s
PUBLIC 8bb50 0 snwscanf_s
PUBLIC 8bb90 0 splitpath_s
PUBLIC 8be30 0 strnset_s
PUBLIC 8bec0 0 strset_s
PUBLIC 8bf20 0 wmakepath_s
PUBLIC 8c090 0 wsplitpath_s
PUBLIC 8c350 0 memcpy_s
PUBLIC 8c400 0 memmove_s
PUBLIC 8c480 0 sprintf_s
PUBLIC 8c4b0 0 vsprintf_s
PUBLIC 8c500 0 sscanf_s
PUBLIC 8c560 0 strcat_s
PUBLIC 8c600 0 strcpy_s
PUBLIC 8c690 0 strncat_s
PUBLIC 8c790 0 strncpy_s
PUBLIC 8c880 0 strtok_s
PUBLIC 8c9b0 0 swprintf_s
PUBLIC 8c9e0 0 vswprintf_s
PUBLIC 8ca40 0 swscanf_s
PUBLIC 8caa0 0 wcscat_s
PUBLIC 8cb40 0 wcscpy_s
PUBLIC 8cbd0 0 wcsncat_s
PUBLIC 8cce0 0 wcsncpy_s
PUBLIC 8cdf0 0 wcstok_s
PUBLIC 8cee0 0 output_s
PUBLIC m 8d770 0 safecrt_mbtowc
PUBLIC 8d7d0 0 safecrt_wctomb_s
PUBLIC 8d8b0 0 soutput_s
FUNC 8d990 47 0 write_char
FUNC 8d9e0 51 0 write_multi_char
FUNC 8da40 6a 0 write_string
FUNC 8dab0 1ab 0 ReadString
FUNC 8dc70 16e 0 ReadStringDelimited
FUNC 8ddf0 25 0 inc
PUBLIC 8de20 0 input_s
PUBLIC 8e700 0 sinput_s
PUBLIC 8e770 0 swoutput_s
PUBLIC 8e890 0 woutput_s
FUNC 8f150 57 0 write_char
FUNC 8f1b0 4a 0 write_multi_char
FUNC 8f200 62 0 write_string
FUNC 8f270 236 0 ReadString
FUNC 8f4b0 1cf 0 ReadStringDelimited
FUNC 8f690 45 0 hextodec
PUBLIC 8f6e0 0 swinput_s
FUNC 8f750 50 0 whiteout
PUBLIC 8f7b0 0 winput_s
PUBLIC m 90180 0 filbuf
PUBLIC 90190 0 fgetwc_nolock
PUBLIC 901f0 0 ungetwc_nolock
PUBLIC 90298 0 _GSHandlerCheck_SEH
PUBLIC 90340 0 frnd
PUBLIC 90370 0 RtlGetCurrentProcessorNumber
PUBLIC 90390 0 RtlGetCurrentProcessorNumberEx
PUBLIC 903c0 0 LdrpTouchPageForWrite
PUBLIC 903d0 0 NtdllScrollBarWndProc_A
PUBLIC 903e0 0 NtdllScrollBarWndProc_W
PUBLIC 903f0 0 NtdllTitleWndProc_A
PUBLIC 90400 0 NtdllTitleWndProc_W
PUBLIC 90410 0 NtdllMenuWndProc_A
PUBLIC 90420 0 NtdllMenuWndProc_W
PUBLIC 90430 0 NtdllDesktopWndProc_A
PUBLIC 90440 0 NtdllDesktopWndProc_W
PUBLIC 90450 0 NtdllDefWindowProc_A
PUBLIC 90460 0 NtdllDefWindowProc_W
PUBLIC 90470 0 NtdllMessageWindowProc_A
PUBLIC 90480 0 NtdllMessageWindowProc_W
PUBLIC 90490 0 NtdllSwitchWindowProc_A
PUBLIC 904a0 0 NtdllSwitchWindowProc_W
PUBLIC 904b0 0 NtdllButtonWndProc_A
PUBLIC 904c0 0 NtdllButtonWndProc_W
PUBLIC 904d0 0 NtdllComboBoxWndProc_A
PUBLIC 904e0 0 NtdllComboBoxWndProc_W
PUBLIC 904f0 0 NtdllComboListBoxProc_A
PUBLIC 90500 0 NtdllComboListBoxProc_W
PUBLIC 90510 0 NtdllDialogWndProc_A
PUBLIC 90520 0 NtdllDialogWndProc_W
PUBLIC 90530 0 NtdllEditWndProc_A
PUBLIC 90540 0 NtdllEditWndProc_W
PUBLIC 90550 0 NtdllListBoxWndProc_A
PUBLIC 90560 0 NtdllListBoxWndProc_W
PUBLIC 90570 0 NtdllMDIClientWndProc_A
PUBLIC 90580 0 NtdllMDIClientWndProc_W
PUBLIC 90590 0 NtdllStaticWndProc_A
PUBLIC 905a0 0 NtdllStaticWndProc_W
PUBLIC 905b0 0 NtdllImeWndProc_A
PUBLIC 905c0 0 NtdllImeWndProc_W
PUBLIC 905d0 0 NtdllGhostWndProc_A
PUBLIC 905e0 0 NtdllGhostWndProc_W
PUBLIC 905f0 0 NtdllHkINLPCWPSTRUCT_A
PUBLIC 90600 0 NtdllHkINLPCWPSTRUCT_W
PUBLIC 90610 0 NtdllHkINLPCWPRETSTRUCT_A
PUBLIC 90620 0 NtdllHkINLPCWPRETSTRUCT_W
PUBLIC 90630 0 NtdllDispatchHook_A
PUBLIC 90640 0 NtdllDispatchHook_W
PUBLIC 90650 0 NtdllDispatchDefWindowProc_A
PUBLIC 90660 0 NtdllDispatchDefWindowProc_W
PUBLIC 90670 0 NtdllDispatchMessage_A
PUBLIC 90680 0 NtdllDispatchMessage_W
PUBLIC 90690 0 NtdllMDIActivateDlgProc_A
PUBLIC 906a0 0 NtdllMDIActivateDlgProc_W
PUBLIC 906b0 0 NtdllButtonWndProcWorker
PUBLIC 906c0 0 NtdllComboBoxWndProcWorker
PUBLIC 906d0 0 NtdllComboListBoxProcWorker
PUBLIC 906e0 0 NtdllDialogWndProcWorker
PUBLIC 906f0 0 NtdllEditWndProcWorker
PUBLIC 90700 0 NtdllListBoxWndProcWorker
PUBLIC 90710 0 NtdllMDIClientWndProcWorker
PUBLIC 90720 0 NtdllStaticWndProcWorker
PUBLIC 90730 0 NtdllImeWndProcWorker
PUBLIC 90740 0 NtdllGhostWndProcWorker
PUBLIC 90750 0 NtdllCtfHookProcWorker
PUBLIC m 90760 0 NtWorkerFactoryWorkerReady
PUBLIC m 90770 0 NtAcceptConnectPort
PUBLIC m 90780 0 NtMapUserPhysicalPagesScatter
PUBLIC m 90790 0 NtWaitForSingleObject
PUBLIC m 907a0 0 NtCallbackReturn
PUBLIC m 907b0 0 NtReadFile
PUBLIC m 907c0 0 NtDeviceIoControlFile
PUBLIC m 907d0 0 NtWriteFile
PUBLIC m 907e0 0 NtRemoveIoCompletion
PUBLIC m 907f0 0 NtReleaseSemaphore
PUBLIC m 90800 0 NtReplyWaitReceivePort
PUBLIC m 90810 0 NtReplyPort
PUBLIC m 90820 0 NtSetInformationThread
PUBLIC m 90830 0 NtSetEvent
PUBLIC m 90840 0 NtClose
PUBLIC m 90850 0 NtQueryObject
PUBLIC m 90860 0 NtQueryInformationFile
PUBLIC m 90870 0 NtOpenKey
PUBLIC m 90880 0 NtEnumerateValueKey
PUBLIC m 90890 0 NtFindAtom
PUBLIC m 908a0 0 NtQueryDefaultLocale
PUBLIC m 908b0 0 NtQueryKey
PUBLIC m 908c0 0 NtQueryValueKey
PUBLIC m 908d0 0 NtAllocateVirtualMemory
PUBLIC m 908e0 0 NtQueryInformationProcess
PUBLIC m 908f0 0 NtWaitForMultipleObjects32
PUBLIC m 90900 0 NtWriteFileGather
PUBLIC m 90910 0 NtSetInformationProcess
PUBLIC m 90920 0 NtCreateKey
PUBLIC m 90930 0 NtFreeVirtualMemory
PUBLIC m 90940 0 NtImpersonateClientOfPort
PUBLIC m 90950 0 NtReleaseMutant
PUBLIC m 90960 0 NtQueryInformationToken
PUBLIC m 90970 0 NtRequestWaitReplyPort
PUBLIC m 90980 0 NtQueryVirtualMemory
PUBLIC m 90990 0 NtOpenThreadToken
PUBLIC m 909a0 0 NtQueryInformationThread
PUBLIC m 909b0 0 NtOpenProcess
PUBLIC m 909c0 0 NtSetInformationFile
PUBLIC m 909d0 0 NtMapViewOfSection
PUBLIC m 909e0 0 NtAccessCheckAndAuditAlarm
PUBLIC m 909f0 0 NtUnmapViewOfSection
PUBLIC m 90a00 0 NtReplyWaitReceivePortEx
PUBLIC m 90a10 0 NtTerminateProcess
PUBLIC m 90a20 0 NtSetEventBoostPriority
PUBLIC m 90a30 0 NtReadFileScatter
PUBLIC m 90a40 0 NtOpenThreadTokenEx
PUBLIC m 90a50 0 NtOpenProcessTokenEx
PUBLIC m 90a60 0 NtQueryPerformanceCounter
PUBLIC m 90a70 0 NtEnumerateKey
PUBLIC m 90a80 0 NtOpenFile
PUBLIC m 90a90 0 NtDelayExecution
PUBLIC m 90aa0 0 NtQueryDirectoryFile
PUBLIC m 90ab0 0 NtQuerySystemInformation
PUBLIC m 90ac0 0 NtOpenSection
PUBLIC m 90ad0 0 NtQueryTimer
PUBLIC m 90ae0 0 NtFsControlFile
PUBLIC m 90af0 0 NtWriteVirtualMemory
PUBLIC m 90b00 0 NtCloseObjectAuditAlarm
PUBLIC m 90b10 0 NtDuplicateObject
PUBLIC m 90b20 0 NtQueryAttributesFile
PUBLIC m 90b30 0 NtClearEvent
PUBLIC m 90b40 0 NtReadVirtualMemory
PUBLIC m 90b50 0 NtOpenEvent
PUBLIC m 90b60 0 NtAdjustPrivilegesToken
PUBLIC m 90b70 0 NtDuplicateToken
PUBLIC m 90b80 0 NtContinue
PUBLIC m 90b90 0 NtQueryDefaultUILanguage
PUBLIC m 90ba0 0 NtQueueApcThread
PUBLIC m 90bb0 0 NtYieldExecution
PUBLIC m 90bc0 0 NtAddAtom
PUBLIC m 90bd0 0 NtCreateEvent
PUBLIC m 90be0 0 NtQueryVolumeInformationFile
PUBLIC m 90bf0 0 NtCreateSection
PUBLIC m 90c00 0 NtFlushBuffersFile
PUBLIC m 90c10 0 NtApphelpCacheControl
PUBLIC m 90c20 0 NtCreateProcessEx
PUBLIC m 90c30 0 NtCreateThread
PUBLIC m 90c40 0 NtIsProcessInJob
PUBLIC m 90c50 0 NtProtectVirtualMemory
PUBLIC m 90c60 0 NtQuerySection
PUBLIC m 90c70 0 NtResumeThread
PUBLIC m 90c80 0 NtTerminateThread
PUBLIC m 90c90 0 NtReadRequestData
PUBLIC m 90ca0 0 NtCreateFile
PUBLIC m 90cb0 0 NtQueryEvent
PUBLIC m 90cc0 0 NtWriteRequestData
PUBLIC m 90cd0 0 NtOpenDirectoryObject
PUBLIC m 90ce0 0 NtAccessCheckByTypeAndAuditAlarm
PUBLIC m 90cf0 0 NtQuerySystemTime
PUBLIC m 90d00 0 NtWaitForMultipleObjects
PUBLIC m 90d10 0 NtSetInformationObject
PUBLIC m 90d20 0 NtCancelIoFile
PUBLIC m 90d30 0 NtTraceEvent
PUBLIC m 90d40 0 NtPowerInformation
PUBLIC m 90d50 0 NtSetValueKey
PUBLIC m 90d60 0 NtCancelTimer
PUBLIC m 90d70 0 NtSetTimer
PUBLIC m 90d80 0 NtAccessCheck
PUBLIC m 90d90 0 NtAccessCheckByType
PUBLIC m 90da0 0 NtAccessCheckByTypeResultList
PUBLIC m 90db0 0 NtAccessCheckByTypeResultListAndAuditAlarm
PUBLIC m 90dc0 0 NtAccessCheckByTypeResultListAndAuditAlarmByHandle
PUBLIC m 90dd0 0 NtAddAtomEx
PUBLIC m 90de0 0 NtAddBootEntry
PUBLIC m 90df0 0 NtAddDriverEntry
PUBLIC m 90e00 0 NtAdjustGroupsToken
PUBLIC m 90e10 0 NtAdjustTokenClaimsAndDeviceGroups
PUBLIC m 90e20 0 NtAlertResumeThread
PUBLIC m 90e30 0 NtAlertThread
PUBLIC m 90e40 0 NtAlertThreadByThreadId
PUBLIC m 90e50 0 NtAllocateLocallyUniqueId
PUBLIC m 90e60 0 NtAllocateReserveObject
PUBLIC m 90e70 0 NtAllocateUserPhysicalPages
PUBLIC m 90e80 0 NtAllocateUuids
PUBLIC m 90e90 0 NtAlpcAcceptConnectPort
PUBLIC m 90ea0 0 NtAlpcCancelMessage
PUBLIC m 90eb0 0 NtAlpcConnectPort
PUBLIC m 90ec0 0 NtAlpcConnectPortEx
PUBLIC m 90ed0 0 NtAlpcCreatePort
PUBLIC m 90ee0 0 NtAlpcCreatePortSection
PUBLIC m 90ef0 0 NtAlpcCreateResourceReserve
PUBLIC m 90f00 0 NtAlpcCreateSectionView
PUBLIC m 90f10 0 NtAlpcCreateSecurityContext
PUBLIC m 90f20 0 NtAlpcDeletePortSection
PUBLIC m 90f30 0 NtAlpcDeleteResourceReserve
PUBLIC m 90f40 0 NtAlpcDeleteSectionView
PUBLIC m 90f50 0 NtAlpcDeleteSecurityContext
PUBLIC m 90f60 0 NtAlpcDisconnectPort
PUBLIC m 90f70 0 NtAlpcImpersonateClientOfPort
PUBLIC m 90f80 0 NtAlpcOpenSenderProcess
PUBLIC m 90f90 0 NtAlpcOpenSenderThread
PUBLIC m 90fa0 0 NtAlpcQueryInformation
PUBLIC m 90fb0 0 NtAlpcQueryInformationMessage
PUBLIC m 90fc0 0 NtAlpcRevokeSecurityContext
PUBLIC m 90fd0 0 NtAlpcSendWaitReceivePort
PUBLIC m 90fe0 0 NtAlpcSetInformation
PUBLIC m 90ff0 0 NtAreMappedFilesTheSame
PUBLIC m 91000 0 NtAssignProcessToJobObject
PUBLIC m 91010 0 NtAssociateWaitCompletionPacket
PUBLIC m 91020 0 NtCancelIoFileEx
PUBLIC m 91030 0 NtCancelSynchronousIoFile
PUBLIC m 91040 0 NtCancelTimer2
PUBLIC m 91050 0 NtCancelWaitCompletionPacket
PUBLIC m 91060 0 NtCommitComplete
PUBLIC m 91070 0 NtCommitEnlistment
PUBLIC m 91080 0 NtCommitTransaction
PUBLIC m 91090 0 NtCompactKeys
PUBLIC m 910a0 0 NtCompareTokens
PUBLIC m 910b0 0 NtCompleteConnectPort
PUBLIC m 910c0 0 NtCompressKey
PUBLIC m 910d0 0 NtConnectPort
PUBLIC m 910e0 0 NtCreateDebugObject
PUBLIC m 910f0 0 NtCreateDirectoryObject
PUBLIC m 91100 0 NtCreateDirectoryObjectEx
PUBLIC m 91110 0 NtCreateEnlistment
PUBLIC m 91120 0 NtCreateEventPair
PUBLIC m 91130 0 NtCreateIRTimer
PUBLIC m 91140 0 NtCreateIoCompletion
PUBLIC m 91150 0 NtCreateJobObject
PUBLIC m 91160 0 NtCreateJobSet
PUBLIC m 91170 0 NtCreateKeyTransacted
PUBLIC m 91180 0 NtCreateKeyedEvent
PUBLIC m 91190 0 NtCreateLowBoxToken
PUBLIC m 911a0 0 NtCreateMailslotFile
PUBLIC m 911b0 0 NtCreateMutant
PUBLIC m 911c0 0 NtCreateNamedPipeFile
PUBLIC m 911d0 0 NtCreatePagingFile
PUBLIC m 911e0 0 NtCreatePort
PUBLIC m 911f0 0 NtCreatePrivateNamespace
PUBLIC m 91200 0 NtCreateProcess
PUBLIC m 91210 0 NtCreateProfile
PUBLIC m 91220 0 NtCreateProfileEx
PUBLIC m 91230 0 NtCreateResourceManager
PUBLIC m 91240 0 NtCreateSemaphore
PUBLIC m 91250 0 NtCreateSymbolicLinkObject
PUBLIC m 91260 0 NtCreateThreadEx
PUBLIC m 91270 0 NtCreateTimer
PUBLIC m 91280 0 NtCreateTimer2
PUBLIC m 91290 0 NtCreateToken
PUBLIC m 912a0 0 NtCreateTokenEx
PUBLIC m 912b0 0 NtCreateTransaction
PUBLIC m 912c0 0 NtCreateTransactionManager
PUBLIC m 912d0 0 NtCreateUserProcess
PUBLIC m 912e0 0 NtCreateWaitCompletionPacket
PUBLIC m 912f0 0 NtCreateWaitablePort
PUBLIC m 91300 0 NtCreateWnfStateName
PUBLIC m 91310 0 NtCreateWorkerFactory
PUBLIC m 91320 0 NtDebugActiveProcess
PUBLIC m 91330 0 NtDebugContinue
PUBLIC m 91340 0 NtDeleteAtom
PUBLIC m 91350 0 NtDeleteBootEntry
PUBLIC m 91360 0 NtDeleteDriverEntry
PUBLIC m 91370 0 NtDeleteFile
PUBLIC m 91380 0 NtDeleteKey
PUBLIC m 91390 0 NtDeleteObjectAuditAlarm
PUBLIC m 913a0 0 NtDeletePrivateNamespace
PUBLIC m 913b0 0 NtDeleteValueKey
PUBLIC m 913c0 0 NtDeleteWnfStateData
PUBLIC m 913d0 0 NtDeleteWnfStateName
PUBLIC m 913e0 0 NtDisableLastKnownGood
PUBLIC m 913f0 0 NtDisplayString
PUBLIC m 91400 0 NtDrawText
PUBLIC m 91410 0 NtEnableLastKnownGood
PUBLIC m 91420 0 NtEnumerateBootEntries
PUBLIC m 91430 0 NtEnumerateDriverEntries
PUBLIC m 91440 0 NtEnumerateSystemEnvironmentValuesEx
PUBLIC m 91450 0 NtEnumerateTransactionObject
PUBLIC m 91460 0 NtExtendSection
PUBLIC m 91470 0 NtFilterBootOption
PUBLIC m 91480 0 NtFilterToken
PUBLIC m 91490 0 NtFilterTokenEx
PUBLIC m 914a0 0 NtFlushBuffersFileEx
PUBLIC m 914b0 0 NtFlushInstallUILanguage
PUBLIC m 914c0 0 NtFlushInstructionCache
PUBLIC m 914d0 0 NtFlushKey
PUBLIC m 914e0 0 NtFlushProcessWriteBuffers
PUBLIC m 914f0 0 NtFlushVirtualMemory
PUBLIC m 91500 0 NtFlushWriteBuffer
PUBLIC m 91510 0 NtFreeUserPhysicalPages
PUBLIC m 91520 0 NtFreezeRegistry
PUBLIC m 91530 0 NtFreezeTransactions
PUBLIC m 91540 0 NtGetCachedSigningLevel
PUBLIC m 91550 0 NtGetCompleteWnfStateSubscription
PUBLIC m 91560 0 NtGetContextThread
PUBLIC m 91570 0 NtGetCurrentProcessorNumber
PUBLIC m 91580 0 NtGetDevicePowerState
PUBLIC m 91590 0 NtGetMUIRegistryInfo
PUBLIC m 915a0 0 NtGetNextProcess
PUBLIC m 915b0 0 NtGetNextThread
PUBLIC m 915c0 0 NtGetNlsSectionPtr
PUBLIC m 915d0 0 NtGetNotificationResourceManager
PUBLIC m 915e0 0 NtGetWriteWatch
PUBLIC m 915f0 0 NtImpersonateAnonymousToken
PUBLIC m 91600 0 NtImpersonateThread
PUBLIC m 91610 0 NtInitializeNlsFiles
PUBLIC m 91620 0 NtInitializeRegistry
PUBLIC m 91630 0 NtInitiatePowerAction
PUBLIC m 91640 0 NtIsSystemResumeAutomatic
PUBLIC m 91650 0 NtIsUILanguageComitted
PUBLIC m 91660 0 NtListenPort
PUBLIC m 91670 0 NtLoadDriver
PUBLIC m 91680 0 NtLoadKey
PUBLIC m 91690 0 NtLoadKey2
PUBLIC m 916a0 0 NtLoadKeyEx
PUBLIC m 916b0 0 NtLockFile
PUBLIC m 916c0 0 NtLockProductActivationKeys
PUBLIC m 916d0 0 NtLockRegistryKey
PUBLIC m 916e0 0 NtLockVirtualMemory
PUBLIC m 916f0 0 NtMakePermanentObject
PUBLIC m 91700 0 NtMakeTemporaryObject
PUBLIC m 91710 0 NtMapCMFModule
PUBLIC m 91720 0 NtMapUserPhysicalPages
PUBLIC m 91730 0 NtModifyBootEntry
PUBLIC m 91740 0 NtModifyDriverEntry
PUBLIC m 91750 0 NtNotifyChangeDirectoryFile
PUBLIC m 91760 0 NtNotifyChangeKey
PUBLIC m 91770 0 NtNotifyChangeMultipleKeys
PUBLIC m 91780 0 NtNotifyChangeSession
PUBLIC m 91790 0 NtOpenEnlistment
PUBLIC m 917a0 0 NtOpenEventPair
PUBLIC m 917b0 0 NtOpenIoCompletion
PUBLIC m 917c0 0 NtOpenJobObject
PUBLIC m 917d0 0 NtOpenKeyEx
PUBLIC m 917e0 0 NtOpenKeyTransacted
PUBLIC m 917f0 0 NtOpenKeyTransactedEx
PUBLIC m 91800 0 NtOpenKeyedEvent
PUBLIC m 91810 0 NtOpenMutant
PUBLIC m 91820 0 NtOpenObjectAuditAlarm
PUBLIC m 91830 0 NtOpenPrivateNamespace
PUBLIC m 91840 0 NtOpenProcessToken
PUBLIC m 91850 0 NtOpenResourceManager
PUBLIC m 91860 0 NtOpenSemaphore
PUBLIC m 91870 0 NtOpenSession
PUBLIC m 91880 0 NtOpenSymbolicLinkObject
PUBLIC m 91890 0 NtOpenThread
PUBLIC m 918a0 0 NtOpenTimer
PUBLIC m 918b0 0 NtOpenTransaction
PUBLIC m 918c0 0 NtOpenTransactionManager
PUBLIC m 918d0 0 NtPlugPlayControl
PUBLIC m 918e0 0 NtPrePrepareComplete
PUBLIC m 918f0 0 NtPrePrepareEnlistment
PUBLIC m 91900 0 NtPrepareComplete
PUBLIC m 91910 0 NtPrepareEnlistment
PUBLIC m 91920 0 NtPrivilegeCheck
PUBLIC m 91930 0 NtPrivilegeObjectAuditAlarm
PUBLIC m 91940 0 NtPrivilegedServiceAuditAlarm
PUBLIC m 91950 0 NtPropagationComplete
PUBLIC m 91960 0 NtPropagationFailed
PUBLIC m 91970 0 NtPulseEvent
PUBLIC m 91980 0 NtQueryBootEntryOrder
PUBLIC m 91990 0 NtQueryBootOptions
PUBLIC m 919a0 0 NtQueryDebugFilterState
PUBLIC m 919b0 0 NtQueryDirectoryObject
PUBLIC m 919c0 0 NtQueryDriverEntryOrder
PUBLIC m 919d0 0 NtQueryEaFile
PUBLIC m 919e0 0 NtQueryFullAttributesFile
PUBLIC m 919f0 0 NtQueryInformationAtom
PUBLIC m 91a00 0 NtQueryInformationEnlistment
PUBLIC m 91a10 0 NtQueryInformationJobObject
PUBLIC m 91a20 0 NtQueryInformationPort
PUBLIC m 91a30 0 NtQueryInformationResourceManager
PUBLIC m 91a40 0 NtQueryInformationTransaction
PUBLIC m 91a50 0 NtQueryInformationTransactionManager
PUBLIC m 91a60 0 NtQueryInformationWorkerFactory
PUBLIC m 91a70 0 NtQueryInstallUILanguage
PUBLIC m 91a80 0 NtQueryIntervalProfile
PUBLIC m 91a90 0 NtQueryIoCompletion
PUBLIC m 91aa0 0 NtQueryLicenseValue
PUBLIC m 91ab0 0 NtQueryMultipleValueKey
PUBLIC m 91ac0 0 NtQueryMutant
PUBLIC m 91ad0 0 NtQueryOpenSubKeys
PUBLIC m 91ae0 0 NtQueryOpenSubKeysEx
PUBLIC m 91af0 0 NtQueryPortInformationProcess
PUBLIC m 91b00 0 NtQueryQuotaInformationFile
PUBLIC m 91b10 0 NtQuerySecurityAttributesToken
PUBLIC m 91b20 0 NtQuerySecurityObject
PUBLIC m 91b30 0 NtQuerySemaphore
PUBLIC m 91b40 0 NtQuerySymbolicLinkObject
PUBLIC m 91b50 0 NtQuerySystemEnvironmentValue
PUBLIC m 91b60 0 NtQuerySystemEnvironmentValueEx
PUBLIC m 91b70 0 NtQuerySystemInformationEx
PUBLIC m 91b80 0 NtQueryTimerResolution
PUBLIC m 91b90 0 NtQueryWnfStateData
PUBLIC m 91ba0 0 NtQueryWnfStateNameInformation
PUBLIC m 91bb0 0 NtQueueApcThreadEx
PUBLIC m 91bc0 0 NtRaiseException
PUBLIC m 91bd0 0 NtRaiseHardError
PUBLIC m 91be0 0 NtReadOnlyEnlistment
PUBLIC m 91bf0 0 NtRecoverEnlistment
PUBLIC m 91c00 0 NtRecoverResourceManager
PUBLIC m 91c10 0 NtRecoverTransactionManager
PUBLIC m 91c20 0 NtRegisterProtocolAddressInformation
PUBLIC m 91c30 0 NtRegisterThreadTerminatePort
PUBLIC m 91c40 0 NtReleaseKeyedEvent
PUBLIC m 91c50 0 NtReleaseWorkerFactoryWorker
PUBLIC m 91c60 0 NtRemoveIoCompletionEx
PUBLIC m 91c70 0 NtRemoveProcessDebug
PUBLIC m 91c80 0 NtRenameKey
PUBLIC m 91c90 0 NtRenameTransactionManager
PUBLIC m 91ca0 0 NtReplaceKey
PUBLIC m 91cb0 0 NtReplacePartitionUnit
PUBLIC m 91cc0 0 NtReplyWaitReplyPort
PUBLIC m 91cd0 0 NtRequestPort
PUBLIC m 91ce0 0 NtResetEvent
PUBLIC m 91cf0 0 NtResetWriteWatch
PUBLIC m 91d00 0 NtRestoreKey
PUBLIC m 91d10 0 NtResumeProcess
PUBLIC m 91d20 0 NtRollbackComplete
PUBLIC m 91d30 0 NtRollbackEnlistment
PUBLIC m 91d40 0 NtRollbackTransaction
PUBLIC m 91d50 0 NtRollforwardTransactionManager
PUBLIC m 91d60 0 NtSaveKey
PUBLIC m 91d70 0 NtSaveKeyEx
PUBLIC m 91d80 0 NtSaveMergedKeys
PUBLIC m 91d90 0 NtSecureConnectPort
PUBLIC m 91da0 0 NtSerializeBoot
PUBLIC m 91db0 0 NtSetBootEntryOrder
PUBLIC m 91dc0 0 NtSetBootOptions
PUBLIC m 91dd0 0 NtSetCachedSigningLevel
PUBLIC m 91de0 0 NtSetContextThread
PUBLIC m 91df0 0 NtSetDebugFilterState
PUBLIC m 91e00 0 NtSetDefaultHardErrorPort
PUBLIC m 91e10 0 NtSetDefaultLocale
PUBLIC m 91e20 0 NtSetDefaultUILanguage
PUBLIC m 91e30 0 NtSetDriverEntryOrder
PUBLIC m 91e40 0 NtSetEaFile
PUBLIC m 91e50 0 NtSetHighEventPair
PUBLIC m 91e60 0 NtSetHighWaitLowEventPair
PUBLIC m 91e70 0 NtSetIRTimer
PUBLIC m 91e80 0 NtSetInformationDebugObject
PUBLIC m 91e90 0 NtSetInformationEnlistment
PUBLIC m 91ea0 0 NtSetInformationJobObject
PUBLIC m 91eb0 0 NtSetInformationKey
PUBLIC m 91ec0 0 NtSetInformationResourceManager
PUBLIC m 91ed0 0 NtSetInformationToken
PUBLIC m 91ee0 0 NtSetInformationTransaction
PUBLIC m 91ef0 0 NtSetInformationTransactionManager
PUBLIC m 91f00 0 NtSetInformationVirtualMemory
PUBLIC m 91f10 0 NtSetInformationWorkerFactory
PUBLIC m 91f20 0 NtSetIntervalProfile
PUBLIC m 91f30 0 NtSetIoCompletion
PUBLIC m 91f40 0 NtSetIoCompletionEx
PUBLIC m 91f50 0 NtSetLdtEntries
PUBLIC m 91f60 0 NtSetLowEventPair
PUBLIC m 91f70 0 NtSetLowWaitHighEventPair
PUBLIC m 91f80 0 NtSetQuotaInformationFile
PUBLIC m 91f90 0 NtSetSecurityObject
PUBLIC m 91fa0 0 NtSetSystemEnvironmentValue
PUBLIC m 91fb0 0 NtSetSystemEnvironmentValueEx
PUBLIC m 91fc0 0 NtSetSystemInformation
PUBLIC m 91fd0 0 NtSetSystemPowerState
PUBLIC m 91fe0 0 NtSetSystemTime
PUBLIC m 91ff0 0 NtSetThreadExecutionState
PUBLIC m 92000 0 NtSetTimer2
PUBLIC m 92010 0 NtSetTimerEx
PUBLIC m 92020 0 NtSetTimerResolution
PUBLIC m 92030 0 NtSetUuidSeed
PUBLIC m 92040 0 NtSetVolumeInformationFile
PUBLIC m 92050 0 NtSetWnfProcessNotificationEvent
PUBLIC m 92060 0 NtShutdownSystem
PUBLIC m 92070 0 NtShutdownWorkerFactory
PUBLIC m 92080 0 NtSignalAndWaitForSingleObject
PUBLIC m 92090 0 NtSinglePhaseReject
PUBLIC m 920a0 0 NtStartProfile
PUBLIC m 920b0 0 NtStopProfile
PUBLIC m 920c0 0 NtSubscribeWnfStateChange
PUBLIC m 920d0 0 NtSuspendProcess
PUBLIC m 920e0 0 NtSuspendThread
PUBLIC m 920f0 0 NtSystemDebugControl
PUBLIC m 92100 0 NtTerminateJobObject
PUBLIC m 92110 0 NtTestAlert
PUBLIC m 92120 0 NtThawRegistry
PUBLIC m 92130 0 NtThawTransactions
PUBLIC m 92140 0 NtTraceControl
PUBLIC m 92150 0 NtTranslateFilePath
PUBLIC m 92160 0 NtUmsThreadYield
PUBLIC m 92170 0 NtUnloadDriver
PUBLIC m 92180 0 NtUnloadKey
PUBLIC m 92190 0 NtUnloadKey2
PUBLIC m 921a0 0 NtUnloadKeyEx
PUBLIC m 921b0 0 NtUnlockFile
PUBLIC m 921c0 0 NtUnlockVirtualMemory
PUBLIC m 921d0 0 NtUnmapViewOfSectionEx
PUBLIC m 921e0 0 NtUnsubscribeWnfStateChange
PUBLIC m 921f0 0 NtUpdateWnfStateData
PUBLIC m 92200 0 NtVdmControl
PUBLIC m 92210 0 NtWaitForAlertByThreadId
PUBLIC m 92220 0 NtWaitForDebugEvent
PUBLIC m 92230 0 NtWaitForKeyedEvent
PUBLIC m 92240 0 NtWaitForWorkViaWorkerFactory
PUBLIC m 92250 0 NtWaitHighEventPair
PUBLIC m 92260 0 NtWaitLowEventPair
PUBLIC 92280 0 DbgBreakPoint
PUBLIC 92290 0 DbgUserBreakPoint
PUBLIC m 922a0 0 DbgBreakPointWithStatus
PUBLIC 922a2 0 DbgBreakPointWithStatusEnd
PUBLIC 922b0 0 DebugPrint
PUBLIC 922d0 0 DebugPrompt
PUBLIC 922f0 0 DebugService2
PUBLIC 92310 0 FirstEntrySList
PUBLIC m 92320 0 ExpInterlockedPopEntrySList
PUBLIC 92325 0 ExpInterlockedPopEntrySListResume
PUBLIC 92339 0 ExpInterlockedPopEntrySListFault
PUBLIC 92342 0 ExpInterlockedPopEntrySListEnd
PUBLIC m 92360 0 ExpInterlockedPushEntrySList
PUBLIC m 923a0 0 ExpInterlockedFlushSList
PUBLIC 923d0 0 InterlockedPushListSList
PUBLIC 92420 0 KiUserApcHandler
PUBLIC 92450 0 KiUserCallForwarder
PUBLIC m 924a0 0 KiUserApcDispatch
PUBLIC 92510 0 KiUserCallbackDispatcherHandler
PUBLIC m 925a0 0 KiUserCallbackDispatch
PUBLIC 925c4 0 KiUserCallbackDispatcherContinue
PUBLIC m 925f0 0 KiUserExceptionDispatch
PUBLIC 92660 0 KiRaiseUserExceptionDispatcher
PUBLIC 926c0 0 RtlpCaptureContext
PUBLIC 92740 0 RtlCaptureContext
PUBLIC 92777 0 CcSaveNVContext
PUBLIC 92800 0 RtlRestoreContext
PUBLIC m 92b00 0 RcConsolidateFrames
PUBLIC 92ca0 0 RtlCompareMemory
PUBLIC 92d20 0 RtlCompareMemoryUlong
PUBLIC 92d50 0 RtlCopyMemoryNonTemporal
PUBLIC 92e70 0 RtlFillMemory
PUBLIC 92e80 0 RtlPrefetchMemoryNonTemporal
PUBLIC 92ea0 0 RtlZeroMemory
PUBLIC 92ec0 0 RtlSetProtectedPolicyStub
PUBLIC 92ed0 0 RtlSetProtectedPolicy
PUBLIC 92f00 0 RtlpUmsSwitchSequence
PUBLIC 92f01 0 RtlpExecuteUmsThread
PUBLIC 93142 0 RtlpUmsThreadYield
PUBLIC 9324a 0 RtlpUmsExecuteYieldThreadEnd
PUBLIC 932a0 0 RtlpLoadPrimaryDbgRegWrap
PUBLIC 932c0 0 RtlpUmsPrimaryContextWrap
PUBLIC m 93400 0 _chkstk
PUBLIC 93460 0 RtlpExceptionHandler
PUBLIC 93490 0 RtlpExecuteHandlerForException
PUBLIC 934b0 0 RtlpUnwindHandler
PUBLIC 93510 0 RtlpExecuteHandlerForUnwind
PUBLIC 93540 0 LZNT1DecompressChunk
PUBLIC 940c0 0 setjmp
PUBLIC 94160 0 setjmp
PUBLIC 94180 0 setjmpex
PUBLIC 94220 0 _longjmp_internal
PUBLIC 94320 0 get_fpsr
PUBLIC m 94380 0 memcpy
PUBLIC 946c0 0 memset
PUBLIC 947c8 0 RtlpCopyContext
PUBLIC 94980 0 RtlDecompressFragmentNS
FUNC 9498c 10 0 IgnoreDbgPrint
FUNC 9f0f6 27 0 TpAllocIoCompletion$fin$0
FUNC 9f11d 52 0 TpAllocIoCompletion$fin$1
FUNC 9f175 5e 0 RtlUserThreadStart$filt$0
FUNC 9f1d9 52 0 TpAllocWork$fin$0
FUNC 9f231 1c 0 TppCleanupGroupAddMember$fin$0
FUNC 9f253 1b 0 LdrpGetLoadAsEntry$fin$0
FUNC 9f274 21 0 TpSimpleTryPost$fin$0
FUNC 9f295 4c 0 TpSimpleTryPost$fin$1
FUNC 9f2e1 4c 0 TpSimpleTryPost$fin$2
FUNC 9f333 10 0 RtlpWnfWalkUserSubscriptionList$fin$0
FUNC 9f349 1b 0 LdrUnloadAlternateResourceModuleEx$fin$0
FUNC 9f36a 16 0 LdrpProcessDetachNode$filt$0
FUNC 9f380 1a 0 LdrpProcessDetachNode$fin$1
FUNC 9f3a0 95 0 WerEscalationReadImageVersionInfoForModuleBaseSafe$filt$0
FUNC 9f43b 16 0 TpCheckTerminateWorker$filt$0
FUNC 9f457 28 0 RtlpTpTimerCallback$fin$0
FUNC 9f485 16 0 LdrGetDllHandleByName$filt$0
FUNC 9f4a1 1e 0 LdrpInitialize$filt$0
FUNC 9f4c5 8b 0 RtlQueueWorkItem$fin$0
FUNC 9f556 1f 0 RtlPcToFileHeader$fin$0
FUNC 9f57b 7c 0 RtlpTpWorkCallback$fin$0
FUNC 9f5fd 1a 0 LdrShutdownProcess$fin$0
FUNC 9f617 1d 0 LdrShutdownProcess$fin$1
FUNC 9f63a 1d 0 LdrpInitializeNode$fin$0
FUNC 9f657 16 0 LdrpInitializeNode$filt$1
FUNC 9f673 1a 0 LdrShutdownThread$fin$0
FUNC 9f68d 1d 0 LdrShutdownThread$fin$1
FUNC 9f6aa 1d 0 LdrShutdownThread$fin$2
FUNC 9f6cd 1a 0 LdrpInitializeThread$fin$0
FUNC 9f6e7 1d 0 LdrpInitializeThread$fin$1
FUNC 9f704 1d 0 LdrpInitializeThread$fin$2
FUNC 9f727 7e 0 LdrpCallInitRoutine$fin$0
FUNC 9f7ab 16 0 LdrUnloadDll$filt$0
FUNC 9f7c7 25 0 TppIopExecuteCallback$fin$0
FUNC 9f7f2 16 0 LdrpCallTlsInitializers$filt$0
FUNC 9f80e 24 0 LdrpAllocateTls$filt$0
FUNC 9f838 4a 0 RtlpTpWaitCallback$fin$0
FUNC 9f888 1c 0 RtlpTpWaitCheckReset$fin$0
FUNC 9f8aa 1e 0 RtlRegisterWait$fin$0
FUNC 9f8c8 4c 0 RtlRegisterWait$fin$1
FUNC 9f91a 3d 0 RtlpActivateLowFragmentationHeap$fin$0
FUNC 9f95d 1b 0 RtlCreateHeap$filt$0
FUNC 9f97e 1b 0 LdrpSetAlternateResourceModuleHandle$fin$0
FUNC 9f99f 1b 0 RtlpSetProcUserMachineLangList$fin$0
FUNC 9f9c0 40 0 RtlUpcaseUnicodeString$fin$0
FUNC 9fa06 16 0 LdrGetDllFullName$filt$0
FUNC 9fa22 3a 0 RtlCreateUnicodeString$fin$0
FUNC 9fa62 65 0 LdrpLoadDll$fin$0
FUNC 9fad0 30 0 LdrpFindOrMapDependency$fin$0
FUNC 9fb10 78 0 RtlGetFullPathName_Ustr$fin$0
FUNC 9fb90 20 0 RtlpReAllocateHeap$filt$0
FUNC 9fbb0 1b 0 RtlpReAllocateHeap$filt$3
FUNC 9fbcb 20 0 RtlpReAllocateHeap$filt$1
FUNC 9fbeb 1b 0 RtlpReAllocateHeap$filt$2
FUNC 9fc06 20 0 RtlpReAllocateHeap$filt$4
FUNC 9fc26 52 0 RtlpReAllocateHeap$fin$5
FUNC 9fc7e 49 0 RtlAnsiStringToUnicodeString$fin$0
FUNC 9fcd0 4b 0 RtlpAllocateHeap$fin$0
FUNC 9fd30 5c 0 RtlpFreeHeap$fin$0
FUNC 9fda0 21 0 TppWorkerThread$fin$2
FUNC 9fdc1 1d 0 TppWorkerThread$fin$3
FUNC 9fdde 21 0 TppWorkerThread$filt$4
FUNC 9fdff 21 0 TppWorkerThread$filt$6
FUNC 9fe20 21 0 TppWorkerThread$filt$5
FUNC 9fe41 21 0 TppWorkerThread$filt$0
FUNC 9fe62 21 0 TppWorkerThread$filt$1
FUNC 9fe83 fd 0 TppWorkerThread$fin$8
FUNC 9ff80 21 0 TppWorkerThread$fin$7
FUNC 9ffa1 1d 0 TppWorkerThread$fin$9
FUNC 9ffbe 35 0 TppWorkerThread$fin$10
FUNC 9fff3 97 0 TppWorkerThread$filt$11
FUNC a0090 23 0 RtlQueryEnvironmentVariable$fin$0
FUNC a00b3 20 0 RtlQueryEnvironmentVariable$filt$1
FUNC a00e0 1d 0 LdrpSnapModule$filt$0
FUNC a0110 1d 0 RtlImageNtHeaderEx$filt$0
FUNC a0133 1b 0 LdrpGetFromMUIMemCache$fin$0
FUNC a0154 1b 0 RtlValidateHeap$filt$0
FUNC a016f 27 0 RtlValidateHeap$fin$1
FUNC a019c 1b 0 LdrpGetFileSizeFromLoadAsDataTable$fin$0
FUNC a01bd 21 0 RtlCreateTimer$fin$0
FUNC a01de 4c 0 RtlCreateTimer$fin$1
FUNC a0230 25 0 TppCleanupGroupMemberDestroy$fin$0
FUNC a0255 1d 0 TppCleanupGroupMemberDestroy$fin$1
FUNC a0278 18 0 TppPoolpDereferenceGlobalPool$fin$0
FUNC a0296 27 0 TppWorkInitialize$fin$0
FUNC a02c3 25 0 TppCleanupGroupMemberInitialize$fin$0
FUNC a02e8 1d 0 TppCleanupGroupMemberInitialize$fin$1
FUNC a0305 72 0 TppCleanupGroupMemberInitialize$fin$2
FUNC a0377 38 0 TppCleanupGroupMemberInitialize$fin$3
FUNC a03b5 1f 0 RtlQueryInformationActivationContext$fin$0
FUNC a03d4 33 0 RtlQueryInformationActivationContext$fin$1
FUNC a040d 18 0 TppPoolpReferenceGlobalPool$fin$0
FUNC a0425 18 0 TppPoolpReferenceGlobalPool$fin$1
FUNC a0443 22 0 RtlDeleteTimer$fin$0
FUNC a0465 1a 0 RtlDeleteTimer$fin$1
FUNC a0485 27 0 LdrLoadAlternateResourceModuleEx$fin$0
FUNC a04b2 16 0 LdrpMapAndSnapModules$filt$0
FUNC a04ce 35 0 EvtIntReportEventWorker$fin$0
FUNC a0509 28 0 AeGetImageHeaderHashForCurrentProcess$filt$0
FUNC a0537 2e 0 RtlpWalkFrameChain$filt$0
FUNC a056b 25 0 RtlpLookupFunctionEntryForStackWalks$filt$0
FUNC a0596 21 0 RtlSetEnvironmentStrings$fin$0
FUNC a05b7 21 0 RtlSetEnvironmentStrings$fin$1
FUNC a05e0 43 0 RtlSetEnvironmentVar$fin$0
FUNC a0629 1d 0 LdrpHandleTlsData$filt$0
FUNC a064c 1d 0 LdrpAllocateTlsEntry$filt$0
FUNC a066f 1d 0 LdrAddDllDirectory$fin$0
FUNC a0692 1b 0 RtlDeleteCriticalSection$fin$0
FUNC a06b3 49 0 RtlUnicodeStringToOemString$fin$0
FUNC a0702 4c 0 RtlUnicodeStringToAnsiString$fin$0
FUNC a0754 16 0 LdrGetDllHandleEx$filt$0
FUNC a0770 1b 0 LdrAddLoadAsDataTable$fin$0
FUNC a0791 1b 0 LdrRemoveLoadAsDataTable$fin$0
FUNC a07b2 3d 0 RtlDuplicateUnicodeString$fin$0
FUNC a07f5 38 0 TppIopFree$fin$0
FUNC a0833 23 0 RtlpEnumProcessHeaps$fin$0
FUNC a085c 40 0 RtlDowncaseUnicodeString$fin$0
FUNC a08a2 1b 0 RtlGetUserInfoHeap$filt$0
FUNC a08bd 46 0 RtlGetUserInfoHeap$fin$1
FUNC a0909 1b 0 RtlpProbeUserBufferSafe$filt$0
FUNC a092a 4f 0 RtlSetUserValueHeap$fin$0
FUNC a097f 1d 0 TpAllocPool$fin$0
FUNC a099c 3f 0 TpAllocPool$fin$1
FUNC a09db f1 0 TpAllocPool$fin$2
FUNC a0ad2 1e 0 TpReleaseCleanupGroupMembers$fin$0
FUNC a0af0 3a 0 TpReleaseCleanupGroupMembers$fin$1
FUNC a0b2a 1c 0 TpReleaseCleanupGroupMembers$fin$2
FUNC a0b4c 1e 0 RtlDeregisterWaitEx$fin$0
FUNC a0b6a 1a 0 RtlDeregisterWaitEx$fin$1
FUNC a0b8a 38 0 TppWorkpFree$fin$0
FUNC a0bc8 38 0 TppAlpcpFree$fin$0
FUNC a0c06 1d 0 LdrpCorInitialize$fin$0
FUNC a0c29 1c 0 TppCleanupGroupRemoveMember$fin$0
FUNC a0c4b 49 0 RtlOemStringToUnicodeString$fin$0
FUNC a0c9a 49 0 RtlUpcaseUnicodeStringToOemString$fin$0
FUNC a0ce9 1d 0 LdrLockLoaderLock$filt$0
FUNC a0d0c 16 0 LdrGetDllHandleByMapping$filt$0
FUNC a0d28 1d 0 LdrUnlockLoaderLock$filt$0
FUNC a0d4b 1d 0 LdrpQuerySxSMUIFile$fin$0
FUNC a0d6e 27 0 RtlCreateTagHeap$fin$0
FUNC a0d9b 2e 0 TppAllocAlpcCompletion$fin$0
FUNC a0dc9 58 0 TppAllocAlpcCompletion$fin$1
FUNC a0e27 1c 0 TppPoolAddWorker$fin$0
FUNC a0e49 33 0 TppCritSetThread$fin$0
FUNC a0e7c 30 0 TppCritSetThread$fin$1
FUNC a0eac 30 0 TppCritSetThread$fin$2
FUNC a0edc 1f 0 TppCritSetThread$fin$3
FUNC a0efb 1a 0 TppCritSetThread$fin$4
FUNC a0f1b 20 0 TppPoolRemoveWorker$fin$0
FUNC a0f41 21 0 RtlQueryWnfStateData$filt$0
FUNC a0f68 1b 0 TpSetDefaultPoolStackInformation$fin$0
FUNC a0f89 1b 0 TpPoolReferenceExistingGlobalPool$fin$0
FUNC a0faa 1a 0 RtlCreateTimerQueue$fin$0
FUNC a0fca 41 0 TpAllocCleanupGroup$fin$0
FUNC a1011 1e 0 RtlUpdateTimer$fin$0
FUNC a102f 1a 0 RtlUpdateTimer$fin$1
FUNC a104f 1d 0 LdrpProtectAndRelocateImage$filt$0
FUNC a1072 1d 0 RtlCheckHeldCriticalSections$fin$0
FUNC a1095 1e 0 RtlDeleteTimerQueueEx$fin$0
FUNC a10b3 1d 0 RtlDeleteTimerQueueEx$fin$1
FUNC a10d6 26 0 RtlDispatchAPC$fin$0
FUNC a1102 30 0 RtlpCopyMappedMemoryEx$filt$0
FUNC a1138 1b 0 RtlCompactHeap$filt$0
FUNC a1153 27 0 RtlCompactHeap$fin$1
FUNC a1180 1b 0 RtlpTpIoDllLoaded$fin$0
FUNC a11a1 1b 0 RtlpTpIoDllUnloaded$fin$0
FUNC a11c2 12 0 RtlCreateUserStack$filt$0
FUNC a11d4 12 0 RtlCreateUserStack$filt$1
FUNC a11ec 1d 0 RtlSetIoCompletionCallback$fin$0
FUNC a1209 1a 0 RtlSetIoCompletionCallback$fin$1
FUNC a1229 3d 0 RtlpTpIoLookup$fin$0
FUNC a126c 4c 0 RtlpTpIoAlloc$fin$0
FUNC a12be 1d 0 LdrVerifyImageMatchesChecksumEx$filt$1
FUNC a12db 1d 0 LdrVerifyImageMatchesChecksumEx$filt$0
FUNC a12f8 1e 0 LdrVerifyImageMatchesChecksumEx$fin$2
FUNC a1316 56 0 LdrVerifyImageMatchesChecksumEx$fin$3
FUNC a1372 21 0 RtlQueryWnfStateDataWithExplicitScope$filt$0
FUNC a1399 29 0 RtlpQueryPseudoEnvironmentVariable$fin$0
FUNC a13c8 1b 0 LdrFlushAlternateResourceModules$fin$0
FUNC a13e9 22 0 TpReleasePool$fin$0
FUNC a1411 1b 0 TppPoolpFree$fin$0
FUNC a1432 1d 0 LdrEnumerateLoadedModules$fin$0
FUNC a1455 4f 0 LdrQueryProcessModuleInformationEx$fin$0
FUNC a14aa 88 0 LdrpProtectedCopyMemory$filt$0
FUNC m a1538 2c 0 control87$filt$0
FUNC a156a 18 0 LdrResolveDelayLoadedAPI$fin$0
FUNC a1590 f2 0 LdrpFindOrMapDll$fin$0
FUNC a1682 20 0 RtlCompressBufferLZNT1
FUNC a16a2 2b 0 LZNT1CompressChunk
FUNC a16ce 14 0 RtlDecompressBuffer
FUNC a16e2 4a 0 RtlDecompressBufferLZNT1
FUNC a172c 1e 0 Normalization__AppendDecomposedChar
FUNC a174a 1b 0 RtlCompressWorkSpaceSizeLZNT1
FUNC a1766 19 0 RtlPrefixString
FUNC a1780 e 0 RtlpTreeDoubleRotateNodes
FUNC a178e 4a 0 TpAllocIoCompletion
FUNC a17d8 50 0 RtlWaitForWnfMetaNotification
FUNC a1828 29 0 RtlpWaitOnAddressWithTimeout
FUNC a1852 7a 0 WerpGlobalFlagsForProcess
FUNC a18cc a 0 LdrpReleaseTlsEntry
FUNC a18d6 41 0 TppWaitTimerExpiration
FUNC a1918 20 0 TppExecuteWaitTimerCallback
FUNC a1938 4d 0 TpAllocWork
FUNC a1986 7 0 TppDirectExecuteCallback
FUNC a198e 21 0 TppFreeDirectParams
FUNC a19b0 12 0 LdrpIsReparsePoint
FUNC a19c2 a 0 RtlWaitOnAddress
FUNC a19cc 53 0 RtlpWaitOnAddressRemoveWaitBlock
FUNC a1a20 83 0 RtlpWakeByAddress
FUNC a1aa4 4b 0 RtlpRemoveUserSubFromNameSub
FUNC a1af0 14 0 LdrpGetDataModulePath
FUNC a1b04 a 0 LdrpGetLoadAsEntry
FUNC a1b0e 4f 0 TpSimpleTryPost
FUNC a1b5e 66 0 TppSimplepExecuteCallback
FUNC a1bc4 28 0 RtlStringCbPrintfA
FUNC a1bec 2b 0 RtlpWnfNotificationThread
FUNC a1c18 137 0 RtlpWnfProcessCurrentDescriptor
FUNC a1d50 64 0 RtlpWnfWalkUserSubscriptionList
FUNC a1db4 1a 0 RtlpDecRefWnfNameSubscription
FUNC a1dce 89 0 LdrpMergeNodes
FUNC a1e58 47 0 LdrpUnloadNode
FUNC a1ea0 7 0 LdrUnloadAlternateResourceModuleEx
FUNC a1ea8 45 0 LdrpProcessDetachNode
FUNC a1eee 2e 0 RtlCreateInvertedFunctionTableCacheEntry
FUNC a1f1c 7 0 LdrpDoDeferredNodeRemoval
FUNC a1f24 ee 0 RtlReportSilentProcessExit
FUNC a2012 da 0 RtlExitUserProcess
FUNC a20ec 15 0 SbCleanupTrace
FUNC a2102 119 0 TpCheckTerminateWorker
FUNC a221c e1 0 RtlVerifyVersionInfo
FUNC a22fe 1b 0 RtlpVerCompare
FUNC a231a 4a 0 RtlpTpTimerCallback
FUNC a2364 b 0 LdrpInitialize
FUNC a2370 2ff 0 LdrpInitialize
FUNC a2670 66 0 TppTimerpExecuteCallback
FUNC a26d6 37 0 TppTimerQueueExpiration
FUNC a270e 6d 0 TppSingleTimerExpiration
FUNC a277c d5 0 TppWorkCallbackPrologRelease
FUNC a2852 27 0 TppWorkPost
FUNC a287a 41 0 TppWaitCompletion
FUNC a28bc 7f 0 TppExecuteWaitCallback
FUNC a293c a 0 LdrpFindLoadedDllByAddress
FUNC a2946 77 0 RtlQueueWorkItem
FUNC a29be a 0 LdrAddRefDll
FUNC a29c8 7b 0 LdrpPrepareModuleForExecution
FUNC a2a44 17 0 LdrpIncrementNodeLoadCount
FUNC a2a5c 63 0 RtlPcToFileHeader
FUNC a2ac0 157 0 LdrpDynamicShimModule
FUNC a2c18 1f 0 SbpDetermineDllContext
FUNC a2c38 26 0 LdrpNotifyLoadOfGraph
FUNC a2c5e 17 0 LdrpSendPostSnapNotifications
FUNC a2c76 12a 0 LdrpCheckModule
FUNC a2da0 48 0 SbUpdateSwitchContextBasedOnDll
FUNC a2de8 7 0 SbSelectProcedure
FUNC a2df0 23 0 SbpSelectCachedProc
FUNC a2e14 a8 0 SbpTraceSbCall
FUNC a2ebc a8 0 SbpTraceSbImpl
FUNC a2f64 a0 0 SbObtainTraceHandle
FUNC a3004 b4 0 SbpUpdateCache
FUNC a30b8 45 0 SbpUpdateCacheWithCurrentImpl
FUNC a30fe 8 0 SbGetContextDetailsByVersion
FUNC a3106 45 0 RtlGetVersion
FUNC a314c 1a2 0 RtlGetNtProductType
FUNC a32ee 5f 0 RtlpTpWorkCallback
FUNC a334e 9 0 TppStartThreadData
FUNC a3358 f5 0 LdrShutdownProcess
FUNC a344e 16 0 LdrpInitializeGraph
FUNC a3464 b0 0 LdrpInitializeNode
FUNC a3514 1b 0 LdrShutdownThread
FUNC a3530 b4 0 LdrpInitializeThread
FUNC a35e4 190 0 RtlDeactivateActivationContextUnsafeFast
FUNC a3774 46 0 RtlActivateActivationContextUnsafeFast
FUNC a37ba 9e 0 LdrpCallInitRoutine
FUNC a3858 b 0 LdrpDecrementNodeLoadCount
FUNC a3864 2a 0 RtlpTpWorkUnposted
FUNC a388e 12 0 TpUnreserveTaskPost
FUNC a38a0 49 0 RtlGetActiveActivationContext
FUNC a38ea 9c 0 TppIopExecuteCallback
FUNC a3986 7 0 TppPHExtractMin
FUNC a398e d 0 EtwUnregisterTraceGuids
FUNC a399c d 0 TpCallbackMayRunLong
FUNC a39aa 14 0 TppCallbackMayRunLongProlog
FUNC a39be b9 0 LdrpAllocateTls
FUNC a3a78 5f 0 SbpRetrieveCompatibilityManifest
FUNC a3ad8 a0 0 LdrpMarkNodeForRemoval
FUNC a3b78 11 0 RtlProcessFlsData
FUNC a3b8a 5 0 LdrpGetNewTlsVector
FUNC a3b90 8c 0 LdrpInitializeTls
FUNC a3c1c 18c 0 RtlDetectHeapLeaks
FUNC a3da8 4a 0 RtlpTpWaitCallback
FUNC a3df2 44 0 RtlRegisterWait
FUNC a3e36 43 0 TpAllocWait
FUNC a3e7a 5b 0 TpSetWaitEx
FUNC a3ed6 16 0 TppCancelWait
FUNC a3eec 24 0 TppWaitpValidateWait
FUNC a3f10 1c 0 TppSetupNextWait
FUNC a3f2c 25 0 EtwpRegisterTpNotificationOnce
FUNC a3f52 a 0 CsrClientConnectToServer
FUNC a3f5c 68 0 CsrpConnectToServer
FUNC a3fc4 60 0 RtlpExtendLowFragHeapSegment
FUNC a4024 27 0 RtlRandomEx
FUNC a404c 2a 0 RtlInitializeResource
FUNC a4076 5f 0 LdrEnsureMrdataHeapExists
FUNC a40d6 74 0 RtlpCreateLowFragHeap
FUNC a414a 15f 0 RtlDestroyHeap
FUNC a42aa 2d 0 RtlpDestroyHeapSegment
FUNC a42d8 2d0 0 RtlCreateHeap
FUNC a45a8 1c 0 RtlDeleteFunctionTable
FUNC a45c4 96 0 RtlAddFunctionTable
FUNC a465a 9f 0 RtlpProtectHeap
FUNC a46fa 15e 0 RtlpCommitBlock
FUNC a4858 24 0 RtlpGetHeapProtection
FUNC a487c 12 0 RtlpCollectFreeBlocks
FUNC a488e 169 0 RtlpDecommitBlock
FUNC a49f8 2b 0 RtlpSecMemFreeVirtualMemory
FUNC a4a24 11 0 RtlpAddHeapToUnprotectedList
FUNC a4a36 9c 0 RtlpAddHeapToProtectedList
FUNC a4ad2 8d 0 RtlpPopulateListIndex
FUNC a4b60 f9 0 RtlpInitializeHeapSegment
FUNC a4c5a 86 0 RtlpCreateUCREntry
FUNC a4ce0 3d 0 RtlpInsertUCRBlock
FUNC a4d1e 71 0 RtlpFindUCREntry
FUNC a4d90 1e 0 RtlpHeapRemoveListEntry
FUNC a4dae 69 0 RtlInitializeCriticalSectionEx
FUNC a4e18 11 0 RtlpAddDebugInfoToCriticalSection
FUNC a4e2a 39 0 RtlLogStackBackTraceEx
FUNC a4e64 47 0 RtlQueryResourcePolicy
FUNC a4eac 2a 0 EtwRegisterTraceGuidsW
FUNC a4ed6 88 0 EtwpRegisterProvider
FUNC a4f5e 12 0 EtwpAllocateRegistration
FUNC a4f70 c1 0 EtwpUpdateEnableInfoAndCallback
FUNC a5032 12 0 RtlRunOnceExecuteOnce
FUNC a5044 1e 0 RtlRunOnceBeginInitialize
FUNC a5062 30 0 RtlRunOnceComplete
FUNC a5092 5 0 EtwpCreateRegGuidsContext
FUNC a5098 64 0 RtlpTestHookInitialize
FUNC a50fc a 0 RtlpExtendFrontEndUsageArray
FUNC a5106 f9 0 EtwpEventApiCallback
FUNC a5200 90 0 RtlpMuiRegDeserializeRegistryInfo
FUNC a5290 a7 0 RtlpMuiRegCreateAndLoadRegistryInfo
FUNC a5338 43 0 RtlpMuiRegAddNeutralToInstalled
FUNC a537c 1d 0 RtlpMuiRegAddNeutralLanguage
FUNC a539a 2d 0 RtlpMuiRegGetLanguageSpec
FUNC a53c8 12b 0 RtlpPopulateLanguageConfigList
FUNC a54f4 c4 0 RtlpLoadUserUIByPolicy
FUNC a55b8 11 0 LdrpSetAlternateResourceModuleHandle
FUNC a55ca 80 0 RtlpMuiRegLoadRegistryInfo
FUNC a564a b8 0 RtlpMuiRegFreeRegistryInfo
FUNC a5702 17 0 RtlpInitMuiCriticalSection
FUNC a571a 123 0 RtlpLoadLanguageConfigList
FUNC a583e 97 0 RtlpMuiRegLoadPreferredUILanguages
FUNC a58d6 a 0 LdrpQueryValueKey
FUNC a58e0 ed 0 LdrResFallbackLangList
FUNC a59ce 3a 0 RtlpResUltimateFallbackInfo
FUNC a5a08 30 0 LdrResGetRCConfig
FUNC a5a38 2c 0 RtlpQueryDefaultUILanguage
FUNC a5a64 4f 0 InitializeUserOrMachineLangList
FUNC a5ab4 a 0 RtlpSetProcUserMachineLangList
FUNC a5abe 119 0 InitializeTEBUserLangList
FUNC a5bd8 72 0 GetLCIDFromLangListNode
FUNC a5c4a 318 0 RtlGetSystemPreferredUILanguages
FUNC a5f62 1a5 0 RtlpConsoleFallbackNameFromLocaleName
FUNC a6108 f6 0 RtlpComputeLangListCheckSum
FUNC a61fe 59 0 RtlIntegerToChar
FUNC a6258 29 0 RtlUpcaseUnicodeString
FUNC a6282 2c 0 RtlpIsALicensedLIPLanguage
FUNC a62ae b7 0 RtlGetParentLocaleName
FUNC a6366 8a 0 RtlpFilterandReplaceConsoleLanguages
FUNC a63f0 f 0 LdrGetDllFullName
FUNC a6400 14 0 RtlpMUIRegPatchLicenseInfortmation
FUNC a6414 28 0 RtlpIsALicensedRegularLanguage
FUNC a643c 14 0 RtlpAddNeutralsToMergedList
FUNC a6450 a 0 RtlGetNeutralFallback
FUNC a645a 61 0 LdrpResGetMappingSize
FUNC a64bc 2f0 0 LdrResSearchResource
FUNC a67ac a 0 RtlpGetSystemDefaultUILanguage
FUNC a67b6 287 0 LdrpResSearchResourceMappedFile
FUNC a6a3e 49 0 LdrpResGetResourceDirectory
FUNC a6a88 84 0 RtlpMuiRegGetInstalledLanguageIndexByName
FUNC a6b0c 85 0 RtlCanonicalizeDomainName
FUNC a6b92 13a 0 RtlIpv4StringToAddressExW
FUNC a6ccc b5 0 RtlIpv4StringToAddressW
FUNC a6d82 124 0 RtlIpv6StringToAddressExW
FUNC a6ea6 8 0 RtlCopyUnicodeString
FUNC a6eae 191 0 RtlpNameprepAsciiWorker
FUNC a7040 35 0 RtlpValidateAsciiStd3AndLength
FUNC a7076 1c 0 RtlCreateUnicodeString
FUNC a7092 151 0 RtlIdnToUnicode
FUNC a71e4 43b 0 punycode_decode
FUNC a7620 97 0 LdrpMergeLangFallbackLists
FUNC a76b8 3f 0 GetNameFromLangListNode
FUNC a76f8 7c 0 RtlpMuiRegAddMultiSzToLangFallbackList
FUNC a7774 f5 0 RtlpMuiRegGetInstalledLanguageIndex
FUNC a786a 74 0 LdrpResSearchResourceInsideDirectory
FUNC a78de 32 0 RtlpMuiRegGetInstalledLanguageIndexByLangId
FUNC a7910 a 0 LdrpLangFallbackListAppendNode
FUNC a791a 27 0 LdrpLangFallbackListFindNode
FUNC a7942 47 0 RtlpMuiRegGetOrAddString
FUNC a798a 78 0 RtlpMuiRegGetOrAddStringToPool
FUNC a7a02 a5 0 LdrpResCompareResourceNames
FUNC a7aa8 bf 0 RtlLcidToLocaleName
FUNC a7b68 24 0 RtlpInitUnicodeStringUsingBuffer
FUNC a7b8c d2 0 RtlLocaleNameToLcid
FUNC a7c5e 89 0 LdrpLoadDll
FUNC a7ce8 29 0 ApiSetResolveToHost
FUNC a7d12 a 0 RtlAppendUnicodeStringToString
FUNC a7d1c 8 0 RtlpNlsGetNameIndex
FUNC a7d24 6c 0 RtlCompareUnicodeStrings
FUNC a7d90 45 0 LdrpSnapKernelBaseExtensions
FUNC a7dd6 44 0 RtlpZeroBlockFromOffset
FUNC a7e1a 43f 0 RtlpCreateSplitBlock
FUNC a825a 41 0 LdrpLogDllState
FUNC a829c 4b 0 sxsisol_CanonicalizeFullPathFileName
FUNC a82e8 a 0 RtlAppendUnicodeToString
FUNC a82f2 29b 0 RtlpGrowBlockInPlace
FUNC a858e 41 0 LdrpLocateModuleDependencies
FUNC a85d0 1e8 0 LdrpFindOrMapDependency
FUNC a87b8 1e5 0 LdrpApplyFileNameRedirection
FUNC a899e ae 0 RtlGetFullPathName_Ustr
FUNC a8a4c 2b 0 RtlpIsDosDeviceName_Ustr
FUNC a8a78 4c 0 RtlDosPathNameToRelativeNtPathName
FUNC a8ac4 1c 0 RtlDetermineDosPathNameType_Ustr
FUNC a8ae0 513 0 RtlReAllocateHeap
FUNC a8ff4 259 0 RtlpReAllocateHeap
FUNC a924e 67 0 RtlpSubSegmentInitialize
FUNC a92b6 130 0 RtlpHeapGenerateRandomValue32
FUNC a93e6 68 0 RtlAnsiStringToUnicodeString
FUNC a944e ba 0 RtlMultiByteToUnicodeN
FUNC a9508 1ce 0 RtlAllocateHeap
FUNC a96d6 4ff 0 RtlpLowFragHeapAllocFromContext
FUNC a9bd6 60 0 RtlpAllocateHeap
FUNC a9c36 603 0 RtlpExtendHeap
FUNC aa23a 39e 0 RtlpFindAndCommitPages
FUNC aa5d8 2ce 0 RtlFreeHeap
FUNC aa8a6 98 0 RtlpFreeHeap
FUNC aa93e 59 0 RtlpIsSubSegmentReuseThresholdExceeded
FUNC aa998 14 0 RtlFreeUnicodeString
FUNC aa9ac a9 0 RtlpFreeUserBlock
FUNC aaa56 44b 0 RtlpDeCommitFreeBlock
FUNC aaea2 20b 0 RtlpInsertFreeBlock
FUNC ab0ae 75 0 RtlpHeapFindListLookupEntry
FUNC ab124 710 0 RtlpCoalesceFreeBlocks
FUNC ab834 2d 0 TppWorkerThread
FUNC ab862 15a 0 TppCallbackEpilog
FUNC ab9bc 19a 0 TppCallbackCheckThreadAfterCallback
FUNC abb56 aa 0 TppPrepareDirectParams
FUNC abc00 179 0 TppWorkpExecuteCallback
FUNC abd7a 14 0 RtlAcquireSRWLockExclusive
FUNC abd8e 1b 0 TppAlpcpCallbackEpilog
FUNC abdaa 116 0 TppAlpcpExecuteCallback
FUNC abec0 e8 0 LdrpFindLoadedDllByName
FUNC abfa8 6c 0 RtlEqualUnicodeString
FUNC ac014 2c 0 LdrpApplyLookupReference
FUNC ac040 88 0 LdrpAcquireLoaderLock
FUNC ac0c8 14 0 RtlAcquireSRWLockShared
FUNC ac0dc a 0 RtlQueryEnvironmentVariable
FUNC ac0e6 5a 0 LdrpReleaseLoaderLock
FUNC ac140 73 0 RtlpScanEnvironment
FUNC ac1b4 bd 0 LdrpResolveNonStaticDependency
FUNC ac272 5 0 LdrpInsertDependencyRecord
FUNC ac278 2dd 0 LdrpSnapModule
FUNC ac556 a 0 RtlpImageDirectoryEntryToDataEx
FUNC ac560 180 0 LdrpGetProcedureAddress
FUNC ac6e0 a 0 RtlImageNtHeaderEx
FUNC ac6ea 65 0 LdrpResolveForwarder
FUNC ac750 a 0 LdrpParseForwarderDescription
FUNC ac75a 58 0 LdrpInitializeDllPath
FUNC ac7b2 15 0 TpPostTask
FUNC ac7c8 32 0 TpPostWork
FUNC ac7fa 59 0 TppBarrierAdjust
FUNC ac854 65 0 RtlUnlockHeap
FUNC ac8ba 7d 0 RtlpCheckHeapSignature
FUNC ac938 65 0 RtlLockHeap
FUNC ac99e 191 0 RtlpWaitOnCriticalSection
FUNC acb30 29 0 RtlpWaitCouldDeadlock
FUNC acb5a 1b 0 RtlpUnWaitCriticalSection
FUNC acb76 24 0 TppIopValidateIo
FUNC acb9a 24 0 TppTimerpValidateTimer
FUNC acbbe 31 0 TppValidateCleanupGroupMember
FUNC acbf0 3f 0 RtlpAllocateUserBlockFromHeap
FUNC acc30 22 0 RtlFindActivationContextSectionString
FUNC acc52 130 0 RtlpFindUnicodeStringInSection
FUNC acd82 a 0 RtlpFindNextActivationContextSection
FUNC acd8c 18e 0 RtlpLocateActivationContextSection
FUNC acf1a 20 0 RtlpFindActivationContextSection_CheckParameters
FUNC acf3a 2fa 0 sxsisol_SearchActCtxForDllName
FUNC ad234 b9 0 RtlDosApplyFileIsolationRedirection_Ustr
FUNC ad2ee a 0 sxsisol_PathAppendDefaultExtension
FUNC ad2f8 15 0 sxsisol_FreeUnicodeStringBufferAroundUnicodeStrings_Failure
FUNC ad30e 62 0 TppCancelTimer
FUNC ad370 e9 0 LdrGetProcedureAddressForCaller
FUNC ad45a 22 0 RtlFindActivationContextSectionGuid
FUNC ad47c a0 0 RtlpFindGuidInSection
FUNC ad51c 22 0 TpSetTimerEx
FUNC ad53e 7 0 LdrpGetFromMUIMemCache
FUNC ad546 1d7 0 RtlFindCharInUnicodeString
FUNC ad71e 14 0 LdrpGetImageSize
FUNC ad732 56 0 LdrpPrepareImportAddressTableForSnap
FUNC ad788 43 0 RtlValidateHeap
FUNC ad7cc b1 0 RtlpValidateHeapEntry
FUNC ad87e a 0 LdrpSearchResourceSection_U
FUNC ad888 9 0 LdrpCompareResourceNames_U
FUNC ad892 28 0 TppSetTimer
FUNC ad8ba 11 0 TppUpdateSubQueueTimer
FUNC ad8cc 4d 0 LdrpFindLoadedDllByMapping
FUNC ad91a a 0 LdrpProcessMappedModule
FUNC ad924 7 0 LdrpGetFileSizeFromLoadAsDataTable
FUNC ad92c 14 0 TpReleaseTimer
FUNC ad940 35 0 RtlCreateTimer
FUNC ad976 19 0 TpAllocTimer
FUNC ad990 6d 0 TppCleanupGroupMemberDestroy
FUNC ad9fe 34 0 RtlReleaseActivationContext
FUNC ada32 5f 0 TppPoolpDereferenceGlobalPool
FUNC ada92 9b 0 TppCallbackCheckThreadBeforeCallback
FUNC adb2e 47 0 TppCleanupGroupMemberInitialize
FUNC adb76 14 0 RtlpGetActivationContextData
FUNC adb8a 22 0 RtlpQueryInformationActivationContextBasicInformation
FUNC adbac f 0 TppPoolpReferenceGlobalPool
FUNC adbbc 13 0 RtlpTpRevertCapture
FUNC adbd0 1b 0 RtlDeleteTimer
FUNC adbec 5f 0 LdrpAccessResourceData
FUNC adc4c f 0 RtlpTpTimerRundown
FUNC adc5c a 0 LdrIsResItemExist
FUNC adc66 a 0 LdrRscIsTypeExist
FUNC adc70 c 0 RtlInsertInvertedFunctionTable
FUNC adc7c 5d 0 LdrInitSecurityCookie
FUNC adcda 21 0 LdrpFetchAddressOfSecurityCookie
FUNC adcfc 20 0 LdrpGenRandom
FUNC add1c 12a 0 LdrpLoadResourceFromAlternativeModule
FUNC ade46 148 0 LdrLoadAlternateResourceModuleEx
FUNC adf8e 1e 0 LdrpSignalModule
FUNC adfac b8 0 RtlGetThreadPreferredUILanguages
FUNC ae064 5 0 RtlpMuiRegCreateLanguageList
FUNC ae06a 33 0 LdrpConvertLangFallbackListToMultiSz
FUNC ae09e 21 0 RtlpMuiRegTryToAppendLanguageToMuiszFromLangList
FUNC ae0c0 f7 0 GetLCIDFromLangListNodeWithLICCheck
FUNC ae1b8 61 0 RtlpMuiRegTryToAppendLangId
FUNC ae21a 1e 0 RtlFormatCurrentUserKeyPath
FUNC ae238 a 0 RtlLengthSidAsUnicodeString
FUNC ae242 72 0 RtlConvertSidToUnicodeString
FUNC ae2b4 32 0 RtlIntegerToUnicode
FUNC ae2e6 598 0 RtlpNewSecurityObject
FUNC ae87e 20 0 RtlpInheritAcl
FUNC ae89e b6 0 RtlpInheritAcl2
FUNC ae954 a 0 RtlpGenerateInheritedAce
FUNC ae95e 11 0 RtlpIsDuplicateAce
FUNC ae970 237 0 RtlpCopyEffectiveAce
FUNC aeba8 2b 0 RtlEqualPrefixSid
FUNC aebd4 f1 0 RtlpCompareKnownObjectAces
FUNC aecc6 31 0 RtlpCopyAces
FUNC aecf8 32 0 RtlpAddKnownAce
FUNC aed2a 175 0 RtlpCombineAcls
FUNC aeea0 1e0 0 RtlpGetDefaultsSubjectContext
FUNC af080 1d 0 RtlpGetDefaultTrustSubjectContext
FUNC af09e a 0 RtlSidDominatesForTrust
FUNC af0a8 32 0 RtlAddMandatoryAce
FUNC af0da a 0 RtlQueryInformationAcl
FUNC af0e4 14 0 RtlAddAce
FUNC af0f8 a67 0 RtlpSetSecurityObject
FUNC afb60 d1 0 RtlpValidOwnerSubjectContext
FUNC afc32 32 0 RtlpAddKnownObjectAce
FUNC afc64 1b 0 RtlAddAccessAllowedObjectAce
FUNC afc80 38 0 OpenAdaptiveSqmPrivateSection
FUNC afcb8 3c 0 RtlAddSIDToBoundaryDescriptorEx
FUNC afcf4 a 0 RtlCreateServiceSid
FUNC afcfe 14 0 RtlAllocateAndInitializeSid
FUNC afd12 2f 0 RtlEnumerateBoundaryDescriptorEntries
FUNC afd42 7 0 RtlCreateBoundaryDescriptor
FUNC afd4a d7 0 WinSqmAddToStream
FUNC afe22 6c 0 WinSqmDWORDEvent
FUNC afe8e 8b 0 WinSqmSetString
FUNC aff1a 1ed 0 WinSqmEscalationManagerAcquire
FUNC b0108 64 0 RegisterWinSqmProvider
FUNC b016c 70 0 WinSqmIsSessionDisabled
FUNC b01dc 9d 0 IsMachineSampledOut
FUNC b027a 24 0 GetWinSQMStudyId
FUNC b029e d 0 WinSqmIsOptedInEx
FUNC b02ac 2c 0 CheckWinSQMOptinValue
FUNC b02d8 11 0 ReadUlongFromKey
FUNC b02ea 2d 0 IsProcessDisabled
FUNC b0318 101 0 WinSqmAddToStreamEx
FUNC b041a 8a 0 EvtIntReportEventWorker
FUNC b04a4 64 0 EtwSendNotification
FUNC b0508 c4 0 ResCKeOpenRuntimeView
FUNC b05cc b9 0 ResCKeDirectoryOpenMapping
FUNC b0686 1f7 0 LdrpGetMUIFromCMFSegment
FUNC b087e b 0 RtlNtStatusToDosError
FUNC b088a 78 0 vDbgPrintExWithPrefixInternal
FUNC b0902 7 0 ResGetSystemWindowsDirectory
FUNC b090a 16 0 RtlExpandEnvironmentStrings_U
FUNC b0920 a 0 ResQueryValueKey
FUNC b092a 1a 0 AitpIsEnabledNt
FUNC b0944 44 0 AitpDoFirstTelemetryHitSetupWorker
FUNC b0988 41 0 AitpDoFirstTelemetryHitSetup
FUNC b09ca 10 0 EtwTraceMessageVa
FUNC b09da 1d 0 AitpReadUlongFromKeyNt
FUNC b09f8 13 0 AeGetImageHeaderHashForCurrentProcess
FUNC b0a0c 21 0 AeComputeHeaderHashFromNtHeaders
FUNC b0a2e 6c 0 RtlpQueryTimeZoneInformationWorker
FUNC b0a9a 11 0 RtlpCheckDynamicTimeZoneInformation
FUNC b0aac a 0 RtlpGetDynamicTimeZoneInfoHandle
FUNC b0ab6 a 0 RtlpFindRegTziForCurrentYear
FUNC b0ac0 128 0 RtlpQueryRegistryValues
FUNC b0be8 133 0 RtlpCallQueryRegistryRoutine
FUNC b0d1c 5a 0 RtlpQueryRegistryDirect
FUNC b0d76 43 0 RtlpGetRegistryHandle
FUNC b0dba 11 0 RtlCheckPortableOperatingSystem
FUNC b0dcc 8 0 RtlCaptureStackBackTrace
FUNC b0dd4 4c 0 RtlRaiseException
FUNC b0e20 7 0 RtlpWalkFrameChain
FUNC b0e28 288 0 RtlpVirtualUnwind
FUNC b10b0 10 0 RtlpLookupFunctionEntryForStackWalks
FUNC b10c0 14c 0 RtlDispatchException
FUNC b120c 214 0 RtlVirtualUnwind
FUNC b1420 2ba 0 RtlUnwindEx
FUNC b16da a0 0 RtlpCallVectoredHandlers
FUNC b177a 92 0 RtlSetEnvironmentStrings
FUNC b180c bc 0 RtlCreateProcessParametersEx
FUNC b18c8 77 0 RtlCreateEnvironmentEx
FUNC b1940 30 0 RtlpInitEnvironmentBlock
FUNC b1970 37 0 RtlSetEnvironmentVar
FUNC b19a8 104 0 RtlSizeHeap
FUNC b1aac a0 0 RtlUnicodeToUTF8N
FUNC b1b4c 85 0 CountUnicodeToUTF8
FUNC b1bd2 f8 0 RtlUTF8ToUnicodeN
FUNC b1cca 80 0 CountUTF8ToUnicode
FUNC b1d4a 5b 0 RtlpIsQualifiedLanguage
FUNC b1da6 21a 0 RtlpTraverseParents
FUNC b1fc0 1e 0 RtlpCreateTraverseNodes
FUNC b1fde a 0 RtlAddAtomToAtomTableEx
FUNC b1fe8 a 0 RtlLookupAtomInAtomTable
FUNC b1ff2 43 0 RtlpHashStringToAtom
FUNC b2036 a1 0 RtlGetIntegerAtom
FUNC b20d8 20 0 RtlpInsertStringAtom
FUNC b20f8 7 0 RtlAllocateHandle
FUNC b2100 7 0 RtlDosSearchPath_U
FUNC b2108 5c7 0 RtlGetFileMUIPath
FUNC b26d0 52 0 RtlCreateActivationContext
FUNC b2722 95 0 RtlGetAssemblyStorageRoot
FUNC b27b8 24b 0 RtlpResolveAssemblyStorageMapEntry
FUNC b2a04 190 0 RtlpAssemblyStorageMapResolutionDefaultCallback
FUNC b2b94 115 0 RtlpGetActivationContextDataStorageMapAndRosterHeader
FUNC b2caa 9b 0 RtlpInsertAssemblyStorageMapEntry
FUNC b2d46 1cd 0 RtlpProbeAssemblyStorageRootForAssembly
FUNC b2f14 a 0 RtlUnicodeStringCbCatStringN
FUNC b2f1e 1a 0 RtlWideCharArrayCopyStringWorker
FUNC b2f38 30 0 LdrpMapResourceFile
FUNC b2f68 150 0 RtlDosSearchPath_Ustr
FUNC b30b8 7 0 RtlDoesFileExists_UstrEx
FUNC b30c0 26 0 RtlReleaseRelativeName
FUNC b30e6 b2 0 RtlGetFullPathName_UstrEx
FUNC b3198 7a 0 RtlpInitializeAssemblyStorageMap
FUNC b3212 42 0 RtlpValidateActivationContextData
FUNC b3254 ce 0 LdrpHandleTlsData
FUNC b3322 43 0 LdrpAllocateTlsEntry
FUNC b3366 a2 0 LdrpAcquireTlsIndex
FUNC b3408 54 0 RtlFlsAlloc
FUNC b345c 14e 0 RtlFindClearBitsAndSet
FUNC b35aa a 0 RtlFlsFree
FUNC b35b4 15 0 RtlDetermineDosPathNameType_U
FUNC b35ca 42 0 LdrAddDllDirectory
FUNC b360c 7 0 RtlpOwnerAcesPresent
FUNC b3614 83 0 RtlCutoverTimeToSystemTime
FUNC b3698 1c 0 RtlTimeToTimeFields
FUNC b36b4 116 0 RtlIsTextUnicode
FUNC b37ca 78 0 RtlAcquireResourceExclusive
FUNC b3842 78 0 RtlAcquireResourceShared
FUNC b38ba 66 0 RtlInitializeCriticalSection
FUNC b3920 c 0 RtlLookupElementGenericTableFullAvl
FUNC b392c f 0 RtlInsertElementGenericTableFullAvl
FUNC b393c 73 0 RtlInitializeCriticalSectionAndSpinCount
FUNC b39b0 30 0 TpCallbackIndependent
FUNC b39e0 2b 0 RtlpGetStackTraceAddressEx
FUNC b3a0c ee 0 RtlNtPathNameToDosPathName
FUNC b3afa 14 0 RtlpApplyLengthFunction
FUNC b3b0e 19 0 RtlpGetLengthWithoutLastPathElement
FUNC b3b28 2c 0 RtlpDetermineDosPathNameType4
FUNC b3b54 33 0 RtlPrefixUnicodeString
FUNC b3b88 19 0 TpCallbackSendAlpcMessageOnCompletion
FUNC b3ba2 13 0 RtlIpv6AddressToStringExW
FUNC b3bb6 55 0 RtlIpv6AddressToStringW
FUNC b3c0c 55 0 RtlUnicodeStringToOemString
FUNC b3c62 5a 0 RtlUnicodeToOemN
FUNC b3cbc 4a 0 RtlSelfRelativeToAbsoluteSD2
FUNC b3d06 a 0 RtlCopySecurityDescriptor
FUNC b3d10 a 0 RtlSelfRelativeToAbsoluteSD
FUNC b3d1a a 0 RtlMakeSelfRelativeSD
FUNC b3d24 7c 0 RtlUnicodeStringToAnsiString
FUNC b3da0 5e 0 RtlUnicodeToMultiByteN
FUNC b3dfe 2ef 0 RtlFormatMessageEx
FUNC b40ee d3 0 RtlStringCchPrintfExW
FUNC b41c2 96 0 RtlUpperChar
FUNC b4258 7 0 RtlDeleteElementGenericTable
FUNC b4260 16 0 RtlInsertElementGenericTableFull
FUNC b4276 b 0 SwapSplayLinks
FUNC b4282 184 0 LdrGetDllHandleEx
FUNC b4406 16 0 LdrpAcquireLoaderLockToPrepareNode
FUNC b441c a 0 LdrAddLoadAsDataTable
FUNC b4426 79 0 LdrLogNewDataDllLoad
FUNC b44a0 a 0 LdrRemoveLoadAsDataTable
FUNC b44aa 78 0 RtlSetThreadPreferredUILanguages
FUNC b4522 a 0 LdrpMultiSZCchLength
FUNC b452c b 0 RtlpInitializeUserList
FUNC b4538 14 0 RtlpUpdateTEBLanguage
FUNC b454c 1d7 0 RtlIpv6StringToAddressExA
FUNC b4724 d1 0 RtlIpv6StringToAddressA
FUNC b47f6 a 0 RtlSidHashInitialize
FUNC b4800 42 0 RtlSubscribeWnfStateChangeNotificationInternal
FUNC b4842 38 0 RtlpAddWnfUserSubToNameSub
FUNC b487a 36 0 RtlpCreateWnfNameSubscription
FUNC b48b0 a 0 RtlpCreateWnfUserSubscription
FUNC b48ba 38 0 RtlpCreateSerializationGroup
FUNC b48f2 19 0 RtlpGetChainHead
FUNC b490c 8f 0 RtlLoadString
FUNC b499c 3e 0 RtlSidHashLookup
FUNC b49da 14 0 RtlpMuiRegTryToAppendLanguageName
FUNC b49ee 7 0 RtlpLangNameInMultiSzString_Size
FUNC b49f6 e 0 RtlGetSearchPath
FUNC b4a04 e 0 RtlGetExePath
FUNC b4a12 f 0 RtlpGetCachedPath
FUNC b4a22 51 0 RtlpComputeDllPath
FUNC b4a74 122 0 RtlpComputePath
FUNC b4b96 16 0 RtlpGetDirPath
FUNC b4bac 23 0 RtlpComputeDllPathWithOptions
FUNC b4bd0 31 0 RtlpLookupCurDirSetting
FUNC b4c02 29 0 LdrpFindMessageInAlternateModule
FUNC b4c2c 1f 0 RtlpHeapListCompare
FUNC b4c4c a8 0 RtlConsoleMultiByteToUnicodeN
FUNC b4cf4 7 0 RtlpLowFragHeapAllocateFromZone
FUNC b4cfc a 0 CsrpClientConnectToServer
FUNC b4d06 1d 0 CsrClientCallServer
FUNC b4d24 14 0 CsrCaptureMessageMultiUnicodeStringsInPlace
FUNC b4d38 b 0 CsrCaptureMessageString
FUNC b4d44 7 0 CsrAllocateCaptureBuffer
FUNC b4d4c e 0 LdrpInsertDataTableEntry
FUNC b4d5a c 0 RtlSetCriticalSectionSpinCount
FUNC b4d66 2d 0 LdrpAllocateDataTableEntry
FUNC b4d94 4b 0 RtlpSetSegmentInfo
FUNC b4de0 210 0 RtlpLowFragHeapFree
FUNC b4ff0 40 0 RtlpLowFragHeapFlushCaches
FUNC b5030 405 0 RtlpLocalInfoAllocFromCache
FUNC b5436 60 0 RtlpLfhFindClearBitAndSet
FUNC b5496 14 0 RtlDowncaseUnicodeString
FUNC b54aa 7c 0 RtlGetUserInfoHeap
FUNC b5526 9c 0 RtlSetUserValueHeap
FUNC b55c2 e7 0 TpAllocPool
FUNC b56aa f 0 TppInitializeTimerQueue
FUNC b56ba a 0 TppPoolUpdateNodeRelation
FUNC b56c4 b 0 TpReleaseCleanupGroupMembers
FUNC b56d0 a 0 RtlDeregisterWaitEx
FUNC b56da 39 0 TpWaitForIoCompletion
FUNC b5714 3e 0 TpWaitForWait
FUNC b5752 1b 0 TpWaitForTimer
FUNC b576e 51 0 TppWorkWait
FUNC b57c0 69 0 TppWorkCancelPendingCallbacks
FUNC b582a 1b 0 TppTimerpStopCallbackGeneration
FUNC b5846 24 0 TppAlpcpValidateAlpc
FUNC b586a 1af 0 LdrpReportError
FUNC b5a1a 1f 0 LdrpRecordFailureInfo
FUNC b5a3a a 0 EtwWriteUMSecurityEvent
FUNC b5a44 119 0 LdrpFindDllActivationContext
FUNC b5b5e 36 0 LdrpCorInitialize
FUNC b5b94 b4 0 LdrpLoadWow64
FUNC b5c48 d5 0 LdrLoadDll
FUNC b5d1e 426 0 RtlUpcaseUnicodeToMultiByteN
FUNC b6144 90 0 RtlUnicodeStringToInteger
FUNC b61d4 383 0 RtlGetAppContainerNamedObjectPath
FUNC b6558 a 0 RtlMultiAppendUnicodeStringBuffer
FUNC b6562 32 0 RtlpEnsureBufferSize
FUNC b6594 2a 0 RtlSetCurrentDirectory_U
FUNC b65be 4e 0 RtlpCheckForSameCurdir
FUNC b660c b8 0 RtlGetCurrentDirectory_U
FUNC b66c4 21f 0 RtlpReferenceCurrentDirectory
FUNC b68e4 26 0 RtlpInitCurrentDir
FUNC b690a 39 0 RtlpCreateNewDirectoryReference
FUNC b6944 7f 0 RtlpWakeSingle
FUNC b69c4 a 0 RtlDnsHostNameToComputerName
FUNC b69ce 54 0 RtlOemStringToUnicodeString
FUNC b6a22 85 0 RtlOemToUnicodeN
FUNC b6aa8 4b 0 RtlUpcaseUnicodeStringToOemString
FUNC b6af4 a1 0 RtlpDidUnicodeToOemWork
FUNC b6b96 428 0 RtlUpcaseUnicodeToOemN
FUNC b6fbe 29 0 EtwEventActivityIdControl
FUNC b6fe8 2c 0 RtlpQueryRunLevel
FUNC b7014 3d 0 RtlpQueryInformationActivationContextDetailedInformation
FUNC b7052 104 0 RtlpCrackActivationContextStringSectionHeader
FUNC b7156 ac 0 LdrLockLoaderLock
FUNC b7202 c9 0 LdrpTryAcquireLoaderLock
FUNC b72cc 7 0 ApiSetQueryApiSetPresence
FUNC b72d4 27 0 RtlpWin32NtNameToNtPathName
FUNC b72fc 22 0 RtlWakeConditionVariable
FUNC b731e 67 0 RtlpWakeConditionVariable
FUNC b7386 a 0 RtlImpersonateSelfEx
FUNC b7390 c0 0 RtlpMuiRegGetInstalledLangInfoIndex
FUNC b7450 21 0 RtlQueryPackageIdentity
FUNC b7472 161 0 RtlQueryPackageIdentityEx
FUNC b75d4 34 0 LdrFindResource_U
FUNC b7608 3c 0 RtlTryConvertSRWLockSharedToExclusiveOrRelease
FUNC b7644 2b5 0 LdrpCodeAuthzInitialize
FUNC b78fa 44 0 LdrUnlockLoaderLock
FUNC b793e 39 0 RtlUnicodeToMultiByteSize
FUNC b7978 b8 0 RtlIpv4StringToAddressA
FUNC b7a30 15b 0 LdrpQuerySxSMUIFile
FUNC b7b8c 3b 0 RtlpLoadNlsData
FUNC b7bc8 39 0 RtlGetLocaleFileMappingAddress
FUNC b7c02 1e 0 RtlStringFromGUIDEx
FUNC b7c20 1d 0 EtwpNotificationThread
FUNC b7c3e f0 0 EtwDeliverDataBlock
FUNC b7d2e 8d 0 EtwpProcessNotification
FUNC b7dbc 59 0 EtwpFindRegistration
FUNC b7e16 49 0 RtlTryAcquireSRWLockShared
FUNC b7e60 261 0 RtlCreateTagHeap
FUNC b80c2 27 0 RtlActivateActivationContextEx
FUNC b80ea 52 0 RtlpAllocateActivationContextStackFrame
FUNC b813c a 0 RtlpNtQueryValueKey
FUNC b8146 16 0 RtlpInitParameterBlock
FUNC b815c 4d 0 TppAllocAlpcCompletion
FUNC b81aa 6a 0 RtlpCreateHashTable
FUNC b8214 18 0 RtlRemoveEntryHashTable
FUNC b822c a 0 RtlpOpenImageFileOptionsKey
FUNC b8236 15 0 RtlpOpenBaseImageFileOptionsKey
FUNC b824c 2ad 0 RtlpProcessIFEOKeyFilter
FUNC b84fa 61 0 RtlQueryApplicationKeyOption
FUNC b855c 1fb 0 RtlQueryImageFileKeyOption
FUNC b8758 2d 0 RtlpUpdateHeapRates
FUNC b8786 c 0 RtlApplyRXact
FUNC b8792 11 0 RXactpCommit
FUNC b87a4 a 0 RXactpOpenTargetKey
FUNC b87ae 122 0 RtlDeactivateActivationContext
FUNC b88d0 cd 0 RtlpFreeActivationContextStackFrame
FUNC b899e 20 0 LdrGetDllDirectory
FUNC b89be a 0 RtlpFindActivationContextSection_FillOutReturnedData
FUNC b89c8 23 0 RtlWakeAllConditionVariable
FUNC b89ec a 0 RtlpAffinitizeSegmentInfoForBucket
FUNC b89f6 1b 0 RtlGetNextEntryHashTable
FUNC b8a12 56 0 RtlInstallFunctionTableCallback
FUNC b8a68 da 0 sxsisol_FreeUnicodeStringBufferAroundUnicodeStrings_Success
FUNC b8b42 5c 0 RtlQueryActivationContextApplicationSettings
FUNC b8b9e 1aa 0 TppCritSetThread
FUNC b8d48 45 0 RtlpComputeBackupIndex
FUNC b8d8e 64 0 RtlInterlockedClearBitRun
FUNC b8df2 27 0 RtlpInitializeWnf
FUNC b8e1a 2b 0 RtlpWnfRegisterTpNotification
FUNC b8e46 a 0 RtlpNtEnumerateSubKey
FUNC b8e50 6f 0 LdrGetKnownDllSectionHandle
FUNC b8ec0 1d3 0 LdrLoadAlternateResourceModule
FUNC b9094 84 0 RtlNtStatusToDosErrorNoTeb
FUNC b9118 a 0 TpSetDefaultPoolStackInformation
FUNC b9122 107 0 RtlIpv6AddressToStringA
FUNC b922a 119 0 LdrpInitializePerUserWindowsDirectory
FUNC b9344 a 0 RtlCreateTimerQueue
FUNC b934e c8 0 RtlCharToInteger
FUNC b9416 3e 0 TpAllocCleanupGroup
FUNC b9454 a 0 RtlNormalizeString
FUNC b945e 44 0 RtlpNormalizeStringWorker
FUNC b94a2 6b 0 Normalization__Normalize
FUNC b950e 6d1 0 Normalization__NormalizeCharacter
FUNC b9be0 7 0 NormBuffer__AppendEx
FUNC b9be8 44 0 NormBuffer__Append
FUNC b9c2c 4d 0 RtlpGetNormalization
FUNC b9c7a a 0 Normalization__LoadTables
FUNC b9c84 1a 0 RtlPublishWnfStateData
FUNC b9c9e 28 0 RtlUpdateTimer
FUNC b9cc6 8a 0 RtlLargeIntegerToChar
FUNC b9d50 3dd 0 RtlGetUserPreferredUILanguages
FUNC ba12e b1 0 LdrpGetParentLangId
FUNC ba1e0 10a 0 RtlContractHashTable
FUNC ba2ea 10f 0 TppPoolUpdateTrimmedWorker
FUNC ba3fa 20 0 TpDereferenceGlobalPool
FUNC ba41a 72 0 RtlAddAttributeActionToRXact
FUNC ba48c 1d 0 TpDisassociateCallback
FUNC ba4aa 34 0 LdrFindResourceEx_U
FUNC ba4de f 0 RtlpRemoveVectoredHandler
FUNC ba4ee 1e 0 RtlpUninitializeAssemblyStorageMap
FUNC ba50c 48 0 RtlGetElementGenericTable
FUNC ba554 e9 0 LdrpProtectAndRelocateImage
FUNC ba63e a 0 LdrpSetProtection
FUNC ba648 1f 0 LdrRelocateImage
FUNC ba668 7f 0 LdrProcessRelocationBlockLongLong
FUNC ba6e8 3e2 0 RtlCheckHeldCriticalSections
FUNC baaca 3d 0 RtlpRemoveUCRBlock
FUNC bab08 11 0 TppCallbackPerformDeferredWork
FUNC bab1a a 0 RtlCreateVirtualAccountSid
FUNC bab24 11 0 RtlDeleteTimerQueueEx
FUNC bab36 18 0 RtlpTpTimerQueueRundown
FUNC bab4e 355 0 punycode_encode
FUNC baea4 18 0 FindLabelEnd
FUNC baebc 2b 0 RtlConvertExclusiveToShared
FUNC baee8 84 0 RtlAvlRemoveNode
FUNC baf6c 88 0 TppCritResetThread
FUNC baff4 a 0 RtlpCreateUserThreadEx
FUNC baffe 37 0 RtlMultiByteToUnicodeSize
FUNC bb036 25 0 RtlRunEncodeUnicodeString
FUNC bb05c 20 0 RtlpComputeMergedAcl
FUNC bb07c 103 0 RtlpComputeMergedAcl2
FUNC bb180 18 0 RtlQueryUnbiasedInterruptTime
FUNC bb198 a 0 TpDisablePoolCallbackChecks
FUNC bb1a2 14 0 RtlCompressBuffer
FUNC bb1b6 a 0 RtlSidDominates
FUNC bb1c0 44 0 LdrpProcessInitializationComplete
FUNC bb204 15 0 EtwpRegisterGuidsApiCallback
FUNC bb21a 1a 0 RtlTestAndPublishWnfStateData
FUNC bb234 cf 0 RtlpMuiRegLoadMachinePreferredUILanguages
FUNC bb304 1a 0 TpSetPoolMinThreads
FUNC bb31e 14 0 RtlGetCompressionWorkSpaceSize
FUNC bb332 16 0 RtlInitCodePageTable
FUNC bb348 12 0 TpSetPoolMaxThreads
FUNC bb35a 3b 0 LdrpCorProcessImports
FUNC bb396 7a 0 AVrfDllLoadNotification
FUNC bb410 9b 0 RtlGetProductInfo
FUNC bb4ac 61 0 RtlDeleteHashTable
FUNC bb50e 25 0 EtwGetTraceLoggerHandle
FUNC bb534 14 0 RtlDispatchAPC
FUNC bb548 1a 0 RtlAddAuditAccessObjectAce
FUNC bb562 3d 0 RtlpGetNameFromLangInfoNode
FUNC bb5a0 54 0 RtlQueryProtectedPolicy
FUNC bb5f4 50 0 RtlDestroyHandleTable
FUNC bb644 18 0 EtwLogTraceEvent
FUNC bb65c 15 0 RtlCompactHeap
FUNC bb672 10e 0 RtlpCoalesceHeap
FUNC bb780 52 0 RtlpGetLCIDFromLangInfoNode
FUNC bb7d2 a 0 RtlpMuiFreeLangRegistryInfo
FUNC bb7dc e0 0 RtlMapSecurityErrorToNtStatus
FUNC bb8bc 24 0 RtlAddAccessDeniedObjectAce
FUNC bb8e0 a 0 RtlFindNextForwardRunClearCapped
FUNC bb8ea 8 0 AlpcGetMessageFromCompletionList
FUNC bb8f2 21 0 AlpcFreeCompletionListMessage
FUNC bb914 24 0 RtlpCopyLegacyContext
FUNC bb938 1c 0 RtlpCopyLegacyContextX86
FUNC bb954 3e 0 RtlInitializeExtendedContext
FUNC bb992 32 0 RtlGetExtendedContextLength
FUNC bb9c4 2a 0 RtlpValidateContextFlags
FUNC bb9ee 69 0 RtlpCopyXStateChunk
FUNC bba58 2d 0 RtlImageRvaToVa
FUNC bba86 46 0 RtlpTpIoDllLoaded
FUNC bbacc 72 0 RtlCreateUserStack
FUNC bbb3e b 0 TpAlpcRegisterCompletionList
FUNC bbb4a 14 0 RtlSetIoCompletionCallback
FUNC bbb5e 3a 0 RtlpTpIoAlloc
FUNC bbb98 14 0 LdrRegisterDllNotification
FUNC bbbac 1b 0 TpCancelAsyncIoOperation
FUNC bbbc8 b 0 TpAlpcUnregisterCompletionList
FUNC bbbd4 1c 0 ResetEventCountOnConsolidatorRun
FUNC bbbf0 19 0 ReadUlonglongFromKey
FUNC bbc0a fb 0 EtwpQueryUmLogger
FUNC bbd06 22 0 RtlGetProcessHeaps
FUNC bbd28 14 0 TpSetPoolThreadBasePriority
FUNC bbd3c 14 0 RtlDecompressBufferEx
FUNC bbd50 45 0 RtlDecompressBufferXpressHuff
FUNC bbd96 46 0 XpressBuildHuffmanDecodingTable
FUNC bbddc 47 0 RtlCompressBufferXpressHuff
FUNC bbe24 1a 0 RtlCompressBufferXpressHuffStandard
FUNC bbe3e 11 0 XpressDoHuffmanPass
FUNC bbe50 6b 0 XpressBuildHuffmanEncodings
FUNC bbebc 178 0 RtlFindClearBits
FUNC bc034 33 0 LdrVerifyImageMatchesChecksumEx
FUNC bc068 68 0 EtwProcessPrivateLoggerRequest
FUNC bc0d0 11d 0 EtwpStopUmLogger
FUNC bc1ee 5d 0 EtwpGetPrivateLoggerContext
FUNC bc24c 51 0 EtwpGetPrivateLoggerContextByName
FUNC bc29e 1e 0 RtlCompareString
FUNC bc2bc fd 0 WinSqmStartSessionInternal
FUNC bc3ba 14 0 RtlRemovePrivileges
FUNC bc3ce 1d 0 RtlCreateAndSetSD
FUNC bc3ec a 0 RtlCreateUserProcess
FUNC bc3f6 72 0 RtlpCreateUserProcess
FUNC bc468 a3 0 RtlNormalizeProcessParams
FUNC bc50c 2c 0 RtlSetThreadIsCritical
FUNC bc538 1b 0 RtlpQueryPseudoEnvironmentVariable
FUNC bc554 102 0 RtlStringCbPrintfExW
FUNC bc656 14 0 RtlConnectToSm
FUNC bc66a 1b 0 TppStopWaitCallbackGeneration
FUNC bc686 18e 0 RtlAcquirePrivilege
FUNC bc814 a 0 RtlSendMsgToSm
FUNC bc81e 55 0 RtlpVerifyAndCommitUILanguageSettings
FUNC bc874 a 0 RtlpGetInstalledLanguageType
FUNC bc87e 32 0 RtlAddProcessTrustLabelAce
FUNC bc8b0 dc 0 EtwEventWriteStartScenario
FUNC bc98c 14 0 EtwEventWriteEndScenario
FUNC bc9a0 12 0 WinSqmEndSession
FUNC bc9b2 1e 0 RtlGetSetBootStatusData
FUNC bc9d0 14c 0 RtlInitializeRXact
FUNC bcb1c 1a 0 RtlReleasePrivilege
FUNC bcb36 18 0 EtwEventWriteNoRegistration
FUNC bcb4e 1c2 0 RtlFindSetBits
FUNC bcd10 29 0 RtlSetProcessIsCritical
FUNC bcd3a aa 0 RtlpLoadInstallLanguageFallback
FUNC bcde4 17 0 RtlSetCurrentEnvironment
FUNC bcdfc 2f 0 RtlpTpImpersonate
FUNC bce2c 1e 0 EtwRegisterSecurityProvider
FUNC bce4a 52 0 RtlSetProcessPreferredUILanguages
FUNC bce9c 1e 0 WinSqmSetEscalationInfo
FUNC bceba a 0 RtlDeleteAtomFromAtomTable
FUNC bcec4 2e 0 RtlSleepConditionVariableSRW
FUNC bcef2 1b 0 RtlpOptimizeConditionVariableWaitList
FUNC bcf0e a 0 RtlQueryAtomInAtomTable
FUNC bcf18 156 0 RtlpSysVolCheckOwnerAndSecurity
FUNC bd06e 53 0 RtlCreateSystemVolumeInformationFolder
FUNC bd0c2 20 0 RtlpSysVolCreateSecurityDescriptor
FUNC bd0e2 ae 0 LdrpInitShimEngine
FUNC bd190 e3 0 LdrpLoadShimEngine
FUNC bd274 61 0 LdrpInitializeShimDllDependencies
FUNC bd2d6 50 0 LdrpGetShimEngineInterface
FUNC bd326 15a 0 RtlAddGrowableFunctionTable
FUNC bd480 43 0 TpReleasePool
FUNC bd4c4 a 0 LdrEnumerateLoadedModules
FUNC bd4ce ba 0 LdrpLogLoadFailureEtwEvent
FUNC bd588 35 0 RtlSetSearchPathMode
FUNC bd5be 68 0 RtlpLookupDynamicFunctionEntry
FUNC bd626 5 0 RtlpSameFunction
FUNC bd62c 48 0 RtlpUpdateHeapWatermarks
FUNC bd674 41 0 LdrQueryModuleInfoFromLdrEntry32
FUNC bd6b6 314 0 RtlQueryProcessDebugInformation
FUNC bd9ca 18 0 RtlQueryProcessModuleInformation
FUNC bd9e2 a 0 LdrpGetModuleName
FUNC bd9ec 9 0 RtlpQueryReadVirtualMemory
FUNC bd9f6 176 0 RtlpChangeQueryDebugBufferTarget
FUNC bdb6c 5f 0 RtlCreateQueryDebugBuffer
FUNC bdbcc 6b 0 RtlpSysVolTakeOwnership
FUNC bdc38 6a 0 WinSqmGetInstrumentationProperty
FUNC bdca2 7b 0 WinSqmCheckEscalationSetDWORD
PUBLIC bdd30 0 CsrCaptureTimeout
PUBLIC bdd50 0 CsrGetProcessId
PUBLIC bdd60 0 CsrVerifyRegion
PUBLIC bddb0 0 LdrAppxHandleIntegrityFailure
PUBLIC bdffc 0 LdrpAppxEtwGenericIntegrityFailure
PUBLIC be084 0 LdrpAppxEtwIntegrityFailure
PUBLIC be17c 0 LdrpAppxGetBinaryNameKeyInformation
PUBLIC be2dc 0 LdrpAppxGetRemediationRegistryKey
PUBLIC be41c 0 LdrpAppxSqmIntegrityFailure
PUBLIC be560 0 RtlAppxIsFileOwnedByTrustedInstaller
PUBLIC be6d0 0 RtlStringCbPrintfW
PUBLIC be750 0 RtlDisableThreadProfiling
PUBLIC be7c0 0 RtlEnableThreadProfiling
PUBLIC be8c0 0 RtlQueryThreadProfiling
PUBLIC be8f0 0 RtlReadThreadProfilingData
PUBLIC bea50 0 RtlAppendPathElement
PUBLIC beca4 0 RtlUnicodeStringCopyString
PUBLIC bed18 0 RtlpCheckDeviceName
PUBLIC bedd0 0 RtlpCheckRelativeDrive
PUBLIC bef58 0 RtlpResetDriveEnvironment
PUBLIC bf000 0 DbgUiConnectToDbg
PUBLIC bf070 0 DbgUiContinue
PUBLIC bf0a0 0 DbgUiConvertStateChangeStructure
PUBLIC bf320 0 DbgUiDebugActiveProcess
PUBLIC bf380 0 DbgUiGetThreadDebugObject
PUBLIC bf3a0 0 DbgUiIssueRemoteBreakin
PUBLIC bf410 0 DbgUiRemoteBreakin
PUBLIC bf460 0 DbgUiSetThreadDebugObject
PUBLIC bf480 0 DbgUiStopDebugging
PUBLIC bf4a0 0 DbgUiWaitStateChange
FUNC m bf4c4 b8 0 RtlStringExHandleOtherFlagsW
PUBLIC bf584 0 RtlpQueryEnvironmentCache
PUBLIC bf6e0 0 RtlGetThreadErrorMode
PUBLIC bf700 0 RtlGetFrame
PUBLIC bf718 0 LdrpLogDbgPrint
PUBLIC bf810 0 StringCbPrintfA
PUBLIC bf890 0 LdrGetFailureData
PUBLIC bf8a0 0 LdrQueryModuleServiceTags
PUBLIC bf920 0 LdrQueryProcessModuleInformation
PUBLIC bf948 0 LdrQueryProcessModuleInformationEx2
FUNC bfcc7 4c 0 LdrQueryProcessModuleInformationEx2$fin$0
PUBLIC bfd20 0 LdrSetImplicitPathOptions
PUBLIC bfda0 0 LdrUnregisterDllNotification
PUBLIC bfe50 0 LdrVerifyImageMatchesChecksum
PUBLIC bfeb0 0 RtlGetUnloadEventTrace
PUBLIC bfec0 0 RtlGetUnloadEventTraceEx
PUBLIC bfee8 0 LdrpCheckComponentOnDemandEtwEvent
PUBLIC c0120 0 LdrpEventAddUnicodeString
PUBLIC c0184 0 LdrpIsCODServiceEnabled
PUBLIC c021c 0 LdrpLogEtwEvent
PUBLIC c02bc 0 LdrpLogEtwEventEx
PUBLIC c0384 0 LdrpLogFatalLdrEtwEvent
PUBLIC c0470 0 LdrpLogFatalUserCallbackException
PUBLIC c05c8 0 LdrpLogMappedDlls
PUBLIC c0610 0 LdrpLogNewDllLoadInternal
PUBLIC c0700 0 LdrQueryOptionalDelayLoadedAPI
PUBLIC c07e0 0 LdrResolveDelayLoadsFromDll
PUBLIC c0824 0 LdrpGetDelayloadDescriptor
PUBLIC c08c4 0 LdrpGetDelayloadExportDll
PUBLIC c0a74 0 LdrpHandleProtectedDelayload
FUNC c0d09 39 0 LdrpHandleProtectedDelayload$fin$0
PUBLIC c0d48 0 LdrpHandleUnprotectedDelayLoad
PUBLIC c0e70 0 LdrpWriteBackProtectedDelayLoad
PUBLIC c0f28 0 LdrpResolveDllName
PUBLIC c1368 0 LdrpSearchPath
PUBLIC c193c 0 InitSecurityCookie
PUBLIC c19c0 0 LdrInitShimEngineDynamic
PUBLIC c1a94 0 LdrpCheckAppDirType
PUBLIC c1be0 0 LdrpConstructModernAppKeyName
PUBLIC c1cc0 0 LdrpDoDebuggerBreak
PUBLIC c1d00 0 LdrpGetProcApphelpCheckModule
PUBLIC c1f40 0 LdrpInitializationFailure
PUBLIC c1fe8 0 LdrpInitializeApplicationVerifierPackage
PUBLIC c21f4 0 LdrpInitializeExecutionOptions
PUBLIC c27c4 0 LdrpInitializeNlsInfo
PUBLIC c2804 0 LdrpInitializeProcess
FUNC c43e8 1d 0 LdrpInitializeProcess$fin$0
PUBLIC c440c 0 LdrpInitializeProcessWrapperFilter
PUBLIC c44b4 0 LdrpQueryIllegalCWDDevices
PUBLIC c454c 0 LdrpTouchThreadStack
FUNC c45eb 1d 0 LdrpTouchThreadStack$filt$0
PUBLIC c4610 0 LdrpAbortModuleLoad
PUBLIC c4654 0 LdrpUnlockTlsDelayedReclaimTable
PUBLIC c4720 0 CsrSetPriorityClass
PUBLIC c472c 0 LdrpCalloutExceptionFilter
PUBLIC c4754 0 LdrpFatalExceptionFilter
PUBLIC c47f0 0 LdrpGenericExceptionFilter
PUBLIC c4940 0 RtlComputePrivatizedDllName_U
PUBLIC c4cd4 0 StringCbPrintfW
PUBLIC m c4d60 0 RtlCloneMemoryStream
PUBLIC c4d6c 0 LdrForkMrdata
PUBLIC c4da0 0 LdrInitializeMrdata
PUBLIC c4e04 0 LdrpLocateMrdata
PUBLIC c4e80 0 RtlCreateProcessReflection
PUBLIC c54f0 0 RtlpProcessReflectionStartup
PUBLIC c5890 0 RtlDumpResource
PUBLIC c58e0 0 RtlEnableEarlyCriticalSectionEventCreation
PUBLIC c590c 0 RtlGetCriticalSectionContentionCount
PUBLIC c5930 0 RtlIsCriticalSectionLocked
PUBLIC c5950 0 RtlQueryCriticalSectionOwner
FUNC c5a55 1b 0 RtlQueryCriticalSectionOwner$fin$0
PUBLIC c5a80 0 RtlUpdateClonedCriticalSection
PUBLIC c5aac 0 RtlpInitDeferredCriticalSection
PUBLIC c5b10 0 RtlpNotOwnerCriticalSection
FUNC c5bdb 30 0 RtlpNotOwnerCriticalSection$filt$0
PUBLIC c5c14 0 RtlpPossibleDeadlock
FUNC c5ca2 26 0 RtlpPossibleDeadlock$filt$0
PUBLIC c5cd0 0 RtlCloneUserProcess
PUBLIC c5fe0 0 RtlCompleteProcessCloning
PUBLIC c6120 0 RtlCreateProcessParameters
PUBLIC c6190 0 RtlDeNormalizeProcessParams
PUBLIC c6250 0 RtlIsCurrentThreadAttachExempt
PUBLIC c6290 0 RtlPrepareForProcessCloning
PUBLIC c63c0 0 RtlWow64LogMessageInEventLogger
PUBLIC c6508 0 RtlpUnlockFlsCallbackVector
PUBLIC c6590 0 RtlCheckSandboxedToken
PUBLIC c68f0 0 RtlConvertToAutoInheritSecurityObject
PUBLIC c6900 0 RtlCreateUserSecurityObject
PUBLIC c69a0 0 RtlDefaultNpAcl
PUBLIC c6dd0 0 RtlNewInstanceSecurityObject
PUBLIC c6ee0 0 RtlNewSecurityGrantedAccess
PUBLIC c7070 0 RtlQuerySecurityObject
PUBLIC c7350 0 RtlCommitDebugInfo
PUBLIC c7360 0 RtlDeCommitDebugInfo
PUBLIC c7370 0 RtlQueryProcessBackTraceInformation
FUNC c74d5 1b 0 RtlQueryProcessBackTraceInformation$fin$0
PUBLIC c7500 0 RtlQueryProcessHeapInformation
FUNC c78b4 1b 0 RtlQueryProcessHeapInformation$fin$0
PUBLIC c78e0 0 RtlQueryProcessLockInformation
FUNC c7b4e 1b 0 RtlQueryProcessLockInformation$fin$0
PUBLIC c7b70 0 RtlSetProcessDebugInformation
PUBLIC c7d1c 0 RtlpCopyRemoteDebugInformation
PUBLIC c7ef0 0 RtlpDeCommitQueryDebugInfo
PUBLIC c7f20 0 RtlpQueryCriticalSectionOwnerInformation
PUBLIC c7f70 0 RtlpQueryProcessDebugInformationFromWow64
PUBLIC c8000 0 RtlpQueryProcessDebugInformationRemote
PUBLIC c80f0 0 RtlpQueryProcessEnumHeapsRoutine
PUBLIC c81f0 0 RtlpSetProcessDebugInformationRemote
PUBLIC c8268 0 RtlpValidateRange
PUBLIC c82d4 0 RtlpValidateRemoteDebugInformation
PUBLIC c8710 0 RtlpWalkCallbackRoutine
PUBLIC c8910 0 RtlRemoveVectoredContinueHandler
PUBLIC c8920 0 AVrfCallAPILookupCallback
PUBLIC c89fc 0 AVrfDllUnloadNotification
PUBLIC c8ae0 0 AVrfInitializeVerifier
PUBLIC c8eb0 0 AVrfInternalHeapFreeNotification
PUBLIC c8f58 0 AVrfOpenCurrentUserImageFileOptionsKey
PUBLIC c9060 0 AVrfpAppendCurrentUserSid
PUBLIC c9160 0 AVrfpChainDuplicateVerificationLayers
PUBLIC c9274 0 AVrfpDetectVerifiedExports
PUBLIC c9354 0 AVrfpDllLoadNotificationInternal
PUBLIC c9430 0 AVrfpDllUnloadNotificationInternal
PUBLIC c954c 0 AVrfpEnableHandleVerifier
PUBLIC c95c0 0 AVrfpEnableHeapVerifier
PUBLIC c962c 0 AVrfpEnableVerifierOptions
PUBLIC c96d8 0 AVrfpFindClosestThunkDuplicate
PUBLIC c982c 0 AVrfpIsVerifierProviderDll
PUBLIC c9864 0 AVrfpLoadAndInitializeProvider
PUBLIC c9b60 0 AVrfpParseVerifierDllsString
PUBLIC c9cf8 0 AVrfpQueryProcessVerifierOptions
PUBLIC c9dd4 0 AVrfpSetProcessVerifierOptions
PUBLIC c9e40 0 AVrfpSnapAlreadyLoadedDlls
PUBLIC c9ecc 0 AVrfpSnapDllImports
PUBLIC ca080 0 AVrfpVerifierStopInitialize
PUBLIC ca134 0 AvrfMiniLoadDll
PUBLIC ca9c0 0 RtlApplicationVerifierStop
PUBLIC caae4 0 RtlpPageHeapStop
PUBLIC cabf0 0 RtlQueueApcWow64Thread
PUBLIC cac10 0 RtlWow64GetThreadContext
PUBLIC cac40 0 RtlWow64GetThreadSelectorEntry
PUBLIC cadd0 0 RtlWow64SetThreadContext
PUBLIC cadf0 0 RtlWow64SuspendThread
PUBLIC cae00 0 RtlAcquireReleaseSRWLockExclusive
PUBLIC cae30 0 RtlUpdateClonedSRWLock
PUBLIC cae48 0 RtlpQueueWaitBlockToSRWLock
PUBLIC caf44 0 IsDebugPortPresent
PUBLIC caf8c 0 ReportExceptionInternal
PUBLIC cb0c0 0 RtlReportException
PUBLIC cb1cc 0 RtlReportExceptionEx
FUNC cb6f8 8e 0 RtlReportExceptionEx$fin$0
PUBLIC cb790 0 RtlReportSqmEscalation
PUBLIC cbb00 0 RtlWerpReportException
PUBLIC cbb0c 0 SendMessageToWERService
PUBLIC cbd24 0 SignalStartWerSvc
PUBLIC cbdd0 0 WaitForWerSvc
PUBLIC cbe74 0 WerpAllocateAndInitializeSid
PUBLIC cbf68 0 WerpFreeSid
PUBLIC cbfbc 0 GetShipAssertBuffer
PUBLIC cc0c0 0 SetAssertBufferPtrinPeb
PUBLIC cc130 0 ShipAssert
FUNC cc229 20 0 ShipAssert$filt$0
PUBLIC cc250 0 ShipAssertGetBufferInfo
PUBLIC m cc280 0 ShipAssertMsgA
PUBLIC cc28c 0 HashStringToDwordCaseInsensitiveLen
PUBLIC cc2f0 0 SqmEscalationCallback
PUBLIC cc598 0 StringCchPrintfW
PUBLIC cc614 0 WerEscalationLazyInit
PUBLIC cc9f0 0 WerReportSQMEvent
PUBLIC ccbc0 0 WerpEscalationIsDisabled
PUBLIC ccc70 0 WerpEscalationIsWMRSendStringSet
PUBLIC ccd20 0 WerpEscalationReadUlongFromKey
PUBLIC ccdcc 0 WerpUtilPathTail
PUBLIC cce28 0 RtlResetStackOverflow
PUBLIC ccf48 0 IsRuleThrottled
PUBLIC cd064 0 ThrottleEscalatedRule
PUBLIC cd140 0 WinSqmAddToAverageDWORD
PUBLIC cd160 0 WinSqmCheckEscalationAddToStreamEx
PUBLIC cd310 0 WinSqmCheckEscalationSetDWORD64
PUBLIC cd420 0 WinSqmCheckEscalationSetString
PUBLIC cd5a0 0 WinSqmCommonDatapointDelete
PUBLIC cd6c0 0 WinSqmCommonDatapointSetDWORD
PUBLIC cd710 0 WinSqmCommonDatapointSetDWORD64
PUBLIC cd760 0 WinSqmCommonDatapointSetStreamEx
PUBLIC cd990 0 WinSqmCommonDatapointSetString
PUBLIC cda78 0 WinSqmEscalationManagerRelease
PUBLIC cdaa0 0 WinSqmGetEscalationRuleStatus
PUBLIC cdb5c 0 WinSqmLogEscalationStream
PUBLIC cdc30 0 WinSqmSetDWORD64
PUBLIC cdde0 0 WinSqmSetIfMinDWORD
PUBLIC cde00 0 WinSqmStartSessionForPartner
PUBLIC cde0c 0 WinSqmCommonDatapointSet
PUBLIC ce040 0 WinSqmEscalationCallback
PUBLIC ce1f0 0 CheckEscalationForDWORD64Data
PUBLIC ce3c4 0 CheckEscalationForDWORDData
PUBLIC ce64c 0 CheckEscalationForStringData
PUBLIC ce888 0 CreateEscalationManager
PUBLIC ce9b0 0 GetEscalationRule
PUBLIC cea24 0 GetInstrumentationProperty
PUBLIC cebdc 0 IsTimeExpired
PUBLIC cec34 0 IsValidPointer
PUBLIC cec68 0 OffsetToPointer
PUBLIC cec8c 0 ReleaseEscalationManager
PUBLIC ced00 0 AitFireParentUsageEvent
PUBLIC cee70 0 SbtDisableForCurrentProcess
PUBLIC ceeb0 0 SbtLogExeInitializing
PUBLIC ceef0 0 SbtLogSystemUsageByDll
PUBLIC cf0d0 0 SbtLogSystemUsageByExe
PUBLIC cf220 0 RtlWnfCompareChangeStamp
PUBLIC cf238 0 RtlpWnfCalculateAndSetNextTimer
PUBLIC cf310 0 RtlpWnfETWEventCallback
PUBLIC cf3a0 0 RtlpWnfETWEventNameSubRundown
PUBLIC cf40c 0 RtlpWnfETWEventPublish
PUBLIC cf478 0 RtlpWnfETWEventSubscribe
PUBLIC cf500 0 RtlpWnfETWEventUnsubscribe
PUBLIC cf588 0 RtlpWnfMarkFailure
PUBLIC cf660 0 RtlpWnfRetryTimerCallback
PUBLIC cf7c0 0 LdrRemoveDllDirectory
PUBLIC cf8a0 0 LdrSetDefaultDllDirectories
PUBLIC cf8e0 0 LdrSetDllDirectory
PUBLIC cfa04 0 LdrpGetDllPath
PUBLIC cfba4 0 RtlUnicodeStringCatString
FUNC cfc48 62 0 RtlWideCharArrayCopyStringWorker
PUBLIC cfcb0 0 RtlpAllocateDirPrefixBlock
PUBLIC cfcf8 0 RtlpEnsureTailingSlashAndAddToList
PUBLIC cfd90 0 RtlpLookupSafeCurDirList
PUBLIC d00cc 0 RtlpSignalSystemDirsModification
FUNC d018c 1a4 0 sxsisol_ExpandEnvironmentStrings_UEx
FUNC d0330 1b 0 `sxsisol_ExpandEnvironmentStrings_UEx'::`1'::fin$0
FUNC d0354 15d 0 sxsisol_RespectDotLocal
PUBLIC d04c0 0 RtlZombifyActivationContext
PUBLIC d0548 0 RtlpEnsureLiveDeadListsInitialized
FUNC d05b4 21 0 RtlpEnsureLiveDeadListsInitialized$fin$0
PUBLIC d05dc 0 RtlpMoveActCtxToFreeList
FUNC d06ea 21 0 RtlpMoveActCtxToFreeList$fin$0
PUBLIC d0714 0 RtlpPlaceActivationContextOnLiveList
FUNC d077e 21 0 RtlpPlaceActivationContextOnLiveList$fin$0
PUBLIC d07b0 0 RtlIsActivationContextActive
PUBLIC d07e0 0 ARRAY_FITS
PUBLIC d081c 0 RtlpQueryAssemblyInformationActivationContextDetailedInformation
PUBLIC d0aac 0 RtlpQueryFilesInAssemblyInformationActivationContextDetailedInformation
PUBLIC d0d34 0 RtlpQueryInformationActivationContextManifestResourceName
PUBLIC d0df0 0 RtlpGetAssemblyStorageMapRootLocation
PUBLIC d0fcc 0 long InsertModuleFunctions<struct _IMAGE_THUNK_DATA32,unsigned long,-2147483648>(struct _IMPORTTABLEP_IMPORTTABLEP_SORTED_LIST_ENTRY *,void *,struct _IMAGE_NT_HEADERS64*,struct _IMAGE_IMPORT_DESCRIPTOR & const *)
PUBLIC d108c 0 long InsertModuleFunctions<struct _IMAGE_THUNK_DATA64,uint64_t,0>(struct _IMPORTTABLEP_IMPORTTABLEP_SORTED_LIST_ENTRY *,void *,struct _IMAGE_NT_HEADERS64*,struct _IMAGE_IMPORT_DESCRIPTOR & const *)
PUBLIC d115c 0 ImportTablepHashCanonicalLists
PUBLIC d1244 0 ImportTablepInsertFunctionSorted
PUBLIC d12c4 0 ImportTablepInsertModuleSorted
PUBLIC d1350 0 RtlComputeImportTableHash
PUBLIC d1610 0 AlpcGetCompletionListLastMessageInformation
PUBLIC d1630 0 AlpcGetCompletionListMessageAttributes
PUBLIC d1670 0 DbgPrintReturnControlC
PUBLIC d16c0 0 DbgPrompt
PUBLIC d1700 0 DbgQueryDebugFilterState
PUBLIC d1710 0 DbgSetDebugFilterState
PUBLIC d1720 0 vDbgPrintEx
PUBLIC d1750 0 vDbgPrintExWithPrefix
PUBLIC d1780 0 RtlDeleteGrowableFunctionTable
PUBLIC d18f0 0 RtlGetFunctionTableListHead
PUBLIC d1900 0 RtlGrowFunctionTable
PUBLIC d19e0 0 RtlLookupFunctionTable
PUBLIC d1a60 0 LdrEnumResources
PUBLIC d1d10 0 LdrFindResourceDirectory_U
PUBLIC d1d30 0 LdrGetFileNameFromLoadAsDataTable
PUBLIC d1d78 0 LdrpCMFAddToStanbyQueue
PUBLIC d1e24 0 LdrpCMFRemoveFromStandbyQueue
PUBLIC d1e8c 0 LdrpCnvrtShortToLongFileName
PUBLIC d20bc 0 LdrpGetAlternateResourceModuleHandleEx
FUNC d2231 1b 0 LdrpGetAlternateResourceModuleHandleEx$fin$0
PUBLIC d2254 0 LdrpGetMappingFromCacheEntry
PUBLIC d2324 0 LdrpMUIEtwOutput
PUBLIC d24c8 0 LdrpSpecialCacheTypeHandle
PUBLIC d25cc 0 LdrpTraceLoadMUIDll
PUBLIC d26a0 0 LdrpUnmapCMFSegment
PUBLIC d26d0 0 LdrpUnmapCMFSegmentIfUnreferenced
PUBLIC d2750 0 RtlOpenImageFileOptionsKey
PUBLIC d275c 0 RtlOpenModernAppOptionsKey
PUBLIC d27f0 0 RtlValidProcessProtection
PUBLIC d2840 0 LdrProcessRelocationBlock
PUBLIC d2870 0 LdrProcessRelocationBlockEx
PUBLIC d287c 0 LdrpArmProcessRelocation
PUBLIC d294c 0 LdrpThumbProcessRelocation
PUBLIC d2ad0 0 RtlQueryModuleInformation
PUBLIC d2d60 0 LdrResRelease
PUBLIC d2ed0 0 LdrpResFileSize
PUBLIC d2fbc 0 LdrpResMapFile
PUBLIC d3294 0 LdrpResReadFile
PUBLIC d3350 0 LdrpResSearchResourceHandle
PUBLIC d3988 0 LdrpResSetFilePointer
PUBLIC d39cc 0 LdrpResValidateFileHandle
PUBLIC d3a28 0 LdrpResValidateFilePath
PUBLIC d3ba0 0 RtlCustomCPToUnicodeN
PUBLIC d3e00 0 RtlInitNlsTables
PUBLIC d3e70 0 RtlResetRtlTranslations
PUBLIC d4070 0 RtlUnicodeToCustomCPN
PUBLIC d4290 0 RtlUpcaseUnicodeToCustomCPN
PUBLIC d4aa0 0 RtlGetTickCount
PUBLIC d4ac0 0 RtlSecondsSince1980ToTime
PUBLIC d4ae8 0 CompareNamesCaseSensitive
PUBLIC d4c70 0 ComputeNameLength
PUBLIC d4d00 0 PfxFindPrefix
PUBLIC d4de0 0 PfxInitialize
PUBLIC d4e00 0 PfxInsertPrefix
PUBLIC d4f20 0 PfxRemovePrefix
PUBLIC d4fd0 0 RtlAllocateAndInitializeSidEx
PUBLIC d50a0 0 RtlAreAnyAccessesGranted
PUBLIC d50b0 0 RtlCopyLuidAndAttributesArray
PUBLIC d50f0 0 RtlCopySidAndAttributesArray
PUBLIC d51b0 0 RtlEqualLuid
PUBLIC d51d0 0 RtlGetAppContainerParent
PUBLIC d52c0 0 RtlGetAppContainerSidType
PUBLIC d5370 0 RtlIsParentOfChildAppContainer
PUBLIC d53f0 0 RtlIsUntrustedObject
PUBLIC d5580 0 RtlReplaceSidInSd
PUBLIC d58a0 0 RtlSetAttributesSecurityDescriptor
PUBLIC d58d0 0 RtlSetSecurityDescriptorRMControl
PUBLIC d5900 0 RtlSidEqualLevel
PUBLIC d5990 0 RtlSidIsHigherLevel
PUBLIC d5a14 0 RtlStringCbLengthW
PUBLIC d5a7c 0 RtlStringCchPrintfW
PUBLIC d5af8 0 RtlpCompareAces
PUBLIC d5b40 0 RtlpCompareKnownAces
PUBLIC d5c9c 0 RtlpConvertAclToAutoInherit
PUBLIC d64a8 0 RtlpConvertToAutoInheritSecurityObject
PUBLIC d6a34 0 RtlpCreateServerAcl
PUBLIC d6c70 0 RtlpFilterSacl
PUBLIC d6de4 0 RtlpOpenThreadToken
PUBLIC d6e40 0 RtlpValidLabelSubjectContext
PUBLIC d6fa0 0 RtlpValidTrustSubjectContext
PUBLIC d6ff0 0 RtlAddCompoundAce
PUBLIC d7160 0 RtlAddResourceAttributeAce
PUBLIC d74b0 0 RtlAddScopedPolicyIDAce
PUBLIC d7630 0 RtlFindAceBySid
PUBLIC d7730 0 RtlSetInformationAcl
PUBLIC d7770 0 RtlpConvertAbsoluteToRelativeSecurityAttribute
PUBLIC d7b80 0 RtlpConvertRelativeToAbsoluteSecurityAttribute
PUBLIC d8254 0 RtlpIsAttributeAceInSacl
PUBLIC d8440 0 RtlpMergeSecurityAttributeInformation
PUBLIC d88c0 0 RtlpValidAttribute
PUBLIC d8a40 0 RtlpValidAttributeAce
PUBLIC d8ab4 0 RtlpValidAttributeInfo
PUBLIC d8b38 0 RtlpValidCompoundAce
PUBLIC d8bb4 0 RtlpValidRelativeAttribute
PUBLIC d8dd0 0 RtlDestroyAtomTable
PUBLIC d8e80 0 RtlEmptyAtomTable
PUBLIC d8f30 0 RtlPinAtomInAtomTable
PUBLIC d8ff0 0 RtlAddIntegrityLabelToBoundaryDescriptor
PUBLIC d9000 0 RtlZeroHeap
FUNC d94bc 1b 0 RtlZeroHeap$filt$0
FUNC d94d7 55 0 RtlZeroHeap$fin$1
PUBLIC d9534 0 RtlpCallInterceptRoutine
PUBLIC d958c 0 RtlpCheckBusyBlockTail
PUBLIC d97c8 0 RtlpHeapExceptionFilter
PUBLIC d97f0 0 RtlpSetupExtendedBlock
PUBLIC d99a0 0 RtlCreateMemoryBlockLookaside
PUBLIC d9b90 0 RtlDestroyMemoryBlockLookaside
PUBLIC d9bf0 0 RtlExtendMemoryBlockLookaside
PUBLIC d9c00 0 RtlLockMemoryBlockLookaside
PUBLIC d9c80 0 RtlResetMemoryBlockLookaside
PUBLIC d9ce0 0 RtlUnlockMemoryBlockLookaside
PUBLIC d9d3c 0 RtlpRegisterLockedMemoryBlockLookaside
PUBLIC d9de0 0 RtlpUnregisterLockedMemoryBlockLookaside
PUBLIC d9e40 0 RtlCreateMemoryZone
PUBLIC d9ef0 0 RtlDestroyMemoryZone
PUBLIC d9f50 0 RtlExtendMemoryZone
PUBLIC da050 0 RtlLockMemoryZone
PUBLIC da150 0 RtlResetMemoryZone
PUBLIC da1a0 0 RtlUnlockMemoryZone
PUBLIC da230 0 RtlpRegisterLockedMemoryZone
PUBLIC da2d4 0 RtlpUnregisterLockedMemoryZone
PUBLIC da310 0 RtlDowncaseUnicodeChar
PUBLIC da370 0 RtlUnicodeStringToCountedOemString
FUNC da4a0 49 0 RtlUnicodeStringToCountedOemString$fin$0
PUBLIC da4f0 0 RtlUpcaseUnicodeStringToAnsiString
FUNC da5ef 49 0 RtlUpcaseUnicodeStringToAnsiString$fin$0
PUBLIC da640 0 RtlUpcaseUnicodeStringToCountedOemString
FUNC da770 49 0 RtlUpcaseUnicodeStringToCountedOemString$fin$0
PUBLIC m da7c0 0 RtlxAnsiStringToUnicodeSize
PUBLIC m da7f0 0 RtlxUnicodeStringToAnsiSize
PUBLIC da820 0 RtlAppendAsciizToString
PUBLIC da890 0 RtlAppendStringToString
PUBLIC da8f0 0 RtlUpperString
PUBLIC da950 0 RtlAreBitsClear
PUBLIC daa10 0 RtlClearBit
PUBLIC daa20 0 RtlCopyBitMap
PUBLIC dac20 0 RtlExtractBitMap
PUBLIC dadc0 0 RtlFindClearRuns
PUBLIC db090 0 RtlFindLastBackwardRunClear
PUBLIC db170 0 RtlFindLongestRunClear
PUBLIC db1b0 0 RtlFindSetBitsAndClear
PUBLIC db520 0 RtlInterlockedSetBitRun
PUBLIC db5e0 0 RtlNumberOfClearBits
PUBLIC db600 0 RtlNumberOfClearBitsInRange
PUBLIC db630 0 RtlNumberOfSetBits
PUBLIC db7d0 0 RtlNumberOfSetBitsInRange
PUBLIC dba4c 0 RtlpCopyBitMapTailToHead
PUBLIC dbc00 0 RtlAssert
PUBLIC dbd20 0 RtlBarrier
PUBLIC dbe50 0 RtlBarrierForDelete
PUBLIC dbfa0 0 RtlDeleteBarrier
PUBLIC dbff0 0 RtlInitBarrier
PUBLIC dc0c0 0 RtlGetCallersAddress
PUBLIC dc120 0 RtlInt64ToUnicodeString
PUBLIC dc1c0 0 RtlLargeIntegerToUnicode
PUBLIC dc2b0 0 RtlSetPortableOperatingSystem
PUBLIC dc2f0 0 RtlCreateRegistryKey
PUBLIC dc330 0 RtlDeleteRegistryValue
PUBLIC dc3a0 0 RtlQueryDynamicTimeZoneInformation
PUBLIC dc3b0 0 RtlSetDynamicTimeZoneInformation
PUBLIC dc3c0 0 RtlSetTimeZoneInformation
PUBLIC dc3d0 0 RtlpQueryTimeZoneKeyNameRoutine
PUBLIC dc458 0 RtlpSetTimeZoneInformationWorker
PUBLIC dc734 0 LdrpCreateKey
PUBLIC dc790 0 LdrpGetMUILangConfigNode
PUBLIC dc854 0 LdrpMergeParentBaseLanguagesToList
PUBLIC dca20 0 RtlConvertLCIDToString
PUBLIC dcb30 0 RtlGetProcessPreferredUILanguages
PUBLIC dcc30 0 RtlGetThreadLangIdByIndex
PUBLIC dcd00 0 RtlGetUILanguageInfo
PUBLIC dd188 0 RtlStringCchCatW
PUBLIC dd208 0 RtlStringCchCopyExW
PUBLIC dd2dc 0 RtlStringCchCopyW
FUNC dd328 70 0 RtlStringCopyWorkerW
PUBLIC dd3a0 0 RtlUnicodeStringToLcid
PUBLIC dd4a8 0 RtlpAddLanguagesToMultiSZ
PUBLIC dd7cc 0 RtlpAutoCompleteLanguageFallback
PUBLIC dd920 0 RtlpCleanupRegistryKeys
PUBLIC ddd4c 0 RtlpCompareConfigNodeWithSpec
PUBLIC dddf0 0 RtlpConvertCultureNamesToLCIDs
PUBLIC de010 0 RtlpConvertLCIDsToCultureNames
PUBLIC de238 0 RtlpGetCompleteLanguageFallback
PUBLIC de390 0 RtlpGetDefaultLanguageBaseOrParent
PUBLIC de590 0 RtlpGetMultiStringLength
PUBLIC de600 0 RtlpMUIEnumerateFolder
PUBLIC de9a0 0 RtlpMUIGetAllInstalledLang
PUBLIC dea98 0 RtlpMuiRegGetLanginfoTypeNSpec
PUBLIC deb00 0 RtlpSetInstallLanguage
PUBLIC defac 0 RtlpSetMachineUILanguagesImmediate
PUBLIC df120 0 RtlpSetPreferredUILanguages
FUNC dfd88 37 0 MuiRegAllocArray
PUBLIC dfdd0 0 RtlCmDecodeMemIoResource
PUBLIC dfe40 0 RtlCmEncodeMemIoResource
PUBLIC dff30 0 RtlFindClosestEncodableLength
PUBLIC dffe0 0 RtlIoDecodeMemIoResource
PUBLIC e0080 0 RtlIoEncodeMemIoResource
PUBLIC e0240 0 RtlEnumProcessHeaps
PUBLIC e0250 0 RtlInitializeHeapManager
PUBLIC e0324 0 RtlLockHeapManagerForCloning
PUBLIC e0400 0 RtlMultipleAllocateHeap
PUBLIC e0480 0 RtlMultipleFreeHeap
PUBLIC e04f0 0 RtlQueryHeapInformation
PUBLIC e05d0 0 RtlQueryTagHeap
FUNC e0762 27 0 RtlQueryTagHeap$fin$0
PUBLIC e0790 0 RtlSetHeapDebuggingInformation
PUBLIC e0850 0 RtlSetHeapInformation
PUBLIC e0970 0 RtlSetUserFlagsHeap
FUNC e0bd8 1b 0 RtlSetUserFlagsHeap$filt$0
FUNC e0bf3 46 0 RtlSetUserFlagsHeap$fin$1
PUBLIC e0c40 0 RtlUnlockHeapManagerForCloning
PUBLIC e0d60 0 RtlValidateProcessHeaps
PUBLIC e0e70 0 RtlWalkHeap
PUBLIC e0e80 0 RtlpAllocateTags
PUBLIC e1040 0 RtlpExtendedHeapInformationGenerator
PUBLIC e13d0 0 RtlpExtendedHeapInformationWorkerCallback
PUBLIC e14e0 0 RtlpExtendedHeapInformationWorkerThread
PUBLIC e15f0 0 RtlpGetContainingRange
PUBLIC e16fc 0 RtlpGetExtraStuffPointerUnsafe
PUBLIC e174c 0 RtlpGetHeapWalkEntryOverheadBytes
PUBLIC e1764 0 RtlpGetTagName
PUBLIC e1870 0 RtlpHeapQueryTotalReserveSize
PUBLIC e18b0 0 RtlpLockUlockAllHeapsCallback
PUBLIC e18d4 0 RtlpQueryExtendedHeapInformation
PUBLIC e1f4c 0 RtlpQueryExtendedInformationAllHeaps
PUBLIC e2090 0 RtlpQueryExtendedInformationHeap
PUBLIC e2748 0 RtlpQueryMemoryUsageHeap
PUBLIC e2840 0 RtlpSetHeapDebuggingInformation
PUBLIC e2914 0 RtlpSetHeapWalkEntryOverheadBytes
PUBLIC e2928 0 RtlpSetRequestedFrontEndHeap
FUNC e29d0 32 0 RtlpSetRequestedFrontEndHeap$fin$0
PUBLIC e2a08 0 RtlpUnlockHeapManagerForCloning
PUBLIC e2b24 0 RtlpUpdateTagEntry
PUBLIC e2d2c 0 RtlpWalkHeap
PUBLIC e35f0 0 RtlCompareAltitudes
PUBLIC e37f0 0 RtlDecompressFragment
PUBLIC e3894 0 ChkSum
PUBLIC e38c4 0 LdrVerifyMappedImageMatchesChecksum
PUBLIC e3990 0 RtlCreateHashTableEx
PUBLIC e39a0 0 RtlEndWeakEnumerationHashTable
PUBLIC e39b0 0 RtlExpandHashTable
PUBLIC e3b90 0 RtlInitWeakEnumerationHashTable
PUBLIC e3ba0 0 RtlWeaklyEnumerateEntryHashTable
PUBLIC e3bb0 0 RtlCopyContext
PUBLIC e3cf0 0 RtlGetExtendedFeaturesMask
PUBLIC e3d10 0 RtlLocateExtendedFeature
PUBLIC e3d70 0 RtlSetExtendedFeaturesMask
PUBLIC e3d9c 0 RtlpCopyLegacyContextAmd64
PUBLIC e4050 0 RtlpCopyLegacyContextArm
PUBLIC e42a0 0 RtlpLocateXStateChunk
PUBLIC e42c8 0 RtlpCopyMappedMemoryEx_ExceptionFilter
PUBLIC e4350 0 RtlCrc32
PUBLIC e4370 0 RtlCrc64
PUBLIC e4384 0 RtlpComputeCrcInternal
PUBLIC e4740 0 RtlCreateBootStatusDataFile
PUBLIC e4900 0 RtlCreateUmsCompletionList
FUNC e49dd 36 0 RtlCreateUmsCompletionList$fin$0
PUBLIC e4a20 0 RtlCreateUmsThreadContext
FUNC e4aea 36 0 RtlCreateUmsThreadContext$fin$0
PUBLIC e4b30 0 RtlDeleteUmsCompletionList
FUNC e4b6b 10 0 RtlDeleteUmsCompletionList$fin$0
PUBLIC e4b90 0 RtlDeleteUmsThreadContext
FUNC e4bd0 10 0 RtlDeleteUmsThreadContext$fin$0
PUBLIC e4bf0 0 RtlDequeueUmsCompletionListItems
PUBLIC e4c80 0 RtlEnterUmsSchedulingMode
FUNC e4d1a 34 0 RtlEnterUmsSchedulingMode$filt$0
PUBLIC e4d60 0 RtlExecuteUmsThread
PUBLIC e4f00 0 RtlGetNextUmsListItem
FUNC e4f19 8 0 RtlGetNextUmsListItem$fin$0
PUBLIC e4f30 0 RtlGetUmsCompletionListEvent
PUBLIC e4f90 0 RtlQueryUmsThreadInformation
PUBLIC e5040 0 RtlSetUmsThreadInformation
PUBLIC e5080 0 RtlUmsThreadYield
PUBLIC e5100 0 RtlpAttachThreadToUmsCompletionList
PUBLIC e51d4 0 RtlpDetachThreadFromUmsCompletionList
PUBLIC e5240 0 RtlRealPredecessor
PUBLIC e5290 0 RtlSubtreeSuccessor
PUBLIC e52c0 0 RtlEnumerateGenericTableLikeADirectory
PUBLIC e53f0 0 RtlGetElementGenericTableAvl
PUBLIC e5510 0 RtlIsGenericTableEmptyAvl
PUBLIC e5520 0 RtlLookupFirstMatchingElementGenericTableAvl
PUBLIC e55b0 0 RtlDeregisterSecureMemoryCacheCallback
PUBLIC e5660 0 RtlFlushSecureMemoryCache
PUBLIC e56d0 0 RtlRegisterSecureMemoryCacheCallback
PUBLIC e5780 0 RtlpCallSecureMemoryCallbacks
PUBLIC e58ec 0 RtlpDumpEntryFlagDescription
PUBLIC e5994 0 RtlpDumpEntryInfo
PUBLIC e5a40 0 RtlpGetBlockInfo
PUBLIC e5a88 0 RtlpGetHeapBlock
PUBLIC e5b1c 0 RtlpGetMemoryFlag
PUBLIC e5b80 0 RtlpInitializeLeakDetection
PUBLIC e5c24 0 RtlpInitializeMap
PUBLIC e5c70 0 RtlpLeakCallbackRoutine
PUBLIC e5de4 0 RtlpPushPageDescriptor
PUBLIC e5f4c 0 RtlpReadProcessHeaps
PUBLIC e5fc8 0 RtlpScanHeapAllocBlocks
PUBLIC e6238 0 RtlpScanProcessVirtualMemory
PUBLIC e63a0 0 RtlpSetBlockInfo
PUBLIC e6530 0 RtlEthernetAddressToStringA
PUBLIC e65a0 0 RtlIpv4AddressToStringExA
PUBLIC e6660 0 RtlIpv6AddressToStringExA
PUBLIC e6790 0 RtlEthernetAddressToStringW
PUBLIC e6800 0 RtlEthernetStringToAddressA
PUBLIC e6940 0 RtlIpv4StringToAddressExA
PUBLIC e6b20 0 RtlEthernetStringToAddressW
PUBLIC e6c60 0 RtlFormatMessage
FUNC e6cb8 24 0 RtlStringExHandleFillBehindNullW
PUBLIC e6ce4 0 GetNextWchar
PUBLIC e6de0 0 RtlComputeLfnChecksum
PUBLIC e6e40 0 RtlGenerate8dot3Name
PUBLIC e72c0 0 RtlIsNameLegalDOS8Dot3
PUBLIC e748c 0 RtlIsValidOemCharacter
PUBLIC e75c0 0 RtlIsValidLocaleName
PUBLIC e766c 0 RtlpGetAlternateCodePage
PUBLIC e7710 0 RtlpGetCustomCultureData
PUBLIC e7788 0 RtlpGetCustomCultureDataFromFile
PUBLIC e789c 0 RtlpGetFileSize
PUBLIC e78f8 0 RtlpGetLocaleDataKey
PUBLIC e79a0 0 RtlpGetUserLocaleName
PUBLIC e7a7c 0 RtlpIsCustomLocale
PUBLIC e7b6c 0 RtlpMatchUILanguage
PUBLIC e7c4c 0 RtlpMatchUserLanguage
PUBLIC e7ce8 0 RtlpOpenAndMapCustomCultureFile
PUBLIC e7ed0 0 RtlHeapTrkInitialize
FUNC e8274 13d 0 RtlpHeapTrkAllocCacheAligned
FUNC e83b8 99 0 RtlpHeapTrkDereferenceStack
FUNC e8458 185 0 RtlpHeapTrkDumpOutstandingAllocs
FUNC e85e4 153 0 RtlpHeapTrkDumpStacks
FUNC e8740 76 0 RtlpHeapTrkFindStack
FUNC e87bc 6c 0 RtlpHeapTrkGenerateHashRandoms
FUNC e8830 9e 0 RtlpHeapTrkHash
PUBLIC e88e0 0 RtlpHeapTrkInterceptor
PUBLIC e8ab0 0 RtlpHeapTrkLeakCallback
FUNC e8ca8 105 0 RtlpHeapTrkReportResult
FUNC e8db4 82 0 RtlpHeapTrkSyncWithDiagnoser
FUNC e8e3c d2 0 RtlpHeapTrkTrackAdd
FUNC e8f14 e3 0 RtlpHeapTrkTrackRemove
FUNC e9000 140 0 RtlpHeapTrkTrackRemoveHeap
FUNC e9148 1b1 0 RtlpHeapTrkTrackStack
PUBLIC e9300 0 FindEmailAt
PUBLIC e9330 0 GetUTF32
PUBLIC e9360 0 InsertChar
PUBLIC e9390 0 RtlIdnToNameprepUnicode
PUBLIC e93b4 0 adapt
PUBLIC e9430 0 RtlImageNtHeaderEx_ExceptionFilter
PUBLIC e9450 0 RtlInitializeContext
PUBLIC e9580 0 RtlRemoteCall
PUBLIC e96f0 0 RtlInterlockedPushListSListEx
PUBLIC e96fc 0 RtlDoesNameContainWildCards
PUBLIC e9750 0 RtlIsNameInExpression
FUNC e97cb 21 0 RtlIsNameInExpression$fin$0
PUBLIC e97f4 0 RtlpIsNameInExpressionPrivate
PUBLIC e9d34 0 RtlpUpcaseUnicodeStringPrivate
FUNC e9e25 40 0 RtlpUpcaseUnicodeStringPrivate$fin$0
PUBLIC e9e6c 0 CanComposeHangul
PUBLIC e9eb4 0 ComposeHangulLV
PUBLIC e9ee4 0 ComposeHangulLVT
PUBLIC e9f20 0 IsHangulLV
PUBLIC e9f5c 0 NormBuffer__AppendAndSortDecomposed
PUBLIC e9fe0 0 NormBuffer__GetCurrentOutputChar
PUBLIC ea038 0 NormBuffer__GetLastChar
PUBLIC ea0d0 0 NormBuffer__Insert
PUBLIC ea1a4 0 NormBuffer__InsertAtBlockedLocation
PUBLIC ea1d4 0 NormBuffer__IsBlocked
PUBLIC ea284 0 NormBuffer__LastStartBase
PUBLIC ea2b4 0 NormBuffer__LastStartBasePair
PUBLIC ea304 0 NormBuffer__RecheckStartCombinations
PUBLIC ea484 0 NormBuffer__ReplaceLastStartBase
PUBLIC ea4fc 0 NormBuffer__ReplaceLastStartBasePair
PUBLIC ea5bc 0 NormBuffer__RewindOutputCharacter
PUBLIC ea604 0 NormBuffer__SortBeforeSameClass
PUBLIC ea6c4 0 Normalization__CanCombinableCharactersCombine
PUBLIC ea814 0 Normalization__CanCombineWithStartBase
PUBLIC ea860 0 Normalization__CanCombineWithStartFirstPair
PUBLIC ea8d8 0 Normalization__GetFirstDecomposedCharPlane0
PUBLIC ea944 0 Normalization__GetLastChar
PUBLIC eaa18 0 Normalization__GetSecondAndThirdDecomposedCharPlane0
PUBLIC eaae4 0 Normalization__GetSecondDecomposedCharPlane0
PUBLIC eab58 0 Normalization__GuessCharCountBySize
PUBLIC eab80 0 Normalization__IsNormalized
PUBLIC eb060 0 RtlIsNormalizedString
PUBLIC eb0e8 0 RtlInitializeExceptionLog
PUBLIC eb140 0 RtlKnownExceptionFilter
PUBLIC eb160 0 RtlUnhandledExceptionFilter
PUBLIC eb180 0 RtlUnhandledExceptionFilter2
PUBLIC eb530 0 RtlpLogExceptionDispatch
PUBLIC eb718 0 RtlpLogExceptionHandler
PUBLIC eb940 0 RtlLockCurrentThread
PUBLIC eba20 0 RtlUnlockCurrentThread
PUBLIC ebaac 0 RtlpLockStack
PUBLIC ebb20 0 RtlpUnlockStack
PUBLIC ebb80 0 RtlLockModuleSection
PUBLIC ebca0 0 RtlUnlockModuleSection
PUBLIC ebd48 0 RtlpLocateModuleSectionInLockedSectionList
PUBLIC ebd90 0 RtlpModuleEnumeratorCallback
PUBLIC ebe8c 0 RtlControlStackTraceDataBase
PUBLIC ebee0 0 RtlHeapsStackCollection
PUBLIC ebf40 0 RtlLogStackBackTrace
PUBLIC ebf50 0 RtlLogStackTrace
PUBLIC ebf70 0 RtlReleaseStackTrace
PUBLIC ebfa0 0 RtlStdDeleteStackDatabase
PUBLIC ebfe0 0 RtlStdInitializeStackDatabase
PUBLIC ec220 0 RtlStdLogStackTrace
PUBLIC ec280 0 RtlStdReleaseStackTrace
PUBLIC ec380 0 RtlpGetStackTraceAddress
PUBLIC ec390 0 RtlpInitializeStackTraceDatabase
PUBLIC ec400 0 RtlpStackTraceDatabaseHeapEnum
PUBLIC ec42c 0 RtlpStdExtendLowerWatermark
PUBLIC ec508 0 RtlpStdExtendUpperWatermark
PUBLIC ec5e4 0 RtlpStdGetRecordedStackTraceIndex
PUBLIC ec6ac 0 RtlpStdGetSpaceForTrace
PUBLIC ec760 0 RtlpStdLockAcquire
PUBLIC ec780 0 RtlpStdLockRelease
PUBLIC ec7a0 0 RtlpStdLogCapturedStackTrace
PUBLIC ec8f0 0 RtlUnwind
PUBLIC ec93c 0 RtlpTrivialFunction
PUBLIC ec994 0 RtlpUnwindEpilogue
PUBLIC ecb90 0 RtlpSetProtectedPolicy
PUBLIC ece40 0 RtlpSetProtectedPolicyStub
PUBLIC ece50 0 RtlQueryValidationRunlevel
PUBLIC ecf10 0 RtlRaiseStatus
PUBLIC ecfa0 0 RtlRandom
PUBLIC ed030 0 RtlpInitRandomExVector
PUBLIC ed110 0 RtlStackTraceHashFunction
PUBLIC ed160 0 RtlTraceDatabaseAdd
PUBLIC ed1e0 0 RtlTraceDatabaseCreate
PUBLIC ed310 0 RtlTraceDatabaseDestroy
PUBLIC ed390 0 RtlTraceDatabaseEnumerate
PUBLIC ed470 0 RtlTraceDatabaseFind
PUBLIC ed4f0 0 RtlTraceDatabaseLock
PUBLIC ed520 0 RtlTraceDatabaseUnlock
PUBLIC ed540 0 RtlTraceDatabaseValidate
PUBLIC ed594 0 RtlpTraceDatabaseAllocate
PUBLIC ed5e0 0 RtlpTraceDatabaseFree
PUBLIC ed618 0 RtlpTraceDatabaseInternalAdd
PUBLIC ed7c8 0 RtlpTraceDatabaseInternalFind
PUBLIC ed890 0 RtlWakeAddressAllNoFence
PUBLIC ed8a0 0 RtlWakeAddressSingle
PUBLIC ed8c0 0 RtlWakeAddressSingleNoFence
PUBLIC ed8d0 0 RtlpGetUserOrMachineUILanguage4NLS
PUBLIC edab0 0 RtlpGetWindowsPolicy
PUBLIC edbcc 0 RtlpHasMachineUILock
PUBLIC edc70 0 RtlpLoadMachineUIByPolicy
PUBLIC edd9c 0 RtlpLoadPolicyLanguageSpec
PUBLIC edf64 0 RtlpMuiRegAddAlternateCodePage
PUBLIC ee11c 0 RtlpMuiRegAddLanguageByName
PUBLIC ee1f4 0 RtlpMuiRegConfigListAddLanguage
PUBLIC ee344 0 RtlpMuiRegConfigMatchesInstalled
PUBLIC ee644 0 RtlpMuiRegConfigNodePopulate
PUBLIC ee764 0 RtlpMuiRegCreateLanguages
PUBLIC ee7c0 0 RtlpMuiRegCreateRegistryInfo
PUBLIC ee7f8 0 RtlpMuiRegCreateStringPool
PUBLIC ee898 0 RtlpMuiRegGetFallbackInstalledLanguageInfoByLangId
PUBLIC eea14 0 RtlpMuiRegGetFallbackLanguageInfoByIndex
PUBLIC eeb5c 0 RtlpMuiRegGetFallbackLanguageInfoByLangId
PUBLIC eed30 0 RtlpMuiRegGetFallbackLanguageInfoByName
PUBLIC eeec0 0 RtlpMuiRegGetFallbackLanguagesAsMultiSZ
PUBLIC eeff4 0 RtlpMuiRegGetInstalledLanguageInfoByIndex
PUBLIC ef114 0 RtlpMuiRegGetLangInfoIndex
PUBLIC ef24c 0 RtlpMuiRegGetOrAddLangInfo
PUBLIC ef34c 0 RtlpMuiRegGetString
PUBLIC ef3cc 0 RtlpMuiRegGrowLanguageList
PUBLIC ef3f4 0 RtlpMuiRegGrowStringPool
PUBLIC ef458 0 RtlpMuiRegLangInfoMatchesSpec
PUBLIC ef680 0 RtlpMuiRegLoadLicInformation
PUBLIC efbec 0 RtlpMuiRegResizeLanguageConfigList
PUBLIC efc54 0 RtlpMuiRegResizeLanguageList
PUBLIC efcc4 0 RtlpMuiRegResizeLanguages
PUBLIC efd2c 0 RtlpMuiRegResizeStringPool
PUBLIC efe28 0 RtlpMuiRegValidateConfigNode
PUBLIC efff0 0 RtlpRefreshCachedUILanguage
PUBLIC f00d8 0 ValidateRegistrLangType
PUBLIC f0144 0 RtlMuiRegAddLIPParent
PUBLIC f0324 0 RtlpMuiRegAddBaseLanguage
PUBLIC f066c 0 RtlpMuiRegInitAnyLanguage
PUBLIC f0738 0 RtlpMuiRegInitLIPLanguage
PUBLIC f0988 0 RtlpMuiRegInitPartialLanguage
FUNC f09e0 2d9 0 RtlpMuiRegLoadInstalled
PUBLIC f0cc0 0 RtlpMuiRegPopulateBaseLanguages
PUBLIC f1144 0 RtlpMuiRegValidateAndGetInstallFallbackBase
FUNC f11e8 3c0 0 RtlpMuiRegValidateInstalled
FUNC f15b0 23f 0 RtlpMuiRegValidateLIPLanguage
FUNC f17f8 146 0 RtlpMuiRegValidatePartialLanguage
PUBLIC f1944 0 RtlpRemovePendingDeleteLanguages
FUNC f1ab4 4b 0 SafeReallocBlob
PUBLIC f1b10 0 RtlpNtMakeTemporaryKey
PUBLIC f1b20 0 RtlpDebugPageHeapCreate
PUBLIC f1b90 0 RtlpDebugPageHeapDestroy
PUBLIC f1bc8 0 RtlpInitializeLfhBitmapData
PUBLIC f1c1c 0 RtlIsAnyDebuggerPresent
PUBLIC f1c44 0 RtlReportCriticalFailure
FUNC f1cf3 4b 0 RtlReportCriticalFailure$filt$0
PUBLIC f1d44 0 RtlpCreateExecutionRequiredRequest
PUBLIC f1e2c 0 RtlpDestroyExecutionRequiredRequest
PUBLIC f1e54 0 RtlpSetClearExecutionRequiredRequest
PUBLIC f1e94 0 RtlDebugAllocateHeap
FUNC f2224 1b 0 RtlDebugAllocateHeap$filt$0
FUNC f223f 27 0 RtlDebugAllocateHeap$fin$1
PUBLIC f226c 0 RtlDebugCompactHeap
FUNC f237a 1b 0 RtlDebugCompactHeap$filt$0
FUNC f2395 27 0 RtlDebugCompactHeap$fin$1
PUBLIC f23c4 0 RtlDebugCreateHeap
PUBLIC f26b8 0 RtlDebugCreateTagHeap
FUNC f27ae 1b 0 RtlDebugCreateTagHeap$filt$0
FUNC f27c9 27 0 RtlDebugCreateTagHeap$fin$1
PUBLIC f27f8 0 RtlDebugDestroyHeap
PUBLIC f28b8 0 RtlDebugFreeHeap
FUNC f2b79 1b 0 RtlDebugFreeHeap$filt$0
FUNC f2b94 27 0 RtlDebugFreeHeap$fin$1
PUBLIC f2bc4 0 RtlDebugGetUserInfoHeap
FUNC f2d25 1b 0 RtlDebugGetUserInfoHeap$filt$0
FUNC f2d40 27 0 RtlDebugGetUserInfoHeap$fin$1
PUBLIC f2d70 0 RtlDebugQueryTagHeap
FUNC f2e6e 1b 0 RtlDebugQueryTagHeap$filt$0
FUNC f2e89 27 0 RtlDebugQueryTagHeap$fin$1
PUBLIC f2eb8 0 RtlDebugReAllocateHeap
FUNC f33dd 1b 0 RtlDebugReAllocateHeap$filt$0
FUNC f33f8 27 0 RtlDebugReAllocateHeap$fin$1
PUBLIC f3428 0 RtlDebugSetUserFlagsHeap
FUNC f35b6 1b 0 RtlDebugSetUserFlagsHeap$filt$0
FUNC f35d1 27 0 RtlDebugSetUserFlagsHeap$fin$1
PUBLIC f3600 0 RtlDebugSetUserValueHeap
FUNC f374e 1b 0 RtlDebugSetUserValueHeap$filt$0
FUNC f3769 27 0 RtlDebugSetUserValueHeap$fin$1
PUBLIC f3798 0 RtlDebugSizeHeap
FUNC f38dc 1b 0 RtlDebugSizeHeap$filt$0
FUNC f38f7 27 0 RtlDebugSizeHeap$fin$1
PUBLIC f3924 0 RtlDebugWalkHeap
FUNC f398c 1b 0 RtlDebugWalkHeap$filt$0
PUBLIC f39b0 0 RtlDebugZeroHeap
FUNC f3a8a 1b 0 RtlDebugZeroHeap$filt$0
FUNC f3aa5 27 0 RtlDebugZeroHeap$fin$1
PUBLIC f3ad4 0 RtlpBreakPointHeap
PUBLIC f3b00 0 RtlpValidateHeap
PUBLIC f40fc 0 RtlpValidateHeapHeaders
PUBLIC f42b4 0 RtlpValidateHeapSegment
PUBLIC f4a50 0 GetUCBytes
PUBLIC f4ac8 0 RtlpAnalyzeHeapFailure
FUNC f4dee 1b 0 RtlpAnalyzeHeapFailure$filt$0
PUBLIC f4e10 0 RtlpEstimateAllocatedSize
PUBLIC f4e50 0 RtlpGetHeapInterceptorIndex
PUBLIC f4e88 0 RtlpGetModifiedProcessCookie
PUBLIC f4f00 0 RtlpHeapHandleError
PUBLIC f4f20 0 RtlpHeapLogRangeCreate
PUBLIC f4fa8 0 RtlpHeapLogRangeDestroy
PUBLIC f501c 0 RtlpHeapLogRangeRelease
PUBLIC f50a4 0 RtlpHeapLogRangeReserve
PUBLIC f512c 0 RtlpInitializeStackTraceLog
PUBLIC f52dc 0 RtlpLocateRelatedBlocks
PUBLIC f55a8 0 RtlpLogHeapAffinityManagerEnable
PUBLIC f562c 0 RtlpLogHeapAffinitySlotAssign
PUBLIC f56b4 0 RtlpLogHeapAllocateEvent
PUBLIC f5718 0 RtlpLogHeapCommit
PUBLIC f57a8 0 RtlpLogHeapContractEvent
PUBLIC f5860 0 RtlpLogHeapCreateEvent
PUBLIC f58d8 0 RtlpLogHeapDecommit
PUBLIC f5968 0 RtlpLogHeapDestroyEvent
PUBLIC f59c0 0 RtlpLogHeapExtendEvent
PUBLIC f5a6c 0 RtlpLogHeapFailure
FUNC f5b26 1b 0 RtlpLogHeapFailure$filt$0
PUBLIC f5b48 0 RtlpLogHeapFreeEvent
PUBLIC f5ba8 0 RtlpLogHeapReuseThresholdActivate
PUBLIC f5c30 0 RtlpLogHeapSubSegmentActivate
PUBLIC f5cb8 0 RtlpLogHeapSubSegmentAlloc
PUBLIC f5d48 0 RtlpLogHeapSubSegmentAllocCached
PUBLIC f5dd8 0 RtlpLogHeapSubSegmentFree
PUBLIC f5e68 0 RtlpLogHeapSubSegmentFreeCached
PUBLIC f5ef8 0 RtlpLogHeapSubSegmentInitialize
PUBLIC f5f9c 0 RtlpPrintErrorInformation
PUBLIC f62f8 0 RtlpRegisterStackTrace
PUBLIC f64bc 0 RtlpReportHeapFailure
PUBLIC f6510 0 RtlpStackTraceDatabaseLogPrefix
PUBLIC f6590 0 RtlpStackTracePrefix
PUBLIC f6624 0 RtlSetLFHDebuggingInformation
PUBLIC f6678 0 RtlpGetFirstBlockAddress
PUBLIC f66fc 0 RtlpGetLowFragHeapMetadataSize
PUBLIC f673c 0 RtlpGetReservedBlockSize
PUBLIC f676c 0 RtlpInitializeLowFragHeapManager
PUBLIC f6830 0 RtlpIsLFHZoneAllocation
PUBLIC f6888 0 RtlpSubSegmentDebugInitialize
PUBLIC f6b34 0 RtlpValidateLFHBlock
FUNC f6b8f 1b 0 RtlpValidateLFHBlock$filt$0
PUBLIC f6bb0 0 RtlpWalkLFHBlock
PUBLIC f7194 0 RtlpWalkLowFragHeapSegment
PUBLIC f7210 0 LZNT1FindMatchMaximum
PUBLIC f7290 0 RtlDecompressFragmentLZNT1
PUBLIC f74b8 0 RtlCompressBufferXpressHuffMax
PUBLIC f7b50 0 RtlCompressBufferXpressLz
PUBLIC f7be8 0 RtlCompressBufferXpressLzMax
PUBLIC f81b0 0 RtlCompressBufferXpressLzStandard
PUBLIC f87e0 0 RtlCompressWorkSpaceSizeXpressLz
PUBLIC f8820 0 RtlDecompressBufferXpressLz
PUBLIC f8bf0 0 RtlpMakeXpressCallback
PUBLIC f8c50 0 RtlpLoadUmsDebugRegisterState
PUBLIC f8cb4 0 RtlpSaveUmsDebugRegisterState
PUBLIC f8d70 0 MD4Final
PUBLIC f8e40 0 MD4Init
PUBLIC f8e70 0 MD4Update
PUBLIC f9ec0 0 MD5Final
PUBLIC f9f90 0 MD5Init
PUBLIC f9fc0 0 MD5Update
PUBLIC fb870 0 EtwCreateTraceInstanceId
PUBLIC fb8d0 0 EtwpDisableTraceProviders
PUBLIC fba5c 0 EtwpGetNextRegistration
PUBLIC fbb70 0 EtwEnumerateProcessRegGuids
FUNC fbc71 23 0 EtwEnumerateProcessRegGuids$fin$0
PUBLIC fbca0 0 EtwEventSetInformation
PUBLIC fbd00 0 EtwEventWriteEx
PUBLIC fbd50 0 EtwEventWriteString
PUBLIC fbf80 0 EtwpSetProviderTraits
PUBLIC fc128 0 EtwpTrackProviderBinary
PUBLIC fc1fc 0 EtwpUpdatePrivateEnableInfo
PUBLIC fc2a8 0 EtwpUseDescriptorType
PUBLIC fc3a0 0 EtwSetMark
PUBLIC fc3d0 0 EtwTraceEventInstance
PUBLIC fc584 0 EtwpAddInstanceIdToLogFileName
PUBLIC fc668 0 EtwpAllocateFreeBuffers
PUBLIC fc7e0 0 EtwpAllocateTraceBufferPool
PUBLIC fc988 0 EtwpBufferingModeFlush
PUBLIC fcafc 0 EtwpCheckForEnoughStackSpace
FUNC fcb40 21 0 EtwpCheckForEnoughStackSpace$filt$0
PUBLIC fcb68 0 EtwpDequeueFreeBuffer
PUBLIC fcc40 0 EtwpFillProcessorStreamIndexMap
PUBLIC fcd70 0 EtwpFindAndLockBufferForFlushing
PUBLIC fcdd0 0 EtwpFlushActiveBuffers
PUBLIC fcf94 0 EtwpFlushBuffer
PUBLIC fd1dc 0 EtwpFlushUmLogger
PUBLIC fd308 0 EtwpFreeLoggerContext
PUBLIC fd510 0 EtwpFreeStreamIndexMap
PUBLIC fd550 0 EtwpGetNextAvaliableLoggerId
PUBLIC fd630 0 EtwpGetStackExtendedHeaderItem
PUBLIC fd6c0 0 EtwpGetUmLoggerInfoFromContext
PUBLIC fd778 0 EtwpGetUmProcessImageInfo
PUBLIC fd808 0 EtwpInitLoggerContext
PUBLIC fdcc4 0 EtwpIsPrivateLoggerOn
PUBLIC fdd30 0 EtwpLogger
PUBLIC fdf34 0 EtwpReleasePrivateBuffers
PUBLIC fdf94 0 EtwpRelogEvent
FUNC fe08a 18 0 EtwpRelogEvent$fin$0
PUBLIC fe0a8 0 EtwpReserveTraceBuffer
PUBLIC fe1d4 0 EtwpSendSessionNotification
PUBLIC fe294 0 EtwpStartUmLogger
PUBLIC fe660 0 EtwpStopLoggerInstance
PUBLIC fe6c8 0 EtwpSwitchBuffer
PUBLIC fe89c 0 EtwpSynchronizeWithLogger
PUBLIC fe8f0 0 EtwpTraceUmEvent
FUNC fec3b 18 0 EtwpTraceUmEvent$fin$0
FUNC fec53 26 0 EtwpTraceUmEvent$fin$1
PUBLIC fec80 0 EtwpTraceUmMessage
FUNC fefa0 18 0 EtwpTraceUmMessage$fin$0
FUNC fefb8 26 0 EtwpTraceUmMessage$fin$1
PUBLIC fefe4 0 EtwpTrackRegBinaryInfo
PUBLIC ff060 0 EtwpUpdateUmLogger
PUBLIC ff254 0 EtwpWaitForBufferReferenceCount
PUBLIC ff28c 0 EtwpWriteToPrivateBuffers
FUNC ffa7d 2e 0 EtwpWriteToPrivateBuffers$filt$0
PUBLIC ffac0 0 EtwReplyNotification
PUBLIC ffb0c 0 EtwpReceiveReplyDataBlock
PUBLIC ffccc 0 EtwpAddBinaryInfoEvents
PUBLIC ffe24 0 EtwpAddDebugInfoEvents
PUBLIC fff5c 0 EtwpAddEventToBuffer
PUBLIC fffcc 0 EtwpAddLogHeaderToLogFile
PUBLIC 10070c 0 EtwpAddProviderTrackingInfo
PUBLIC 1007a0 0 EtwpCreateEtwThread
PUBLIC 100814 0 EtwpCreateFile
PUBLIC 1009b0 0 EtwpFinalizeLogFileHeader
PUBLIC 100c80 0 EtwpFinalizeRelogFileHeaderStats
PUBLIC 100d6c 0 EtwpGenerateFileName
PUBLIC 100e68 0 EtwpGetTimeZoneInformation
PUBLIC 101020 0 EvtIntReportAuthzEventAndSourceAsync
PUBLIC 101090 0 EtwpAddProviderToSession
PUBLIC 101168 0 EtwpAddWinRtProviderToSession
PUBLIC 101348 0 EtwpFindDebugId
PUBLIC 101408 0 EtwpProviderArrivalCallback
PUBLIC 101508 0 EtwpQueryRegString
PUBLIC 10164c 0 EtwpInitializeCompression
PUBLIC 1016e0 0 EtwpShutdownCompression
PUBLIC 10173c 0 EtwpWriteBufferCompressed
PUBLIC 101990 0 EtwpWriteRemainingCompressedData
PUBLIC 101a50 0 TppIopCancelPendingCallbacks
PUBLIC 101ab0 0 TpAllocJobNotification
PUBLIC 101ce0 0 TpReleaseJobNotification
PUBLIC 101d50 0 TpWaitForJobNotification
PUBLIC 101d90 0 TppJobpCallbackEpilog
PUBLIC 101dd0 0 TppJobpExecuteCallback
PUBLIC 101f90 0 TppJobpFree
PUBLIC 101fe8 0 TppJobpRundownJob
PUBLIC 102100 0 TppJobpStopCallbackGeneration
PUBLIC 102110 0 TppJobpValidateJob
PUBLIC 102180 0 TpQueryPoolStackInformation
PUBLIC 1021f0 0 TpSetDefaultPoolMaxThreads
PUBLIC 102270 0 TpTrimPools
PUBLIC 10270c 0 TppAdjustRunningThreadGoal
PUBLIC 1027d0 0 TppDirectUnposted
PUBLIC 102850 0 TppWorkUnposted
PUBLIC 1028f0 0 TpCallbackDetectedUnrecoverableError
PUBLIC 102920 0 TpCallbackLeaveCriticalSectionOnCompletion
PUBLIC 102950 0 TpCallbackReleaseSemaphoreOnCompletion
PUBLIC 102990 0 TpDbgDumpHeapUsage
PUBLIC 102a54 0 TppCheckForTransactions
PUBLIC 102aa4 0 TppExceptionFilter
PUBLIC 102b18 0 TppRaiseHandleStatus
PUBLIC 102bc8 0 TppRaiseInvalidParameter
FUNC 102c2a 16 0 TppRaiseInvalidParameter$filt$0
PUBLIC 102c48 0 TppReportExceptionFilter
PUBLIC 102c6c 0 TppTerminateProcess
PUBLIC 102c80 0 TppETWCallbackCancel
PUBLIC 102d04 0 TppETWCallbackDequeue
PUBLIC m 102d7c 0 RtlpTpETWCallbackStart
PUBLIC 102df4 0 TppETWPoolClose
PUBLIC 102e4c 0 TppETWPoolCreate
PUBLIC 102ea4 0 TppETWPoolThreadMax
PUBLIC 102f00 0 TppETWPoolThreadMin
PUBLIC 102f5c 0 TppETWTimerCancelNtTimer
PUBLIC 102fb4 0 TppETWTimerCancelled
PUBLIC 103010 0 TppETWTimerExpiration
PUBLIC 10308c 0 TppETWTimerExpirationBegin
PUBLIC 1030e4 0 TppETWTimerExpirationEnd
PUBLIC 10313c 0 TppETWTimerSet
PUBLIC 1031d0 0 TppETWTimerSetNtTimer
PUBLIC 103230 0 TppETWWorkerNodeSwitch
PUBLIC 1032bc 0 TppWorkerpInnerExceptionFilter
PUBLIC 103320 0 RtlCancelTimer
PUBLIC 103330 0 RtlDeleteTimerQueue
PUBLIC 103340 0 RtlSetTimer
PUBLIC 103350 0 RtlpTpIoCallback
PUBLIC 103444 0 RtlpTpIoDllProcessUnloads
PUBLIC 103520 0 RtlpExitThread
PUBLIC 103540 0 RtlpStartThread
PUBLIC 103580 0 RtlTpETWCallbackDequeue
PUBLIC m 1035f8 0 RtlpTpETWCallbackEnqueue
PUBLIC m 103670 0 RtlpTpETWCallbackStop
PUBLIC 1036e8 0 SbpTraceContextUpdate
PUBLIC 1037c0 0 SbExecuteProcedure
PUBLIC 1037f8 0 SbpLookup
PUBLIC 1038fc 0 SbpParseFuncName
PUBLIC 1039a0 0 SbpResolveBasedOnName
PUBLIC 103a54 0 StringCchCopyNW
PUBLIC 103ac0 0 PssNtCaptureSnapshot
PUBLIC 103f90 0 PssNtDuplicateSnapshot
PUBLIC 104010 0 PssNtFreeRemoteSnapshot
PUBLIC 104220 0 PssNtFreeSnapshot
PUBLIC 104380 0 PssNtFreeWalkMarker
PUBLIC 1043b0 0 PssNtQuerySnapshot
PUBLIC 1046c0 0 PssNtValidateDescriptor
FUNC 1047be 8b 0 PssNtValidateDescriptor$filt$0
PUBLIC 104850 0 PssNtWalkSnapshot
FUNC 10492c 60 0 PsspSampleCounters
PUBLIC 104994 0 PsspCaptureHandleTrace
PUBLIC 104b8c 0 PsspCaptureProcessInformation
PUBLIC 104ce0 0 PsspCaptureAuxiliaryPages
PUBLIC 104ffc 0 PsspCaptureImageInformation
PUBLIC 105104 0 PsspCaptureVaSpaceInformation
PUBLIC 105668 0 PsspCaptureHandleInformation
FUNC 105940 2f 0 PsspDumpObject_Event
FUNC 105980 79 0 PsspDumpObject_Mutant
FUNC 105a00 2f 0 PsspDumpObject_Process
FUNC 105a40 5f 0 PsspDumpObject_Section
FUNC 105ab0 79 0 PsspDumpObject_Thread
FUNC 105b30 238 0 PsspHandleDumper
FUNC 105d70 5b 0 PsspHandleStreamSizeCalculator
FUNC 105dd4 2cb 0 PsspWalkHandleTable
PUBLIC 1060a8 0 PsspCaptureThreadInformation
FUNC 1063f0 226 0 PsspDumpThread
FUNC 10661c 79 0 PsspFreeLinkedHandleList
PUBLIC 10669c 0 PsspWalkInfoClass_PSS_WALK_AUXILIARY_PAGES
PUBLIC 1067e4 0 PsspWalkInfoClass_PSS_WALK_HANDLES
PUBLIC 106960 0 PsspWalkInfoClass_PSS_WALK_THREADS
PUBLIC 106b1c 0 PsspWalkInfoClass_PSS_WALK_VA_SPACE
PUBLIC 106cc8 0 PsspDuplicateSnapshotLocalToRemote
PUBLIC 1071d0 0 PsspDuplicateSnapshotRemoteToRemote
PUBLIC 107828 0 ResCCloseRuntimeView
PUBLIC 107948 0 ResCIncrementCMFMissCount
PUBLIC 107994 0 ResCKeCreateRuntimeView
PUBLIC 107b5c 0 ResCKeGetCacheIndices
PUBLIC 107ca4 0 ResCRuntimeGetCultureID
PUBLIC 107d58 0 ResCRuntimeGetResourceDataEx
PUBLIC 107fac 0 ResCRuntimeGetSegmentDataEx
PUBLIC 10826c 0 ResCRuntimeUnmapSegment
PUBLIC 1082f4 0 ResCRuntimeViewLoadCultureMap
PUBLIC 1083c8 0 int GetEntryIndex<struct _RESCDIRECTORY *,struct _RESCDENTRY *,0>(struct _RESCDIRECTORY *,struct _RESCACHEID,unsigned int)
PUBLIC 108458 0 int GetFirstEntryIndex<struct _RESCDIRECTORY *,struct _RESCDENTRY *,0>(struct _RESCDIRECTORY *,struct _RESCACHEID)
PUBLIC 10853c 0 int RecurseValidate<struct _RESCDIRECTORY *>(struct _RESCDIRECTORY *,int,unsigned char *)
PUBLIC 10871c 0 int Validate<struct _RESCDIRECTORY *,struct _RESCDENTRY *>(struct _RESCDIRECTORY *)
PUBLIC 108828 0 ResCDirectoryFree
PUBLIC 108950 0 ResCDirectoryGetEntry
PUBLIC 1089c0 0 ResCDirectoryGetEntryCopyAndIndex
PUBLIC 108a64 0 ResCDirectoryGetEntryIndexEx
PUBLIC 108adc 0 ResCDirectoryGetSegmentName
PUBLIC 108b38 0 ResCDirectoryValidate
PUBLIC 108bf0 0 ResCHitsEntryHit
PUBLIC 108c58 0 ResCHitsFree
PUBLIC 108d3c 0 ResCKeHitsOpenMapping
PUBLIC 108da8 0 ResCKeSegmentOpenMapping
PUBLIC 108e10 0 ResCSegmentCreateMapping
PUBLIC 108ea4 0 ResCSegmentFree
PUBLIC 108f78 0 ResCCompareCacheIDs
PUBLIC 108fc0 0 RtlpDiskSpeedInitialize
PUBLIC 1090bc 0 RtlpGetVolumeHandle
PUBLIC 1091d8 0 RtlpQueryDiskSpacePolicy
PUBLIC 1093d0 0 RtlpQueryDiskSpeedPolicy
PUBLIC 109430 0 long StringCchPrintfW(unsigned short *,uint64_t,unsigned short const *,...)
PUBLIC 1094b4 0 BaseFormatObjectAttributes
PUBLIC 10954c 0 BaseGetNamedObjectDirectory
PUBLIC 109768 0 BaseIsThisAConsoleName
PUBLIC 1098c8 0 BasepInitializeFindFileHandle
PUBLIC 109958 0 ResCGetRegistryLatestIndex
PUBLIC 109a18 0 ResCReleaseInitMutex
PUBLIC 109a70 0 ResCRequestInitMutex
PUBLIC 109b1c 0 ResCultureNameToLCID
PUBLIC 109b80 0 CreateSecureFileMapping
PUBLIC 109c74 0 ResCCreateMappingExclusive
PUBLIC 109f10 0 ResCDupString
PUBLIC 109fb8 0 ResCLoadFixedSize
PUBLIC 10a0e8 0 ResCOpenMapping
PUBLIC 10a190 0 ResCloseHandle
PUBLIC 10a1dc 0 ResCompareString
PUBLIC 10a230 0 ResCreateFile
PUBLIC 10a43c 0 ResCreateFileMapping
PUBLIC 10a568 0 ResCreateMutex
PUBLIC 10a5f8 0 ResCreateSecurityDescriptor
PUBLIC 10a918 0 ResFindClose
PUBLIC 10a9c0 0 ResFindFirstFileExW
PUBLIC 10adbc 0 ResFindNextFileW
FUNC 10afb6 21 0 ResFindNextFileW$fin$0
PUBLIC 10afe0 0 ResGetFileAttributesEx
PUBLIC 10b10c 0 ResGetFileAttributesW
PUBLIC 10b1d4 0 ResGetFileSizeEx
PUBLIC 10b248 0 ResMapViewOfFile
PUBLIC 10b308 0 ResOpenFileMapping
PUBLIC 10b3b8 0 ResReadFile
PUBLIC 10b474 0 ResUnmapViewOfFile
PUBLIC 10b4e4 0 ResWaitForSingleObject
PUBLIC 10b534 0 ResCGetHighestCacheIndex
PUBLIC 10b6cc 0 ResCGetHighestConsecutiveCacheIndex
PUBLIC 10b7b0 0 ResCGetIndexedName
PUBLIC 10bbf0 0 ResCGetName
PUBLIC 10bfc8 0 ResCGetSubIndexedName
PUBLIC 10c07c 0 CopyLowerCaseAndSubstitute
PUBLIC 10c110 0 ResCCreateCultureMap
PUBLIC 10c290 0 ResCCultureMapCreateAndPopulate
PUBLIC 10c330 0 ResCCultureMapPopulate
PUBLIC 10c3b8 0 ResCFreeCultureMap
PUBLIC 10c494 0 ResCGetCultureID
PUBLIC 10c54c 0 ResCLoadCultureMap
PUBLIC 10c5f0 0 ResCReloadCultureMap
PUBLIC m 10c694 0 int InitStack<int>(void * *,unsigned int)
PUBLIC 10c72c 0 void ReleaseStack<unsigned int>(void *)
PUBLIC m 10c77c 0 int StackPush<int>(int,void *)
PUBLIC 10c844 0 ResCDirectoryCreateAndPopulate
PUBLIC 10c8e8 0 ResCDirectoryGetSize
PUBLIC 10c934 0 ResCDirectoryPopulate
PUBLIC 10c990 0 ResCDirectoryValidateEntries
PUBLIC 10cb44 0 ResCDirectoryValidateHeader
PUBLIC 10cbfc 0 ResCHitsCreateAndPopulate
PUBLIC 10cc9c 0 ResCHitsPopulate
PUBLIC 10cd10 0 ResCSegmentCreateAndPopulate
PUBLIC 10cdb0 0 ResCSegmentPopulate
PUBLIC 12d010 0 RtlAllocateMemoryBlockLookaside
PUBLIC 12d150 0 RtlFreeMemoryBlockLookaside
PUBLIC 12d180 0 RtlAllocateMemoryZone
PUBLIC 145010 0 pow
PUBLIC 145011 0 <unknown in ntdll.dll>
STACK CFI INIT 14600 ec .cfa: $rsp 112 + $rdi: .cfa 16 - ^ $r12: .cfa 24 - ^ $r13: .cfa 32 - ^ $r14: .cfa 40 - ^ $r15: .cfa 48 - ^ $rbx: .cfa 0 - ^ $rbp: .cfa 0 - ^ $rsi: .cfa 0 - ^ .ra: .cfa 8 - ^
STACK CFI INIT 146f4 2e5 .cfa: $rsp 128 + $rbx: .cfa 16 - ^ $rbp: .cfa 24 - ^ $rsi: .cfa 32 - ^ $rdi: .cfa 40 - ^ $r12: .cfa 48 - ^ $r13: .cfa 56 - ^ $r14: .cfa 64 - ^ $r15: .cfa 72 - ^ .ra: .cfa 8 - ^
STACK CFI INIT 149e0 14a .cfa: $rsp 32 + $r13: .cfa 16 - ^ $r14: .cfa 24 - ^ $r15: .cfa 32 - ^ $rbx: .cfa 0 - ^ $rbp: .cfa 0 - ^ $rdi: .cfa 0 - ^ $r12: .cfa 0 - ^ .ra: .cfa 8 - ^
STACK CFI INIT 14b30 84 .cfa: $rsp 64 + $rdi: .cfa 16 - ^ $rbx: .cfa 0 - ^ $rbp: .cfa 0 - ^ $rsi: .cfa 0 - ^ .ra: .cfa 8 - ^
STACK CFI INIT 14bc0 138 .cfa: $rsp 96 + $rsi: .cfa 16 - ^ $rdi: .cfa 24 - ^ $r12: .cfa 32 - ^ $r14: .cfa 40 - ^ $r15: .cfa 48 - ^ $rbx: .cfa 0 - ^ $rbp: .cfa 0 - ^ .ra: .cfa 8 - ^
STACK CFI INIT 14d00 f8 .cfa: $rsp 64 + $rdi: .cfa 16 - ^ $r14: .cfa 24 - ^ $r15: .cfa 32 - ^ $rbx: .cfa 0 - ^ $rbp: .cfa 0 - ^ $rsi: .cfa 0 - ^ .ra: .cfa 8 - ^
STACK CFI INIT 14e00 72 .cfa: $rsp 8 + $rbx: .cfa 0 - ^ $rdi: .cfa 0 - ^ .ra: .cfa 8 - ^
STACK CFI INIT 14ea0 85 .cfa: $rsp 48 + $r14: .cfa 16 - ^ $rbx: .cfa 0 - ^ $rsi: .cfa 0 - ^ $rdi: .cfa 0 - ^ .ra: .cfa 8 - ^
STACK CFI INIT 14f2c a8 .cfa: $rsp 8 + $rbx: .cfa 0 - ^ .ra: .cfa 8 - ^
STACK CFI INIT 14ff0 1e6 .cfa: $rsp 112 + $rdi: .cfa 16 - ^ $r12: .cfa 24 - ^ $r13: .cfa 32 - ^ $r14: .cfa 40 - ^ $r15: .cfa 48 - ^ $rbx: .cfa 0 - ^ $rsi: .cfa 0 - ^ .ra: .cfa 8 - ^
STACK CFI INIT 151dc 7a .cfa: $rsp 96 + $rbx: .cfa 16 - ^ .ra: .cfa 8 - ^
STACK CFI INIT 152d0 174 .cfa: $rsp 176 + $rbp: .cfa 16 - ^ $rsi: .cfa 24 - ^ $rdi: .cfa 32 - ^ $r14: .cfa 40 - ^ $r15: .cfa 48 - ^ $rbx: .cfa 0 - ^ .ra: .cfa 8 - ^
STACK CFI INIT 1544c 63 .cfa: $rsp 48 + $rdi: .cfa 16 - ^ $rbx: .cfa 0 - ^ $rsi: .cfa 0 - ^ .ra: .cfa 8 - ^
STACK CFI INIT 154c0 65 .cfa: $rsp 80 + $rdi: .cfa 16 - ^ $rbx: .cfa 0 - ^ $rsi: .cfa 0 - ^ .ra: .cfa 8 - ^
STACK CFI INIT 1552c 2e .cfa: $rsp 112 + $rbx: .cfa 16 - ^ .ra: .cfa 8 - ^
STACK CFI INIT 15560 1f3 .cfa: $rsp 752 + $rbp: .cfa 16 - ^ $r14: .cfa 24 - ^ $r15: .cfa 32 - ^ $rbx: .cfa 0 - ^ $rsi: .cfa 0 - ^ $rdi: .cfa 0 - ^ .ra: .cfa 8 - ^
STACK CFI INIT 1575c a6 .cfa: $rsp 48 + $rdi: .cfa 16 - ^ $rbx: .cfa 0 - ^ .ra: .cfa 8 - ^
STACK CFI INIT 15808 47 .cfa: $rsp 48 + $rdi: .cfa 16 - ^ $rbx: .cfa 0 - ^ .ra: .cfa 8 - ^
STACK CFI INIT 15860 3d .cfa: $rsp 64 + $rdi: .cfa 16 - ^ $rbx: .cfa 0 - ^ .ra: .cfa 8 - ^
STACK CFI INIT 158b0 137 .cfa: $rsp 112 + $rsi: .cfa 16 - ^ $rdi: .cfa 24 - ^ $r12: .cfa 32 - ^ $r14: .cfa 40 - ^ $r15: .cfa 48 - ^ $rbx: .cfa 0 - ^ .ra: .cfa 8 - ^
STACK CFI INIT 159f0 64 .cfa: $rsp 48 + $rdi: .cfa 16 - ^ $rbx: .cfa 0 - ^ $rsi: .cfa 0 - ^ .ra: .cfa 8 - ^
STACK CFI INIT 15a60 102 .cfa: $rsp 80 + $r14: .cfa 16 - ^ $rbx: .cfa 0 - ^ $rbp: .cfa 0 - ^ $rsi: .cfa 0 - ^ $rdi: .cfa 0 - ^ .ra: .cfa 8 - ^
STACK CFI INIT 15b84 84 .cfa: $rsp 48 + $rbx: .cfa 16 - ^ .ra: .cfa 8 - ^
STACK CFI INIT 15c10 140 .cfa: $rsp 256 + $rbp: .cfa 16 - ^ $rbx: .cfa 0 - ^ $rsi: .cfa 0 - ^ $rdi: .cfa 0 - ^ .ra: .cfa 8 - ^
STACK CFI INIT 15d60 cb .cfa: $rsp 96 + $rdi: .cfa 16 - ^ $rbx: .cfa 0 - ^ $rbp: .cfa 0 - ^ $rsi: .cfa 0 - ^ .ra: .cfa 8 - ^
STACK CFI INIT 15ea4 14d .cfa: $rsp 64 + $rdi: .cfa 16 - ^ $r14: .cfa 24 - ^ $r15: .cfa 32 - ^ $rbx: .cfa 0 - ^ $rbp: .cfa 0 - ^ $rsi: .cfa 0 - ^ .ra: .cfa 8 - ^
STACK CFI INIT 16000 4e .cfa: $rsp 48 + .ra: .cfa 8 - ^
STACK CFI INIT 16060 14 .cfa: $rsp 48 + .ra: .cfa 8 - ^
STACK CFI INIT 1607c 152 .cfa: $rsp 64 + $rdi: .cfa 16 - ^ $r12: .cfa 24 - ^ $r14: .cfa 32 - ^ $rbx: .cfa 0 - ^ $rbp: .cfa 0 - ^ $rsi: .cfa 0 - ^ .ra: .cfa 8 - ^
STACK CFI INIT 161d4 1b .cfa: $rsp 48 + .ra: .cfa 8 - ^
STACK CFI INIT 16200 1a .cfa: $rsp 48 + .ra: .cfa 8 - ^
STACK CFI INIT 16220 141 .cfa: $rsp 64 + $rdi: .cfa 16 - ^ $rbx: .cfa 0 - ^ $rbp: .cfa 0 - ^ $rsi: .cfa 0 - ^ .ra: .cfa 8 - ^
STACK CFI INIT 16368 182 .cfa: $rsp 112 + $rsi: .cfa 16 - ^ $rdi: .cfa 24 - ^ $r14: .cfa 32 - ^ $rbx: .cfa 0 - ^ $rbp: .cfa 0 - ^ .ra: .cfa 8 - ^
STACK CFI INIT 164f0 e1 .cfa: $rsp 64 + $rdi: .cfa 16 - ^ $rbx: .cfa 0 - ^ $rsi: .cfa 0 - ^ .ra: .cfa 8 - ^
STACK CFI INIT 165e0 12e .cfa: $rsp 96 + $rdi: .cfa 16 - ^ $r14: .cfa 24 - ^ $r15: .cfa 32 - ^ $rbx: .cfa 0 - ^ $rsi: .cfa 0 - ^ .ra: .cfa 8 - ^
STACK CFI INIT 16720 ab .cfa: $rsp 64 + $rdi: .cfa 16 - ^ $rbx: .cfa 0 - ^ $rbp: .cfa 0 - ^ $rsi: .cfa 0 - ^ .ra: .cfa 8 - ^
STACK CFI INIT 167d4 69 .cfa: $rsp 64 + $rbx: .cfa 16 - ^ $rsi: .cfa 24 - ^ $rdi: .cfa 32 - ^ .ra: .cfa 8 - ^
STACK CFI INIT 168e0 11c .cfa: $rsp 96 + $rdi: .cfa 16 - ^ $r14: .cfa 24 - ^ $r15: .cfa 32 - ^ $rbx: .cfa 0 - ^ $rbp: .cfa 0 - ^ $rsi: .cfa 0 - ^ .ra: .cfa 8 - ^
STACK CFI INIT 16a04 1ae .cfa: $rsp 128 + $rsi: .cfa 16 - ^ $rdi: .cfa 24 - ^ $r12: .cfa 32 - ^ $r14: .cfa 40 - ^ $r15: .cfa 48 - ^ $rbx: .cfa 0 - ^ $rbp: .cfa 0 - ^ .ra: .cfa 8 - ^
STACK CFI INIT 16bb8 3f8 .cfa: $rsp 224 + $rbx: .cfa 16 - ^ $rsi: .cfa 24 - ^ $rdi: .cfa 32 - ^ $r12: .cfa 40 - ^ $r13: .cfa 48 - ^ $r14: .cfa 56 - ^ $r15: .cfa 64 - ^ .ra: .cfa 8 - ^
STACK CFI INIT 16fb8 bb .cfa: $rsp 48 + $rdi: .cfa 16 - ^ $rbx: .cfa 0 - ^ $rbp: .cfa 0 - ^ $rsi: .cfa 0 - ^ .ra: .cfa 8 - ^
STACK CFI INIT 1707c c4 .cfa: $rsp 48 + $rdi: .cfa 16 - ^ $rbx: .cfa 0 - ^ .ra: .cfa 8 - ^
STACK CFI INIT 17148 369 .cfa: $rsp 80 + $r12: .cfa 16 - ^ $r14: .cfa 24 - ^ $r15: .cfa 32 - ^ $rbx: .cfa 0 - ^ $rbp: .cfa 0 - ^ $rsi: .cfa 0 - ^ $rdi: .cfa 0 - ^ .ra: .cfa 8 - ^
STACK CFI INIT 174b8 6b .cfa: $rsp 48 + $rdi: .cfa 16 - ^ $rbx: .cfa 0 - ^ .ra: .cfa 8 - ^
STACK CFI INIT 1752c 1b0 .cfa: $rsp 80 + $rdi: .cfa 16 - ^ $r14: .cfa 24 - ^ $r15: .cfa 32 - ^ $rbx: .cfa 0 - ^ $rbp: .cfa 0 - ^ $rsi: .cfa 0 - ^ .ra: .cfa 8 - ^
STACK CFI INIT 17700 221 .cfa: $rsp 96 + $rdi: .cfa 16 - ^ $r12: .cfa 24 - ^ $r13: .cfa 32 - ^ $r14: .cfa 40 - ^ $r15: .cfa 48 - ^ $rbx: .cfa 0 - ^ $rsi: .cfa 0 - ^ .ra: .cfa 8 - ^
STACK CFI INIT 17928 143 .cfa: $rsp 176 + $rdi: .cfa 16 - ^ $r14: .cfa 24 - ^ $r15: .cfa 32 - ^ $rbx: .cfa 0 - ^ $rsi: .cfa 0 - ^ .ra: .cfa 8 - ^
STACK CFI INIT 17a74 212 .cfa: $rsp 96 + $rdi: .cfa 16 - ^ $r12: .cfa 24 - ^ $r13: .cfa 32 - ^ $r14: .cfa 40 - ^ $r15: .cfa 48 - ^ $rbx: .cfa 0 - ^ $rbp: .cfa 0 - ^ $rsi: .cfa 0 - ^ .ra: .cfa 8 - ^
STACK CFI INIT 17c8c 78 .cfa: $rsp 128 + $rbx: .cfa 16 - ^ $rdi: .cfa 24 - ^ .ra: .cfa 8 - ^
STACK CFI INIT 17d0c 3c .cfa: $rsp 48 + .ra: .cfa 8 - ^
STACK CFI INIT 17d50 28e .cfa: $rsp 96 + $rbp: .cfa 16 - ^ $r14: .cfa 24 - ^ $r15: .cfa 32 - ^ $rbx: .cfa 0 - ^ $rsi: .cfa 0 - ^ $rdi: .cfa 0 - ^ .ra: .cfa 8 - ^
STACK CFI INIT 18020 65 .cfa: $rsp 48 + $rdi: .cfa 16 - ^ $rbx: .cfa 0 - ^ .ra: .cfa 8 - ^
STACK CFI INIT 1808c a9 .cfa: $rsp 96 + $rsi: .cfa 16 - ^ $rdi: .cfa 24 - ^ $r14: .cfa 32 - ^ $rbx: .cfa 0 - ^ $rbp: .cfa 0 - ^ .ra: .cfa 8 - ^
STACK CFI INIT 1813c c5 .cfa: $rsp 48 + $rdi: .cfa 16 - ^ $rbx: .cfa 0 - ^ $rsi: .cfa 0 - ^ .ra: .cfa 8 - ^
STACK CFI INIT 18208 117 .cfa: $rsp 48 + $rdi: .cfa 16 - ^ $rbx: .cfa 0 - ^ $rbp: .cfa 0 - ^ $rsi: .cfa 0 - ^ .ra: .cfa 8 - ^
STACK CFI INIT 18330 15f .cfa: $rsp 2976 + $rbp: .cfa 16 - ^ $rsi: .cfa 24 - ^ $rdi: .cfa 32 - ^ $r12: .cfa 40 - ^ $r13: .cfa 48 - ^ $r14: .cfa 56 - ^ $r15: .cfa 64 - ^ $rbx: .cfa 0 - ^ .ra: .cfa 8 - ^
STACK CFI INIT 184a0 a9 .cfa: $rsp 240 + $rdi: .cfa 16 - ^ $rbx: .cfa 0 - ^ $rsi: .cfa 0 - ^ .ra: .cfa 8 - ^
STACK CFI INIT 18550 53 .cfa: $rsp 48 + $rdi: .cfa 16 - ^ $rbx: .cfa 0 - ^ .ra: .cfa 8 - ^
STACK CFI INIT 185b0 56 .cfa: $rsp 64 + $rbx: .cfa 16 - ^ .ra: .cfa 8 - ^
STACK CFI INIT 18610 85 .cfa: $rsp 336 + $rdi: .cfa 16 - ^ $rbx: .cfa 0 - ^ .ra: .cfa 8 - ^
STACK CFI INIT 186a0 30b .cfa: $rsp 416 + $rbp: .cfa 16 - ^ $r12: .cfa 24 - ^ $r13: .cfa 32 - ^ $r14: .cfa 40 - ^ $r15: .cfa 48 - ^ $rbx: .cfa 0 - ^ $rsi: .cfa 0 - ^ $rdi: .cfa 0 - ^ .ra: .cfa 8 - ^
STACK CFI INIT 189b4 ef .cfa: $rsp 128 + $rsi: .cfa 16 - ^ $rdi: .cfa 24 - ^ $r14: .cfa 32 - ^ $rbx: .cfa 0 - ^ .ra: .cfa 8 - ^
STACK CFI INIT 18ad0 43 .cfa: $rsp 48 + $rdi: .cfa 16 - ^ $rbx: .cfa 0 - ^ .ra: .cfa 8 - ^
STACK CFI INIT 18b20 ca .cfa: $rsp 64 + $rdi: .cfa 16 - ^ $rbx: .cfa 0 - ^ $rsi: .cfa 0 - ^ .ra: .cfa 8 - ^
STACK CFI INIT 18bf0 8f .cfa: $rsp 80 + $rdi: .cfa 16 - ^ $rbx: .cfa 0 - ^ $rsi: .cfa 0 - ^ .ra: .cfa 8 - ^
STACK CFI INIT 18c90 20 .cfa: $rsp 48 + $rbx: .cfa 16 - ^ .ra: .cfa 8 - ^
STACK CFI INIT 18cb8 32 .cfa: $rsp 48 + $rdi: .cfa 16 - ^ $rbx: .cfa 0 - ^ .ra: .cfa 8 - ^
STACK CFI INIT 18cf0 e9 .cfa: $rsp 112 + $rdi: .cfa 16 - ^ $r12: .cfa 24 - ^ $r13: .cfa 32 - ^ $r14: .cfa 40 - ^ $r15: .cfa 48 - ^ $rbx: .cfa 0 - ^ $rsi: .cfa 0 - ^ .ra: .cfa 8 - ^
STACK CFI INIT 18de0 ae .cfa: $rsp 48 + $rdi: .cfa 16 - ^ $rbx: .cfa 0 - ^ $rsi: .cfa 0 - ^ .ra: .cfa 8 - ^
STACK CFI INIT 18ea0 bb .cfa: $rsp 64 + $rdi: .cfa 16 - ^ $rbx: .cfa 0 - ^ $rbp: .cfa 0 - ^ $rsi: .cfa 0 - ^ .ra: .cfa 8 - ^
STACK CFI INIT 18f70 266 .cfa: $rsp 160 + $rbp: .cfa 16 - ^ $rsi: .cfa 24 - ^ $rdi: .cfa 32 - ^ $r14: .cfa 40 - ^ $r15: .cfa 48 - ^ $rbx: .cfa 0 - ^ .ra: .cfa 8 - ^
STACK CFI INIT 191dc 15b .cfa: $rsp 64 + $rsi: .cfa 16 - ^ $rdi: .cfa 24 - ^ $r14: .cfa 32 - ^ $rbx: .cfa 0 - ^ $rbp: .cfa 0 - ^ .ra: .cfa 8 - ^
STACK CFI INIT 19340 15c .cfa: $rsp 96 + $rdi: .cfa 16 - ^ $r12: .cfa 24 - ^ $r13: .cfa 32 - ^ $r14: .cfa 40 - ^ $r15: .cfa 48 - ^ $rbx: .cfa 0 - ^ $rbp: .cfa 0 - ^ $rsi: .cfa 0 - ^ .ra: .cfa 8 - ^
STACK CFI INIT 194a4 a9 .cfa: $rsp 64 + $rdi: .cfa 16 - ^ $rbx: .cfa 0 - ^ .ra: .cfa 8 - ^
STACK CFI INIT 19560 c1 .cfa: $rsp 48 + $rdi: .cfa 16 - ^ $rbx: .cfa 0 - ^ $rbp: .cfa 0 - ^ $rsi: .cfa 0 - ^ .ra: .cfa 8 - ^
STACK CFI INIT 19628 f7 .cfa: $rsp 64 + $rdi: .cfa 16 - ^ $rbx: .cfa 0 - ^ $rbp: .cfa 0 - ^ $rsi: .cfa 0 - ^ .ra: .cfa 8 - ^
STACK CFI INIT 19728 b3 .cfa: $rsp 80 + $rdi: .cfa 16 - ^ $r12: .cfa 24 - ^ $r13: .cfa 32 - ^ $r14: .cfa 40 - ^ $r15: .cfa 48 - ^ $rbx: .cfa 0 - ^ $rbp: .cfa 0 - ^ $rsi: .cfa 0 - ^ .ra: .cfa 8 - ^
STACK CFI INIT 197f0 304 .cfa: $rsp 240 + $rdi: .cfa 16 - ^ $r12: .cfa 24 - ^ $r13: .cfa 32 - ^ $r14: .cfa 40 - ^ $r15: .cfa 48 - ^ $rbx: .cfa 0 - ^ $rsi: .cfa 0 - ^ .ra: .cfa 8 - ^
STACK CFI INIT 19b00 66 .cfa: $rsp 48 + $rdi: .cfa 16 - ^ $rbx: .cfa 0 - ^ .ra: .cfa 8 - ^
STACK CFI INIT 19b6c 1a9 .cfa: $rsp 96 + $rsi: .cfa 16 - ^ $rdi: .cfa 24 - ^ $r14: .cfa 32 - ^ $rbx: .cfa 0 - ^ $rbp: .cfa 0 - ^ .ra: .cfa 8 - ^
STACK CFI INIT 19d1c 91 .cfa: $rsp 48 + $rdi: .cfa 16 - ^ $rbx: .cfa 0 - ^ .ra: .cfa 8 - ^
STACK CFI INIT 19dc0 173 .cfa: $rsp 144 + $rsi: .cfa 16 - ^ $rdi: .cfa 24 - ^ $r12: .cfa 32 - ^ $r14: .cfa 40 - ^ $r15: .cfa 48 - ^ $rbx: .cfa 0 - ^ .ra: .cfa 8 - ^
STACK CFI INIT 19f80 77 .cfa: $rsp 48 + $rdi: .cfa 16 - ^ $rbx: .cfa 0 - ^ .ra: .cfa 8 - ^
STACK CFI INIT 1a000 66 .cfa: $rsp 96 + $rdi: .cfa 16 - ^ $r14: .cfa 24 - ^ $r15: .cfa 32 - ^ $rbx: .cfa 0 - ^ $rbp: .cfa 0 - ^ $rsi: .cfa 0 - ^ .ra: .cfa 8 - ^
STACK CFI INIT 1a06c 15c .cfa: $rsp 656 + $rbp: .cfa 16 - ^ $rsi: .cfa 24 - ^ $rdi: .cfa 32 - ^ $r14: .cfa 40 - ^ $r15: .cfa 48 - ^ $rbx: .cfa 0 - ^ .ra: .cfa 8 - ^
STACK CFI INIT 1a1d0 79 .cfa: $rsp 48 + $rdi: .cfa 16 - ^ $rbx: .cfa 0 - ^ $rsi: .cfa 0 - ^ .ra: .cfa 8 - ^
STACK CFI INIT 1a250 140 .cfa: $rsp 64 + $r12: .cfa 16 - ^ $r14: .cfa 24 - ^ $r15: .cfa 32 - ^ $rbx: .cfa 0 - ^ $rbp: .cfa 0 - ^ $rsi: .cfa 0 - ^ $rdi: .cfa 0 - ^ .ra: .cfa 8 - ^
STACK CFI INIT 1a398 99 .cfa: $rsp 96 + $rdi: .cfa 16 - ^ $rbx: .cfa 0 - ^ $rbp: .cfa 0 - ^ $rsi: .cfa 0 - ^ .ra: .cfa 8 - ^
STACK CFI INIT 1a438 c6 .cfa: $rsp 464 + $rdi: .cfa 16 - ^ $r14: .cfa 24 - ^ $r15: .cfa 32 - ^ $rbx: .cfa 0 - ^ $rbp: .cfa 0 - ^ $rsi: .cfa 0 - ^ .ra: .cfa 8 - ^
STACK CFI INIT 1a504 247 .cfa: $rsp 128 + $rbp: .cfa 16 - ^ $rsi: .cfa 24 - ^ $rdi: .cfa 32 - ^ $r14: .cfa 40 - ^ $r15: .cfa 48 - ^ $rbx: .cfa 0 - ^ .ra: .cfa 8 - ^
STACK CFI INIT 1a760 d6 .cfa: $rsp 48 + $rdi: .cfa 16 - ^ $rbx: .cfa 0 - ^ $rsi: .cfa 0 - ^ .ra: .cfa 8 - ^
STACK CFI INIT 1a83c 87 .cfa: $rsp 48 + $rdi: .cfa 16 - ^ $rbx: .cfa 0 - ^ $rbp: .cfa 0 - ^ $rsi: .cfa 0 - ^ .ra: .cfa 8 - ^
STACK CFI INIT 1a8cc 80 .cfa: $rsp 208 + $rbp: .cfa 16 - ^ $rbx: .cfa 0 - ^ $rdi: .cfa 0 - ^ .ra: .cfa 8 - ^
STACK CFI INIT 1a954 80 .cfa: $rsp 208 + $rbp: .cfa 16 - ^ $rbx: .cfa 0 - ^ $rdi: .cfa 0 - ^ .ra: .cfa 8 - ^
STACK CFI INIT 1a9dc 72 .cfa: $rsp 64 + $rdi: .cfa 16 - ^ $rbx: .cfa 0 - ^ $rbp: .cfa 0 - ^ $rsi: .cfa 0 - ^ .ra: .cfa 8 - ^
STACK CFI INIT 1aae4 160 .cfa: $rsp 144 + $rbp: .cfa 16 - ^ $rsi: .cfa 24 - ^ $rdi: .cfa 32 - ^ $r12: .cfa 40 - ^ $r13: .cfa 48 - ^ $r14: .cfa 56 - ^ $r15: .cfa 64 - ^ $rbx: .cfa 0 - ^ .ra: .cfa 8 - ^
STACK CFI INIT 1ac4c 17b .cfa: $rsp 416 + $rbp: .cfa 16 - ^ $rsi: .cfa 24 - ^ $rdi: .cfa 32 - ^ $r12: .cfa 40 - ^ $r13: .cfa 48 - ^ $r14: .cfa 56 - ^ $r15: .cfa 64 - ^ $rbx: .cfa 0 - ^ .ra: .cfa 8 - ^
STACK CFI INIT 1ae0c 82 .cfa: $rsp 8 + $rbx: .cfa 0 - ^ .ra: .cfa 8 - ^
STACK CFI INIT 1aea0 102 .cfa: $rsp 48 + $rdi: .cfa 16 - ^ $rbx: .cfa 0 - ^ $rbp: .cfa 0 - ^ $rsi: .cfa 0 - ^ .ra: .cfa 8 - ^
STACK CFI INIT 1afa8 125 .cfa: $rsp 48 + $rdi: .cfa 16 - ^ $rbx: .cfa 0 - ^ $rbp: .cfa 0 - ^ $rsi: .cfa 0 - ^ .ra: .cfa 8 - ^
STACK CFI INIT 1b0e0 4e .cfa: $rsp 224 + $rbp: .cfa 16 - ^ $rdi: .cfa 24 - ^ $r15: .cfa 32 - ^ $rbx: .cfa 0 - ^ $rsi: .cfa 0 - ^ .ra: .cfa 8 - ^
STACK CFI INIT 1b140 206 .cfa: $rsp 224 + $rbx: .cfa 16 - ^ $rsi: .cfa 24 - ^ $rdi: .cfa 32 - ^ $r12: .cfa 40 - ^ $r13: .cfa 48 - ^ $r14: .cfa 56 - ^ $r15: .cfa 64 - ^ .ra: .cfa 8 - ^
STACK CFI INIT 1b34c 8a .cfa: $rsp 8 + $rbx: .cfa 0 - ^ $rdi: .cfa 0 - ^ .ra: .cfa 8 - ^
STACK CFI INIT 1b3e0 265 .cfa: $rsp 272 + $r12: .cfa 16 - ^ $r14: .cfa 24 - ^ $r15: .cfa 32 - ^ $rbx: .cfa 0 - ^ $rsi: .cfa 0 - ^ $rdi: .cfa 0 - ^ .ra: .cfa 8 - ^
STACK CFI INIT 1b64c c6 .cfa: $rsp 64 + $rbp: .cfa 16 - ^ $rsi: .cfa 24 - ^ $rdi: .cfa 32 - ^ $rbx: .cfa 0 - ^ .ra: .cfa 8 - ^
STACK CFI INIT 1b718 2a4 .cfa: $rsp 272 + $rbx: .cfa 16 - ^ $rsi: .cfa 24 - ^ $rdi: .cfa 32 - ^ $r12: .cfa 40 - ^ $r13: .cfa 48 - ^ $r14: .cfa 56 - ^ $r15: .cfa 64 - ^ .ra: .cfa 8 - ^
STACK CFI INIT 1b9c4 4f .cfa: $rsp 48 + $rbx: .cfa 16 - ^ .ra: .cfa 8 - ^
STACK CFI INIT 1ba20 259 .cfa: $rsp 240 + $r13: .cfa 16 - ^ $r14: .cfa 24 - ^ $r15: .cfa 32 - ^ $rbx: .cfa 0 - ^ $rsi: .cfa 0 - ^ $rdi: .cfa 0 - ^ $r12: .cfa 0 - ^ .ra: .cfa 8 - ^
STACK CFI INIT 1bc80 225 .cfa: $rsp 224 + $r14: .cfa 16 - ^ $rbx: .cfa 0 - ^ $rsi: .cfa 0 - ^ $rdi: .cfa 0 - ^ .ra: .cfa 8 - ^
STACK CFI INIT 1beb0 144 .cfa: $rsp 272 + $rbp: .cfa 16 - ^ $r12: .cfa 24 - ^ $r13: .cfa 32 - ^ $r14: .cfa 40 - ^ $r15: .cfa 48 - ^ $rbx: .cfa 0 - ^ $rsi: .cfa 0 - ^ $rdi: .cfa 0 - ^ .ra: .cfa 8 - ^
STACK CFI INIT 1c000 bf .cfa: $rsp 224 + .ra: .cfa 8 - ^
STACK CFI INIT 1c0c8 81 .cfa: $rsp 96 + $rsi: .cfa 16 - ^ $rdi: .cfa 24 - ^ $r14: .cfa 32 - ^ $rbx: .cfa 0 - ^ .ra: .cfa 8 - ^
STACK CFI INIT 1c190 4e .cfa: $rsp 64 + $rbx: .cfa 16 - ^ .ra: .cfa 8 - ^
STACK CFI INIT 1c1e4 db .cfa: $rsp 48 + $rdi: .cfa 16 - ^ $rbx: .cfa 0 - ^ $rsi: .cfa 0 - ^ .ra: .cfa 8 - ^
STACK CFI INIT 1c2d0 d0 .cfa: $rsp 144 + $rdi: .cfa 16 - ^ $rbx: .cfa 0 - ^ .ra: .cfa 8 - ^
STACK CFI INIT 1c3a8 5e .cfa: $rsp 48 + .ra: .cfa 8 - ^
STACK CFI INIT 1c40c 8c .cfa: $rsp 48 + $rdi: .cfa 16 - ^ $rbx: .cfa 0 - ^ $rsi: .cfa 0 - ^ .ra: .cfa 8 - ^
STACK CFI INIT 1c4a0 c4 .cfa: $rsp 224 + $rbp: .cfa 16 - ^ $rbx: .cfa 0 - ^ $rdi: .cfa 0 - ^ .ra: .cfa 8 - ^
STACK CFI INIT 1c570 1dd .cfa: $rsp 144 + $rbx: .cfa 16 - ^ $rsi: .cfa 24 - ^ $rdi: .cfa 32 - ^ $r12: .cfa 40 - ^ $r13: .cfa 48 - ^ $r14: .cfa 56 - ^ $r15: .cfa 64 - ^ .ra: .cfa 8 - ^
STACK CFI INIT 1c754 89 .cfa: $rsp 48 + $rdi: .cfa 16 - ^ $rbx: .cfa 0 - ^ .ra: .cfa 8 - ^
STACK CFI INIT 1c930 41 .cfa: $rsp 48 + $rbx: .cfa 16 - ^ .ra: .cfa 8 - ^
STACK CFI INIT 1c980 d6 .cfa: $rsp 48 + $r14: .cfa 16 - ^ $rbx: .cfa 0 - ^ $rbp: .cfa 0 - ^ $rsi: .cfa 0 - ^ $rdi: .cfa 0 - ^ .ra: .cfa 8 - ^
STACK CFI INIT 1ca5c 36 .cfa: $rsp 48 + $rbx: .cfa 16 - ^ .ra: .cfa 8 - ^
STACK CFI INIT 1ca98 51 .cfa: $rsp 48 + $rbx: .cfa 16 - ^ .ra: .cfa 8 - ^
STACK CFI INIT 1caf0 2fb .cfa: $rsp 8 + $rbx: .cfa 0 - ^ $rdi: .cfa 0 - ^ .ra: .cfa 8 - ^
STACK CFI INIT 1ce00 61 .cfa: $rsp 80 + $rbx: .cfa 16 - ^ .ra: .cfa 8 - ^
STACK CFI INIT 1ce68 102 .cfa: $rsp 64 + $rdi: .cfa 16 - ^ $r14: .cfa 24 - ^ $r15: .cfa 32 - ^ $rbx: .cfa 0 - ^ $rsi: .cfa 0 - ^ .ra: .cfa 8 - ^
STACK CFI INIT 1cf70 ed .cfa: $rsp 96 + $r15: .cfa 16 - ^ $rbx: .cfa 0 - ^ $rsi: .cfa 0 - ^ $rdi: .cfa 0 - ^ $r14: .cfa 0 - ^ .ra: .cfa 8 - ^
STACK CFI INIT 1d08c 1a8 .cfa: $rsp 208 + $rbx: .cfa 16 - ^ $rsi: .cfa 24 - ^ $rdi: .cfa 32 - ^ $r12: .cfa 40 - ^ $r13: .cfa 48 - ^ $r14: .cfa 56 - ^ $r15: .cfa 64 - ^ .ra: .cfa 8 - ^
STACK CFI INIT 1d280 75 .cfa: $rsp 48 + $rbx: .cfa 16 - ^ .ra: .cfa 8 - ^
STACK CFI INIT 1d2fc f8 .cfa: $rsp 112 + $rdi: .cfa 16 - ^ $r12: .cfa 24 - ^ $r13: .cfa 32 - ^ $r14: .cfa 40 - ^ $r15: .cfa 48 - ^ $rbx: .cfa 0 - ^ $rbp: .cfa 0 - ^ $rsi: .cfa 0 - ^ .ra: .cfa 8 - ^
STACK CFI INIT 1d3fc 16b .cfa: $rsp 48 + $r14: .cfa 16 - ^ $rbx: .cfa 0 - ^ $rbp: .cfa 0 - ^ $rsi: .cfa 0 - ^ $rdi: .cfa 0 - ^ .ra: .cfa 8 - ^
STACK CFI INIT 1d570 60 .cfa: $rsp 48 + $rdi: .cfa 16 - ^ $rbx: .cfa 0 - ^ .ra: .cfa 8 - ^
STACK CFI INIT 1d5d8 5f .cfa: $rsp 48 + $rdi: .cfa 16 - ^ $rbx: .cfa 0 - ^ .ra: .cfa 8 - ^
STACK CFI INIT 1d640 2f .cfa: $rsp 48 + .ra: .cfa 8 - ^
STACK CFI INIT 1d680 d3 .cfa: $rsp 48 + $rdi: .cfa 16 - ^ $rbx: .cfa 0 - ^ $rbp: .cfa 0 - ^ $rsi: .cfa 0 - ^ .ra: .cfa 8 - ^
STACK CFI INIT 1d75c b5 .cfa: $rsp 48 + $rdi: .cfa 16 - ^ $rbx: .cfa 0 - ^ $rbp: .cfa 0 - ^ $rsi: .cfa 0 - ^ .ra: .cfa 8 - ^
STACK CFI INIT 1d818 d1 .cfa: $rsp 64 + $rdi: .cfa 16 - ^ $r14: .cfa 24 - ^ $r15: .cfa 32 - ^ $rbx: .cfa 0 - ^ $rbp: .cfa 0 - ^ $rsi: .cfa 0 - ^ .ra: .cfa 8 - ^
STACK CFI INIT 1d8f0 17c .cfa: $rsp 64 + $r12: .cfa 16 - ^ $r14: .cfa 24 - ^ $r15: .cfa 32 - ^ $rbx: .cfa 0 - ^ $rbp: .cfa 0 - ^ $rsi: .cfa 0 - ^ $rdi: .cfa 0 - ^ .ra: .cfa 8 - ^
STACK CFI INIT 1da74 6b .cfa: $rsp 48 + $rdi: .cfa 16 - ^ $rbx: .cfa 0 - ^ $rsi: .cfa 0 - ^ .ra: .cfa 8 - ^
STACK CFI INIT 1dae8 12e .cfa: $rsp 112 + $rbx: .cfa 16 - ^ $rbp: .cfa 24 - ^ $rsi: .cfa 32 - ^ $rdi: .cfa 40 - ^ $r14: .cfa 48 - ^ .ra: .cfa 8 - ^
STACK CFI INIT 1dc20 2b .cfa: $rsp 64 + $rbx: .cfa 16 - ^ .ra: .cfa 8 - ^
STACK CFI INIT 1dc60 11e .cfa: $rsp 96 + $rdi: .cfa 16 - ^ $r14: .cfa 24 - ^ $r15: .cfa 32 - ^ $rbx: .cfa 0 - ^ $rsi: .cfa 0 - ^ .ra: .cfa 8 - ^
STACK CFI INIT 1dd84 64 .cfa: $rsp 48 + $rdi: .cfa 16 - ^ $rbx: .cfa 0 - ^ $rsi: .cfa 0 - ^ .ra: .cfa 8 - ^
STACK CFI INIT 1ddf0 b4 .cfa: $rsp 48 + $rdi: .cfa 16 - ^ $rbx: .cfa 0 - ^ $rbp: .cfa 0 - ^ $rsi: .cfa 0 - ^ .ra: .cfa 8 - ^
STACK CFI INIT 1deb0 254 .cfa: $rsp 192 + $rsi: .cfa 16 - ^ $rdi: .cfa 24 - ^ $r12: .cfa 32 - ^ $r13: .cfa 40 - ^ $r14: .cfa 48 - ^ $rbx: .cfa 0 - ^ .ra: .cfa 8 - ^
STACK CFI INIT 1e110 1a0 .cfa: $rsp 80 + $r12: .cfa 16 - ^ $r14: .cfa 24 - ^ $r15: .cfa 32 - ^ $rbx: .cfa 0 - ^ $rbp: .cfa 0 - ^ $rsi: .cfa 0 - ^ $rdi: .cfa 0 - ^ .ra: .cfa 8 - ^
STACK CFI INIT 1e2d0 f5 .cfa: $rsp 64 + $rdi: .cfa 16 - ^ $r14: .cfa 24 - ^ $r15: .cfa 32 - ^ $rbx: .cfa 0 - ^ $rbp: .cfa 0 - ^ $rsi: .cfa 0 - ^ .ra: .cfa 8 - ^
STACK CFI INIT 1e3cc d5 .cfa: $rsp 48 + $rdi: .cfa 16 - ^ $rbx: .cfa 0 - ^ $rbp: .cfa 0 - ^ $rsi: .cfa 0 - ^ .ra: .cfa 8 - ^
STACK CFI INIT 1e4a8 49 .cfa: $rsp 48 + .ra: .cfa 8 - ^
STACK CFI INIT 1e4f8 d3 .cfa: $rsp 80 + $rdi: .cfa 16 - ^ $rbx: .cfa 0 - ^ $rbp: .cfa 0 - ^ $rsi: .cfa 0 - ^ .ra: .cfa 8 - ^
STACK CFI INIT 1e5e0 a4 .cfa: $rsp 96 + $rbp: .cfa 16 - ^ .ra: .cfa 8 - ^
STACK CFI INIT 1e690 30 .cfa: $rsp 80 + .ra: .cfa 8 - ^
STACK CFI INIT 1e6d0 19c .cfa: $rsp 96 + $rsi: .cfa 16 - ^ $rdi: .cfa 24 - ^ $r15: .cfa 32 - ^ $rbx: .cfa 0 - ^ $rbp: .cfa 0 - ^ .ra: .cfa 8 - ^
STACK CFI INIT 1e874 3d6 .cfa: $rsp 496 + $rbp: .cfa 16 - ^ $rsi: .cfa 24 - ^ $rdi: .cfa 32 - ^ $r12: .cfa 40 - ^ $r13: .cfa 48 - ^ $r14: .cfa 56 - ^ $r15: .cfa 64 - ^ $rbx: .cfa 0 - ^ .ra: .cfa 8 - ^
STACK CFI INIT 1ec50 58 .cfa: $rsp 48 + $rbx: .cfa 16 - ^ .ra: .cfa 8 - ^
STACK CFI INIT 1ecb0 4d .cfa: $rsp 48 + $rdi: .cfa 16 - ^ $rbx: .cfa 0 - ^ .ra: .cfa 8 - ^
STACK CFI INIT 1ed04 c8 .cfa: $rsp 64 + $rdi: .cfa 16 - ^ $rbx: .cfa 0 - ^ $rbp: .cfa 0 - ^ $rsi: .cfa 0 - ^ .ra: .cfa 8 - ^
STACK CFI INIT 1ede0 a0 .cfa: $rsp 48 + $rbx: .cfa 16 - ^ .ra: .cfa 8 - ^
STACK CFI INIT 1ee88 4c .cfa: $rsp 48 + $rbx: .cfa 16 - ^ .ra: .cfa 8 - ^
STACK CFI INIT 1eedc 1f8 .cfa: $rsp 80 + $rdi: .cfa 16 - ^ $r14: .cfa 24 - ^ $r15: .cfa 32 - ^ $rbx: .cfa 0 - ^ $rsi: .cfa 0 - ^ .ra: .cfa 8 - ^
STACK CFI INIT 1f0dc be .cfa: $rsp 48 + $rdi: .cfa 16 - ^ $rbx: .cfa 0 - ^ $rbp: .cfa 0 - ^ $rsi: .cfa 0 - ^ .ra: .cfa 8 - ^
STACK CFI INIT 1f1a0 f5 .cfa: $rsp 80 + $rsi: .cfa 16 - ^ $rdi: .cfa 24 - ^ $r14: .cfa 32 - ^ $rbx: .cfa 0 - ^ .ra: .cfa 8 - ^
STACK CFI INIT 1f29c 10a .cfa: $rsp 64 + $rdi: .cfa 16 - ^ $rbx: .cfa 0 - ^ .ra: .cfa 8 - ^
STACK CFI INIT 1f3ac 1dd .cfa: $rsp 96 + $rbp: .cfa 16 - ^ $rbx: .cfa 24 - ^ $rsi: .cfa 32 - ^ $rdi: .cfa 40 - ^ $r14: .cfa 48 - ^ .ra: .cfa 8 - ^
STACK CFI INIT 1f590 155 .cfa: $rsp 112 + $rbp: .cfa 16 - ^ $rbx: .cfa 24 - ^ $rsi: .cfa 32 - ^ $rdi: .cfa 40 - ^ $r12: .cfa 48 - ^ .ra: .cfa 8 - ^
STACK CFI INIT 1f6ec 87 .cfa: $rsp 64 + $rdi: .cfa 16 - ^ $rbx: .cfa 0 - ^ .ra: .cfa 8 - ^
STACK CFI INIT 1f780 ac8 .cfa: $rsp 496 + $rbx: .cfa 16 - ^ $rsi: .cfa 24 - ^ $rdi: .cfa 32 - ^ $r12: .cfa 40 - ^ $r13: .cfa 48 - ^ $r14: .cfa 56 - ^ $r15: .cfa 64 - ^ .ra: .cfa 8 - ^
STACK CFI INIT 20250 16b .cfa: $rsp 48 + $rdi: .cfa 16 - ^ $rbx: .cfa 0 - ^ $rbp: .cfa 0 - ^ $rsi: .cfa 0 - ^ .ra: .cfa 8 - ^
STACK CFI INIT 203d0 1b3 .cfa: $rsp 64 + $rdi: .cfa 16 - ^ $r12: .cfa 24 - ^ $r15: .cfa 32 - ^ $rbx: .cfa 0 - ^ $rbp: .cfa 0 - ^ $rsi: .cfa 0 - ^ .ra: .cfa 8 - ^
STACK CFI INIT 2058c 70 .cfa: $rsp 80 + $rbx: .cfa 16 - ^ .ra: .cfa 8 - ^
STACK CFI INIT 20610 ab .cfa: $rsp 48 + $rdi: .cfa 16 - ^ $rbx: .cfa 0 - ^ $rbp: .cfa 0 - ^ $rsi: .cfa 0 - ^ .ra: .cfa 8 - ^
STACK CFI INIT 206c4 ed .cfa: $rsp 144 + $rbp: .cfa 16 - ^ $rsi: .cfa 24 - ^ $rdi: .cfa 32 - ^ $r14: .cfa 40 - ^ $r15: .cfa 48 - ^ $rbx: .cfa 0 - ^ .ra: .cfa 8 - ^
STACK CFI INIT 207b8 95 .cfa: $rsp 48 + $rdi: .cfa 16 - ^ $rbx: .cfa 0 - ^ $rbp: .cfa 0 - ^ $rsi: .cfa 0 - ^ .ra: .cfa 8 - ^
STACK CFI INIT 20854 b9 .cfa: $rsp 80 + $rbp: .cfa 16 - ^ $rsi: .cfa 24 - ^ $rdi: .cfa 32 - ^ $rbx: .cfa 0 - ^ .ra: .cfa 8 - ^
STACK CFI INIT 20914 7f .cfa: $rsp 112 + $rdi: .cfa 16 - ^ $rbx: .cfa 0 - ^ $rsi: .cfa 0 - ^ .ra: .cfa 8 - ^
STACK CFI INIT 2099c b8 .cfa: $rsp 48 + $rdi: .cfa 16 - ^ $rbx: .cfa 0 - ^ $rbp: .cfa 0 - ^ $rsi: .cfa 0 - ^ .ra: .cfa 8 - ^
STACK CFI INIT 20a5c ed .cfa: $rsp 96 + $rbp: .cfa 16 - ^ $rsi: .cfa 24 - ^ $rdi: .cfa 32 - ^ $rbx: .cfa 0 - ^ .ra: .cfa 8 - ^
STACK CFI INIT 20ba4 4a .cfa: $rsp 48 + $rdi: .cfa 16 - ^ $rbx: .cfa 0 - ^ $rbp: .cfa 0 - ^ $rsi: .cfa 0 - ^ .ra: .cfa 8 - ^
STACK CFI INIT 20bf4 dc .cfa: $rsp 48 + $rdi: .cfa 16 - ^ $rbx: .cfa 0 - ^ $rsi: .cfa 0 - ^ .ra: .cfa 8 - ^
STACK CFI INIT 20cd8 100 .cfa: $rsp 16 + $r14: .cfa 16 - ^ $rbx: .cfa 0 - ^ $rbp: .cfa 0 - ^ $rsi: .cfa 0 - ^ $rdi: .cfa 0 - ^ .ra: .cfa 8 - ^
STACK CFI INIT 20de0 5d .cfa: $rsp 48 + $rdi: .cfa 16 - ^ $rbp: .cfa 0 - ^ $rsi: .cfa 0 - ^ .ra: .cfa 8 - ^
STACK CFI INIT 20eb0 18a .cfa: $rsp 80 + $r13: .cfa 16 - ^ $r14: .cfa 24 - ^ $r15: .cfa 32 - ^ $rbx: .cfa 0 - ^ $rbp: .cfa 0 - ^ $rsi: .cfa 0 - ^ $rdi: .cfa 0 - ^ .ra: .cfa 8 - ^
STACK CFI INIT 21040 1dd .cfa: $rsp 112 + $rbp: .cfa 16 - ^ $rsi: .cfa 24 - ^ $rdi: .cfa 32 - ^ $r12: .cfa 40 - ^ $r13: .cfa 48 - ^ $r14: .cfa 56 - ^ $r15: .cfa 64 - ^ $rbx: .cfa 0 - ^ .ra: .cfa 8 - ^
STACK CFI INIT 21224 14b .cfa: $rsp 64 + $r14: .cfa 16 - ^ $rbx: .cfa 0 - ^ $rbp: .cfa 0 - ^ $rsi: .cfa 0 - ^ $rdi: .cfa 0 - ^ .ra: .cfa 8 - ^
STACK CFI INIT 21378 a0 .cfa: $rsp 64 + $rdi: .cfa 16 - ^ $rbx: .cfa 0 - ^ .ra: .cfa 8 - ^
STACK CFI INIT 21420 56 .cfa: $rsp 64 + .ra: .cfa 8 - ^
STACK CFI INIT 2147c 8a .cfa: $rsp 64 + $rdi: .cfa 16 - ^ $rbx: .cfa 0 - ^ .ra: .cfa 8 - ^
STACK CFI INIT 2150c 55 .cfa: $rsp 48 + $rbx: .cfa 16 - ^ .ra: .cfa 8 - ^
STACK CFI INIT 21568 140 .cfa: $rsp 80 + $r14: .cfa 16 - ^ $rbx: .cfa 0 - ^ $rbp: .cfa 0 - ^ $rsi: .cfa 0 - ^ $rdi: .cfa 0 - ^ .ra: .cfa 8 - ^
STACK CFI INIT 216b0 f6 .cfa: $rsp 112 + $rbx: .cfa 16 - ^ .ra: .cfa 8 - ^
STACK CFI INIT 217ac c4 .cfa: $rsp 48 + $rdi: .cfa 16 - ^ $rbx: .cfa 0 - ^ .ra: .cfa 8 - ^
STACK CFI INIT 21878 31 .cfa: $rsp 48 + $rdi: .cfa 16 - ^ $rbx: .cfa 0 - ^ $rsi: .cfa 0 - ^ .ra: .cfa 8 - ^
STACK CFI INIT 218b0 3b .cfa: $rsp 48 + .ra: .cfa 8 - ^
STACK CFI INIT 219a0 66 .cfa: $rsp 48 + $rdi: .cfa 16 - ^ $rbx: .cfa 0 - ^ $rsi: .cfa 0 - ^ .ra: .cfa 8 - ^
STACK CFI INIT 21a70 ce .cfa: $rsp 80 + $rdi: .cfa 16 - ^ $rbx: .cfa 0 - ^ $rsi: .cfa 0 - ^ .ra: .cfa 8 - ^
STACK CFI INIT 21b50 43 .cfa: $rsp 64 + $rbx: .cfa 16 - ^ .ra: .cfa 8 - ^
STACK CFI INIT 21ba0 f9 .cfa: $rsp 64 + $rdi: .cfa 16 - ^ $r14: .cfa 24 - ^ $r15: .cfa 32 - ^ $rbx: .cfa 0 - ^ $rbp: .cfa 0 - ^ $rsi: .cfa 0 - ^ .ra: .cfa 8 - ^
STACK CFI INIT 21ca0 12f .cfa: $rsp 256 + $rdi: .cfa 16 - ^ $r14: .cfa 24 - ^ $r15: .cfa 32 - ^ $rbx: .cfa 0 - ^ $rbp: .cfa 0 - ^ $rsi: .cfa 0 - ^ .ra: .cfa 8 - ^
STACK CFI INIT 21df4 fa .cfa: $rsp 48 + $rdi: .cfa 16 - ^ $rbx: .cfa 0 - ^ $rbp: .cfa 0 - ^ $rsi: .cfa 0 - ^ .ra: .cfa 8 - ^
STACK CFI INIT 21ef4 99 .cfa: $rsp 64 + $rdi: .cfa 16 - ^ $rbx: .cfa 0 - ^ .ra: .cfa 8 - ^
STACK CFI INIT 21fa0 49 .cfa: $rsp 48 + $rdi: .cfa 16 - ^ $rbx: .cfa 0 - ^ .ra: .cfa 8 - ^
STACK CFI INIT 21ff0 c6 .cfa: $rsp 64 + $r12: .cfa 16 - ^ $r14: .cfa 24 - ^ $r15: .cfa 32 - ^ $rbx: .cfa 0 - ^ $rsi: .cfa 0 - ^ $rdi: .cfa 0 - ^ .ra: .cfa 8 - ^
STACK CFI INIT 220c0 cd .cfa: $rsp 64 + $r14: .cfa 16 - ^ $rbx: .cfa 0 - ^ $rbp: .cfa 0 - ^ $rsi: .cfa 0 - ^ $rdi: .cfa 0 - ^ .ra: .cfa 8 - ^
STACK CFI INIT 221a0 d1 .cfa: $rsp 48 + $r14: .cfa 16 - ^ $rbx: .cfa 0 - ^ $rsi: .cfa 0 - ^ $rdi: .cfa 0 - ^ .ra: .cfa 8 - ^
STACK CFI INIT 22280 d9 .cfa: $rsp 48 + $rbx: .cfa 16 - ^ .ra: .cfa 8 - ^
STACK CFI INIT 22360 ca .cfa: $rsp 64 + $rdi: .cfa 16 - ^ $r14: .cfa 24 - ^ $r15: .cfa 32 - ^ $rbx: .cfa 0 - ^ $rbp: .cfa 0 - ^ $rsi: .cfa 0 - ^ .ra: .cfa 8 - ^
STACK CFI INIT 22430 c4 .cfa: $rsp 160 + $rbp: .cfa 16 - ^ .ra: .cfa 8 - ^
STACK CFI INIT 224fc 92 .cfa: $rsp 48 + $rdi: .cfa 16 - ^ $rbx: .cfa 0 - ^ $rsi: .cfa 0 - ^ .ra: .cfa 8 - ^
STACK CFI INIT 22594 111 .cfa: $rsp 160 + $rbp: .cfa 16 - ^ $rsi: .cfa 24 - ^ $rdi: .cfa 32 - ^ $r12: .cfa 40 - ^ $r13: .cfa 48 - ^ $r14: .cfa 56 - ^ $r15: .cfa 64 - ^ $rbx: .cfa 0 - ^ .ra: .cfa 8 - ^
STACK CFI INIT 226b0 24 .cfa: $rsp 48 + .ra: .cfa 8 - ^
STACK CFI INIT 226dc 149 .cfa: $rsp 8 + $rbx: .cfa 0 - ^ .ra: .cfa 8 - ^
STACK CFI INIT 2282c 12d .cfa: $rsp 96 + $rbp: .cfa 16 - ^ $rbx: .cfa 24 - ^ $rsi: .cfa 32 - ^ $rdi: .cfa 40 - ^ $r14: .cfa 48 - ^ .ra: .cfa 8 - ^
STACK CFI INIT 22960 fa .cfa: $rsp 256 + $rdi: .cfa 16 - ^ $rbx: .cfa 0 - ^ $rbp: .cfa 0 - ^ $rsi: .cfa 0 - ^ .ra: .cfa 8 - ^
STACK CFI INIT 22a60 11a .cfa: $rsp 112 + $rbp: .cfa 16 - ^ $rsi: .cfa 24 - ^ $rdi: .cfa 32 - ^ $r14: .cfa 40 - ^ $r15: .cfa 48 - ^ $rbx: .cfa 0 - ^ .ra: .cfa 8 - ^
STACK CFI INIT 22b80 94 .cfa: $rsp 96 + $rbp: .cfa 16 - ^ $rsi: .cfa 24 - ^ $rdi: .cfa 32 - ^ $r14: .cfa 40 - ^ $r15: .cfa 48 - ^ $rbx: .cfa 0 - ^ .ra: .cfa 8 - ^
STACK CFI INIT 22c1c 115 .cfa: $rsp 736 + $rbp: .cfa 16 - ^ $rsi: .cfa 24 - ^ $rdi: .cfa 32 - ^ $r12: .cfa 40 - ^ $r13: .cfa 48 - ^ $r14: .cfa 56 - ^ $r15: .cfa 64 - ^ $rbx: .cfa 0 - ^ .ra: .cfa 8 - ^
STACK CFI INIT 22d38 5e .cfa: $rsp 64 + $rdi: .cfa 16 - ^ $rbx: .cfa 0 - ^ .ra: .cfa 8 - ^
STACK CFI INIT 22da0 ae .cfa: $rsp 112 + $rbp: .cfa 16 - ^ $rsi: .cfa 24 - ^ $rdi: .cfa 32 - ^ $r14: .cfa 40 - ^ $r15: .cfa 48 - ^ $rbx: .cfa 0 - ^ .ra: .cfa 8 - ^
STACK CFI INIT 22e54 58c .cfa: $rsp 112 + $rbx: .cfa 16 - ^ $rsi: .cfa 24 - ^ $rdi: .cfa 32 - ^ $r12: .cfa 40 - ^ $r13: .cfa 48 - ^ $r14: .cfa 56 - ^ $r15: .cfa 64 - ^ .ra: .cfa 8 - ^
STACK CFI INIT 233e8 10e .cfa: $rsp 64 + $rdi: .cfa 16 - ^ $r14: .cfa 24 - ^ $r15: .cfa 32 - ^ $rbx: .cfa 0 - ^ $rbp: .cfa 0 - ^ $rsi: .cfa 0 - ^ .ra: .cfa 8 - ^
STACK CFI INIT 23500 e0 .cfa: $rsp 48 + $rdi: .cfa 16 - ^ $rbx: .cfa 0 - ^ $rsi: .cfa 0 - ^ .ra: .cfa 8 - ^
STACK CFI INIT 235f0 21f .cfa: $rsp 48 + $rdi: .cfa 16 - ^ $rbx: .cfa 0 - ^ $rbp: .cfa 0 - ^ $rsi: .cfa 0 - ^ .ra: .cfa 8 - ^
STACK CFI INIT 23818 5a .cfa: $rsp 48 + $rbx: .cfa 16 - ^ .ra: .cfa 8 - ^
STACK CFI INIT 23878 1af .cfa: $rsp 144 + $rbp: .cfa 16 - ^ $rsi: .cfa 24 - ^ $rdi: .cfa 32 - ^ $r12: .cfa 40 - ^ $r13: .cfa 48 - ^ $r14: .cfa 56 - ^ $r15: .cfa 64 - ^ $rbx: .cfa 0 - ^ .ra: .cfa 8 - ^
STACK CFI INIT 23a30 370 .cfa: $rsp 176 + $rbp: .cfa 16 - ^ $rsi: .cfa 24 - ^ $rdi: .cfa 32 - ^ $r12: .cfa 40 - ^ $r13: .cfa 48 - ^ $r14: .cfa 56 - ^ $r15: .cfa 64 - ^ $rbx: .cfa 0 - ^ .ra: .cfa 8 - ^
STACK CFI INIT 23da8 43 .cfa: $rsp 96 + .ra: .cfa 8 - ^
STACK CFI INIT 23df4 144 .cfa: $rsp 96 + $rsi: .cfa 16 - ^ $rdi: .cfa 24 - ^ $r12: .cfa 32 - ^ $r14: .cfa 40 - ^ $r15: .cfa 48 - ^ $rbx: .cfa 0 - ^ $rbp: .cfa 0 - ^ .ra: .cfa 8 - ^
STACK CFI INIT 23f40 d0 .cfa: $rsp 112 + $rbp: .cfa 16 - ^ $rbx: .cfa 0 - ^ $rsi: .cfa 0 - ^ $rdi: .cfa 0 - ^ .ra: .cfa 8 - ^
STACK CFI INIT 24018 3a2 .cfa: $rsp 192 + $rbp: .cfa 16 - ^ $rsi: .cfa 24 - ^ $rdi: .cfa 32 - ^ $r12: .cfa 40 - ^ $r13: .cfa 48 - ^ $r14: .cfa 56 - ^ $r15: .cfa 64 - ^ $rbx: .cfa 0 - ^ .ra: .cfa 8 - ^
STACK CFI INIT 243c0 e1 .cfa: $rsp 96 + $rsi: .cfa 16 - ^ $rdi: .cfa 24 - ^ $r14: .cfa 32 - ^ $rbx: .cfa 0 - ^ $rbp: .cfa 0 - ^ .ra: .cfa 8 - ^
STACK CFI INIT 244b0 424 .cfa: $rsp 240 + $rbx: .cfa 16 - ^ $rsi: .cfa 24 - ^ $rdi: .cfa 32 - ^ $r12: .cfa 40 - ^ $r13: .cfa 48 - ^ $r14: .cfa 56 - ^ $r15: .cfa 64 - ^ .ra: .cfa 8 - ^
STACK CFI INIT 248e0 138 .cfa: $rsp 96 + $rbp: .cfa 16 - ^ $rsi: .cfa 24 - ^ $rdi: .cfa 32 - ^ $r14: .cfa 40 - ^ $r15: .cfa 48 - ^ $rbx: .cfa 0 - ^ .ra: .cfa 8 - ^
STACK CFI INIT 24a20 bd .cfa: $rsp 64 + $rdi: .cfa 16 - ^ $rbx: .cfa 0 - ^ $rbp: .cfa 0 - ^ $rsi: .cfa 0 - ^ .ra: .cfa 8 - ^
STACK CFI INIT 24ae4 14f .cfa: $rsp 96 + $rsi: .cfa 16 - ^ $rdi: .cfa 24 - ^ $r14: .cfa 32 - ^ $rbx: .cfa 0 - ^ .ra: .cfa 8 - ^
STACK CFI INIT 24c3c 26a .cfa: $rsp 112 + $rbp: .cfa 16 - ^ $rsi: .cfa 24 - ^ $rdi: .cfa 32 - ^ $r12: .cfa 40 - ^ $r13: .cfa 48 - ^ $r14: .cfa 56 - ^ $r15: .cfa 64 - ^ $rbx: .cfa 0 - ^ .ra: .cfa 8 - ^
STACK CFI INIT 24eac 7f .cfa: $rsp 64 + $rdi: .cfa 16 - ^ $rbx: .cfa 0 - ^ .ra: .cfa 8 - ^
STACK CFI INIT 24f40 21a .cfa: $rsp 208 + $rbp: .cfa 16 - ^ $rsi: .cfa 24 - ^ $rdi: .cfa 32 - ^ $r12: .cfa 40 - ^ $r13: .cfa 48 - ^ $r14: .cfa 56 - ^ $r15: .cfa 64 - ^ $rbx: .cfa 0 - ^ .ra: .cfa 8 - ^
STACK CFI INIT 25160 148 .cfa: $rsp 96 + $rdi: .cfa 16 - ^ $r12: .cfa 24 - ^ $r13: .cfa 32 - ^ $r14: .cfa 40 - ^ $r15: .cfa 48 - ^ $rbx: .cfa 0 - ^ $rbp: .cfa 0 - ^ $rsi: .cfa 0 - ^ .ra: .cfa 8 - ^
STACK CFI INIT 252b0 2e1 .cfa: $rsp 352 + $rbp: .cfa 16 - ^ $r12: .cfa 24 - ^ $r13: .cfa 32 - ^ $r14: .cfa 40 - ^ $r15: .cfa 48 - ^ $rbx: .cfa 0 - ^ $rsi: .cfa 0 - ^ $rdi: .cfa 0 - ^ .ra: .cfa 8 - ^
STACK CFI INIT 25600 80 .cfa: $rsp 112 + $rdi: .cfa 16 - ^ $rbx: .cfa 0 - ^ .ra: .cfa 8 - ^
STACK CFI INIT 25690 fc .cfa: $rsp 128 + $rdi: .cfa 16 - ^ $r14: .cfa 24 - ^ $r15: .cfa 32 - ^ $rbx: .cfa 0 - ^ $rsi: .cfa 0 - ^ .ra: .cfa 8 - ^
STACK CFI INIT 257a0 113 .cfa: $rsp 80 + $rdi: .cfa 16 - ^ $r14: .cfa 24 - ^ $r15: .cfa 32 - ^ $rbx: .cfa 0 - ^ $rsi: .cfa 0 - ^ .ra: .cfa 8 - ^
STACK CFI INIT 258bc 4f .cfa: $rsp 48 + $rdi: .cfa 16 - ^ $rbx: .cfa 0 - ^ .ra: .cfa 8 - ^
STACK CFI INIT 25920 11b .cfa: $rsp 64 + $rdi: .cfa 16 - ^ $r14: .cfa 24 - ^ $r15: .cfa 32 - ^ $rbx: .cfa 0 - ^ $rbp: .cfa 0 - ^ $rsi: .cfa 0 - ^ .ra: .cfa 8 - ^
STACK CFI INIT 25a44 1c8 .cfa: $rsp 352 + $rbp: .cfa 16 - ^ $rsi: .cfa 24 - ^ $rdi: .cfa 32 - ^ $r12: .cfa 40 - ^ $r13: .cfa 48 - ^ $r14: .cfa 56 - ^ $r15: .cfa 64 - ^ $rbx: .cfa 0 - ^ .ra: .cfa 8 - ^
STACK CFI INIT 25c20 c2 .cfa: $rsp 80 + $rsi: .cfa 16 - ^ $rdi: .cfa 24 - ^ $r14: .cfa 32 - ^ $rbx: .cfa 0 - ^ .ra: .cfa 8 - ^
STACK CFI INIT 25ce8 14b .cfa: $rsp 96 + $rdi: .cfa 16 - ^ $r12: .cfa 24 - ^ $r13: .cfa 32 - ^ $r14: .cfa 40 - ^ $r15: .cfa 48 - ^ $rbx: .cfa 0 - ^ $rbp: .cfa 0 - ^ $rsi: .cfa 0 - ^ .ra: .cfa 8 - ^
STACK CFI INIT 25e3c 60 .cfa: $rsp 48 + $rdi: .cfa 16 - ^ $rbx: .cfa 0 - ^ .ra: .cfa 8 - ^
STACK CFI INIT 25ea4 62 .cfa: $rsp 48 + $rdi: .cfa 16 - ^ $rbx: .cfa 0 - ^ $rsi: .cfa 0 - ^ .ra: .cfa 8 - ^
STACK CFI INIT 25f10 7d .cfa: $rsp 96 + .ra: .cfa 8 - ^
STACK CFI INIT 25f94 23b .cfa: $rsp 176 + $rbp: .cfa 16 - ^ $rsi: .cfa 24 - ^ $rdi: .cfa 32 - ^ $r12: .cfa 40 - ^ $r13: .cfa 48 - ^ $r14: .cfa 56 - ^ $r15: .cfa 64 - ^ $rbx: .cfa 0 - ^ .ra: .cfa 8 - ^
STACK CFI INIT 261d8 11e .cfa: $rsp 80 + $rsi: .cfa 16 - ^ $rdi: .cfa 24 - ^ $r14: .cfa 32 - ^ $rbx: .cfa 0 - ^ $rbp: .cfa 0 - ^ .ra: .cfa 8 - ^
STACK CFI INIT 26300 1b0 .cfa: $rsp 176 + $rdi: .cfa 16 - ^ $r12: .cfa 24 - ^ $r13: .cfa 32 - ^ $r14: .cfa 40 - ^ $r15: .cfa 48 - ^ $rbx: .cfa 0 - ^ $rsi: .cfa 0 - ^ .ra: .cfa 8 - ^
STACK CFI INIT 264c0 2d1 .cfa: $rsp 336 + $rbx: .cfa 16 - ^ $rsi: .cfa 24 - ^ $rdi: .cfa 32 - ^ $r12: .cfa 40 - ^ $r13: .cfa 48 - ^ $r14: .cfa 56 - ^ $r15: .cfa 64 - ^ .ra: .cfa 8 - ^
STACK CFI INIT 267a0 b4 .cfa: $rsp 64 + $rbp: .cfa 16 - ^ $rsi: .cfa 24 - ^ $rdi: .cfa 32 - ^ $rbx: .cfa 0 - ^ .ra: .cfa 8 - ^
STACK CFI INIT 2685c 7cb .cfa: $rsp 1120 + $rbx: .cfa 16 - ^ $rsi: .cfa 24 - ^ $rdi: .cfa 32 - ^ $r12: .cfa 40 - ^ $r13: .cfa 48 - ^ $r14: .cfa 56 - ^ $r15: .cfa 64 - ^ .ra: .cfa 8 - ^
STACK CFI INIT 27030 432 .cfa: $rsp 416 + $rbx: .cfa 16 - ^ $rsi: .cfa 24 - ^ $rdi: .cfa 32 - ^ $r12: .cfa 40 - ^ $r13: .cfa 48 - ^ $r14: .cfa 56 - ^ $r15: .cfa 64 - ^ .ra: .cfa 8 - ^
STACK CFI INIT 27468 d5 .cfa: $rsp 96 + $rsi: .cfa 16 - ^ $rdi: .cfa 24 - ^ $r12: .cfa 32 - ^ $r14: .cfa 40 - ^ $r15: .cfa 48 - ^ $rbx: .cfa 0 - ^ $rbp: .cfa 0 - ^ .ra: .cfa 8 - ^
STACK CFI INIT 27550 1d .cfa: $rsp 64 + .ra: .cfa 8 - ^
STACK CFI INIT 27580 6c .cfa: $rsp 80 + $rdi: .cfa 16 - ^ $rbx: .cfa 0 - ^ .ra: .cfa 8 - ^
STACK CFI INIT 27600 1dc .cfa: $rsp 1696 + $rbp: .cfa 16 - ^ $rdi: .cfa 24 - ^ $r13: .cfa 32 - ^ $r14: .cfa 40 - ^ $r15: .cfa 48 - ^ $rbx: .cfa 0 - ^ $rsi: .cfa 0 - ^ .ra: .cfa 8 - ^
STACK CFI INIT 277f0 89 .cfa: $rsp 80 + $rdi: .cfa 16 - ^ $r12: .cfa 24 - ^ $r13: .cfa 32 - ^ $r14: .cfa 40 - ^ $r15: .cfa 48 - ^ $rbx: .cfa 0 - ^ $rbp: .cfa 0 - ^ $rsi: .cfa 0 - ^ .ra: .cfa 8 - ^
STACK CFI INIT 27880 234 .cfa: $rsp 144 + $rbp: .cfa 16 - ^ $rsi: .cfa 24 - ^ $rdi: .cfa 32 - ^ $r12: .cfa 40 - ^ $r13: .cfa 48 - ^ $r14: .cfa 56 - ^ $r15: .cfa 64 - ^ $rbx: .cfa 0 - ^ .ra: .cfa 8 - ^
STACK CFI INIT 27ac0 16c .cfa: $rsp 80 + $rdi: .cfa 16 - ^ $r12: .cfa 24 - ^ $r13: .cfa 32 - ^ $r14: .cfa 40 - ^ $r15: .cfa 48 - ^ $rbx: .cfa 0 - ^ $rbp: .cfa 0 - ^ $rsi: .cfa 0 - ^ .ra: .cfa 8 - ^
STACK CFI INIT 27c40 40e .cfa: $rsp 112 + $rbp: .cfa 16 - ^ $rsi: .cfa 24 - ^ $rdi: .cfa 32 - ^ $r12: .cfa 40 - ^ $r13: .cfa 48 - ^ $r14: .cfa 56 - ^ $r15: .cfa 64 - ^ $rbx: .cfa 0 - ^ .ra: .cfa 8 - ^
STACK CFI INIT 28060 78 .cfa: $rsp 48 + $rdi: .cfa 16 - ^ $rbx: .cfa 0 - ^ $rbp: .cfa 0 - ^ $rsi: .cfa 0 - ^ .ra: .cfa 8 - ^
STACK CFI INIT 280e0 293 .cfa: $rsp 2208 + $rbp: .cfa 16 - ^ $rsi: .cfa 24 - ^ $rdi: .cfa 32 - ^ $r12: .cfa 40 - ^ $r13: .cfa 48 - ^ $r14: .cfa 56 - ^ $r15: .cfa 64 - ^ $rbx: .cfa 0 - ^ .ra: .cfa 8 - ^
STACK CFI INIT 2837c 188 .cfa: $rsp 80 + $rdi: .cfa 16 - ^ $r12: .cfa 24 - ^ $r13: .cfa 32 - ^ $r14: .cfa 40 - ^ $r15: .cfa 48 - ^ $rbx: .cfa 0 - ^ $rbp: .cfa 0 - ^ $rsi: .cfa 0 - ^ .ra: .cfa 8 - ^
STACK CFI INIT 28510 ab .cfa: $rsp 64 + $r12: .cfa 16 - ^ $r14: .cfa 24 - ^ $r15: .cfa 32 - ^ $rbx: .cfa 0 - ^ $rsi: .cfa 0 - ^ $rdi: .cfa 0 - ^ .ra: .cfa 8 - ^
STACK CFI INIT 285d0 1ca .cfa: $rsp 1200 + $rbp: .cfa 16 - ^ $rsi: .cfa 24 - ^ $rdi: .cfa 32 - ^ $r12: .cfa 40 - ^ $r13: .cfa 48 - ^ $r14: .cfa 56 - ^ $r15: .cfa 64 - ^ $rbx: .cfa 0 - ^ .ra: .cfa 8 - ^
STACK CFI INIT 287a0 38 .cfa: $rsp 176 + $rsi: .cfa 16 - ^ $rdi: .cfa 24 - ^ .ra: .cfa 8 - ^
STACK CFI INIT 287d8 267 .cfa: $rsp 176 + $rbx: .cfa 0 - ^ $rbp: .cfa 0 - ^ $r12: .cfa 0 - ^ $r13: .cfa 0 - ^ $r14: .cfa 0 - ^ $r15: .cfa 0 - ^ $rsi: .cfa 16 - ^ $rdi: .cfa 24 - ^ .ra: .cfa 8 - ^
STACK CFI INIT 28a3f a .cfa: $rsp 176 + $rsi: .cfa 16 - ^ $rdi: .cfa 24 - ^ .ra: .cfa 8 - ^
STACK CFI INIT 28a49 e .cfa: $rsp 176 + $rbx: .cfa 0 - ^ $rbp: .cfa 0 - ^ $r12: .cfa 0 - ^ $r13: .cfa 0 - ^ $r14: .cfa 0 - ^ $r15: .cfa 0 - ^ $rsi: .cfa 16 - ^ $rdi: .cfa 24 - ^ .ra: .cfa 8 - ^
STACK CFI INIT 28a60 523 .cfa: $rsp 224 + $rbp: .cfa 16 - ^ $rsi: .cfa 24 - ^ $rdi: .cfa 32 - ^ $r12: .cfa 40 - ^ $r13: .cfa 48 - ^ $r14: .cfa 56 - ^ $r15: .cfa 64 - ^ $rbx: .cfa 0 - ^ .ra: .cfa 8 - ^
STACK CFI INIT 28f8c 7a .cfa: $rsp 8 + $rbx: .cfa 0 - ^ .ra: .cfa 8 - ^
STACK CFI INIT 2900c 9f .cfa: $rsp 48 + $rbx: .cfa 16 - ^ .ra: .cfa 8 - ^
STACK CFI INIT 290b4 2e7 .cfa: $rsp 144 + $rbp: .cfa 16 - ^ $rbx: .cfa 24 - ^ $rsi: .cfa 32 - ^ $rdi: .cfa 40 - ^ $r13: .cfa 48 - ^ $r14: .cfa 56 - ^ $r15: .cfa 64 - ^ .ra: .cfa 8 - ^
STACK CFI INIT 293a4 6a .cfa: $rsp 64 + $rdi: .cfa 16 - ^ $rbx: .cfa 0 - ^ $rbp: .cfa 0 - ^ $rsi: .cfa 0 - ^ .ra: .cfa 8 - ^
STACK CFI INIT 29414 fb4 .cfa: $rsp 448 + $rbx: .cfa 16 - ^ $rsi: .cfa 24 - ^ $rdi: .cfa 32 - ^ $r12: .cfa 40 - ^ $r13: .cfa 48 - ^ $r14: .cfa 56 - ^ $r15: .cfa 64 - ^ .ra: .cfa 8 - ^
STACK CFI INIT 2a3f0 db .cfa: $rsp 64 + $rdi: .cfa 16 - ^ $rbx: .cfa 0 - ^ $rsi: .cfa 0 - ^ .ra: .cfa 8 - ^
STACK CFI INIT 2a4d4 13d .cfa: $rsp 96 + $rdi: .cfa 16 - ^ $r12: .cfa 24 - ^ $r13: .cfa 32 - ^ $r14: .cfa 40 - ^ $r15: .cfa 48 - ^ $rbx: .cfa 0 - ^ $rbp: .cfa 0 - ^ $rsi: .cfa 0 - ^ .ra: .cfa 8 - ^
STACK CFI INIT 2a618 36 .cfa: $rsp 48 + .ra: .cfa 8 - ^
STACK CFI INIT 2a654 f8 .cfa: $rsp 96 + $r12: .cfa 16 - ^ $r14: .cfa 24 - ^ $r15: .cfa 32 - ^ $rbx: .cfa 0 - ^ $rbp: .cfa 0 - ^ $rsi: .cfa 0 - ^ $rdi: .cfa 0 - ^ .ra: .cfa 8 - ^
STACK CFI INIT 2a754 142 .cfa: $rsp 112 + $rsi: .cfa 16 - ^ $rdi: .cfa 24 - ^ $r12: .cfa 32 - ^ $r14: .cfa 40 - ^ $r15: .cfa 48 - ^ $rbx: .cfa 0 - ^ $rbp: .cfa 0 - ^ .ra: .cfa 8 - ^
STACK CFI INIT 2a8a0 14f .cfa: $rsp 256 + $rdi: .cfa 16 - ^ $rbx: .cfa 0 - ^ $rsi: .cfa 0 - ^ .ra: .cfa 8 - ^
STACK CFI INIT 2a9f8 9e .cfa: $rsp 80 + $rsi: .cfa 16 - ^ $rdi: .cfa 24 - ^ $r12: .cfa 32 - ^ $r14: .cfa 40 - ^ $r15: .cfa 48 - ^ $rbx: .cfa 0 - ^ $rbp: .cfa 0 - ^ .ra: .cfa 8 - ^
STACK CFI INIT 2aa9c 9f .cfa: $rsp 80 + $rdi: .cfa 16 - ^ $r12: .cfa 24 - ^ $r13: .cfa 32 - ^ $r14: .cfa 40 - ^ $r15: .cfa 48 - ^ $rbx: .cfa 0 - ^ $rbp: .cfa 0 - ^ $rsi: .cfa 0 - ^ .ra: .cfa 8 - ^
STACK CFI INIT 2ab44 8b .cfa: $rsp 48 + $r14: .cfa 16 - ^ $rbx: .cfa 0 - ^ $rbp: .cfa 0 - ^ $rsi: .cfa 0 - ^ $rdi: .cfa 0 - ^ .ra: .cfa 8 - ^
STACK CFI INIT 2ac24 158 .cfa: $rsp 640 + $rsi: .cfa 16 - ^ $rdi: .cfa 24 - ^ $r12: .cfa 32 - ^ $r14: .cfa 40 - ^ $r15: .cfa 48 - ^ $rbx: .cfa 0 - ^ $rbp: .cfa 0 - ^ .ra: .cfa 8 - ^
STACK CFI INIT 2ad90 126 .cfa: $rsp 304 + $rbp: .cfa 16 - ^ $rsi: .cfa 24 - ^ $rdi: .cfa 32 - ^ $r14: .cfa 40 - ^ $r15: .cfa 48 - ^ $rbx: .cfa 0 - ^ .ra: .cfa 8 - ^
STACK CFI INIT 2aebc 71 .cfa: $rsp 48 + $rdi: .cfa 16 - ^ $rbx: .cfa 0 - ^ $rbp: .cfa 0 - ^ $rsi: .cfa 0 - ^ .ra: .cfa 8 - ^
STACK CFI INIT 2aff0 8b .cfa: $rsp 48 + $rdi: .cfa 16 - ^ $rbx: .cfa 0 - ^ $rbp: .cfa 0 - ^ $rsi: .cfa 0 - ^ .ra: .cfa 8 - ^
STACK CFI INIT 2b084 821 .cfa: $rsp 560 + $rdi: .cfa 16 - ^ $r12: .cfa 24 - ^ $r13: .cfa 32 - ^ $r14: .cfa 40 - ^ $r15: .cfa 48 - ^ $rbx: .cfa 0 - ^ $rsi: .cfa 0 - ^ .ra: .cfa 8 - ^
STACK CFI INIT 2b8ac 108 .cfa: $rsp 80 + $rdi: .cfa 16 - ^ $r12: .cfa 24 - ^ $r13: .cfa 32 - ^ $r14: .cfa 40 - ^ $r15: .cfa 48 - ^ $rbx: .cfa 0 - ^ $rbp: .cfa 0 - ^ $rsi: .cfa 0 - ^ .ra: .cfa 8 - ^
STACK CFI INIT 2b9c0 25 .cfa: $rsp 64 + .ra: .cfa 8 - ^
STACK CFI INIT 2b9f0 8f .cfa: $rsp 48 + $r14: .cfa 16 - ^ $rbx: .cfa 0 - ^ $rbp: .cfa 0 - ^ $rsi: .cfa 0 - ^ $rdi: .cfa 0 - ^ .ra: .cfa 8 - ^
STACK CFI INIT 2bacc 3f .cfa: $rsp 48 + $rdi: .cfa 16 - ^ $rbx: .cfa 0 - ^ .ra: .cfa 8 - ^
STACK CFI INIT 2bb14 aa .cfa: $rsp 96 + $rdi: .cfa 16 - ^ $r12: .cfa 24 - ^ $r13: .cfa 32 - ^ $r14: .cfa 40 - ^ $r15: .cfa 48 - ^ $rbx: .cfa 0 - ^ $rbp: .cfa 0 - ^ $rsi: .cfa 0 - ^ .ra: .cfa 8 - ^
STACK CFI INIT 2bbd0 2b .cfa: $rsp 64 + .ra: .cfa 8 - ^
STACK CFI INIT 2bc04 97 .cfa: $rsp 96 + $rdi: .cfa 16 - ^ $r12: .cfa 24 - ^ $r13: .cfa 32 - ^ $r14: .cfa 40 - ^ $r15: .cfa 48 - ^ $rbx: .cfa 0 - ^ $rbp: .cfa 0 - ^ $rsi: .cfa 0 - ^ .ra: .cfa 8 - ^
STACK CFI INIT 2bca4 10b .cfa: $rsp 80 + $r12: .cfa 16 - ^ $r14: .cfa 24 - ^ $r15: .cfa 32 - ^ $rbx: .cfa 0 - ^ $rbp: .cfa 0 - ^ $rsi: .cfa 0 - ^ $rdi: .cfa 0 - ^ .ra: .cfa 8 - ^
STACK CFI INIT 2bdc0 e9 .cfa: $rsp 8 + $rbx: .cfa 0 - ^ $rsi: .cfa 0 - ^ $rdi: .cfa 0 - ^ .ra: .cfa 8 - ^
STACK CFI INIT 2beb0 231 .cfa: $rsp 176 + $rbp: .cfa 16 - ^ $rbx: .cfa 24 - ^ $rsi: .cfa 32 - ^ $rdi: .cfa 40 - ^ $r12: .cfa 48 - ^ $r13: .cfa 56 - ^ $r14: .cfa 64 - ^ $r15: .cfa 72 - ^ .ra: .cfa 8 - ^
STACK CFI INIT 2c0e8 aa .cfa: $rsp 64 + $rbx: .cfa 16 - ^ .ra: .cfa 8 - ^
STACK CFI INIT 2c198 409 .cfa: $rsp 96 + $r12: .cfa 16 - ^ $r14: .cfa 24 - ^ $r15: .cfa 32 - ^ $rbx: .cfa 0 - ^ $rbp: .cfa 0 - ^ $rsi: .cfa 0 - ^ $rdi: .cfa 0 - ^ .ra: .cfa 8 - ^
STACK CFI INIT 2c5a8 a7 .cfa: $rsp 64 + $rdi: .cfa 16 - ^ $r14: .cfa 24 - ^ $r15: .cfa 32 - ^ $rbx: .cfa 0 - ^ $rbp: .cfa 0 - ^ $rsi: .cfa 0 - ^ .ra: .cfa 8 - ^
STACK CFI INIT 2c658 71 .cfa: $rsp 64 + $rdi: .cfa 16 - ^ $rbx: .cfa 0 - ^ $rsi: .cfa 0 - ^ .ra: .cfa 8 - ^
STACK CFI INIT 2c6d0 20 .cfa: $rsp 64 + .ra: .cfa 8 - ^
STACK CFI INIT 2c6f8 1b .cfa: $rsp 64 + .ra: .cfa 8 - ^
STACK CFI INIT 2c71c 11f .cfa: $rsp 112 + $rbp: .cfa 16 - ^ $rdi: .cfa 24 - ^ $r14: .cfa 32 - ^ $rbx: .cfa 0 - ^ $rsi: .cfa 0 - ^ .ra: .cfa 8 - ^
STACK CFI INIT 2c844 63 .cfa: $rsp 96 + $rdi: .cfa 16 - ^ $rbx: .cfa 0 - ^ .ra: .cfa 8 - ^
STACK CFI INIT 2c8b0 21 .cfa: $rsp 48 + $rbx: .cfa 16 - ^ .ra: .cfa 8 - ^
STACK CFI INIT 2c8e0 9f .cfa: $rsp 80 + $rdi: .cfa 16 - ^ $r14: .cfa 24 - ^ $r15: .cfa 32 - ^ $rbx: .cfa 0 - ^ $rbp: .cfa 0 - ^ $rsi: .cfa 0 - ^ .ra: .cfa 8 - ^
STACK CFI INIT 2c9e0 28 .cfa: $rsp 64 + .ra: .cfa 8 - ^
STACK CFI INIT 2ca10 489 .cfa: $rsp 192 + $rbx: .cfa 16 - ^ $rbp: .cfa 24 - ^ $rsi: .cfa 32 - ^ $rdi: .cfa 40 - ^ $r12: .cfa 48 - ^ $r13: .cfa 56 - ^ $r14: .cfa 64 - ^ $r15: .cfa 72 - ^ .ra: .cfa 8 - ^
STACK CFI INIT 2cea0 6e .cfa: $rsp 96 + .ra: .cfa 8 - ^
STACK CFI INIT 2cf20 53 .cfa: $rsp 64 + $rbx: .cfa 16 - ^ .ra: .cfa 8 - ^
STACK CFI INIT 2cf7c 41c .cfa: $rsp 224 + $rbx: .cfa 16 - ^ $rbp: .cfa 24 - ^ $rsi: .cfa 32 - ^ $rdi: .cfa 40 - ^ $r12: .cfa 48 - ^ $r13: .cfa 56 - ^ $r14: .cfa 64 - ^ $r15: .cfa 72 - ^ .ra: .cfa 8 - ^
STACK CFI INIT 2d3a0 397 .cfa: $rsp 768 + $rbx: .cfa 16 - ^ $rsi: .cfa 24 - ^ $rdi: .cfa 32 - ^ $r12: .cfa 40 - ^ $r13: .cfa 48 - ^ $r14: .cfa 56 - ^ $r15: .cfa 64 - ^ .ra: .cfa 8 - ^
STACK CFI INIT 2d740 51 .cfa: $rsp 192 + $rbx: .cfa 16 - ^ $rdi: .cfa 24 - ^ $r12: .cfa 32 - ^ $r13: .cfa 40 - ^ .ra: .cfa 8 - ^
STACK CFI INIT 2d791 432 .cfa: $rsp 192 + $rbp: .cfa 0 - ^ $rsi: .cfa 0 - ^ $r14: .cfa 0 - ^ $r15: .cfa 0 - ^ $rbx: .cfa 16 - ^ $rdi: .cfa 24 - ^ $r12: .cfa 32 - ^ $r13: .cfa 40 - ^ .ra: .cfa 8 - ^
STACK CFI INIT 2dbd0 b7c .cfa: $rsp 272 + $rbx: .cfa 16 - ^ $rsi: .cfa 24 - ^ $rdi: .cfa 32 - ^ $r12: .cfa 40 - ^ $r13: .cfa 48 - ^ $r14: .cfa 56 - ^ $r15: .cfa 64 - ^ .ra: .cfa 8 - ^
STACK CFI INIT 2e760 36 .cfa: $rsp 80 + $rbp: .cfa 16 - ^ .ra: .cfa 8 - ^
STACK CFI INIT 2e796 133 .cfa: $rsp 80 + $rbx: .cfa 0 - ^ $r14: .cfa 0 - ^ $rbp: .cfa 16 - ^ .ra: .cfa 8 - ^
STACK CFI INIT 2e8c9 78 .cfa: $rsp 80 + $rsi: .cfa 0 - ^ $rdi: .cfa 0 - ^ $rbx: .cfa 0 - ^ $r14: .cfa 0 - ^ $rbp: .cfa 16 - ^ .ra: .cfa 8 - ^
STACK CFI INIT 2e941 12 .cfa: $rsp 80 + $rbx: .cfa 0 - ^ $r14: .cfa 0 - ^ $rbp: .cfa 16 - ^ .ra: .cfa 8 - ^
STACK CFI INIT 2e953 bb .cfa: $rsp 80 + $rbx: .cfa 0 - ^ $rsi: .cfa 0 - ^ $rdi: .cfa 0 - ^ $r14: .cfa 0 - ^ $rbp: .cfa 16 - ^ .ra: .cfa 8 - ^
STACK CFI INIT 2ea0e 52 .cfa: $rsp 80 + $rbp: .cfa 16 - ^ .ra: .cfa 8 - ^
STACK CFI INIT 2ea60 4d .cfa: $rsp 80 + $rbx: .cfa 0 - ^ $rsi: .cfa 0 - ^ $rdi: .cfa 0 - ^ $r14: .cfa 0 - ^ $rbp: .cfa 16 - ^ .ra: .cfa 8 - ^
STACK CFI INIT 2eaad 38 .cfa: $rsp 80 + $rbx: .cfa 0 - ^ $r14: .cfa 0 - ^ $rbp: .cfa 16 - ^ .ra: .cfa 8 - ^
STACK CFI INIT 2eae5 10 .cfa: $rsp 80 + $rbp: .cfa 16 - ^ .ra: .cfa 8 - ^
STACK CFI INIT 2eaf5 13 .cfa: $rsp 80 + $rbx: .cfa 0 - ^ $r14: .cfa 0 - ^ $rbp: .cfa 16 - ^ .ra: .cfa 8 - ^
STACK CFI INIT 2eb08 10 .cfa: $rsp 80 + $rbp: .cfa 16 - ^ .ra: .cfa 8 - ^
STACK CFI INIT 2eb20 68 .cfa: $rsp 736 + $rbx: .cfa 16 - ^ $rsi: .cfa 24 - ^ $r12: .cfa 32 - ^ .ra: .cfa 8 - ^
STACK CFI INIT 2eb88 98 .cfa: $rsp 736 + $r13: .cfa 0 - ^ $rbp: .cfa 0 - ^ $rdi: .cfa 0 - ^ $rbx: .cfa 16 - ^ $rsi: .cfa 24 - ^ $r12: .cfa 32 - ^ .ra: .cfa 8 - ^
STACK CFI INIT 2ec20 197 .cfa: $rsp 736 + $r14: .cfa 0 - ^ $r15: .cfa 0 - ^ $r13: .cfa 0 - ^ $rbp: .cfa 0 - ^ $rdi: .cfa 0 - ^ $rbx: .cfa 16 - ^ $rsi: .cfa 24 - ^ $r12: .cfa 32 - ^ .ra: .cfa 8 - ^
STACK CFI INIT 2edb7 18 .cfa: $rsp 736 + $r13: .cfa 0 - ^ $rbp: .cfa 0 - ^ $rdi: .cfa 0 - ^ $rbx: .cfa 16 - ^ $rsi: .cfa 24 - ^ $r12: .cfa 32 - ^ .ra: .cfa 8 - ^
STACK CFI INIT 2edcf 1c .cfa: $rsp 736 + $rbx: .cfa 16 - ^ $rsi: .cfa 24 - ^ $r12: .cfa 32 - ^ .ra: .cfa 8 - ^
STACK CFI INIT 2edeb 8f .cfa: $rsp 736 + $rbp: .cfa 0 - ^ $rdi: .cfa 0 - ^ $r13: .cfa 0 - ^ $r14: .cfa 0 - ^ $r15: .cfa 0 - ^ $rbx: .cfa 16 - ^ $rsi: .cfa 24 - ^ $r12: .cfa 32 - ^ .ra: .cfa 8 - ^
STACK CFI INIT 2ee7a 9 .cfa: $rsp 736 + $r13: .cfa 0 - ^ $rbx: .cfa 16 - ^ $rsi: .cfa 24 - ^ $r12: .cfa 32 - ^ .ra: .cfa 8 - ^
STACK CFI INIT 2ee83 31 .cfa: $rsp 736 + $rbp: .cfa 0 - ^ $rdi: .cfa 0 - ^ $r13: .cfa 0 - ^ $r14: .cfa 0 - ^ $r15: .cfa 0 - ^ $rbx: .cfa 16 - ^ $rsi: .cfa 24 - ^ $r12: .cfa 32 - ^ .ra: .cfa 8 - ^
STACK CFI INIT 2eeb4 20 .cfa: $rsp 736 + $rbp: .cfa 0 - ^ $rdi: .cfa 0 - ^ $r13: .cfa 0 - ^ $rbx: .cfa 16 - ^ $rsi: .cfa 24 - ^ $r12: .cfa 32 - ^ .ra: .cfa 8 - ^
STACK CFI INIT 2eed4 27 .cfa: $rsp 736 + $rbp: .cfa 0 - ^ $rdi: .cfa 0 - ^ $r13: .cfa 0 - ^ $r14: .cfa 0 - ^ $r15: .cfa 0 - ^ $rbx: .cfa 16 - ^ $rsi: .cfa 24 - ^ $r12: .cfa 32 - ^ .ra: .cfa 8 - ^
STACK CFI INIT 2eefb 40 .cfa: $rsp 736 + $rbx: .cfa 16 - ^ $rsi: .cfa 24 - ^ $r12: .cfa 32 - ^ .ra: .cfa 8 - ^
STACK CFI INIT 2ef3b 3d .cfa: $rsp 736 + $rbp: .cfa 0 - ^ $rdi: .cfa 0 - ^ $r13: .cfa 0 - ^ $r14: .cfa 0 - ^ $r15: .cfa 0 - ^ $rbx: .cfa 16 - ^ $rsi: .cfa 24 - ^ $r12: .cfa 32 - ^ .ra: .cfa 8 - ^
STACK CFI INIT 2ef78 a .cfa: $rsp 736 + $rbp: .cfa 0 - ^ $rdi: .cfa 0 - ^ $r13: .cfa 0 - ^ $rbx: .cfa 16 - ^ $rsi: .cfa 24 - ^ $r12: .cfa 32 - ^ .ra: .cfa 8 - ^
STACK CFI INIT 2ef82 f .cfa: $rsp 736 + $rbx: .cfa 16 - ^ $rsi: .cfa 24 - ^ $r12: .cfa 32 - ^ .ra: .cfa 8 - ^
STACK CFI INIT 2ef91 a .cfa: $rsp 736 + $rbp: .cfa 0 - ^ $rdi: .cfa 0 - ^ $r13: .cfa 0 - ^ $rbx: .cfa 16 - ^ $rsi: .cfa 24 - ^ $r12: .cfa 32 - ^ .ra: .cfa 8 - ^
STACK CFI INIT 2ef9b 37 .cfa: $rsp 736 + $rbp: .cfa 0 - ^ $rdi: .cfa 0 - ^ $r13: .cfa 0 - ^ $r14: .cfa 0 - ^ $r15: .cfa 0 - ^ $rbx: .cfa 16 - ^ $rsi: .cfa 24 - ^ $r12: .cfa 32 - ^ .ra: .cfa 8 - ^
STACK CFI INIT 2f0a0 13d .cfa: $rsp 352 + $rbp: .cfa 16 - ^ $rbx: .cfa 24 - ^ $rsi: .cfa 32 - ^ $rdi: .cfa 40 - ^ $r12: .cfa 48 - ^ $r13: .cfa 56 - ^ $r14: .cfa 64 - ^ $r15: .cfa 72 - ^ .ra: .cfa 8 - ^
STACK CFI INIT 2f1f0 1122 .cfa: $rsp 624 + $rbx: .cfa 16 - ^ $rsi: .cfa 24 - ^ $rdi: .cfa 32 - ^ $r12: .cfa 40 - ^ $r13: .cfa 48 - ^ $r14: .cfa 56 - ^ $r15: .cfa 64 - ^ .ra: .cfa 8 - ^
STACK CFI INIT 30320 92 .cfa: $rsp 128 + $rsi: .cfa 16 - ^ $rdi: .cfa 24 - ^ $r13: .cfa 32 - ^ $r14: .cfa 40 - ^ $r15: .cfa 48 - ^ $rbx: .cfa 0 - ^ $rbp: .cfa 0 - ^ .ra: .cfa 8 - ^
STACK CFI INIT 303b2 11c .cfa: $rsp 128 + $r12: .cfa 0 - ^ $rsi: .cfa 16 - ^ $rdi: .cfa 24 - ^ $r13: .cfa 32 - ^ $r14: .cfa 40 - ^ $r15: .cfa 48 - ^ $rbx: .cfa 0 - ^ $rbp: .cfa 0 - ^ .ra: .cfa 8 - ^
STACK CFI INIT 304ce 1fc .cfa: $rsp 128 + $rsi: .cfa 16 - ^ $rdi: .cfa 24 - ^ $r13: .cfa 32 - ^ $r14: .cfa 40 - ^ $r15: .cfa 48 - ^ $rbx: .cfa 0 - ^ $rbp: .cfa 0 - ^ .ra: .cfa 8 - ^
STACK CFI INIT 306d0 db .cfa: $rsp 64 + $rdi: .cfa 16 - ^ $rbx: .cfa 0 - ^ .ra: .cfa 8 - ^
STACK CFI INIT 307c0 110 .cfa: $rsp 112 + $rsi: .cfa 16 - ^ $rdi: .cfa 24 - ^ $r12: .cfa 32 - ^ $r14: .cfa 40 - ^ $r15: .cfa 48 - ^ $rbx: .cfa 0 - ^ .ra: .cfa 8 - ^
STACK CFI INIT 308e0 73 .cfa: $rsp 64 + $rdi: .cfa 16 - ^ $rbx: .cfa 0 - ^ $rsi: .cfa 0 - ^ .ra: .cfa 8 - ^
STACK CFI INIT 30960 304 .cfa: $rsp 16 + $r14: .cfa 16 - ^ $rbx: .cfa 0 - ^ .ra: .cfa 8 - ^
STACK CFI INIT 30c90 10 .cfa: $rsp 272 + $rbx: .cfa 16 - ^ $rbp: .cfa 24 - ^ $r13: .cfa 32 - ^ $r14: .cfa 40 - ^ .ra: .cfa 8 - ^
STACK CFI INIT 30ca0 106 .cfa: $rsp 272 + $rsi: .cfa 0 - ^ $rdi: .cfa 0 - ^ $r12: .cfa 0 - ^ $r15: .cfa 0 - ^ $rbx: .cfa 16 - ^ $rbp: .cfa 24 - ^ $r13: .cfa 32 - ^ $r14: .cfa 40 - ^ .ra: .cfa 8 - ^
STACK CFI INIT 30da6 11 .cfa: $rsp 272 + $rbx: .cfa 16 - ^ $rbp: .cfa 24 - ^ $r13: .cfa 32 - ^ $r14: .cfa 40 - ^ .ra: .cfa 8 - ^
STACK CFI INIT 30db7 ec .cfa: $rsp 272 + $rsi: .cfa 0 - ^ $rdi: .cfa 0 - ^ $r12: .cfa 0 - ^ $r15: .cfa 0 - ^ $rbx: .cfa 16 - ^ $rbp: .cfa 24 - ^ $r13: .cfa 32 - ^ $r14: .cfa 40 - ^ .ra: .cfa 8 - ^
STACK CFI INIT 30eb0 f20 .cfa: $rsp 208 + $rbx: .cfa 16 - ^ $rbp: .cfa 24 - ^ $rsi: .cfa 32 - ^ $rdi: .cfa 40 - ^ $r12: .cfa 48 - ^ $r13: .cfa 56 - ^ $r14: .cfa 64 - ^ $r15: .cfa 72 - ^ .ra: .cfa 8 - ^
STACK CFI INIT 31de0 259b .cfa: $rsp 752 + $rbx: .cfa 16 - ^ $rsi: .cfa 24 - ^ $rdi: .cfa 32 - ^ $r12: .cfa 40 - ^ $r13: .cfa 48 - ^ $r14: .cfa 56 - ^ $r15: .cfa 64 - ^ .ra: .cfa 8 - ^
STACK CFI INIT 34390 5d .cfa: $rsp 272 + $rbp: .cfa 16 - ^ $rbx: .cfa 24 - ^ $rsi: .cfa 32 - ^ $rdi: .cfa 40 - ^ $r14: .cfa 48 - ^ $r15: .cfa 56 - ^ .ra: .cfa 8 - ^
STACK CFI INIT 343ed 48d .cfa: $rsp 272 + $r12: .cfa 0 - ^ $r13: .cfa 0 - ^ $rbp: .cfa 16 - ^ $rbx: .cfa 24 - ^ $rsi: .cfa 32 - ^ $rdi: .cfa 40 - ^ $r14: .cfa 48 - ^ $r15: .cfa 56 - ^ .ra: .cfa 8 - ^
STACK CFI INIT 3487a 2f .cfa: $rsp 272 + $rbp: .cfa 16 - ^ $rbx: .cfa 24 - ^ $rsi: .cfa 32 - ^ $rdi: .cfa 40 - ^ $r14: .cfa 48 - ^ $r15: .cfa 56 - ^ .ra: .cfa 8 - ^
STACK CFI INIT 348a9 366 .cfa: $rsp 272 + $r12: .cfa 0 - ^ $r13: .cfa 0 - ^ $rbp: .cfa 16 - ^ $rbx: .cfa 24 - ^ $rsi: .cfa 32 - ^ $rdi: .cfa 40 - ^ $r14: .cfa 48 - ^ $r15: .cfa 56 - ^ .ra: .cfa 8 - ^
STACK CFI INIT 34c0f 2b .cfa: $rsp 272 + $rbp: .cfa 16 - ^ $rbx: .cfa 24 - ^ $rsi: .cfa 32 - ^ $rdi: .cfa 40 - ^ $r14: .cfa 48 - ^ $r15: .cfa 56 - ^ .ra: .cfa 8 - ^
STACK CFI INIT 34c3a 34 .cfa: $rsp 272 + $r12: .cfa 0 - ^ $r13: .cfa 0 - ^ $rbp: .cfa 16 - ^ $rbx: .cfa 24 - ^ $rsi: .cfa 32 - ^ $rdi: .cfa 40 - ^ $r14: .cfa 48 - ^ $r15: .cfa 56 - ^ .ra: .cfa 8 - ^
STACK CFI INIT 34c6e 1d0 .cfa: $rsp 272 + $rbp: .cfa 16 - ^ $rbx: .cfa 24 - ^ $rsi: .cfa 32 - ^ $rdi: .cfa 40 - ^ $r14: .cfa 48 - ^ $r15: .cfa 56 - ^ .ra: .cfa 8 - ^
STACK CFI INIT 34e3e 1af .cfa: $rsp 272 + $r12: .cfa 0 - ^ $r13: .cfa 0 - ^ $rbp: .cfa 16 - ^ $rbx: .cfa 24 - ^ $rsi: .cfa 32 - ^ $rdi: .cfa 40 - ^ $r14: .cfa 48 - ^ $r15: .cfa 56 - ^ .ra: .cfa 8 - ^
STACK CFI INIT 34fed 8 .cfa: $rsp 272 + $rbp: .cfa 16 - ^ $rbx: .cfa 24 - ^ $rsi: .cfa 32 - ^ $rdi: .cfa 40 - ^ $r14: .cfa 48 - ^ $r15: .cfa 56 - ^ .ra: .cfa 8 - ^
STACK CFI INIT 34ff5 c1 .cfa: $rsp 272 + $r12: .cfa 0 - ^ $r13: .cfa 0 - ^ $rbp: .cfa 16 - ^ $rbx: .cfa 24 - ^ $rsi: .cfa 32 - ^ $rdi: .cfa 40 - ^ $r14: .cfa 48 - ^ $r15: .cfa 56 - ^ .ra: .cfa 8 - ^
STACK CFI INIT 350b6 a .cfa: $rsp 272 + $rbp: .cfa 16 - ^ $rbx: .cfa 24 - ^ $rsi: .cfa 32 - ^ $rdi: .cfa 40 - ^ $r14: .cfa 48 - ^ $r15: .cfa 56 - ^ .ra: .cfa 8 - ^
STACK CFI INIT 350d0 66 .cfa: $rsp 96 + $rbx: .cfa 16 - ^ $rsi: .cfa 24 - ^ $rdi: .cfa 32 - ^ $r12: .cfa 40 - ^ $r15: .cfa 48 - ^ .ra: .cfa 8 - ^
STACK CFI INIT 35136 153 .cfa: $rsp 96 + $r14: .cfa 0 - ^ $rbp: .cfa 0 - ^ $rbx: .cfa 16 - ^ $rsi: .cfa 24 - ^ $rdi: .cfa 32 - ^ $r12: .cfa 40 - ^ $r15: .cfa 48 - ^ .ra: .cfa 8 - ^
STACK CFI INIT 35289 eb .cfa: $rsp 96 + $r13: .cfa 0 - ^ $r14: .cfa 0 - ^ $rbp: .cfa 0 - ^ $rbx: .cfa 16 - ^ $rsi: .cfa 24 - ^ $rdi: .cfa 32 - ^ $r12: .cfa 40 - ^ $r15: .cfa 48 - ^ .ra: .cfa 8 - ^
STACK CFI INIT 35374 c3 .cfa: $rsp 96 + $r14: .cfa 0 - ^ $rbp: .cfa 0 - ^ $rbx: .cfa 16 - ^ $rsi: .cfa 24 - ^ $rdi: .cfa 32 - ^ $r12: .cfa 40 - ^ $r15: .cfa 48 - ^ .ra: .cfa 8 - ^
STACK CFI INIT 35437 ad .cfa: $rsp 96 + $rbp: .cfa 0 - ^ $r14: .cfa 0 - ^ $rbx: .cfa 16 - ^ $rsi: .cfa 24 - ^ $rdi: .cfa 32 - ^ $r12: .cfa 40 - ^ $r15: .cfa 48 - ^ .ra: .cfa 8 - ^
STACK CFI INIT 354e4 22 .cfa: $rsp 96 + $rbp: .cfa 0 - ^ $r13: .cfa 0 - ^ $r14: .cfa 0 - ^ $rbx: .cfa 16 - ^ $rsi: .cfa 24 - ^ $rdi: .cfa 32 - ^ $r12: .cfa 40 - ^ $r15: .cfa 48 - ^ .ra: .cfa 8 - ^
STACK CFI INIT 35506 20 .cfa: $rsp 96 + $rbp: .cfa 0 - ^ $r14: .cfa 0 - ^ $rbx: .cfa 16 - ^ $rsi: .cfa 24 - ^ $rdi: .cfa 32 - ^ $r12: .cfa 40 - ^ $r15: .cfa 48 - ^ .ra: .cfa 8 - ^
STACK CFI INIT 35526 3c .cfa: $rsp 96 + $rbx: .cfa 16 - ^ $rsi: .cfa 24 - ^ $rdi: .cfa 32 - ^ $r12: .cfa 40 - ^ $r15: .cfa 48 - ^ .ra: .cfa 8 - ^
STACK CFI INIT 35562 25 .cfa: $rsp 96 + $rbp: .cfa 0 - ^ $r14: .cfa 0 - ^ $rbx: .cfa 16 - ^ $rsi: .cfa 24 - ^ $rdi: .cfa 32 - ^ $r12: .cfa 40 - ^ $r15: .cfa 48 - ^ .ra: .cfa 8 - ^
STACK CFI INIT 35587 14 .cfa: $rsp 96 + $rbx: .cfa 16 - ^ $rsi: .cfa 24 - ^ $rdi: .cfa 32 - ^ $r12: .cfa 40 - ^ $r15: .cfa 48 - ^ .ra: .cfa 8 - ^
STACK CFI INIT 3559b 3f .cfa: $rsp 96 + $rbp: .cfa 0 - ^ $r14: .cfa 0 - ^ $rbx: .cfa 16 - ^ $rsi: .cfa 24 - ^ $rdi: .cfa 32 - ^ $r12: .cfa 40 - ^ $r15: .cfa 48 - ^ .ra: .cfa 8 - ^
STACK CFI INIT 355da 7a .cfa: $rsp 96 + $rbp: .cfa 0 - ^ $r13: .cfa 0 - ^ $r14: .cfa 0 - ^ $rbx: .cfa 16 - ^ $rsi: .cfa 24 - ^ $rdi: .cfa 32 - ^ $r12: .cfa 40 - ^ $r15: .cfa 48 - ^ .ra: .cfa 8 - ^
STACK CFI INIT 35654 3c .cfa: $rsp 96 + $rbp: .cfa 0 - ^ $r14: .cfa 0 - ^ $rbx: .cfa 16 - ^ $rsi: .cfa 24 - ^ $rdi: .cfa 32 - ^ $r12: .cfa 40 - ^ $r15: .cfa 48 - ^ .ra: .cfa 8 - ^
STACK CFI INIT 35690 17 .cfa: $rsp 96 + $rbp: .cfa 0 - ^ $r13: .cfa 0 - ^ $r14: .cfa 0 - ^ $rbx: .cfa 16 - ^ $rsi: .cfa 24 - ^ $rdi: .cfa 32 - ^ $r12: .cfa 40 - ^ $r15: .cfa 48 - ^ .ra: .cfa 8 - ^
STACK CFI INIT 356a7 1c .cfa: $rsp 96 + $rbp: .cfa 0 - ^ $r14: .cfa 0 - ^ $rbx: .cfa 16 - ^ $rsi: .cfa 24 - ^ $rdi: .cfa 32 - ^ $r12: .cfa 40 - ^ $r15: .cfa 48 - ^ .ra: .cfa 8 - ^
STACK CFI INIT 356d0 27 .cfa: $rsp 160 + $rbx: .cfa 16 - ^ $rbp: .cfa 24 - ^ $rsi: .cfa 32 - ^ $rdi: .cfa 40 - ^ $r14: .cfa 48 - ^ .ra: .cfa 8 - ^
STACK CFI INIT 356f7 60 .cfa: $rsp 160 + $r15: .cfa 0 - ^ $rbx: .cfa 16 - ^ $rbp: .cfa 24 - ^ $rsi: .cfa 32 - ^ $rdi: .cfa 40 - ^ $r14: .cfa 48 - ^ .ra: .cfa 8 - ^
STACK CFI INIT 35757 11c .cfa: $rsp 160 + $r12: .cfa 0 - ^ $r15: .cfa 0 - ^ $rbx: .cfa 16 - ^ $rbp: .cfa 24 - ^ $rsi: .cfa 32 - ^ $rdi: .cfa 40 - ^ $r14: .cfa 48 - ^ .ra: .cfa 8 - ^
STACK CFI INIT 35873 12 .cfa: $rsp 160 + $r15: .cfa 0 - ^ $rbx: .cfa 16 - ^ $rbp: .cfa 24 - ^ $rsi: .cfa 32 - ^ $rdi: .cfa 40 - ^ $r14: .cfa 48 - ^ .ra: .cfa 8 - ^
STACK CFI INIT 35885 1a0 .cfa: $rsp 160 + $r12: .cfa 0 - ^ $r15: .cfa 0 - ^ $rbx: .cfa 16 - ^ $rbp: .cfa 24 - ^ $rsi: .cfa 32 - ^ $rdi: .cfa 40 - ^ $r14: .cfa 48 - ^ .ra: .cfa 8 - ^
STACK CFI INIT 35a25 1b .cfa: $rsp 160 + $r15: .cfa 0 - ^ $rbx: .cfa 16 - ^ $rbp: .cfa 24 - ^ $rsi: .cfa 32 - ^ $rdi: .cfa 40 - ^ $r14: .cfa 48 - ^ .ra: .cfa 8 - ^
STACK CFI INIT 35a40 10 .cfa: $rsp 160 + $rbx: .cfa 16 - ^ $rbp: .cfa 24 - ^ $rsi: .cfa 32 - ^ $rdi: .cfa 40 - ^ $r14: .cfa 48 - ^ .ra: .cfa 8 - ^
STACK CFI INIT 35a50 1ae .cfa: $rsp 160 + $r12: .cfa 0 - ^ $r15: .cfa 0 - ^ $rbx: .cfa 16 - ^ $rbp: .cfa 24 - ^ $rsi: .cfa 32 - ^ $rdi: .cfa 40 - ^ $r14: .cfa 48 - ^ .ra: .cfa 8 - ^
STACK CFI INIT 35c10 19f9 .cfa: $rsp 560 + $rdi: .cfa 16 - ^ $r12: .cfa 24 - ^ $r13: .cfa 32 - ^ $r14: .cfa 40 - ^ $r15: .cfa 48 - ^ $rbx: .cfa 0 - ^ $rsi: .cfa 0 - ^ .ra: .cfa 8 - ^
STACK CFI INIT 37610 65 .cfa: $rsp 48 + $rbx: .cfa 16 - ^ .ra: .cfa 8 - ^
STACK CFI INIT 376a0 53 .cfa: $rsp 48 + $rdi: .cfa 16 - ^ $rbx: .cfa 0 - ^ $rsi: .cfa 0 - ^ .ra: .cfa 8 - ^
STACK CFI INIT 376fc 196 .cfa: $rsp 80 + $rdi: .cfa 16 - ^ $r12: .cfa 24 - ^ $r13: .cfa 32 - ^ $r14: .cfa 40 - ^ $r15: .cfa 48 - ^ $rbx: .cfa 0 - ^ $rbp: .cfa 0 - ^ $rsi: .cfa 0 - ^ .ra: .cfa 8 - ^
STACK CFI INIT 37898 5d8 .cfa: $rsp 176 + $rbp: .cfa 16 - ^ $rsi: .cfa 24 - ^ $rdi: .cfa 32 - ^ $r12: .cfa 40 - ^ $r13: .cfa 48 - ^ $r14: .cfa 56 - ^ $r15: .cfa 64 - ^ $rbx: .cfa 0 - ^ .ra: .cfa 8 - ^
STACK CFI INIT 37e80 19 .cfa: $rsp 160 + $rbx: .cfa 16 - ^ $rsi: .cfa 24 - ^ .ra: .cfa 8 - ^
STACK CFI INIT 37e99 318 .cfa: $rsp 160 + $rbp: .cfa 0 - ^ $rdi: .cfa 0 - ^ $r12: .cfa 0 - ^ $r14: .cfa 0 - ^ $r15: .cfa 0 - ^ $r13: .cfa 0 - ^ $rbx: .cfa 16 - ^ $rsi: .cfa 24 - ^ .ra: .cfa 8 - ^
STACK CFI INIT 381b1 1 .cfa: $rsp 160 + $rbx: .cfa 16 - ^ $rsi: .cfa 24 - ^ .ra: .cfa 8 - ^
STACK CFI INIT 381b2 44 .cfa: $rsp 160 + $rbp: .cfa 0 - ^ $rdi: .cfa 0 - ^ $r12: .cfa 0 - ^ $r13: .cfa 0 - ^ $r14: .cfa 0 - ^ $r15: .cfa 0 - ^ $rbx: .cfa 16 - ^ $rsi: .cfa 24 - ^ .ra: .cfa 8 - ^
STACK CFI INIT 381f6 8 .cfa: $rsp 160 + $rbp: .cfa 0 - ^ $rdi: .cfa 0 - ^ $r12: .cfa 0 - ^ $r14: .cfa 0 - ^ $r15: .cfa 0 - ^ $rbx: .cfa 16 - ^ $rsi: .cfa 24 - ^ .ra: .cfa 8 - ^
STACK CFI INIT 381fe 2c .cfa: $rsp 160 + $rbp: .cfa 0 - ^ $rdi: .cfa 0 - ^ $r12: .cfa 0 - ^ $r13: .cfa 0 - ^ $r14: .cfa 0 - ^ $r15: .cfa 0 - ^ $rbx: .cfa 16 - ^ $rsi: .cfa 24 - ^ .ra: .cfa 8 - ^
STACK CFI INIT 3822a 12 .cfa: $rsp 160 + $rbp: .cfa 0 - ^ $rdi: .cfa 0 - ^ $r12: .cfa 0 - ^ $r14: .cfa 0 - ^ $r15: .cfa 0 - ^ $rbx: .cfa 16 - ^ $rsi: .cfa 24 - ^ .ra: .cfa 8 - ^
STACK CFI INIT 3823c 4d .cfa: $rsp 160 + $rbp: .cfa 0 - ^ $rdi: .cfa 0 - ^ $r12: .cfa 0 - ^ $r13: .cfa 0 - ^ $r14: .cfa 0 - ^ $r15: .cfa 0 - ^ $rbx: .cfa 16 - ^ $rsi: .cfa 24 - ^ .ra: .cfa 8 - ^
STACK CFI INIT 38290 3d .cfa: $rsp 128 + $rdi: .cfa 16 - ^ $r12: .cfa 24 - ^ $r15: .cfa 32 - ^ $rbx: .cfa 0 - ^ $rbp: .cfa 0 - ^ $rsi: .cfa 0 - ^ .ra: .cfa 8 - ^
STACK CFI INIT 382cd 139 .cfa: $rsp 128 + $r14: .cfa 0 - ^ $rdi: .cfa 16 - ^ $r12: .cfa 24 - ^ $r15: .cfa 32 - ^ $rbx: .cfa 0 - ^ $rbp: .cfa 0 - ^ $rsi: .cfa 0 - ^ .ra: .cfa 8 - ^
STACK CFI INIT 38406 1a .cfa: $rsp 128 + $rdi: .cfa 16 - ^ $r12: .cfa 24 - ^ $r15: .cfa 32 - ^ $rbx: .cfa 0 - ^ $rbp: .cfa 0 - ^ $rsi: .cfa 0 - ^ .ra: .cfa 8 - ^
STACK CFI INIT 38420 5 .cfa: $rsp 128 + $r14: .cfa 0 - ^ $rdi: .cfa 16 - ^ $r12: .cfa 24 - ^ $r15: .cfa 32 - ^ $rbx: .cfa 0 - ^ $rbp: .cfa 0 - ^ $rsi: .cfa 0 - ^ .ra: .cfa 8 - ^
STACK CFI INIT 38425 5 .cfa: $rsp 128 + $rdi: .cfa 16 - ^ $r12: .cfa 24 - ^ $r15: .cfa 32 - ^ $rbx: .cfa 0 - ^ $rbp: .cfa 0 - ^ $rsi: .cfa 0 - ^ .ra: .cfa 8 - ^
STACK CFI INIT 3842a 132 .cfa: $rsp 128 + $r14: .cfa 0 - ^ $rdi: .cfa 16 - ^ $r12: .cfa 24 - ^ $r15: .cfa 32 - ^ $rbx: .cfa 0 - ^ $rbp: .cfa 0 - ^ $rsi: .cfa 0 - ^ .ra: .cfa 8 - ^
STACK CFI INIT 38564 4a2 .cfa: $rsp 224 + $rbp: .cfa 16 - ^ $rbx: .cfa 24 - ^ $rsi: .cfa 32 - ^ $rdi: .cfa 40 - ^ $r12: .cfa 48 - ^ $r13: .cfa 56 - ^ $r14: .cfa 64 - ^ $r15: .cfa 72 - ^ .ra: .cfa 8 - ^
STACK CFI INIT 38a10 1316 .cfa: $rsp 992 + $rdi: .cfa 16 - ^ $r12: .cfa 24 - ^ $r13: .cfa 32 - ^ $r14: .cfa 40 - ^ $r15: .cfa 48 - ^ $rbx: .cfa 0 - ^ $rsi: .cfa 0 - ^ .ra: .cfa 8 - ^
STACK CFI INIT 39d30 37c .cfa: $rsp 272 + $rbp: .cfa 16 - ^ $r12: .cfa 24 - ^ $r13: .cfa 32 - ^ $r14: .cfa 40 - ^ $r15: .cfa 48 - ^ $rbx: .cfa 0 - ^ $rsi: .cfa 0 - ^ $rdi: .cfa 0 - ^ .ra: .cfa 8 - ^
STACK CFI INIT 3a0c0 19a .cfa: $rsp 256 + $rbp: .cfa 16 - ^ $rbx: .cfa 0 - ^ .ra: .cfa 8 - ^
STACK CFI INIT 3a260 48d .cfa: $rsp 160 + $rbp: .cfa 16 - ^ $rsi: .cfa 24 - ^ $rdi: .cfa 32 - ^ $r12: .cfa 40 - ^ $r13: .cfa 48 - ^ $r14: .cfa 56 - ^ $r15: .cfa 64 - ^ $rbx: .cfa 0 - ^ .ra: .cfa 8 - ^
STACK CFI INIT 3a700 47 .cfa: $rsp 48 + $rdi: .cfa 16 - ^ $rbx: .cfa 0 - ^ .ra: .cfa 8 - ^
STACK CFI INIT 3a750 55 .cfa: $rsp 112 + $rbx: .cfa 16 - ^ $rbp: .cfa 24 - ^ $rsi: .cfa 32 - ^ $rdi: .cfa 40 - ^ $r12: .cfa 48 - ^ $r13: .cfa 56 - ^ $r14: .cfa 64 - ^ .ra: .cfa 8 - ^
STACK CFI INIT 3a7a5 36e .cfa: $rsp 112 + $r15: .cfa 0 - ^ $rbx: .cfa 16 - ^ $rbp: .cfa 24 - ^ $rsi: .cfa 32 - ^ $rdi: .cfa 40 - ^ $r12: .cfa 48 - ^ $r13: .cfa 56 - ^ $r14: .cfa 64 - ^ .ra: .cfa 8 - ^
STACK CFI INIT 3ab13 16 .cfa: $rsp 112 + $rbx: .cfa 16 - ^ $rbp: .cfa 24 - ^ $rsi: .cfa 32 - ^ $rdi: .cfa 40 - ^ $r12: .cfa 48 - ^ $r13: .cfa 56 - ^ $r14: .cfa 64 - ^ .ra: .cfa 8 - ^
STACK CFI INIT 3ab29 6f .cfa: $rsp 112 + $r15: .cfa 0 - ^ $rbx: .cfa 16 - ^ $rbp: .cfa 24 - ^ $rsi: .cfa 32 - ^ $rdi: .cfa 40 - ^ $r12: .cfa 48 - ^ $r13: .cfa 56 - ^ $r14: .cfa 64 - ^ .ra: .cfa 8 - ^
STACK CFI INIT 3aba0 16c .cfa: $rsp 112 + $rbp: .cfa 16 - ^ $rdi: .cfa 24 - ^ $r14: .cfa 32 - ^ $rbx: .cfa 0 - ^ .ra: .cfa 8 - ^
STACK CFI INIT 3ad20 21 .cfa: $rsp 48 + $rdi: .cfa 16 - ^ $rbx: .cfa 0 - ^ .ra: .cfa 8 - ^
STACK CFI INIT 3ad50 25 .cfa: $rsp 112 + $rbx: .cfa 16 - ^ $rsi: .cfa 24 - ^ $r12: .cfa 32 - ^ $r14: .cfa 40 - ^ .ra: .cfa 8 - ^
STACK CFI INIT 3ad75 a .cfa: $rsp 112 + $rbp: .cfa 0 - ^ $rdi: .cfa 0 - ^ $rbx: .cfa 16 - ^ $rsi: .cfa 24 - ^ $r12: .cfa 32 - ^ $r14: .cfa 40 - ^ .ra: .cfa 8 - ^
STACK CFI INIT 3ad7f d0 .cfa: $rsp 112 + $r13: .cfa 0 - ^ $r15: .cfa 0 - ^ $rbp: .cfa 0 - ^ $rdi: .cfa 0 - ^ $rbx: .cfa 16 - ^ $rsi: .cfa 24 - ^ $r12: .cfa 32 - ^ $r14: .cfa 40 - ^ .ra: .cfa 8 - ^
STACK CFI INIT 3ae4f 159 .cfa: $rsp 112 + $r15: .cfa 0 - ^ $rbp: .cfa 0 - ^ $rdi: .cfa 0 - ^ $rbx: .cfa 16 - ^ $rsi: .cfa 24 - ^ $r12: .cfa 32 - ^ $r14: .cfa 40 - ^ .ra: .cfa 8 - ^
STACK CFI INIT 3afa8 b .cfa: $rsp 112 + $rbx: .cfa 16 - ^ $rsi: .cfa 24 - ^ $r12: .cfa 32 - ^ $r14: .cfa 40 - ^ .ra: .cfa 8 - ^
STACK CFI INIT 3afb3 70 .cfa: $rsp 112 + $rbp: .cfa 0 - ^ $rdi: .cfa 0 - ^ $r15: .cfa 0 - ^ $rbx: .cfa 16 - ^ $rsi: .cfa 24 - ^ $r12: .cfa 32 - ^ $r14: .cfa 40 - ^ .ra: .cfa 8 - ^
STACK CFI INIT 3b02c 101 .cfa: $rsp 80 + $rdi: .cfa 16 - ^ $r12: .cfa 24 - ^ $r13: .cfa 32 - ^ $r14: .cfa 40 - ^ $r15: .cfa 48 - ^ $rbx: .cfa 0 - ^ $rbp: .cfa 0 - ^ $rsi: .cfa 0 - ^ .ra: .cfa 8 - ^
STACK CFI INIT 3b160 1d9 .cfa: $rsp 128 + $rbp: .cfa 16 - ^ $rsi: .cfa 24 - ^ $rdi: .cfa 32 - ^ $r12: .cfa 40 - ^ $r13: .cfa 48 - ^ $r14: .cfa 56 - ^ $r15: .cfa 64 - ^ $rbx: .cfa 0 - ^ .ra: .cfa 8 - ^
STACK CFI INIT 3b340 1e .cfa: $rsp 48 + .ra: .cfa 8 - ^
STACK CFI INIT 3b364 1e .cfa: $rsp 48 + .ra: .cfa 8 - ^
STACK CFI INIT 3b388 21 .cfa: $rsp 48 + .ra: .cfa 8 - ^
STACK CFI INIT 3b3b0 3a .cfa: $rsp 16 + $rbx: .cfa 16 - ^ .ra: .cfa 8 - ^
STACK CFI INIT 3b3ea 48 .cfa: $rsp 16 + $rdi: .cfa 0 - ^ $rbx: .cfa 16 - ^ .ra: .cfa 8 - ^
STACK CFI INIT 3b432 6 .cfa: $rsp 16 + $rbx: .cfa 16 - ^ .ra: .cfa 8 - ^
STACK CFI INIT 3b438 6 .cfa: $rsp 16 + $rdi: .cfa 0 - ^ $rbx: .cfa 16 - ^ .ra: .cfa 8 - ^
STACK CFI INIT 3b43e 2d .cfa: $rsp 16 + $rbx: .cfa 16 - ^ .ra: .cfa 8 - ^
STACK CFI INIT 3b46b 33 .cfa: $rsp 16 + $rdi: .cfa 0 - ^ $rbx: .cfa 16 - ^ .ra: .cfa 8 - ^
STACK CFI INIT 3b49e 7 .cfa: $rsp 16 + $rbx: .cfa 16 - ^ .ra: .cfa 8 - ^
STACK CFI INIT 3b4b0 18 .cfa: $rsp 16 + .ra: .cfa 8 - ^
STACK CFI INIT 3b4c8 4a .cfa: $rsp 16 + $rbx: .cfa 8 - ^ .ra: .cfa 8 - ^
STACK CFI INIT 3b512 1c .cfa: $rsp 16 + $rbx: .cfa 8 - ^ .ra: .cfa 8 - ^
STACK CFI INIT 3b52e 7 .cfa: $rsp 16 + .ra: .cfa 8 - ^
STACK CFI INIT 3b535 29 .cfa: $rsp 16 + $rbx: .cfa 8 - ^ .ra: .cfa 8 - ^
STACK CFI INIT 3b55e 20 .cfa: $rsp 16 + $rbx: .cfa 8 - ^ .ra: .cfa 8 - ^
STACK CFI INIT 3b6b0 44 .cfa: $rsp 64 + $rbx: .cfa 16 - ^ .ra: .cfa 8 - ^
STACK CFI INIT 3b740 32 .cfa: $rsp 64 + $rbp: .cfa 16 - ^ $rdi: .cfa 24 - ^ $r12: .cfa 32 - ^ $rbx: .cfa 0 - ^ .ra: .cfa 8 - ^
STACK CFI INIT 3b772 d8 .cfa: $rsp 64 + $rsi: .cfa 0 - ^ $r14: .cfa 0 - ^ $r15: .cfa 0 - ^ $rbp: .cfa 16 - ^ $rdi: .cfa 24 - ^ $r12: .cfa 32 - ^ $rbx: .cfa 0 - ^ .ra: .cfa 8 - ^
STACK CFI INIT 3b84a 17 .cfa: $rsp 64 + $rsi: .cfa 0 - ^ $r14: .cfa 0 - ^ $r15: .cfa 0 - ^ $rbp: .cfa 16 - ^ $rdi: .cfa 24 - ^ $r12: .cfa 32 - ^ $rbx: .cfa 0 - ^ .ra: .cfa 8 - ^
STACK CFI INIT 3b861 8f .cfa: $rsp 64 + $rbp: .cfa 16 - ^ $rdi: .cfa 24 - ^ $r12: .cfa 32 - ^ $rbx: .cfa 0 - ^ .ra: .cfa 8 - ^
STACK CFI INIT 3b8f0 34 .cfa: $rsp 64 + $rsi: .cfa 0 - ^ $r14: .cfa 0 - ^ $r15: .cfa 0 - ^ $rbp: .cfa 16 - ^ $rdi: .cfa 24 - ^ $r12: .cfa 32 - ^ $rbx: .cfa 0 - ^ .ra: .cfa 8 - ^
STACK CFI INIT 3b924 19 .cfa: $rsp 64 + $rbp: .cfa 16 - ^ $rdi: .cfa 24 - ^ $r12: .cfa 32 - ^ $rbx: .cfa 0 - ^ .ra: .cfa 8 - ^
STACK CFI INIT 3b93d a .cfa: $rsp 64 + $rsi: .cfa 0 - ^ $r14: .cfa 0 - ^ $r15: .cfa 0 - ^ $rbp: .cfa 16 - ^ $rdi: .cfa 24 - ^ $r12: .cfa 32 - ^ $rbx: .cfa 0 - ^ .ra: .cfa 8 - ^
STACK CFI INIT 3b947 f .cfa: $rsp 64 + $rbp: .cfa 16 - ^ $rdi: .cfa 24 - ^ $r12: .cfa 32 - ^ $rbx: .cfa 0 - ^ .ra: .cfa 8 - ^
STACK CFI INIT 3b960 16d .cfa: $rsp 112 + $rbp: .cfa 16 - ^ $rdi: .cfa 24 - ^ $r15: .cfa 32 - ^ $rbx: .cfa 0 - ^ $rsi: .cfa 0 - ^ .ra: .cfa 8 - ^
STACK CFI INIT 3bae0 3ec .cfa: $rsp 160 + $rdi: .cfa 16 - ^ $r12: .cfa 24 - ^ $r13: .cfa 32 - ^ $r14: .cfa 40 - ^ $r15: .cfa 48 - ^ $rbx: .cfa 0 - ^ $rsi: .cfa 0 - ^ .ra: .cfa 8 - ^
STACK CFI INIT 3bed4 4f .cfa: $rsp 64 + $rdi: .cfa 16 - ^ $rbx: .cfa 0 - ^ $rsi: .cfa 0 - ^ .ra: .cfa 8 - ^
STACK CFI INIT 3bf2c 6a .cfa: $rsp 48 + $rbx: .cfa 16 - ^ .ra: .cfa 8 - ^
STACK CFI INIT 3bfa0 16 .cfa: $rsp 48 + $rbx: .cfa 16 - ^ .ra: .cfa 8 - ^
STACK CFI INIT 3bfb6 1b .cfa: $rsp 48 + $rdi: .cfa 0 - ^ $rbx: .cfa 16 - ^ .ra: .cfa 8 - ^
STACK CFI INIT 3bfd1 8 .cfa: $rsp 48 + $rbx: .cfa 16 - ^ .ra: .cfa 8 - ^
STACK CFI INIT 3bfd9 36 .cfa: $rsp 48 + $rdi: .cfa 0 - ^ $rbx: .cfa 16 - ^ .ra: .cfa 8 - ^
STACK CFI INIT 3c00f a .cfa: $rsp 48 + $rdi: .cfa 0 - ^ $rbx: .cfa 16 - ^ .ra: .cfa 8 - ^
STACK CFI INIT 3c020 d7 .cfa: $rsp 48 + .ra: .cfa 8 - ^
STACK CFI INIT 3c100 24f .cfa: $rsp 80 + $rdi: .cfa 16 - ^ $r12: .cfa 24 - ^ $r13: .cfa 32 - ^ $r14: .cfa 40 - ^ $r15: .cfa 48 - ^ $rbx: .cfa 0 - ^ $rbp: .cfa 0 - ^ $rsi: .cfa 0 - ^ .ra: .cfa 8 - ^
STACK CFI INIT 3c358 1ba .cfa: $rsp 448 + $rbp: .cfa 16 - ^ $rbx: .cfa 24 - ^ $rsi: .cfa 32 - ^ $rdi: .cfa 40 - ^ $r13: .cfa 48 - ^ $r14: .cfa 56 - ^ $r15: .cfa 64 - ^ .ra: .cfa 8 - ^
STACK CFI INIT 3c530 28 .cfa: $rsp 48 + .ra: .cfa 8 - ^
STACK CFI INIT 3c560 22 .cfa: $rsp 48 + $rbx: .cfa 16 - ^ .ra: .cfa 8 - ^
STACK CFI INIT 3c588 2d1 .cfa: $rsp 208 + $rbp: .cfa 16 - ^ $rbx: .cfa 24 - ^ $rsi: .cfa 32 - ^ $rdi: .cfa 40 - ^ .ra: .cfa 8 - ^
STACK CFI INIT 3c860 e9 .cfa: $rsp 48 + $rdi: .cfa 16 - ^ $rbx: .cfa 0 - ^ $rsi: .cfa 0 - ^ .ra: .cfa 8 - ^
STACK CFI INIT 3c950 676 .cfa: $rsp 1056 + $rdi: .cfa 16 - ^ $r12: .cfa 24 - ^ $r13: .cfa 32 - ^ $r14: .cfa 40 - ^ $r15: .cfa 48 - ^ $rbx: .cfa 0 - ^ $rsi: .cfa 0 - ^ .ra: .cfa 8 - ^
STACK CFI INIT 3cfd0 28 .cfa: $rsp 80 + .ra: .cfa 8 - ^
STACK CFI INIT 3d000 d8 .cfa: $rsp 80 + $rdi: .cfa 16 - ^ $r14: .cfa 24 - ^ $r15: .cfa 32 - ^ $rbx: .cfa 0 - ^ $rbp: .cfa 0 - ^ $rsi: .cfa 0 - ^ .ra: .cfa 8 - ^
STACK CFI INIT 3d0e0 59 .cfa: $rsp 128 + $rsi: .cfa 16 - ^ $rdi: .cfa 24 - ^ $r12: .cfa 32 - ^ $r14: .cfa 40 - ^ $r15: .cfa 48 - ^ $rbx: .cfa 0 - ^ $rbp: .cfa 0 - ^ .ra: .cfa 8 - ^
STACK CFI INIT 3d139 1d3 .cfa: $rsp 128 + $r13: .cfa 0 - ^ $rsi: .cfa 16 - ^ $rdi: .cfa 24 - ^ $r12: .cfa 32 - ^ $r14: .cfa 40 - ^ $r15: .cfa 48 - ^ $rbx: .cfa 0 - ^ $rbp: .cfa 0 - ^ .ra: .cfa 8 - ^
STACK CFI INIT 3d320 fd .cfa: $rsp 80 + $rbx: .cfa 16 - ^ .ra: .cfa 8 - ^
STACK CFI INIT 3d424 80 .cfa: $rsp 48 + .ra: .cfa 8 - ^
STACK CFI INIT 3d4ac 1e5 .cfa: $rsp 288 + $rbp: .cfa 16 - ^ $rbx: .cfa 24 - ^ $rsi: .cfa 32 - ^ $rdi: .cfa 40 - ^ $r12: .cfa 48 - ^ $r13: .cfa 56 - ^ $r14: .cfa 64 - ^ $r15: .cfa 72 - ^ .ra: .cfa 8 - ^
STACK CFI INIT 3d698 8f .cfa: $rsp 48 + $rdi: .cfa 16 - ^ $rbx: .cfa 0 - ^ $rbp: .cfa 0 - ^ $rsi: .cfa 0 - ^ .ra: .cfa 8 - ^
STACK CFI INIT 3d730 5a .cfa: $rsp 64 + $rdi: .cfa 16 - ^ $rbx: .cfa 0 - ^ $rbp: .cfa 0 - ^ $rsi: .cfa 0 - ^ .ra: .cfa 8 - ^
STACK CFI INIT 3d82c 1bb .cfa: $rsp 48 + $rdi: .cfa 16 - ^ $rbx: .cfa 0 - ^ $rbp: .cfa 0 - ^ $rsi: .cfa 0 - ^ .ra: .cfa 8 - ^
STACK CFI INIT 3d9f0 ff .cfa: $rsp 64 + $rdi: .cfa 16 - ^ $rbx: .cfa 0 - ^ .ra: .cfa 8 - ^
STACK CFI INIT 3daf8 f8 .cfa: $rsp 96 + $rdi: .cfa 16 - ^ $r12: .cfa 24 - ^ $r13: .cfa 32 - ^ $r14: .cfa 40 - ^ $r15: .cfa 48 - ^ $rbx: .cfa 0 - ^ $rbp: .cfa 0 - ^ $rsi: .cfa 0 - ^ .ra: .cfa 8 - ^
STACK CFI INIT 3dc00 84 .cfa: $rsp 96 + $rdi: .cfa 16 - ^ $rbx: .cfa 0 - ^ .ra: .cfa 8 - ^
STACK CFI INIT 3dc8c 3a .cfa: $rsp 48 + $rdi: .cfa 16 - ^ $rbx: .cfa 0 - ^ $rsi: .cfa 0 - ^ .ra: .cfa 8 - ^
STACK CFI INIT 3dcd0 7f .cfa: $rsp 96 + $rdi: .cfa 16 - ^ $rbx: .cfa 0 - ^ .ra: .cfa 8 - ^
STACK CFI INIT 3dd58 18a .cfa: $rsp 208 + $rbp: .cfa 16 - ^ $rsi: .cfa 24 - ^ $rdi: .cfa 32 - ^ $r12: .cfa 40 - ^ $r13: .cfa 48 - ^ $r14: .cfa 56 - ^ $r15: .cfa 64 - ^ $rbx: .cfa 0 - ^ .ra: .cfa 8 - ^
STACK CFI INIT 3df10 3f .cfa: $rsp 48 + $rbx: .cfa 16 - ^ .ra: .cfa 8 - ^
STACK CFI INIT 3df60 55 .cfa: $rsp 48 + $rbx: .cfa 16 - ^ .ra: .cfa 8 - ^
STACK CFI INIT 3dfbc 52 .cfa: $rsp 48 + .ra: .cfa 8 - ^
STACK CFI INIT 3e014 61 .cfa: $rsp 48 + .ra: .cfa 8 - ^
STACK CFI INIT 3e0a4 144 .cfa: $rsp 128 + $rbp: .cfa 16 - ^ $rsi: .cfa 24 - ^ $rdi: .cfa 32 - ^ $r12: .cfa 40 - ^ $r13: .cfa 48 - ^ $r14: .cfa 56 - ^ $r15: .cfa 64 - ^ $rbx: .cfa 0 - ^ .ra: .cfa 8 - ^
STACK CFI INIT 3e1f0 25e .cfa: $rsp 176 + $rbp: .cfa 16 - ^ $r14: .cfa 24 - ^ $r15: .cfa 32 - ^ $rbx: .cfa 0 - ^ $rsi: .cfa 0 - ^ $rdi: .cfa 0 - ^ $r12: .cfa 0 - ^ .ra: .cfa 8 - ^
STACK CFI INIT 3e454 291 .cfa: $rsp 208 + $rbp: .cfa 16 - ^ $rsi: .cfa 24 - ^ $rdi: .cfa 32 - ^ $r12: .cfa 40 - ^ $r13: .cfa 48 - ^ $r14: .cfa 56 - ^ $r15: .cfa 64 - ^ $rbx: .cfa 0 - ^ .ra: .cfa 8 - ^
STACK CFI INIT 3e6ec 45 .cfa: $rsp 48 + .ra: .cfa 8 - ^
STACK CFI INIT 3e738 182 .cfa: $rsp 112 + $rbp: .cfa 16 - ^ $rsi: .cfa 24 - ^ $rdi: .cfa 32 - ^ $r12: .cfa 40 - ^ $r13: .cfa 48 - ^ $r14: .cfa 56 - ^ $r15: .cfa 64 - ^ $rbx: .cfa 0 - ^ .ra: .cfa 8 - ^
STACK CFI INIT 3e8c0 172 .cfa: $rsp 160 + $rbp: .cfa 16 - ^ $rsi: .cfa 24 - ^ $rdi: .cfa 32 - ^ $r12: .cfa 40 - ^ $r13: .cfa 48 - ^ $r14: .cfa 56 - ^ $r15: .cfa 64 - ^ $rbx: .cfa 0 - ^ .ra: .cfa 8 - ^
STACK CFI INIT 3ea38 7f .cfa: $rsp 64 + $rbx: .cfa 16 - ^ .ra: .cfa 8 - ^
STACK CFI INIT 3eac0 416 .cfa: $rsp 352 + $rbp: .cfa 16 - ^ $rsi: .cfa 24 - ^ $rdi: .cfa 32 - ^ $r12: .cfa 40 - ^ $r13: .cfa 48 - ^ $r14: .cfa 56 - ^ $r15: .cfa 64 - ^ $rbx: .cfa 0 - ^ .ra: .cfa 8 - ^
STACK CFI INIT 3eee0 3c8 .cfa: $rsp 528 + $rbp: .cfa 16 - ^ $rsi: .cfa 24 - ^ $rdi: .cfa 32 - ^ $r12: .cfa 40 - ^ $r13: .cfa 48 - ^ $r14: .cfa 56 - ^ $r15: .cfa 64 - ^ $rbx: .cfa 0 - ^ .ra: .cfa 8 - ^
STACK CFI INIT 3f2b0 d0 .cfa: $rsp 96 + $rdi: .cfa 16 - ^ $r14: .cfa 24 - ^ $r15: .cfa 32 - ^ $rbx: .cfa 0 - ^ $rbp: .cfa 0 - ^ $rsi: .cfa 0 - ^ .ra: .cfa 8 - ^
STACK CFI INIT 3f388 7c .cfa: $rsp 64 + $rdi: .cfa 16 - ^ $rbx: .cfa 0 - ^ $rsi: .cfa 0 - ^ .ra: .cfa 8 - ^
STACK CFI INIT 3f40c 109 .cfa: $rsp 80 + $r12: .cfa 16 - ^ $r14: .cfa 24 - ^ $r15: .cfa 32 - ^ $rbx: .cfa 0 - ^ $rbp: .cfa 0 - ^ $rsi: .cfa 0 - ^ .ra: .cfa 8 - ^
STACK CFI INIT 3f520 38f .cfa: $rsp 496 + $rbp: .cfa 16 - ^ $rbx: .cfa 24 - ^ $rsi: .cfa 32 - ^ $rdi: .cfa 40 - ^ $r12: .cfa 48 - ^ $r13: .cfa 56 - ^ $r14: .cfa 64 - ^ $r15: .cfa 72 - ^ .ra: .cfa 8 - ^
STACK CFI INIT 3f8b8 39 .cfa: $rsp 48 + $rbx: .cfa 16 - ^ .ra: .cfa 8 - ^
STACK CFI INIT 3f900 1ee .cfa: $rsp 160 + $rbp: .cfa 16 - ^ $r14: .cfa 24 - ^ $r15: .cfa 32 - ^ $rbx: .cfa 0 - ^ $rsi: .cfa 0 - ^ $rdi: .cfa 0 - ^ $r12: .cfa 0 - ^ .ra: .cfa 8 - ^
STACK CFI INIT 3faf4 106 .cfa: $rsp 176 + $rbp: .cfa 16 - ^ $rsi: .cfa 24 - ^ $rdi: .cfa 32 - ^ $r12: .cfa 40 - ^ $r13: .cfa 48 - ^ $r14: .cfa 56 - ^ $r15: .cfa 64 - ^ $rbx: .cfa 0 - ^ .ra: .cfa 8 - ^
STACK CFI INIT 3fc00 30 .cfa: $rsp 48 + $rbx: .cfa 16 - ^ .ra: .cfa 8 - ^
STACK CFI INIT 3fc40 ea .cfa: $rsp 96 + $rdi: .cfa 16 - ^ $r12: .cfa 24 - ^ $r13: .cfa 32 - ^ $r14: .cfa 40 - ^ $r15: .cfa 48 - ^ $rbx: .cfa 0 - ^ $rbp: .cfa 0 - ^ $rsi: .cfa 0 - ^ .ra: .cfa 8 - ^
STACK CFI INIT 3fd30 77 .cfa: $rsp 48 + .ra: .cfa 8 - ^
STACK CFI INIT 3fdb0 17f .cfa: $rsp 96 + $rdi: .cfa 16 - ^ $r12: .cfa 24 - ^ $r13: .cfa 32 - ^ $r14: .cfa 40 - ^ $r15: .cfa 48 - ^ $rbx: .cfa 0 - ^ $rsi: .cfa 0 - ^ .ra: .cfa 8 - ^
STACK CFI INIT 3ff40 2a .cfa: $rsp 48 + .ra: .cfa 8 - ^
STACK CFI INIT 3ffc0 25f .cfa: $rsp 208 + $rbp: .cfa 16 - ^ $rsi: .cfa 24 - ^ $rdi: .cfa 32 - ^ $r12: .cfa 40 - ^ $r13: .cfa 48 - ^ $r14: .cfa 56 - ^ $r15: .cfa 64 - ^ $rbx: .cfa 0 - ^ .ra: .cfa 8 - ^
STACK CFI INIT 40228 c2 .cfa: $rsp 96 + $r14: .cfa 16 - ^ $rbx: .cfa 0 - ^ $rbp: .cfa 0 - ^ $rsi: .cfa 0 - ^ $rdi: .cfa 0 - ^ .ra: .cfa 8 - ^
STACK CFI INIT 402f0 222 .cfa: $rsp 128 + $rdi: .cfa 16 - ^ $r12: .cfa 24 - ^ $r13: .cfa 32 - ^ $r14: .cfa 40 - ^ $r15: .cfa 48 - ^ $rbx: .cfa 0 - ^ $rsi: .cfa 0 - ^ .ra: .cfa 8 - ^
STACK CFI INIT 40518 13b .cfa: $rsp 80 + $rbx: .cfa 16 - ^ $rsi: .cfa 24 - ^ $rdi: .cfa 32 - ^ .ra: .cfa 8 - ^
STACK CFI INIT 40660 13d .cfa: $rsp 144 + $rbx: .cfa 16 - ^ $rsi: .cfa 24 - ^ $rdi: .cfa 32 - ^ $r14: .cfa 40 - ^ $r15: .cfa 48 - ^ .ra: .cfa 8 - ^
STACK CFI INIT 407a4 13a .cfa: $rsp 64 + $rdi: .cfa 16 - ^ $rbx: .cfa 0 - ^ $rbp: .cfa 0 - ^ .ra: .cfa 8 - ^
STACK CFI INIT 408e4 a5b .cfa: $rsp 320 + $rbx: .cfa 16 - ^ $rsi: .cfa 24 - ^ $rdi: .cfa 32 - ^ $r12: .cfa 40 - ^ $r13: .cfa 48 - ^ $r14: .cfa 56 - ^ $r15: .cfa 64 - ^ .ra: .cfa 8 - ^
STACK CFI INIT 41348 101 .cfa: $rsp 80 + $rdi: .cfa 16 - ^ $r12: .cfa 24 - ^ $r13: .cfa 32 - ^ $r14: .cfa 40 - ^ $r15: .cfa 48 - ^ $rbx: .cfa 0 - ^ $rbp: .cfa 0 - ^ $rsi: .cfa 0 - ^ .ra: .cfa 8 - ^
STACK CFI INIT 41450 74 .cfa: $rsp 48 + $rdi: .cfa 16 - ^ $rbx: .cfa 0 - ^ .ra: .cfa 8 - ^
STACK CFI INIT 414cc 112 .cfa: $rsp 64 + $rdi: .cfa 16 - ^ $r14: .cfa 24 - ^ $r15: .cfa 32 - ^ $rbx: .cfa 0 - ^ $rbp: .cfa 0 - ^ $rsi: .cfa 0 - ^ .ra: .cfa 8 - ^
STACK CFI INIT 415e4 190 .cfa: $rsp 80 + $rdi: .cfa 16 - ^ $rbx: .cfa 0 - ^ $rsi: .cfa 0 - ^ .ra: .cfa 8 - ^
STACK CFI INIT 4177c 15d .cfa: $rsp 112 + $rbp: .cfa 16 - ^ $rsi: .cfa 24 - ^ $rdi: .cfa 32 - ^ $r12: .cfa 40 - ^ $r13: .cfa 48 - ^ $r14: .cfa 56 - ^ $r15: .cfa 64 - ^ $rbx: .cfa 0 - ^ .ra: .cfa 8 - ^
STACK CFI INIT 418e0 131 .cfa: $rsp 64 + $rdi: .cfa 16 - ^ $r14: .cfa 24 - ^ $r15: .cfa 32 - ^ $rbx: .cfa 0 - ^ $rbp: .cfa 0 - ^ $rsi: .cfa 0 - ^ .ra: .cfa 8 - ^
STACK CFI INIT 41a18 259 .cfa: $rsp 112 + $rbx: .cfa 16 - ^ $rbp: .cfa 24 - ^ $rsi: .cfa 32 - ^ $rdi: .cfa 40 - ^ $r13: .cfa 48 - ^ $r14: .cfa 56 - ^ $r15: .cfa 64 - ^ .ra: .cfa 8 - ^
STACK CFI INIT 41cc0 14f .cfa: $rsp 8 + $rbx: .cfa 0 - ^ .ra: .cfa 8 - ^
STACK CFI INIT 41e18 89 .cfa: $rsp 64 + $rdi: .cfa 16 - ^ $rbx: .cfa 0 - ^ .ra: .cfa 8 - ^
STACK CFI INIT 41ea8 67 .cfa: $rsp 48 + $rdi: .cfa 16 - ^ $rbx: .cfa 0 - ^ $rsi: .cfa 0 - ^ .ra: .cfa 8 - ^
STACK CFI INIT 41f20 9d .cfa: $rsp 48 + $rdi: .cfa 16 - ^ $rbx: .cfa 0 - ^ .ra: .cfa 8 - ^
STACK CFI INIT 41fc4 4c .cfa: $rsp 48 + .ra: .cfa 8 - ^
STACK CFI INIT 42020 265 .cfa: $rsp 192 + $rsi: .cfa 16 - ^ $rdi: .cfa 24 - ^ $r12: .cfa 32 - ^ $r13: .cfa 40 - ^ $r15: .cfa 48 - ^ $rbx: .cfa 0 - ^ .ra: .cfa 8 - ^
STACK CFI INIT 4228c 39 .cfa: $rsp 48 + .ra: .cfa 8 - ^
STACK CFI INIT 422d0 34 .cfa: $rsp 48 + $rbx: .cfa 16 - ^ .ra: .cfa 8 - ^
STACK CFI INIT 42310 ee .cfa: $rsp 64 + $r14: .cfa 16 - ^ $rbx: .cfa 0 - ^ $rbp: .cfa 0 - ^ $rsi: .cfa 0 - ^ $rdi: .cfa 0 - ^ .ra: .cfa 8 - ^
STACK CFI INIT 42404 22 .cfa: $rsp 48 + $rbx: .cfa 16 - ^ .ra: .cfa 8 - ^
STACK CFI INIT 4242c 16a .cfa: $rsp 288 + $rdi: .cfa 16 - ^ $rbx: .cfa 0 - ^ .ra: .cfa 8 - ^
STACK CFI INIT 425a0 85 .cfa: $rsp 48 + $rdi: .cfa 16 - ^ $rbx: .cfa 0 - ^ .ra: .cfa 8 - ^
STACK CFI INIT 4262c 53 .cfa: $rsp 48 + $rdi: .cfa 16 - ^ $rbx: .cfa 0 - ^ .ra: .cfa 8 - ^
STACK CFI INIT 42688 24 .cfa: $rsp 48 + .ra: .cfa 8 - ^
STACK CFI INIT 426b4 96 .cfa: $rsp 64 + $rdi: .cfa 16 - ^ $rbx: .cfa 0 - ^ $rsi: .cfa 0 - ^ .ra: .cfa 8 - ^
STACK CFI INIT 42750 52 .cfa: $rsp 48 + .ra: .cfa 8 - ^
STACK CFI INIT 427a8 8d .cfa: $rsp 80 + $rdi: .cfa 16 - ^ $rbx: .cfa 0 - ^ .ra: .cfa 8 - ^
STACK CFI INIT 4283c c5 .cfa: $rsp 64 + $rdi: .cfa 16 - ^ $r14: .cfa 24 - ^ $r15: .cfa 32 - ^ $rbx: .cfa 0 - ^ $rbp: .cfa 0 - ^ $rsi: .cfa 0 - ^ .ra: .cfa 8 - ^
STACK CFI INIT 42908 27a .cfa: $rsp 128 + $rdi: .cfa 16 - ^ $r12: .cfa 24 - ^ $r14: .cfa 32 - ^ $rbx: .cfa 0 - ^ $rsi: .cfa 0 - ^ .ra: .cfa 8 - ^
STACK CFI INIT 42b90 570 .cfa: $rsp 208 + $rdi: .cfa 16 - ^ $r12: .cfa 24 - ^ $r13: .cfa 32 - ^ $r14: .cfa 40 - ^ $r15: .cfa 48 - ^ $rbx: .cfa 0 - ^ $rsi: .cfa 0 - ^ .ra: .cfa 8 - ^
STACK CFI INIT 431ac 7a .cfa: $rsp 48 + $rdi: .cfa 16 - ^ $rbx: .cfa 0 - ^ $rbp: .cfa 0 - ^ $rsi: .cfa 0 - ^ .ra: .cfa 8 - ^
STACK CFI INIT 4326c 17a .cfa: $rsp 96 + $rbx: .cfa 16 - ^ $rsi: .cfa 24 - ^ $rdi: .cfa 32 - ^ $r14: .cfa 40 - ^ $r15: .cfa 48 - ^ .ra: .cfa 8 - ^
STACK CFI INIT 433ec 74 .cfa: $rsp 64 + $rdi: .cfa 16 - ^ $rbx: .cfa 0 - ^ $rsi: .cfa 0 - ^ .ra: .cfa 8 - ^
STACK CFI INIT 43468 78 .cfa: $rsp 48 + $rdi: .cfa 16 - ^ $rbx: .cfa 0 - ^ .ra: .cfa 8 - ^
STACK CFI INIT 43520 139 .cfa: $rsp 64 + $rdi: .cfa 16 - ^ $rbx: .cfa 0 - ^ $rsi: .cfa 0 - ^ .ra: .cfa 8 - ^
STACK CFI INIT 43660 46 .cfa: $rsp 48 + $rdi: .cfa 16 - ^ $rbx: .cfa 0 - ^ .ra: .cfa 8 - ^
STACK CFI INIT 436ac 14e .cfa: $rsp 80 + $rdi: .cfa 16 - ^ $r14: .cfa 24 - ^ $r15: .cfa 32 - ^ $rbx: .cfa 0 - ^ $rbp: .cfa 0 - ^ $rsi: .cfa 0 - ^ .ra: .cfa 8 - ^
STACK CFI INIT 43800 4d .cfa: $rsp 48 + $rbx: .cfa 16 - ^ .ra: .cfa 8 - ^
STACK CFI INIT 4388c 13f .cfa: $rsp 176 + $rsi: .cfa 16 - ^ $rdi: .cfa 24 - ^ $r14: .cfa 32 - ^ $rbx: .cfa 0 - ^ $rbp: .cfa 0 - ^ .ra: .cfa 8 - ^
STACK CFI INIT 439d4 80 .cfa: $rsp 48 + $rdi: .cfa 16 - ^ $rbx: .cfa 0 - ^ $rsi: .cfa 0 - ^ .ra: .cfa 8 - ^
STACK CFI INIT 43a60 1f3 .cfa: $rsp 144 + $rdi: .cfa 16 - ^ $r12: .cfa 24 - ^ $r13: .cfa 32 - ^ $r14: .cfa 40 - ^ $r15: .cfa 48 - ^ $rbx: .cfa 0 - ^ $rsi: .cfa 0 - ^ .ra: .cfa 8 - ^
STACK CFI INIT 43c5c f8 .cfa: $rsp 64 + $rsi: .cfa 16 - ^ $rdi: .cfa 24 - ^ $r14: .cfa 32 - ^ $rbp: .cfa 0 - ^ .ra: .cfa 8 - ^
STACK CFI INIT 43d5c 60 .cfa: $rsp 48 + $rdi: .cfa 16 - ^ $rbx: .cfa 0 - ^ .ra: .cfa 8 - ^
STACK CFI INIT 43dc4 65 .cfa: $rsp 64 + .ra: .cfa 8 - ^
STACK CFI INIT 43e30 41 .cfa: $rsp 48 + $rbx: .cfa 16 - ^ .ra: .cfa 8 - ^
STACK CFI INIT 43e78 e7 .cfa: $rsp 112 + $rbp: .cfa 16 - ^ $rdi: .cfa 24 - ^ $r14: .cfa 32 - ^ $rbx: .cfa 0 - ^ $rsi: .cfa 0 - ^ .ra: .cfa 8 - ^
STACK CFI INIT 43f68 d3 .cfa: $rsp 80 + $rsi: .cfa 16 - ^ $rdi: .cfa 24 - ^ $r14: .cfa 32 - ^ $rbx: .cfa 0 - ^ $rbp: .cfa 0 - ^ .ra: .cfa 8 - ^
STACK CFI INIT 44064 4a1 .cfa: $rsp 352 + $rbp: .cfa 16 - ^ $rsi: .cfa 24 - ^ $rdi: .cfa 32 - ^ $r12: .cfa 40 - ^ $r13: .cfa 48 - ^ $r14: .cfa 56 - ^ $r15: .cfa 64 - ^ $rbx: .cfa 0 - ^ .ra: .cfa 8 - ^
STACK CFI INIT 44510 79f .cfa: $rsp 2112 + $rbx: .cfa 16 - ^ $rsi: .cfa 24 - ^ $rdi: .cfa 32 - ^ $r12: .cfa 40 - ^ $r13: .cfa 48 - ^ $r14: .cfa 56 - ^ $r15: .cfa 64 - ^ .ra: .cfa 8 - ^
STACK CFI INIT 44ccc 108 .cfa: $rsp 48 + $r15: .cfa 16 - ^ $rbx: .cfa 0 - ^ $rsi: .cfa 0 - ^ $rdi: .cfa 0 - ^ $r14: .cfa 0 - ^ .ra: .cfa 8 - ^
STACK CFI INIT 44ddc b8 .cfa: $rsp 64 + $rdi: .cfa 16 - ^ $r14: .cfa 24 - ^ $r15: .cfa 32 - ^ $rbx: .cfa 0 - ^ $rbp: .cfa 0 - ^ $rsi: .cfa 0 - ^ .ra: .cfa 8 - ^
STACK CFI INIT 44e9c ab .cfa: $rsp 48 + $rdi: .cfa 16 - ^ $rbx: .cfa 0 - ^ $rsi: .cfa 0 - ^ .ra: .cfa 8 - ^
STACK CFI INIT 44f50 6da .cfa: $rsp 240 + $rbp: .cfa 16 - ^ $rbx: .cfa 24 - ^ $rsi: .cfa 32 - ^ $rdi: .cfa 40 - ^ $r12: .cfa 48 - ^ $r13: .cfa 56 - ^ $r14: .cfa 64 - ^ $r15: .cfa 72 - ^ .ra: .cfa 8 - ^
STACK CFI INIT 45630 3f .cfa: $rsp 48 + $rbx: .cfa 16 - ^ .ra: .cfa 8 - ^
STACK CFI INIT 45678 99 .cfa: $rsp 64 + $rdi: .cfa 16 - ^ $rbx: .cfa 0 - ^ $rbp: .cfa 0 - ^ $rsi: .cfa 0 - ^ .ra: .cfa 8 - ^
STACK CFI INIT 45718 75 .cfa: $rsp 48 + .ra: .cfa 8 - ^
STACK CFI INIT 45794 3a .cfa: $rsp 48 + .ra: .cfa 8 - ^
STACK CFI INIT 457d4 146 .cfa: $rsp 48 + $rbx: .cfa 16 - ^ .ra: .cfa 8 - ^
STACK CFI INIT 45920 76 .cfa: $rsp 48 + $rdi: .cfa 16 - ^ $rbx: .cfa 0 - ^ $rsi: .cfa 0 - ^ .ra: .cfa 8 - ^
STACK CFI INIT 4599c 242 .cfa: $rsp 176 + $rbp: .cfa 16 - ^ $rsi: .cfa 24 - ^ $rdi: .cfa 32 - ^ $r12: .cfa 40 - ^ $r13: .cfa 48 - ^ $r14: .cfa 56 - ^ $r15: .cfa 64 - ^ $rbx: .cfa 0 - ^ .ra: .cfa 8 - ^
STACK CFI INIT 45be4 ce .cfa: $rsp 112 + $rdi: .cfa 16 - ^ $rbx: .cfa 0 - ^ .ra: .cfa 8 - ^
STACK CFI INIT 45cb8 111 .cfa: $rsp 320 + $rbp: .cfa 16 - ^ $rbx: .cfa 24 - ^ $rsi: .cfa 32 - ^ $rdi: .cfa 40 - ^ $r12: .cfa 48 - ^ $r14: .cfa 56 - ^ $r15: .cfa 64 - ^ .ra: .cfa 8 - ^
STACK CFI INIT 45dd0 117 .cfa: $rsp 144 + $rbp: .cfa 16 - ^ $rbx: .cfa 24 - ^ $rsi: .cfa 32 - ^ $rdi: .cfa 40 - ^ $r12: .cfa 48 - ^ $r13: .cfa 56 - ^ $r15: .cfa 64 - ^ .ra: .cfa 8 - ^
STACK CFI INIT 45ef0 12f .cfa: $rsp 224 + $rsi: .cfa 16 - ^ $rdi: .cfa 24 - ^ $r14: .cfa 32 - ^ $rbx: .cfa 0 - ^ $rbp: .cfa 0 - ^ .ra: .cfa 8 - ^
STACK CFI INIT 46030 54 .cfa: $rsp 48 + $rdi: .cfa 16 - ^ $rbx: .cfa 0 - ^ .ra: .cfa 8 - ^
STACK CFI INIT 46090 16a .cfa: $rsp 48 + $rdi: .cfa 16 - ^ $rbx: .cfa 0 - ^ .ra: .cfa 8 - ^
STACK CFI INIT 46230 1d .cfa: $rsp 64 + .ra: .cfa 8 - ^
STACK CFI INIT 46260 63 .cfa: $rsp 96 + .ra: .cfa 8 - ^
STACK CFI INIT 462d0 1c9 .cfa: $rsp 640 + $rbp: .cfa 16 - ^ $rsi: .cfa 24 - ^ $rdi: .cfa 32 - ^ $r12: .cfa 40 - ^ $r13: .cfa 48 - ^ $r14: .cfa 56 - ^ $r15: .cfa 64 - ^ $rbx: .cfa 0 - ^ .ra: .cfa 8 - ^
STACK CFI INIT 464a0 141 .cfa: $rsp 176 + $rdi: .cfa 16 - ^ $r14: .cfa 24 - ^ $r15: .cfa 32 - ^ $rbx: .cfa 0 - ^ $rsi: .cfa 0 - ^ .ra: .cfa 8 - ^
STACK CFI INIT 465e8 14c5 .cfa: $rsp 1040 + $rbp: .cfa 16 - ^ $rbx: .cfa 24 - ^ $rsi: .cfa 32 - ^ $rdi: .cfa 40 - ^ .ra: .cfa 8 - ^
STACK CFI INIT 47ab4 1d8 .cfa: $rsp 192 + $rdi: .cfa 16 - ^ $r12: .cfa 24 - ^ $r13: .cfa 32 - ^ $r14: .cfa 40 - ^ $r15: .cfa 48 - ^ $rbx: .cfa 0 - ^ $rbp: .cfa 0 - ^ $rsi: .cfa 0 - ^ .ra: .cfa 8 - ^
STACK CFI INIT 47c94 3ba .cfa: $rsp 224 + $rbp: .cfa 16 - ^ $rsi: .cfa 24 - ^ $rdi: .cfa 32 - ^ $r12: .cfa 40 - ^ $r13: .cfa 48 - ^ $r14: .cfa 56 - ^ $r15: .cfa 64 - ^ $rbx: .cfa 0 - ^ .ra: .cfa 8 - ^
STACK CFI INIT 480a0 1c6 .cfa: $rsp 192 + $rbx: .cfa 16 - ^ $rbp: .cfa 24 - ^ $rsi: .cfa 32 - ^ $rdi: .cfa 40 - ^ $r12: .cfa 48 - ^ $r13: .cfa 56 - ^ $r14: .cfa 64 - ^ .ra: .cfa 8 - ^
STACK CFI INIT 48270 321 .cfa: $rsp 208 + $rbp: .cfa 16 - ^ $rsi: .cfa 24 - ^ $rdi: .cfa 32 - ^ $r12: .cfa 40 - ^ $r13: .cfa 48 - ^ $r14: .cfa 56 - ^ $r15: .cfa 64 - ^ $rbx: .cfa 0 - ^ .ra: .cfa 8 - ^
STACK CFI INIT 485a0 2f .cfa: $rsp 96 + $rbp: .cfa 16 - ^ $rsi: .cfa 24 - ^ .ra: .cfa 8 - ^
STACK CFI INIT 485cf ed .cfa: $rsp 96 + $rbx: .cfa 0 - ^ $rdi: .cfa 0 - ^ $r12: .cfa 0 - ^ $r14: .cfa 0 - ^ $r15: .cfa 0 - ^ $r13: .cfa 0 - ^ $rbp: .cfa 16 - ^ $rsi: .cfa 24 - ^ .ra: .cfa 8 - ^
STACK CFI INIT 486bc 7 .cfa: $rsp 96 + $rbp: .cfa 16 - ^ $rsi: .cfa 24 - ^ .ra: .cfa 8 - ^
STACK CFI INIT 486c3 67 .cfa: $rsp 96 + $rbx: .cfa 0 - ^ $rdi: .cfa 0 - ^ $r12: .cfa 0 - ^ $r13: .cfa 0 - ^ $r14: .cfa 0 - ^ $r15: .cfa 0 - ^ $rbp: .cfa 16 - ^ $rsi: .cfa 24 - ^ .ra: .cfa 8 - ^
STACK CFI INIT 4872a 9 .cfa: $rsp 96 + $rbp: .cfa 16 - ^ $rsi: .cfa 24 - ^ .ra: .cfa 8 - ^
STACK CFI INIT 48733 8 .cfa: $rsp 96 + $rbx: .cfa 0 - ^ $rdi: .cfa 0 - ^ $r12: .cfa 0 - ^ $r14: .cfa 0 - ^ $r15: .cfa 0 - ^ $rbp: .cfa 16 - ^ $rsi: .cfa 24 - ^ .ra: .cfa 8 - ^
STACK CFI INIT 4873b 12 .cfa: $rsp 96 + $rbx: .cfa 0 - ^ $rdi: .cfa 0 - ^ $r12: .cfa 0 - ^ $r13: .cfa 0 - ^ $r14: .cfa 0 - ^ $r15: .cfa 0 - ^ $rbp: .cfa 16 - ^ $rsi: .cfa 24 - ^ .ra: .cfa 8 - ^
STACK CFI INIT 48754 48e .cfa: $rsp 288 + $rbp: .cfa 16 - ^ $rsi: .cfa 24 - ^ $rdi: .cfa 32 - ^ $r12: .cfa 40 - ^ $r13: .cfa 48 - ^ $r14: .cfa 56 - ^ $r15: .cfa 64 - ^ $rbx: .cfa 0 - ^ .ra: .cfa 8 - ^
STACK CFI INIT 48bf0 ba .cfa: $rsp 32 + .ra: .cfa 8 - ^
STACK CFI INIT 48cb0 1da .cfa: $rsp 160 + $rbp: .cfa 16 - ^ $rsi: .cfa 24 - ^ $rdi: .cfa 32 - ^ $r12: .cfa 40 - ^ $r13: .cfa 48 - ^ $r14: .cfa 56 - ^ $r15: .cfa 64 - ^ $rbx: .cfa 0 - ^ .ra: .cfa 8 - ^
STACK CFI INIT 48ee4 43c .cfa: $rsp 288 + $rbp: .cfa 16 - ^ $r12: .cfa 24 - ^ $r13: .cfa 32 - ^ $r14: .cfa 40 - ^ $r15: .cfa 48 - ^ $rbx: .cfa 0 - ^ $rsi: .cfa 0 - ^ $rdi: .cfa 0 - ^ .ra: .cfa 8 - ^
STACK CFI INIT 49330 3cd .cfa: $rsp 320 + $rbp: .cfa 16 - ^ $rsi: .cfa 24 - ^ $rdi: .cfa 32 - ^ $r12: .cfa 40 - ^ $r13: .cfa 48 - ^ $r14: .cfa 56 - ^ $r15: .cfa 64 - ^ $rbx: .cfa 0 - ^ .ra: .cfa 8 - ^
STACK CFI INIT 49710 1e .cfa: $rsp 64 + .ra: .cfa 8 - ^
STACK CFI INIT 49734 133 .cfa: $rsp 80 + $r12: .cfa 16 - ^ $r14: .cfa 24 - ^ $r15: .cfa 32 - ^ $rbx: .cfa 0 - ^ $rbp: .cfa 0 - ^ $rsi: .cfa 0 - ^ $rdi: .cfa 0 - ^ .ra: .cfa 8 - ^
STACK CFI INIT 498d0 f3 .cfa: $rsp 48 + $rdi: .cfa 16 - ^ $rbx: .cfa 0 - ^ .ra: .cfa 8 - ^
STACK CFI INIT 499d0 36 .cfa: $rsp 8 + .ra: .cfa 8 - ^
STACK CFI INIT 49a10 25c .cfa: $rsp 80 + $r13: .cfa 16 - ^ $r14: .cfa 24 - ^ $r15: .cfa 32 - ^ $rbx: .cfa 0 - ^ $rsi: .cfa 0 - ^ $rdi: .cfa 0 - ^ $r12: .cfa 0 - ^ .ra: .cfa 8 - ^
STACK CFI INIT 49db0 2b .cfa: $rsp 48 + $rbx: .cfa 16 - ^ .ra: .cfa 8 - ^
STACK CFI INIT 49df0 66 .cfa: $rsp 64 + $rbx: .cfa 16 - ^ .ra: .cfa 8 - ^
STACK CFI INIT 49e5c 44d .cfa: $rsp 112 + $rbx: .cfa 16 - ^ $rbp: .cfa 24 - ^ $rsi: .cfa 32 - ^ $rdi: .cfa 40 - ^ $r12: .cfa 48 - ^ $r13: .cfa 56 - ^ $r14: .cfa 64 - ^ $r15: .cfa 72 - ^ .ra: .cfa 8 - ^
STACK CFI INIT 4a2b0 27f .cfa: $rsp 144 + $rbp: .cfa 16 - ^ $rbx: .cfa 24 - ^ $rsi: .cfa 32 - ^ $rdi: .cfa 40 - ^ $r12: .cfa 48 - ^ $r13: .cfa 56 - ^ $r14: .cfa 64 - ^ $r15: .cfa 72 - ^ .ra: .cfa 8 - ^
STACK CFI INIT 4a538 163 .cfa: $rsp 288 + $rbp: .cfa 16 - ^ $rsi: .cfa 24 - ^ $rdi: .cfa 32 - ^ $r14: .cfa 40 - ^ $r15: .cfa 48 - ^ $rbx: .cfa 0 - ^ .ra: .cfa 8 - ^
STACK CFI INIT 4a6b0 84 .cfa: $rsp 48 + $r14: .cfa 16 - ^ $rbx: .cfa 0 - ^ $rsi: .cfa 0 - ^ $rdi: .cfa 0 - ^ .ra: .cfa 8 - ^
STACK CFI INIT 4a740 69 .cfa: $rsp 32 + .ra: .cfa 8 - ^
STACK CFI INIT 4a7b0 36 .cfa: $rsp 48 + .ra: .cfa 8 - ^
STACK CFI INIT 4a7f0 3a0 .cfa: $rsp 368 + $rbp: .cfa 16 - ^ $rsi: .cfa 24 - ^ $rdi: .cfa 32 - ^ $r12: .cfa 40 - ^ $r13: .cfa 48 - ^ $r14: .cfa 56 - ^ $r15: .cfa 64 - ^ $rbx: .cfa 0 - ^ .ra: .cfa 8 - ^
STACK CFI INIT 4aba0 164 .cfa: $rsp 96 + $rbp: .cfa 16 - ^ $rsi: .cfa 24 - ^ $rdi: .cfa 32 - ^ $r12: .cfa 40 - ^ $r14: .cfa 48 - ^ $rbx: .cfa 0 - ^ .ra: .cfa 8 - ^
STACK CFI INIT 4ad60 8d .cfa: $rsp 48 + $rdi: .cfa 16 - ^ $rbx: .cfa 0 - ^ .ra: .cfa 8 - ^
STACK CFI INIT 4ae00 153 .cfa: $rsp 80 + $r12: .cfa 16 - ^ $r14: .cfa 24 - ^ $r15: .cfa 32 - ^ $rbx: .cfa 0 - ^ $rbp: .cfa 0 - ^ $rsi: .cfa 0 - ^ $rdi: .cfa 0 - ^ .ra: .cfa 8 - ^
STACK CFI INIT 4af5c a5 .cfa: $rsp 48 + $r14: .cfa 16 - ^ $rbx: .cfa 0 - ^ $rbp: .cfa 0 - ^ $rsi: .cfa 0 - ^ $rdi: .cfa 0 - ^ .ra: .cfa 8 - ^
STACK CFI INIT 4b010 78 .cfa: $rsp 48 + $rdi: .cfa 16 - ^ $rbx: .cfa 0 - ^ .ra: .cfa 8 - ^
STACK CFI INIT 4b090 49 .cfa: $rsp 48 + .ra: .cfa 8 - ^
STACK CFI INIT 4b0e0 923 .cfa: $rsp 464 + $rbp: .cfa 16 - ^ $rsi: .cfa 24 - ^ $rdi: .cfa 32 - ^ $r12: .cfa 40 - ^ $r13: .cfa 48 - ^ $r14: .cfa 56 - ^ $r15: .cfa 64 - ^ $rbx: .cfa 0 - ^ .ra: .cfa 8 - ^
STACK CFI INIT 4ba0c 217 .cfa: $rsp 176 + $rbp: .cfa 16 - ^ $rsi: .cfa 24 - ^ $rdi: .cfa 32 - ^ $r12: .cfa 40 - ^ $r13: .cfa 48 - ^ $r14: .cfa 56 - ^ $r15: .cfa 64 - ^ $rbx: .cfa 0 - ^ .ra: .cfa 8 - ^
STACK CFI INIT 4bc30 2b .cfa: $rsp 48 + .ra: .cfa 8 - ^
STACK CFI INIT 4bc64 17f .cfa: $rsp 96 + $rdi: .cfa 16 - ^ $r12: .cfa 24 - ^ $r13: .cfa 32 - ^ $r14: .cfa 40 - ^ $r15: .cfa 48 - ^ $rbx: .cfa 0 - ^ $rbp: .cfa 0 - ^ $rsi: .cfa 0 - ^ .ra: .cfa 8 - ^
STACK CFI INIT 4bdf0 43 .cfa: $rsp 80 + .ra: .cfa 8 - ^
STACK CFI INIT 4be3c 1f7 .cfa: $rsp 176 + $rbp: .cfa 16 - ^ $rsi: .cfa 24 - ^ $rdi: .cfa 32 - ^ $rbx: .cfa 0 - ^ .ra: .cfa 8 - ^
STACK CFI INIT 4c03c 109 .cfa: $rsp 64 + $r12: .cfa 16 - ^ $r14: .cfa 24 - ^ $r15: .cfa 32 - ^ $rbx: .cfa 0 - ^ $rbp: .cfa 0 - ^ $rsi: .cfa 0 - ^ $rdi: .cfa 0 - ^ .ra: .cfa 8 - ^
STACK CFI INIT 4c14c 3e .cfa: $rsp 48 + $rdi: .cfa 16 - ^ $rbx: .cfa 0 - ^ .ra: .cfa 8 - ^
STACK CFI INIT 4c190 124 .cfa: $rsp 224 + $rbp: .cfa 16 - ^ $rsi: .cfa 24 - ^ $rdi: .cfa 32 - ^ $rbx: .cfa 0 - ^ .ra: .cfa 8 - ^
STACK CFI INIT 4c2c0 fd .cfa: $rsp 64 + $rdi: .cfa 16 - ^ $r14: .cfa 24 - ^ $r15: .cfa 32 - ^ $rbx: .cfa 0 - ^ $rbp: .cfa 0 - ^ $rsi: .cfa 0 - ^ .ra: .cfa 8 - ^
STACK CFI INIT 4c420 109 .cfa: $rsp 176 + $rbp: .cfa 16 - ^ $rsi: .cfa 24 - ^ $rdi: .cfa 32 - ^ $rbx: .cfa 0 - ^ .ra: .cfa 8 - ^
STACK CFI INIT 4c5a0 2431 .cfa: $rsp 192 + $rbx: .cfa 16 - ^ $rbp: .cfa 24 - ^ $rsi: .cfa 32 - ^ $rdi: .cfa 40 - ^ $r12: .cfa 48 - ^ $r13: .cfa 56 - ^ $r14: .cfa 64 - ^ $r15: .cfa 72 - ^ .ra: .cfa 8 - ^
STACK CFI INIT 4e9d8 d9 .cfa: $rsp 64 + $rdi: .cfa 16 - ^ $r14: .cfa 24 - ^ $r15: .cfa 32 - ^ $rbx: .cfa 0 - ^ $rbp: .cfa 0 - ^ $rsi: .cfa 0 - ^ .ra: .cfa 8 - ^
STACK CFI INIT 4eac0 2a .cfa: $rsp 80 + .ra: .cfa 8 - ^
STACK CFI INIT 4eaf0 cc .cfa: $rsp 48 + $r15: .cfa 16 - ^ $rbx: .cfa 0 - ^ $rbp: .cfa 0 - ^ $rsi: .cfa 0 - ^ $rdi: .cfa 0 - ^ .ra: .cfa 8 - ^
STACK CFI INIT 4ebd0 250 .cfa: $rsp 688 + $rbp: .cfa 16 - ^ $rbx: .cfa 24 - ^ $rsi: .cfa 32 - ^ $r12: .cfa 40 - ^ $r13: .cfa 48 - ^ $r14: .cfa 56 - ^ $r15: .cfa 64 - ^ .ra: .cfa 8 - ^
STACK CFI INIT 4ee6c 148 .cfa: $rsp 240 + $rbp: .cfa 16 - ^ $rbx: .cfa 24 - ^ $rsi: .cfa 32 - ^ $rdi: .cfa 40 - ^ .ra: .cfa 8 - ^
STACK CFI INIT 4efc0 77 .cfa: $rsp 48 + $rdi: .cfa 16 - ^ $rbx: .cfa 0 - ^ $rsi: .cfa 0 - ^ .ra: .cfa 8 - ^
STACK CFI INIT 4f040 2b .cfa: $rsp 96 + .ra: .cfa 8 - ^
STACK CFI INIT 4f074 24e .cfa: $rsp 432 + $rbp: .cfa 16 - ^ $rsi: .cfa 24 - ^ $rdi: .cfa 32 - ^ $r12: .cfa 40 - ^ $r13: .cfa 48 - ^ $r14: .cfa 56 - ^ $r15: .cfa 64 - ^ $rbx: .cfa 0 - ^ .ra: .cfa 8 - ^
STACK CFI INIT 4f2d0 1af .cfa: $rsp 512 + $rbp: .cfa 16 - ^ $rsi: .cfa 24 - ^ $rdi: .cfa 32 - ^ $r14: .cfa 40 - ^ $r15: .cfa 48 - ^ $rbx: .cfa 0 - ^ .ra: .cfa 8 - ^
STACK CFI INIT 4f490 94 .cfa: $rsp 48 + $rdi: .cfa 16 - ^ $rbx: .cfa 0 - ^ $rsi: .cfa 0 - ^ .ra: .cfa 8 - ^
STACK CFI INIT 4f52c 4c .cfa: $rsp 48 + $rdi: .cfa 16 - ^ $rbx: .cfa 0 - ^ .ra: .cfa 8 - ^
STACK CFI INIT 4f64c 19b .cfa: $rsp 672 + $rdi: .cfa 16 - ^ $r12: .cfa 24 - ^ $r14: .cfa 32 - ^ $rbx: .cfa 0 - ^ $rbp: .cfa 0 - ^ $rsi: .cfa 0 - ^ .ra: .cfa 8 - ^
STACK CFI INIT 4f7f0 12e .cfa: $rsp 48 + $rdi: .cfa 16 - ^ $rbx: .cfa 0 - ^ $rsi: .cfa 0 - ^ .ra: .cfa 8 - ^
STACK CFI INIT 4f930 318 .cfa: $rsp 288 + $rbp: .cfa 16 - ^ $r14: .cfa 24 - ^ $r15: .cfa 32 - ^ $rbx: .cfa 0 - ^ $rsi: .cfa 0 - ^ $rdi: .cfa 0 - ^ .ra: .cfa 8 - ^
STACK CFI INIT 4fc50 249 .cfa: $rsp 352 + $rbp: .cfa 16 - ^ $rsi: .cfa 24 - ^ $rdi: .cfa 32 - ^ $r12: .cfa 40 - ^ $r13: .cfa 48 - ^ $r14: .cfa 56 - ^ $r15: .cfa 64 - ^ $rbx: .cfa 0 - ^ .ra: .cfa 8 - ^
STACK CFI INIT 4fea0 110 .cfa: $rsp 128 + $rbp: .cfa 16 - ^ $rbx: .cfa 24 - ^ $rdi: .cfa 32 - ^ .ra: .cfa 8 - ^
STACK CFI INIT 4ffd0 9a .cfa: $rsp 48 + $rdi: .cfa 16 - ^ $rbx: .cfa 0 - ^ $rbp: .cfa 0 - ^ $rsi: .cfa 0 - ^ .ra: .cfa 8 - ^
STACK CFI INIT 50070 120 .cfa: $rsp 128 + $rbp: .cfa 16 - ^ $rsi: .cfa 24 - ^ $rdi: .cfa 32 - ^ $rbx: .cfa 0 - ^ .ra: .cfa 8 - ^
STACK CFI INIT 50198 a9 .cfa: $rsp 128 + $rdi: .cfa 16 - ^ $rbx: .cfa 0 - ^ .ra: .cfa 8 - ^
STACK CFI INIT 50248 103 .cfa: $rsp 272 + $rbp: .cfa 16 - ^ $rbx: .cfa 0 - ^ $rsi: .cfa 0 - ^ $rdi: .cfa 0 - ^ .ra: .cfa 8 - ^
STACK CFI INIT 50360 35d .cfa: $rsp 336 + $rbp: .cfa 16 - ^ $rbx: .cfa 24 - ^ $rsi: .cfa 32 - ^ $rdi: .cfa 40 - ^ $r12: .cfa 48 - ^ $r13: .cfa 56 - ^ $r14: .cfa 64 - ^ $r15: .cfa 72 - ^ .ra: .cfa 8 - ^
STACK CFI INIT 506c4 77 .cfa: $rsp 8 + $rbx: .cfa 0 - ^ .ra: .cfa 8 - ^
STACK CFI INIT 50750 3b .cfa: $rsp 96 + .ra: .cfa 8 - ^
STACK CFI INIT 507a0 40 .cfa: $rsp 96 + .ra: .cfa 8 - ^
STACK CFI INIT 507e8 3d0 .cfa: $rsp 720 + $rdi: .cfa 16 - ^ $r12: .cfa 24 - ^ $r13: .cfa 32 - ^ $r14: .cfa 40 - ^ $r15: .cfa 48 - ^ $rbx: .cfa 0 - ^ $rsi: .cfa 0 - ^ .ra: .cfa 8 - ^
STACK CFI INIT 50bc0 c3 .cfa: $rsp 272 + $rbp: .cfa 16 - ^ $rsi: .cfa 24 - ^ $rdi: .cfa 32 - ^ $r12: .cfa 40 - ^ $r13: .cfa 48 - ^ $r14: .cfa 56 - ^ $r15: .cfa 64 - ^ $rbx: .cfa 0 - ^ .ra: .cfa 8 - ^
STACK CFI INIT 50c90 35 .cfa: $rsp 64 + .ra: .cfa 8 - ^
STACK CFI INIT 50ccc c6 .cfa: $rsp 112 + $rbp: .cfa 16 - ^ $rdi: .cfa 24 - ^ $r14: .cfa 32 - ^ $rbx: .cfa 0 - ^ .ra: .cfa 8 - ^
STACK CFI INIT 50d98 123 .cfa: $rsp 672 + $rbp: .cfa 16 - ^ $rdi: .cfa 24 - ^ $r14: .cfa 32 - ^ $rbx: .cfa 0 - ^ $rsi: .cfa 0 - ^ .ra: .cfa 8 - ^
STACK CFI INIT 50ec4 fb .cfa: $rsp 624 + $rdi: .cfa 16 - ^ $rbx: .cfa 0 - ^ $rsi: .cfa 0 - ^ .ra: .cfa 8 - ^
STACK CFI INIT 50fc8 98 .cfa: $rsp 80 + $rbp: .cfa 16 - ^ $rsi: .cfa 24 - ^ $rdi: .cfa 32 - ^ $rbx: .cfa 0 - ^ .ra: .cfa 8 - ^
STACK CFI INIT 51068 42 .cfa: $rsp 80 + .ra: .cfa 8 - ^
STACK CFI INIT 510b0 149 .cfa: $rsp 400 + $rbp: .cfa 16 - ^ $rsi: .cfa 24 - ^ $rdi: .cfa 32 - ^ $r12: .cfa 40 - ^ $r13: .cfa 48 - ^ $r14: .cfa 56 - ^ $r15: .cfa 64 - ^ $rbx: .cfa 0 - ^ .ra: .cfa 8 - ^
STACK CFI INIT 51200 14 .cfa: $rsp 48 + .ra: .cfa 8 - ^
STACK CFI INIT 51250 176 .cfa: $rsp 48 + $rbx: .cfa 16 - ^ .ra: .cfa 8 - ^
STACK CFI INIT 513d0 41 .cfa: $rsp 64 + .ra: .cfa 8 - ^
STACK CFI INIT 51418 24e .cfa: $rbp 320 + $rbp: .cfa 16 - ^ $rbx: .cfa 24 - ^ $rsi: .cfa 32 - ^ $r12: .cfa 40 - ^ $r13: .cfa 48 - ^ $r14: .cfa 56 - ^ $r15: .cfa 64 - ^ .ra: .cfa 8 - ^
STACK CFI INIT 5166c 5b .cfa: $rsp 48 + $rdi: .cfa 16 - ^ $rbx: .cfa 0 - ^ $rsi: .cfa 0 - ^ .ra: .cfa 8 - ^
STACK CFI INIT 516d0 107 .cfa: $rsp 656 + $rbp: .cfa 16 - ^ $rdi: .cfa 24 - ^ $r14: .cfa 32 - ^ $rbx: .cfa 0 - ^ $rsi: .cfa 0 - ^ .ra: .cfa 8 - ^
STACK CFI INIT 517e0 77 .cfa: $rsp 64 + $rbx: .cfa 16 - ^ .ra: .cfa 8 - ^
STACK CFI INIT 518c0 77 .cfa: $rsp 64 + $rdi: .cfa 16 - ^ $rbx: .cfa 0 - ^ .ra: .cfa 8 - ^
STACK CFI INIT 51940 17f .cfa: $rsp 112 + $rbp: .cfa 16 - ^ $rsi: .cfa 24 - ^ $rdi: .cfa 32 - ^ $r12: .cfa 40 - ^ $r13: .cfa 48 - ^ $r14: .cfa 56 - ^ $r15: .cfa 64 - ^ $rbx: .cfa 0 - ^ .ra: .cfa 8 - ^
STACK CFI INIT 51ac8 10a .cfa: $rsp 80 + $rdi: .cfa 16 - ^ $r14: .cfa 24 - ^ $r15: .cfa 32 - ^ $rbx: .cfa 0 - ^ $rbp: .cfa 0 - ^ $rsi: .cfa 0 - ^ .ra: .cfa 8 - ^
STACK CFI INIT 51be0 66 .cfa: $rsp 112 + .ra: .cfa 8 - ^
STACK CFI INIT 51c4c a2 .cfa: $rsp 64 + $rbp: .cfa 16 - ^ $rbx: .cfa 24 - ^ $rdi: .cfa 32 - ^ .ra: .cfa 8 - ^
STACK CFI INIT 51cf4 6e .cfa: $rsp 112 + $rbx: .cfa 16 - ^ .ra: .cfa 8 - ^
STACK CFI INIT 51d70 3a .cfa: $rsp 48 + .ra: .cfa 8 - ^
STACK CFI INIT 51db0 187 .cfa: $rsp 128 + $rbp: .cfa 16 - ^ $rbx: .cfa 0 - ^ $rsi: .cfa 0 - ^ $rdi: .cfa 0 - ^ $r14: .cfa 0 - ^ .ra: .cfa 8 - ^
STACK CFI INIT 51f40 be .cfa: $rsp 48 + $rdi: .cfa 16 - ^ $rbx: .cfa 0 - ^ .ra: .cfa 8 - ^
STACK CFI INIT 52010 bf .cfa: $rsp 96 + $rbx: .cfa 16 - ^ .ra: .cfa 8 - ^
STACK CFI INIT 520e0 1e .cfa: $rsp 64 + .ra: .cfa 8 - ^
STACK CFI INIT 52110 b8 .cfa: $rsp 112 + $rbx: .cfa 16 - ^ .ra: .cfa 8 - ^
STACK CFI INIT 521d0 c2 .cfa: $rsp 128 + $rdi: .cfa 16 - ^ $rbx: .cfa 0 - ^ .ra: .cfa 8 - ^
STACK CFI INIT 52298 e7 .cfa: $rsp 144 + $rdi: .cfa 16 - ^ $rbx: .cfa 0 - ^ $rsi: .cfa 0 - ^ .ra: .cfa 8 - ^
STACK CFI INIT 52388 178 .cfa: $rsp 224 + $rbp: .cfa 16 - ^ $rbx: .cfa 24 - ^ $rsi: .cfa 32 - ^ $rdi: .cfa 40 - ^ $r12: .cfa 48 - ^ $r14: .cfa 56 - ^ $r15: .cfa 64 - ^ .ra: .cfa 8 - ^
STACK CFI INIT 52520 204 .cfa: $rsp 720 + $rbp: .cfa 16 - ^ $rdi: .cfa 24 - ^ $r14: .cfa 32 - ^ $rbx: .cfa 0 - ^ $rsi: .cfa 0 - ^ .ra: .cfa 8 - ^
STACK CFI INIT 52750 31 .cfa: $rsp 48 + $rbx: .cfa 16 - ^ .ra: .cfa 8 - ^
STACK CFI INIT 52790 1dc .cfa: $rsp 320 + $rsi: .cfa 16 - ^ $rdi: .cfa 24 - ^ $r14: .cfa 32 - ^ $rbx: .cfa 0 - ^ $rbp: .cfa 0 - ^ .ra: .cfa 8 - ^
STACK CFI INIT 52a28 ad .cfa: $rsp 576 + $rdi: .cfa 16 - ^ $rbx: .cfa 0 - ^ $rsi: .cfa 0 - ^ .ra: .cfa 8 - ^
STACK CFI INIT 52adc 92 .cfa: $rsp 8 + $rbx: .cfa 0 - ^ .ra: .cfa 8 - ^
STACK CFI INIT 52b74 1aa .cfa: $rsp 368 + $rbp: .cfa 16 - ^ $rbx: .cfa 24 - ^ $rsi: .cfa 32 - ^ $rdi: .cfa 40 - ^ $r14: .cfa 48 - ^ .ra: .cfa 8 - ^
STACK CFI INIT 52d30 1d .cfa: $rsp 64 + .ra: .cfa 8 - ^
STACK CFI INIT 52d54 3fc .cfa: $rsp 224 + $rbp: .cfa 16 - ^ $r12: .cfa 24 - ^ $r13: .cfa 32 - ^ $r14: .cfa 40 - ^ $r15: .cfa 48 - ^ $rbx: .cfa 0 - ^ $rsi: .cfa 0 - ^ $rdi: .cfa 0 - ^ .ra: .cfa 8 - ^
STACK CFI INIT 53158 34c .cfa: $rsp 160 + $rbp: .cfa 16 - ^ $rbx: .cfa 24 - ^ $rsi: .cfa 32 - ^ $rdi: .cfa 40 - ^ $r12: .cfa 48 - ^ $r13: .cfa 56 - ^ $r14: .cfa 64 - ^ $r15: .cfa 72 - ^ .ra: .cfa 8 - ^
STACK CFI INIT 534ac 8f .cfa: $rsp 80 + $rbx: .cfa 16 - ^ $rsi: .cfa 24 - ^ $rdi: .cfa 32 - ^ .ra: .cfa 8 - ^
STACK CFI INIT 53544 bf .cfa: $rsp 48 + $r14: .cfa 16 - ^ $rbx: .cfa 0 - ^ $rbp: .cfa 0 - ^ $rsi: .cfa 0 - ^ $rdi: .cfa 0 - ^ .ra: .cfa 8 - ^
STACK CFI INIT 5360c 41 .cfa: $rsp 64 + .ra: .cfa 8 - ^
STACK CFI INIT 53654 16a .cfa: $rsp 176 + $rbp: .cfa 16 - ^ $r14: .cfa 24 - ^ $r15: .cfa 32 - ^ $rbx: .cfa 0 - ^ $rsi: .cfa 0 - ^ $rdi: .cfa 0 - ^ $r12: .cfa 0 - ^ .ra: .cfa 8 - ^
STACK CFI INIT 537d0 b0 .cfa: $rsp 176 + $rdi: .cfa 16 - ^ $rbx: .cfa 0 - ^ $rsi: .cfa 0 - ^ .ra: .cfa 8 - ^
STACK CFI INIT 53890 97 .cfa: $rsp 48 + $rdi: .cfa 16 - ^ $rbx: .cfa 0 - ^ $rbp: .cfa 0 - ^ $rsi: .cfa 0 - ^ .ra: .cfa 8 - ^
STACK CFI INIT 53930 39 .cfa: $rsp 48 + .ra: .cfa 8 - ^
STACK CFI INIT 53970 1ad .cfa: $rbp 1552 + $rbp: .cfa 16 - ^ $rbx: $rbp 1560 + ^ $rsi: $rbp 1568 + ^ $rdi: $rbp 1576 + ^ .ra: .cfa 8 - ^
STACK CFI INIT 53b24 d0 .cfa: $rsp 48 + $rdi: .cfa 16 - ^ $rbx: .cfa 0 - ^ $rsi: .cfa 0 - ^ .ra: .cfa 8 - ^
STACK CFI INIT 53c54 21c .cfa: $rsp 1536 + $rdi: .cfa 16 - ^ $r14: .cfa 24 - ^ $r15: .cfa 32 - ^ $rbx: .cfa 0 - ^ $rsi: .cfa 0 - ^ .ra: .cfa 8 - ^
STACK CFI INIT 53e78 7c2 .cfa: $rsp 128 + $rbp: .cfa 16 - ^ $rsi: .cfa 24 - ^ $rdi: .cfa 32 - ^ $r12: .cfa 40 - ^ $r13: .cfa 48 - ^ $r14: .cfa 56 - ^ $r15: .cfa 64 - ^ $rbx: .cfa 0 - ^ .ra: .cfa 8 - ^
STACK CFI INIT 54640 ec .cfa: $rsp 96 + $rdi: .cfa 16 - ^ $rbx: .cfa 0 - ^ .ra: .cfa 8 - ^
STACK CFI INIT 54740 208 .cfa: $rsp 1744 + $rbp: .cfa 16 - ^ $rsi: .cfa 24 - ^ $rdi: .cfa 32 - ^ $r12: .cfa 40 - ^ $r13: .cfa 48 - ^ $r14: .cfa 56 - ^ $r15: .cfa 64 - ^ $rbx: .cfa 0 - ^ .ra: .cfa 8 - ^
STACK CFI INIT 54970 78c .cfa: $rsp 144 + $rbp: .cfa 16 - ^ $rsi: .cfa 24 - ^ $rdi: .cfa 32 - ^ $r12: .cfa 40 - ^ $r13: .cfa 48 - ^ $r14: .cfa 56 - ^ $r15: .cfa 64 - ^ $rbx: .cfa 0 - ^ .ra: .cfa 8 - ^
STACK CFI INIT 55110 953 .cfa: $rsp 1760 + $rbp: .cfa 16 - ^ $rsi: .cfa 24 - ^ $rdi: .cfa 32 - ^ $r12: .cfa 40 - ^ $r13: .cfa 48 - ^ $r14: .cfa 56 - ^ $r15: .cfa 64 - ^ $rbx: .cfa 0 - ^ .ra: .cfa 8 - ^
STACK CFI INIT 55a70 2d0 .cfa: $rsp 80 + $rdi: .cfa 16 - ^ $rbx: .cfa 0 - ^ $rsi: .cfa 0 - ^ .ra: .cfa 8 - ^
STACK CFI INIT 55d48 79 .cfa: $rsp 8 + $rbx: .cfa 0 - ^ .ra: .cfa 8 - ^
STACK CFI INIT 55e00 94 .cfa: $rsp 48 + $rdi: .cfa 16 - ^ $rbx: .cfa 0 - ^ .ra: .cfa 8 - ^
STACK CFI INIT 55e9c 122 .cfa: $rsp 144 + $rbx: .cfa 16 - ^ $rbp: .cfa 24 - ^ $rsi: .cfa 32 - ^ $rdi: .cfa 40 - ^ $r12: .cfa 48 - ^ $r13: .cfa 56 - ^ $r14: .cfa 64 - ^ $r15: .cfa 72 - ^ .ra: .cfa 8 - ^
STACK CFI INIT 55fd0 53 .cfa: $rsp 64 + $rbx: .cfa 16 - ^ .ra: .cfa 8 - ^
STACK CFI INIT 5602c 2b .cfa: $rsp 8 + .ra: .cfa 8 - ^
STACK CFI INIT 56060 b1 .cfa: $rsp 64 + $rsi: .cfa 16 - ^ $rdi: .cfa 24 - ^ $r14: .cfa 32 - ^ $rbx: .cfa 0 - ^ .ra: .cfa 8 - ^
STACK CFI INIT 56140 42f .cfa: $rsp 160 + $rbp: .cfa 16 - ^ $rsi: .cfa 24 - ^ $rdi: .cfa 32 - ^ $r12: .cfa 40 - ^ $r13: .cfa 48 - ^ $r14: .cfa 56 - ^ $r15: .cfa 64 - ^ $rbx: .cfa 0 - ^ .ra: .cfa 8 - ^
STACK CFI INIT 56578 9a .cfa: $rsp 48 + $r15: .cfa 16 - ^ $rbx: .cfa 0 - ^ $rsi: .cfa 0 - ^ $rdi: .cfa 0 - ^ $r14: .cfa 0 - ^ .ra: .cfa 8 - ^
STACK CFI INIT 56660 10 .cfa: $rsp 48 + .ra: .cfa 8 - ^
STACK CFI INIT 56680 212 .cfa: $rsp 96 + $rdi: .cfa 16 - ^ $r12: .cfa 24 - ^ $r13: .cfa 32 - ^ $r14: .cfa 40 - ^ $r15: .cfa 48 - ^ $rbx: .cfa 0 - ^ $rbp: .cfa 0 - ^ $rsi: .cfa 0 - ^ .ra: .cfa 8 - ^
STACK CFI INIT 56898 a8 .cfa: $rsp 48 + $rdi: .cfa 16 - ^ $rbx: .cfa 0 - ^ $rbp: .cfa 0 - ^ $rsi: .cfa 0 - ^ .ra: .cfa 8 - ^
STACK CFI INIT 56948 ca .cfa: $rsp 640 + $rdi: .cfa 16 - ^ $rbx: .cfa 0 - ^ $rsi: .cfa 0 - ^ .ra: .cfa 8 - ^
STACK CFI INIT 56a20 61 .cfa: $rsp 64 + $rbx: .cfa 16 - ^ .ra: .cfa 8 - ^
STACK CFI INIT 56a90 3b .cfa: $rsp 64 + .ra: .cfa 8 - ^
STACK CFI INIT 56ae0 8fe .cfa: $rsp 208 + $rbx: .cfa 16 - ^ $rsi: .cfa 24 - ^ $rdi: .cfa 32 - ^ $r12: .cfa 40 - ^ $r13: .cfa 48 - ^ $r14: .cfa 56 - ^ $r15: .cfa 64 - ^ .ra: .cfa 8 - ^
STACK CFI INIT 57410 18 .cfa: $rsp 80 + $rbx: .cfa 16 - ^ .ra: .cfa 8 - ^
STACK CFI INIT 57428 ae .cfa: $rsp 80 + $rdi: .cfa 0 - ^ $rbx: .cfa 16 - ^ .ra: .cfa 8 - ^
STACK CFI INIT 574d6 6 .cfa: $rsp 80 + $rbx: .cfa 16 - ^ .ra: .cfa 8 - ^
STACK CFI INIT 574dc a4 .cfa: $rsp 80 + $rdi: .cfa 0 - ^ $rbx: .cfa 16 - ^ .ra: .cfa 8 - ^
STACK CFI INIT 57580 1e .cfa: $rsp 80 + $rdi: .cfa 0 - ^ $rbx: .cfa 16 - ^ .ra: .cfa 8 - ^
STACK CFI INIT 57630 3e .cfa: $rsp 48 + $rdi: .cfa 16 - ^ $rbp: .cfa 0 - ^ $rsi: .cfa 0 - ^ .ra: .cfa 8 - ^
STACK CFI INIT 5766e c1 .cfa: $rsp 48 + $rbx: .cfa 0 - ^ $rdi: .cfa 16 - ^ $rbp: .cfa 0 - ^ $rsi: .cfa 0 - ^ .ra: .cfa 8 - ^
STACK CFI INIT 5772f 34 .cfa: $rsp 48 + $rdi: .cfa 16 - ^ $rbp: .cfa 0 - ^ $rsi: .cfa 0 - ^ .ra: .cfa 8 - ^
STACK CFI INIT 57763 1fb .cfa: $rsp 48 + $rbx: .cfa 0 - ^ $rdi: .cfa 16 - ^ $rbp: .cfa 0 - ^ $rsi: .cfa 0 - ^ .ra: .cfa 8 - ^
STACK CFI INIT 57970 206 .cfa: $rsp 8 + $rbx: .cfa 0 - ^ $rdi: .cfa 0 - ^ .ra: .cfa 8 - ^
STACK CFI INIT 57b80 36 .cfa: $rsp 80 + $rbx: .cfa 16 - ^ $rbp: .cfa 24 - ^ $rsi: .cfa 32 - ^ $rdi: .cfa 40 - ^ .ra: .cfa 8 - ^
STACK CFI INIT 57bb6 cb .cfa: $rsp 80 + $r12: .cfa 0 - ^ $r13: .cfa 0 - ^ $r14: .cfa 0 - ^ $r15: .cfa 0 - ^ $rbx: .cfa 16 - ^ $rbp: .cfa 24 - ^ $rsi: .cfa 32 - ^ $rdi: .cfa 40 - ^ .ra: .cfa 8 - ^
STACK CFI INIT 57c81 24 .cfa: $rsp 80 + $rbx: .cfa 16 - ^ $rbp: .cfa 24 - ^ $rsi: .cfa 32 - ^ $rdi: .cfa 40 - ^ .ra: .cfa 8 - ^
STACK CFI INIT 57ca5 2cc .cfa: $rsp 80 + $r12: .cfa 0 - ^ $r13: .cfa 0 - ^ $r14: .cfa 0 - ^ $r15: .cfa 0 - ^ $rbx: .cfa 16 - ^ $rbp: .cfa 24 - ^ $rsi: .cfa 32 - ^ $rdi: .cfa 40 - ^ .ra: .cfa 8 - ^
STACK CFI INIT 57f80 245 .cfa: $rsp 8 + $rbx: .cfa 0 - ^ $rdi: .cfa 0 - ^ .ra: .cfa 8 - ^
STACK CFI INIT 581d0 e1 .cfa: $rsp 96 + $rsi: .cfa 16 - ^ $rdi: .cfa 24 - ^ $r12: .cfa 32 - ^ $r14: .cfa 40 - ^ $r15: .cfa 48 - ^ $rbx: .cfa 0 - ^ $rbp: .cfa 0 - ^ .ra: .cfa 8 - ^
STACK CFI INIT 582b8 33 .cfa: $rsp 48 + $rbx: .cfa 16 - ^ .ra: .cfa 8 - ^
STACK CFI INIT 582f4 8e .cfa: $rsp 96 + $rbp: .cfa 16 - ^ $rsi: .cfa 24 - ^ $rdi: .cfa 32 - ^ $rbx: .cfa 0 - ^ .ra: .cfa 8 - ^
STACK CFI INIT 58388 5d .cfa: $rsp 48 + $rdi: .cfa 16 - ^ $rbx: .cfa 0 - ^ .ra: .cfa 8 - ^
STACK CFI INIT 58410 bc .cfa: $rsp 64 + $rsi: .cfa 16 - ^ $rdi: .cfa 24 - ^ $r14: .cfa 32 - ^ $rbx: .cfa 0 - ^ $rbp: .cfa 0 - ^ .ra: .cfa 8 - ^
STACK CFI INIT 584e0 5a .cfa: $rsp 48 + $rdi: .cfa 16 - ^ $rbx: .cfa 0 - ^ $rbp: .cfa 0 - ^ $rsi: .cfa 0 - ^ .ra: .cfa 8 - ^
STACK CFI INIT 5854c 1fb .cfa: $rsp 144 + $rdi: .cfa 16 - ^ $r12: .cfa 24 - ^ $r13: .cfa 32 - ^ $r14: .cfa 40 - ^ $r15: .cfa 48 - ^ $rbx: .cfa 0 - ^ $rsi: .cfa 0 - ^ .ra: .cfa 8 - ^
STACK CFI INIT 58750 135 .cfa: $rsp 112 + $rdi: .cfa 16 - ^ $r14: .cfa 24 - ^ $r15: .cfa 32 - ^ $rbx: .cfa 0 - ^ $rsi: .cfa 0 - ^ .ra: .cfa 8 - ^
STACK CFI INIT 5888c 125 .cfa: $rsp 64 + $rdi: .cfa 16 - ^ $r14: .cfa 24 - ^ $r15: .cfa 32 - ^ $rbx: .cfa 0 - ^ $rbp: .cfa 0 - ^ $rsi: .cfa 0 - ^ .ra: .cfa 8 - ^
STACK CFI INIT 589c0 31 .cfa: $rsp 64 + $rdi: .cfa 16 - ^ $rbx: .cfa 0 - ^ .ra: .cfa 8 - ^
STACK CFI INIT 589f8 25 .cfa: $rsp 48 + .ra: .cfa 8 - ^
STACK CFI INIT 58a24 28 .cfa: $rsp 48 + .ra: .cfa 8 - ^
STACK CFI INIT 58a60 37 .cfa: $rsp 48 + $rdi: .cfa 16 - ^ $rbx: .cfa 0 - ^ .ra: .cfa 8 - ^
STACK CFI INIT 58acc 85 .cfa: $rsp 48 + $rdi: .cfa 16 - ^ $rbx: .cfa 0 - ^ $rsi: .cfa 0 - ^ .ra: .cfa 8 - ^
STACK CFI INIT 58b60 1b1 .cfa: $rsp 112 + $rbp: .cfa 16 - ^ $rsi: .cfa 24 - ^ $rdi: .cfa 32 - ^ $r14: .cfa 40 - ^ $r15: .cfa 48 - ^ $rbx: .cfa 0 - ^ .ra: .cfa 8 - ^
STACK CFI INIT 58d18 48 .cfa: $rsp 48 + $rbx: .cfa 16 - ^ .ra: .cfa 8 - ^
STACK CFI INIT 58d70 205 .cfa: $rsp 96 + $rdi: .cfa 16 - ^ $r12: .cfa 24 - ^ $r13: .cfa 32 - ^ $r14: .cfa 40 - ^ $r15: .cfa 48 - ^ $rbx: .cfa 0 - ^ $rbp: .cfa 0 - ^ $rsi: .cfa 0 - ^ .ra: .cfa 8 - ^
STACK CFI INIT 58f7c 27f .cfa: $rsp 352 + $rbp: .cfa 16 - ^ $rdi: .cfa 24 - ^ $r12: .cfa 32 - ^ $r14: .cfa 40 - ^ $r15: .cfa 48 - ^ $rbx: .cfa 0 - ^ $rsi: .cfa 0 - ^ .ra: .cfa 8 - ^
STACK CFI INIT 59210 538 .cfa: $rsp 432 + $rbp: .cfa 16 - ^ $rsi: .cfa 24 - ^ $rdi: .cfa 32 - ^ $r12: .cfa 40 - ^ $r13: .cfa 48 - ^ $r14: .cfa 56 - ^ $r15: .cfa 64 - ^ $rbx: .cfa 0 - ^ .ra: .cfa 8 - ^
STACK CFI INIT 59750 209 .cfa: $rsp 96 + $r13: .cfa 16 - ^ $r14: .cfa 24 - ^ $r15: .cfa 32 - ^ $rbx: .cfa 0 - ^ $rsi: .cfa 0 - ^ $rdi: .cfa 0 - ^ $r12: .cfa 0 - ^ .ra: .cfa 8 - ^
STACK CFI INIT 59960 170 .cfa: $rsp 64 + $r12: .cfa 16 - ^ $r14: .cfa 24 - ^ $r15: .cfa 32 - ^ $rbx: .cfa 0 - ^ $rbp: .cfa 0 - ^ $rsi: .cfa 0 - ^ $rdi: .cfa 0 - ^ .ra: .cfa 8 - ^
STACK CFI INIT 59ad8 142 .cfa: $rsp 96 + $rdi: .cfa 16 - ^ $rbx: .cfa 0 - ^ $rsi: .cfa 0 - ^ .ra: .cfa 8 - ^
STACK CFI INIT 59c20 43f .cfa: $rsp 1504 + $rbp: .cfa 16 - ^ $rsi: .cfa 24 - ^ $rdi: .cfa 32 - ^ $r12: .cfa 40 - ^ $r13: .cfa 48 - ^ $r14: .cfa 56 - ^ $r15: .cfa 64 - ^ $rbx: .cfa 0 - ^ .ra: .cfa 8 - ^
STACK CFI INIT 5a070 203 .cfa: $rsp 752 + $rbp: .cfa 16 - ^ $rdi: .cfa 24 - ^ $r12: .cfa 32 - ^ $r14: .cfa 40 - ^ $r15: .cfa 48 - ^ $rbx: .cfa 0 - ^ $rsi: .cfa 0 - ^ .ra: .cfa 8 - ^
STACK CFI INIT 5a27c 2d0 .cfa: $rsp 736 + $rbp: .cfa 16 - ^ $rsi: .cfa 24 - ^ $rdi: .cfa 32 - ^ $r12: .cfa 40 - ^ $r13: .cfa 48 - ^ $r14: .cfa 56 - ^ $r15: .cfa 64 - ^ $rbx: .cfa 0 - ^ .ra: .cfa 8 - ^
STACK CFI INIT 5a554 128 .cfa: $rsp 128 + $rdi: .cfa 16 - ^ $r14: .cfa 24 - ^ $r15: .cfa 32 - ^ $rbx: .cfa 0 - ^ $rbp: .cfa 0 - ^ $rsi: .cfa 0 - ^ .ra: .cfa 8 - ^
STACK CFI INIT 5a684 2d5 .cfa: $rsp 880 + $rbp: .cfa 16 - ^ $rsi: .cfa 24 - ^ $rdi: .cfa 32 - ^ $r12: .cfa 40 - ^ $r13: .cfa 48 - ^ $r14: .cfa 56 - ^ $r15: .cfa 64 - ^ $rbx: .cfa 0 - ^ .ra: .cfa 8 - ^
STACK CFI INIT 5a960 2f .cfa: $rsp 64 + $rbx: .cfa 16 - ^ .ra: .cfa 8 - ^
STACK CFI INIT 5a998 90 .cfa: $rsp 96 + $rdi: .cfa 16 - ^ $rbx: .cfa 0 - ^ $rbp: .cfa 0 - ^ $rsi: .cfa 0 - ^ .ra: .cfa 8 - ^
STACK CFI INIT 5aa30 7e .cfa: $rsp 80 + $rdi: .cfa 16 - ^ $rbx: .cfa 0 - ^ $rsi: .cfa 0 - ^ .ra: .cfa 8 - ^
STACK CFI INIT 5aab4 5b .cfa: $rsp 8 + $rbx: .cfa 0 - ^ .ra: .cfa 8 - ^
STACK CFI INIT 5ab18 27d .cfa: $rsp 288 + $rbp: .cfa 16 - ^ $rdi: .cfa 24 - ^ $r12: .cfa 32 - ^ $r14: .cfa 40 - ^ $r15: .cfa 48 - ^ $rbx: .cfa 0 - ^ $rsi: .cfa 0 - ^ .ra: .cfa 8 - ^
STACK CFI INIT 5ada0 5c7 .cfa: $rsp 784 + $rbp: .cfa 16 - ^ $rsi: .cfa 24 - ^ $rdi: .cfa 32 - ^ $r12: .cfa 40 - ^ $r13: .cfa 48 - ^ $r14: .cfa 56 - ^ $r15: .cfa 64 - ^ $rbx: .cfa 0 - ^ .ra: .cfa 8 - ^
STACK CFI INIT 5b370 11b .cfa: $rsp 240 + $rbp: .cfa 16 - ^ $rdi: .cfa 24 - ^ $r14: .cfa 32 - ^ $rbx: .cfa 0 - ^ $rsi: .cfa 0 - ^ .ra: .cfa 8 - ^
STACK CFI INIT 5b4a0 31 .cfa: $rsp 48 + $rdi: .cfa 16 - ^ $rbx: .cfa 0 - ^ .ra: .cfa 8 - ^
STACK CFI INIT 5b4e0 2ec .cfa: $rsp 112 + $rbp: .cfa 16 - ^ $rsi: .cfa 24 - ^ $rdi: .cfa 32 - ^ $r12: .cfa 40 - ^ $r13: .cfa 48 - ^ $r14: .cfa 56 - ^ $r15: .cfa 64 - ^ $rbx: .cfa 0 - ^ .ra: .cfa 8 - ^
STACK CFI INIT 5b7d4 89 .cfa: $rsp 96 + $rbp: .cfa 16 - ^ $rbx: .cfa 0 - ^ $rdi: .cfa 0 - ^ .ra: .cfa 8 - ^
STACK CFI INIT 5b864 7f .cfa: $rsp 96 + $rdi: .cfa 16 - ^ $rbx: .cfa 0 - ^ .ra: .cfa 8 - ^
STACK CFI INIT 5b8ec 5c .cfa: $rsp 8 + $rbx: .cfa 0 - ^ .ra: .cfa 8 - ^
STACK CFI INIT 5b950 35 .cfa: $rsp 48 + .ra: .cfa 8 - ^
STACK CFI INIT 5b98c 68 .cfa: $rsp 48 + $rdi: .cfa 16 - ^ $rbx: .cfa 0 - ^ .ra: .cfa 8 - ^
STACK CFI INIT 5ba3c 6d .cfa: $rsp 64 + $rdi: .cfa 16 - ^ $rbx: .cfa 0 - ^ $rbp: .cfa 0 - ^ $rsi: .cfa 0 - ^ .ra: .cfa 8 - ^
STACK CFI INIT 5bab0 d3 .cfa: $rsp 64 + .ra: .cfa 8 - ^
STACK CFI INIT 5bb8c 33 .cfa: $rsp 48 + $rbx: .cfa 16 - ^ .ra: .cfa 8 - ^
STACK CFI INIT 5bbc8 3f8 .cfa: $rsp 256 + $rdi: .cfa 16 - ^ $r12: .cfa 24 - ^ $r13: .cfa 32 - ^ $r14: .cfa 40 - ^ $r15: .cfa 48 - ^ $rbx: .cfa 0 - ^ $rsi: .cfa 0 - ^ .ra: .cfa 8 - ^
STACK CFI INIT 5bfc8 177 .cfa: $rsp 96 + $rbx: .cfa 16 - ^ $rsi: .cfa 24 - ^ $rdi: .cfa 32 - ^ $r14: .cfa 40 - ^ $r15: .cfa 48 - ^ .ra: .cfa 8 - ^
STACK CFI INIT 5c148 d1 .cfa: $rsp 64 + $rdi: .cfa 16 - ^ $r14: .cfa 24 - ^ $r15: .cfa 32 - ^ $rbx: .cfa 0 - ^ $rbp: .cfa 0 - ^ $rsi: .cfa 0 - ^ .ra: .cfa 8 - ^
STACK CFI INIT 5c250 23 .cfa: $rsp 80 + .ra: .cfa 8 - ^
STACK CFI INIT 5c280 85 .cfa: $rsp 80 + $rdi: .cfa 16 - ^ $rbx: .cfa 0 - ^ $rbp: .cfa 0 - ^ $rsi: .cfa 0 - ^ .ra: .cfa 8 - ^
STACK CFI INIT 5c310 1ee .cfa: $rsp 80 + $rdi: .cfa 16 - ^ $r12: .cfa 24 - ^ $r13: .cfa 32 - ^ $r14: .cfa 40 - ^ $r15: .cfa 48 - ^ $rbx: .cfa 0 - ^ $rbp: .cfa 0 - ^ $rsi: .cfa 0 - ^ .ra: .cfa 8 - ^
STACK CFI INIT 5c510 210 .cfa: $rsp 96 + $rbp: .cfa 16 - ^ $rsi: .cfa 24 - ^ $rdi: .cfa 32 - ^ $r12: .cfa 40 - ^ $r13: .cfa 48 - ^ $r14: .cfa 56 - ^ $r15: .cfa 64 - ^ $rbx: .cfa 0 - ^ .ra: .cfa 8 - ^
STACK CFI INIT 5c730 9d .cfa: $rsp 48 + $rdi: .cfa 16 - ^ $rbx: .cfa 0 - ^ $rbp: .cfa 0 - ^ $rsi: .cfa 0 - ^ .ra: .cfa 8 - ^
STACK CFI INIT 5c7e0 121 .cfa: $rsp 80 + $rdi: .cfa 16 - ^ $r12: .cfa 24 - ^ $r13: .cfa 32 - ^ $r14: .cfa 40 - ^ $r15: .cfa 48 - ^ $rbx: .cfa 0 - ^ $rbp: .cfa 0 - ^ $rsi: .cfa 0 - ^ .ra: .cfa 8 - ^
STACK CFI INIT 5c910 9c .cfa: $rsp 48 + $rdi: .cfa 16 - ^ $rbx: .cfa 0 - ^ $rbp: .cfa 0 - ^ $rsi: .cfa 0 - ^ .ra: .cfa 8 - ^
STACK CFI INIT 5c9c0 b4 .cfa: $rsp 8 + $rbx: .cfa 0 - ^ .ra: .cfa 8 - ^
STACK CFI INIT 5cb10 20b .cfa: $rsp 208 + $rdi: .cfa 16 - ^ $rbx: .cfa 0 - ^ $rsi: .cfa 0 - ^ .ra: .cfa 8 - ^
STACK CFI INIT 5cd40 52 .cfa: $rsp 96 + $r15: .cfa 16 - ^ .ra: .cfa 8 - ^
STACK CFI INIT 5cd92 a6 .cfa: $rsp 96 + $rbx: .cfa 0 - ^ $rbp: .cfa 0 - ^ $rdi: .cfa 0 - ^ $r12: .cfa 0 - ^ $r14: .cfa 0 - ^ $r15: .cfa 16 - ^ .ra: .cfa 8 - ^
STACK CFI INIT 5ce38 14 .cfa: $rsp 96 + $r15: .cfa 16 - ^ .ra: .cfa 8 - ^
STACK CFI INIT 5ce4c 53 .cfa: $rsp 96 + $rbx: .cfa 0 - ^ $rbp: .cfa 0 - ^ $rdi: .cfa 0 - ^ $r12: .cfa 0 - ^ $r14: .cfa 0 - ^ $r15: .cfa 16 - ^ .ra: .cfa 8 - ^
STACK CFI INIT 5ceb0 193 .cfa: $rsp 160 + $rbp: .cfa 16 - ^ $rsi: .cfa 24 - ^ $rdi: .cfa 32 - ^ $r12: .cfa 40 - ^ $r13: .cfa 48 - ^ $r14: .cfa 56 - ^ $r15: .cfa 64 - ^ $rbx: .cfa 0 - ^ .ra: .cfa 8 - ^
STACK CFI INIT 5d050 205 .cfa: $rsp 48 + $rdi: .cfa 16 - ^ $r12: .cfa 24 - ^ $r13: .cfa 32 - ^ $r14: .cfa 40 - ^ $r15: .cfa 48 - ^ $rbx: .cfa 0 - ^ $rbp: .cfa 0 - ^ $rsi: .cfa 0 - ^ .ra: .cfa 8 - ^
STACK CFI INIT 5d260 22f .cfa: $rsp 8 + $rbx: .cfa 0 - ^ $rdi: .cfa 0 - ^ .ra: .cfa 8 - ^
STACK CFI INIT 5d4c0 521 .cfa: $rsp 144 + $rbx: .cfa 16 - ^ $rbp: .cfa 24 - ^ $rsi: .cfa 32 - ^ $rdi: .cfa 40 - ^ $r12: .cfa 48 - ^ $r13: .cfa 56 - ^ $r14: .cfa 64 - ^ $r15: .cfa 72 - ^ .ra: .cfa 8 - ^
STACK CFI INIT 5d9f0 4d .cfa: $rsp 48 + $rbx: .cfa 16 - ^ .ra: .cfa 8 - ^
STACK CFI INIT 5da50 f5 .cfa: $rsp 80 + $rdi: .cfa 16 - ^ $r14: .cfa 24 - ^ $r15: .cfa 32 - ^ $rbx: .cfa 0 - ^ $rbp: .cfa 0 - ^ $rsi: .cfa 0 - ^ .ra: .cfa 8 - ^
STACK CFI INIT 5db50 e2 .cfa: $rsp 64 + $r14: .cfa 16 - ^ $rbx: .cfa 0 - ^ $rbp: .cfa 0 - ^ $rsi: .cfa 0 - ^ $rdi: .cfa 0 - ^ .ra: .cfa 8 - ^
STACK CFI INIT 5dc40 c6 .cfa: $rsp 48 + $rbx: .cfa 16 - ^ .ra: .cfa 8 - ^
STACK CFI INIT 5dd40 85 .cfa: $rsp 112 + $rbx: .cfa 16 - ^ .ra: .cfa 8 - ^
STACK CFI INIT 5ddd0 2d .cfa: $rsp 48 + $rdi: .cfa 16 - ^ $rbx: .cfa 0 - ^ .ra: .cfa 8 - ^
STACK CFI INIT 5de10 31 .cfa: $rsp 48 + $rbx: .cfa 16 - ^ .ra: .cfa 8 - ^
STACK CFI INIT 5de50 5d .cfa: $rsp 80 + $rdi: .cfa 16 - ^ $rbx: .cfa 0 - ^ $rbp: .cfa 0 - ^ $rsi: .cfa 0 - ^ .ra: .cfa 8 - ^
STACK CFI INIT 5dec0 13d .cfa: $rsp 64 + $r13: .cfa 16 - ^ $r14: .cfa 24 - ^ $r15: .cfa 32 - ^ $rbx: .cfa 0 - ^ $rsi: .cfa 0 - ^ $rdi: .cfa 0 - ^ $r12: .cfa 0 - ^ .ra: .cfa 8 - ^
STACK CFI INIT 5e004 9f .cfa: $rsp 64 + $r12: .cfa 16 - ^ $r14: .cfa 24 - ^ $r15: .cfa 32 - ^ $rbx: .cfa 0 - ^ $rbp: .cfa 0 - ^ $rsi: .cfa 0 - ^ $rdi: .cfa 0 - ^ .ra: .cfa 8 - ^
STACK CFI INIT 5e0b0 66 .cfa: $rsp 48 + $rdi: .cfa 16 - ^ $rbx: .cfa 0 - ^ $rsi: .cfa 0 - ^ .ra: .cfa 8 - ^
STACK CFI INIT 5e11c 1a1 .cfa: $rsp 64 + $rdi: .cfa 16 - ^ $r12: .cfa 24 - ^ $r14: .cfa 32 - ^ $rbx: .cfa 0 - ^ $rbp: .cfa 0 - ^ $rsi: .cfa 0 - ^ .ra: .cfa 8 - ^
STACK CFI INIT 5e2c4 b4 .cfa: $rsp 48 + $rdi: .cfa 16 - ^ $rbx: .cfa 0 - ^ .ra: .cfa 8 - ^
STACK CFI INIT 5e420 ae .cfa: $rsp 112 + $rdi: .cfa 16 - ^ $rbx: .cfa 0 - ^ .ra: .cfa 8 - ^
STACK CFI INIT 5e4e0 7c .cfa: $rsp 64 + $rdi: .cfa 16 - ^ $r14: .cfa 24 - ^ $r15: .cfa 32 - ^ $rbx: .cfa 0 - ^ $rbp: .cfa 0 - ^ $rsi: .cfa 0 - ^ .ra: .cfa 8 - ^
STACK CFI INIT 5e570 134 .cfa: $rsp 48 + $r14: .cfa 16 - ^ $rbx: .cfa 0 - ^ $rdi: .cfa 0 - ^ .ra: .cfa 8 - ^
STACK CFI INIT 5e6b0 3c .cfa: $rsp 48 + $rbx: .cfa 16 - ^ .ra: .cfa 8 - ^
STACK CFI INIT 5e700 e6 .cfa: $rsp 48 + $r14: .cfa 16 - ^ $rbx: .cfa 0 - ^ $rsi: .cfa 0 - ^ $rdi: .cfa 0 - ^ .ra: .cfa 8 - ^
STACK CFI INIT 5e7ec 79 .cfa: $rsp 48 + $rbx: .cfa 16 - ^ .ra: .cfa 8 - ^
STACK CFI INIT 5e8c0 16a .cfa: $rsp 80 + $rdi: .cfa 16 - ^ $r12: .cfa 24 - ^ $r13: .cfa 32 - ^ $r14: .cfa 40 - ^ $r15: .cfa 48 - ^ $rbx: .cfa 0 - ^ $rbp: .cfa 0 - ^ $rsi: .cfa 0 - ^ .ra: .cfa 8 - ^
STACK CFI INIT 5ea30 aa .cfa: $rsp 48 + $rdi: .cfa 16 - ^ $rbx: .cfa 0 - ^ $rbp: .cfa 0 - ^ $rsi: .cfa 0 - ^ .ra: .cfa 8 - ^
STACK CFI INIT 5eaf4 f7 .cfa: $rsp 48 + $rdi: .cfa 16 - ^ $rbx: .cfa 0 - ^ $rsi: .cfa 0 - ^ .ra: .cfa 8 - ^
STACK CFI INIT 5ebf4 1a7 .cfa: $rsp 80 + $r12: .cfa 16 - ^ $r14: .cfa 24 - ^ $r15: .cfa 32 - ^ $rbx: .cfa 0 - ^ $rbp: .cfa 0 - ^ $rsi: .cfa 0 - ^ $rdi: .cfa 0 - ^ .ra: .cfa 8 - ^
STACK CFI INIT 5edb0 ce .cfa: $rsp 8 + $rbx: .cfa 0 - ^ .ra: .cfa 8 - ^
STACK CFI INIT 5ef50 df .cfa: $rsp 48 + $r14: .cfa 16 - ^ $rbx: .cfa 0 - ^ $rbp: .cfa 0 - ^ $rsi: .cfa 0 - ^ $rdi: .cfa 0 - ^ .ra: .cfa 8 - ^
STACK CFI INIT 5f040 145 .cfa: $rsp 256 + $rbx: .cfa 16 - ^ $rbp: .cfa 24 - ^ $rsi: .cfa 32 - ^ $rdi: .cfa 40 - ^ $r14: .cfa 48 - ^ $r15: .cfa 56 - ^ .ra: .cfa 8 - ^
STACK CFI INIT 5f190 285 .cfa: $rsp 112 + $rdi: .cfa 16 - ^ $r12: .cfa 24 - ^ $r13: .cfa 32 - ^ $r14: .cfa 40 - ^ $r15: .cfa 48 - ^ $rbx: .cfa 0 - ^ $rbp: .cfa 0 - ^ $rsi: .cfa 0 - ^ .ra: .cfa 8 - ^
STACK CFI INIT 5f420 d2 .cfa: $rsp 112 + $rbx: .cfa 16 - ^ $rsi: .cfa 24 - ^ $rdi: .cfa 32 - ^ $r14: .cfa 40 - ^ $r15: .cfa 48 - ^ .ra: .cfa 8 - ^
STACK CFI INIT 5f500 1ae .cfa: $rsp 8 + $rbx: .cfa 0 - ^ $rsi: .cfa 0 - ^ $rdi: .cfa 0 - ^ .ra: .cfa 8 - ^
STACK CFI INIT 5f6f0 159 .cfa: $rsp 192 + $rbp: .cfa 16 - ^ $rsi: .cfa 24 - ^ $rdi: .cfa 32 - ^ $r12: .cfa 40 - ^ $r13: .cfa 48 - ^ $r14: .cfa 56 - ^ $r15: .cfa 64 - ^ $rbx: .cfa 0 - ^ .ra: .cfa 8 - ^
STACK CFI INIT 5f850 a7 .cfa: $rsp 160 + $rbp: .cfa 16 - ^ $rbx: .cfa 24 - ^ $rsi: .cfa 32 - ^ $rdi: .cfa 40 - ^ .ra: .cfa 8 - ^
STACK CFI INIT 5f900 1b0 .cfa: $rsp 176 + $rbp: .cfa 16 - ^ $rsi: .cfa 24 - ^ $rdi: .cfa 32 - ^ $r14: .cfa 40 - ^ $r15: .cfa 48 - ^ $rbx: .cfa 0 - ^ .ra: .cfa 8 - ^
STACK CFI INIT 5fae0 145 .cfa: $rsp 176 + $rbp: .cfa 16 - ^ $rbx: .cfa 24 - ^ $rsi: .cfa 32 - ^ $rdi: .cfa 40 - ^ $r12: .cfa 48 - ^ $r13: .cfa 56 - ^ $r14: .cfa 64 - ^ .ra: .cfa 8 - ^
STACK CFI INIT 5fc2c 160 .cfa: $rsp 8 + $rbx: .cfa 0 - ^ .ra: .cfa 8 - ^
STACK CFI INIT 5fda0 b3 .cfa: $rsp 80 + $rdi: .cfa 16 - ^ $r12: .cfa 24 - ^ $r13: .cfa 32 - ^ $r14: .cfa 40 - ^ $r15: .cfa 48 - ^ $rbx: .cfa 0 - ^ $rbp: .cfa 0 - ^ $rsi: .cfa 0 - ^ .ra: .cfa 8 - ^
STACK CFI INIT 5fe60 5e .cfa: $rsp 48 + $rbx: .cfa 16 - ^ .ra: .cfa 8 - ^
STACK CFI INIT 5fed0 f0 .cfa: $rsp 128 + $rbx: .cfa 16 - ^ $rsi: .cfa 24 - ^ $rdi: .cfa 32 - ^ $r12: .cfa 40 - ^ $r13: .cfa 48 - ^ $r14: .cfa 56 - ^ $r15: .cfa 64 - ^ .ra: .cfa 8 - ^
STACK CFI INIT 5ffd0 19f .cfa: $rsp 8 + $rbx: .cfa 0 - ^ $rsi: .cfa 0 - ^ $rdi: .cfa 0 - ^ .ra: .cfa 8 - ^
STACK CFI INIT 60178 90 .cfa: $rsp 8 + $rbx: .cfa 0 - ^ $rdi: .cfa 0 - ^ .ra: .cfa 8 - ^
STACK CFI INIT 60210 600 .cfa: $rsp 1920 + $rbp: .cfa 16 - ^ $r12: .cfa 24 - ^ $r13: .cfa 32 - ^ $r14: .cfa 40 - ^ $r15: .cfa 48 - ^ $rbx: .cfa 0 - ^ $rsi: .cfa 0 - ^ $rdi: .cfa 0 - ^ .ra: .cfa 8 - ^
STACK CFI INIT 60818 11b .cfa: $rsp 144 + $rbp: .cfa 16 - ^ $rbx: .cfa 24 - ^ $rsi: .cfa 32 - ^ $rdi: .cfa 40 - ^ $r12: .cfa 48 - ^ $r13: .cfa 56 - ^ $r14: .cfa 64 - ^ $r15: .cfa 72 - ^ .ra: .cfa 8 - ^
STACK CFI INIT 6093c 7d .cfa: $rsp 48 + $r14: .cfa 16 - ^ $rbx: .cfa 0 - ^ $rbp: .cfa 0 - ^ $rsi: .cfa 0 - ^ $rdi: .cfa 0 - ^ .ra: .cfa 8 - ^
STACK CFI INIT 60a10 50 .cfa: $rsp 48 + .ra: .cfa 8 - ^
STACK CFI INIT 60ac0 94 .cfa: $rsp 48 + $r14: .cfa 16 - ^ $rbx: .cfa 0 - ^ $rsi: .cfa 0 - ^ $rdi: .cfa 0 - ^ .ra: .cfa 8 - ^
STACK CFI INIT 60c40 72 .cfa: $rsp 32 + .ra: .cfa 8 - ^
STACK CFI INIT 60cc0 6d .cfa: $rsp 48 + $rdi: .cfa 16 - ^ $rbx: .cfa 0 - ^ $rsi: .cfa 0 - ^ .ra: .cfa 8 - ^
STACK CFI INIT 60d40 8f .cfa: $rsp 48 + $rdi: .cfa 16 - ^ $rbx: .cfa 0 - ^ $rsi: .cfa 0 - ^ .ra: .cfa 8 - ^
STACK CFI INIT 60de0 8f .cfa: $rsp 48 + $rbx: .cfa 16 - ^ .ra: .cfa 8 - ^
STACK CFI INIT 60e80 5d .cfa: $rsp 80 + $rdi: .cfa 16 - ^ $rbx: .cfa 0 - ^ $rbp: .cfa 0 - ^ $rsi: .cfa 0 - ^ .ra: .cfa 8 - ^
STACK CFI INIT 60ef0 111 .cfa: $rsp 64 + $r13: .cfa 16 - ^ $r14: .cfa 24 - ^ $r15: .cfa 32 - ^ $rbx: .cfa 0 - ^ $rsi: .cfa 0 - ^ $rdi: .cfa 0 - ^ $r12: .cfa 0 - ^ .ra: .cfa 8 - ^
STACK CFI INIT 61010 57 .cfa: $rsp 48 + $rdi: .cfa 16 - ^ $rbx: .cfa 0 - ^ .ra: .cfa 8 - ^
STACK CFI INIT 61070 18 .cfa: $rsp 48 + .ra: .cfa 8 - ^
STACK CFI INIT 61090 4a .cfa: $rsp 48 + $rdi: .cfa 16 - ^ $rbx: .cfa 0 - ^ $rsi: .cfa 0 - ^ .ra: .cfa 8 - ^
STACK CFI INIT 610e0 9f .cfa: $rsp 64 + $r12: .cfa 16 - ^ $r14: .cfa 24 - ^ $r15: .cfa 32 - ^ $rbx: .cfa 0 - ^ $rbp: .cfa 0 - ^ $rsi: .cfa 0 - ^ $rdi: .cfa 0 - ^ .ra: .cfa 8 - ^
STACK CFI INIT 61400 a4 .cfa: $rsp 48 + $rdi: .cfa 16 - ^ $rbx: .cfa 0 - ^ .ra: .cfa 8 - ^
STACK CFI INIT 61680 21 .cfa: $rsp 64 + .ra: .cfa 8 - ^
STACK CFI INIT 616b0 415 .cfa: $rsp 512 + $rdi: .cfa 16 - ^ $r12: .cfa 24 - ^ $r13: .cfa 32 - ^ $r14: .cfa 40 - ^ $r15: .cfa 48 - ^ $rbx: .cfa 0 - ^ $rsi: .cfa 0 - ^ .ra: .cfa 8 - ^
STACK CFI INIT 61acc 20 .cfa: $rsp 48 + $rbx: .cfa 16 - ^ .ra: .cfa 8 - ^
STACK CFI INIT 61b50 12 .cfa: $rsp 8 + .ra: .cfa 8 - ^
STACK CFI INIT 61c70 22 .cfa: $rsp 48 + .ra: .cfa 8 - ^
STACK CFI INIT 61cb0 ce .cfa: $rsp 144 + $rbx: .cfa 16 - ^ $rbp: .cfa 24 - ^ $rsi: .cfa 32 - ^ $rdi: .cfa 40 - ^ $r14: .cfa 48 - ^ .ra: .cfa 8 - ^
STACK CFI INIT 61d90 4a .cfa: $rsp 80 + $rbx: .cfa 16 - ^ .ra: .cfa 8 - ^
STACK CFI INIT 61de0 21b .cfa: $rsp 96 + $rdi: .cfa 16 - ^ $r12: .cfa 24 - ^ $r13: .cfa 32 - ^ $r14: .cfa 40 - ^ $r15: .cfa 48 - ^ $rbx: .cfa 0 - ^ $rsi: .cfa 0 - ^ .ra: .cfa 8 - ^
STACK CFI INIT 62004 18 .cfa: $rsp 64 + .ra: .cfa 8 - ^
STACK CFI INIT 62030 352 .cfa: $rsp 96 + $rdi: .cfa 16 - ^ $r12: .cfa 24 - ^ $r13: .cfa 32 - ^ $r14: .cfa 40 - ^ $r15: .cfa 48 - ^ $rbx: .cfa 0 - ^ $rsi: .cfa 0 - ^ .ra: .cfa 8 - ^
STACK CFI INIT 623b0 389 .cfa: $rsp 160 + $rbp: .cfa 16 - ^ $rsi: .cfa 24 - ^ $rdi: .cfa 32 - ^ $r12: .cfa 40 - ^ $r13: .cfa 48 - ^ $r14: .cfa 56 - ^ $r15: .cfa 64 - ^ $rbx: .cfa 0 - ^ .ra: .cfa 8 - ^
STACK CFI INIT 62740 9a .cfa: $rsp 64 + $rsi: .cfa 16 - ^ $rdi: .cfa 24 - ^ $r14: .cfa 32 - ^ $rbx: .cfa 0 - ^ $rbp: .cfa 0 - ^ .ra: .cfa 8 - ^
STACK CFI INIT 627e0 73 .cfa: $rsp 64 + $rdi: .cfa 16 - ^ $rbx: .cfa 0 - ^ $rsi: .cfa 0 - ^ .ra: .cfa 8 - ^
STACK CFI INIT 6285c fc .cfa: $rsp 64 + $rbx: .cfa 16 - ^ .ra: .cfa 8 - ^
STACK CFI INIT 62960 ed .cfa: $rsp 48 + $r14: .cfa 16 - ^ $rbx: .cfa 0 - ^ $rbp: .cfa 0 - ^ $rsi: .cfa 0 - ^ $rdi: .cfa 0 - ^ .ra: .cfa 8 - ^
STACK CFI INIT 62a54 8f .cfa: $rsp 48 + $rdi: .cfa 16 - ^ $rbx: .cfa 0 - ^ $rbp: .cfa 0 - ^ $rsi: .cfa 0 - ^ .ra: .cfa 8 - ^
STACK CFI INIT 62af0 a7 .cfa: $rsp 96 + $rbp: .cfa 16 - ^ $rsi: .cfa 24 - ^ $rdi: .cfa 32 - ^ $r12: .cfa 40 - ^ $r13: .cfa 48 - ^ $r14: .cfa 56 - ^ $r15: .cfa 64 - ^ $rbx: .cfa 0 - ^ .ra: .cfa 8 - ^
STACK CFI INIT 62ba0 39d .cfa: $rsp 128 + $rbx: .cfa 16 - ^ $rbp: .cfa 24 - ^ $rsi: .cfa 32 - ^ $rdi: .cfa 40 - ^ $r12: .cfa 48 - ^ $r13: .cfa 56 - ^ $r14: .cfa 64 - ^ $r15: .cfa 72 - ^ .ra: .cfa 8 - ^
STACK CFI INIT 62f50 a4 .cfa: $rsp 48 + $r14: .cfa 16 - ^ $rbx: .cfa 0 - ^ $rsi: .cfa 0 - ^ $rdi: .cfa 0 - ^ .ra: .cfa 8 - ^
STACK CFI INIT 63000 43 .cfa: $rsp 96 + .ra: .cfa 8 - ^
STACK CFI INIT 6304c 11b .cfa: $rsp 112 + $rsi: .cfa 16 - ^ $rdi: .cfa 24 - ^ $r14: .cfa 32 - ^ $rbx: .cfa 0 - ^ $rbp: .cfa 0 - ^ .ra: .cfa 8 - ^
STACK CFI INIT 63170 14d .cfa: $rsp 80 + $rsi: .cfa 16 - ^ $rdi: .cfa 24 - ^ $r14: .cfa 32 - ^ $rbx: .cfa 0 - ^ $rbp: .cfa 0 - ^ .ra: .cfa 8 - ^
STACK CFI INIT 632c4 1a7 .cfa: $rsp 112 + $rbp: .cfa 16 - ^ $rsi: .cfa 24 - ^ $rdi: .cfa 32 - ^ $r12: .cfa 40 - ^ $r14: .cfa 48 - ^ $rbx: .cfa 0 - ^ .ra: .cfa 8 - ^
STACK CFI INIT 63474 e7 .cfa: $rsp 64 + $rdi: .cfa 16 - ^ $r12: .cfa 24 - ^ $r14: .cfa 32 - ^ $rbx: .cfa 0 - ^ $rbp: .cfa 0 - ^ $rsi: .cfa 0 - ^ .ra: .cfa 8 - ^
STACK CFI INIT 63564 121 .cfa: $rsp 48 + $rdi: .cfa 16 - ^ $rbx: .cfa 0 - ^ $rsi: .cfa 0 - ^ .ra: .cfa 8 - ^
STACK CFI INIT 6368c 82 .cfa: $rsp 64 + $r14: .cfa 16 - ^ $rbx: .cfa 0 - ^ $rbp: .cfa 0 - ^ $rsi: .cfa 0 - ^ $rdi: .cfa 0 - ^ .ra: .cfa 8 - ^
STACK CFI INIT 63720 65 .cfa: $rsp 80 + $rdi: .cfa 16 - ^ $rbx: .cfa 0 - ^ .ra: .cfa 8 - ^
STACK CFI INIT 63790 84 .cfa: $rsp 80 + $rdi: .cfa 16 - ^ $rbx: .cfa 0 - ^ $rsi: .cfa 0 - ^ .ra: .cfa 8 - ^
STACK CFI INIT 63820 56 .cfa: $rsp 80 + $rdi: .cfa 16 - ^ $rbx: .cfa 0 - ^ $rsi: .cfa 0 - ^ .ra: .cfa 8 - ^
STACK CFI INIT 6387c 96 .cfa: $rsp 48 + $rdi: .cfa 16 - ^ $rbx: .cfa 0 - ^ .ra: .cfa 8 - ^
STACK CFI INIT 63920 c4 .cfa: $rsp 48 + $rdi: .cfa 16 - ^ $rbx: .cfa 0 - ^ $rsi: .cfa 0 - ^ .ra: .cfa 8 - ^
STACK CFI INIT 63a20 1f5 .cfa: $rsp 192 + $rdi: .cfa 16 - ^ $r12: .cfa 24 - ^ $r13: .cfa 32 - ^ $r14: .cfa 40 - ^ $r15: .cfa 48 - ^ $rbx: .cfa 0 - ^ $rsi: .cfa 0 - ^ .ra: .cfa 8 - ^
STACK CFI INIT 63c50 f6 .cfa: $rsp 48 + $r14: .cfa 16 - ^ $rbx: .cfa 0 - ^ $rbp: .cfa 0 - ^ $rsi: .cfa 0 - ^ $rdi: .cfa 0 - ^ .ra: .cfa 8 - ^
STACK CFI INIT 63d50 15 .cfa: $rsp 48 + .ra: .cfa 8 - ^
STACK CFI INIT 63d70 4a .cfa: $rsp 64 + $rbx: .cfa 16 - ^ .ra: .cfa 8 - ^
STACK CFI INIT 63dc0 10b .cfa: $rsp 80 + $rdi: .cfa 16 - ^ $r12: .cfa 24 - ^ $r13: .cfa 32 - ^ $r14: .cfa 40 - ^ $r15: .cfa 48 - ^ $rbx: .cfa 0 - ^ $rbp: .cfa 0 - ^ $rsi: .cfa 0 - ^ .ra: .cfa 8 - ^
STACK CFI INIT 63ed4 184 .cfa: $rsp 80 + $r12: .cfa 16 - ^ $r14: .cfa 24 - ^ $r15: .cfa 32 - ^ $rbx: .cfa 0 - ^ $rbp: .cfa 0 - ^ $rsi: .cfa 0 - ^ $rdi: .cfa 0 - ^ .ra: .cfa 8 - ^
STACK CFI INIT 64080 90 .cfa: $rsp 64 + $rsi: .cfa 16 - ^ $rdi: .cfa 24 - ^ $r14: .cfa 32 - ^ $rbx: .cfa 0 - ^ $rbp: .cfa 0 - ^ .ra: .cfa 8 - ^
STACK CFI INIT 64120 180 .cfa: $rsp 80 + $r13: .cfa 16 - ^ $r14: .cfa 24 - ^ $r15: .cfa 32 - ^ $rbx: .cfa 0 - ^ $rsi: .cfa 0 - ^ $rdi: .cfa 0 - ^ $r12: .cfa 0 - ^ .ra: .cfa 8 - ^
STACK CFI INIT 64300 f0 .cfa: $rsp 160 + $rbp: .cfa 16 - ^ $rbx: .cfa 0 - ^ $rdi: .cfa 0 - ^ .ra: .cfa 8 - ^
STACK CFI INIT 643f8 15d .cfa: $rsp 48 + $rbx: .cfa 16 - ^ $rbp: .cfa 24 - ^ $rsi: .cfa 32 - ^ $rdi: .cfa 40 - ^ $r15: .cfa 48 - ^ .ra: .cfa 8 - ^
STACK CFI INIT 64560 3a .cfa: $rsp 48 + $rbx: .cfa 16 - ^ .ra: .cfa 8 - ^
STACK CFI INIT 645a0 7d .cfa: $rsp 64 + $rbx: .cfa 16 - ^ .ra: .cfa 8 - ^
STACK CFI INIT 64624 122 .cfa: $rsp 64 + $r12: .cfa 16 - ^ $r14: .cfa 24 - ^ $r15: .cfa 32 - ^ $rbx: .cfa 0 - ^ $rbp: .cfa 0 - ^ $rsi: .cfa 0 - ^ $rdi: .cfa 0 - ^ .ra: .cfa 8 - ^
STACK CFI INIT 64750 8f .cfa: $rsp 48 + $rdi: .cfa 16 - ^ $rbx: .cfa 0 - ^ .ra: .cfa 8 - ^
STACK CFI INIT 647e8 452 .cfa: $rsp 176 + $rbp: .cfa 16 - ^ $rsi: .cfa 24 - ^ $rdi: .cfa 32 - ^ $r12: .cfa 40 - ^ $r13: .cfa 48 - ^ $r14: .cfa 56 - ^ $r15: .cfa 64 - ^ $rbx: .cfa 0 - ^ .ra: .cfa 8 - ^
STACK CFI INIT 64c40 90 .cfa: $rsp 48 + $rdi: .cfa 16 - ^ $rbx: .cfa 0 - ^ $rsi: .cfa 0 - ^ .ra: .cfa 8 - ^
STACK CFI INIT 64ce0 10a .cfa: $rsp 96 + $r14: .cfa 16 - ^ $rbx: .cfa 0 - ^ $rsi: .cfa 0 - ^ $rdi: .cfa 0 - ^ .ra: .cfa 8 - ^
STACK CFI INIT 64df0 c5 .cfa: $rsp 128 + $rbp: .cfa 16 - ^ $rsi: .cfa 24 - ^ $rdi: .cfa 32 - ^ $rbx: .cfa 0 - ^ .ra: .cfa 8 - ^
STACK CFI INIT 64ec0 5b .cfa: $rsp 48 + $rdi: .cfa 16 - ^ $rbx: .cfa 0 - ^ .ra: .cfa 8 - ^
STACK CFI INIT 64f30 82 .cfa: $rsp 48 + $rbx: .cfa 16 - ^ .ra: .cfa 8 - ^
STACK CFI INIT 64fc0 52 .cfa: $rsp 48 + $rbx: .cfa 16 - ^ .ra: .cfa 8 - ^
STACK CFI INIT 65020 34 .cfa: $rsp 48 + $rdi: .cfa 16 - ^ $rbx: .cfa 0 - ^ .ra: .cfa 8 - ^
STACK CFI INIT 65060 5e .cfa: $rsp 48 + $rdi: .cfa 16 - ^ $rbx: .cfa 0 - ^ .ra: .cfa 8 - ^
STACK CFI INIT 650d0 51 .cfa: $rsp 48 + $rbx: .cfa 16 - ^ .ra: .cfa 8 - ^
STACK CFI INIT 65128 7e .cfa: $rsp 48 + $rdi: .cfa 16 - ^ $rsi: .cfa 0 - ^ .ra: .cfa 8 - ^
STACK CFI INIT 651ac 56 .cfa: $rsp 80 + $rbx: .cfa 16 - ^ .ra: .cfa 8 - ^
STACK CFI INIT 65210 4fe .cfa: $rsp 80 + $r13: .cfa 16 - ^ $r14: .cfa 24 - ^ $r15: .cfa 32 - ^ $rbx: .cfa 0 - ^ $rbp: .cfa 0 - ^ $rsi: .cfa 0 - ^ $rdi: .cfa 0 - ^ .ra: .cfa 8 - ^
STACK CFI INIT 65714 103 .cfa: $rsp 48 + $r14: .cfa 16 - ^ $rbx: .cfa 0 - ^ $rbp: .cfa 0 - ^ $rsi: .cfa 0 - ^ $rdi: .cfa 0 - ^ .ra: .cfa 8 - ^
STACK CFI INIT 6582c ae .cfa: $rsp 480 + $rdi: .cfa 16 - ^ $rbx: .cfa 0 - ^ $rbp: .cfa 0 - ^ $rsi: .cfa 0 - ^ .ra: .cfa 8 - ^
STACK CFI INIT 65900 16a .cfa: $rsp 48 + $rdi: .cfa 16 - ^ $rbx: .cfa 0 - ^ $rsi: .cfa 0 - ^ .ra: .cfa 8 - ^
STACK CFI INIT 65a70 4b .cfa: $rsp 48 + $rdi: .cfa 16 - ^ $rbx: .cfa 0 - ^ $rsi: .cfa 0 - ^ .ra: .cfa 8 - ^
STACK CFI INIT 65ad0 e1 .cfa: $rsp 80 + $rdi: .cfa 16 - ^ $r14: .cfa 24 - ^ $r15: .cfa 32 - ^ $rbx: .cfa 0 - ^ $rbp: .cfa 0 - ^ $rsi: .cfa 0 - ^ .ra: .cfa 8 - ^
STACK CFI INIT 65bc0 a5 .cfa: $rsp 64 + $rdi: .cfa 16 - ^ $r14: .cfa 24 - ^ $r15: .cfa 32 - ^ $rbx: .cfa 0 - ^ $rbp: .cfa 0 - ^ $rsi: .cfa 0 - ^ .ra: .cfa 8 - ^
STACK CFI INIT 65cb0 be .cfa: $rsp 48 + $rdi: .cfa 16 - ^ $rbx: .cfa 0 - ^ $rsi: .cfa 0 - ^ .ra: .cfa 8 - ^
STACK CFI INIT 65d74 11f .cfa: $rsp 48 + $rbx: .cfa 16 - ^ .ra: .cfa 8 - ^
STACK CFI INIT 65ee0 10a .cfa: $rsp 48 + $rdi: .cfa 16 - ^ $rbx: .cfa 0 - ^ .ra: .cfa 8 - ^
STACK CFI INIT 66038 eb .cfa: $rsp 96 + $rdi: .cfa 16 - ^ $r12: .cfa 24 - ^ $r13: .cfa 32 - ^ $r14: .cfa 40 - ^ $r15: .cfa 48 - ^ $rbx: .cfa 0 - ^ $rsi: .cfa 0 - ^ .ra: .cfa 8 - ^
STACK CFI INIT 6613c 59 .cfa: $rsp 48 + $rbx: .cfa 16 - ^ .ra: .cfa 8 - ^
STACK CFI INIT 6619c e7 .cfa: $rsp 48 + $r14: .cfa 16 - ^ $rbx: .cfa 0 - ^ $rsi: .cfa 0 - ^ $rdi: .cfa 0 - ^ .ra: .cfa 8 - ^
STACK CFI INIT 6628c 2bb .cfa: $rsp 112 + $rbx: .cfa 16 - ^ $rbp: .cfa 24 - ^ $rsi: .cfa 32 - ^ $rdi: .cfa 40 - ^ $r12: .cfa 48 - ^ $r14: .cfa 56 - ^ $r15: .cfa 64 - ^ .ra: .cfa 8 - ^
STACK CFI INIT 66550 1a5 .cfa: $rsp 96 + $rbp: .cfa 16 - ^ $rsi: .cfa 24 - ^ $rdi: .cfa 32 - ^ $r12: .cfa 40 - ^ $r13: .cfa 48 - ^ $r14: .cfa 56 - ^ $r15: .cfa 64 - ^ $rbx: .cfa 0 - ^ .ra: .cfa 8 - ^
STACK CFI INIT 666fc 2eb .cfa: $rsp 112 + $rbp: .cfa 16 - ^ $rsi: .cfa 24 - ^ $rdi: .cfa 32 - ^ $r12: .cfa 40 - ^ $r13: .cfa 48 - ^ $r14: .cfa 56 - ^ $r15: .cfa 64 - ^ $rbx: .cfa 0 - ^ .ra: .cfa 8 - ^
STACK CFI INIT 669f0 73 .cfa: $rsp 8 + $rbx: .cfa 0 - ^ $rdi: .cfa 0 - ^ .ra: .cfa 8 - ^
STACK CFI INIT 66a6c 9b .cfa: $rsp 8 + $rbx: .cfa 0 - ^ $rdi: .cfa 0 - ^ .ra: .cfa 8 - ^
STACK CFI INIT 66b10 27 .cfa: $rsp 48 + $rbx: .cfa 16 - ^ .ra: .cfa 8 - ^
STACK CFI INIT 66b40 92 .cfa: $rsp 64 + $rdi: .cfa 16 - ^ $rbx: .cfa 0 - ^ .ra: .cfa 8 - ^
STACK CFI INIT 66be0 109 .cfa: $rsp 80 + $rdi: .cfa 16 - ^ $r14: .cfa 24 - ^ $r15: .cfa 32 - ^ $rbx: .cfa 0 - ^ $rsi: .cfa 0 - ^ .ra: .cfa 8 - ^
STACK CFI INIT 66cf0 24f .cfa: $rsp 96 + $r12: .cfa 16 - ^ $r14: .cfa 24 - ^ $r15: .cfa 32 - ^ $rbx: .cfa 0 - ^ $rsi: .cfa 0 - ^ .ra: .cfa 8 - ^
STACK CFI INIT 66f48 7e .cfa: $rsp 80 + .ra: .cfa 8 - ^
STACK CFI INIT 66fd0 188 .cfa: $rsp 112 + $rsi: .cfa 16 - ^ $rdi: .cfa 24 - ^ $r12: .cfa 32 - ^ $r14: .cfa 40 - ^ $r15: .cfa 48 - ^ $rbx: .cfa 0 - ^ .ra: .cfa 8 - ^
STACK CFI INIT 67190 ac .cfa: $rsp 128 + $rdi: .cfa 16 - ^ $rbx: .cfa 0 - ^ $rsi: .cfa 0 - ^ .ra: .cfa 8 - ^
STACK CFI INIT 672a0 42d .cfa: $rsp 208 + $rbx: .cfa 16 - ^ $rsi: .cfa 24 - ^ $rdi: .cfa 32 - ^ $r12: .cfa 40 - ^ $r13: .cfa 48 - ^ $r14: .cfa 56 - ^ $r15: .cfa 64 - ^ .ra: .cfa 8 - ^
STACK CFI INIT 676d4 6a .cfa: $rsp 48 + $rdi: .cfa 16 - ^ $rbx: .cfa 0 - ^ $rbp: .cfa 0 - ^ $rsi: .cfa 0 - ^ .ra: .cfa 8 - ^
STACK CFI INIT 67744 110 .cfa: $rsp 96 + $rdi: .cfa 16 - ^ $r14: .cfa 24 - ^ $r15: .cfa 32 - ^ $rbx: .cfa 0 - ^ $rbp: .cfa 0 - ^ $rsi: .cfa 0 - ^ .ra: .cfa 8 - ^
STACK CFI INIT 6785c 106 .cfa: $rsp 64 + $rdi: .cfa 16 - ^ $rbx: .cfa 0 - ^ $rsi: .cfa 0 - ^ .ra: .cfa 8 - ^
STACK CFI INIT 67970 57 .cfa: $rsp 64 + $rbx: .cfa 16 - ^ .ra: .cfa 8 - ^
STACK CFI INIT 679d0 2ec .cfa: $rsp 96 + $rdi: .cfa 16 - ^ $r12: .cfa 24 - ^ $r13: .cfa 32 - ^ $r14: .cfa 40 - ^ $r15: .cfa 48 - ^ $rbx: .cfa 0 - ^ $rsi: .cfa 0 - ^ .ra: .cfa 8 - ^
STACK CFI INIT 67d10 141 .cfa: $rsp 96 + $rbx: .cfa 16 - ^ $rsi: .cfa 24 - ^ $rdi: .cfa 32 - ^ .ra: .cfa 8 - ^
STACK CFI INIT 67e58 3e .cfa: $rsp 48 + $rdi: .cfa 16 - ^ $rbx: .cfa 0 - ^ .ra: .cfa 8 - ^
STACK CFI INIT 67e9c 3d .cfa: $rsp 48 + $rbx: .cfa 16 - ^ .ra: .cfa 8 - ^
STACK CFI INIT 67ee0 48 .cfa: $rsp 64 + $rdi: .cfa 16 - ^ $rbx: .cfa 0 - ^ .ra: .cfa 8 - ^
STACK CFI INIT 67f30 bf .cfa: $rsp 64 + $rsi: .cfa 16 - ^ $rdi: .cfa 24 - ^ $r14: .cfa 32 - ^ $rbx: .cfa 0 - ^ $rbp: .cfa 0 - ^ .ra: .cfa 8 - ^
STACK CFI INIT 68000 32 .cfa: $rsp 48 + $rdi: .cfa 16 - ^ $rbx: .cfa 0 - ^ .ra: .cfa 8 - ^
STACK CFI INIT 68040 d5 .cfa: $rsp 48 + $r14: .cfa 16 - ^ $rbx: .cfa 0 - ^ $rbp: .cfa 0 - ^ $rsi: .cfa 0 - ^ $rdi: .cfa 0 - ^ .ra: .cfa 8 - ^
STACK CFI INIT 6811c 4d .cfa: $rsp 64 + $rdi: .cfa 16 - ^ $rbx: .cfa 0 - ^ .ra: .cfa 8 - ^
STACK CFI INIT 68190 60 .cfa: $rsp 48 + $rdi: .cfa 16 - ^ $rbx: .cfa 0 - ^ .ra: .cfa 8 - ^
STACK CFI INIT 681f8 65 .cfa: $rsp 48 + .ra: .cfa 8 - ^
STACK CFI INIT 68270 3a .cfa: $rsp 48 + $rbx: .cfa 16 - ^ .ra: .cfa 8 - ^
STACK CFI INIT 682b0 30 .cfa: $rsp 64 + $rdi: .cfa 16 - ^ $rbx: .cfa 0 - ^ .ra: .cfa 8 - ^
STACK CFI INIT 682f0 4a .cfa: $rsp 48 + $rdi: .cfa 16 - ^ $rbx: .cfa 0 - ^ .ra: .cfa 8 - ^
STACK CFI INIT 68340 48 .cfa: $rsp 48 + $rbx: .cfa 16 - ^ .ra: .cfa 8 - ^
STACK CFI INIT 68390 63 .cfa: $rsp 48 + $rdi: .cfa 16 - ^ $rbx: .cfa 0 - ^ .ra: .cfa 8 - ^
STACK CFI INIT 68400 51 .cfa: $rsp 48 + $rbx: .cfa 16 - ^ .ra: .cfa 8 - ^
STACK CFI INIT 68458 56 .cfa: $rsp 48 + .ra: .cfa 8 - ^
STACK CFI INIT 684b4 174 .cfa: $rsp 512 + $rbp: .cfa 16 - ^ $rsi: .cfa 24 - ^ $rdi: .cfa 32 - ^ $r12: .cfa 40 - ^ $r13: .cfa 48 - ^ $r14: .cfa 56 - ^ $r15: .cfa 64 - ^ $rbx: .cfa 0 - ^ .ra: .cfa 8 - ^
STACK CFI INIT 68630 a7 .cfa: $rsp 48 + $r14: .cfa 16 - ^ $rbx: .cfa 0 - ^ $rbp: .cfa 0 - ^ $rsi: .cfa 0 - ^ $rdi: .cfa 0 - ^ .ra: .cfa 8 - ^
STACK CFI INIT 686e0 9c .cfa: $rsp 176 + $rbx: .cfa 16 - ^ .ra: .cfa 8 - ^
STACK CFI INIT 68784 1e3 .cfa: $rsp 160 + $rsi: .cfa 16 - ^ $rdi: .cfa 24 - ^ $r12: .cfa 32 - ^ $r14: .cfa 40 - ^ $r15: .cfa 48 - ^ $rbx: .cfa 0 - ^ $rbp: .cfa 0 - ^ .ra: .cfa 8 - ^
STACK CFI INIT 68970 138 .cfa: $rsp 144 + $rsi: .cfa 16 - ^ $rdi: .cfa 24 - ^ $r14: .cfa 32 - ^ $rbx: .cfa 0 - ^ $rbp: .cfa 0 - ^ .ra: .cfa 8 - ^
STACK CFI INIT 68ab0 192 .cfa: $rsp 96 + $rdi: .cfa 16 - ^ $rbx: .cfa 0 - ^ .ra: .cfa 8 - ^
STACK CFI INIT 68c48 d9 .cfa: $rsp 656 + $rsi: .cfa 16 - ^ $rdi: .cfa 24 - ^ $r14: .cfa 32 - ^ $rbx: .cfa 0 - ^ $rbp: .cfa 0 - ^ .ra: .cfa 8 - ^
STACK CFI INIT 68d30 1d .cfa: $rsp 64 + .ra: .cfa 8 - ^
STACK CFI INIT 68d60 fe .cfa: $rsp 128 + $r14: .cfa 16 - ^ $rbx: .cfa 0 - ^ $rbp: .cfa 0 - ^ $rsi: .cfa 0 - ^ $rdi: .cfa 0 - ^ .ra: .cfa 8 - ^
STACK CFI INIT 68e70 408 .cfa: $rsp 64 + $rdi: .cfa 16 - ^ $r12: .cfa 24 - ^ $r13: .cfa 32 - ^ $r14: .cfa 40 - ^ $r15: .cfa 48 - ^ $rbx: .cfa 0 - ^ $rbp: .cfa 0 - ^ $rsi: .cfa 0 - ^ .ra: .cfa 8 - ^
STACK CFI INIT 69280 1c1 .cfa: $rsp 128 + $rdi: .cfa 16 - ^ $r14: .cfa 24 - ^ $r15: .cfa 32 - ^ $rbx: .cfa 0 - ^ $rbp: .cfa 0 - ^ $rsi: .cfa 0 - ^ .ra: .cfa 8 - ^
STACK CFI INIT 69470 16e .cfa: $rsp 24 + $r14: .cfa 16 - ^ $r15: .cfa 24 - ^ $rbx: .cfa 0 - ^ $rsi: .cfa 0 - ^ $rdi: .cfa 0 - ^ .ra: .cfa 8 - ^
STACK CFI INIT 695f0 31 .cfa: $rsp 48 + $rbx: .cfa 16 - ^ .ra: .cfa 8 - ^
STACK CFI INIT 69630 194 .cfa: $rsp 1264 + $rbp: .cfa 16 - ^ $rsi: .cfa 24 - ^ $rdi: .cfa 32 - ^ $r12: .cfa 40 - ^ $r13: .cfa 48 - ^ $r14: .cfa 56 - ^ $r15: .cfa 64 - ^ $rbx: .cfa 0 - ^ .ra: .cfa 8 - ^
STACK CFI INIT 69850 105 .cfa: $rsp 80 + $rdi: .cfa 16 - ^ $r12: .cfa 24 - ^ $r13: .cfa 32 - ^ $r14: .cfa 40 - ^ $r15: .cfa 48 - ^ $rbx: .cfa 0 - ^ $rbp: .cfa 0 - ^ $rsi: .cfa 0 - ^ .ra: .cfa 8 - ^
STACK CFI INIT 69960 b8 .cfa: $rsp 48 + $r14: .cfa 16 - ^ $rbx: .cfa 0 - ^ $rbp: .cfa 0 - ^ $rsi: .cfa 0 - ^ $rdi: .cfa 0 - ^ .ra: .cfa 8 - ^
STACK CFI INIT 69a20 5d .cfa: $rsp 112 + $rdi: .cfa 16 - ^ $rbx: .cfa 0 - ^ .ra: .cfa 8 - ^
STACK CFI INIT 69a90 166 .cfa: $rsp 96 + $rsi: .cfa 16 - ^ $rdi: .cfa 24 - ^ $r14: .cfa 32 - ^ $rbx: .cfa 0 - ^ $rbp: .cfa 0 - ^ .ra: .cfa 8 - ^
STACK CFI INIT 69bfc ab .cfa: $rsp 64 + $rdi: .cfa 16 - ^ $rbx: .cfa 0 - ^ $rbp: .cfa 0 - ^ $rsi: .cfa 0 - ^ .ra: .cfa 8 - ^
STACK CFI INIT 69cb0 dc .cfa: $rsp 64 + $rdi: .cfa 16 - ^ $r14: .cfa 24 - ^ $r15: .cfa 32 - ^ $rbx: .cfa 0 - ^ $rbp: .cfa 0 - ^ $rsi: .cfa 0 - ^ .ra: .cfa 8 - ^
STACK CFI INIT 69d94 85 .cfa: $rsp 160 + $rsi: .cfa 16 - ^ $rdi: .cfa 24 - ^ $r12: .cfa 32 - ^ $r14: .cfa 40 - ^ $r15: .cfa 48 - ^ $rbx: .cfa 0 - ^ $rbp: .cfa 0 - ^ .ra: .cfa 8 - ^
STACK CFI INIT 69e20 68 .cfa: $rsp 48 + $rbx: .cfa 16 - ^ .ra: .cfa 8 - ^
STACK CFI INIT 69e90 1d6 .cfa: $rsp 208 + $rbp: .cfa 16 - ^ $rdi: .cfa 24 - ^ $r12: .cfa 32 - ^ $r14: .cfa 40 - ^ $r15: .cfa 48 - ^ $rbx: .cfa 0 - ^ $rsi: .cfa 0 - ^ .ra: .cfa 8 - ^
STACK CFI INIT 6a080 58 .cfa: $rsp 48 + $rdi: .cfa 16 - ^ $rbx: .cfa 0 - ^ $rbp: .cfa 0 - ^ $rsi: .cfa 0 - ^ .ra: .cfa 8 - ^
STACK CFI INIT 6a0e0 33 .cfa: $rsp 48 + $rbx: .cfa 16 - ^ .ra: .cfa 8 - ^
STACK CFI INIT 6a160 133 .cfa: $rsp 112 + $rbp: .cfa 16 - ^ $r14: .cfa 24 - ^ $r15: .cfa 32 - ^ $rbx: .cfa 0 - ^ $rsi: .cfa 0 - ^ $rdi: .cfa 0 - ^ .ra: .cfa 8 - ^
STACK CFI INIT 6a29c c2 .cfa: $rsp 48 + $rdi: .cfa 16 - ^ $rbx: .cfa 0 - ^ $rsi: .cfa 0 - ^ .ra: .cfa 8 - ^
STACK CFI INIT 6a364 5c .cfa: $rsp 48 + $rdi: .cfa 16 - ^ $rbx: .cfa 0 - ^ .ra: .cfa 8 - ^
STACK CFI INIT 6a440 f0 .cfa: $rsp 144 + $rbp: .cfa 16 - ^ $rsi: .cfa 24 - ^ $rdi: .cfa 32 - ^ $rbx: .cfa 0 - ^ .ra: .cfa 8 - ^
STACK CFI INIT 6a540 105 .cfa: $rsp 112 + $rsi: .cfa 16 - ^ $rdi: .cfa 24 - ^ $r12: .cfa 32 - ^ $r14: .cfa 40 - ^ $r15: .cfa 48 - ^ $rbx: .cfa 0 - ^ .ra: .cfa 8 - ^
STACK CFI INIT 6a650 1d7 .cfa: $rsp 16 + $r14: .cfa 16 - ^ $rbx: .cfa 0 - ^ $rbp: .cfa 0 - ^ $rsi: .cfa 0 - ^ $rdi: .cfa 0 - ^ .ra: .cfa 8 - ^
STACK CFI INIT 6a830 fa .cfa: $rsp 112 + $rbx: .cfa 16 - ^ $rsi: .cfa 24 - ^ $rdi: .cfa 32 - ^ $r14: .cfa 40 - ^ $r15: .cfa 48 - ^ .ra: .cfa 8 - ^
STACK CFI INIT 6a930 7e .cfa: $rsp 16 + $r15: .cfa 16 - ^ $rbx: .cfa 0 - ^ $rbp: .cfa 0 - ^ $rsi: .cfa 0 - ^ $rdi: .cfa 0 - ^ .ra: .cfa 8 - ^
STACK CFI INIT 6a9c0 461 .cfa: $rsp 64 + $rdi: .cfa 16 - ^ $r12: .cfa 24 - ^ $r13: .cfa 32 - ^ $r14: .cfa 40 - ^ $r15: .cfa 48 - ^ $rbx: .cfa 0 - ^ $rbp: .cfa 0 - ^ $rsi: .cfa 0 - ^ .ra: .cfa 8 - ^
STACK CFI INIT 6ae30 e1 .cfa: $rsp 64 + $rbx: .cfa 16 - ^ .ra: .cfa 8 - ^
STACK CFI INIT 6af18 fc .cfa: $rsp 208 + $rdi: .cfa 16 - ^ $rbx: .cfa 0 - ^ $rsi: .cfa 0 - ^ .ra: .cfa 8 - ^
STACK CFI INIT 6b01c 259 .cfa: $rsp 176 + $rbp: .cfa 16 - ^ $rsi: .cfa 24 - ^ $rdi: .cfa 32 - ^ $r12: .cfa 40 - ^ $r13: .cfa 48 - ^ $r14: .cfa 56 - ^ $r15: .cfa 64 - ^ $rbx: .cfa 0 - ^ .ra: .cfa 8 - ^
STACK CFI INIT 6b27c bc .cfa: $rsp 144 + $rbp: .cfa 16 - ^ $rbx: .cfa 0 - ^ $rsi: .cfa 0 - ^ $rdi: .cfa 0 - ^ .ra: .cfa 8 - ^
STACK CFI INIT 6b340 b7 .cfa: $rsp 64 + $r14: .cfa 16 - ^ $rbx: .cfa 0 - ^ $rbp: .cfa 0 - ^ $rsi: .cfa 0 - ^ $rdi: .cfa 0 - ^ .ra: .cfa 8 - ^
STACK CFI INIT 6b400 109 .cfa: $rsp 80 + $rdi: .cfa 16 - ^ $rbx: .cfa 0 - ^ $rsi: .cfa 0 - ^ .ra: .cfa 8 - ^
STACK CFI INIT 6b510 6d .cfa: $rsp 48 + $rdi: .cfa 16 - ^ $rbx: .cfa 0 - ^ .ra: .cfa 8 - ^
STACK CFI INIT 6b600 15e .cfa: $rsp 64 + $rbx: .cfa 16 - ^ $rsi: .cfa 24 - ^ $rdi: .cfa 32 - ^ .ra: .cfa 8 - ^
STACK CFI INIT 6b764 61 .cfa: $rsp 64 + $rbx: .cfa 16 - ^ .ra: .cfa 8 - ^
STACK CFI INIT 6b7d0 c0 .cfa: $rsp 80 + $r14: .cfa 16 - ^ $rbx: .cfa 0 - ^ $rsi: .cfa 0 - ^ $rdi: .cfa 0 - ^ .ra: .cfa 8 - ^
STACK CFI INIT 6b898 15d .cfa: $rsp 80 + $rdi: .cfa 16 - ^ $r14: .cfa 24 - ^ $r15: .cfa 32 - ^ $rbx: .cfa 0 - ^ $rbp: .cfa 0 - ^ $rsi: .cfa 0 - ^ .ra: .cfa 8 - ^
STACK CFI INIT 6ba34 e8 .cfa: $rsp 64 + $rbp: .cfa 16 - ^ $rsi: .cfa 24 - ^ $rdi: .cfa 32 - ^ $rbx: .cfa 0 - ^ .ra: .cfa 8 - ^
STACK CFI INIT 6bb50 11a .cfa: $rsp 176 + $rbp: .cfa 16 - ^ $rsi: .cfa 24 - ^ $rdi: .cfa 32 - ^ $rbx: .cfa 0 - ^ .ra: .cfa 8 - ^
STACK CFI INIT 6bc70 25 .cfa: $rsp 64 + .ra: .cfa 8 - ^
STACK CFI INIT 6bca0 b0 .cfa: $rsp 80 + $rdi: .cfa 16 - ^ $rbx: .cfa 0 - ^ $rsi: .cfa 0 - ^ .ra: .cfa 8 - ^
STACK CFI INIT 6bd58 9b .cfa: $rsp 8 + $rbx: .cfa 0 - ^ $rsi: .cfa 0 - ^ $rdi: .cfa 0 - ^ .ra: .cfa 8 - ^
STACK CFI INIT 6be20 3b .cfa: $rsp 48 + $rbx: .cfa 16 - ^ .ra: .cfa 8 - ^
STACK CFI INIT 6be70 8b .cfa: $rsp 48 + $rbx: .cfa 16 - ^ .ra: .cfa 8 - ^
STACK CFI INIT 6bf04 58 .cfa: $rsp 48 + $rdi: .cfa 16 - ^ $rbx: .cfa 0 - ^ $rsi: .cfa 0 - ^ .ra: .cfa 8 - ^
STACK CFI INIT 6bf70 3b .cfa: $rsp 48 + $rbx: .cfa 16 - ^ .ra: .cfa 8 - ^
STACK CFI INIT 6bff0 32 .cfa: $rsp 96 + .ra: .cfa 8 - ^
STACK CFI INIT 6c030 de .cfa: $rsp 864 + $rbp: .cfa 16 - ^ $rbx: .cfa 24 - ^ $rsi: .cfa 32 - ^ $rdi: .cfa 40 - ^ $r12: .cfa 48 - ^ $r13: .cfa 56 - ^ $r14: .cfa 64 - ^ $r15: .cfa 72 - ^ .ra: .cfa 8 - ^
STACK CFI INIT 6c130 de .cfa: $rsp 96 + $rbp: .cfa 16 - ^ $rbx: .cfa 0 - ^ $rsi: .cfa 0 - ^ $rdi: .cfa 0 - ^ $r14: .cfa 0 - ^ .ra: .cfa 8 - ^
STACK CFI INIT 6c220 6b .cfa: $rsp 64 + $rdi: .cfa 16 - ^ $rbx: .cfa 0 - ^ $rbp: .cfa 0 - ^ $rsi: .cfa 0 - ^ .ra: .cfa 8 - ^
STACK CFI INIT 6c2e0 3c .cfa: $rsp 48 + .ra: .cfa 8 - ^
STACK CFI INIT 6c324 6a .cfa: $rsp 64 + .ra: .cfa 8 - ^
STACK CFI INIT 6c394 246 .cfa: $rsp 736 + $rbp: .cfa 16 - ^ $r13: .cfa 24 - ^ $r14: .cfa 32 - ^ $rbx: .cfa 0 - ^ $rsi: .cfa 0 - ^ $rdi: .cfa 0 - ^ $r12: .cfa 0 - ^ .ra: .cfa 8 - ^
STACK CFI INIT 6c5e0 8b .cfa: $rsp 48 + $rbx: .cfa 16 - ^ .ra: .cfa 8 - ^
STACK CFI INIT 6c6e0 1ce .cfa: $rsp 144 + $rbp: .cfa 16 - ^ $rsi: .cfa 24 - ^ $rdi: .cfa 32 - ^ $r12: .cfa 40 - ^ $r13: .cfa 48 - ^ $r14: .cfa 56 - ^ $r15: .cfa 64 - ^ $rbx: .cfa 0 - ^ .ra: .cfa 8 - ^
STACK CFI INIT 6c8c0 4b .cfa: $rsp 48 + $rbx: .cfa 16 - ^ .ra: .cfa 8 - ^
STACK CFI INIT 6c980 22 .cfa: $rsp 48 + .ra: .cfa 8 - ^
STACK CFI INIT 6c9a8 d0 .cfa: $rsp 80 + $rdi: .cfa 16 - ^ $rbx: .cfa 0 - ^ $rsi: .cfa 0 - ^ .ra: .cfa 8 - ^
STACK CFI INIT 6ca80 20d .cfa: $rsp 592 + $rbx: .cfa 16 - ^ $rsi: .cfa 24 - ^ $rdi: .cfa 32 - ^ $r12: .cfa 40 - ^ $r13: .cfa 48 - ^ $r14: .cfa 56 - ^ $r15: .cfa 64 - ^ .ra: .cfa 8 - ^
STACK CFI INIT 6cc94 ca .cfa: $rsp 48 + $rbx: .cfa 16 - ^ .ra: .cfa 8 - ^
STACK CFI INIT 6cd70 97 .cfa: $rsp 48 + $rdi: .cfa 16 - ^ $rbx: .cfa 0 - ^ $rsi: .cfa 0 - ^ .ra: .cfa 8 - ^
STACK CFI INIT 6ce20 ef .cfa: $rsp 144 + $rdi: .cfa 16 - ^ $r14: .cfa 24 - ^ $r15: .cfa 32 - ^ $rbx: .cfa 0 - ^ $rbp: .cfa 0 - ^ $rsi: .cfa 0 - ^ .ra: .cfa 8 - ^
STACK CFI INIT 6cf20 127 .cfa: $rsp 368 + $rsi: .cfa 16 - ^ $rdi: .cfa 24 - ^ $r14: .cfa 32 - ^ $rbx: .cfa 0 - ^ $rbp: .cfa 0 - ^ .ra: .cfa 8 - ^
STACK CFI INIT 6d050 d3 .cfa: $rsp 96 + $rbp: .cfa 16 - ^ $rsi: .cfa 24 - ^ $rdi: .cfa 32 - ^ $r14: .cfa 40 - ^ $r15: .cfa 48 - ^ $rbx: .cfa 0 - ^ .ra: .cfa 8 - ^
STACK CFI INIT 6d12c bd .cfa: $rsp 48 + $r14: .cfa 16 - ^ $rbx: .cfa 0 - ^ $rbp: .cfa 0 - ^ $rsi: .cfa 0 - ^ $rdi: .cfa 0 - ^ .ra: .cfa 8 - ^
STACK CFI INIT 6d1f0 c1 .cfa: $rsp 48 + $rdi: .cfa 16 - ^ $rbx: .cfa 0 - ^ $rbp: .cfa 0 - ^ $rsi: .cfa 0 - ^ .ra: .cfa 8 - ^
STACK CFI INIT 6d2c0 27 .cfa: $rsp 48 + .ra: .cfa 8 - ^
STACK CFI INIT 6d2f0 7f .cfa: $rsp 1088 + .ra: .cfa 8 - ^
STACK CFI INIT 6d380 5a .cfa: $rsp 160 + $rbx: .cfa 16 - ^ $rsi: .cfa 24 - ^ $rdi: .cfa 32 - ^ $r12: .cfa 40 - ^ $r13: .cfa 48 - ^ $r14: .cfa 56 - ^ $r15: .cfa 64 - ^ .ra: .cfa 8 - ^
STACK CFI INIT 6d3e0 3f .cfa: $rsp 48 + .ra: .cfa 8 - ^
STACK CFI INIT 6d430 122 .cfa: $rsp 64 + $rdi: .cfa 16 - ^ $r14: .cfa 24 - ^ $r15: .cfa 32 - ^ $rbx: .cfa 0 - ^ $rsi: .cfa 0 - ^ .ra: .cfa 8 - ^
STACK CFI INIT 6d558 151 .cfa: $rsp 256 + $rbp: .cfa 16 - ^ $rsi: .cfa 24 - ^ $rdi: .cfa 32 - ^ $r14: .cfa 40 - ^ $r15: .cfa 48 - ^ $rbx: .cfa 0 - ^ .ra: .cfa 8 - ^
STACK CFI INIT 6d760 117 .cfa: $rsp 96 + $rdi: .cfa 16 - ^ $r14: .cfa 24 - ^ $r15: .cfa 32 - ^ $rbx: .cfa 0 - ^ $rbp: .cfa 0 - ^ $rsi: .cfa 0 - ^ .ra: .cfa 8 - ^
STACK CFI INIT 6d880 12b .cfa: $rsp 48 + $rdi: .cfa 16 - ^ $rbx: .cfa 0 - ^ $rsi: .cfa 0 - ^ .ra: .cfa 8 - ^
STACK CFI INIT 6d9b4 5d .cfa: $rsp 48 + .ra: .cfa 8 - ^
STACK CFI INIT 6da18 a7 .cfa: $rsp 48 + $rdi: .cfa 16 - ^ $rbx: .cfa 0 - ^ .ra: .cfa 8 - ^
STACK CFI INIT 6db10 1d .cfa: $rsp 64 + .ra: .cfa 8 - ^
STACK CFI INIT 6db34 278 .cfa: $rsp 128 + $rdi: .cfa 16 - ^ $r12: .cfa 24 - ^ $r13: .cfa 32 - ^ $r14: .cfa 40 - ^ $r15: .cfa 48 - ^ $rbx: .cfa 0 - ^ $rsi: .cfa 0 - ^ .ra: .cfa 8 - ^
STACK CFI INIT 6de58 68 .cfa: $rsp 48 + $rdi: .cfa 16 - ^ $rbx: .cfa 0 - ^ $rsi: .cfa 0 - ^ .ra: .cfa 8 - ^
STACK CFI INIT 6ded0 fe .cfa: $rsp 48 + $rbx: .cfa 16 - ^ .ra: .cfa 8 - ^
STACK CFI INIT 6dfd4 25 .cfa: $rsp 48 + .ra: .cfa 8 - ^
STACK CFI INIT 6e000 49 .cfa: $rsp 48 + $rdi: .cfa 16 - ^ $rbx: .cfa 0 - ^ $rsi: .cfa 0 - ^ .ra: .cfa 8 - ^
STACK CFI INIT 6e068 eb .cfa: $rsp 64 + $r12: .cfa 16 - ^ $r14: .cfa 24 - ^ $r15: .cfa 32 - ^ $rbx: .cfa 0 - ^ $rbp: .cfa 0 - ^ $rsi: .cfa 0 - ^ $rdi: .cfa 0 - ^ .ra: .cfa 8 - ^
STACK CFI INIT 6e15c 40 .cfa: $rsp 48 + .ra: .cfa 8 - ^
STACK CFI INIT 6e1a4 11f .cfa: $rsp 96 + $rbx: .cfa 16 - ^ $rsi: .cfa 24 - ^ $rdi: .cfa 32 - ^ .ra: .cfa 8 - ^
STACK CFI INIT 6e2cc 7e .cfa: $rsp 48 + $rbx: .cfa 16 - ^ .ra: .cfa 8 - ^
STACK CFI INIT 6e350 52 .cfa: $rsp 48 + .ra: .cfa 8 - ^
STACK CFI INIT 6e3d0 25 .cfa: $rsp 80 + .ra: .cfa 8 - ^
STACK CFI INIT 6e400 8a .cfa: $rsp 80 + $rsi: .cfa 16 - ^ $rdi: .cfa 24 - ^ $r14: .cfa 32 - ^ $rbx: .cfa 0 - ^ $rbp: .cfa 0 - ^ .ra: .cfa 8 - ^
STACK CFI INIT 6e490 b1 .cfa: $rsp 112 + $rbp: .cfa 16 - ^ $rbx: .cfa 0 - ^ $rdi: .cfa 0 - ^ .ra: .cfa 8 - ^
STACK CFI INIT 6e548 89 .cfa: $rsp 96 + $rbp: .cfa 16 - ^ $rbx: .cfa 0 - ^ .ra: .cfa 8 - ^
STACK CFI INIT 6e5d8 cb .cfa: $rsp 784 + $rbp: .cfa 16 - ^ $rsi: .cfa 24 - ^ $rdi: .cfa 32 - ^ $r12: .cfa 40 - ^ $r13: .cfa 48 - ^ $r14: .cfa 56 - ^ $r15: .cfa 64 - ^ $rbx: .cfa 0 - ^ .ra: .cfa 8 - ^
STACK CFI INIT 6e6ac 89 .cfa: $rsp 64 + $r15: .cfa 16 - ^ $rbx: .cfa 0 - ^ $rsi: .cfa 0 - ^ $rdi: .cfa 0 - ^ .ra: .cfa 8 - ^
STACK CFI INIT 6e740 de .cfa: $rsp 1184 + $rbp: .cfa 16 - ^ $rsi: .cfa 24 - ^ $rdi: .cfa 32 - ^ $r12: .cfa 40 - ^ $r13: .cfa 48 - ^ $r14: .cfa 56 - ^ $r15: .cfa 64 - ^ $rbx: .cfa 0 - ^ .ra: .cfa 8 - ^
STACK CFI INIT 6e830 5a .cfa: $rsp 48 + $rbx: .cfa 16 - ^ .ra: .cfa 8 - ^
STACK CFI INIT 6e8e0 a5 .cfa: $rsp 80 + $rdi: .cfa 16 - ^ $rbx: .cfa 0 - ^ $rsi: .cfa 0 - ^ .ra: .cfa 8 - ^
STACK CFI INIT 6e990 20 .cfa: $rsp 48 + $rbx: .cfa 16 - ^ .ra: .cfa 8 - ^
STACK CFI INIT 6e9c0 3e .cfa: $rsp 48 + $rbx: .cfa 16 - ^ .ra: .cfa 8 - ^
STACK CFI INIT 6ea04 156 .cfa: $rsp 96 + $rdi: .cfa 16 - ^ $r12: .cfa 24 - ^ $r13: .cfa 32 - ^ $r14: .cfa 40 - ^ $r15: .cfa 48 - ^ $rbx: .cfa 0 - ^ $rbp: .cfa 0 - ^ $rsi: .cfa 0 - ^ .ra: .cfa 8 - ^
STACK CFI INIT 6eb60 99 .cfa: $rsp 128 + $rbp: .cfa 16 - ^ .ra: .cfa 8 - ^
STACK CFI INIT 6ec00 106 .cfa: $rsp 256 + $rsi: .cfa 16 - ^ $rdi: .cfa 24 - ^ $r14: .cfa 32 - ^ $rbx: .cfa 0 - ^ .ra: .cfa 8 - ^
STACK CFI INIT 6ed0c 117 .cfa: $rsp 256 + $rbp: .cfa 16 - ^ $rsi: .cfa 24 - ^ $rdi: .cfa 32 - ^ $r12: .cfa 40 - ^ $r14: .cfa 48 - ^ $rbx: .cfa 0 - ^ .ra: .cfa 8 - ^
STACK CFI INIT 6ee50 77 .cfa: $rsp 48 + $rdi: .cfa 16 - ^ $rbx: .cfa 0 - ^ $rsi: .cfa 0 - ^ .ra: .cfa 8 - ^
STACK CFI INIT 6eed0 1a4 .cfa: $rsp 80 + $rdi: .cfa 16 - ^ $rbx: .cfa 0 - ^ $rbp: .cfa 0 - ^ $rsi: .cfa 0 - ^ .ra: .cfa 8 - ^
STACK CFI INIT 6f07c 8c .cfa: $rsp 8 + $rbx: .cfa 0 - ^ $rdi: .cfa 0 - ^ .ra: .cfa 8 - ^
STACK CFI INIT 6f110 66 .cfa: $rsp 64 + $rbx: .cfa 16 - ^ .ra: .cfa 8 - ^
STACK CFI INIT 6f180 65 .cfa: $rsp 48 + $rdi: .cfa 16 - ^ $rbx: .cfa 0 - ^ .ra: .cfa 8 - ^
STACK CFI INIT 6f20c ea .cfa: $rsp 64 + $rdi: .cfa 16 - ^ $r14: .cfa 24 - ^ $r15: .cfa 32 - ^ $rbx: .cfa 0 - ^ $rbp: .cfa 0 - ^ $rsi: .cfa 0 - ^ .ra: .cfa 8 - ^
STACK CFI INIT 6f2fc 78 .cfa: $rsp 48 + $rdi: .cfa 16 - ^ $rbx: .cfa 0 - ^ $rsi: .cfa 0 - ^ .ra: .cfa 8 - ^
STACK CFI INIT 6f37c 67 .cfa: $rsp 80 + $rdi: .cfa 16 - ^ $rbx: .cfa 0 - ^ .ra: .cfa 8 - ^
STACK CFI INIT 6f3f0 62 .cfa: $rsp 8 + $rdi: .cfa 0 - ^ .ra: .cfa 8 - ^
STACK CFI INIT 6f4a0 36 .cfa: $rsp 48 + $rdi: .cfa 16 - ^ $rbx: .cfa 0 - ^ .ra: .cfa 8 - ^
STACK CFI INIT 6f4e0 103 .cfa: $rsp 128 + $rbp: .cfa 16 - ^ $rbx: .cfa 0 - ^ $rsi: .cfa 0 - ^ $rdi: .cfa 0 - ^ .ra: .cfa 8 - ^
STACK CFI INIT 6f630 20b .cfa: $rsp 80 + $rdi: .cfa 16 - ^ $r12: .cfa 24 - ^ $r13: .cfa 32 - ^ $r14: .cfa 40 - ^ $r15: .cfa 48 - ^ $rbx: .cfa 0 - ^ $rbp: .cfa 0 - ^ $rsi: .cfa 0 - ^ .ra: .cfa 8 - ^
STACK CFI INIT 6f844 91 .cfa: $rsp 64 + $rdi: .cfa 16 - ^ $rbx: .cfa 0 - ^ $rsi: .cfa 0 - ^ .ra: .cfa 8 - ^
STACK CFI INIT 6f8e0 17f .cfa: $rsp 240 + $rbp: .cfa 16 - ^ $rdi: .cfa 24 - ^ $r12: .cfa 32 - ^ $rbx: .cfa 0 - ^ $rsi: .cfa 0 - ^ .ra: .cfa 8 - ^
STACK CFI INIT 6fa68 95 .cfa: $rsp 208 + $r15: .cfa 16 - ^ $rbx: .cfa 0 - ^ $rsi: .cfa 0 - ^ $rdi: .cfa 0 - ^ .ra: .cfa 8 - ^
STACK CFI INIT 6fb04 1f .cfa: $rsp 48 + .ra: .cfa 8 - ^
STACK CFI INIT 6fb30 5a .cfa: $rsp 8 + $rbx: .cfa 0 - ^ .ra: .cfa 8 - ^
STACK CFI INIT 6fb90 cd .cfa: $rsp 48 + $rdi: .cfa 16 - ^ $rbx: .cfa 0 - ^ .ra: .cfa 8 - ^
STACK CFI INIT 6fc64 8b .cfa: $rsp 64 + $rbx: .cfa 16 - ^ .ra: .cfa 8 - ^
STACK CFI INIT 6fd20 f6 .cfa: $rsp 96 + $rsi: .cfa 16 - ^ $rdi: .cfa 24 - ^ $r12: .cfa 32 - ^ $r14: .cfa 40 - ^ $r15: .cfa 48 - ^ $rbx: .cfa 0 - ^ $rbp: .cfa 0 - ^ .ra: .cfa 8 - ^
STACK CFI INIT 6fe1c 65 .cfa: $rsp 48 + $rdi: .cfa 16 - ^ $rbx: .cfa 0 - ^ .ra: .cfa 8 - ^
STACK CFI INIT 6fe88 54 .cfa: $rsp 48 + $rbx: .cfa 16 - ^ .ra: .cfa 8 - ^
STACK CFI INIT 6fef0 f7 .cfa: $rsp 128 + $r14: .cfa 16 - ^ $rbx: .cfa 0 - ^ $rbp: .cfa 0 - ^ $rsi: .cfa 0 - ^ $rdi: .cfa 0 - ^ .ra: .cfa 8 - ^
STACK CFI INIT 70010 c7 .cfa: $rbp 96 + $rbp: .cfa 16 - ^ $rbx: .cfa 24 - ^ $rsi: .cfa 32 - ^ $rdi: .cfa 40 - ^ $r12: .cfa 48 - ^ $r14: .cfa 56 - ^ $r15: .cfa 64 - ^ .ra: .cfa 8 - ^
STACK CFI INIT 700e0 174 .cfa: $rsp 112 + $rbp: .cfa 16 - ^ $rbx: .cfa 24 - ^ $rsi: .cfa 32 - ^ $rdi: .cfa 40 - ^ $r12: .cfa 48 - ^ $r14: .cfa 56 - ^ $r15: .cfa 64 - ^ .ra: .cfa 8 - ^
STACK CFI INIT 70260 200 .cfa: $rsp 336 + $rbp: .cfa 16 - ^ $rbx: .cfa 24 - ^ $rsi: .cfa 32 - ^ $rdi: .cfa 40 - ^ $r12: .cfa 48 - ^ $r13: .cfa 56 - ^ $r14: .cfa 64 - ^ $r15: .cfa 72 - ^ .ra: .cfa 8 - ^
STACK CFI INIT 70468 68 .cfa: $rsp 48 + $rdi: .cfa 16 - ^ $rbx: .cfa 0 - ^ .ra: .cfa 8 - ^
STACK CFI INIT 70500 ba .cfa: $rsp 48 + $rbx: .cfa 16 - ^ .ra: .cfa 8 - ^
STACK CFI INIT 705c0 112 .cfa: $rsp 64 + $rbx: .cfa 16 - ^ .ra: .cfa 8 - ^
STACK CFI INIT 7070c 4c .cfa: $rsp 48 + $rbx: .cfa 16 - ^ .ra: .cfa 8 - ^
STACK CFI INIT 70760 22 .cfa: $rsp 48 + .ra: .cfa 8 - ^
STACK CFI INIT 707d0 4f .cfa: $rsp 96 + .ra: .cfa 8 - ^
STACK CFI INIT 70840 19b .cfa: $rsp 112 + $rdi: .cfa 16 - ^ $r12: .cfa 24 - ^ $r13: .cfa 32 - ^ $r14: .cfa 40 - ^ $r15: .cfa 48 - ^ $rbx: .cfa 0 - ^ $rbp: .cfa 0 - ^ $rsi: .cfa 0 - ^ .ra: .cfa 8 - ^
STACK CFI INIT 70a1c 6e .cfa: $rsp 656 + $rbp: .cfa 16 - ^ $rbx: .cfa 0 - ^ $rdi: .cfa 0 - ^ .ra: .cfa 8 - ^
STACK CFI INIT 70a90 3d .cfa: $rsp 48 + .ra: .cfa 8 - ^
STACK CFI INIT 70ae0 ac .cfa: $rsp 48 + $rdi: .cfa 16 - ^ $rbx: .cfa 0 - ^ .ra: .cfa 8 - ^
STACK CFI INIT 70ba0 9d .cfa: $rsp 8 + $rbx: .cfa 0 - ^ .ra: .cfa 8 - ^
STACK CFI INIT 70c50 b8 .cfa: $rsp 64 + $rbx: .cfa 16 - ^ .ra: .cfa 8 - ^
STACK CFI INIT 70d10 44 .cfa: $rsp 48 + .ra: .cfa 8 - ^
STACK CFI INIT 70d5c 5c .cfa: $rsp 48 + $rbx: .cfa 16 - ^ .ra: .cfa 8 - ^
STACK CFI INIT 70dc0 80 .cfa: $rsp 64 + $rdi: .cfa 16 - ^ $rbx: .cfa 0 - ^ $rbp: .cfa 0 - ^ $rsi: .cfa 0 - ^ .ra: .cfa 8 - ^
STACK CFI INIT 70e48 7d .cfa: $rsp 64 + $rdi: .cfa 16 - ^ $rbx: .cfa 0 - ^ .ra: .cfa 8 - ^
STACK CFI INIT 70ecc 14d .cfa: $rsp 176 + $rbp: .cfa 16 - ^ $rbx: .cfa 0 - ^ $rsi: .cfa 0 - ^ $rdi: .cfa 0 - ^ $r14: .cfa 0 - ^ .ra: .cfa 8 - ^
STACK CFI INIT 71020 151 .cfa: $rsp 80 + $rdi: .cfa 16 - ^ $r12: .cfa 24 - ^ $r13: .cfa 32 - ^ $r14: .cfa 40 - ^ $r15: .cfa 48 - ^ $rbx: .cfa 0 - ^ $rbp: .cfa 0 - ^ $rsi: .cfa 0 - ^ .ra: .cfa 8 - ^
STACK CFI INIT 71178 5a .cfa: $rsp 48 + $rdi: .cfa 16 - ^ $rbx: .cfa 0 - ^ $rbp: .cfa 0 - ^ $rsi: .cfa 0 - ^ .ra: .cfa 8 - ^
STACK CFI INIT 71208 13b .cfa: $rsp 80 + $rsi: .cfa 16 - ^ $rdi: .cfa 24 - ^ $r14: .cfa 32 - ^ $rbx: .cfa 0 - ^ $rbp: .cfa 0 - ^ .ra: .cfa 8 - ^
STACK CFI INIT 7137c 17f .cfa: $rsp 48 + $rdi: .cfa 16 - ^ $rbx: .cfa 0 - ^ $rbp: .cfa 0 - ^ $rsi: .cfa 0 - ^ .ra: .cfa 8 - ^
STACK CFI INIT 71560 71 .cfa: $rsp 112 + $rbx: .cfa 16 - ^ $rdi: .cfa 24 - ^ .ra: .cfa 8 - ^
STACK CFI INIT 715e0 9f .cfa: $rsp 496 + $rbx: .cfa 16 - ^ .ra: .cfa 8 - ^
STACK CFI INIT 716f0 e0 .cfa: $rsp 80 + $rdi: .cfa 16 - ^ $r14: .cfa 24 - ^ $r15: .cfa 32 - ^ $rbx: .cfa 0 - ^ $rsi: .cfa 0 - ^ .ra: .cfa 8 - ^
STACK CFI INIT 71840 e9 .cfa: $rsp 176 + $rdi: .cfa 16 - ^ $r14: .cfa 24 - ^ $r15: .cfa 32 - ^ $rbx: .cfa 0 - ^ $rsi: .cfa 0 - ^ .ra: .cfa 8 - ^
STACK CFI INIT 71930 6a .cfa: $rsp 64 + $rbx: .cfa 16 - ^ .ra: .cfa 8 - ^
STACK CFI INIT 719a0 284 .cfa: $rsp 224 + $rbp: .cfa 16 - ^ $rbx: .cfa 24 - ^ $rsi: .cfa 32 - ^ $rdi: .cfa 40 - ^ $r12: .cfa 48 - ^ $r13: .cfa 56 - ^ $r14: .cfa 64 - ^ $r15: .cfa 72 - ^ .ra: .cfa 8 - ^
STACK CFI INIT 71c2c 126 .cfa: $rsp 192 + $rbp: .cfa 16 - ^ $rsi: .cfa 24 - ^ $rdi: .cfa 32 - ^ $r12: .cfa 40 - ^ $r14: .cfa 48 - ^ $rbx: .cfa 0 - ^ .ra: .cfa 8 - ^
STACK CFI INIT 71db0 33 .cfa: $rsp 48 + $rdi: .cfa 16 - ^ $rbx: .cfa 0 - ^ $rsi: .cfa 0 - ^ .ra: .cfa 8 - ^
STACK CFI INIT 71dec 52 .cfa: $rsp 80 + $rdi: .cfa 16 - ^ $rbx: .cfa 0 - ^ $rbp: .cfa 0 - ^ $rsi: .cfa 0 - ^ .ra: .cfa 8 - ^
STACK CFI INIT 71e88 40 .cfa: $rsp 48 + .ra: .cfa 8 - ^
STACK CFI INIT 71ed0 76 .cfa: $rsp 96 + $rdi: .cfa 16 - ^ $rbx: .cfa 0 - ^ $rbp: .cfa 0 - ^ $rsi: .cfa 0 - ^ .ra: .cfa 8 - ^
STACK CFI INIT 71f50 176 .cfa: $rsp 96 + $rbp: .cfa 16 - ^ $rsi: .cfa 24 - ^ $rdi: .cfa 32 - ^ $r12: .cfa 40 - ^ $r13: .cfa 48 - ^ $r14: .cfa 56 - ^ $r15: .cfa 64 - ^ $rbx: .cfa 0 - ^ .ra: .cfa 8 - ^
STACK CFI INIT 720d0 64 .cfa: $rsp 48 + $rbx: .cfa 16 - ^ .ra: .cfa 8 - ^
STACK CFI INIT 72150 6f .cfa: $rsp 64 + $rdi: .cfa 16 - ^ $rbx: .cfa 0 - ^ $rbp: .cfa 0 - ^ $rsi: .cfa 0 - ^ .ra: .cfa 8 - ^
STACK CFI INIT 721e0 d8 .cfa: $rsp 48 + $r14: .cfa 16 - ^ $rbx: .cfa 0 - ^ $rbp: .cfa 0 - ^ $rsi: .cfa 0 - ^ $rdi: .cfa 0 - ^ .ra: .cfa 8 - ^
STACK CFI INIT 722e0 78 .cfa: $rsp 64 + $rdi: .cfa 16 - ^ $rbx: .cfa 0 - ^ .ra: .cfa 8 - ^
STACK CFI INIT 72360 a9 .cfa: $rsp 48 + $r14: .cfa 16 - ^ $rbx: .cfa 0 - ^ $rbp: .cfa 0 - ^ $rsi: .cfa 0 - ^ $rdi: .cfa 0 - ^ .ra: .cfa 8 - ^
STACK CFI INIT 72410 33 .cfa: $rsp 48 + $rdi: .cfa 16 - ^ $rbx: .cfa 0 - ^ .ra: .cfa 8 - ^
STACK CFI INIT 72490 28 .cfa: $rsp 80 + .ra: .cfa 8 - ^
STACK CFI INIT 724c0 34 .cfa: $rsp 48 + $rbx: .cfa 16 - ^ .ra: .cfa 8 - ^
STACK CFI INIT 72500 6b .cfa: $rsp 8 + $rbx: .cfa 0 - ^ .ra: .cfa 8 - ^
STACK CFI INIT 72574 12d .cfa: $rsp 80 + $rsi: .cfa 16 - ^ $rdi: .cfa 24 - ^ $r14: .cfa 32 - ^ $rbx: .cfa 0 - ^ $rbp: .cfa 0 - ^ .ra: .cfa 8 - ^
STACK CFI INIT 726a8 ec .cfa: $rsp 128 + $rsi: .cfa 16 - ^ $rdi: .cfa 24 - ^ $r14: .cfa 32 - ^ $rbx: .cfa 0 - ^ .ra: .cfa 8 - ^
STACK CFI INIT 7279c f6 .cfa: $rsp 112 + $rbp: .cfa 16 - ^ $rsi: .cfa 24 - ^ $rdi: .cfa 32 - ^ $r14: .cfa 40 - ^ $r15: .cfa 48 - ^ $rbx: .cfa 0 - ^ .ra: .cfa 8 - ^
STACK CFI INIT 72898 f7 .cfa: $rsp 96 + $rsi: .cfa 16 - ^ $rdi: .cfa 24 - ^ $r12: .cfa 32 - ^ $r14: .cfa 40 - ^ $r15: .cfa 48 - ^ $rbx: .cfa 0 - ^ $rbp: .cfa 0 - ^ .ra: .cfa 8 - ^
STACK CFI INIT 72998 c7 .cfa: $rsp 48 + $r14: .cfa 16 - ^ $rbx: .cfa 0 - ^ $rbp: .cfa 0 - ^ $rsi: .cfa 0 - ^ $rdi: .cfa 0 - ^ .ra: .cfa 8 - ^
STACK CFI INIT 72a68 ea .cfa: $rsp 64 + $r12: .cfa 16 - ^ $r14: .cfa 24 - ^ $r15: .cfa 32 - ^ $rbx: .cfa 0 - ^ $rbp: .cfa 0 - ^ $rsi: .cfa 0 - ^ $rdi: .cfa 0 - ^ .ra: .cfa 8 - ^
STACK CFI INIT 72b60 3f .cfa: $rsp 96 + .ra: .cfa 8 - ^
STACK CFI INIT 72bb0 19 .cfa: $rsp 48 + .ra: .cfa 8 - ^
STACK CFI INIT 72bd0 7a .cfa: $rsp 320 + $rsi: .cfa 16 - ^ $r12: .cfa 24 - ^ $r13: .cfa 32 - ^ $r14: .cfa 40 - ^ $r15: .cfa 48 - ^ $rbx: .cfa 0 - ^ .ra: .cfa 8 - ^
STACK CFI INIT 72c50 7c .cfa: $rsp 64 + $rdi: .cfa 16 - ^ $rbx: .cfa 0 - ^ .ra: .cfa 8 - ^
STACK CFI INIT 72cd4 54 .cfa: $rsp 64 + .ra: .cfa 8 - ^
STACK CFI INIT 72d30 1c .cfa: $rsp 48 + $rbx: .cfa 16 - ^ .ra: .cfa 8 - ^
STACK CFI INIT 72d60 12a .cfa: $rsp 240 + $rbp: .cfa 16 - ^ $rbx: .cfa 24 - ^ $rsi: .cfa 32 - ^ $rdi: .cfa 40 - ^ $r14: .cfa 48 - ^ .ra: .cfa 8 - ^
STACK CFI INIT 72ea0 15c .cfa: $rsp 112 + $rbx: .cfa 16 - ^ $rsi: .cfa 24 - ^ $rdi: .cfa 32 - ^ $r14: .cfa 40 - ^ $r15: .cfa 48 - ^ .ra: .cfa 8 - ^
STACK CFI INIT 73004 3f .cfa: $rsp 48 + $rbx: .cfa 16 - ^ .ra: .cfa 8 - ^
STACK CFI INIT 7304c 2fd .cfa: $rsp 208 + $rbx: .cfa 16 - ^ $rbp: .cfa 24 - ^ $rsi: .cfa 32 - ^ $rdi: .cfa 40 - ^ $r12: .cfa 48 - ^ $r13: .cfa 56 - ^ $r14: .cfa 64 - ^ $r15: .cfa 72 - ^ .ra: .cfa 8 - ^
STACK CFI INIT 73380 24 .cfa: $rsp 48 + .ra: .cfa 8 - ^
STACK CFI INIT 733b0 21f .cfa: $rsp 80 + $rdi: .cfa 16 - ^ $r12: .cfa 24 - ^ $r13: .cfa 32 - ^ $r14: .cfa 40 - ^ $r15: .cfa 48 - ^ $rbx: .cfa 0 - ^ $rbp: .cfa 0 - ^ $rsi: .cfa 0 - ^ .ra: .cfa 8 - ^
STACK CFI INIT 735e0 102 .cfa: $rsp 48 + $rdi: .cfa 16 - ^ $rbx: .cfa 0 - ^ $rsi: .cfa 0 - ^ .ra: .cfa 8 - ^
STACK CFI INIT 73770 58 .cfa: $rsp 48 + $rdi: .cfa 16 - ^ $rbx: .cfa 0 - ^ $rbp: .cfa 0 - ^ $rsi: .cfa 0 - ^ .ra: .cfa 8 - ^
STACK CFI INIT 737d0 67 .cfa: $rsp 112 + .ra: .cfa 8 - ^
STACK CFI INIT 73840 160 .cfa: $rsp 304 + $rbp: .cfa 16 - ^ $rsi: .cfa 24 - ^ $rdi: .cfa 32 - ^ $rbx: .cfa 0 - ^ .ra: .cfa 8 - ^
STACK CFI INIT 739dc 24 .cfa: $rsp 48 + .ra: .cfa 8 - ^
STACK CFI INIT 73a60 81 .cfa: $rsp 48 + $rdi: .cfa 16 - ^ $rbx: .cfa 0 - ^ $rsi: .cfa 0 - ^ .ra: .cfa 8 - ^
STACK CFI INIT 73afc e2 .cfa: $rsp 192 + $rbp: .cfa 16 - ^ $rbx: .cfa 0 - ^ $rdi: .cfa 0 - ^ .ra: .cfa 8 - ^
STACK CFI INIT 73be4 11a .cfa: $rsp 160 + $rdi: .cfa 16 - ^ $r12: .cfa 24 - ^ $r13: .cfa 32 - ^ $r14: .cfa 40 - ^ $r15: .cfa 48 - ^ $rbx: .cfa 0 - ^ $rbp: .cfa 0 - ^ $rsi: .cfa 0 - ^ .ra: .cfa 8 - ^
STACK CFI INIT 73d04 20c .cfa: $rsp 192 + $rbp: .cfa 16 - ^ $rsi: .cfa 24 - ^ $rdi: .cfa 32 - ^ $r12: .cfa 40 - ^ $r13: .cfa 48 - ^ $r14: .cfa 56 - ^ $r15: .cfa 64 - ^ $rbx: .cfa 0 - ^ .ra: .cfa 8 - ^
STACK CFI INIT 73f60 56 .cfa: $rsp 48 + .ra: .cfa 8 - ^
STACK CFI INIT 73fd0 4d .cfa: $rsp 48 + .ra: .cfa 8 - ^
STACK CFI INIT 74030 3c .cfa: $rsp 48 + $rdi: .cfa 16 - ^ $rbx: .cfa 0 - ^ .ra: .cfa 8 - ^
STACK CFI INIT 74080 b6 .cfa: $rsp 80 + $r14: .cfa 16 - ^ $rbx: .cfa 0 - ^ $rbp: .cfa 0 - ^ $rsi: .cfa 0 - ^ $rdi: .cfa 0 - ^ .ra: .cfa 8 - ^
STACK CFI INIT 74150 48 .cfa: $rsp 80 + $rbx: .cfa 16 - ^ .ra: .cfa 8 - ^
STACK CFI INIT 74200 d1 .cfa: $rsp 64 + $rdi: .cfa 16 - ^ $rbx: .cfa 0 - ^ $rsi: .cfa 0 - ^ .ra: .cfa 8 - ^
STACK CFI INIT 742e0 1e .cfa: $rsp 64 + .ra: .cfa 8 - ^
STACK CFI INIT 74304 d6 .cfa: $rsp 128 + $rsi: .cfa 16 - ^ $rdi: .cfa 24 - ^ $r14: .cfa 32 - ^ $rbx: .cfa 0 - ^ $rbp: .cfa 0 - ^ .ra: .cfa 8 - ^
STACK CFI INIT 743e0 7a .cfa: $rsp 112 + $rbx: .cfa 16 - ^ $rdi: .cfa 24 - ^ .ra: .cfa 8 - ^
STACK CFI INIT 74490 eb .cfa: $rsp 144 + $rbp: .cfa 16 - ^ $rsi: .cfa 24 - ^ $rdi: .cfa 32 - ^ $r14: .cfa 40 - ^ $r15: .cfa 48 - ^ $rbx: .cfa 0 - ^ .ra: .cfa 8 - ^
STACK CFI INIT 74590 6c .cfa: $rsp 48 + $rdi: .cfa 16 - ^ $rbx: .cfa 0 - ^ .ra: .cfa 8 - ^
STACK CFI INIT 74620 4c .cfa: $rsp 8 + $rbx: .cfa 0 - ^ .ra: .cfa 8 - ^
STACK CFI INIT 74680 7b .cfa: $rsp 48 + $rdi: .cfa 16 - ^ $rbx: .cfa 0 - ^ $rbp: .cfa 0 - ^ $rsi: .cfa 0 - ^ .ra: .cfa 8 - ^
STACK CFI INIT 74704 d6 .cfa: $rsp 64 + $rdi: .cfa 16 - ^ $rbx: .cfa 0 - ^ $rbp: .cfa 0 - ^ $rsi: .cfa 0 - ^ .ra: .cfa 8 - ^
STACK CFI INIT 74880 24 .cfa: $rsp 48 + $rbx: .cfa 16 - ^ .ra: .cfa 8 - ^
STACK CFI INIT 748b0 5b .cfa: $rsp 48 + $rbx: .cfa 16 - ^ .ra: .cfa 8 - ^
STACK CFI INIT 74920 33 .cfa: $rsp 48 + .ra: .cfa 8 - ^
STACK CFI INIT 7495c 71 .cfa: $rsp 48 + $rdi: .cfa 16 - ^ $rbx: .cfa 0 - ^ .ra: .cfa 8 - ^
STACK CFI INIT 749d4 4f .cfa: $rsp 64 + $rdi: .cfa 16 - ^ $r14: .cfa 24 - ^ $r15: .cfa 32 - ^ $rbx: .cfa 0 - ^ $rbp: .cfa 0 - ^ $rsi: .cfa 0 - ^ .ra: .cfa 8 - ^
STACK CFI INIT 74a80 138 .cfa: $rsp 352 + $rbp: .cfa 16 - ^ $rbx: .cfa 0 - ^ $rsi: .cfa 0 - ^ $rdi: .cfa 0 - ^ .ra: .cfa 8 - ^
STACK CFI INIT 74c30 5f .cfa: $rsp 48 + $rdi: .cfa 16 - ^ $rbx: .cfa 0 - ^ $rbp: .cfa 0 - ^ $rsi: .cfa 0 - ^ .ra: .cfa 8 - ^
STACK CFI INIT 74c98 187 .cfa: $rsp 464 + $rdi: .cfa 16 - ^ $rbx: .cfa 0 - ^ $rsi: .cfa 0 - ^ .ra: .cfa 8 - ^
STACK CFI INIT 74e90 3c .cfa: $rsp 48 + $rbx: .cfa 16 - ^ .ra: .cfa 8 - ^
STACK CFI INIT 74ee0 86 .cfa: $rsp 128 + $rdi: .cfa 16 - ^ $rbx: .cfa 0 - ^ $rsi: .cfa 0 - ^ .ra: .cfa 8 - ^
STACK CFI INIT 75060 32 .cfa: $rsp 48 + .ra: .cfa 8 - ^
STACK CFI INIT 750a0 32 .cfa: $rsp 48 + .ra: .cfa 8 - ^
STACK CFI INIT 750d8 1a6 .cfa: $rsp 224 + $rbp: .cfa 16 - ^ $rsi: .cfa 24 - ^ $rdi: .cfa 32 - ^ $r12: .cfa 40 - ^ $r13: .cfa 48 - ^ $r14: .cfa 56 - ^ $r15: .cfa 64 - ^ $rbx: .cfa 0 - ^ .ra: .cfa 8 - ^
STACK CFI INIT 752f0 9c .cfa: $rsp 64 + $rdi: .cfa 16 - ^ $rbx: .cfa 0 - ^ $rsi: .cfa 0 - ^ .ra: .cfa 8 - ^
STACK CFI INIT 753c0 3a .cfa: $rsp 64 + $rdi: .cfa 16 - ^ $rbx: .cfa 0 - ^ $rsi: .cfa 0 - ^ .ra: .cfa 8 - ^
STACK CFI INIT 75400 1d .cfa: $rsp 64 + .ra: .cfa 8 - ^
STACK CFI INIT 75450 17 .cfa: $rsp 64 + .ra: .cfa 8 - ^
STACK CFI INIT 75470 3c .cfa: $rsp 96 + $rbx: .cfa 16 - ^ .ra: .cfa 8 - ^
STACK CFI INIT 754c0 22 .cfa: $rsp 48 + $rbx: .cfa 16 - ^ .ra: .cfa 8 - ^
STACK CFI INIT 754f0 5e .cfa: $rsp 48 + $rbx: .cfa 16 - ^ .ra: .cfa 8 - ^
STACK CFI INIT 75560 122 .cfa: $rsp 64 + $rdi: .cfa 16 - ^ $rbx: .cfa 0 - ^ .ra: .cfa 8 - ^
STACK CFI INIT 75688 107 .cfa: $rsp 96 + $rsi: .cfa 16 - ^ $rdi: .cfa 24 - ^ $r12: .cfa 32 - ^ $r14: .cfa 40 - ^ $r15: .cfa 48 - ^ $rbx: .cfa 0 - ^ $rbp: .cfa 0 - ^ .ra: .cfa 8 - ^
STACK CFI INIT 757a0 47 .cfa: $rsp 64 + $rdi: .cfa 16 - ^ $rbx: .cfa 0 - ^ .ra: .cfa 8 - ^
STACK CFI INIT 757f0 72 .cfa: $rsp 112 + .ra: .cfa 8 - ^
STACK CFI INIT 75870 45 .cfa: $rsp 80 + .ra: .cfa 8 - ^
STACK CFI INIT 758c0 2f .cfa: $rsp 80 + .ra: .cfa 8 - ^
STACK CFI INIT 75900 1e .cfa: $rsp 64 + .ra: .cfa 8 - ^
STACK CFI INIT 75930 46 .cfa: $rsp 48 + $rdi: .cfa 16 - ^ $rbx: .cfa 0 - ^ .ra: .cfa 8 - ^
STACK CFI INIT 75a04 4b .cfa: $rsp 64 + .ra: .cfa 8 - ^
STACK CFI INIT 75a60 3d .cfa: $rsp 80 + .ra: .cfa 8 - ^
STACK CFI INIT 75b44 1b3 .cfa: $rsp 96 + $rbp: .cfa 16 - ^ $rdi: .cfa 24 - ^ $r14: .cfa 32 - ^ $rbx: .cfa 0 - ^ $rsi: .cfa 0 - ^ .ra: .cfa 8 - ^
STACK CFI INIT 75d00 148 .cfa: $rsp 112 + $r12: .cfa 16 - ^ $r14: .cfa 24 - ^ $r15: .cfa 32 - ^ $rbx: .cfa 0 - ^ $rsi: .cfa 0 - ^ $rdi: .cfa 0 - ^ .ra: .cfa 8 - ^
STACK CFI INIT 75e50 3f3 .cfa: $rsp 624 + $rbp: .cfa 16 - ^ $rbx: .cfa 24 - ^ $rsi: .cfa 32 - ^ $rdi: .cfa 40 - ^ $r12: .cfa 48 - ^ $r13: .cfa 56 - ^ $r14: .cfa 64 - ^ $r15: .cfa 72 - ^ .ra: .cfa 8 - ^
STACK CFI INIT 76250 11f6 .cfa: $rsp 880 + $rbx: .cfa 16 - ^ $rsi: .cfa 24 - ^ $rdi: .cfa 32 - ^ $r12: .cfa 40 - ^ $r13: .cfa 48 - ^ $r14: .cfa 56 - ^ $r15: .cfa 64 - ^ .ra: .cfa 8 - ^
STACK CFI INIT 77450 16 .cfa: $rsp 64 + .ra: .cfa 8 - ^
STACK CFI INIT 7746c 23f .cfa: $rsp 160 + $rbx: .cfa 16 - ^ $rsi: .cfa 24 - ^ $rdi: .cfa 32 - ^ $r14: .cfa 40 - ^ $r15: .cfa 48 - ^ .ra: .cfa 8 - ^
STACK CFI INIT 776d0 131 .cfa: $rsp 8 + $rbx: .cfa 0 - ^ $rsi: .cfa 0 - ^ $rdi: .cfa 0 - ^ $r14: .cfa 0 - ^ .ra: .cfa 8 - ^
STACK CFI INIT 77810 120 .cfa: $rsp 48 + $r14: .cfa 16 - ^ $rbx: .cfa 0 - ^ $rbp: .cfa 0 - ^ $rsi: .cfa 0 - ^ $rdi: .cfa 0 - ^ .ra: .cfa 8 - ^
STACK CFI INIT 77940 f0 .cfa: $rsp 8 + $rbx: .cfa 0 - ^ .ra: .cfa 8 - ^
STACK CFI INIT 77b00 19 .cfa: $rsp 64 + .ra: .cfa 8 - ^
STACK CFI INIT 77b20 89 .cfa: $rsp 64 + $rdi: .cfa 16 - ^ $rbx: .cfa 0 - ^ .ra: .cfa 8 - ^
STACK CFI INIT 77bb0 19 .cfa: $rsp 48 + .ra: .cfa 8 - ^
STACK CFI INIT 77ea0 d9 .cfa: $rsp 48 + $rdi: .cfa 16 - ^ $rbx: .cfa 0 - ^ $rsi: .cfa 0 - ^ .ra: .cfa 8 - ^
STACK CFI INIT 77f80 7f .cfa: $rsp 48 + $rdi: .cfa 16 - ^ $rbx: .cfa 0 - ^ .ra: .cfa 8 - ^
STACK CFI INIT 7806c a1 .cfa: $rsp 80 + $rdi: .cfa 16 - ^ $r12: .cfa 24 - ^ $r13: .cfa 32 - ^ $r14: .cfa 40 - ^ $r15: .cfa 48 - ^ $rbx: .cfa 0 - ^ $rbp: .cfa 0 - ^ $rsi: .cfa 0 - ^ .ra: .cfa 8 - ^
STACK CFI INIT 78120 65 .cfa: $rsp 48 + $rdi: .cfa 16 - ^ $rbx: .cfa 0 - ^ $rsi: .cfa 0 - ^ .ra: .cfa 8 - ^
STACK CFI INIT 781e0 35 .cfa: $rsp 48 + $rbx: .cfa 16 - ^ .ra: .cfa 8 - ^
STACK CFI INIT 78298 ab .cfa: $rsp 64 + $r14: .cfa 16 - ^ $rbx: .cfa 0 - ^ $rsi: .cfa 0 - ^ $rdi: .cfa 0 - ^ .ra: .cfa 8 - ^
STACK CFI INIT 7834c 6e .cfa: $rsp 48 + $rbx: .cfa 16 - ^ .ra: .cfa 8 - ^
STACK CFI INIT 783c0 28e .cfa: $rsp 240 + $rsi: .cfa 16 - ^ $rdi: .cfa 24 - ^ $r12: .cfa 32 - ^ $r13: .cfa 40 - ^ $r14: .cfa 48 - ^ $r15: .cfa 56 - ^ .ra: .cfa 8 - ^
STACK CFI INIT 78660 4e .cfa: $rsp 48 + $rdi: .cfa 16 - ^ $rbx: .cfa 0 - ^ .ra: .cfa 8 - ^
STACK CFI INIT 786b4 70 .cfa: $rsp 48 + $rdi: .cfa 16 - ^ $rbx: .cfa 0 - ^ .ra: .cfa 8 - ^
STACK CFI INIT 78730 21 .cfa: $rsp 48 + .ra: .cfa 8 - ^
STACK CFI INIT 78760 131 .cfa: $rsp 64 + $rdi: .cfa 16 - ^ $rbx: .cfa 0 - ^ $rsi: .cfa 0 - ^ .ra: .cfa 8 - ^
STACK CFI INIT 78898 146 .cfa: $rsp 80 + $rdi: .cfa 16 - ^ $r14: .cfa 24 - ^ $r15: .cfa 32 - ^ $rbx: .cfa 0 - ^ $rsi: .cfa 0 - ^ .ra: .cfa 8 - ^
STACK CFI INIT 789e4 14d .cfa: $rsp 80 + $r12: .cfa 16 - ^ $r14: .cfa 24 - ^ $r15: .cfa 32 - ^ $rbx: .cfa 0 - ^ $rsi: .cfa 0 - ^ $rdi: .cfa 0 - ^ .ra: .cfa 8 - ^
STACK CFI INIT 78b40 c4 .cfa: $rsp 48 + $rdi: .cfa 16 - ^ $rbx: .cfa 0 - ^ $rbp: .cfa 0 - ^ $rsi: .cfa 0 - ^ .ra: .cfa 8 - ^
STACK CFI INIT 78c64 34 .cfa: $rsp 48 + $rbx: .cfa 16 - ^ .ra: .cfa 8 - ^
STACK CFI INIT 78ca0 5d .cfa: $rsp 48 + $rdi: .cfa 16 - ^ $rbx: .cfa 0 - ^ .ra: .cfa 8 - ^
STACK CFI INIT 78d10 46 .cfa: $rsp 80 + $rbx: .cfa 16 - ^ .ra: .cfa 8 - ^
STACK CFI INIT 78d60 8c .cfa: $rsp 96 + $rdi: .cfa 16 - ^ $rbx: .cfa 0 - ^ $rsi: .cfa 0 - ^ .ra: .cfa 8 - ^
STACK CFI INIT 78e00 2a .cfa: $rsp 80 + .ra: .cfa 8 - ^
STACK CFI INIT 78e50 36 .cfa: $rsp 48 + $rbx: .cfa 16 - ^ .ra: .cfa 8 - ^
STACK CFI INIT 78e90 30 .cfa: $rsp 80 + .ra: .cfa 8 - ^
STACK CFI INIT 78ed0 1d .cfa: $rsp 64 + .ra: .cfa 8 - ^
STACK CFI INIT 78ef4 f1 .cfa: $rsp 128 + $rbp: .cfa 16 - ^ $rdi: .cfa 24 - ^ $r14: .cfa 32 - ^ $rbx: .cfa 0 - ^ .ra: .cfa 8 - ^
STACK CFI INIT 78fec a5 .cfa: $rsp 128 + $rdi: .cfa 16 - ^ $rbx: .cfa 0 - ^ .ra: .cfa 8 - ^
STACK CFI INIT 790a0 2c .cfa: $rsp 48 + .ra: .cfa 8 - ^
STACK CFI INIT 79158 55 .cfa: $rsp 80 + $rdi: .cfa 16 - ^ $r14: .cfa 24 - ^ $r15: .cfa 32 - ^ $rbx: .cfa 0 - ^ $rbp: .cfa 0 - ^ $rsi: .cfa 0 - ^ .ra: .cfa 8 - ^
STACK CFI INIT 791e0 6a .cfa: $rsp 80 + $rdi: .cfa 16 - ^ $rbx: .cfa 0 - ^ $rsi: .cfa 0 - ^ .ra: .cfa 8 - ^
STACK CFI INIT 79270 3e .cfa: $rsp 48 + .ra: .cfa 8 - ^
STACK CFI INIT 792c0 88 .cfa: $rsp 64 + $rdi: .cfa 16 - ^ $rbx: .cfa 0 - ^ $rbp: .cfa 0 - ^ $rsi: .cfa 0 - ^ .ra: .cfa 8 - ^
STACK CFI INIT 79350 538 .cfa: $rsp 80 + $rdi: .cfa 16 - ^ $r12: .cfa 24 - ^ $r13: .cfa 32 - ^ $r14: .cfa 40 - ^ $r15: .cfa 48 - ^ $rbx: .cfa 0 - ^ $rbp: .cfa 0 - ^ $rsi: .cfa 0 - ^ .ra: .cfa 8 - ^
STACK CFI INIT 79890 3bb .cfa: $rsp 32 + $r12: .cfa 16 - ^ $r13: .cfa 24 - ^ $r14: .cfa 32 - ^ $rbx: .cfa 0 - ^ $rbp: .cfa 0 - ^ $rsi: .cfa 0 - ^ $rdi: .cfa 0 - ^ .ra: .cfa 8 - ^
STACK CFI INIT 79c60 56 .cfa: $rsp 96 + $rbx: .cfa 16 - ^ .ra: .cfa 8 - ^
STACK CFI INIT 79cbc 76e .cfa: $rsp 208 + $rbp: .cfa 16 - ^ $rsi: .cfa 24 - ^ $rdi: .cfa 32 - ^ $r12: .cfa 40 - ^ $r13: .cfa 48 - ^ $r14: .cfa 56 - ^ $r15: .cfa 64 - ^ $rbx: .cfa 0 - ^ .ra: .cfa 8 - ^
STACK CFI INIT 7a430 30a .cfa: $rsp 80 + $rdi: .cfa 16 - ^ $r12: .cfa 24 - ^ $r13: .cfa 32 - ^ $r14: .cfa 40 - ^ $r15: .cfa 48 - ^ $rbx: .cfa 0 - ^ $rbp: .cfa 0 - ^ $rsi: .cfa 0 - ^ .ra: .cfa 8 - ^
STACK CFI INIT 7a740 36c .cfa: $rsp 80 + $rdi: .cfa 16 - ^ $r12: .cfa 24 - ^ $r13: .cfa 32 - ^ $r14: .cfa 40 - ^ $r15: .cfa 48 - ^ $rbx: .cfa 0 - ^ $rbp: .cfa 0 - ^ $rsi: .cfa 0 - ^ .ra: .cfa 8 - ^
STACK CFI INIT 7aac0 1c8 .cfa: $rsp 56 + $rsi: .cfa 16 - ^ $rdi: .cfa 24 - ^ $r12: .cfa 32 - ^ $r13: .cfa 40 - ^ $r14: .cfa 48 - ^ $r15: .cfa 56 - ^ $rbx: .cfa 0 - ^ $rbp: .cfa 0 - ^ .ra: .cfa 8 - ^
STACK CFI INIT 7acc0 325 .cfa: $rsp 256 + $rsi: .cfa 16 - ^ $r12: .cfa 24 - ^ $r13: .cfa 32 - ^ $r14: .cfa 40 - ^ $r15: .cfa 48 - ^ $rbx: .cfa 0 - ^ .ra: .cfa 8 - ^
STACK CFI INIT 7aff0 db .cfa: $rsp 80 + $rbp: .cfa 16 - ^ $rsi: .cfa 24 - ^ $rdi: .cfa 32 - ^ $rbx: .cfa 0 - ^ .ra: .cfa 8 - ^
STACK CFI INIT 7b0d4 45 .cfa: $rsp 48 + .ra: .cfa 8 - ^
STACK CFI INIT 7b120 62 .cfa: $rsp 96 + $rbp: .cfa 16 - ^ $rsi: .cfa 24 - ^ $rdi: .cfa 32 - ^ $r12: .cfa 40 - ^ $r13: .cfa 48 - ^ $r14: .cfa 56 - ^ $r15: .cfa 64 - ^ $rbx: .cfa 0 - ^ .ra: .cfa 8 - ^
STACK CFI INIT 7b188 3e .cfa: $rsp 64 + $rbx: .cfa 16 - ^ .ra: .cfa 8 - ^
STACK CFI INIT 7b1cc 61 .cfa: $rsp 48 + $rdi: .cfa 16 - ^ $rbx: .cfa 0 - ^ $rbp: .cfa 0 - ^ $rsi: .cfa 0 - ^ .ra: .cfa 8 - ^
STACK CFI INIT 7b240 ae .cfa: $rsp 64 + $r12: .cfa 16 - ^ $r14: .cfa 24 - ^ $r15: .cfa 32 - ^ $rbx: .cfa 0 - ^ $rbp: .cfa 0 - ^ $rsi: .cfa 0 - ^ $rdi: .cfa 0 - ^ .ra: .cfa 8 - ^
STACK CFI INIT 7b310 39c .cfa: $rsp 528 + $rbp: .cfa 16 - ^ $rsi: .cfa 24 - ^ $rdi: .cfa 32 - ^ $r12: .cfa 40 - ^ $r13: .cfa 48 - ^ $r14: .cfa 56 - ^ $r15: .cfa 64 - ^ $rbx: .cfa 0 - ^ .ra: .cfa 8 - ^
STACK CFI INIT 7b6c0 ff .cfa: $rsp 512 + $rdi: .cfa 16 - ^ $rbx: .cfa 0 - ^ .ra: .cfa 8 - ^
STACK CFI INIT 7b7d0 350 .cfa: $rsp 144 + $rbx: .cfa 16 - ^ $rbp: .cfa 24 - ^ $rsi: .cfa 32 - ^ $rdi: .cfa 40 - ^ $r12: .cfa 48 - ^ $r13: .cfa 56 - ^ $r14: .cfa 64 - ^ $r15: .cfa 72 - ^ .ra: .cfa 8 - ^
STACK CFI INIT 7bb30 f2 .cfa: $rsp 112 + $rdi: .cfa 16 - ^ $rbx: .cfa 0 - ^ $rbp: .cfa 0 - ^ $rsi: .cfa 0 - ^ .ra: .cfa 8 - ^
STACK CFI INIT 7bc28 28a .cfa: $rsp 688 + $rbp: .cfa 16 - ^ $rbx: .cfa 24 - ^ $rsi: .cfa 32 - ^ $rdi: .cfa 40 - ^ $r12: .cfa 48 - ^ $r14: .cfa 56 - ^ $r15: .cfa 64 - ^ .ra: .cfa 8 - ^
STACK CFI INIT 7bee0 77 .cfa: $rsp 64 + $rdi: .cfa 16 - ^ $rbx: .cfa 0 - ^ .ra: .cfa 8 - ^
STACK CFI INIT 7bf60 c8 .cfa: $rbp 96 + $rbp: .cfa 16 - ^ $rbx: .cfa 24 - ^ $rsi: .cfa 32 - ^ $rdi: .cfa 40 - ^ $r12: .cfa 48 - ^ $r14: .cfa 56 - ^ $r15: .cfa 64 - ^ .ra: .cfa 8 - ^
STACK CFI INIT 7c030 220 .cfa: $rsp 272 + $rdi: .cfa 16 - ^ $r14: .cfa 24 - ^ $r15: .cfa 32 - ^ $rbx: .cfa 0 - ^ $rsi: .cfa 0 - ^ .ra: .cfa 8 - ^
STACK CFI INIT 7c258 f5 .cfa: $rsp 144 + $rbp: .cfa 16 - ^ $rbx: .cfa 24 - ^ $rsi: .cfa 32 - ^ $rdi: .cfa 40 - ^ $r12: .cfa 48 - ^ $r13: .cfa 56 - ^ $r14: .cfa 64 - ^ $r15: .cfa 72 - ^ .ra: .cfa 8 - ^
STACK CFI INIT 7c354 7d .cfa: $rsp 48 + $r14: .cfa 16 - ^ $rbx: .cfa 0 - ^ $rbp: .cfa 0 - ^ $rsi: .cfa 0 - ^ $rdi: .cfa 0 - ^ .ra: .cfa 8 - ^
STACK CFI INIT 7c3e0 152 .cfa: $rsp 80 + $rdi: .cfa 16 - ^ $r14: .cfa 24 - ^ $r15: .cfa 32 - ^ $rbx: .cfa 0 - ^ $rsi: .cfa 0 - ^ .ra: .cfa 8 - ^
STACK CFI INIT 7c540 188 .cfa: $rsp 608 + $rbp: .cfa 16 - ^ $rsi: .cfa 24 - ^ $rdi: .cfa 32 - ^ $r14: .cfa 40 - ^ $r15: .cfa 48 - ^ $rbx: .cfa 0 - ^ .ra: .cfa 8 - ^
STACK CFI INIT 7c6d0 84 .cfa: $rsp 48 + $rdi: .cfa 16 - ^ $rbx: .cfa 0 - ^ $rbp: .cfa 0 - ^ $rsi: .cfa 0 - ^ .ra: .cfa 8 - ^
STACK CFI INIT 7c760 1b8 .cfa: $rsp 112 + $rsi: .cfa 16 - ^ $rdi: .cfa 24 - ^ $r12: .cfa 32 - ^ $r14: .cfa 40 - ^ $r15: .cfa 48 - ^ $rbx: .cfa 0 - ^ $rbp: .cfa 0 - ^ .ra: .cfa 8 - ^
STACK CFI INIT 7c920 cc .cfa: $rsp 112 + $rsi: .cfa 16 - ^ $rdi: .cfa 24 - ^ $r12: .cfa 32 - ^ $r14: .cfa 40 - ^ $r15: .cfa 48 - ^ $rbx: .cfa 0 - ^ $rbp: .cfa 0 - ^ .ra: .cfa 8 - ^
STACK CFI INIT 7ca00 215 .cfa: $rsp 912 + $rbp: .cfa 16 - ^ $rbx: .cfa 0 - ^ $rsi: .cfa 0 - ^ $rdi: .cfa 0 - ^ .ra: .cfa 8 - ^
STACK CFI INIT 7cc1c a2 .cfa: $rsp 48 + $rbx: .cfa 16 - ^ .ra: .cfa 8 - ^
STACK CFI INIT 7ccc4 8f .cfa: $rsp 48 + $rdi: .cfa 16 - ^ $rbx: .cfa 0 - ^ $rsi: .cfa 0 - ^ .ra: .cfa 8 - ^
STACK CFI INIT 7cd60 138 .cfa: $rsp 64 + $rdi: .cfa 16 - ^ $r14: .cfa 24 - ^ $r15: .cfa 32 - ^ $rbx: .cfa 0 - ^ $rbp: .cfa 0 - ^ $rsi: .cfa 0 - ^ .ra: .cfa 8 - ^
STACK CFI INIT 7cea0 ec .cfa: $rsp 176 + $rbp: .cfa 16 - ^ $rbx: .cfa 24 - ^ $rsi: .cfa 32 - ^ $rdi: .cfa 40 - ^ $r12: .cfa 48 - ^ $r14: .cfa 56 - ^ $r15: .cfa 64 - ^ .ra: .cfa 8 - ^
STACK CFI INIT 7cfa0 dc .cfa: $rsp 144 + $rbp: .cfa 16 - ^ $rsi: .cfa 24 - ^ $rdi: .cfa 32 - ^ $rbx: .cfa 0 - ^ .ra: .cfa 8 - ^
STACK CFI INIT 7d0d0 110 .cfa: $rsp 96 + $rdi: .cfa 16 - ^ $rbx: .cfa 0 - ^ $rsi: .cfa 0 - ^ .ra: .cfa 8 - ^
STACK CFI INIT 7d1f0 188 .cfa: $rsp 256 + $rbp: .cfa 16 - ^ $rsi: .cfa 24 - ^ $rdi: .cfa 32 - ^ $r14: .cfa 40 - ^ $r15: .cfa 48 - ^ $rbx: .cfa 0 - ^ .ra: .cfa 8 - ^
STACK CFI INIT 7d380 1d5 .cfa: $rsp 400 + $rbp: .cfa 16 - ^ $rsi: .cfa 24 - ^ $rdi: .cfa 32 - ^ $rbx: .cfa 0 - ^ .ra: .cfa 8 - ^
STACK CFI INIT 7d560 a5 .cfa: $rsp 64 + $rdi: .cfa 16 - ^ $rbx: .cfa 0 - ^ .ra: .cfa 8 - ^
STACK CFI INIT 7d610 4c .cfa: $rsp 96 + .ra: .cfa 8 - ^
STACK CFI INIT 7d670 9b .cfa: $rsp 176 + $rbx: .cfa 16 - ^ .ra: .cfa 8 - ^
STACK CFI INIT 7d720 1be .cfa: $rsp 56 + $rsi: .cfa 16 - ^ $rdi: .cfa 24 - ^ $r12: .cfa 32 - ^ $r13: .cfa 40 - ^ $r14: .cfa 48 - ^ $r15: .cfa 56 - ^ $rbx: .cfa 0 - ^ $rbp: .cfa 0 - ^ .ra: .cfa 8 - ^
STACK CFI INIT 7d8f0 31 .cfa: $rsp 48 + $rbx: .cfa 16 - ^ .ra: .cfa 8 - ^
STACK CFI INIT 7d930 1d .cfa: $rsp 64 + .ra: .cfa 8 - ^
STACK CFI INIT 7d9a0 d0 .cfa: $rsp 704 + $rbp: .cfa 16 - ^ $rbx: .cfa 0 - ^ $rdi: .cfa 0 - ^ .ra: .cfa 8 - ^
STACK CFI INIT 7da80 74 .cfa: $rsp 64 + $rdi: .cfa 16 - ^ $rbx: .cfa 0 - ^ .ra: .cfa 8 - ^
STACK CFI INIT 7dafc 132 .cfa: $rsp 128 + $rbp: .cfa 16 - ^ $rdi: .cfa 24 - ^ $r12: .cfa 32 - ^ $r14: .cfa 40 - ^ $r15: .cfa 48 - ^ $rbx: .cfa 0 - ^ $rsi: .cfa 0 - ^ .ra: .cfa 8 - ^
STACK CFI INIT 7dc40 b1 .cfa: $rsp 48 + $r14: .cfa 16 - ^ $rbx: .cfa 0 - ^ $rbp: .cfa 0 - ^ $rsi: .cfa 0 - ^ $rdi: .cfa 0 - ^ .ra: .cfa 8 - ^
STACK CFI INIT 7dd00 62 .cfa: $rsp 112 + $rbx: .cfa 16 - ^ .ra: .cfa 8 - ^
STACK CFI INIT 7dd68 6e .cfa: $rsp 240 + $rdi: .cfa 16 - ^ $rbx: .cfa 0 - ^ .ra: .cfa 8 - ^
STACK CFI INIT 7dde0 37 .cfa: $rsp 64 + $rbx: .cfa 16 - ^ .ra: .cfa 8 - ^
STACK CFI INIT 7de20 69 .cfa: $rsp 96 + .ra: .cfa 8 - ^
STACK CFI INIT 7de90 24 .cfa: $rsp 48 + .ra: .cfa 8 - ^
STACK CFI INIT 7dee4 2a .cfa: $rsp 48 + .ra: .cfa 8 - ^
STACK CFI INIT 7df18 1a0 .cfa: $rsp 96 + $rdi: .cfa 16 - ^ $r12: .cfa 24 - ^ $r13: .cfa 32 - ^ $r14: .cfa 40 - ^ $r15: .cfa 48 - ^ $rbx: .cfa 0 - ^ $rbp: .cfa 0 - ^ $rsi: .cfa 0 - ^ .ra: .cfa 8 - ^
STACK CFI INIT 7e0c0 1a6 .cfa: $rsp 112 + $rsi: .cfa 16 - ^ $rdi: .cfa 24 - ^ $r14: .cfa 32 - ^ $rbx: .cfa 0 - ^ $rbp: .cfa 0 - ^ .ra: .cfa 8 - ^
STACK CFI INIT 7e270 59 .cfa: $rsp 48 + $rdi: .cfa 16 - ^ $rbx: .cfa 0 - ^ $rsi: .cfa 0 - ^ .ra: .cfa 8 - ^
STACK CFI INIT 7e2d0 96 .cfa: $rsp 48 + $r14: .cfa 16 - ^ $rbx: .cfa 0 - ^ $rbp: .cfa 0 - ^ $rsi: .cfa 0 - ^ $rdi: .cfa 0 - ^ .ra: .cfa 8 - ^
STACK CFI INIT 7e380 5d .cfa: $rsp 48 + $rdi: .cfa 16 - ^ $rbx: .cfa 0 - ^ $rsi: .cfa 0 - ^ .ra: .cfa 8 - ^
STACK CFI INIT 7e440 9f .cfa: $rsp 48 + $rdi: .cfa 16 - ^ $rbx: .cfa 0 - ^ $rbp: .cfa 0 - ^ $rsi: .cfa 0 - ^ .ra: .cfa 8 - ^
STACK CFI INIT 7e4e8 52 .cfa: $rsp 48 + $rdi: .cfa 16 - ^ $rbx: .cfa 0 - ^ .ra: .cfa 8 - ^
STACK CFI INIT 7e540 74 .cfa: $rsp 80 + $rdi: .cfa 16 - ^ $rbx: .cfa 0 - ^ .ra: .cfa 8 - ^
STACK CFI INIT 7e5bc 4c .cfa: $rsp 48 + $rdi: .cfa 16 - ^ $rbx: .cfa 0 - ^ .ra: .cfa 8 - ^
STACK CFI INIT 7e610 15f .cfa: $rsp 112 + $rbp: .cfa 16 - ^ $r14: .cfa 24 - ^ $r15: .cfa 32 - ^ $rbx: .cfa 0 - ^ $rsi: .cfa 0 - ^ $rdi: .cfa 0 - ^ $r12: .cfa 0 - ^ .ra: .cfa 8 - ^
STACK CFI INIT 7e778 48 .cfa: $rsp 48 + .ra: .cfa 8 - ^
STACK CFI INIT 7e7d0 38 .cfa: $rsp 48 + $rdi: .cfa 16 - ^ $rbx: .cfa 0 - ^ .ra: .cfa 8 - ^
STACK CFI INIT 7e810 1ee .cfa: $rsp 176 + $rbx: .cfa 16 - ^ $rsi: .cfa 24 - ^ $rdi: .cfa 32 - ^ $r12: .cfa 40 - ^ $r13: .cfa 48 - ^ $r14: .cfa 56 - ^ $r15: .cfa 64 - ^ .ra: .cfa 8 - ^
STACK CFI INIT 7ea04 1c3 .cfa: $rsp 176 + $rbp: .cfa 16 - ^ $rdi: .cfa 24 - ^ $r12: .cfa 32 - ^ $r14: .cfa 40 - ^ $r15: .cfa 48 - ^ $rbx: .cfa 0 - ^ $rsi: .cfa 0 - ^ .ra: .cfa 8 - ^
STACK CFI INIT 7ebd0 25d .cfa: $rsp 240 + $rbp: .cfa 16 - ^ $rsi: .cfa 24 - ^ $rdi: .cfa 32 - ^ $r14: .cfa 40 - ^ $r15: .cfa 48 - ^ $rbx: .cfa 0 - ^ .ra: .cfa 8 - ^
STACK CFI INIT 7ee34 13f .cfa: $rsp 112 + $rdi: .cfa 16 - ^ $r14: .cfa 24 - ^ $r15: .cfa 32 - ^ $rbx: .cfa 0 - ^ $rsi: .cfa 0 - ^ .ra: .cfa 8 - ^
STACK CFI INIT 7ef9c 159 .cfa: $rsp 720 + $rbp: .cfa 16 - ^ $rdi: .cfa 24 - ^ $r14: .cfa 32 - ^ $rbx: .cfa 0 - ^ $rsi: .cfa 0 - ^ .ra: .cfa 8 - ^
STACK CFI INIT 7f0fc 1d8 .cfa: $rsp 192 + $rbp: .cfa 16 - ^ $rsi: .cfa 24 - ^ $rdi: .cfa 32 - ^ $r12: .cfa 40 - ^ $r13: .cfa 48 - ^ $r14: .cfa 56 - ^ $r15: .cfa 64 - ^ $rbx: .cfa 0 - ^ .ra: .cfa 8 - ^
STACK CFI INIT 7f2dc 89 .cfa: $rsp 48 + $rdi: .cfa 16 - ^ $rbx: .cfa 0 - ^ $rbp: .cfa 0 - ^ $rsi: .cfa 0 - ^ .ra: .cfa 8 - ^
STACK CFI INIT 7f36c b5 .cfa: $rsp 96 + $rdi: .cfa 16 - ^ $r14: .cfa 24 - ^ $r15: .cfa 32 - ^ $rbx: .cfa 0 - ^ $rbp: .cfa 0 - ^ $rsi: .cfa 0 - ^ .ra: .cfa 8 - ^
STACK CFI INIT 7f428 378 .cfa: $rsp 160 + $rbp: .cfa 16 - ^ $rbx: .cfa 24 - ^ .ra: .cfa 8 - ^
STACK CFI INIT 7f7b0 20 .cfa: $rsp 64 + .ra: .cfa 8 - ^
STACK CFI INIT 7f7e0 207 .cfa: $rsp 80 + $r13: .cfa 16 - ^ $r14: .cfa 24 - ^ $r15: .cfa 32 - ^ $rbx: .cfa 0 - ^ $rbp: .cfa 0 - ^ $rsi: .cfa 0 - ^ $rdi: .cfa 0 - ^ .ra: .cfa 8 - ^
STACK CFI INIT 7fa30 20b .cfa: $rsp 128 + $rbx: .cfa 16 - ^ $rsi: .cfa 24 - ^ $rdi: .cfa 32 - ^ $r14: .cfa 40 - ^ $r15: .cfa 48 - ^ .ra: .cfa 8 - ^
STACK CFI INIT 7fc44 109 .cfa: $rsp 48 + $rbx: .cfa 16 - ^ .ra: .cfa 8 - ^
STACK CFI INIT 7fd54 30 .cfa: $rsp 48 + $rbx: .cfa 16 - ^ .ra: .cfa 8 - ^
STACK CFI INIT 7fd90 83 .cfa: $rsp 48 + $rdi: .cfa 16 - ^ $rbx: .cfa 0 - ^ $rsi: .cfa 0 - ^ .ra: .cfa 8 - ^
STACK CFI INIT 7fe1c 5e .cfa: $rsp 48 + $rdi: .cfa 16 - ^ $rbx: .cfa 0 - ^ .ra: .cfa 8 - ^
STACK CFI INIT 7fe80 5e .cfa: $rsp 144 + $rbp: .cfa 16 - ^ $rsi: .cfa 24 - ^ $rdi: .cfa 32 - ^ $rbx: .cfa 0 - ^ .ra: .cfa 8 - ^
STACK CFI INIT 7fef0 a4 .cfa: $rsp 48 + $rdi: .cfa 16 - ^ $rbx: .cfa 0 - ^ .ra: .cfa 8 - ^
STACK CFI INIT 7ffd4 43 .cfa: $rsp 48 + .ra: .cfa 8 - ^
STACK CFI INIT 80020 b9 .cfa: $rsp 64 + $rdi: .cfa 16 - ^ $r14: .cfa 24 - ^ $r15: .cfa 32 - ^ $rbx: .cfa 0 - ^ $rbp: .cfa 0 - ^ $rsi: .cfa 0 - ^ .ra: .cfa 8 - ^
STACK CFI INIT 800e0 61 .cfa: $rsp 80 + $rdi: .cfa 16 - ^ $rbx: .cfa 0 - ^ .ra: .cfa 8 - ^
STACK CFI INIT 80148 47 .cfa: $rsp 48 + .ra: .cfa 8 - ^
STACK CFI INIT 80210 5d .cfa: $rsp 112 + $rdi: .cfa 16 - ^ $rbx: .cfa 0 - ^ .ra: .cfa 8 - ^
STACK CFI INIT 80280 c2 .cfa: $rsp 224 + $rbp: .cfa 16 - ^ $rbx: .cfa 24 - ^ $rsi: .cfa 32 - ^ $rdi: .cfa 40 - ^ $r12: .cfa 48 - ^ $r14: .cfa 56 - ^ $r15: .cfa 64 - ^ .ra: .cfa 8 - ^
STACK CFI INIT 80350 2e .cfa: $rsp 48 + $rbx: .cfa 16 - ^ .ra: .cfa 8 - ^
STACK CFI INIT 80390 226 .cfa: $rsp 464 + $rbp: .cfa 16 - ^ $rsi: .cfa 24 - ^ $rdi: .cfa 32 - ^ $r12: .cfa 40 - ^ $r13: .cfa 48 - ^ $r14: .cfa 56 - ^ $r15: .cfa 64 - ^ $rbx: .cfa 0 - ^ .ra: .cfa 8 - ^
STACK CFI INIT 805bc ef .cfa: $rsp 80 + $rsi: .cfa 16 - ^ $r14: .cfa 24 - ^ $r15: .cfa 32 - ^ $rbx: .cfa 0 - ^ $rbp: .cfa 0 - ^ .ra: .cfa 8 - ^
STACK CFI INIT 806b4 176 .cfa: $rsp 656 + $rbp: .cfa 16 - ^ $rbx: .cfa 24 - ^ $rsi: .cfa 32 - ^ $rdi: .cfa 40 - ^ $r14: .cfa 48 - ^ .ra: .cfa 8 - ^
STACK CFI INIT 80830 31b .cfa: $rsp 224 + $rbx: .cfa 16 - ^ $rsi: .cfa 24 - ^ $rdi: .cfa 32 - ^ $r12: .cfa 40 - ^ $r13: .cfa 48 - ^ $r14: .cfa 56 - ^ $r15: .cfa 64 - ^ .ra: .cfa 8 - ^
STACK CFI INIT 80b80 10a .cfa: $rsp 432 + $rsi: .cfa 16 - ^ $rdi: .cfa 24 - ^ $r14: .cfa 32 - ^ $rbx: .cfa 0 - ^ $rbp: .cfa 0 - ^ .ra: .cfa 8 - ^
STACK CFI INIT 80c90 6c .cfa: $rsp 80 + $rsi: .cfa 16 - ^ $rdi: .cfa 24 - ^ $r14: .cfa 32 - ^ $rbx: .cfa 0 - ^ $rbp: .cfa 0 - ^ .ra: .cfa 8 - ^
STACK CFI INIT 80d10 3f .cfa: $rsp 64 + $rdi: .cfa 16 - ^ $rbx: .cfa 0 - ^ .ra: .cfa 8 - ^
STACK CFI INIT 80d60 5b .cfa: $rsp 96 + $rdi: .cfa 16 - ^ $rbx: .cfa 0 - ^ $rsi: .cfa 0 - ^ .ra: .cfa 8 - ^
STACK CFI INIT 80dd0 a5 .cfa: $rsp 80 + $rsi: .cfa 16 - ^ $rdi: .cfa 24 - ^ $r14: .cfa 32 - ^ $rbx: .cfa 0 - ^ .ra: .cfa 8 - ^
STACK CFI INIT 80ea4 8e .cfa: $rsp 64 + $rdi: .cfa 16 - ^ $rbx: .cfa 0 - ^ .ra: .cfa 8 - ^
STACK CFI INIT 80f40 32 .cfa: $rsp 48 + $rbx: .cfa 16 - ^ .ra: .cfa 8 - ^
STACK CFI INIT 80f78 1b9 .cfa: $rsp 240 + $rbp: .cfa 16 - ^ $r12: .cfa 24 - ^ $r13: .cfa 32 - ^ $r14: .cfa 40 - ^ $r15: .cfa 48 - ^ $rbx: .cfa 0 - ^ $rsi: .cfa 0 - ^ $rdi: .cfa 0 - ^ .ra: .cfa 8 - ^
STACK CFI INIT 81180 266 .cfa: $rsp 160 + $rbp: .cfa 16 - ^ $rsi: .cfa 24 - ^ $r14: .cfa 32 - ^ $rbx: .cfa 0 - ^ .ra: .cfa 8 - ^
STACK CFI INIT 813ec fe .cfa: $rsp 240 + $rbp: .cfa 16 - ^ $rbx: .cfa 0 - ^ .ra: .cfa 8 - ^
STACK CFI INIT 814f0 93 .cfa: $rsp 80 + $rsi: .cfa 16 - ^ $rdi: .cfa 24 - ^ $r14: .cfa 32 - ^ $rbx: .cfa 0 - ^ $rbp: .cfa 0 - ^ .ra: .cfa 8 - ^
STACK CFI INIT 815e0 93 .cfa: $rsp 96 + $rsi: .cfa 16 - ^ $rdi: .cfa 24 - ^ $r14: .cfa 32 - ^ $rbx: .cfa 0 - ^ $rbp: .cfa 0 - ^ .ra: .cfa 8 - ^
STACK CFI INIT 81690 b .cfa: $rsp 8 + .ra: .cfa 8 - ^
STACK CFI INIT 816b0 3b .cfa: $rsp 8 + .ra: .cfa 8 - ^
STACK CFI INIT 81700 2a .cfa: $rsp 48 + .ra: .cfa 8 - ^
STACK CFI INIT 81730 253 .cfa: $rsp 64 + $rdi: .cfa 16 - ^ $r12: .cfa 24 - ^ $r14: .cfa 32 - ^ $rbx: .cfa 0 - ^ $rbp: .cfa 0 - ^ $rsi: .cfa 0 - ^ .ra: .cfa 8 - ^
STACK CFI INIT 81990 70 .cfa: $rsp 48 + $rdi: .cfa 16 - ^ .ra: .cfa 8 - ^
STACK CFI INIT 81a50 bf .cfa: $rsp 1360 + $rbx: .cfa 16 - ^ .ra: .cfa 8 - ^
STACK CFI INIT 81b44 1b .cfa: $rsp 48 + .ra: .cfa 8 - ^
STACK CFI INIT 81b70 148 .cfa: $rsp 144 + .ra: .cfa 8 - ^
STACK CFI INIT 81cc0 10 .cfa: $rsp 48 + .ra: .cfa 8 - ^
STACK CFI INIT 81cd8 85 .cfa: $rsp 48 + .ra: .cfa 8 - ^
STACK CFI INIT 81d90 1b4 .cfa: $rsp 112 + $rdi: .cfa 16 - ^ $r12: .cfa 24 - ^ $r13: .cfa 32 - ^ $r14: .cfa 40 - ^ $r15: .cfa 48 - ^ $rbx: .cfa 0 - ^ $rbp: .cfa 0 - ^ $rsi: .cfa 0 - ^ .ra: .cfa 8 - ^
STACK CFI INIT 81f70 47 .cfa: $rsp 48 + $rdi: .cfa 16 - ^ $rbx: .cfa 0 - ^ .ra: .cfa 8 - ^
STACK CFI INIT 81fc0 3d .cfa: $rsp 48 + $rbx: .cfa 16 - ^ .ra: .cfa 8 - ^
STACK CFI INIT 82250 1f .cfa: $rsp 48 + .ra: .cfa 8 - ^
STACK CFI INIT 822a0 2b .cfa: $rsp 48 + $rbx: .cfa 16 - ^ .ra: .cfa 8 - ^
STACK CFI INIT 822e0 2a .cfa: $rsp 48 + $rbx: .cfa 16 - ^ .ra: .cfa 8 - ^
STACK CFI INIT 82310 28 .cfa: $rsp 48 + $rbx: .cfa 16 - ^ .ra: .cfa 8 - ^
STACK CFI INIT 823a0 1a .cfa: $rsp 48 + $rbx: .cfa 16 - ^ .ra: .cfa 8 - ^
STACK CFI INIT 82480 2b .cfa: $rsp 48 + $rbx: .cfa 16 - ^ .ra: .cfa 8 - ^
STACK CFI INIT 824c0 2a .cfa: $rsp 48 + $rbx: .cfa 16 - ^ .ra: .cfa 8 - ^
STACK CFI INIT 824f0 28 .cfa: $rsp 48 + $rbx: .cfa 16 - ^ .ra: .cfa 8 - ^
STACK CFI INIT 82520 1a .cfa: $rsp 48 + $rbx: .cfa 16 - ^ .ra: .cfa 8 - ^
STACK CFI INIT 82540 1a .cfa: $rsp 48 + $rbx: .cfa 16 - ^ .ra: .cfa 8 - ^
STACK CFI INIT 82560 74 .cfa: $rsp 8 + $rbx: .cfa 0 - ^ .ra: .cfa 8 - ^
STACK CFI INIT 825e0 6e .cfa: $rsp 8 + $rbx: .cfa 0 - ^ .ra: .cfa 8 - ^
STACK CFI INIT 82660 a5 .cfa: $rsp 64 + $r15: .cfa 16 - ^ $rbx: .cfa 0 - ^ $rbp: .cfa 0 - ^ $rdi: .cfa 0 - ^ $r14: .cfa 0 - ^ .ra: .cfa 8 - ^
STACK CFI INIT 82720 24 .cfa: $rsp 1248 + .ra: .cfa 8 - ^
STACK CFI INIT 82800 a4 .cfa: $rsp 128 + $rbx: .cfa 16 - ^ $rdi: .cfa 24 - ^ .ra: .cfa 8 - ^
STACK CFI INIT 828b0 ce .cfa: $rsp 128 + $rbp: .cfa 16 - ^ $rbx: .cfa 24 - ^ $rdi: .cfa 32 - ^ .ra: .cfa 8 - ^
STACK CFI INIT 82990 88 .cfa: $rsp 96 + $rdi: .cfa 16 - ^ $rbx: .cfa 0 - ^ $rsi: .cfa 0 - ^ .ra: .cfa 8 - ^
STACK CFI INIT 82a20 277 .cfa: $rsp 112 + $rbp: .cfa 16 - ^ $rsi: .cfa 24 - ^ $rdi: .cfa 32 - ^ $r12: .cfa 40 - ^ $r13: .cfa 48 - ^ $r14: .cfa 56 - ^ $r15: .cfa 64 - ^ $rbx: .cfa 0 - ^ .ra: .cfa 8 - ^
STACK CFI INIT 82d20 63 .cfa: $rsp 64 + $rdi: .cfa 16 - ^ $rbx: .cfa 0 - ^ .ra: .cfa 8 - ^
STACK CFI INIT 82df0 42 .cfa: $rsp 64 + .ra: .cfa 8 - ^
STACK CFI INIT 82e40 63 .cfa: $rsp 64 + $rdi: .cfa 16 - ^ $rbx: .cfa 0 - ^ .ra: .cfa 8 - ^
STACK CFI INIT 82eb0 b2 .cfa: $rsp 128 + $rbp: .cfa 16 - ^ $rbx: .cfa 24 - ^ .ra: .cfa 8 - ^
STACK CFI INIT 82f8c 83 .cfa: $rsp 112 + $rdi: .cfa 16 - ^ $rbx: .cfa 0 - ^ $rbp: .cfa 0 - ^ $rsi: .cfa 0 - ^ .ra: .cfa 8 - ^
STACK CFI INIT 83034 9c .cfa: $rsp 112 + $rbp: .cfa 16 - ^ $rbx: .cfa 0 - ^ .ra: .cfa 8 - ^
STACK CFI INIT 830e0 16 .cfa: $rsp 64 + .ra: .cfa 8 - ^
STACK CFI INIT 830fc a5 .cfa: $rsp 112 + $rdi: .cfa 16 - ^ $rbx: .cfa 0 - ^ .ra: .cfa 8 - ^
STACK CFI INIT 831b0 16 .cfa: $rsp 64 + .ra: .cfa 8 - ^
STACK CFI INIT 831cc d7 .cfa: $rsp 112 + $rbp: .cfa 16 - ^ $rbx: .cfa 0 - ^ $rdi: .cfa 0 - ^ .ra: .cfa 8 - ^
STACK CFI INIT 83300 49 .cfa: $rsp 64 + .ra: .cfa 8 - ^
STACK CFI INIT 83350 74 .cfa: $rsp 64 + $rdi: .cfa 16 - ^ $rbx: .cfa 0 - ^ $rsi: .cfa 0 - ^ .ra: .cfa 8 - ^
STACK CFI INIT 83430 85 .cfa: $rsp 64 + .ra: .cfa 8 - ^
STACK CFI INIT 834c0 55 .cfa: $rsp 64 + .ra: .cfa 8 - ^
STACK CFI INIT 83520 24c .cfa: $rsp 112 + $rbp: .cfa 16 - ^ $rsi: .cfa 24 - ^ $rdi: .cfa 32 - ^ $r12: .cfa 40 - ^ $r13: .cfa 48 - ^ $r14: .cfa 56 - ^ $r15: .cfa 64 - ^ $rbx: .cfa 0 - ^ .ra: .cfa 8 - ^
STACK CFI INIT 83780 23 .cfa: $rsp 64 + .ra: .cfa 8 - ^
STACK CFI INIT 837b0 26 .cfa: $rsp 64 + .ra: .cfa 8 - ^
STACK CFI INIT 83820 74 .cfa: $rsp 64 + $rdi: .cfa 16 - ^ $rbx: .cfa 0 - ^ $rsi: .cfa 0 - ^ .ra: .cfa 8 - ^
STACK CFI INIT 838a0 1f .cfa: $rsp 48 + .ra: .cfa 8 - ^
STACK CFI INIT 83910 25d .cfa: $rsp 112 + .ra: .cfa 8 - ^
STACK CFI INIT 83b80 ff .cfa: $rsp 80 + $r13: .cfa 16 - ^ $r14: .cfa 24 - ^ $r15: .cfa 32 - ^ $rbx: .cfa 0 - ^ $rbp: .cfa 0 - ^ $rsi: .cfa 0 - ^ $rdi: .cfa 0 - ^ .ra: .cfa 8 - ^
STACK CFI INIT 83c90 111 .cfa: $rsp 96 + .ra: .cfa 8 - ^
STACK CFI INIT 83db0 40e .cfa: $rsp 128 + .ra: .cfa 8 - ^
STACK CFI INIT 841d0 43b .cfa: $rsp 160 + $rbx: .cfa 16 - ^ .ra: .cfa 8 - ^
STACK CFI INIT 846c0 e0 .cfa: $rsp 80 + $rdi: .cfa 16 - ^ $rbx: .cfa 0 - ^ .ra: .cfa 8 - ^
STACK CFI INIT 847b0 ff .cfa: $rsp 96 + .ra: .cfa 8 - ^
STACK CFI INIT 849f0 2e7 .cfa: $rsp 96 + .ra: .cfa 8 - ^
STACK CFI INIT 84ce0 28 .cfa: $rsp 48 + $rdi: .cfa 16 - ^ $rbx: .cfa 0 - ^ .ra: .cfa 8 - ^
STACK CFI INIT 84d10 c0 .cfa: $rsp 64 + $rdi: .cfa 16 - ^ $rbx: .cfa 0 - ^ $rbp: .cfa 0 - ^ $rsi: .cfa 0 - ^ .ra: .cfa 8 - ^
STACK CFI INIT 84e10 c7 .cfa: $rsp 8 + .ra: .cfa 8 - ^
STACK CFI INIT 84ef0 63 .cfa: $rsp 1088 + $rbp: .cfa 16 - ^ $r12: .cfa 24 - ^ $r13: .cfa 32 - ^ $r14: .cfa 40 - ^ $r15: .cfa 48 - ^ .ra: .cfa 8 - ^
STACK CFI INIT 84f53 267 .cfa: $rsp 1088 + $rbx: .cfa 0 - ^ $rsi: .cfa 0 - ^ $rdi: .cfa 0 - ^ $rbp: .cfa 16 - ^ $r12: .cfa 24 - ^ $r13: .cfa 32 - ^ $r14: .cfa 40 - ^ $r15: .cfa 48 - ^ .ra: .cfa 8 - ^
STACK CFI INIT 851ba 11 .cfa: $rsp 1088 + $rbp: .cfa 16 - ^ $r12: .cfa 24 - ^ $r13: .cfa 32 - ^ $r14: .cfa 40 - ^ $r15: .cfa 48 - ^ .ra: .cfa 8 - ^
STACK CFI INIT 851e0 17 .cfa: $rsp 64 + $rdi: .cfa 16 - ^ $r14: .cfa 24 - ^ $r15: .cfa 32 - ^ $rbp: .cfa 0 - ^ .ra: .cfa 8 - ^
STACK CFI INIT 851f7 b5 .cfa: $rsp 64 + $rbx: .cfa 0 - ^ $rsi: .cfa 0 - ^ $r12: .cfa 0 - ^ $rdi: .cfa 16 - ^ $r14: .cfa 24 - ^ $r15: .cfa 32 - ^ $rbp: .cfa 0 - ^ .ra: .cfa 8 - ^
STACK CFI INIT 852ac 1 .cfa: $rsp 64 + $rdi: .cfa 16 - ^ $r14: .cfa 24 - ^ $r15: .cfa 32 - ^ $rbp: .cfa 0 - ^ .ra: .cfa 8 - ^
STACK CFI INIT 852c0 60 .cfa: $rsp 1088 + $rbp: .cfa 16 - ^ $r12: .cfa 24 - ^ $r13: .cfa 32 - ^ $r14: .cfa 40 - ^ .ra: .cfa 8 - ^
STACK CFI INIT 85320 2dd .cfa: $rsp 1088 + $rbx: .cfa 0 - ^ $rsi: .cfa 0 - ^ $rdi: .cfa 0 - ^ $r15: .cfa 0 - ^ $rbp: .cfa 16 - ^ $r12: .cfa 24 - ^ $r13: .cfa 32 - ^ $r14: .cfa 40 - ^ .ra: .cfa 8 - ^
STACK CFI INIT 855fd f .cfa: $rsp 1088 + $rbp: .cfa 16 - ^ $r12: .cfa 24 - ^ $r13: .cfa 32 - ^ $r14: .cfa 40 - ^ .ra: .cfa 8 - ^
STACK CFI INIT 85620 13 .cfa: $rsp 80 + $rbp: .cfa 16 - ^ $rdi: .cfa 24 - ^ $r14: .cfa 32 - ^ $r15: .cfa 40 - ^ .ra: .cfa 8 - ^
STACK CFI INIT 85633 ba .cfa: $rsp 80 + $rbx: .cfa 0 - ^ $rsi: .cfa 0 - ^ $r12: .cfa 0 - ^ $r13: .cfa 0 - ^ $rbp: .cfa 16 - ^ $rdi: .cfa 24 - ^ $r14: .cfa 32 - ^ $r15: .cfa 40 - ^ .ra: .cfa 8 - ^
STACK CFI INIT 856ed 1 .cfa: $rsp 80 + $rbp: .cfa 16 - ^ $rdi: .cfa 24 - ^ $r14: .cfa 32 - ^ $r15: .cfa 40 - ^ .ra: .cfa 8 - ^
STACK CFI INIT 85700 95 .cfa: $rsp 112 + $rbx: .cfa 16 - ^ .ra: .cfa 8 - ^
STACK CFI INIT 857a0 100 .cfa: $rsp 96 + .ra: .cfa 8 - ^
STACK CFI INIT 858b0 35 .cfa: $rsp 64 + .ra: .cfa 8 - ^
STACK CFI INIT 858ec 99 .cfa: $rsp 112 + $rdi: .cfa 16 - ^ $rbx: .cfa 0 - ^ $rsi: .cfa 0 - ^ .ra: .cfa 8 - ^
STACK CFI INIT 859a0 90 .cfa: $rsp 8 + .ra: .cfa 8 - ^
STACK CFI INIT 85a40 b7 .cfa: $rsp 8 + .ra: .cfa 8 - ^
STACK CFI INIT 85b30 b0 .cfa: $rsp 8 + .ra: .cfa 8 - ^
STACK CFI INIT 85bf0 a0 .cfa: $rsp 96 + .ra: .cfa 8 - ^
STACK CFI INIT 85ca0 a8 .cfa: $rsp 8 + .ra: .cfa 8 - ^
STACK CFI INIT 85d60 195 .cfa: $rsp 8 + .ra: .cfa 8 - ^
STACK CFI INIT 85f10 b5 .cfa: $rsp 8 + .ra: .cfa 8 - ^
STACK CFI INIT 85fe0 162 .cfa: $rsp 8 + .ra: .cfa 8 - ^
STACK CFI INIT 86170 a1 .cfa: $rsp 96 + .ra: .cfa 8 - ^
STACK CFI INIT 86250 c6 .cfa: $rsp 96 + .ra: .cfa 8 - ^
STACK CFI INIT 86380 239 .cfa: $rsp 128 + $rbp: .cfa 16 - ^ $rsi: .cfa 24 - ^ $rdi: .cfa 32 - ^ $r12: .cfa 40 - ^ $r13: .cfa 48 - ^ $r14: .cfa 56 - ^ $r15: .cfa 64 - ^ $rbx: .cfa 0 - ^ .ra: .cfa 8 - ^
STACK CFI INIT 865c0 28 .cfa: $rsp 64 + .ra: .cfa 8 - ^
STACK CFI INIT 865f0 28 .cfa: $rsp 64 + .ra: .cfa 8 - ^
STACK CFI INIT 86620 2b .cfa: $rsp 64 + .ra: .cfa 8 - ^
STACK CFI INIT 86660 2ca .cfa: $rsp 112 + $rbx: .cfa 16 - ^ .ra: .cfa 8 - ^
STACK CFI INIT 86930 1cd .cfa: $rsp 32 + .ra: .cfa 8 - ^
STACK CFI INIT 86b10 2e .cfa: $rsp 48 + $rbx: .cfa 16 - ^ .ra: .cfa 8 - ^
STACK CFI INIT 86b50 5d .cfa: $rsp 80 + $rbp: .cfa 16 - ^ .ra: .cfa 8 - ^
STACK CFI INIT 86bc0 24 .cfa: $rsp 48 + $rbx: .cfa 16 - ^ .ra: .cfa 8 - ^
STACK CFI INIT 86bfc 74 .cfa: $rsp 112 + $rbx: .cfa 16 - ^ .ra: .cfa 8 - ^
STACK CFI INIT 86e80 46 .cfa: $rsp 8 + $rdi: .cfa 0 - ^ .ra: .cfa 8 - ^
STACK CFI INIT 87050 206 .cfa: $rsp 112 + $rbp: .cfa 16 - ^ $rsi: .cfa 24 - ^ $rdi: .cfa 32 - ^ $r12: .cfa 40 - ^ $r13: .cfa 48 - ^ $r14: .cfa 56 - ^ $r15: .cfa 64 - ^ $rbx: .cfa 0 - ^ .ra: .cfa 8 - ^
STACK CFI INIT 87260 28 .cfa: $rsp 64 + .ra: .cfa 8 - ^
STACK CFI INIT 87290 28 .cfa: $rsp 64 + .ra: .cfa 8 - ^
STACK CFI INIT 872c0 2b .cfa: $rsp 64 + .ra: .cfa 8 - ^
STACK CFI INIT 87300 7d .cfa: $rsp 64 + $rdi: .cfa 16 - ^ .ra: .cfa 8 - ^
STACK CFI INIT 87384 1d .cfa: $rsp 48 + .ra: .cfa 8 - ^
STACK CFI INIT 873a8 63 .cfa: $rsp 48 + $rbx: .cfa 16 - ^ .ra: .cfa 8 - ^
STACK CFI INIT 87420 18 .cfa: $rsp 8 + .ra: .cfa 8 - ^
STACK CFI INIT 87440 1 .cfa: $rsp 8 + .ra: .cfa 8 - ^
STACK CFI INIT 87450 1 .cfa: $rsp 8 + .ra: .cfa 8 - ^
STACK CFI INIT 874f0 230 .cfa: $rsp 112 + $rbp: .cfa 16 - ^ $rsi: .cfa 24 - ^ $rdi: .cfa 32 - ^ $r12: .cfa 40 - ^ $r13: .cfa 48 - ^ $r14: .cfa 56 - ^ $r15: .cfa 64 - ^ $rbx: .cfa 0 - ^ .ra: .cfa 8 - ^
STACK CFI INIT 87730 23 .cfa: $rsp 64 + .ra: .cfa 8 - ^
STACK CFI INIT 87770 83d .cfa: $rsp 704 + $rbp: .cfa 16 - ^ $rsi: .cfa 24 - ^ $rdi: .cfa 32 - ^ $r12: .cfa 40 - ^ $r13: .cfa 48 - ^ $r14: .cfa 56 - ^ $r15: .cfa 64 - ^ $rbx: .cfa 0 - ^ .ra: .cfa 8 - ^
STACK CFI INIT 87fb4 46 .cfa: $rsp 48 + $rbx: .cfa 16 - ^ .ra: .cfa 8 - ^
STACK CFI INIT 88000 51 .cfa: $rsp 48 + $rdi: .cfa 16 - ^ $rbx: .cfa 0 - ^ $rbp: .cfa 0 - ^ $rsi: .cfa 0 - ^ .ra: .cfa 8 - ^
STACK CFI INIT 88058 80 .cfa: $rsp 48 + $r14: .cfa 16 - ^ $rbx: .cfa 0 - ^ $rsi: .cfa 0 - ^ $rdi: .cfa 0 - ^ .ra: .cfa 8 - ^
STACK CFI INIT 880e0 91c .cfa: $rsp 1232 + $rbp: .cfa 16 - ^ $rsi: .cfa 24 - ^ $rdi: .cfa 32 - ^ $r12: .cfa 40 - ^ $r13: .cfa 48 - ^ $r14: .cfa 56 - ^ $r15: .cfa 64 - ^ $rbx: .cfa 0 - ^ .ra: .cfa 8 - ^
STACK CFI INIT 88a04 49 .cfa: $rsp 48 + $rdi: .cfa 16 - ^ $rbx: .cfa 0 - ^ .ra: .cfa 8 - ^
STACK CFI INIT 88a54 51 .cfa: $rsp 48 + $rdi: .cfa 16 - ^ $rbx: .cfa 0 - ^ $rbp: .cfa 0 - ^ $rsi: .cfa 0 - ^ .ra: .cfa 8 - ^
STACK CFI INIT 88aac 85 .cfa: $rsp 48 + $r14: .cfa 16 - ^ $rbx: .cfa 0 - ^ $rsi: .cfa 0 - ^ $rdi: .cfa 0 - ^ .ra: .cfa 8 - ^
STACK CFI INIT 88cdc 290 .cfa: $rsp 64 + $r12: .cfa 16 - ^ $r14: .cfa 24 - ^ $r15: .cfa 32 - ^ $rbx: .cfa 0 - ^ $rsi: .cfa 0 - ^ $rdi: .cfa 0 - ^ .ra: .cfa 8 - ^
STACK CFI INIT 88f84 65 .cfa: $rsp 96 + $rbx: .cfa 16 - ^ .ra: .cfa 8 - ^
STACK CFI INIT 88ff0 b9 .cfa: $rsp 48 + $rdi: .cfa 16 - ^ $rbx: .cfa 0 - ^ $rsi: .cfa 0 - ^ .ra: .cfa 8 - ^
STACK CFI INIT 890b0 127 .cfa: $rsp 288 + $rbp: .cfa 16 - ^ $rbx: .cfa 24 - ^ $rsi: .cfa 32 - ^ $rdi: .cfa 40 - ^ $r14: .cfa 48 - ^ .ra: .cfa 8 - ^
STACK CFI INIT 891e0 4d6 .cfa: $rsp 4144 + $rbp: .cfa 16 - ^ $rsi: .cfa 24 - ^ $rdi: .cfa 32 - ^ $r12: .cfa 40 - ^ $r13: .cfa 48 - ^ $r14: .cfa 56 - ^ $r15: .cfa 64 - ^ $rbx: .cfa 0 - ^ .ra: .cfa 8 - ^
STACK CFI INIT 896c0 8b .cfa: $rsp 224 + .ra: .cfa 8 - ^
STACK CFI INIT 897a0 ef .cfa: $rsp 256 + $rbp: .cfa 16 - ^ $rsi: .cfa 24 - ^ $rdi: .cfa 32 - ^ $rbx: .cfa 0 - ^ .ra: .cfa 8 - ^
STACK CFI INIT 89898 262 .cfa: $rsp 112 + $rbp: .cfa 16 - ^ $rsi: .cfa 24 - ^ $rdi: .cfa 32 - ^ $r12: .cfa 40 - ^ $r13: .cfa 48 - ^ $r14: .cfa 56 - ^ $r15: .cfa 64 - ^ $rbx: .cfa 0 - ^ .ra: .cfa 8 - ^
STACK CFI INIT 89b00 5f .cfa: $rsp 80 + $rbx: .cfa 16 - ^ .ra: .cfa 8 - ^
STACK CFI INIT 89b68 27 .cfa: $rsp 80 + .ra: .cfa 8 - ^
STACK CFI INIT 89b98 270 .cfa: $rsp 64 + $rsi: .cfa 16 - ^ $rdi: .cfa 24 - ^ $r14: .cfa 32 - ^ $rbx: .cfa 0 - ^ $rbp: .cfa 0 - ^ .ra: .cfa 8 - ^
STACK CFI INIT 89e10 2e .cfa: $rsp 48 + .ra: .cfa 8 - ^
STACK CFI INIT 89e44 d4 .cfa: $rsp 96 + $rbx: .cfa 16 - ^ .ra: .cfa 8 - ^
STACK CFI INIT 8a0d8 1d .cfa: $rsp 48 + $rbx: .cfa 16 - ^ .ra: .cfa 8 - ^
STACK CFI INIT 8a0fc 7c .cfa: $rsp 48 + $rdi: .cfa 16 - ^ $rbx: .cfa 0 - ^ $rsi: .cfa 0 - ^ .ra: .cfa 8 - ^
STACK CFI INIT 8a180 1f .cfa: $rsp 48 + $rbx: .cfa 16 - ^ .ra: .cfa 8 - ^
STACK CFI INIT 8a1a8 11 .cfa: $rsp 48 + .ra: .cfa 8 - ^
STACK CFI INIT 8a1d0 2e .cfa: $rsp 48 + $rbx: .cfa 16 - ^ .ra: .cfa 8 - ^
STACK CFI INIT 8a210 fe .cfa: $rsp 112 + .ra: .cfa 8 - ^
STACK CFI INIT 8a314 1ba .cfa: $rsp 96 + $rbx: .cfa 16 - ^ $rsi: .cfa 24 - ^ $rdi: .cfa 32 - ^ $r12: .cfa 40 - ^ $r13: .cfa 48 - ^ $r14: .cfa 56 - ^ $r15: .cfa 64 - ^ .ra: .cfa 8 - ^
STACK CFI INIT 8a4d4 15b .cfa: $rsp 160 + $rsi: .cfa 16 - ^ $rdi: .cfa 24 - ^ $r12: .cfa 32 - ^ $r14: .cfa 40 - ^ $r15: .cfa 48 - ^ $rbx: .cfa 0 - ^ $rbp: .cfa 0 - ^ .ra: .cfa 8 - ^
STACK CFI INIT 8a638 25 .cfa: $rsp 48 + .ra: .cfa 8 - ^
STACK CFI INIT 8a670 8ff .cfa: $rsp 208 + $rbp: .cfa 16 - ^ $rsi: .cfa 24 - ^ $rdi: .cfa 32 - ^ $r12: .cfa 40 - ^ $r13: .cfa 48 - ^ $r14: .cfa 56 - ^ $r15: .cfa 64 - ^ $rbx: .cfa 0 - ^ .ra: .cfa 8 - ^
STACK CFI INIT 8afa0 b2 .cfa: $rsp 64 + $rbx: .cfa 16 - ^ .ra: .cfa 8 - ^
STACK CFI INIT 8b058 14 .cfa: $rsp 64 + .ra: .cfa 8 - ^
STACK CFI INIT 8b074 52 .cfa: $rsp 64 + .ra: .cfa 8 - ^
STACK CFI INIT 8b110 9c .cfa: $rsp 64 + $rdi: .cfa 16 - ^ $rbx: .cfa 0 - ^ .ra: .cfa 8 - ^
STACK CFI INIT 8b1f0 23 .cfa: $rsp 64 + .ra: .cfa 8 - ^
STACK CFI INIT 8b220 27 .cfa: $rsp 64 + .ra: .cfa 8 - ^
STACK CFI INIT 8b250 22 .cfa: $rsp 64 + .ra: .cfa 8 - ^
STACK CFI INIT 8b280 13 .cfa: $rsp 64 + .ra: .cfa 8 - ^
STACK CFI INIT 8b2a0 13 .cfa: $rsp 64 + .ra: .cfa 8 - ^
STACK CFI INIT 8b2c0 10b .cfa: $rsp 64 + $rdi: .cfa 16 - ^ $rbx: .cfa 0 - ^ $rsi: .cfa 0 - ^ .ra: .cfa 8 - ^
STACK CFI INIT 8b3e0 10a .cfa: $rsp 64 + $rdi: .cfa 16 - ^ $rbx: .cfa 0 - ^ $rsi: .cfa 0 - ^ .ra: .cfa 8 - ^
STACK CFI INIT 8b4f0 23 .cfa: $rsp 64 + .ra: .cfa 8 - ^
STACK CFI INIT 8b520 27 .cfa: $rsp 64 + .ra: .cfa 8 - ^
STACK CFI INIT 8b550 22 .cfa: $rsp 64 + .ra: .cfa 8 - ^
STACK CFI INIT 8b580 13 .cfa: $rsp 64 + .ra: .cfa 8 - ^
STACK CFI INIT 8b5a0 13 .cfa: $rsp 64 + .ra: .cfa 8 - ^
STACK CFI INIT 8b5c0 123 .cfa: $rsp 64 + $rdi: .cfa 16 - ^ $rbx: .cfa 0 - ^ $rbp: .cfa 0 - ^ $rsi: .cfa 0 - ^ .ra: .cfa 8 - ^
STACK CFI INIT 8b6f0 122 .cfa: $rsp 64 + $rdi: .cfa 16 - ^ $rbx: .cfa 0 - ^ $rbp: .cfa 0 - ^ $rsi: .cfa 0 - ^ .ra: .cfa 8 - ^
STACK CFI INIT 8b820 12b .cfa: $rsp 64 + $rbx: .cfa 16 - ^ .ra: .cfa 8 - ^
STACK CFI INIT 8b960 1d .cfa: $rsp 64 + .ra: .cfa 8 - ^
STACK CFI INIT 8b990 94 .cfa: $rsp 64 + $rdi: .cfa 16 - ^ $rbx: .cfa 0 - ^ .ra: .cfa 8 - ^
STACK CFI INIT 8ba30 38 .cfa: $rsp 64 + .ra: .cfa 8 - ^
STACK CFI INIT 8ba70 1d .cfa: $rsp 64 + .ra: .cfa 8 - ^
STACK CFI INIT 8baa0 9f .cfa: $rsp 64 + $rdi: .cfa 16 - ^ $rbx: .cfa 0 - ^ $rsi: .cfa 0 - ^ .ra: .cfa 8 - ^
STACK CFI INIT 8bb50 38 .cfa: $rsp 64 + .ra: .cfa 8 - ^
STACK CFI INIT 8bb90 28b .cfa: $rsp 112 + $rbp: .cfa 16 - ^ $rsi: .cfa 24 - ^ $rdi: .cfa 32 - ^ $r12: .cfa 40 - ^ $r13: .cfa 48 - ^ $r14: .cfa 56 - ^ $r15: .cfa 64 - ^ $rbx: .cfa 0 - ^ .ra: .cfa 8 - ^
STACK CFI INIT 8be30 7e .cfa: $rsp 64 + .ra: .cfa 8 - ^
STACK CFI INIT 8bec0 50 .cfa: $rsp 64 + .ra: .cfa 8 - ^
STACK CFI INIT 8bf20 15e .cfa: $rsp 64 + $rdi: .cfa 16 - ^ $rbx: .cfa 0 - ^ .ra: .cfa 8 - ^
STACK CFI INIT 8c090 2ac .cfa: $rsp 112 + $rbp: .cfa 16 - ^ $rsi: .cfa 24 - ^ $rdi: .cfa 32 - ^ $r12: .cfa 40 - ^ $r13: .cfa 48 - ^ $r14: .cfa 56 - ^ $r15: .cfa 64 - ^ $rbx: .cfa 0 - ^ .ra: .cfa 8 - ^
STACK CFI INIT 8c350 9b .cfa: $rsp 64 + $rdi: .cfa 16 - ^ $rbx: .cfa 0 - ^ $rsi: .cfa 0 - ^ .ra: .cfa 8 - ^
STACK CFI INIT 8c400 6c .cfa: $rsp 64 + $rbx: .cfa 16 - ^ .ra: .cfa 8 - ^
STACK CFI INIT 8c480 1d .cfa: $rsp 48 + .ra: .cfa 8 - ^
STACK CFI INIT 8c4b0 47 .cfa: $rsp 64 + $rbx: .cfa 16 - ^ .ra: .cfa 8 - ^
STACK CFI INIT 8c500 4b .cfa: $rsp 64 + .ra: .cfa 8 - ^
STACK CFI INIT 8c560 91 .cfa: $rsp 64 + $rbx: .cfa 16 - ^ .ra: .cfa 8 - ^
STACK CFI INIT 8c600 7d .cfa: $rsp 64 + $rbx: .cfa 16 - ^ .ra: .cfa 8 - ^
STACK CFI INIT 8c690 f0 .cfa: $rsp 64 + $rbx: .cfa 16 - ^ .ra: .cfa 8 - ^
STACK CFI INIT 8c790 e5 .cfa: $rsp 64 + $rbx: .cfa 16 - ^ .ra: .cfa 8 - ^
STACK CFI INIT 8c880 122 .cfa: $rsp 112 + $rdi: .cfa 16 - ^ $rbx: .cfa 0 - ^ .ra: .cfa 8 - ^
STACK CFI INIT 8c9b0 1d .cfa: $rsp 48 + .ra: .cfa 8 - ^
STACK CFI INIT 8c9e0 51 .cfa: $rsp 64 + $rdi: .cfa 16 - ^ $rbx: .cfa 0 - ^ .ra: .cfa 8 - ^
STACK CFI INIT 8ca40 4d .cfa: $rsp 64 + .ra: .cfa 8 - ^
STACK CFI INIT 8caa0 99 .cfa: $rsp 64 + $rbx: .cfa 16 - ^ .ra: .cfa 8 - ^
STACK CFI INIT 8cb40 82 .cfa: $rsp 64 + $rbx: .cfa 16 - ^ .ra: .cfa 8 - ^
STACK CFI INIT 8cbd0 106 .cfa: $rsp 64 + $rdi: .cfa 16 - ^ $rbx: .cfa 0 - ^ .ra: .cfa 8 - ^
STACK CFI INIT 8cce0 fb .cfa: $rsp 64 + $rdi: .cfa 16 - ^ $rbx: .cfa 0 - ^ .ra: .cfa 8 - ^
STACK CFI INIT 8cdf0 de .cfa: $rsp 64 + $rdi: .cfa 16 - ^ $rbx: .cfa 0 - ^ .ra: .cfa 8 - ^
STACK CFI INIT 8cee0 87b .cfa: $rsp 720 + $rbp: .cfa 16 - ^ $rsi: .cfa 24 - ^ $rdi: .cfa 32 - ^ $r12: .cfa 40 - ^ $r13: .cfa 48 - ^ $r14: .cfa 56 - ^ $r15: .cfa 64 - ^ $rbx: .cfa 0 - ^ .ra: .cfa 8 - ^
STACK CFI INIT 8d770 4f .cfa: $rsp 48 + $rdi: .cfa 16 - ^ $rbx: .cfa 0 - ^ .ra: .cfa 8 - ^
STACK CFI INIT 8d7d0 cf .cfa: $rsp 64 + $rdi: .cfa 16 - ^ $rbx: .cfa 0 - ^ $rsi: .cfa 0 - ^ .ra: .cfa 8 - ^
STACK CFI INIT 8d8b0 d4 .cfa: $rsp 112 + $rdi: .cfa 16 - ^ $rbx: .cfa 0 - ^ $rsi: .cfa 0 - ^ .ra: .cfa 8 - ^
STACK CFI INIT 8d990 47 .cfa: $rsp 48 + $rbx: .cfa 16 - ^ .ra: .cfa 8 - ^
STACK CFI INIT 8d9e0 51 .cfa: $rsp 48 + $rdi: .cfa 16 - ^ $rbx: .cfa 0 - ^ $rbp: .cfa 0 - ^ $rsi: .cfa 0 - ^ .ra: .cfa 8 - ^
STACK CFI INIT 8da40 6a .cfa: $rsp 48 + $r14: .cfa 16 - ^ $rbx: .cfa 0 - ^ $rsi: .cfa 0 - ^ $rdi: .cfa 0 - ^ .ra: .cfa 8 - ^
STACK CFI INIT 8dab0 1ab .cfa: $rsp 80 + $rsi: .cfa 16 - ^ $rdi: .cfa 24 - ^ $r12: .cfa 32 - ^ $r14: .cfa 40 - ^ $r15: .cfa 48 - ^ $rbx: .cfa 0 - ^ $rbp: .cfa 0 - ^ .ra: .cfa 8 - ^
STACK CFI INIT 8dc70 16e .cfa: $rsp 176 + $rsi: .cfa 16 - ^ $rdi: .cfa 24 - ^ $r12: .cfa 32 - ^ $r14: .cfa 40 - ^ $r15: .cfa 48 - ^ $rbx: .cfa 0 - ^ $rbp: .cfa 0 - ^ .ra: .cfa 8 - ^
STACK CFI INIT 8ddf0 25 .cfa: $rsp 48 + .ra: .cfa 8 - ^
STACK CFI INIT 8de20 8ce .cfa: $rsp 256 + $rbp: .cfa 16 - ^ $rbx: .cfa 24 - ^ $rsi: .cfa 32 - ^ $rdi: .cfa 40 - ^ $r12: .cfa 48 - ^ $r13: .cfa 56 - ^ $r14: .cfa 64 - ^ $r15: .cfa 72 - ^ .ra: .cfa 8 - ^
STACK CFI INIT 8e700 5e .cfa: $rsp 112 + .ra: .cfa 8 - ^
STACK CFI INIT 8e770 110 .cfa: $rsp 112 + $rbp: .cfa 16 - ^ $rbx: .cfa 0 - ^ $rsi: .cfa 0 - ^ $rdi: .cfa 0 - ^ $r14: .cfa 0 - ^ .ra: .cfa 8 - ^
STACK CFI INIT 8e890 8ba .cfa: $rsp 1232 + $rbp: .cfa 16 - ^ $rsi: .cfa 24 - ^ $rdi: .cfa 32 - ^ $r12: .cfa 40 - ^ $r13: .cfa 48 - ^ $r14: .cfa 56 - ^ $r15: .cfa 64 - ^ $rbx: .cfa 0 - ^ .ra: .cfa 8 - ^
STACK CFI INIT 8f1b0 4a .cfa: $rsp 48 + $rdi: .cfa 16 - ^ $rbx: .cfa 0 - ^ $rsi: .cfa 0 - ^ .ra: .cfa 8 - ^
STACK CFI INIT 8f200 62 .cfa: $rsp 48 + $rdi: .cfa 16 - ^ $rbx: .cfa 0 - ^ $rsi: .cfa 0 - ^ .ra: .cfa 8 - ^
STACK CFI INIT 8f270 236 .cfa: $rsp 96 + $rbp: .cfa 16 - ^ $rsi: .cfa 24 - ^ $rdi: .cfa 32 - ^ $r12: .cfa 40 - ^ $r13: .cfa 48 - ^ $r14: .cfa 56 - ^ $r15: .cfa 64 - ^ $rbx: .cfa 0 - ^ .ra: .cfa 8 - ^
STACK CFI INIT 8f4b0 1cf .cfa: $rsp 8368 + $rbp: .cfa 16 - ^ $rsi: .cfa 24 - ^ $rdi: .cfa 32 - ^ $r12: .cfa 40 - ^ $r13: .cfa 48 - ^ $r14: .cfa 56 - ^ $r15: .cfa 64 - ^ $rbx: .cfa 0 - ^ .ra: .cfa 8 - ^
STACK CFI INIT 8f6e0 63 .cfa: $rsp 112 + .ra: .cfa 8 - ^
STACK CFI INIT 8f750 50 .cfa: $rsp 48 + $rdi: .cfa 16 - ^ $rbx: .cfa 0 - ^ $rsi: .cfa 0 - ^ .ra: .cfa 8 - ^
STACK CFI INIT 8f7b0 9c3 .cfa: $rsp 256 + $rbp: .cfa 16 - ^ $rbx: .cfa 24 - ^ $rsi: .cfa 32 - ^ $rdi: .cfa 40 - ^ $r12: .cfa 48 - ^ $r13: .cfa 56 - ^ $r14: .cfa 64 - ^ $r15: .cfa 72 - ^ .ra: .cfa 8 - ^
STACK CFI INIT 90190 50 .cfa: $rsp 64 + .ra: .cfa 8 - ^
STACK CFI INIT 901f0 a2 .cfa: $rsp 64 + .ra: .cfa 8 - ^
STACK CFI INIT 90298 95 .cfa: $rsp 48 + $r14: .cfa 16 - ^ $rbx: .cfa 0 - ^ $rbp: .cfa 0 - ^ $rsi: .cfa 0 - ^ $rdi: .cfa 0 - ^ .ra: .cfa 8 - ^
STACK CFI INIT 90370 c .cfa: $rsp 8 + .ra: .cfa 8 - ^
STACK CFI INIT 90390 1b .cfa: $rsp 8 + .ra: .cfa 8 - ^
STACK CFI INIT 903c0 4 .cfa: $rsp 8 + .ra: .cfa 8 - ^
STACK CFI INIT 903d0 6 .cfa: $rsp 8 + .ra: .cfa 8 - ^
STACK CFI INIT 903e0 6 .cfa: $rsp 8 + .ra: .cfa 8 - ^
STACK CFI INIT 903f0 6 .cfa: $rsp 8 + .ra: .cfa 8 - ^
STACK CFI INIT 90400 6 .cfa: $rsp 8 + .ra: .cfa 8 - ^
STACK CFI INIT 90410 6 .cfa: $rsp 8 + .ra: .cfa 8 - ^
STACK CFI INIT 90420 6 .cfa: $rsp 8 + .ra: .cfa 8 - ^
STACK CFI INIT 90430 6 .cfa: $rsp 8 + .ra: .cfa 8 - ^
STACK CFI INIT 90440 6 .cfa: $rsp 8 + .ra: .cfa 8 - ^
STACK CFI INIT 90450 6 .cfa: $rsp 8 + .ra: .cfa 8 - ^
STACK CFI INIT 90460 6 .cfa: $rsp 8 + .ra: .cfa 8 - ^
STACK CFI INIT 90470 6 .cfa: $rsp 8 + .ra: .cfa 8 - ^
STACK CFI INIT 90480 6 .cfa: $rsp 8 + .ra: .cfa 8 - ^
STACK CFI INIT 90490 6 .cfa: $rsp 8 + .ra: .cfa 8 - ^
STACK CFI INIT 904a0 6 .cfa: $rsp 8 + .ra: .cfa 8 - ^
STACK CFI INIT 904b0 6 .cfa: $rsp 8 + .ra: .cfa 8 - ^
STACK CFI INIT 904c0 6 .cfa: $rsp 8 + .ra: .cfa 8 - ^
STACK CFI INIT 904d0 6 .cfa: $rsp 8 + .ra: .cfa 8 - ^
STACK CFI INIT 904e0 6 .cfa: $rsp 8 + .ra: .cfa 8 - ^
STACK CFI INIT 904f0 6 .cfa: $rsp 8 + .ra: .cfa 8 - ^
STACK CFI INIT 90500 6 .cfa: $rsp 8 + .ra: .cfa 8 - ^
STACK CFI INIT 90510 6 .cfa: $rsp 8 + .ra: .cfa 8 - ^
STACK CFI INIT 90520 6 .cfa: $rsp 8 + .ra: .cfa 8 - ^
STACK CFI INIT 90530 6 .cfa: $rsp 8 + .ra: .cfa 8 - ^
STACK CFI INIT 90540 6 .cfa: $rsp 8 + .ra: .cfa 8 - ^
STACK CFI INIT 90550 6 .cfa: $rsp 8 + .ra: .cfa 8 - ^
STACK CFI INIT 90560 6 .cfa: $rsp 8 + .ra: .cfa 8 - ^
STACK CFI INIT 90570 6 .cfa: $rsp 8 + .ra: .cfa 8 - ^
STACK CFI INIT 90580 6 .cfa: $rsp 8 + .ra: .cfa 8 - ^
STACK CFI INIT 90590 6 .cfa: $rsp 8 + .ra: .cfa 8 - ^
STACK CFI INIT 905a0 6 .cfa: $rsp 8 + .ra: .cfa 8 - ^
STACK CFI INIT 905b0 6 .cfa: $rsp 8 + .ra: .cfa 8 - ^
STACK CFI INIT 905c0 6 .cfa: $rsp 8 + .ra: .cfa 8 - ^
STACK CFI INIT 905d0 6 .cfa: $rsp 8 + .ra: .cfa 8 - ^
STACK CFI INIT 905e0 6 .cfa: $rsp 8 + .ra: .cfa 8 - ^
STACK CFI INIT 905f0 6 .cfa: $rsp 8 + .ra: .cfa 8 - ^
STACK CFI INIT 90600 6 .cfa: $rsp 8 + .ra: .cfa 8 - ^
STACK CFI INIT 90610 6 .cfa: $rsp 8 + .ra: .cfa 8 - ^
STACK CFI INIT 90620 6 .cfa: $rsp 8 + .ra: .cfa 8 - ^
STACK CFI INIT 90630 6 .cfa: $rsp 8 + .ra: .cfa 8 - ^
STACK CFI INIT 90640 6 .cfa: $rsp 8 + .ra: .cfa 8 - ^
STACK CFI INIT 90650 6 .cfa: $rsp 8 + .ra: .cfa 8 - ^
STACK CFI INIT 90660 6 .cfa: $rsp 8 + .ra: .cfa 8 - ^
STACK CFI INIT 90670 6 .cfa: $rsp 8 + .ra: .cfa 8 - ^
STACK CFI INIT 90680 6 .cfa: $rsp 8 + .ra: .cfa 8 - ^
STACK CFI INIT 90690 6 .cfa: $rsp 8 + .ra: .cfa 8 - ^
STACK CFI INIT 906a0 6 .cfa: $rsp 8 + .ra: .cfa 8 - ^
STACK CFI INIT 906b0 6 .cfa: $rsp 8 + .ra: .cfa 8 - ^
STACK CFI INIT 906c0 6 .cfa: $rsp 8 + .ra: .cfa 8 - ^
STACK CFI INIT 906d0 6 .cfa: $rsp 8 + .ra: .cfa 8 - ^
STACK CFI INIT 906e0 6 .cfa: $rsp 8 + .ra: .cfa 8 - ^
STACK CFI INIT 906f0 6 .cfa: $rsp 8 + .ra: .cfa 8 - ^
STACK CFI INIT 90700 6 .cfa: $rsp 8 + .ra: .cfa 8 - ^
STACK CFI INIT 90710 6 .cfa: $rsp 8 + .ra: .cfa 8 - ^
STACK CFI INIT 90720 6 .cfa: $rsp 8 + .ra: .cfa 8 - ^
STACK CFI INIT 90730 6 .cfa: $rsp 8 + .ra: .cfa 8 - ^
STACK CFI INIT 90740 6 .cfa: $rsp 8 + .ra: .cfa 8 - ^
STACK CFI INIT 90750 6 .cfa: $rsp 8 + .ra: .cfa 8 - ^
STACK CFI INIT 90760 b .cfa: $rsp 8 + .ra: .cfa 8 - ^
STACK CFI INIT 90770 b .cfa: $rsp 8 + .ra: .cfa 8 - ^
STACK CFI INIT 90780 b .cfa: $rsp 8 + .ra: .cfa 8 - ^
STACK CFI INIT 90790 b .cfa: $rsp 8 + .ra: .cfa 8 - ^
STACK CFI INIT 907a0 b .cfa: $rsp 8 + .ra: .cfa 8 - ^
STACK CFI INIT 907b0 b .cfa: $rsp 8 + .ra: .cfa 8 - ^
STACK CFI INIT 907c0 b .cfa: $rsp 8 + .ra: .cfa 8 - ^
STACK CFI INIT 907d0 b .cfa: $rsp 8 + .ra: .cfa 8 - ^
STACK CFI INIT 907e0 b .cfa: $rsp 8 + .ra: .cfa 8 - ^
STACK CFI INIT 907f0 b .cfa: $rsp 8 + .ra: .cfa 8 - ^
STACK CFI INIT 90800 b .cfa: $rsp 8 + .ra: .cfa 8 - ^
STACK CFI INIT 90810 b .cfa: $rsp 8 + .ra: .cfa 8 - ^
STACK CFI INIT 90820 b .cfa: $rsp 8 + .ra: .cfa 8 - ^
STACK CFI INIT 90830 b .cfa: $rsp 8 + .ra: .cfa 8 - ^
STACK CFI INIT 90840 b .cfa: $rsp 8 + .ra: .cfa 8 - ^
STACK CFI INIT 90850 b .cfa: $rsp 8 + .ra: .cfa 8 - ^
STACK CFI INIT 90860 b .cfa: $rsp 8 + .ra: .cfa 8 - ^
STACK CFI INIT 90870 b .cfa: $rsp 8 + .ra: .cfa 8 - ^
STACK CFI INIT 90880 b .cfa: $rsp 8 + .ra: .cfa 8 - ^
STACK CFI INIT 90890 b .cfa: $rsp 8 + .ra: .cfa 8 - ^
STACK CFI INIT 908a0 b .cfa: $rsp 8 + .ra: .cfa 8 - ^
STACK CFI INIT 908b0 b .cfa: $rsp 8 + .ra: .cfa 8 - ^
STACK CFI INIT 908c0 b .cfa: $rsp 8 + .ra: .cfa 8 - ^
STACK CFI INIT 908d0 b .cfa: $rsp 8 + .ra: .cfa 8 - ^
STACK CFI INIT 908e0 b .cfa: $rsp 8 + .ra: .cfa 8 - ^
STACK CFI INIT 908f0 b .cfa: $rsp 8 + .ra: .cfa 8 - ^
STACK CFI INIT 90900 b .cfa: $rsp 8 + .ra: .cfa 8 - ^
STACK CFI INIT 90910 b .cfa: $rsp 8 + .ra: .cfa 8 - ^
STACK CFI INIT 90920 b .cfa: $rsp 8 + .ra: .cfa 8 - ^
STACK CFI INIT 90930 b .cfa: $rsp 8 + .ra: .cfa 8 - ^
STACK CFI INIT 90940 b .cfa: $rsp 8 + .ra: .cfa 8 - ^
STACK CFI INIT 90950 b .cfa: $rsp 8 + .ra: .cfa 8 - ^
STACK CFI INIT 90960 b .cfa: $rsp 8 + .ra: .cfa 8 - ^
STACK CFI INIT 90970 b .cfa: $rsp 8 + .ra: .cfa 8 - ^
STACK CFI INIT 90980 b .cfa: $rsp 8 + .ra: .cfa 8 - ^
STACK CFI INIT 90990 b .cfa: $rsp 8 + .ra: .cfa 8 - ^
STACK CFI INIT 909a0 b .cfa: $rsp 8 + .ra: .cfa 8 - ^
STACK CFI INIT 909b0 b .cfa: $rsp 8 + .ra: .cfa 8 - ^
STACK CFI INIT 909c0 b .cfa: $rsp 8 + .ra: .cfa 8 - ^
STACK CFI INIT 909d0 b .cfa: $rsp 8 + .ra: .cfa 8 - ^
STACK CFI INIT 909e0 b .cfa: $rsp 8 + .ra: .cfa 8 - ^
STACK CFI INIT 909f0 b .cfa: $rsp 8 + .ra: .cfa 8 - ^
STACK CFI INIT 90a00 b .cfa: $rsp 8 + .ra: .cfa 8 - ^
STACK CFI INIT 90a10 b .cfa: $rsp 8 + .ra: .cfa 8 - ^
STACK CFI INIT 90a20 b .cfa: $rsp 8 + .ra: .cfa 8 - ^
STACK CFI INIT 90a30 b .cfa: $rsp 8 + .ra: .cfa 8 - ^
STACK CFI INIT 90a40 b .cfa: $rsp 8 + .ra: .cfa 8 - ^
STACK CFI INIT 90a50 b .cfa: $rsp 8 + .ra: .cfa 8 - ^
STACK CFI INIT 90a60 b .cfa: $rsp 8 + .ra: .cfa 8 - ^
STACK CFI INIT 90a70 b .cfa: $rsp 8 + .ra: .cfa 8 - ^
STACK CFI INIT 90a80 b .cfa: $rsp 8 + .ra: .cfa 8 - ^
STACK CFI INIT 90a90 b .cfa: $rsp 8 + .ra: .cfa 8 - ^
STACK CFI INIT 90aa0 b .cfa: $rsp 8 + .ra: .cfa 8 - ^
STACK CFI INIT 90ab0 b .cfa: $rsp 8 + .ra: .cfa 8 - ^
STACK CFI INIT 90ac0 b .cfa: $rsp 8 + .ra: .cfa 8 - ^
STACK CFI INIT 90ad0 b .cfa: $rsp 8 + .ra: .cfa 8 - ^
STACK CFI INIT 90ae0 b .cfa: $rsp 8 + .ra: .cfa 8 - ^
STACK CFI INIT 90af0 b .cfa: $rsp 8 + .ra: .cfa 8 - ^
STACK CFI INIT 90b00 b .cfa: $rsp 8 + .ra: .cfa 8 - ^
STACK CFI INIT 90b10 b .cfa: $rsp 8 + .ra: .cfa 8 - ^
STACK CFI INIT 90b20 b .cfa: $rsp 8 + .ra: .cfa 8 - ^
STACK CFI INIT 90b30 b .cfa: $rsp 8 + .ra: .cfa 8 - ^
STACK CFI INIT 90b40 b .cfa: $rsp 8 + .ra: .cfa 8 - ^
STACK CFI INIT 90b50 b .cfa: $rsp 8 + .ra: .cfa 8 - ^
STACK CFI INIT 90b60 b .cfa: $rsp 8 + .ra: .cfa 8 - ^
STACK CFI INIT 90b70 b .cfa: $rsp 8 + .ra: .cfa 8 - ^
STACK CFI INIT 90b80 b .cfa: $rsp 8 + .ra: .cfa 8 - ^
STACK CFI INIT 90b90 b .cfa: $rsp 8 + .ra: .cfa 8 - ^
STACK CFI INIT 90ba0 b .cfa: $rsp 8 + .ra: .cfa 8 - ^
STACK CFI INIT 90bb0 b .cfa: $rsp 8 + .ra: .cfa 8 - ^
STACK CFI INIT 90bc0 b .cfa: $rsp 8 + .ra: .cfa 8 - ^
STACK CFI INIT 90bd0 b .cfa: $rsp 8 + .ra: .cfa 8 - ^
STACK CFI INIT 90be0 b .cfa: $rsp 8 + .ra: .cfa 8 - ^
STACK CFI INIT 90bf0 b .cfa: $rsp 8 + .ra: .cfa 8 - ^
STACK CFI INIT 90c00 b .cfa: $rsp 8 + .ra: .cfa 8 - ^
STACK CFI INIT 90c10 b .cfa: $rsp 8 + .ra: .cfa 8 - ^
STACK CFI INIT 90c20 b .cfa: $rsp 8 + .ra: .cfa 8 - ^
STACK CFI INIT 90c30 b .cfa: $rsp 8 + .ra: .cfa 8 - ^
STACK CFI INIT 90c40 b .cfa: $rsp 8 + .ra: .cfa 8 - ^
STACK CFI INIT 90c50 b .cfa: $rsp 8 + .ra: .cfa 8 - ^
STACK CFI INIT 90c60 b .cfa: $rsp 8 + .ra: .cfa 8 - ^
STACK CFI INIT 90c70 b .cfa: $rsp 8 + .ra: .cfa 8 - ^
STACK CFI INIT 90c80 b .cfa: $rsp 8 + .ra: .cfa 8 - ^
STACK CFI INIT 90c90 b .cfa: $rsp 8 + .ra: .cfa 8 - ^
STACK CFI INIT 90ca0 b .cfa: $rsp 8 + .ra: .cfa 8 - ^
STACK CFI INIT 90cb0 b .cfa: $rsp 8 + .ra: .cfa 8 - ^
STACK CFI INIT 90cc0 b .cfa: $rsp 8 + .ra: .cfa 8 - ^
STACK CFI INIT 90cd0 b .cfa: $rsp 8 + .ra: .cfa 8 - ^
STACK CFI INIT 90ce0 b .cfa: $rsp 8 + .ra: .cfa 8 - ^
STACK CFI INIT 90cf0 5 .cfa: $rsp 8 + .ra: .cfa 8 - ^
STACK CFI INIT 90d00 b .cfa: $rsp 8 + .ra: .cfa 8 - ^
STACK CFI INIT 90d10 b .cfa: $rsp 8 + .ra: .cfa 8 - ^
STACK CFI INIT 90d20 b .cfa: $rsp 8 + .ra: .cfa 8 - ^
STACK CFI INIT 90d30 b .cfa: $rsp 8 + .ra: .cfa 8 - ^
STACK CFI INIT 90d40 b .cfa: $rsp 8 + .ra: .cfa 8 - ^
STACK CFI INIT 90d50 b .cfa: $rsp 8 + .ra: .cfa 8 - ^
STACK CFI INIT 90d60 b .cfa: $rsp 8 + .ra: .cfa 8 - ^
STACK CFI INIT 90d70 b .cfa: $rsp 8 + .ra: .cfa 8 - ^
STACK CFI INIT 90d80 b .cfa: $rsp 8 + .ra: .cfa 8 - ^
STACK CFI INIT 90d90 b .cfa: $rsp 8 + .ra: .cfa 8 - ^
STACK CFI INIT 90da0 b .cfa: $rsp 8 + .ra: .cfa 8 - ^
STACK CFI INIT 90db0 b .cfa: $rsp 8 + .ra: .cfa 8 - ^
STACK CFI INIT 90dc0 b .cfa: $rsp 8 + .ra: .cfa 8 - ^
STACK CFI INIT 90dd0 b .cfa: $rsp 8 + .ra: .cfa 8 - ^
STACK CFI INIT 90de0 b .cfa: $rsp 8 + .ra: .cfa 8 - ^
STACK CFI INIT 90df0 b .cfa: $rsp 8 + .ra: .cfa 8 - ^
STACK CFI INIT 90e00 b .cfa: $rsp 8 + .ra: .cfa 8 - ^
STACK CFI INIT 90e10 b .cfa: $rsp 8 + .ra: .cfa 8 - ^
STACK CFI INIT 90e20 b .cfa: $rsp 8 + .ra: .cfa 8 - ^
STACK CFI INIT 90e30 b .cfa: $rsp 8 + .ra: .cfa 8 - ^
STACK CFI INIT 90e40 b .cfa: $rsp 8 + .ra: .cfa 8 - ^
STACK CFI INIT 90e50 b .cfa: $rsp 8 + .ra: .cfa 8 - ^
STACK CFI INIT 90e60 b .cfa: $rsp 8 + .ra: .cfa 8 - ^
STACK CFI INIT 90e70 b .cfa: $rsp 8 + .ra: .cfa 8 - ^
STACK CFI INIT 90e80 b .cfa: $rsp 8 + .ra: .cfa 8 - ^
STACK CFI INIT 90e90 b .cfa: $rsp 8 + .ra: .cfa 8 - ^
STACK CFI INIT 90ea0 b .cfa: $rsp 8 + .ra: .cfa 8 - ^
STACK CFI INIT 90eb0 b .cfa: $rsp 8 + .ra: .cfa 8 - ^
STACK CFI INIT 90ec0 b .cfa: $rsp 8 + .ra: .cfa 8 - ^
STACK CFI INIT 90ed0 b .cfa: $rsp 8 + .ra: .cfa 8 - ^
STACK CFI INIT 90ee0 b .cfa: $rsp 8 + .ra: .cfa 8 - ^
STACK CFI INIT 90ef0 b .cfa: $rsp 8 + .ra: .cfa 8 - ^
STACK CFI INIT 90f00 b .cfa: $rsp 8 + .ra: .cfa 8 - ^
STACK CFI INIT 90f10 b .cfa: $rsp 8 + .ra: .cfa 8 - ^
STACK CFI INIT 90f20 b .cfa: $rsp 8 + .ra: .cfa 8 - ^
STACK CFI INIT 90f30 b .cfa: $rsp 8 + .ra: .cfa 8 - ^
STACK CFI INIT 90f40 b .cfa: $rsp 8 + .ra: .cfa 8 - ^
STACK CFI INIT 90f50 b .cfa: $rsp 8 + .ra: .cfa 8 - ^
STACK CFI INIT 90f60 b .cfa: $rsp 8 + .ra: .cfa 8 - ^
STACK CFI INIT 90f70 b .cfa: $rsp 8 + .ra: .cfa 8 - ^
STACK CFI INIT 90f80 b .cfa: $rsp 8 + .ra: .cfa 8 - ^
STACK CFI INIT 90f90 b .cfa: $rsp 8 + .ra: .cfa 8 - ^
STACK CFI INIT 90fa0 b .cfa: $rsp 8 + .ra: .cfa 8 - ^
STACK CFI INIT 90fb0 b .cfa: $rsp 8 + .ra: .cfa 8 - ^
STACK CFI INIT 90fc0 b .cfa: $rsp 8 + .ra: .cfa 8 - ^
STACK CFI INIT 90fd0 b .cfa: $rsp 8 + .ra: .cfa 8 - ^
STACK CFI INIT 90fe0 b .cfa: $rsp 8 + .ra: .cfa 8 - ^
STACK CFI INIT 90ff0 b .cfa: $rsp 8 + .ra: .cfa 8 - ^
STACK CFI INIT 91000 b .cfa: $rsp 8 + .ra: .cfa 8 - ^
STACK CFI INIT 91010 b .cfa: $rsp 8 + .ra: .cfa 8 - ^
STACK CFI INIT 91020 b .cfa: $rsp 8 + .ra: .cfa 8 - ^
STACK CFI INIT 91030 b .cfa: $rsp 8 + .ra: .cfa 8 - ^
STACK CFI INIT 91040 b .cfa: $rsp 8 + .ra: .cfa 8 - ^
STACK CFI INIT 91050 b .cfa: $rsp 8 + .ra: .cfa 8 - ^
STACK CFI INIT 91060 b .cfa: $rsp 8 + .ra: .cfa 8 - ^
STACK CFI INIT 91070 b .cfa: $rsp 8 + .ra: .cfa 8 - ^
STACK CFI INIT 91080 b .cfa: $rsp 8 + .ra: .cfa 8 - ^
STACK CFI INIT 91090 b .cfa: $rsp 8 + .ra: .cfa 8 - ^
STACK CFI INIT 910a0 b .cfa: $rsp 8 + .ra: .cfa 8 - ^
STACK CFI INIT 910b0 b .cfa: $rsp 8 + .ra: .cfa 8 - ^
STACK CFI INIT 910c0 b .cfa: $rsp 8 + .ra: .cfa 8 - ^
STACK CFI INIT 910d0 b .cfa: $rsp 8 + .ra: .cfa 8 - ^
STACK CFI INIT 910e0 b .cfa: $rsp 8 + .ra: .cfa 8 - ^
STACK CFI INIT 910f0 b .cfa: $rsp 8 + .ra: .cfa 8 - ^
STACK CFI INIT 91100 b .cfa: $rsp 8 + .ra: .cfa 8 - ^
STACK CFI INIT 91110 b .cfa: $rsp 8 + .ra: .cfa 8 - ^
STACK CFI INIT 91120 b .cfa: $rsp 8 + .ra: .cfa 8 - ^
STACK CFI INIT 91130 b .cfa: $rsp 8 + .ra: .cfa 8 - ^
STACK CFI INIT 91140 b .cfa: $rsp 8 + .ra: .cfa 8 - ^
STACK CFI INIT 91150 b .cfa: $rsp 8 + .ra: .cfa 8 - ^
STACK CFI INIT 91160 b .cfa: $rsp 8 + .ra: .cfa 8 - ^
STACK CFI INIT 91170 b .cfa: $rsp 8 + .ra: .cfa 8 - ^
STACK CFI INIT 91180 b .cfa: $rsp 8 + .ra: .cfa 8 - ^
STACK CFI INIT 91190 b .cfa: $rsp 8 + .ra: .cfa 8 - ^
STACK CFI INIT 911a0 b .cfa: $rsp 8 + .ra: .cfa 8 - ^
STACK CFI INIT 911b0 b .cfa: $rsp 8 + .ra: .cfa 8 - ^
STACK CFI INIT 911c0 b .cfa: $rsp 8 + .ra: .cfa 8 - ^
STACK CFI INIT 911d0 b .cfa: $rsp 8 + .ra: .cfa 8 - ^
STACK CFI INIT 911e0 b .cfa: $rsp 8 + .ra: .cfa 8 - ^
STACK CFI INIT 911f0 b .cfa: $rsp 8 + .ra: .cfa 8 - ^
STACK CFI INIT 91200 b .cfa: $rsp 8 + .ra: .cfa 8 - ^
STACK CFI INIT 91210 b .cfa: $rsp 8 + .ra: .cfa 8 - ^
STACK CFI INIT 91220 b .cfa: $rsp 8 + .ra: .cfa 8 - ^
STACK CFI INIT 91230 b .cfa: $rsp 8 + .ra: .cfa 8 - ^
STACK CFI INIT 91240 b .cfa: $rsp 8 + .ra: .cfa 8 - ^
STACK CFI INIT 91250 b .cfa: $rsp 8 + .ra: .cfa 8 - ^
STACK CFI INIT 91260 b .cfa: $rsp 8 + .ra: .cfa 8 - ^
STACK CFI INIT 91270 b .cfa: $rsp 8 + .ra: .cfa 8 - ^
STACK CFI INIT 91280 b .cfa: $rsp 8 + .ra: .cfa 8 - ^
STACK CFI INIT 91290 b .cfa: $rsp 8 + .ra: .cfa 8 - ^
STACK CFI INIT 912a0 b .cfa: $rsp 8 + .ra: .cfa 8 - ^
STACK CFI INIT 912b0 b .cfa: $rsp 8 + .ra: .cfa 8 - ^
STACK CFI INIT 912c0 b .cfa: $rsp 8 + .ra: .cfa 8 - ^
STACK CFI INIT 912d0 b .cfa: $rsp 8 + .ra: .cfa 8 - ^
STACK CFI INIT 912e0 b .cfa: $rsp 8 + .ra: .cfa 8 - ^
STACK CFI INIT 912f0 b .cfa: $rsp 8 + .ra: .cfa 8 - ^
STACK CFI INIT 91300 b .cfa: $rsp 8 + .ra: .cfa 8 - ^
STACK CFI INIT 91310 b .cfa: $rsp 8 + .ra: .cfa 8 - ^
STACK CFI INIT 91320 b .cfa: $rsp 8 + .ra: .cfa 8 - ^
STACK CFI INIT 91330 b .cfa: $rsp 8 + .ra: .cfa 8 - ^
STACK CFI INIT 91340 b .cfa: $rsp 8 + .ra: .cfa 8 - ^
STACK CFI INIT 91350 b .cfa: $rsp 8 + .ra: .cfa 8 - ^
STACK CFI INIT 91360 b .cfa: $rsp 8 + .ra: .cfa 8 - ^
STACK CFI INIT 91370 b .cfa: $rsp 8 + .ra: .cfa 8 - ^
STACK CFI INIT 91380 b .cfa: $rsp 8 + .ra: .cfa 8 - ^
STACK CFI INIT 91390 b .cfa: $rsp 8 + .ra: .cfa 8 - ^
STACK CFI INIT 913a0 b .cfa: $rsp 8 + .ra: .cfa 8 - ^
STACK CFI INIT 913b0 b .cfa: $rsp 8 + .ra: .cfa 8 - ^
STACK CFI INIT 913c0 b .cfa: $rsp 8 + .ra: .cfa 8 - ^
STACK CFI INIT 913d0 b .cfa: $rsp 8 + .ra: .cfa 8 - ^
STACK CFI INIT 913e0 b .cfa: $rsp 8 + .ra: .cfa 8 - ^
STACK CFI INIT 913f0 b .cfa: $rsp 8 + .ra: .cfa 8 - ^
STACK CFI INIT 91400 b .cfa: $rsp 8 + .ra: .cfa 8 - ^
STACK CFI INIT 91410 b .cfa: $rsp 8 + .ra: .cfa 8 - ^
STACK CFI INIT 91420 b .cfa: $rsp 8 + .ra: .cfa 8 - ^
STACK CFI INIT 91430 b .cfa: $rsp 8 + .ra: .cfa 8 - ^
STACK CFI INIT 91440 b .cfa: $rsp 8 + .ra: .cfa 8 - ^
STACK CFI INIT 91450 b .cfa: $rsp 8 + .ra: .cfa 8 - ^
STACK CFI INIT 91460 b .cfa: $rsp 8 + .ra: .cfa 8 - ^
STACK CFI INIT 91470 b .cfa: $rsp 8 + .ra: .cfa 8 - ^
STACK CFI INIT 91480 b .cfa: $rsp 8 + .ra: .cfa 8 - ^
STACK CFI INIT 91490 b .cfa: $rsp 8 + .ra: .cfa 8 - ^
STACK CFI INIT 914a0 b .cfa: $rsp 8 + .ra: .cfa 8 - ^
STACK CFI INIT 914b0 b .cfa: $rsp 8 + .ra: .cfa 8 - ^
STACK CFI INIT 914c0 b .cfa: $rsp 8 + .ra: .cfa 8 - ^
STACK CFI INIT 914d0 b .cfa: $rsp 8 + .ra: .cfa 8 - ^
STACK CFI INIT 914e0 b .cfa: $rsp 8 + .ra: .cfa 8 - ^
STACK CFI INIT 914f0 b .cfa: $rsp 8 + .ra: .cfa 8 - ^
STACK CFI INIT 91500 b .cfa: $rsp 8 + .ra: .cfa 8 - ^
STACK CFI INIT 91510 b .cfa: $rsp 8 + .ra: .cfa 8 - ^
STACK CFI INIT 91520 b .cfa: $rsp 8 + .ra: .cfa 8 - ^
STACK CFI INIT 91530 b .cfa: $rsp 8 + .ra: .cfa 8 - ^
STACK CFI INIT 91540 b .cfa: $rsp 8 + .ra: .cfa 8 - ^
STACK CFI INIT 91550 b .cfa: $rsp 8 + .ra: .cfa 8 - ^
STACK CFI INIT 91560 b .cfa: $rsp 8 + .ra: .cfa 8 - ^
STACK CFI INIT 91570 b .cfa: $rsp 8 + .ra: .cfa 8 - ^
STACK CFI INIT 91580 b .cfa: $rsp 8 + .ra: .cfa 8 - ^
STACK CFI INIT 91590 b .cfa: $rsp 8 + .ra: .cfa 8 - ^
STACK CFI INIT 915a0 b .cfa: $rsp 8 + .ra: .cfa 8 - ^
STACK CFI INIT 915b0 b .cfa: $rsp 8 + .ra: .cfa 8 - ^
STACK CFI INIT 915c0 b .cfa: $rsp 8 + .ra: .cfa 8 - ^
STACK CFI INIT 915d0 b .cfa: $rsp 8 + .ra: .cfa 8 - ^
STACK CFI INIT 915e0 b .cfa: $rsp 8 + .ra: .cfa 8 - ^
STACK CFI INIT 915f0 b .cfa: $rsp 8 + .ra: .cfa 8 - ^
STACK CFI INIT 91600 b .cfa: $rsp 8 + .ra: .cfa 8 - ^
STACK CFI INIT 91610 b .cfa: $rsp 8 + .ra: .cfa 8 - ^
STACK CFI INIT 91620 b .cfa: $rsp 8 + .ra: .cfa 8 - ^
STACK CFI INIT 91630 b .cfa: $rsp 8 + .ra: .cfa 8 - ^
STACK CFI INIT 91640 b .cfa: $rsp 8 + .ra: .cfa 8 - ^
STACK CFI INIT 91650 b .cfa: $rsp 8 + .ra: .cfa 8 - ^
STACK CFI INIT 91660 b .cfa: $rsp 8 + .ra: .cfa 8 - ^
STACK CFI INIT 91670 b .cfa: $rsp 8 + .ra: .cfa 8 - ^
STACK CFI INIT 91680 b .cfa: $rsp 8 + .ra: .cfa 8 - ^
STACK CFI INIT 91690 b .cfa: $rsp 8 + .ra: .cfa 8 - ^
STACK CFI INIT 916a0 b .cfa: $rsp 8 + .ra: .cfa 8 - ^
STACK CFI INIT 916b0 b .cfa: $rsp 8 + .ra: .cfa 8 - ^
STACK CFI INIT 916c0 b .cfa: $rsp 8 + .ra: .cfa 8 - ^
STACK CFI INIT 916d0 b .cfa: $rsp 8 + .ra: .cfa 8 - ^
STACK CFI INIT 916e0 b .cfa: $rsp 8 + .ra: .cfa 8 - ^
STACK CFI INIT 916f0 b .cfa: $rsp 8 + .ra: .cfa 8 - ^
STACK CFI INIT 91700 b .cfa: $rsp 8 + .ra: .cfa 8 - ^
STACK CFI INIT 91710 b .cfa: $rsp 8 + .ra: .cfa 8 - ^
STACK CFI INIT 91720 b .cfa: $rsp 8 + .ra: .cfa 8 - ^
STACK CFI INIT 91730 b .cfa: $rsp 8 + .ra: .cfa 8 - ^
STACK CFI INIT 91740 b .cfa: $rsp 8 + .ra: .cfa 8 - ^
STACK CFI INIT 91750 b .cfa: $rsp 8 + .ra: .cfa 8 - ^
STACK CFI INIT 91760 b .cfa: $rsp 8 + .ra: .cfa 8 - ^
STACK CFI INIT 91770 b .cfa: $rsp 8 + .ra: .cfa 8 - ^
STACK CFI INIT 91780 b .cfa: $rsp 8 + .ra: .cfa 8 - ^
STACK CFI INIT 91790 b .cfa: $rsp 8 + .ra: .cfa 8 - ^
STACK CFI INIT 917a0 b .cfa: $rsp 8 + .ra: .cfa 8 - ^
STACK CFI INIT 917b0 b .cfa: $rsp 8 + .ra: .cfa 8 - ^
STACK CFI INIT 917c0 b .cfa: $rsp 8 + .ra: .cfa 8 - ^
STACK CFI INIT 917d0 b .cfa: $rsp 8 + .ra: .cfa 8 - ^
STACK CFI INIT 917e0 b .cfa: $rsp 8 + .ra: .cfa 8 - ^
STACK CFI INIT 917f0 b .cfa: $rsp 8 + .ra: .cfa 8 - ^
STACK CFI INIT 91800 b .cfa: $rsp 8 + .ra: .cfa 8 - ^
STACK CFI INIT 91810 b .cfa: $rsp 8 + .ra: .cfa 8 - ^
STACK CFI INIT 91820 b .cfa: $rsp 8 + .ra: .cfa 8 - ^
STACK CFI INIT 91830 b .cfa: $rsp 8 + .ra: .cfa 8 - ^
STACK CFI INIT 91840 b .cfa: $rsp 8 + .ra: .cfa 8 - ^
STACK CFI INIT 91850 b .cfa: $rsp 8 + .ra: .cfa 8 - ^
STACK CFI INIT 91860 b .cfa: $rsp 8 + .ra: .cfa 8 - ^
STACK CFI INIT 91870 b .cfa: $rsp 8 + .ra: .cfa 8 - ^
STACK CFI INIT 91880 b .cfa: $rsp 8 + .ra: .cfa 8 - ^
STACK CFI INIT 91890 b .cfa: $rsp 8 + .ra: .cfa 8 - ^
STACK CFI INIT 918a0 b .cfa: $rsp 8 + .ra: .cfa 8 - ^
STACK CFI INIT 918b0 b .cfa: $rsp 8 + .ra: .cfa 8 - ^
STACK CFI INIT 918c0 b .cfa: $rsp 8 + .ra: .cfa 8 - ^
STACK CFI INIT 918d0 b .cfa: $rsp 8 + .ra: .cfa 8 - ^
STACK CFI INIT 918e0 b .cfa: $rsp 8 + .ra: .cfa 8 - ^
STACK CFI INIT 918f0 b .cfa: $rsp 8 + .ra: .cfa 8 - ^
STACK CFI INIT 91900 b .cfa: $rsp 8 + .ra: .cfa 8 - ^
STACK CFI INIT 91910 b .cfa: $rsp 8 + .ra: .cfa 8 - ^
STACK CFI INIT 91920 b .cfa: $rsp 8 + .ra: .cfa 8 - ^
STACK CFI INIT 91930 b .cfa: $rsp 8 + .ra: .cfa 8 - ^
STACK CFI INIT 91940 b .cfa: $rsp 8 + .ra: .cfa 8 - ^
STACK CFI INIT 91950 b .cfa: $rsp 8 + .ra: .cfa 8 - ^
STACK CFI INIT 91960 b .cfa: $rsp 8 + .ra: .cfa 8 - ^
STACK CFI INIT 91970 b .cfa: $rsp 8 + .ra: .cfa 8 - ^
STACK CFI INIT 91980 b .cfa: $rsp 8 + .ra: .cfa 8 - ^
STACK CFI INIT 91990 b .cfa: $rsp 8 + .ra: .cfa 8 - ^
STACK CFI INIT 919a0 b .cfa: $rsp 8 + .ra: .cfa 8 - ^
STACK CFI INIT 919b0 b .cfa: $rsp 8 + .ra: .cfa 8 - ^
STACK CFI INIT 919c0 b .cfa: $rsp 8 + .ra: .cfa 8 - ^
STACK CFI INIT 919d0 b .cfa: $rsp 8 + .ra: .cfa 8 - ^
STACK CFI INIT 919e0 b .cfa: $rsp 8 + .ra: .cfa 8 - ^
STACK CFI INIT 919f0 b .cfa: $rsp 8 + .ra: .cfa 8 - ^
STACK CFI INIT 91a00 b .cfa: $rsp 8 + .ra: .cfa 8 - ^
STACK CFI INIT 91a10 b .cfa: $rsp 8 + .ra: .cfa 8 - ^
STACK CFI INIT 91a20 b .cfa: $rsp 8 + .ra: .cfa 8 - ^
STACK CFI INIT 91a30 b .cfa: $rsp 8 + .ra: .cfa 8 - ^
STACK CFI INIT 91a40 b .cfa: $rsp 8 + .ra: .cfa 8 - ^
STACK CFI INIT 91a50 b .cfa: $rsp 8 + .ra: .cfa 8 - ^
STACK CFI INIT 91a60 b .cfa: $rsp 8 + .ra: .cfa 8 - ^
STACK CFI INIT 91a70 b .cfa: $rsp 8 + .ra: .cfa 8 - ^
STACK CFI INIT 91a80 b .cfa: $rsp 8 + .ra: .cfa 8 - ^
STACK CFI INIT 91a90 b .cfa: $rsp 8 + .ra: .cfa 8 - ^
STACK CFI INIT 91aa0 b .cfa: $rsp 8 + .ra: .cfa 8 - ^
STACK CFI INIT 91ab0 b .cfa: $rsp 8 + .ra: .cfa 8 - ^
STACK CFI INIT 91ac0 b .cfa: $rsp 8 + .ra: .cfa 8 - ^
STACK CFI INIT 91ad0 b .cfa: $rsp 8 + .ra: .cfa 8 - ^
STACK CFI INIT 91ae0 b .cfa: $rsp 8 + .ra: .cfa 8 - ^
STACK CFI INIT 91af0 b .cfa: $rsp 8 + .ra: .cfa 8 - ^
STACK CFI INIT 91b00 b .cfa: $rsp 8 + .ra: .cfa 8 - ^
STACK CFI INIT 91b10 b .cfa: $rsp 8 + .ra: .cfa 8 - ^
STACK CFI INIT 91b20 b .cfa: $rsp 8 + .ra: .cfa 8 - ^
STACK CFI INIT 91b30 b .cfa: $rsp 8 + .ra: .cfa 8 - ^
STACK CFI INIT 91b40 b .cfa: $rsp 8 + .ra: .cfa 8 - ^
STACK CFI INIT 91b50 b .cfa: $rsp 8 + .ra: .cfa 8 - ^
STACK CFI INIT 91b60 b .cfa: $rsp 8 + .ra: .cfa 8 - ^
STACK CFI INIT 91b70 b .cfa: $rsp 8 + .ra: .cfa 8 - ^
STACK CFI INIT 91b80 b .cfa: $rsp 8 + .ra: .cfa 8 - ^
STACK CFI INIT 91b90 b .cfa: $rsp 8 + .ra: .cfa 8 - ^
STACK CFI INIT 91ba0 b .cfa: $rsp 8 + .ra: .cfa 8 - ^
STACK CFI INIT 91bb0 b .cfa: $rsp 8 + .ra: .cfa 8 - ^
STACK CFI INIT 91bc0 b .cfa: $rsp 8 + .ra: .cfa 8 - ^
STACK CFI INIT 91bd0 b .cfa: $rsp 8 + .ra: .cfa 8 - ^
STACK CFI INIT 91be0 b .cfa: $rsp 8 + .ra: .cfa 8 - ^
STACK CFI INIT 91bf0 b .cfa: $rsp 8 + .ra: .cfa 8 - ^
STACK CFI INIT 91c00 b .cfa: $rsp 8 + .ra: .cfa 8 - ^
STACK CFI INIT 91c10 b .cfa: $rsp 8 + .ra: .cfa 8 - ^
STACK CFI INIT 91c20 b .cfa: $rsp 8 + .ra: .cfa 8 - ^
STACK CFI INIT 91c30 b .cfa: $rsp 8 + .ra: .cfa 8 - ^
STACK CFI INIT 91c40 b .cfa: $rsp 8 + .ra: .cfa 8 - ^
STACK CFI INIT 91c50 b .cfa: $rsp 8 + .ra: .cfa 8 - ^
STACK CFI INIT 91c60 b .cfa: $rsp 8 + .ra: .cfa 8 - ^
STACK CFI INIT 91c70 b .cfa: $rsp 8 + .ra: .cfa 8 - ^
STACK CFI INIT 91c80 b .cfa: $rsp 8 + .ra: .cfa 8 - ^
STACK CFI INIT 91c90 b .cfa: $rsp 8 + .ra: .cfa 8 - ^
STACK CFI INIT 91ca0 b .cfa: $rsp 8 + .ra: .cfa 8 - ^
STACK CFI INIT 91cb0 b .cfa: $rsp 8 + .ra: .cfa 8 - ^
STACK CFI INIT 91cc0 b .cfa: $rsp 8 + .ra: .cfa 8 - ^
STACK CFI INIT 91cd0 b .cfa: $rsp 8 + .ra: .cfa 8 - ^
STACK CFI INIT 91ce0 b .cfa: $rsp 8 + .ra: .cfa 8 - ^
STACK CFI INIT 91cf0 b .cfa: $rsp 8 + .ra: .cfa 8 - ^
STACK CFI INIT 91d00 b .cfa: $rsp 8 + .ra: .cfa 8 - ^
STACK CFI INIT 91d10 b .cfa: $rsp 8 + .ra: .cfa 8 - ^
STACK CFI INIT 91d20 b .cfa: $rsp 8 + .ra: .cfa 8 - ^
STACK CFI INIT 91d30 b .cfa: $rsp 8 + .ra: .cfa 8 - ^
STACK CFI INIT 91d40 b .cfa: $rsp 8 + .ra: .cfa 8 - ^
STACK CFI INIT 91d50 b .cfa: $rsp 8 + .ra: .cfa 8 - ^
STACK CFI INIT 91d60 b .cfa: $rsp 8 + .ra: .cfa 8 - ^
STACK CFI INIT 91d70 b .cfa: $rsp 8 + .ra: .cfa 8 - ^
STACK CFI INIT 91d80 b .cfa: $rsp 8 + .ra: .cfa 8 - ^
STACK CFI INIT 91d90 b .cfa: $rsp 8 + .ra: .cfa 8 - ^
STACK CFI INIT 91da0 b .cfa: $rsp 8 + .ra: .cfa 8 - ^
STACK CFI INIT 91db0 b .cfa: $rsp 8 + .ra: .cfa 8 - ^
STACK CFI INIT 91dc0 b .cfa: $rsp 8 + .ra: .cfa 8 - ^
STACK CFI INIT 91dd0 b .cfa: $rsp 8 + .ra: .cfa 8 - ^
STACK CFI INIT 91de0 b .cfa: $rsp 8 + .ra: .cfa 8 - ^
STACK CFI INIT 91df0 b .cfa: $rsp 8 + .ra: .cfa 8 - ^
STACK CFI INIT 91e00 b .cfa: $rsp 8 + .ra: .cfa 8 - ^
STACK CFI INIT 91e10 b .cfa: $rsp 8 + .ra: .cfa 8 - ^
STACK CFI INIT 91e20 b .cfa: $rsp 8 + .ra: .cfa 8 - ^
STACK CFI INIT 91e30 b .cfa: $rsp 8 + .ra: .cfa 8 - ^
STACK CFI INIT 91e40 b .cfa: $rsp 8 + .ra: .cfa 8 - ^
STACK CFI INIT 91e50 b .cfa: $rsp 8 + .ra: .cfa 8 - ^
STACK CFI INIT 91e60 b .cfa: $rsp 8 + .ra: .cfa 8 - ^
STACK CFI INIT 91e70 b .cfa: $rsp 8 + .ra: .cfa 8 - ^
STACK CFI INIT 91e80 b .cfa: $rsp 8 + .ra: .cfa 8 - ^
STACK CFI INIT 91e90 b .cfa: $rsp 8 + .ra: .cfa 8 - ^
STACK CFI INIT 91ea0 b .cfa: $rsp 8 + .ra: .cfa 8 - ^
STACK CFI INIT 91eb0 b .cfa: $rsp 8 + .ra: .cfa 8 - ^
STACK CFI INIT 91ec0 b .cfa: $rsp 8 + .ra: .cfa 8 - ^
STACK CFI INIT 91ed0 b .cfa: $rsp 8 + .ra: .cfa 8 - ^
STACK CFI INIT 91ee0 b .cfa: $rsp 8 + .ra: .cfa 8 - ^
STACK CFI INIT 91ef0 b .cfa: $rsp 8 + .ra: .cfa 8 - ^
STACK CFI INIT 91f00 b .cfa: $rsp 8 + .ra: .cfa 8 - ^
STACK CFI INIT 91f10 b .cfa: $rsp 8 + .ra: .cfa 8 - ^
STACK CFI INIT 91f20 b .cfa: $rsp 8 + .ra: .cfa 8 - ^
STACK CFI INIT 91f30 b .cfa: $rsp 8 + .ra: .cfa 8 - ^
STACK CFI INIT 91f40 b .cfa: $rsp 8 + .ra: .cfa 8 - ^
STACK CFI INIT 91f50 b .cfa: $rsp 8 + .ra: .cfa 8 - ^
STACK CFI INIT 91f60 b .cfa: $rsp 8 + .ra: .cfa 8 - ^
STACK CFI INIT 91f70 b .cfa: $rsp 8 + .ra: .cfa 8 - ^
STACK CFI INIT 91f80 b .cfa: $rsp 8 + .ra: .cfa 8 - ^
STACK CFI INIT 91f90 b .cfa: $rsp 8 + .ra: .cfa 8 - ^
STACK CFI INIT 91fa0 b .cfa: $rsp 8 + .ra: .cfa 8 - ^
STACK CFI INIT 91fb0 b .cfa: $rsp 8 + .ra: .cfa 8 - ^
STACK CFI INIT 91fc0 b .cfa: $rsp 8 + .ra: .cfa 8 - ^
STACK CFI INIT 91fd0 b .cfa: $rsp 8 + .ra: .cfa 8 - ^
STACK CFI INIT 91fe0 b .cfa: $rsp 8 + .ra: .cfa 8 - ^
STACK CFI INIT 91ff0 b .cfa: $rsp 8 + .ra: .cfa 8 - ^
STACK CFI INIT 92000 b .cfa: $rsp 8 + .ra: .cfa 8 - ^
STACK CFI INIT 92010 b .cfa: $rsp 8 + .ra: .cfa 8 - ^
STACK CFI INIT 92020 b .cfa: $rsp 8 + .ra: .cfa 8 - ^
STACK CFI INIT 92030 b .cfa: $rsp 8 + .ra: .cfa 8 - ^
STACK CFI INIT 92040 b .cfa: $rsp 8 + .ra: .cfa 8 - ^
STACK CFI INIT 92050 b .cfa: $rsp 8 + .ra: .cfa 8 - ^
STACK CFI INIT 92060 b .cfa: $rsp 8 + .ra: .cfa 8 - ^
STACK CFI INIT 92070 b .cfa: $rsp 8 + .ra: .cfa 8 - ^
STACK CFI INIT 92080 b .cfa: $rsp 8 + .ra: .cfa 8 - ^
STACK CFI INIT 92090 b .cfa: $rsp 8 + .ra: .cfa 8 - ^
STACK CFI INIT 920a0 b .cfa: $rsp 8 + .ra: .cfa 8 - ^
STACK CFI INIT 920b0 b .cfa: $rsp 8 + .ra: .cfa 8 - ^
STACK CFI INIT 920c0 b .cfa: $rsp 8 + .ra: .cfa 8 - ^
STACK CFI INIT 920d0 b .cfa: $rsp 8 + .ra: .cfa 8 - ^
STACK CFI INIT 920e0 b .cfa: $rsp 8 + .ra: .cfa 8 - ^
STACK CFI INIT 920f0 b .cfa: $rsp 8 + .ra: .cfa 8 - ^
STACK CFI INIT 92100 b .cfa: $rsp 8 + .ra: .cfa 8 - ^
STACK CFI INIT 92110 b .cfa: $rsp 8 + .ra: .cfa 8 - ^
STACK CFI INIT 92120 b .cfa: $rsp 8 + .ra: .cfa 8 - ^
STACK CFI INIT 92130 b .cfa: $rsp 8 + .ra: .cfa 8 - ^
STACK CFI INIT 92140 b .cfa: $rsp 8 + .ra: .cfa 8 - ^
STACK CFI INIT 92150 b .cfa: $rsp 8 + .ra: .cfa 8 - ^
STACK CFI INIT 92160 b .cfa: $rsp 8 + .ra: .cfa 8 - ^
STACK CFI INIT 92170 b .cfa: $rsp 8 + .ra: .cfa 8 - ^
STACK CFI INIT 92180 b .cfa: $rsp 8 + .ra: .cfa 8 - ^
STACK CFI INIT 92190 b .cfa: $rsp 8 + .ra: .cfa 8 - ^
STACK CFI INIT 921a0 b .cfa: $rsp 8 + .ra: .cfa 8 - ^
STACK CFI INIT 921b0 b .cfa: $rsp 8 + .ra: .cfa 8 - ^
STACK CFI INIT 921c0 b .cfa: $rsp 8 + .ra: .cfa 8 - ^
STACK CFI INIT 921d0 b .cfa: $rsp 8 + .ra: .cfa 8 - ^
STACK CFI INIT 921e0 b .cfa: $rsp 8 + .ra: .cfa 8 - ^
STACK CFI INIT 921f0 b .cfa: $rsp 8 + .ra: .cfa 8 - ^
STACK CFI INIT 92200 b .cfa: $rsp 8 + .ra: .cfa 8 - ^
STACK CFI INIT 92210 b .cfa: $rsp 8 + .ra: .cfa 8 - ^
STACK CFI INIT 92220 b .cfa: $rsp 8 + .ra: .cfa 8 - ^
STACK CFI INIT 92230 b .cfa: $rsp 8 + .ra: .cfa 8 - ^
STACK CFI INIT 92240 b .cfa: $rsp 8 + .ra: .cfa 8 - ^
STACK CFI INIT 92250 b .cfa: $rsp 8 + .ra: .cfa 8 - ^
STACK CFI INIT 92260 b .cfa: $rsp 8 + .ra: .cfa 8 - ^
STACK CFI INIT 92280 2 .cfa: $rsp 8 + .ra: .cfa 8 - ^
STACK CFI INIT 92290 2 .cfa: $rsp 8 + .ra: .cfa 8 - ^
STACK CFI INIT 922a0 2 .cfa: $rsp 8 + .ra: .cfa 8 - ^
STACK CFI INIT 922b0 16 .cfa: $rsp 8 + .ra: .cfa 8 - ^
STACK CFI INIT 922d0 19 .cfa: $rsp 8 + .ra: .cfa 8 - ^
STACK CFI INIT 922f0 7 .cfa: $rsp 8 + .ra: .cfa 8 - ^
STACK CFI INIT 92310 7 .cfa: $rsp 8 + .ra: .cfa 8 - ^
STACK CFI INIT 92320 36 .cfa: $rsp 16 + $rbx: .cfa 16 - ^ .ra: .cfa 8 - ^
STACK CFI INIT 92360 32 .cfa: $rsp 16 + $rbx: .cfa 16 - ^ .ra: .cfa 8 - ^
STACK CFI INIT 923a0 25 .cfa: $rsp 16 + $rbx: .cfa 16 - ^ .ra: .cfa 8 - ^
STACK CFI INIT 923d0 34 .cfa: $rsp 16 + $rbx: .cfa 16 - ^ .ra: .cfa 8 - ^
STACK CFI INIT 92420 1c .cfa: $rsp 48 + .ra: .cfa 8 - ^
STACK CFI INIT 92450 3f .cfa: $rsp 80 + $rcx: .cfa 48 - ^ $rdx: .cfa 40 - ^ $r8: .cfa 32 - ^ $r9: .cfa 24 - ^ .ra: .cfa 8 - ^
STACK CFI INIT 924a0 65 .cfa: $rsp 1280 + $rsp: .cfa 24 - ^ .ra: .cfa 48 - ^ $rbx: .cfa 1136 - ^ $rbp: .cfa 1120 - ^ $rsi: .cfa 1112 - ^ $rdi: .cfa 1104 - ^ $r12: .cfa 1064 - ^ $r13: .cfa 1056 - ^ $r14: .cfa 1048 - ^ $r15: .cfa 1040 - ^
STACK CFI INIT 92510 82 .cfa: $rsp 64 + .ra: .cfa 8 - ^
STACK CFI INIT 925a0 3b .cfa: $rsp 96 + $rsp: .cfa 24 - ^ .ra: .cfa 48 - ^
STACK CFI INIT 925f0 67 .cfa: $rsp 1472 + $rsp: .cfa 24 - ^ .ra: .cfa 48 - ^ $rbx: .cfa 1328 - ^ $rbp: .cfa 1312 - ^ $rsi: .cfa 1304 - ^ $rdi: .cfa 1296 - ^ $r12: .cfa 1256 - ^ $r13: .cfa 1248 - ^ $r14: .cfa 1240 - ^ $r15: .cfa 1232 - ^
STACK CFI INIT 92660 49 .cfa: $rsp 208 + .ra: .cfa 8 - ^
STACK CFI INIT 926c0 70 .cfa: $rsp 16 + .ra: .cfa 8 - ^
STACK CFI INIT 92740 af .cfa: $rsp 16 + .ra: .cfa 8 - ^
STACK CFI INIT 92800 2f7 .cfa: $rbp 80 + $rbp: .cfa 16 - ^ $rsi: .cfa 24 - ^ $rdi: .cfa 32 - ^ .ra: .cfa 8 - ^
STACK CFI INIT 92b00 186 .cfa: $rsp 1280 + $rsp: .cfa 24 - ^ .ra: .cfa 48 - ^ $rbx: .cfa 1136 - ^ $rbp: .cfa 1120 - ^ $rsi: .cfa 1112 - ^ $rdi: .cfa 1104 - ^ $r12: .cfa 1064 - ^ $r13: .cfa 1056 - ^ $r14: .cfa 1048 - ^ $r15: .cfa 1040 - ^
STACK CFI INIT 92ca0 7a .cfa: $rsp 24 + $rdi: .cfa 16 - ^ $rsi: .cfa 24 - ^ .ra: .cfa 8 - ^
STACK CFI INIT 92d20 24 .cfa: $rsp 16 + $rdi: .cfa 16 - ^ .ra: .cfa 8 - ^
STACK CFI INIT 92d50 10e .cfa: $rsp 8 + .ra: .cfa 8 - ^
STACK CFI INIT 92e70 8 .cfa: $rsp 8 + .ra: .cfa 8 - ^
STACK CFI INIT 92e80 e .cfa: $rsp 8 + .ra: .cfa 8 - ^
STACK CFI INIT 92ea0 a .cfa: $rsp 8 + .ra: .cfa 8 - ^
STACK CFI INIT 92ec0 2c .cfa: $rsp 48 + .ra: .cfa 8 - ^
STACK CFI INIT 92f00 38b .cfa: $rsp 8 + .ra: .cfa 8 - ^
STACK CFI INIT 932a0 11 .cfa: $rsp 48 + .ra: .cfa 8 - ^
STACK CFI INIT 932c0 127 .cfa: $rbp 320 + $rbp: $rbp 248 + ^ $rbx: $rbp 256 + ^ $rdi: $rbp 264 + ^ $rsi: $rbp 272 + ^ $r12: $rbp 280 + ^ $r13: $rbp 288 + ^ $r14: $rbp 296 + ^ $r15: $rbp 304 + ^ .ra: .cfa 8 - ^
STACK CFI INIT 93400 4d .cfa: $rsp 24 + .ra: .cfa 8 - ^
STACK CFI INIT 93460 20 .cfa: $rsp 8 + .ra: .cfa 8 - ^
STACK CFI INIT 93490 13 .cfa: $rsp 48 + .ra: .cfa 8 - ^
STACK CFI INIT 934b0 50 .cfa: $rsp 8 + .ra: .cfa 8 - ^
STACK CFI INIT 93510 13 .cfa: $rsp 48 + .ra: .cfa 8 - ^
STACK CFI INIT 93540 b66 .cfa: $rsp 48 + $r12: .cfa 16 - ^ $rbp: .cfa 24 - ^ $rbx: .cfa 32 - ^ $rdi: .cfa 40 - ^ $rsi: .cfa 48 - ^ .ra: .cfa 8 - ^
STACK CFI INIT 940c0 90 .cfa: $rsp 8 + .ra: .cfa 8 - ^
STACK CFI INIT 94160 5 .cfa: $rsp 8 + .ra: .cfa 8 - ^
STACK CFI INIT 94180 90 .cfa: $rsp 8 + .ra: .cfa 8 - ^
STACK CFI INIT 94220 ec .cfa: $rsp 1344 + .ra: .cfa 8 - ^
STACK CFI INIT 94320 10 .cfa: $rsp 16 + .ra: .cfa 8 - ^
STACK CFI INIT 94380 339 .cfa: $rsp 8 + .ra: .cfa 8 - ^
STACK CFI INIT 946c0 f9 .cfa: $rsp 8 + .ra: .cfa 8 - ^
STACK CFI INIT 9f0f6 27 .cfa: $rsp 64 + $rbp: .cfa 16 - ^ .ra: .cfa 8 - ^
STACK CFI INIT 9f11d 52 .cfa: $rsp 64 + $rbp: .cfa 16 - ^ .ra: .cfa 8 - ^
STACK CFI INIT 9f175 5e .cfa: $rsp 64 + $rbx: .cfa 16 - ^ $rbp: .cfa 24 - ^ .ra: .cfa 8 - ^
STACK CFI INIT 9f1d9 52 .cfa: $rsp 64 + $rbp: .cfa 16 - ^ .ra: .cfa 8 - ^
STACK CFI INIT 9f231 1c .cfa: $rsp 48 + $rbp: .cfa 16 - ^ .ra: .cfa 8 - ^
STACK CFI INIT 9f253 1b .cfa: $rsp 48 + $rbp: .cfa 16 - ^ .ra: .cfa 8 - ^
STACK CFI INIT 9f274 21 .cfa: $rsp 64 + $rbp: .cfa 16 - ^ .ra: .cfa 8 - ^
STACK CFI INIT 9f295 4c .cfa: $rsp 64 + $rbp: .cfa 16 - ^ .ra: .cfa 8 - ^
STACK CFI INIT 9f2e1 4c .cfa: $rsp 80 + $rbx: .cfa 16 - ^ $rbp: .cfa 24 - ^ $rdi: .cfa 32 - ^ .ra: .cfa 8 - ^
STACK CFI INIT 9f333 10 .cfa: $rsp 80 + $rbp: .cfa 16 - ^ .ra: .cfa 8 - ^
STACK CFI INIT 9f349 1b .cfa: $rsp 48 + $rbp: .cfa 16 - ^ .ra: .cfa 8 - ^
STACK CFI INIT 9f36a 16 .cfa: $rsp 80 + $rbp: .cfa 16 - ^ .ra: .cfa 8 - ^
STACK CFI INIT 9f380 1a .cfa: $rsp 80 + $rbp: .cfa 16 - ^ .ra: .cfa 8 - ^
STACK CFI INIT 9f3a0 95 .cfa: $rsp 48 + $rbp: .cfa 16 - ^ .ra: .cfa 8 - ^
STACK CFI INIT 9f43b 16 .cfa: $rsp 80 + $rbp: .cfa 16 - ^ .ra: .cfa 8 - ^
STACK CFI INIT 9f457 28 .cfa: $rsp 64 + $rbp: .cfa 16 - ^ .ra: .cfa 8 - ^
STACK CFI INIT 9f485 16 .cfa: $rsp 64 + $rbp: .cfa 16 - ^ .ra: .cfa 8 - ^
STACK CFI INIT 9f4a1 1e .cfa: $rsp 64 + $rbp: .cfa 16 - ^ .ra: .cfa 8 - ^
STACK CFI INIT 9f4c5 8b .cfa: $rsp 96 + $rbx: .cfa 16 - ^ $rbp: .cfa 24 - ^ .ra: .cfa 8 - ^
STACK CFI INIT 9f556 1f .cfa: $rsp 64 + $rbp: .cfa 16 - ^ .ra: .cfa 8 - ^
STACK CFI INIT 9f57b 7c .cfa: $rsp 64 + $rbp: .cfa 16 - ^ .ra: .cfa 8 - ^
STACK CFI INIT 9f5fd 1a .cfa: $rsp 80 + $rbp: .cfa 16 - ^ .ra: .cfa 8 - ^
STACK CFI INIT 9f617 1d .cfa: $rsp 80 + $rbp: .cfa 16 - ^ .ra: .cfa 8 - ^
STACK CFI INIT 9f63a 1d .cfa: $rsp 80 + $rbp: .cfa 16 - ^ .ra: .cfa 8 - ^
STACK CFI INIT 9f657 16 .cfa: $rsp 80 + $rbp: .cfa 16 - ^ .ra: .cfa 8 - ^
STACK CFI INIT 9f673 1a .cfa: $rsp 48 + $rbp: .cfa 16 - ^ .ra: .cfa 8 - ^
STACK CFI INIT 9f68d 1d .cfa: $rsp 48 + $rbp: .cfa 16 - ^ .ra: .cfa 8 - ^
STACK CFI INIT 9f6aa 1d .cfa: $rsp 48 + $rbp: .cfa 16 - ^ .ra: .cfa 8 - ^
STACK CFI INIT 9f6cd 1a .cfa: $rsp 48 + $rbp: .cfa 16 - ^ .ra: .cfa 8 - ^
STACK CFI INIT 9f6e7 1d .cfa: $rsp 48 + $rbp: .cfa 16 - ^ .ra: .cfa 8 - ^
STACK CFI INIT 9f704 1d .cfa: $rsp 48 + $rbp: .cfa 16 - ^ .ra: .cfa 8 - ^
STACK CFI INIT 9f727 7e .cfa: $rsp 64 + $rbp: .cfa 16 - ^ .ra: .cfa 8 - ^
STACK CFI INIT 9f7ab 16 .cfa: $rsp 48 + $rbp: .cfa 16 - ^ .ra: .cfa 8 - ^
STACK CFI INIT 9f7c7 25 .cfa: $rsp 64 + $rbp: .cfa 16 - ^ .ra: .cfa 8 - ^
STACK CFI INIT 9f7f2 16 .cfa: $rsp 80 + $rbp: .cfa 16 - ^ .ra: .cfa 8 - ^
STACK CFI INIT 9f80e 24 .cfa: $rsp 96 + $rbp: .cfa 16 - ^ .ra: .cfa 8 - ^
STACK CFI INIT 9f838 4a .cfa: $rsp 80 + $rbx: .cfa 16 - ^ $rbp: .cfa 24 - ^ .ra: .cfa 8 - ^
STACK CFI INIT 9f888 1c .cfa: $rsp 48 + $rbp: .cfa 16 - ^ .ra: .cfa 8 - ^
STACK CFI INIT 9f8aa 1e .cfa: $rsp 48 + $rbp: .cfa 16 - ^ .ra: .cfa 8 - ^
STACK CFI INIT 9f8c8 4c .cfa: $rsp 48 + $rbp: .cfa 16 - ^ .ra: .cfa 8 - ^
STACK CFI INIT 9f91a 3d .cfa: $rsp 48 + $rbp: .cfa 16 - ^ .ra: .cfa 8 - ^
STACK CFI INIT 9f95d 1b .cfa: $rsp 80 + $rbp: .cfa 16 - ^ .ra: .cfa 8 - ^
STACK CFI INIT 9f97e 1b .cfa: $rsp 48 + $rbp: .cfa 16 - ^ .ra: .cfa 8 - ^
STACK CFI INIT 9f99f 1b .cfa: $rsp 64 + $rbp: .cfa 16 - ^ .ra: .cfa 8 - ^
STACK CFI INIT 9f9c0 40 .cfa: $rsp 64 + $rbx: .cfa 16 - ^ $rbp: .cfa 24 - ^ $rdi: .cfa 32 - ^ .ra: .cfa 8 - ^
STACK CFI INIT 9fa06 16 .cfa: $rsp 48 + $rbp: .cfa 16 - ^ .ra: .cfa 8 - ^
STACK CFI INIT 9fa22 3a .cfa: $rsp 64 + $rbx: .cfa 16 - ^ $rbp: .cfa 24 - ^ $rdi: .cfa 32 - ^ .ra: .cfa 8 - ^
STACK CFI INIT 9fa62 65 .cfa: $rsp 112 + $rbx: .cfa 16 - ^ $rbp: .cfa 24 - ^ .ra: .cfa 8 - ^
STACK CFI INIT 9fad0 30 .cfa: $rsp 96 + $rbp: .cfa 16 - ^ .ra: .cfa 8 - ^
STACK CFI INIT 9fb10 78 .cfa: $rsp 48 + $rbp: .cfa 16 - ^ .ra: .cfa 8 - ^
STACK CFI INIT 9fb90 20 .cfa: $rsp 80 + $rbp: .cfa 16 - ^ .ra: .cfa 8 - ^
STACK CFI INIT 9fbb0 1b .cfa: $rsp 80 + $rbp: .cfa 16 - ^ .ra: .cfa 8 - ^
STACK CFI INIT 9fbcb 20 .cfa: $rsp 80 + $rbp: .cfa 16 - ^ .ra: .cfa 8 - ^
STACK CFI INIT 9fbeb 1b .cfa: $rsp 80 + $rbp: .cfa 16 - ^ .ra: .cfa 8 - ^
STACK CFI INIT 9fc06 20 .cfa: $rsp 80 + $rbp: .cfa 16 - ^ .ra: .cfa 8 - ^
STACK CFI INIT 9fc26 52 .cfa: $rsp 80 + $rbp: .cfa 16 - ^ .ra: .cfa 8 - ^
STACK CFI INIT 9fc7e 49 .cfa: $rsp 80 + $rbx: .cfa 16 - ^ $rbp: .cfa 24 - ^ $rdi: .cfa 32 - ^ .ra: .cfa 8 - ^
STACK CFI INIT 9fcd0 4b .cfa: $rsp 80 + $rbp: .cfa 16 - ^ $rdi: .cfa 24 - ^ .ra: .cfa 8 - ^
STACK CFI INIT 9fd30 5c .cfa: $rsp 96 + $rbp: .cfa 16 - ^ $rdi: .cfa 24 - ^ .ra: .cfa 8 - ^
STACK CFI INIT 9fda0 21 .cfa: $rsp 64 + $rbp: .cfa 16 - ^ .ra: .cfa 8 - ^
STACK CFI INIT 9fdc1 1d .cfa: $rsp 64 + $rbp: .cfa 16 - ^ .ra: .cfa 8 - ^
STACK CFI INIT 9fdde 21 .cfa: $rsp 64 + $rbp: .cfa 16 - ^ .ra: .cfa 8 - ^
STACK CFI INIT 9fdff 21 .cfa: $rsp 64 + $rbp: .cfa 16 - ^ .ra: .cfa 8 - ^
STACK CFI INIT 9fe20 21 .cfa: $rsp 64 + $rbp: .cfa 16 - ^ .ra: .cfa 8 - ^
STACK CFI INIT 9fe41 21 .cfa: $rsp 64 + $rbp: .cfa 16 - ^ .ra: .cfa 8 - ^
STACK CFI INIT 9fe62 21 .cfa: $rsp 64 + $rbp: .cfa 16 - ^ .ra: .cfa 8 - ^
STACK CFI INIT 9fe83 fd .cfa: $rsp 80 + $rbx: .cfa 16 - ^ $rbp: .cfa 24 - ^ .ra: .cfa 8 - ^
STACK CFI INIT 9ff80 21 .cfa: $rsp 64 + $rbp: .cfa 16 - ^ .ra: .cfa 8 - ^
STACK CFI INIT 9ffa1 1d .cfa: $rsp 64 + $rbp: .cfa 16 - ^ .ra: .cfa 8 - ^
STACK CFI INIT 9ffbe 35 .cfa: $rsp 64 + $rbp: .cfa 16 - ^ .ra: .cfa 8 - ^
STACK CFI INIT 9fff3 97 .cfa: $rsp 64 + $rbp: .cfa 16 - ^ .ra: .cfa 8 - ^
STACK CFI INIT a0090 23 .cfa: $rsp 80 + $rbp: .cfa 16 - ^ .ra: .cfa 8 - ^
STACK CFI INIT a00b3 20 .cfa: $rsp 80 + $rbp: .cfa 16 - ^ .ra: .cfa 8 - ^
STACK CFI INIT a00e0 1d .cfa: $rsp 80 + $rbp: .cfa 16 - ^ .ra: .cfa 8 - ^
STACK CFI INIT a0110 1d .cfa: $rsp 48 + $rbp: .cfa 16 - ^ .ra: .cfa 8 - ^
STACK CFI INIT a0133 1b .cfa: $rsp 48 + $rbp: .cfa 16 - ^ .ra: .cfa 8 - ^
STACK CFI INIT a0154 1b .cfa: $rsp 48 + $rbp: .cfa 16 - ^ .ra: .cfa 8 - ^
STACK CFI INIT a016f 27 .cfa: $rsp 48 + $rbp: .cfa 16 - ^ .ra: .cfa 8 - ^
STACK CFI INIT a019c 1b .cfa: $rsp 48 + $rbp: .cfa 16 - ^ .ra: .cfa 8 - ^
STACK CFI INIT a01bd 21 .cfa: $rsp 48 + $rbp: .cfa 16 - ^ .ra: .cfa 8 - ^
STACK CFI INIT a01de 4c .cfa: $rsp 48 + $rbp: .cfa 16 - ^ .ra: .cfa 8 - ^
STACK CFI INIT a0230 25 .cfa: $rsp 48 + $rbp: .cfa 16 - ^ .ra: .cfa 8 - ^
STACK CFI INIT a0255 1d .cfa: $rsp 48 + $rbp: .cfa 16 - ^ .ra: .cfa 8 - ^
STACK CFI INIT a0278 18 .cfa: $rsp 48 + $rbp: .cfa 16 - ^ .ra: .cfa 8 - ^
STACK CFI INIT a0296 27 .cfa: $rsp 64 + $rbp: .cfa 16 - ^ .ra: .cfa 8 - ^
STACK CFI INIT a02c3 25 .cfa: $rsp 80 + $rbp: .cfa 16 - ^ .ra: .cfa 8 - ^
STACK CFI INIT a02e8 1d .cfa: $rsp 80 + $rbp: .cfa 16 - ^ .ra: .cfa 8 - ^
STACK CFI INIT a0305 72 .cfa: $rsp 80 + $rbp: .cfa 16 - ^ .ra: .cfa 8 - ^
STACK CFI INIT a0377 38 .cfa: $rsp 80 + $rbp: .cfa 16 - ^ .ra: .cfa 8 - ^
STACK CFI INIT a03b5 1f .cfa: $rsp 80 + $rbp: .cfa 16 - ^ .ra: .cfa 8 - ^
STACK CFI INIT a03d4 33 .cfa: $rsp 80 + $rbp: .cfa 16 - ^ .ra: .cfa 8 - ^
STACK CFI INIT a040d 18 .cfa: $rsp 48 + $rbp: .cfa 16 - ^ .ra: .cfa 8 - ^
STACK CFI INIT a0425 18 .cfa: $rsp 48 + $rbp: .cfa 16 - ^ .ra: .cfa 8 - ^
STACK CFI INIT a0443 22 .cfa: $rsp 48 + $rbp: .cfa 16 - ^ .ra: .cfa 8 - ^
STACK CFI INIT a0465 1a .cfa: $rsp 48 + $rbp: .cfa 16 - ^ .ra: .cfa 8 - ^
STACK CFI INIT a0485 27 .cfa: $rsp 96 + $rbp: .cfa 16 - ^ .ra: .cfa 8 - ^
STACK CFI INIT a04b2 16 .cfa: $rsp 48 + $rbp: .cfa 16 - ^ .ra: .cfa 8 - ^
STACK CFI INIT a04ce 35 .cfa: $rsp 80 + $rbp: .cfa 16 - ^ .ra: .cfa 8 - ^
STACK CFI INIT a0509 28 .cfa: $rsp 64 + $rbp: .cfa 16 - ^ .ra: .cfa 8 - ^
STACK CFI INIT a0537 2e .cfa: $rsp 112 + $rbp: .cfa 16 - ^ .ra: .cfa 8 - ^
STACK CFI INIT a056b 25 .cfa: $rsp 48 + $rbp: .cfa 16 - ^ .ra: .cfa 8 - ^
STACK CFI INIT a0596 21 .cfa: $rsp 48 + $rbp: .cfa 16 - ^ .ra: .cfa 8 - ^
STACK CFI INIT a05b7 21 .cfa: $rsp 48 + $rbp: .cfa 16 - ^ .ra: .cfa 8 - ^
STACK CFI INIT a05e0 43 .cfa: $rsp 48 + $rbp: .cfa 16 - ^ .ra: .cfa 8 - ^
STACK CFI INIT a0629 1d .cfa: $rsp 64 + $rbp: .cfa 16 - ^ .ra: .cfa 8 - ^
STACK CFI INIT a064c 1d .cfa: $rsp 48 + $rbp: .cfa 16 - ^ .ra: .cfa 8 - ^
STACK CFI INIT a066f 1d .cfa: $rsp 80 + $rbp: .cfa 16 - ^ .ra: .cfa 8 - ^
STACK CFI INIT a0692 1b .cfa: $rsp 48 + $rbp: .cfa 16 - ^ .ra: .cfa 8 - ^
STACK CFI INIT a06b3 49 .cfa: $rsp 80 + $rbx: .cfa 16 - ^ $rbp: .cfa 24 - ^ $rdi: .cfa 32 - ^ .ra: .cfa 8 - ^
STACK CFI INIT a0702 4c .cfa: $rsp 80 + $rbx: .cfa 16 - ^ $rbp: .cfa 24 - ^ $rdi: .cfa 32 - ^ .ra: .cfa 8 - ^
STACK CFI INIT a0754 16 .cfa: $rsp 80 + $rbp: .cfa 16 - ^ .ra: .cfa 8 - ^
STACK CFI INIT a0770 1b .cfa: $rsp 48 + $rbp: .cfa 16 - ^ .ra: .cfa 8 - ^
STACK CFI INIT a0791 1b .cfa: $rsp 48 + $rbp: .cfa 16 - ^ .ra: .cfa 8 - ^
STACK CFI INIT a07b2 3d .cfa: $rsp 64 + $rbx: .cfa 16 - ^ $rbp: .cfa 24 - ^ $rdi: .cfa 32 - ^ .ra: .cfa 8 - ^
STACK CFI INIT a07f5 38 .cfa: $rsp 48 + $rbp: .cfa 16 - ^ .ra: .cfa 8 - ^
STACK CFI INIT a0833 23 .cfa: $rsp 48 + $rbp: .cfa 16 - ^ .ra: .cfa 8 - ^
STACK CFI INIT a085c 40 .cfa: $rsp 64 + $rbx: .cfa 16 - ^ $rbp: .cfa 24 - ^ $rdi: .cfa 32 - ^ .ra: .cfa 8 - ^
STACK CFI INIT a08a2 1b .cfa: $rsp 64 + $rbp: .cfa 16 - ^ .ra: .cfa 8 - ^
STACK CFI INIT a08bd 46 .cfa: $rsp 64 + $rbp: .cfa 16 - ^ .ra: .cfa 8 - ^
STACK CFI INIT a0909 1b .cfa: $rsp 64 + $rbp: .cfa 16 - ^ .ra: .cfa 8 - ^
STACK CFI INIT a092a 4f .cfa: $rsp 64 + $rbp: .cfa 16 - ^ .ra: .cfa 8 - ^
STACK CFI INIT a097f 1d .cfa: $rsp 96 + $rbp: .cfa 16 - ^ .ra: .cfa 8 - ^
STACK CFI INIT a099c 3f .cfa: $rsp 112 + $rbx: .cfa 16 - ^ $rbp: .cfa 24 - ^ .ra: .cfa 8 - ^
STACK CFI INIT a09db f1 .cfa: $rsp 96 + $rbp: .cfa 16 - ^ .ra: .cfa 8 - ^
STACK CFI INIT a0ad2 1e .cfa: $rsp 48 + $rbp: .cfa 16 - ^ .ra: .cfa 8 - ^
STACK CFI INIT a0af0 3a .cfa: $rsp 64 + $rbx: .cfa 16 - ^ $rbp: .cfa 24 - ^ $rdi: .cfa 32 - ^ .ra: .cfa 8 - ^
STACK CFI INIT a0b2a 1c .cfa: $rsp 48 + $rbp: .cfa 16 - ^ .ra: .cfa 8 - ^
STACK CFI INIT a0b4c 1e .cfa: $rsp 48 + $rbp: .cfa 16 - ^ .ra: .cfa 8 - ^
STACK CFI INIT a0b6a 1a .cfa: $rsp 48 + $rbp: .cfa 16 - ^ .ra: .cfa 8 - ^
STACK CFI INIT a0b8a 38 .cfa: $rsp 48 + $rbp: .cfa 16 - ^ .ra: .cfa 8 - ^
STACK CFI INIT a0bc8 38 .cfa: $rsp 48 + $rbp: .cfa 16 - ^ .ra: .cfa 8 - ^
STACK CFI INIT a0c06 1d .cfa: $rsp 64 + $rbp: .cfa 16 - ^ .ra: .cfa 8 - ^
STACK CFI INIT a0c29 1c .cfa: $rsp 48 + $rbp: .cfa 16 - ^ .ra: .cfa 8 - ^
STACK CFI INIT a0c4b 49 .cfa: $rsp 80 + $rbx: .cfa 16 - ^ $rbp: .cfa 24 - ^ $rdi: .cfa 32 - ^ .ra: .cfa 8 - ^
STACK CFI INIT a0c9a 49 .cfa: $rsp 80 + $rbx: .cfa 16 - ^ $rbp: .cfa 24 - ^ $rdi: .cfa 32 - ^ .ra: .cfa 8 - ^
STACK CFI INIT a0ce9 1d .cfa: $rsp 48 + $rbp: .cfa 16 - ^ .ra: .cfa 8 - ^
STACK CFI INIT a0d0c 16 .cfa: $rsp 64 + $rbp: .cfa 16 - ^ .ra: .cfa 8 - ^
STACK CFI INIT a0d28 1d .cfa: $rsp 48 + $rbp: .cfa 16 - ^ .ra: .cfa 8 - ^
STACK CFI INIT a0d4b 1d .cfa: $rsp 96 + $rbp: .cfa 16 - ^ .ra: .cfa 8 - ^
STACK CFI INIT a0d6e 27 .cfa: $rsp 48 + $rbp: .cfa 16 - ^ .ra: .cfa 8 - ^
STACK CFI INIT a0d9b 2e .cfa: $rsp 64 + $rbp: .cfa 16 - ^ .ra: .cfa 8 - ^
STACK CFI INIT a0dc9 58 .cfa: $rsp 64 + $rbp: .cfa 16 - ^ .ra: .cfa 8 - ^
STACK CFI INIT a0e27 1c .cfa: $rsp 48 + $rbp: .cfa 16 - ^ .ra: .cfa 8 - ^
STACK CFI INIT a0e49 33 .cfa: $rsp 64 + $rbp: .cfa 16 - ^ .ra: .cfa 8 - ^
STACK CFI INIT a0e7c 30 .cfa: $rsp 64 + $rbp: .cfa 16 - ^ .ra: .cfa 8 - ^
STACK CFI INIT a0eac 30 .cfa: $rsp 64 + $rbp: .cfa 16 - ^ .ra: .cfa 8 - ^
STACK CFI INIT a0edc 1f .cfa: $rsp 64 + $rbp: .cfa 16 - ^ .ra: .cfa 8 - ^
STACK CFI INIT a0efb 1a .cfa: $rsp 64 + $rbp: .cfa 16 - ^ .ra: .cfa 8 - ^
STACK CFI INIT a0f1b 20 .cfa: $rsp 48 + $rbp: .cfa 16 - ^ .ra: .cfa 8 - ^
STACK CFI INIT a0f41 21 .cfa: $rsp 64 + $rbp: .cfa 16 - ^ .ra: .cfa 8 - ^
STACK CFI INIT a0f68 1b .cfa: $rsp 48 + $rbp: .cfa 16 - ^ .ra: .cfa 8 - ^
STACK CFI INIT a0f89 1b .cfa: $rsp 48 + $rbp: .cfa 16 - ^ .ra: .cfa 8 - ^
STACK CFI INIT a0faa 1a .cfa: $rsp 48 + $rbp: .cfa 16 - ^ .ra: .cfa 8 - ^
STACK CFI INIT a0fca 41 .cfa: $rsp 48 + $rbp: .cfa 16 - ^ .ra: .cfa 8 - ^
STACK CFI INIT a1011 1e .cfa: $rsp 48 + $rbp: .cfa 16 - ^ .ra: .cfa 8 - ^
STACK CFI INIT a102f 1a .cfa: $rsp 48 + $rbp: .cfa 16 - ^ .ra: .cfa 8 - ^
STACK CFI INIT a104f 1d .cfa: $rsp 80 + $rbp: .cfa 16 - ^ .ra: .cfa 8 - ^
STACK CFI INIT a1072 1d .cfa: $rsp 96 + $rbp: .cfa 16 - ^ .ra: .cfa 8 - ^
STACK CFI INIT a1095 1e .cfa: $rsp 48 + $rbp: .cfa 16 - ^ .ra: .cfa 8 - ^
STACK CFI INIT a10b3 1d .cfa: $rsp 48 + $rbp: .cfa 16 - ^ .ra: .cfa 8 - ^
STACK CFI INIT a10d6 26 .cfa: $rsp 48 + $rbp: .cfa 16 - ^ .ra: .cfa 8 - ^
STACK CFI INIT a1102 30 .cfa: $rsp 80 + $rbp: .cfa 16 - ^ .ra: .cfa 8 - ^
STACK CFI INIT a1138 1b .cfa: $rsp 48 + $rbp: .cfa 16 - ^ .ra: .cfa 8 - ^
STACK CFI INIT a1153 27 .cfa: $rsp 48 + $rbp: .cfa 16 - ^ .ra: .cfa 8 - ^
STACK CFI INIT a1180 1b .cfa: $rsp 48 + $rbp: .cfa 16 - ^ .ra: .cfa 8 - ^
STACK CFI INIT a11a1 1b .cfa: $rsp 48 + $rbp: .cfa 16 - ^ .ra: .cfa 8 - ^
STACK CFI INIT a11c2 12 .cfa: $rsp 64 + $rbp: .cfa 16 - ^ .ra: .cfa 8 - ^
STACK CFI INIT a11d4 12 .cfa: $rsp 64 + $rbp: .cfa 16 - ^ .ra: .cfa 8 - ^
STACK CFI INIT a11ec 1d .cfa: $rsp 48 + $rbp: .cfa 16 - ^ .ra: .cfa 8 - ^
STACK CFI INIT a1209 1a .cfa: $rsp 48 + $rbp: .cfa 16 - ^ .ra: .cfa 8 - ^
STACK CFI INIT a1229 3d .cfa: $rsp 48 + $rbp: .cfa 16 - ^ .ra: .cfa 8 - ^
STACK CFI INIT a126c 4c .cfa: $rsp 48 + $rbp: .cfa 16 - ^ .ra: .cfa 8 - ^
STACK CFI INIT a12be 1d .cfa: $rsp 96 + $rbp: .cfa 16 - ^ .ra: .cfa 8 - ^
STACK CFI INIT a12db 1d .cfa: $rsp 96 + $rbp: .cfa 16 - ^ .ra: .cfa 8 - ^
STACK CFI INIT a12f8 1e .cfa: $rsp 96 + $rbp: .cfa 16 - ^ .ra: .cfa 8 - ^
STACK CFI INIT a1316 56 .cfa: $rsp 96 + $rbp: .cfa 16 - ^ .ra: .cfa 8 - ^
STACK CFI INIT a1372 21 .cfa: $rsp 64 + $rbp: .cfa 16 - ^ .ra: .cfa 8 - ^
STACK CFI INIT a1399 29 .cfa: $rsp 80 + $rbp: .cfa 16 - ^ .ra: .cfa 8 - ^
STACK CFI INIT a13c8 1b .cfa: $rsp 48 + $rbp: .cfa 16 - ^ .ra: .cfa 8 - ^
STACK CFI INIT a13e9 22 .cfa: $rsp 48 + $rbp: .cfa 16 - ^ .ra: .cfa 8 - ^
STACK CFI INIT a1411 1b .cfa: $rsp 48 + $rbp: .cfa 16 - ^ .ra: .cfa 8 - ^
STACK CFI INIT a1432 1d .cfa: $rsp 48 + $rbp: .cfa 16 - ^ .ra: .cfa 8 - ^
STACK CFI INIT a1455 4f .cfa: $rsp 80 + $rbx: .cfa 16 - ^ $rbp: .cfa 24 - ^ .ra: .cfa 8 - ^
STACK CFI INIT a14aa 88 .cfa: $rsp 48 + $rbp: .cfa 16 - ^ .ra: .cfa 8 - ^
STACK CFI INIT a1538 2c .cfa: $rsp 48 + $rbp: .cfa 16 - ^ .ra: .cfa 8 - ^
STACK CFI INIT a156a 18 .cfa: $rsp 80 + $rbp: .cfa 16 - ^ .ra: .cfa 8 - ^
STACK CFI INIT a1590 f2 .cfa: $rsp 112 + $rbx: .cfa 16 - ^ $rbp: .cfa 24 - ^ $rdi: .cfa 32 - ^ .ra: .cfa 8 - ^
STACK CFI INIT a1682 20 .cfa: $rsp 112 + $rdi: .cfa 16 - ^ $r12: .cfa 24 - ^ $r13: .cfa 32 - ^ $r14: .cfa 40 - ^ $r15: .cfa 48 - ^ $rbx: .cfa 0 - ^ $rbp: .cfa 0 - ^ $rsi: .cfa 0 - ^ .ra: .cfa 8 - ^
STACK CFI INIT a16a2 2b .cfa: $rsp 128 + $rbx: .cfa 16 - ^ $rbp: .cfa 24 - ^ $rsi: .cfa 32 - ^ $rdi: .cfa 40 - ^ $r12: .cfa 48 - ^ $r13: .cfa 56 - ^ $r14: .cfa 64 - ^ $r15: .cfa 72 - ^ .ra: .cfa 8 - ^
STACK CFI INIT a16ce 14 .cfa: $rsp 64 + $rdi: .cfa 16 - ^ $rbx: .cfa 0 - ^ $rbp: .cfa 0 - ^ $rsi: .cfa 0 - ^ .ra: .cfa 8 - ^
STACK CFI INIT a16e2 4a .cfa: $rsp 96 + $rsi: .cfa 16 - ^ $rdi: .cfa 24 - ^ $r12: .cfa 32 - ^ $r14: .cfa 40 - ^ $r15: .cfa 48 - ^ $rbx: .cfa 0 - ^ $rbp: .cfa 0 - ^ .ra: .cfa 8 - ^
STACK CFI INIT a172c 1e .cfa: $rsp 64 + $rdi: .cfa 16 - ^ $r14: .cfa 24 - ^ $r15: .cfa 32 - ^ $rbx: .cfa 0 - ^ $rbp: .cfa 0 - ^ $rsi: .cfa 0 - ^ .ra: .cfa 8 - ^
STACK CFI INIT a1766 19 .cfa: $rsp 48 + $r14: .cfa 16 - ^ $rbx: .cfa 0 - ^ $rsi: .cfa 0 - ^ $rdi: .cfa 0 - ^ .ra: .cfa 8 - ^
STACK CFI INIT a1780 e .cfa: $rsp 8 + $rbx: .cfa 0 - ^ .ra: .cfa 8 - ^
STACK CFI INIT a178e 4a .cfa: $rsp 112 + $rdi: .cfa 16 - ^ $r12: .cfa 24 - ^ $r13: .cfa 32 - ^ $r14: .cfa 40 - ^ $r15: .cfa 48 - ^ $rbx: .cfa 0 - ^ $rsi: .cfa 0 - ^ .ra: .cfa 8 - ^
STACK CFI INIT a17d8 50 .cfa: $rsp 176 + $rbp: .cfa 16 - ^ $rsi: .cfa 24 - ^ $rdi: .cfa 32 - ^ $r14: .cfa 40 - ^ $r15: .cfa 48 - ^ $rbx: .cfa 0 - ^ .ra: .cfa 8 - ^
STACK CFI INIT a1828 29 .cfa: $rsp 48 + $rdi: .cfa 16 - ^ $rbx: .cfa 0 - ^ $rsi: .cfa 0 - ^ .ra: .cfa 8 - ^
STACK CFI INIT a1852 7a .cfa: $rsp 752 + $rbp: .cfa 16 - ^ $r14: .cfa 24 - ^ $r15: .cfa 32 - ^ $rbx: .cfa 0 - ^ $rsi: .cfa 0 - ^ $rdi: .cfa 0 - ^ .ra: .cfa 8 - ^
STACK CFI INIT a18cc a .cfa: $rsp 48 + $rdi: .cfa 16 - ^ $rbx: .cfa 0 - ^ .ra: .cfa 8 - ^
STACK CFI INIT a18d6 41 .cfa: $rsp 48 + $rdi: .cfa 16 - ^ $rbx: .cfa 0 - ^ .ra: .cfa 8 - ^
STACK CFI INIT a1918 20 .cfa: $rsp 64 + $rdi: .cfa 16 - ^ $rbx: .cfa 0 - ^ .ra: .cfa 8 - ^
STACK CFI INIT a1938 4d .cfa: $rsp 112 + $rsi: .cfa 16 - ^ $rdi: .cfa 24 - ^ $r12: .cfa 32 - ^ $r14: .cfa 40 - ^ $r15: .cfa 48 - ^ $rbx: .cfa 0 - ^ .ra: .cfa 8 - ^
STACK CFI INIT a1986 7 .cfa: $rsp 80 + $r14: .cfa 16 - ^ $rbx: .cfa 0 - ^ $rbp: .cfa 0 - ^ $rsi: .cfa 0 - ^ $rdi: .cfa 0 - ^ .ra: .cfa 8 - ^
STACK CFI INIT a19b0 12 .cfa: $rsp 256 + $rbp: .cfa 16 - ^ $rbx: .cfa 0 - ^ $rsi: .cfa 0 - ^ $rdi: .cfa 0 - ^ .ra: .cfa 8 - ^
STACK CFI INIT a19c2 a .cfa: $rsp 96 + $rdi: .cfa 16 - ^ $rbx: .cfa 0 - ^ $rbp: .cfa 0 - ^ $rsi: .cfa 0 - ^ .ra: .cfa 8 - ^
STACK CFI INIT a19cc 53 .cfa: $rsp 64 + $rdi: .cfa 16 - ^ $r14: .cfa 24 - ^ $r15: .cfa 32 - ^ $rbx: .cfa 0 - ^ $rbp: .cfa 0 - ^ $rsi: .cfa 0 - ^ .ra: .cfa 8 - ^
STACK CFI INIT a1a20 83 .cfa: $rsp 64 + $rdi: .cfa 16 - ^ $r12: .cfa 24 - ^ $r14: .cfa 32 - ^ $rbx: .cfa 0 - ^ $rbp: .cfa 0 - ^ $rsi: .cfa 0 - ^ .ra: .cfa 8 - ^
STACK CFI INIT a1aa4 4b .cfa: $rsp 64 + $rdi: .cfa 16 - ^ $rbx: .cfa 0 - ^ $rbp: .cfa 0 - ^ $rsi: .cfa 0 - ^ .ra: .cfa 8 - ^
STACK CFI INIT a1af0 14 .cfa: $rsp 112 + $rsi: .cfa 16 - ^ $rdi: .cfa 24 - ^ $r14: .cfa 32 - ^ $rbx: .cfa 0 - ^ $rbp: .cfa 0 - ^ .ra: .cfa 8 - ^
STACK CFI INIT a1b04 a .cfa: $rsp 64 + $rdi: .cfa 16 - ^ $rbx: .cfa 0 - ^ $rsi: .cfa 0 - ^ .ra: .cfa 8 - ^
STACK CFI INIT a1b0e 4f .cfa: $rsp 96 + $rdi: .cfa 16 - ^ $r14: .cfa 24 - ^ $r15: .cfa 32 - ^ $rbx: .cfa 0 - ^ $rsi: .cfa 0 - ^ .ra: .cfa 8 - ^
STACK CFI INIT a1b5e 66 .cfa: $rsp 64 + $rdi: .cfa 16 - ^ $rbx: .cfa 0 - ^ $rbp: .cfa 0 - ^ $rsi: .cfa 0 - ^ .ra: .cfa 8 - ^
STACK CFI INIT a1bc4 28 .cfa: $rsp 64 + $rbx: .cfa 16 - ^ $rsi: .cfa 24 - ^ $rdi: .cfa 32 - ^ .ra: .cfa 8 - ^
STACK CFI INIT a1bec 2b .cfa: $rsp 96 + $rdi: .cfa 16 - ^ $r14: .cfa 24 - ^ $r15: .cfa 32 - ^ $rbx: .cfa 0 - ^ $rbp: .cfa 0 - ^ $rsi: .cfa 0 - ^ .ra: .cfa 8 - ^
STACK CFI INIT a1c18 137 .cfa: $rsp 128 + $rsi: .cfa 16 - ^ $rdi: .cfa 24 - ^ $r12: .cfa 32 - ^ $r14: .cfa 40 - ^ $r15: .cfa 48 - ^ $rbx: .cfa 0 - ^ $rbp: .cfa 0 - ^ .ra: .cfa 8 - ^
STACK CFI INIT a1d50 64 .cfa: $rsp 224 + $rbx: .cfa 16 - ^ $rsi: .cfa 24 - ^ $rdi: .cfa 32 - ^ $r12: .cfa 40 - ^ $r13: .cfa 48 - ^ $r14: .cfa 56 - ^ $r15: .cfa 64 - ^ .ra: .cfa 8 - ^
STACK CFI INIT a1db4 1a .cfa: $rsp 48 + $rdi: .cfa 16 - ^ $rbx: .cfa 0 - ^ .ra: .cfa 8 - ^
STACK CFI INIT a1dce 89 .cfa: $rsp 80 + $r12: .cfa 16 - ^ $r14: .cfa 24 - ^ $r15: .cfa 32 - ^ $rbx: .cfa 0 - ^ $rbp: .cfa 0 - ^ $rsi: .cfa 0 - ^ $rdi: .cfa 0 - ^ .ra: .cfa 8 - ^
STACK CFI INIT a1e58 47 .cfa: $rsp 80 + $rdi: .cfa 16 - ^ $r14: .cfa 24 - ^ $r15: .cfa 32 - ^ $rbx: .cfa 0 - ^ $rbp: .cfa 0 - ^ $rsi: .cfa 0 - ^ .ra: .cfa 8 - ^
STACK CFI INIT a1ea0 7 .cfa: $rsp 96 + $rdi: .cfa 16 - ^ $r12: .cfa 24 - ^ $r13: .cfa 32 - ^ $r14: .cfa 40 - ^ $r15: .cfa 48 - ^ $rbx: .cfa 0 - ^ $rsi: .cfa 0 - ^ .ra: .cfa 8 - ^
STACK CFI INIT a1ea8 45 .cfa: $rsp 176 + $rdi: .cfa 16 - ^ $r14: .cfa 24 - ^ $r15: .cfa 32 - ^ $rbx: .cfa 0 - ^ $rsi: .cfa 0 - ^ .ra: .cfa 8 - ^
STACK CFI INIT a1eee 2e .cfa: $rsp 96 + $rsi: .cfa 16 - ^ $rdi: .cfa 24 - ^ $r14: .cfa 32 - ^ $rbx: .cfa 0 - ^ $rbp: .cfa 0 - ^ .ra: .cfa 8 - ^
STACK CFI INIT a1f1c 7 .cfa: $rsp 48 + $rdi: .cfa 16 - ^ $rbx: .cfa 0 - ^ $rbp: .cfa 0 - ^ $rsi: .cfa 0 - ^ .ra: .cfa 8 - ^
STACK CFI INIT a1f24 ee .cfa: $rsp 2976 + $rbp: .cfa 16 - ^ $rsi: .cfa 24 - ^ $rdi: .cfa 32 - ^ $r12: .cfa 40 - ^ $r13: .cfa 48 - ^ $r14: .cfa 56 - ^ $r15: .cfa 64 - ^ $rbx: .cfa 0 - ^ .ra: .cfa 8 - ^
STACK CFI INIT a2012 da .cfa: $rsp 240 + $rdi: .cfa 16 - ^ $rbx: .cfa 0 - ^ $rsi: .cfa 0 - ^ .ra: .cfa 8 - ^
STACK CFI INIT a20ec 15 .cfa: $rsp 48 + $rdi: .cfa 16 - ^ $rbx: .cfa 0 - ^ .ra: .cfa 8 - ^
STACK CFI INIT a2102 119 .cfa: $rsp 336 + $rdi: .cfa 16 - ^ $rbx: .cfa 0 - ^ .ra: .cfa 8 - ^
STACK CFI INIT a221c e1 .cfa: $rsp 416 + $rbp: .cfa 16 - ^ $r12: .cfa 24 - ^ $r13: .cfa 32 - ^ $r14: .cfa 40 - ^ $r15: .cfa 48 - ^ $rbx: .cfa 0 - ^ $rsi: .cfa 0 - ^ $rdi: .cfa 0 - ^ .ra: .cfa 8 - ^
STACK CFI INIT a22fe 1b .cfa: $rsp 128 + $rsi: .cfa 16 - ^ $rdi: .cfa 24 - ^ $r14: .cfa 32 - ^ $rbx: .cfa 0 - ^ .ra: .cfa 8 - ^
STACK CFI INIT a231a 4a .cfa: $rsp 64 + $rdi: .cfa 16 - ^ $rbx: .cfa 0 - ^ $rsi: .cfa 0 - ^ .ra: .cfa 8 - ^
STACK CFI INIT a2364 b .cfa: $rsp 48 + $rdi: .cfa 16 - ^ $rbx: .cfa 0 - ^ .ra: .cfa 8 - ^
STACK CFI INIT a2370 2ff .cfa: $rsp 112 + $rdi: .cfa 16 - ^ $r12: .cfa 24 - ^ $r13: .cfa 32 - ^ $r14: .cfa 40 - ^ $r15: .cfa 48 - ^ $rbx: .cfa 0 - ^ $rsi: .cfa 0 - ^ .ra: .cfa 8 - ^
STACK CFI INIT a2670 66 .cfa: $rsp 64 + $rdi: .cfa 16 - ^ $rbx: .cfa 0 - ^ $rbp: .cfa 0 - ^ $rsi: .cfa 0 - ^ .ra: .cfa 8 - ^
STACK CFI INIT a26d6 37 .cfa: $rsp 160 + $rbp: .cfa 16 - ^ $rsi: .cfa 24 - ^ $rdi: .cfa 32 - ^ $r14: .cfa 40 - ^ $r15: .cfa 48 - ^ $rbx: .cfa 0 - ^ .ra: .cfa 8 - ^
STACK CFI INIT a270e 6d .cfa: $rsp 64 + $rsi: .cfa 16 - ^ $rdi: .cfa 24 - ^ $r14: .cfa 32 - ^ $rbx: .cfa 0 - ^ $rbp: .cfa 0 - ^ .ra: .cfa 8 - ^
STACK CFI INIT a277c d5 .cfa: $rsp 96 + $rdi: .cfa 16 - ^ $r12: .cfa 24 - ^ $r13: .cfa 32 - ^ $r14: .cfa 40 - ^ $r15: .cfa 48 - ^ $rbx: .cfa 0 - ^ $rbp: .cfa 0 - ^ $rsi: .cfa 0 - ^ .ra: .cfa 8 - ^
STACK CFI INIT a2852 27 .cfa: $rsp 64 + $rdi: .cfa 16 - ^ $rbx: .cfa 0 - ^ .ra: .cfa 8 - ^
STACK CFI INIT a287a 41 .cfa: $rsp 48 + $rdi: .cfa 16 - ^ $rbx: .cfa 0 - ^ $rbp: .cfa 0 - ^ $rsi: .cfa 0 - ^ .ra: .cfa 8 - ^
STACK CFI INIT a28bc 7f .cfa: $rsp 64 + $rdi: .cfa 16 - ^ $rbx: .cfa 0 - ^ $rbp: .cfa 0 - ^ $rsi: .cfa 0 - ^ .ra: .cfa 8 - ^
STACK CFI INIT a293c a .cfa: $rsp 80 + $rdi: .cfa 16 - ^ $r12: .cfa 24 - ^ $r13: .cfa 32 - ^ $r14: .cfa 40 - ^ $r15: .cfa 48 - ^ $rbx: .cfa 0 - ^ $rbp: .cfa 0 - ^ $rsi: .cfa 0 - ^ .ra: .cfa 8 - ^
STACK CFI INIT a2946 77 .cfa: $rsp 240 + $rdi: .cfa 16 - ^ $r12: .cfa 24 - ^ $r13: .cfa 32 - ^ $r14: .cfa 40 - ^ $r15: .cfa 48 - ^ $rbx: .cfa 0 - ^ $rsi: .cfa 0 - ^ .ra: .cfa 8 - ^
STACK CFI INIT a29be a .cfa: $rsp 48 + $rdi: .cfa 16 - ^ $rbx: .cfa 0 - ^ .ra: .cfa 8 - ^
STACK CFI INIT a29c8 7b .cfa: $rsp 96 + $rsi: .cfa 16 - ^ $rdi: .cfa 24 - ^ $r14: .cfa 32 - ^ $rbx: .cfa 0 - ^ $rbp: .cfa 0 - ^ .ra: .cfa 8 - ^
STACK CFI INIT a2a44 17 .cfa: $rsp 48 + $rdi: .cfa 16 - ^ $rbx: .cfa 0 - ^ .ra: .cfa 8 - ^
STACK CFI INIT a2a5c 63 .cfa: $rsp 144 + $rsi: .cfa 16 - ^ $rdi: .cfa 24 - ^ $r12: .cfa 32 - ^ $r14: .cfa 40 - ^ $r15: .cfa 48 - ^ $rbx: .cfa 0 - ^ .ra: .cfa 8 - ^
STACK CFI INIT a2ac0 157 .cfa: $rsp 96 + $rdi: .cfa 16 - ^ $r14: .cfa 24 - ^ $r15: .cfa 32 - ^ $rbx: .cfa 0 - ^ $rbp: .cfa 0 - ^ $rsi: .cfa 0 - ^ .ra: .cfa 8 - ^
STACK CFI INIT a2c18 1f .cfa: $rsp 656 + $rbp: .cfa 16 - ^ $rsi: .cfa 24 - ^ $rdi: .cfa 32 - ^ $r14: .cfa 40 - ^ $r15: .cfa 48 - ^ $rbx: .cfa 0 - ^ .ra: .cfa 8 - ^
STACK CFI INIT a2c38 26 .cfa: $rsp 48 + $rdi: .cfa 16 - ^ $rbx: .cfa 0 - ^ $rsi: .cfa 0 - ^ .ra: .cfa 8 - ^
STACK CFI INIT a2c5e 17 .cfa: $rsp 64 + $r12: .cfa 16 - ^ $r14: .cfa 24 - ^ $r15: .cfa 32 - ^ $rbx: .cfa 0 - ^ $rbp: .cfa 0 - ^ $rsi: .cfa 0 - ^ $rdi: .cfa 0 - ^ .ra: .cfa 8 - ^
STACK CFI INIT a2c76 12a .cfa: $rsp 464 + $rdi: .cfa 16 - ^ $r14: .cfa 24 - ^ $r15: .cfa 32 - ^ $rbx: .cfa 0 - ^ $rbp: .cfa 0 - ^ $rsi: .cfa 0 - ^ .ra: .cfa 8 - ^
STACK CFI INIT a2da0 48 .cfa: $rsp 128 + $rbp: .cfa 16 - ^ $rsi: .cfa 24 - ^ $rdi: .cfa 32 - ^ $r14: .cfa 40 - ^ $r15: .cfa 48 - ^ $rbx: .cfa 0 - ^ .ra: .cfa 8 - ^
STACK CFI INIT a2de8 7 .cfa: $rsp 48 + $rdi: .cfa 16 - ^ $rbx: .cfa 0 - ^ $rsi: .cfa 0 - ^ .ra: .cfa 8 - ^
STACK CFI INIT a2df0 23 .cfa: $rsp 48 + $rdi: .cfa 16 - ^ $rbx: .cfa 0 - ^ $rbp: .cfa 0 - ^ $rsi: .cfa 0 - ^ .ra: .cfa 8 - ^
STACK CFI INIT a2e14 a8 .cfa: $rsp 208 + $rbp: .cfa 16 - ^ $rbx: .cfa 0 - ^ $rdi: .cfa 0 - ^ .ra: .cfa 8 - ^
STACK CFI INIT a2ebc a8 .cfa: $rsp 208 + $rbp: .cfa 16 - ^ $rbx: .cfa 0 - ^ $rdi: .cfa 0 - ^ .ra: .cfa 8 - ^
STACK CFI INIT a2f64 a0 .cfa: $rsp 64 + $rdi: .cfa 16 - ^ $rbx: .cfa 0 - ^ $rbp: .cfa 0 - ^ $rsi: .cfa 0 - ^ .ra: .cfa 8 - ^
STACK CFI INIT a3004 b4 .cfa: $rsp 144 + $rbp: .cfa 16 - ^ $rsi: .cfa 24 - ^ $rdi: .cfa 32 - ^ $r12: .cfa 40 - ^ $r13: .cfa 48 - ^ $r14: .cfa 56 - ^ $r15: .cfa 64 - ^ $rbx: .cfa 0 - ^ .ra: .cfa 8 - ^
STACK CFI INIT a30b8 45 .cfa: $rsp 416 + $rbp: .cfa 16 - ^ $rsi: .cfa 24 - ^ $rdi: .cfa 32 - ^ $r12: .cfa 40 - ^ $r13: .cfa 48 - ^ $r14: .cfa 56 - ^ $r15: .cfa 64 - ^ $rbx: .cfa 0 - ^ .ra: .cfa 8 - ^
STACK CFI INIT a30fe 8 .cfa: $rsp 8 + $rbx: .cfa 0 - ^ .ra: .cfa 8 - ^
STACK CFI INIT a3106 45 .cfa: $rsp 48 + $rdi: .cfa 16 - ^ $rbx: .cfa 0 - ^ $rbp: .cfa 0 - ^ $rsi: .cfa 0 - ^ .ra: .cfa 8 - ^
STACK CFI INIT a314c 1a2 .cfa: $rsp 224 + $rbp: .cfa 16 - ^ $rdi: .cfa 24 - ^ $r15: .cfa 32 - ^ $rbx: .cfa 0 - ^ $rsi: .cfa 0 - ^ .ra: .cfa 8 - ^
STACK CFI INIT a32ee 5f .cfa: $rsp 224 + $rbx: .cfa 16 - ^ $rsi: .cfa 24 - ^ $rdi: .cfa 32 - ^ $r12: .cfa 40 - ^ $r13: .cfa 48 - ^ $r14: .cfa 56 - ^ $r15: .cfa 64 - ^ .ra: .cfa 8 - ^
STACK CFI INIT a334e 9 .cfa: $rsp 8 + $rbx: .cfa 0 - ^ $rdi: .cfa 0 - ^ .ra: .cfa 8 - ^
STACK CFI INIT a3358 f5 .cfa: $rsp 272 + $r12: .cfa 16 - ^ $r14: .cfa 24 - ^ $r15: .cfa 32 - ^ $rbx: .cfa 0 - ^ $rsi: .cfa 0 - ^ $rdi: .cfa 0 - ^ .ra: .cfa 8 - ^
STACK CFI INIT a344e 16 .cfa: $rsp 64 + $rbp: .cfa 16 - ^ $rsi: .cfa 24 - ^ $rdi: .cfa 32 - ^ $rbx: .cfa 0 - ^ .ra: .cfa 8 - ^
STACK CFI INIT a3464 b0 .cfa: $rsp 272 + $rbx: .cfa 16 - ^ $rsi: .cfa 24 - ^ $rdi: .cfa 32 - ^ $r12: .cfa 40 - ^ $r13: .cfa 48 - ^ $r14: .cfa 56 - ^ $r15: .cfa 64 - ^ .ra: .cfa 8 - ^
STACK CFI INIT a3514 1b .cfa: $rsp 240 + $r13: .cfa 16 - ^ $r14: .cfa 24 - ^ $r15: .cfa 32 - ^ $rbx: .cfa 0 - ^ $rsi: .cfa 0 - ^ $rdi: .cfa 0 - ^ $r12: .cfa 0 - ^ .ra: .cfa 8 - ^
STACK CFI INIT a3530 b4 .cfa: $rsp 224 + $r14: .cfa 16 - ^ $rbx: .cfa 0 - ^ $rsi: .cfa 0 - ^ $rdi: .cfa 0 - ^ .ra: .cfa 8 - ^
STACK CFI INIT a35e4 190 .cfa: $rsp 272 + $rbp: .cfa 16 - ^ $r12: .cfa 24 - ^ $r13: .cfa 32 - ^ $r14: .cfa 40 - ^ $r15: .cfa 48 - ^ $rbx: .cfa 0 - ^ $rsi: .cfa 0 - ^ $rdi: .cfa 0 - ^ .ra: .cfa 8 - ^
STACK CFI INIT a3774 46 .cfa: $rsp 224 + .ra: .cfa 8 - ^
STACK CFI INIT a37ba 9e .cfa: $rsp 96 + $rsi: .cfa 16 - ^ $rdi: .cfa 24 - ^ $r14: .cfa 32 - ^ $rbx: .cfa 0 - ^ .ra: .cfa 8 - ^
STACK CFI INIT a3858 b .cfa: $rsp 48 + $rdi: .cfa 16 - ^ $rbx: .cfa 0 - ^ $rsi: .cfa 0 - ^ .ra: .cfa 8 - ^
STACK CFI INIT a3864 2a .cfa: $rsp 144 + $rdi: .cfa 16 - ^ $rbx: .cfa 0 - ^ .ra: .cfa 8 - ^
STACK CFI INIT a388e 12 .cfa: $rsp 48 + .ra: .cfa 8 - ^
STACK CFI INIT a38a0 49 .cfa: $rsp 224 + $rbp: .cfa 16 - ^ $rbx: .cfa 0 - ^ $rdi: .cfa 0 - ^ .ra: .cfa 8 - ^
STACK CFI INIT a38ea 9c .cfa: $rsp 144 + $rbx: .cfa 16 - ^ $rsi: .cfa 24 - ^ $rdi: .cfa 32 - ^ $r12: .cfa 40 - ^ $r13: .cfa 48 - ^ $r14: .cfa 56 - ^ $r15: .cfa 64 - ^ .ra: .cfa 8 - ^
STACK CFI INIT a398e d .cfa: $rsp 48 + $rbx: .cfa 16 - ^ .ra: .cfa 8 - ^
STACK CFI INIT a399c d .cfa: $rsp 80 + $rbx: .cfa 16 - ^ .ra: .cfa 8 - ^
STACK CFI INIT a39aa 14 .cfa: $rsp 64 + $rdi: .cfa 16 - ^ $r14: .cfa 24 - ^ $r15: .cfa 32 - ^ $rbx: .cfa 0 - ^ $rsi: .cfa 0 - ^ .ra: .cfa 8 - ^
STACK CFI INIT a39be b9 .cfa: $rsp 208 + $rbx: .cfa 16 - ^ $rsi: .cfa 24 - ^ $rdi: .cfa 32 - ^ $r12: .cfa 40 - ^ $r13: .cfa 48 - ^ $r14: .cfa 56 - ^ $r15: .cfa 64 - ^ .ra: .cfa 8 - ^
STACK CFI INIT a3a78 5f .cfa: $rsp 112 + $rdi: .cfa 16 - ^ $r12: .cfa 24 - ^ $r13: .cfa 32 - ^ $r14: .cfa 40 - ^ $r15: .cfa 48 - ^ $rbx: .cfa 0 - ^ $rbp: .cfa 0 - ^ $rsi: .cfa 0 - ^ .ra: .cfa 8 - ^
STACK CFI INIT a3ad8 a0 .cfa: $rsp 48 + $r14: .cfa 16 - ^ $rbx: .cfa 0 - ^ $rbp: .cfa 0 - ^ $rsi: .cfa 0 - ^ $rdi: .cfa 0 - ^ .ra: .cfa 8 - ^
STACK CFI INIT a3b78 11 .cfa: $rsp 64 + $r12: .cfa 16 - ^ $r14: .cfa 24 - ^ $r15: .cfa 32 - ^ $rbx: .cfa 0 - ^ $rbp: .cfa 0 - ^ $rsi: .cfa 0 - ^ $rdi: .cfa 0 - ^ .ra: .cfa 8 - ^
STACK CFI INIT a3b8a 5 .cfa: $rsp 48 + $rdi: .cfa 16 - ^ $rbx: .cfa 0 - ^ $rsi: .cfa 0 - ^ .ra: .cfa 8 - ^
STACK CFI INIT a3b90 8c .cfa: $rsp 112 + $rbx: .cfa 16 - ^ $rbp: .cfa 24 - ^ $rsi: .cfa 32 - ^ $rdi: .cfa 40 - ^ $r14: .cfa 48 - ^ .ra: .cfa 8 - ^
STACK CFI INIT a3c1c 18c .cfa: $rsp 64 + $rbx: .cfa 16 - ^ .ra: .cfa 8 - ^
STACK CFI INIT a3da8 4a .cfa: $rsp 96 + $rdi: .cfa 16 - ^ $r14: .cfa 24 - ^ $r15: .cfa 32 - ^ $rbx: .cfa 0 - ^ $rsi: .cfa 0 - ^ .ra: .cfa 8 - ^
STACK CFI INIT a3df2 44 .cfa: $rsp 192 + $rsi: .cfa 16 - ^ $rdi: .cfa 24 - ^ $r12: .cfa 32 - ^ $r13: .cfa 40 - ^ $r14: .cfa 48 - ^ $rbx: .cfa 0 - ^ .ra: .cfa 8 - ^
STACK CFI INIT a3e36 43 .cfa: $rsp 80 + $r12: .cfa 16 - ^ $r14: .cfa 24 - ^ $r15: .cfa 32 - ^ $rbx: .cfa 0 - ^ $rbp: .cfa 0 - ^ $rsi: .cfa 0 - ^ $rdi: .cfa 0 - ^ .ra: .cfa 8 - ^
STACK CFI INIT a3e7a 5b .cfa: $rsp 64 + $rdi: .cfa 16 - ^ $r14: .cfa 24 - ^ $r15: .cfa 32 - ^ $rbx: .cfa 0 - ^ $rbp: .cfa 0 - ^ $rsi: .cfa 0 - ^ .ra: .cfa 8 - ^
STACK CFI INIT a3ed6 16 .cfa: $rsp 48 + $rdi: .cfa 16 - ^ $rbx: .cfa 0 - ^ $rbp: .cfa 0 - ^ $rsi: .cfa 0 - ^ .ra: .cfa 8 - ^
STACK CFI INIT a3eec 24 .cfa: $rsp 48 + .ra: .cfa 8 - ^
STACK CFI INIT a3f10 1c .cfa: $rsp 80 + $rdi: .cfa 16 - ^ $rbx: .cfa 0 - ^ $rbp: .cfa 0 - ^ $rsi: .cfa 0 - ^ .ra: .cfa 8 - ^
STACK CFI INIT a3f2c 25 .cfa: $rsp 96 + $rbp: .cfa 16 - ^ .ra: .cfa 8 - ^
STACK CFI INIT a3f52 a .cfa: $rsp 96 + $rsi: .cfa 16 - ^ $rdi: .cfa 24 - ^ $r15: .cfa 32 - ^ $rbx: .cfa 0 - ^ $rbp: .cfa 0 - ^ .ra: .cfa 8 - ^
STACK CFI INIT a3f5c 68 .cfa: $rsp 496 + $rbp: .cfa 16 - ^ $rsi: .cfa 24 - ^ $rdi: .cfa 32 - ^ $r12: .cfa 40 - ^ $r13: .cfa 48 - ^ $r14: .cfa 56 - ^ $r15: .cfa 64 - ^ $rbx: .cfa 0 - ^ .ra: .cfa 8 - ^
STACK CFI INIT a3fc4 60 .cfa: $rsp 64 + $rdi: .cfa 16 - ^ $rbx: .cfa 0 - ^ $rbp: .cfa 0 - ^ $rsi: .cfa 0 - ^ .ra: .cfa 8 - ^
STACK CFI INIT a4024 27 .cfa: $rsp 48 + $rbx: .cfa 16 - ^ .ra: .cfa 8 - ^
STACK CFI INIT a404c 2a .cfa: $rsp 80 + $rsi: .cfa 16 - ^ $rdi: .cfa 24 - ^ $r14: .cfa 32 - ^ $rbx: .cfa 0 - ^ .ra: .cfa 8 - ^
STACK CFI INIT a4076 5f .cfa: $rsp 64 + $rdi: .cfa 16 - ^ $rbx: .cfa 0 - ^ .ra: .cfa 8 - ^
STACK CFI INIT a40d6 74 .cfa: $rsp 96 + $rbp: .cfa 16 - ^ $rbx: .cfa 24 - ^ $rsi: .cfa 32 - ^ $rdi: .cfa 40 - ^ $r14: .cfa 48 - ^ .ra: .cfa 8 - ^
STACK CFI INIT a414a 15f .cfa: $rsp 112 + $rbp: .cfa 16 - ^ $rbx: .cfa 24 - ^ $rsi: .cfa 32 - ^ $rdi: .cfa 40 - ^ $r12: .cfa 48 - ^ .ra: .cfa 8 - ^
STACK CFI INIT a42aa 2d .cfa: $rsp 64 + $rdi: .cfa 16 - ^ $rbx: .cfa 0 - ^ .ra: .cfa 8 - ^
STACK CFI INIT a42d8 2d0 .cfa: $rsp 496 + $rbx: .cfa 16 - ^ $rsi: .cfa 24 - ^ $rdi: .cfa 32 - ^ $r12: .cfa 40 - ^ $r13: .cfa 48 - ^ $r14: .cfa 56 - ^ $r15: .cfa 64 - ^ .ra: .cfa 8 - ^
STACK CFI INIT a45a8 1c .cfa: $rsp 48 + $rdi: .cfa 16 - ^ $rbx: .cfa 0 - ^ $rbp: .cfa 0 - ^ $rsi: .cfa 0 - ^ .ra: .cfa 8 - ^
STACK CFI INIT a45c4 96 .cfa: $rsp 64 + $rdi: .cfa 16 - ^ $r12: .cfa 24 - ^ $r15: .cfa 32 - ^ $rbx: .cfa 0 - ^ $rbp: .cfa 0 - ^ $rsi: .cfa 0 - ^ .ra: .cfa 8 - ^
STACK CFI INIT a465a 9f .cfa: $rsp 144 + $rbp: .cfa 16 - ^ $rsi: .cfa 24 - ^ $rdi: .cfa 32 - ^ $r14: .cfa 40 - ^ $r15: .cfa 48 - ^ $rbx: .cfa 0 - ^ .ra: .cfa 8 - ^
STACK CFI INIT a46fa 15e .cfa: $rsp 80 + $rbp: .cfa 16 - ^ $rsi: .cfa 24 - ^ $rdi: .cfa 32 - ^ $rbx: .cfa 0 - ^ .ra: .cfa 8 - ^
STACK CFI INIT a4858 24 .cfa: $rsp 112 + $rdi: .cfa 16 - ^ $rbx: .cfa 0 - ^ $rsi: .cfa 0 - ^ .ra: .cfa 8 - ^
STACK CFI INIT a487c 12 .cfa: $rsp 48 + $rdi: .cfa 16 - ^ $rbx: .cfa 0 - ^ $rbp: .cfa 0 - ^ $rsi: .cfa 0 - ^ .ra: .cfa 8 - ^
STACK CFI INIT a488e 169 .cfa: $rsp 96 + $rbp: .cfa 16 - ^ $rsi: .cfa 24 - ^ $rdi: .cfa 32 - ^ $rbx: .cfa 0 - ^ .ra: .cfa 8 - ^
STACK CFI INIT a49f8 2b .cfa: $rsp 48 + $rdi: .cfa 16 - ^ $rbx: .cfa 0 - ^ $rbp: .cfa 0 - ^ $rsi: .cfa 0 - ^ .ra: .cfa 8 - ^
STACK CFI INIT a4a24 11 .cfa: $rsp 48 + $rdi: .cfa 16 - ^ $rbx: .cfa 0 - ^ $rsi: .cfa 0 - ^ .ra: .cfa 8 - ^
STACK CFI INIT a4a36 9c .cfa: $rsp 48 + $rdi: .cfa 16 - ^ $rbp: .cfa 0 - ^ $rsi: .cfa 0 - ^ .ra: .cfa 8 - ^
STACK CFI INIT a4ad2 8d .cfa: $rsp 80 + $r13: .cfa 16 - ^ $r14: .cfa 24 - ^ $r15: .cfa 32 - ^ $rbx: .cfa 0 - ^ $rbp: .cfa 0 - ^ $rsi: .cfa 0 - ^ $rdi: .cfa 0 - ^ .ra: .cfa 8 - ^
STACK CFI INIT a4b60 f9 .cfa: $rsp 112 + $rbp: .cfa 16 - ^ $rsi: .cfa 24 - ^ $rdi: .cfa 32 - ^ $r12: .cfa 40 - ^ $r13: .cfa 48 - ^ $r14: .cfa 56 - ^ $r15: .cfa 64 - ^ $rbx: .cfa 0 - ^ .ra: .cfa 8 - ^
STACK CFI INIT a4c5a 86 .cfa: $rsp 64 + $r14: .cfa 16 - ^ $rbx: .cfa 0 - ^ $rbp: .cfa 0 - ^ $rsi: .cfa 0 - ^ $rdi: .cfa 0 - ^ .ra: .cfa 8 - ^
STACK CFI INIT a4ce0 3d .cfa: $rsp 64 + $rdi: .cfa 16 - ^ $rbx: .cfa 0 - ^ .ra: .cfa 8 - ^
STACK CFI INIT a4d1e 71 .cfa: $rsp 64 + $rdi: .cfa 16 - ^ $rbx: .cfa 0 - ^ .ra: .cfa 8 - ^
STACK CFI INIT a4d90 1e .cfa: $rsp 80 + $r14: .cfa 16 - ^ $rbx: .cfa 0 - ^ $rbp: .cfa 0 - ^ $rsi: .cfa 0 - ^ $rdi: .cfa 0 - ^ .ra: .cfa 8 - ^
STACK CFI INIT a4dae 69 .cfa: $rsp 112 + $rbx: .cfa 16 - ^ .ra: .cfa 8 - ^
STACK CFI INIT a4e18 11 .cfa: $rsp 48 + $rdi: .cfa 16 - ^ $rbx: .cfa 0 - ^ .ra: .cfa 8 - ^
STACK CFI INIT a4e2a 39 .cfa: $rsp 48 + $rdi: .cfa 16 - ^ $rbx: .cfa 0 - ^ $rsi: .cfa 0 - ^ .ra: .cfa 8 - ^
STACK CFI INIT a4e64 47 .cfa: $rsp 48 + $rdi: .cfa 16 - ^ $rbx: .cfa 0 - ^ $rsi: .cfa 0 - ^ .ra: .cfa 8 - ^
STACK CFI INIT a4eac 2a .cfa: $rsp 80 + $rdi: .cfa 16 - ^ $rbx: .cfa 0 - ^ $rsi: .cfa 0 - ^ .ra: .cfa 8 - ^
STACK CFI INIT a4ed6 88 .cfa: $rsp 256 + $rdi: .cfa 16 - ^ $r14: .cfa 24 - ^ $r15: .cfa 32 - ^ $rbx: .cfa 0 - ^ $rbp: .cfa 0 - ^ $rsi: .cfa 0 - ^ .ra: .cfa 8 - ^
STACK CFI INIT a4f5e 12 .cfa: $rsp 48 + $rdi: .cfa 16 - ^ $rbx: .cfa 0 - ^ $rbp: .cfa 0 - ^ $rsi: .cfa 0 - ^ .ra: .cfa 8 - ^
STACK CFI INIT a4f70 c1 .cfa: $rsp 64 + $r12: .cfa 16 - ^ $r14: .cfa 24 - ^ $r15: .cfa 32 - ^ $rbx: .cfa 0 - ^ $rsi: .cfa 0 - ^ $rdi: .cfa 0 - ^ .ra: .cfa 8 - ^
STACK CFI INIT a5032 12 .cfa: $rsp 64 + $r14: .cfa 16 - ^ $rbx: .cfa 0 - ^ $rbp: .cfa 0 - ^ $rsi: .cfa 0 - ^ $rdi: .cfa 0 - ^ .ra: .cfa 8 - ^
STACK CFI INIT a5044 1e .cfa: $rsp 48 + $r14: .cfa 16 - ^ $rbx: .cfa 0 - ^ $rsi: .cfa 0 - ^ $rdi: .cfa 0 - ^ .ra: .cfa 8 - ^
STACK CFI INIT a5062 30 .cfa: $rsp 48 + $rbx: .cfa 16 - ^ .ra: .cfa 8 - ^
STACK CFI INIT a5092 5 .cfa: $rsp 64 + $rdi: .cfa 16 - ^ $r14: .cfa 24 - ^ $r15: .cfa 32 - ^ $rbx: .cfa 0 - ^ $rbp: .cfa 0 - ^ $rsi: .cfa 0 - ^ .ra: .cfa 8 - ^
STACK CFI INIT a5098 64 .cfa: $rsp 160 + $rbp: .cfa 16 - ^ .ra: .cfa 8 - ^
STACK CFI INIT a50fc a .cfa: $rsp 48 + $rdi: .cfa 16 - ^ $rbx: .cfa 0 - ^ $rsi: .cfa 0 - ^ .ra: .cfa 8 - ^
STACK CFI INIT a5106 f9 .cfa: $rsp 160 + $rbp: .cfa 16 - ^ $rsi: .cfa 24 - ^ $rdi: .cfa 32 - ^ $r12: .cfa 40 - ^ $r13: .cfa 48 - ^ $r14: .cfa 56 - ^ $r15: .cfa 64 - ^ $rbx: .cfa 0 - ^ .ra: .cfa 8 - ^
STACK CFI INIT a5200 90 .cfa: $rsp 8 + $rbx: .cfa 0 - ^ .ra: .cfa 8 - ^
STACK CFI INIT a5290 a7 .cfa: $rsp 96 + $rbp: .cfa 16 - ^ $rbx: .cfa 24 - ^ $rsi: .cfa 32 - ^ $rdi: .cfa 40 - ^ $r14: .cfa 48 - ^ .ra: .cfa 8 - ^
STACK CFI INIT a5338 43 .cfa: $rsp 256 + $rdi: .cfa 16 - ^ $rbx: .cfa 0 - ^ $rbp: .cfa 0 - ^ $rsi: .cfa 0 - ^ .ra: .cfa 8 - ^
STACK CFI INIT a537c 1d .cfa: $rsp 112 + $rbp: .cfa 16 - ^ $rsi: .cfa 24 - ^ $rdi: .cfa 32 - ^ $r14: .cfa 40 - ^ $r15: .cfa 48 - ^ $rbx: .cfa 0 - ^ .ra: .cfa 8 - ^
STACK CFI INIT a539a 2d .cfa: $rsp 96 + $rbp: .cfa 16 - ^ $rsi: .cfa 24 - ^ $rdi: .cfa 32 - ^ $r14: .cfa 40 - ^ $r15: .cfa 48 - ^ $rbx: .cfa 0 - ^ .ra: .cfa 8 - ^
STACK CFI INIT a53c8 12b .cfa: $rsp 736 + $rbp: .cfa 16 - ^ $rsi: .cfa 24 - ^ $rdi: .cfa 32 - ^ $r12: .cfa 40 - ^ $r13: .cfa 48 - ^ $r14: .cfa 56 - ^ $r15: .cfa 64 - ^ $rbx: .cfa 0 - ^ .ra: .cfa 8 - ^
STACK CFI INIT a54f4 c4 .cfa: $rsp 112 + $rbp: .cfa 16 - ^ $rsi: .cfa 24 - ^ $rdi: .cfa 32 - ^ $r14: .cfa 40 - ^ $r15: .cfa 48 - ^ $rbx: .cfa 0 - ^ .ra: .cfa 8 - ^
STACK CFI INIT a55b8 11 .cfa: $rsp 112 + $rbx: .cfa 16 - ^ $rsi: .cfa 24 - ^ $rdi: .cfa 32 - ^ $r12: .cfa 40 - ^ $r13: .cfa 48 - ^ $r14: .cfa 56 - ^ $r15: .cfa 64 - ^ .ra: .cfa 8 - ^
STACK CFI INIT a55ca 80 .cfa: $rsp 48 + $rdi: .cfa 16 - ^ $rbx: .cfa 0 - ^ $rsi: .cfa 0 - ^ .ra: .cfa 8 - ^
STACK CFI INIT a564a b8 .cfa: $rsp 48 + $rdi: .cfa 16 - ^ $rbx: .cfa 0 - ^ $rbp: .cfa 0 - ^ $rsi: .cfa 0 - ^ .ra: .cfa 8 - ^
STACK CFI INIT a5702 17 .cfa: $rsp 48 + $rbx: .cfa 16 - ^ .ra: .cfa 8 - ^
STACK CFI INIT a571a 123 .cfa: $rsp 144 + $rbp: .cfa 16 - ^ $rsi: .cfa 24 - ^ $rdi: .cfa 32 - ^ $r12: .cfa 40 - ^ $r13: .cfa 48 - ^ $r14: .cfa 56 - ^ $r15: .cfa 64 - ^ $rbx: .cfa 0 - ^ .ra: .cfa 8 - ^
STACK CFI INIT a583e 97 .cfa: $rsp 176 + $rbp: .cfa 16 - ^ $rsi: .cfa 24 - ^ $rdi: .cfa 32 - ^ $r12: .cfa 40 - ^ $r13: .cfa 48 - ^ $r14: .cfa 56 - ^ $r15: .cfa 64 - ^ $rbx: .cfa 0 - ^ .ra: .cfa 8 - ^
STACK CFI INIT a58d6 a .cfa: $rsp 96 + $rsi: .cfa 16 - ^ $rdi: .cfa 24 - ^ $r12: .cfa 32 - ^ $r14: .cfa 40 - ^ $r15: .cfa 48 - ^ $rbx: .cfa 0 - ^ $rbp: .cfa 0 - ^ .ra: .cfa 8 - ^
STACK CFI INIT a58e0 ed .cfa: $rsp 192 + $rbp: .cfa 16 - ^ $rsi: .cfa 24 - ^ $rdi: .cfa 32 - ^ $r12: .cfa 40 - ^ $r13: .cfa 48 - ^ $r14: .cfa 56 - ^ $r15: .cfa 64 - ^ $rbx: .cfa 0 - ^ .ra: .cfa 8 - ^
STACK CFI INIT a59ce 3a .cfa: $rsp 96 + $rsi: .cfa 16 - ^ $rdi: .cfa 24 - ^ $r14: .cfa 32 - ^ $rbx: .cfa 0 - ^ $rbp: .cfa 0 - ^ .ra: .cfa 8 - ^
STACK CFI INIT a5a08 30 .cfa: $rsp 240 + $rbx: .cfa 16 - ^ $rsi: .cfa 24 - ^ $rdi: .cfa 32 - ^ $r12: .cfa 40 - ^ $r13: .cfa 48 - ^ $r14: .cfa 56 - ^ $r15: .cfa 64 - ^ .ra: .cfa 8 - ^
STACK CFI INIT a5a38 2c .cfa: $rsp 96 + $rbp: .cfa 16 - ^ $rsi: .cfa 24 - ^ $rdi: .cfa 32 - ^ $r14: .cfa 40 - ^ $r15: .cfa 48 - ^ $rbx: .cfa 0 - ^ .ra: .cfa 8 - ^
STACK CFI INIT a5a64 4f .cfa: $rsp 64 + $rdi: .cfa 16 - ^ $rbx: .cfa 0 - ^ $rbp: .cfa 0 - ^ $rsi: .cfa 0 - ^ .ra: .cfa 8 - ^
STACK CFI INIT a5ab4 a .cfa: $rsp 96 + $rsi: .cfa 16 - ^ $rdi: .cfa 24 - ^ $r14: .cfa 32 - ^ $rbx: .cfa 0 - ^ .ra: .cfa 8 - ^
STACK CFI INIT a5abe 119 .cfa: $rsp 112 + $rbp: .cfa 16 - ^ $rsi: .cfa 24 - ^ $rdi: .cfa 32 - ^ $r12: .cfa 40 - ^ $r13: .cfa 48 - ^ $r14: .cfa 56 - ^ $r15: .cfa 64 - ^ $rbx: .cfa 0 - ^ .ra: .cfa 8 - ^
STACK CFI INIT a5bd8 72 .cfa: $rsp 64 + $rdi: .cfa 16 - ^ $rbx: .cfa 0 - ^ .ra: .cfa 8 - ^
STACK CFI INIT a5c4a 318 .cfa: $rsp 208 + $rbp: .cfa 16 - ^ $rsi: .cfa 24 - ^ $rdi: .cfa 32 - ^ $r12: .cfa 40 - ^ $r13: .cfa 48 - ^ $r14: .cfa 56 - ^ $r15: .cfa 64 - ^ $rbx: .cfa 0 - ^ .ra: .cfa 8 - ^
STACK CFI INIT a5f62 1a5 .cfa: $rsp 96 + $rdi: .cfa 16 - ^ $r12: .cfa 24 - ^ $r13: .cfa 32 - ^ $r14: .cfa 40 - ^ $r15: .cfa 48 - ^ $rbx: .cfa 0 - ^ $rbp: .cfa 0 - ^ $rsi: .cfa 0 - ^ .ra: .cfa 8 - ^
STACK CFI INIT a6108 f6 .cfa: $rsp 352 + $rbp: .cfa 16 - ^ $r12: .cfa 24 - ^ $r13: .cfa 32 - ^ $r14: .cfa 40 - ^ $r15: .cfa 48 - ^ $rbx: .cfa 0 - ^ $rsi: .cfa 0 - ^ $rdi: .cfa 0 - ^ .ra: .cfa 8 - ^
STACK CFI INIT a61fe 59 .cfa: $rsp 128 + $rdi: .cfa 16 - ^ $r14: .cfa 24 - ^ $r15: .cfa 32 - ^ $rbx: .cfa 0 - ^ $rsi: .cfa 0 - ^ .ra: .cfa 8 - ^
STACK CFI INIT a6258 29 .cfa: $rsp 80 + $rdi: .cfa 16 - ^ $r14: .cfa 24 - ^ $r15: .cfa 32 - ^ $rbx: .cfa 0 - ^ $rsi: .cfa 0 - ^ .ra: .cfa 8 - ^
STACK CFI INIT a6282 2c .cfa: $rsp 48 + $rdi: .cfa 16 - ^ $rbx: .cfa 0 - ^ .ra: .cfa 8 - ^
STACK CFI INIT a62ae b7 .cfa: $rsp 64 + $rdi: .cfa 16 - ^ $r14: .cfa 24 - ^ $r15: .cfa 32 - ^ $rbx: .cfa 0 - ^ $rbp: .cfa 0 - ^ $rsi: .cfa 0 - ^ .ra: .cfa 8 - ^
STACK CFI INIT a6366 8a .cfa: $rsp 352 + $rbp: .cfa 16 - ^ $rsi: .cfa 24 - ^ $rdi: .cfa 32 - ^ $r12: .cfa 40 - ^ $r13: .cfa 48 - ^ $r14: .cfa 56 - ^ $r15: .cfa 64 - ^ $rbx: .cfa 0 - ^ .ra: .cfa 8 - ^
STACK CFI INIT a63f0 f .cfa: $rsp 80 + $rsi: .cfa 16 - ^ $rdi: .cfa 24 - ^ $r14: .cfa 32 - ^ $rbx: .cfa 0 - ^ .ra: .cfa 8 - ^
STACK CFI INIT a6400 14 .cfa: $rsp 96 + $rdi: .cfa 16 - ^ $r12: .cfa 24 - ^ $r13: .cfa 32 - ^ $r14: .cfa 40 - ^ $r15: .cfa 48 - ^ $rbx: .cfa 0 - ^ $rbp: .cfa 0 - ^ $rsi: .cfa 0 - ^ .ra: .cfa 8 - ^
STACK CFI INIT a6414 28 .cfa: $rsp 48 + $rdi: .cfa 16 - ^ $rbx: .cfa 0 - ^ .ra: .cfa 8 - ^
STACK CFI INIT a643c 14 .cfa: $rsp 176 + $rbp: .cfa 16 - ^ $rsi: .cfa 24 - ^ $rdi: .cfa 32 - ^ $r12: .cfa 40 - ^ $r13: .cfa 48 - ^ $r14: .cfa 56 - ^ $r15: .cfa 64 - ^ $rbx: .cfa 0 - ^ .ra: .cfa 8 - ^
STACK CFI INIT a6450 a .cfa: $rsp 80 + $rsi: .cfa 16 - ^ $rdi: .cfa 24 - ^ $r14: .cfa 32 - ^ $rbx: .cfa 0 - ^ $rbp: .cfa 0 - ^ .ra: .cfa 8 - ^
STACK CFI INIT a645a 61 .cfa: $rsp 176 + $rdi: .cfa 16 - ^ $r12: .cfa 24 - ^ $r13: .cfa 32 - ^ $r14: .cfa 40 - ^ $r15: .cfa 48 - ^ $rbx: .cfa 0 - ^ $rsi: .cfa 0 - ^ .ra: .cfa 8 - ^
STACK CFI INIT a64bc 2f0 .cfa: $rsp 336 + $rbx: .cfa 16 - ^ $rsi: .cfa 24 - ^ $rdi: .cfa 32 - ^ $r12: .cfa 40 - ^ $r13: .cfa 48 - ^ $r14: .cfa 56 - ^ $r15: .cfa 64 - ^ .ra: .cfa 8 - ^
STACK CFI INIT a67ac a .cfa: $rsp 64 + $rbp: .cfa 16 - ^ $rsi: .cfa 24 - ^ $rdi: .cfa 32 - ^ $rbx: .cfa 0 - ^ .ra: .cfa 8 - ^
STACK CFI INIT a67b6 287 .cfa: $rsp 1120 + $rbx: .cfa 16 - ^ $rsi: .cfa 24 - ^ $rdi: .cfa 32 - ^ $r12: .cfa 40 - ^ $r13: .cfa 48 - ^ $r14: .cfa 56 - ^ $r15: .cfa 64 - ^ .ra: .cfa 8 - ^
STACK CFI INIT a6a3e 49 .cfa: $rsp 416 + $rbx: .cfa 16 - ^ $rsi: .cfa 24 - ^ $rdi: .cfa 32 - ^ $r12: .cfa 40 - ^ $r13: .cfa 48 - ^ $r14: .cfa 56 - ^ $r15: .cfa 64 - ^ .ra: .cfa 8 - ^
STACK CFI INIT a6a88 84 .cfa: $rsp 96 + $rsi: .cfa 16 - ^ $rdi: .cfa 24 - ^ $r12: .cfa 32 - ^ $r14: .cfa 40 - ^ $r15: .cfa 48 - ^ $rbx: .cfa 0 - ^ $rbp: .cfa 0 - ^ .ra: .cfa 8 - ^
STACK CFI INIT a6b0c 85 .cfa: $rsp 1696 + $rbp: .cfa 16 - ^ $rdi: .cfa 24 - ^ $r13: .cfa 32 - ^ $r14: .cfa 40 - ^ $r15: .cfa 48 - ^ $rbx: .cfa 0 - ^ $rsi: .cfa 0 - ^ .ra: .cfa 8 - ^
STACK CFI INIT a6b92 13a .cfa: $rsp 80 + $rdi: .cfa 16 - ^ $r12: .cfa 24 - ^ $r13: .cfa 32 - ^ $r14: .cfa 40 - ^ $r15: .cfa 48 - ^ $rbx: .cfa 0 - ^ $rbp: .cfa 0 - ^ $rsi: .cfa 0 - ^ .ra: .cfa 8 - ^
STACK CFI INIT a6ccc b5 .cfa: $rsp 144 + $rbp: .cfa 16 - ^ $rsi: .cfa 24 - ^ $rdi: .cfa 32 - ^ $r12: .cfa 40 - ^ $r13: .cfa 48 - ^ $r14: .cfa 56 - ^ $r15: .cfa 64 - ^ $rbx: .cfa 0 - ^ .ra: .cfa 8 - ^
STACK CFI INIT a6d82 124 .cfa: $rsp 80 + $rdi: .cfa 16 - ^ $r12: .cfa 24 - ^ $r13: .cfa 32 - ^ $r14: .cfa 40 - ^ $r15: .cfa 48 - ^ $rbx: .cfa 0 - ^ $rbp: .cfa 0 - ^ $rsi: .cfa 0 - ^ .ra: .cfa 8 - ^
STACK CFI INIT a6ea6 8 .cfa: $rsp 48 + $rdi: .cfa 16 - ^ $rbx: .cfa 0 - ^ $rbp: .cfa 0 - ^ $rsi: .cfa 0 - ^ .ra: .cfa 8 - ^
STACK CFI INIT a6eae 191 .cfa: $rsp 2208 + $rbp: .cfa 16 - ^ $rsi: .cfa 24 - ^ $rdi: .cfa 32 - ^ $r12: .cfa 40 - ^ $r13: .cfa 48 - ^ $r14: .cfa 56 - ^ $r15: .cfa 64 - ^ $rbx: .cfa 0 - ^ .ra: .cfa 8 - ^
STACK CFI INIT a7040 35 .cfa: $rsp 80 + $rdi: .cfa 16 - ^ $r12: .cfa 24 - ^ $r13: .cfa 32 - ^ $r14: .cfa 40 - ^ $r15: .cfa 48 - ^ $rbx: .cfa 0 - ^ $rbp: .cfa 0 - ^ $rsi: .cfa 0 - ^ .ra: .cfa 8 - ^
STACK CFI INIT a7076 1c .cfa: $rsp 64 + $r12: .cfa 16 - ^ $r14: .cfa 24 - ^ $r15: .cfa 32 - ^ $rbx: .cfa 0 - ^ $rsi: .cfa 0 - ^ $rdi: .cfa 0 - ^ .ra: .cfa 8 - ^
STACK CFI INIT a7092 151 .cfa: $rsp 1200 + $rbp: .cfa 16 - ^ $rsi: .cfa 24 - ^ $rdi: .cfa 32 - ^ $r12: .cfa 40 - ^ $r13: .cfa 48 - ^ $r14: .cfa 56 - ^ $r15: .cfa 64 - ^ $rbx: .cfa 0 - ^ .ra: .cfa 8 - ^
STACK CFI INIT a71e4 a .cfa: $rsp 176 + $rsi: .cfa 16 - ^ $rdi: .cfa 24 - ^ .ra: .cfa 8 - ^
STACK CFI INIT a71ee 431 .cfa: $rsp 176 + $rbx: .cfa 0 - ^ $rbp: .cfa 0 - ^ $r12: .cfa 0 - ^ $r13: .cfa 0 - ^ $r14: .cfa 0 - ^ $r15: .cfa 0 - ^ $rsi: .cfa 16 - ^ $rdi: .cfa 24 - ^ .ra: .cfa 8 - ^
STACK CFI INIT a7620 97 .cfa: $rsp 224 + $rbp: .cfa 16 - ^ $rsi: .cfa 24 - ^ $rdi: .cfa 32 - ^ $r12: .cfa 40 - ^ $r13: .cfa 48 - ^ $r14: .cfa 56 - ^ $r15: .cfa 64 - ^ $rbx: .cfa 0 - ^ .ra: .cfa 8 - ^
STACK CFI INIT a76b8 3f .cfa: $rsp 48 + $rbx: .cfa 16 - ^ .ra: .cfa 8 - ^
STACK CFI INIT a76f8 7c .cfa: $rsp 144 + $rbp: .cfa 16 - ^ $rbx: .cfa 24 - ^ $rsi: .cfa 32 - ^ $rdi: .cfa 40 - ^ $r13: .cfa 48 - ^ $r14: .cfa 56 - ^ $r15: .cfa 64 - ^ .ra: .cfa 8 - ^
STACK CFI INIT a7774 f5 .cfa: $rsp 64 + $rdi: .cfa 16 - ^ $rbx: .cfa 0 - ^ $rbp: .cfa 0 - ^ $rsi: .cfa 0 - ^ .ra: .cfa 8 - ^
STACK CFI INIT a786a 74 .cfa: $rsp 448 + $rbx: .cfa 16 - ^ $rsi: .cfa 24 - ^ $rdi: .cfa 32 - ^ $r12: .cfa 40 - ^ $r13: .cfa 48 - ^ $r14: .cfa 56 - ^ $r15: .cfa 64 - ^ .ra: .cfa 8 - ^
STACK CFI INIT a78de 32 .cfa: $rsp 96 + $rdi: .cfa 16 - ^ $r12: .cfa 24 - ^ $r13: .cfa 32 - ^ $r14: .cfa 40 - ^ $r15: .cfa 48 - ^ $rbx: .cfa 0 - ^ $rbp: .cfa 0 - ^ $rsi: .cfa 0 - ^ .ra: .cfa 8 - ^
STACK CFI INIT a7910 a .cfa: $rsp 96 + $r12: .cfa 16 - ^ $r14: .cfa 24 - ^ $r15: .cfa 32 - ^ $rbx: .cfa 0 - ^ $rbp: .cfa 0 - ^ $rsi: .cfa 0 - ^ $rdi: .cfa 0 - ^ .ra: .cfa 8 - ^
STACK CFI INIT a791a 27 .cfa: $rsp 112 + $rsi: .cfa 16 - ^ $rdi: .cfa 24 - ^ $r12: .cfa 32 - ^ $r14: .cfa 40 - ^ $r15: .cfa 48 - ^ $rbx: .cfa 0 - ^ $rbp: .cfa 0 - ^ .ra: .cfa 8 - ^
STACK CFI INIT a7942 47 .cfa: $rsp 80 + $rsi: .cfa 16 - ^ $rdi: .cfa 24 - ^ $r12: .cfa 32 - ^ $r14: .cfa 40 - ^ $r15: .cfa 48 - ^ $rbx: .cfa 0 - ^ $rbp: .cfa 0 - ^ .ra: .cfa 8 - ^
STACK CFI INIT a798a 78 .cfa: $rsp 80 + $rdi: .cfa 16 - ^ $r12: .cfa 24 - ^ $r13: .cfa 32 - ^ $r14: .cfa 40 - ^ $r15: .cfa 48 - ^ $rbx: .cfa 0 - ^ $rbp: .cfa 0 - ^ $rsi: .cfa 0 - ^ .ra: .cfa 8 - ^
STACK CFI INIT a7a02 a5 .cfa: $rsp 640 + $rsi: .cfa 16 - ^ $rdi: .cfa 24 - ^ $r12: .cfa 32 - ^ $r14: .cfa 40 - ^ $r15: .cfa 48 - ^ $rbx: .cfa 0 - ^ $rbp: .cfa 0 - ^ .ra: .cfa 8 - ^
STACK CFI INIT a7aa8 bf .cfa: $rsp 304 + $rbp: .cfa 16 - ^ $rsi: .cfa 24 - ^ $rdi: .cfa 32 - ^ $r14: .cfa 40 - ^ $r15: .cfa 48 - ^ $rbx: .cfa 0 - ^ .ra: .cfa 8 - ^
STACK CFI INIT a7b68 24 .cfa: $rsp 48 + $rdi: .cfa 16 - ^ $rbx: .cfa 0 - ^ $rbp: .cfa 0 - ^ $rsi: .cfa 0 - ^ .ra: .cfa 8 - ^
STACK CFI INIT a7b8c d2 .cfa: $rsp 48 + $rdi: .cfa 16 - ^ $rbx: .cfa 0 - ^ $rbp: .cfa 0 - ^ $rsi: .cfa 0 - ^ .ra: .cfa 8 - ^
STACK CFI INIT a7c5e 89 .cfa: $rsp 560 + $rdi: .cfa 16 - ^ $r12: .cfa 24 - ^ $r13: .cfa 32 - ^ $r14: .cfa 40 - ^ $r15: .cfa 48 - ^ $rbx: .cfa 0 - ^ $rsi: .cfa 0 - ^ .ra: .cfa 8 - ^
STACK CFI INIT a7ce8 29 .cfa: $rsp 80 + $rdi: .cfa 16 - ^ $r12: .cfa 24 - ^ $r13: .cfa 32 - ^ $r14: .cfa 40 - ^ $r15: .cfa 48 - ^ $rbx: .cfa 0 - ^ $rbp: .cfa 0 - ^ $rsi: .cfa 0 - ^ .ra: .cfa 8 - ^
STACK CFI INIT a7d12 a .cfa: $rsp 48 + $r14: .cfa 16 - ^ $rbx: .cfa 0 - ^ $rbp: .cfa 0 - ^ $rsi: .cfa 0 - ^ $rdi: .cfa 0 - ^ .ra: .cfa 8 - ^
STACK CFI INIT a7d1c 8 .cfa: $rsp 80 + $r12: .cfa 16 - ^ $r14: .cfa 24 - ^ $r15: .cfa 32 - ^ $rbx: .cfa 0 - ^ $rbp: .cfa 0 - ^ $rsi: .cfa 0 - ^ $rdi: .cfa 0 - ^ .ra: .cfa 8 - ^
STACK CFI INIT a7d24 6c .cfa: $rsp 8 + $rbx: .cfa 0 - ^ $rsi: .cfa 0 - ^ $rdi: .cfa 0 - ^ .ra: .cfa 8 - ^
STACK CFI INIT a7d90 45 .cfa: $rsp 176 + $rbp: .cfa 16 - ^ $rbx: .cfa 24 - ^ $rsi: .cfa 32 - ^ $rdi: .cfa 40 - ^ $r12: .cfa 48 - ^ $r13: .cfa 56 - ^ $r14: .cfa 64 - ^ $r15: .cfa 72 - ^ .ra: .cfa 8 - ^
STACK CFI INIT a7dd6 44 .cfa: $rsp 64 + $rbx: .cfa 16 - ^ .ra: .cfa 8 - ^
STACK CFI INIT a7e1a 43f .cfa: $rsp 96 + $r12: .cfa 16 - ^ $r14: .cfa 24 - ^ $r15: .cfa 32 - ^ $rbx: .cfa 0 - ^ $rbp: .cfa 0 - ^ $rsi: .cfa 0 - ^ $rdi: .cfa 0 - ^ .ra: .cfa 8 - ^
STACK CFI INIT a825a 41 .cfa: $rsp 64 + .ra: .cfa 8 - ^
STACK CFI INIT a829c 4b .cfa: $rsp 112 + $rbp: .cfa 16 - ^ $rdi: .cfa 24 - ^ $r14: .cfa 32 - ^ $rbx: .cfa 0 - ^ $rsi: .cfa 0 - ^ .ra: .cfa 8 - ^
STACK CFI INIT a82e8 a .cfa: $rsp 80 + $rdi: .cfa 16 - ^ $r14: .cfa 24 - ^ $r15: .cfa 32 - ^ $rbx: .cfa 0 - ^ $rbp: .cfa 0 - ^ $rsi: .cfa 0 - ^ .ra: .cfa 8 - ^
STACK CFI INIT a82f2 29b .cfa: $rsp 192 + $rbx: .cfa 16 - ^ $rbp: .cfa 24 - ^ $rsi: .cfa 32 - ^ $rdi: .cfa 40 - ^ $r12: .cfa 48 - ^ $r13: .cfa 56 - ^ $r14: .cfa 64 - ^ $r15: .cfa 72 - ^ .ra: .cfa 8 - ^
STACK CFI INIT a858e 41 .cfa: $rsp 224 + $rbx: .cfa 16 - ^ $rbp: .cfa 24 - ^ $rsi: .cfa 32 - ^ $rdi: .cfa 40 - ^ $r12: .cfa 48 - ^ $r13: .cfa 56 - ^ $r14: .cfa 64 - ^ $r15: .cfa 72 - ^ .ra: .cfa 8 - ^
STACK CFI INIT a85d0 1e8 .cfa: $rsp 768 + $rbx: .cfa 16 - ^ $rsi: .cfa 24 - ^ $rdi: .cfa 32 - ^ $r12: .cfa 40 - ^ $r13: .cfa 48 - ^ $r14: .cfa 56 - ^ $r15: .cfa 64 - ^ .ra: .cfa 8 - ^
STACK CFI INIT a87b8 41 .cfa: $rsp 192 + $rbx: .cfa 16 - ^ $rdi: .cfa 24 - ^ $r12: .cfa 32 - ^ $r13: .cfa 40 - ^ .ra: .cfa 8 - ^
STACK CFI INIT a87f9 1a4 .cfa: $rsp 192 + $rbp: .cfa 0 - ^ $rsi: .cfa 0 - ^ $r14: .cfa 0 - ^ $r15: .cfa 0 - ^ $rbx: .cfa 16 - ^ $rdi: .cfa 24 - ^ $r12: .cfa 32 - ^ $r13: .cfa 40 - ^ .ra: .cfa 8 - ^
STACK CFI INIT a899e ae .cfa: $rsp 272 + $rbx: .cfa 16 - ^ $rsi: .cfa 24 - ^ $rdi: .cfa 32 - ^ $r12: .cfa 40 - ^ $r13: .cfa 48 - ^ $r14: .cfa 56 - ^ $r15: .cfa 64 - ^ .ra: .cfa 8 - ^
STACK CFI INIT a8a4c 1a .cfa: $rsp 80 + $rbp: .cfa 16 - ^ .ra: .cfa 8 - ^
STACK CFI INIT a8a66 11 .cfa: $rsp 80 + $rbx: .cfa 0 - ^ $rsi: .cfa 0 - ^ $rdi: .cfa 0 - ^ $r14: .cfa 0 - ^ $rbp: .cfa 16 - ^ .ra: .cfa 8 - ^
STACK CFI INIT a8a78 4c .cfa: $rsp 736 + $rbp: .cfa 0 - ^ $rdi: .cfa 0 - ^ $r13: .cfa 0 - ^ $r14: .cfa 0 - ^ $r15: .cfa 0 - ^ $rbx: .cfa 16 - ^ $rsi: .cfa 24 - ^ $r12: .cfa 32 - ^ .ra: .cfa 8 - ^
STACK CFI INIT a8ae0 513 .cfa: $rsp 352 + $rbp: .cfa 16 - ^ $rbx: .cfa 24 - ^ $rsi: .cfa 32 - ^ $rdi: .cfa 40 - ^ $r12: .cfa 48 - ^ $r13: .cfa 56 - ^ $r14: .cfa 64 - ^ $r15: .cfa 72 - ^ .ra: .cfa 8 - ^
STACK CFI INIT a8ff4 259 .cfa: $rsp 624 + $rbx: .cfa 16 - ^ $rsi: .cfa 24 - ^ $rdi: .cfa 32 - ^ $r12: .cfa 40 - ^ $r13: .cfa 48 - ^ $r14: .cfa 56 - ^ $r15: .cfa 64 - ^ .ra: .cfa 8 - ^
STACK CFI INIT a924e 67 .cfa: $rsp 128 + $rsi: .cfa 16 - ^ $rdi: .cfa 24 - ^ $r13: .cfa 32 - ^ $r14: .cfa 40 - ^ $r15: .cfa 48 - ^ $rbx: .cfa 0 - ^ $rbp: .cfa 0 - ^ .ra: .cfa 8 - ^
STACK CFI INIT a92b6 130 .cfa: $rsp 64 + $rdi: .cfa 16 - ^ $rbx: .cfa 0 - ^ .ra: .cfa 8 - ^
STACK CFI INIT a93e6 68 .cfa: $rsp 112 + $rsi: .cfa 16 - ^ $rdi: .cfa 24 - ^ $r12: .cfa 32 - ^ $r14: .cfa 40 - ^ $r15: .cfa 48 - ^ $rbx: .cfa 0 - ^ .ra: .cfa 8 - ^
STACK CFI INIT a944e 1c .cfa: $rsp 16 + $rsi: .cfa 0 - ^ $r14: .cfa 16 - ^ $rbx: .cfa 0 - ^ .ra: .cfa 8 - ^
STACK CFI INIT a946a c .cfa: $rsp 16 + $rbp: .cfa 0 - ^ $rsi: .cfa 0 - ^ $r14: .cfa 16 - ^ $rbx: .cfa 0 - ^ .ra: .cfa 8 - ^
STACK CFI INIT a9476 79 .cfa: $rsp 16 + $rdi: .cfa 0 - ^ $rbp: .cfa 0 - ^ $rsi: .cfa 0 - ^ $r14: .cfa 16 - ^ $rbx: .cfa 0 - ^ .ra: .cfa 8 - ^
STACK CFI INIT a94ef e .cfa: $rsp 16 + $rsi: .cfa 0 - ^ $r14: .cfa 16 - ^ $rbx: .cfa 0 - ^ .ra: .cfa 8 - ^
STACK CFI INIT a94fd b .cfa: $rsp 16 + $r14: .cfa 16 - ^ $rbx: .cfa 0 - ^ .ra: .cfa 8 - ^
STACK CFI INIT a9508 118 .cfa: $rsp 272 + $rsi: .cfa 0 - ^ $rdi: .cfa 0 - ^ $r12: .cfa 0 - ^ $r15: .cfa 0 - ^ $rbx: .cfa 16 - ^ $rbp: .cfa 24 - ^ $r13: .cfa 32 - ^ $r14: .cfa 40 - ^ .ra: .cfa 8 - ^
STACK CFI INIT a9620 b6 .cfa: $rsp 272 + $rbx: .cfa 16 - ^ $rbp: .cfa 24 - ^ $r13: .cfa 32 - ^ $r14: .cfa 40 - ^ .ra: .cfa 8 - ^
STACK CFI INIT a96d6 4ff .cfa: $rsp 208 + $rbx: .cfa 16 - ^ $rbp: .cfa 24 - ^ $rsi: .cfa 32 - ^ $rdi: .cfa 40 - ^ $r12: .cfa 48 - ^ $r13: .cfa 56 - ^ $r14: .cfa 64 - ^ $r15: .cfa 72 - ^ .ra: .cfa 8 - ^
STACK CFI INIT a9bd6 60 .cfa: $rsp 752 + $rbx: .cfa 16 - ^ $rsi: .cfa 24 - ^ $rdi: .cfa 32 - ^ $r12: .cfa 40 - ^ $r13: .cfa 48 - ^ $r14: .cfa 56 - ^ $r15: .cfa 64 - ^ .ra: .cfa 8 - ^
STACK CFI INIT a9c36 464 .cfa: $rsp 272 + $r12: .cfa 0 - ^ $r13: .cfa 0 - ^ $rbp: .cfa 16 - ^ $rbx: .cfa 24 - ^ $rsi: .cfa 32 - ^ $rdi: .cfa 40 - ^ $r14: .cfa 48 - ^ $r15: .cfa 56 - ^ .ra: .cfa 8 - ^
STACK CFI INIT aa09a 19f .cfa: $rsp 272 + $rbp: .cfa 16 - ^ $rbx: .cfa 24 - ^ $rsi: .cfa 32 - ^ $rdi: .cfa 40 - ^ $r14: .cfa 48 - ^ $r15: .cfa 56 - ^ .ra: .cfa 8 - ^
STACK CFI INIT aa23a 93 .cfa: $rsp 96 + $rbx: .cfa 16 - ^ $rsi: .cfa 24 - ^ $rdi: .cfa 32 - ^ $r12: .cfa 40 - ^ $r15: .cfa 48 - ^ .ra: .cfa 8 - ^
STACK CFI INIT aa2cd 69 .cfa: $rsp 96 + $r14: .cfa 0 - ^ $rbx: .cfa 16 - ^ $rsi: .cfa 24 - ^ $rdi: .cfa 32 - ^ $r12: .cfa 40 - ^ $r15: .cfa 48 - ^ .ra: .cfa 8 - ^
STACK CFI INIT aa336 a4 .cfa: $rsp 96 + $rbp: .cfa 0 - ^ $r14: .cfa 0 - ^ $rbx: .cfa 16 - ^ $rsi: .cfa 24 - ^ $rdi: .cfa 32 - ^ $r12: .cfa 40 - ^ $r15: .cfa 48 - ^ .ra: .cfa 8 - ^
STACK CFI INIT aa3da 14e .cfa: $rsp 96 + $rbp: .cfa 0 - ^ $r13: .cfa 0 - ^ $r14: .cfa 0 - ^ $rbx: .cfa 16 - ^ $rsi: .cfa 24 - ^ $rdi: .cfa 32 - ^ $r12: .cfa 40 - ^ $r15: .cfa 48 - ^ .ra: .cfa 8 - ^
STACK CFI INIT aa528 b0 .cfa: $rsp 96 + $rbp: .cfa 0 - ^ $r14: .cfa 0 - ^ $rbx: .cfa 16 - ^ $rsi: .cfa 24 - ^ $rdi: .cfa 32 - ^ $r12: .cfa 40 - ^ $r15: .cfa 48 - ^ .ra: .cfa 8 - ^
STACK CFI INIT aa5d8 209 .cfa: $rsp 160 + $r15: .cfa 0 - ^ $rbx: .cfa 16 - ^ $rbp: .cfa 24 - ^ $rsi: .cfa 32 - ^ $rdi: .cfa 40 - ^ $r14: .cfa 48 - ^ .ra: .cfa 8 - ^
STACK CFI INIT aa7e1 c5 .cfa: $rsp 160 + $r12: .cfa 0 - ^ $r15: .cfa 0 - ^ $rbx: .cfa 16 - ^ $rbp: .cfa 24 - ^ $rsi: .cfa 32 - ^ $rdi: .cfa 40 - ^ $r14: .cfa 48 - ^ .ra: .cfa 8 - ^
STACK CFI INIT aa8a6 98 .cfa: $rsp 560 + $rdi: .cfa 16 - ^ $r12: .cfa 24 - ^ $r13: .cfa 32 - ^ $r14: .cfa 40 - ^ $r15: .cfa 48 - ^ $rbx: .cfa 0 - ^ $rsi: .cfa 0 - ^ .ra: .cfa 8 - ^
STACK CFI INIT aa93e 59 .cfa: $rsp 48 + $rbx: .cfa 16 - ^ .ra: .cfa 8 - ^
STACK CFI INIT aa998 14 .cfa: $rsp 48 + $rdi: .cfa 16 - ^ $rbx: .cfa 0 - ^ $rsi: .cfa 0 - ^ .ra: .cfa 8 - ^
STACK CFI INIT aa9ac a9 .cfa: $rsp 80 + $rdi: .cfa 16 - ^ $r12: .cfa 24 - ^ $r13: .cfa 32 - ^ $r14: .cfa 40 - ^ $r15: .cfa 48 - ^ $rbx: .cfa 0 - ^ $rbp: .cfa 0 - ^ $rsi: .cfa 0 - ^ .ra: .cfa 8 - ^
STACK CFI INIT aaa56 44b .cfa: $rsp 176 + $rbp: .cfa 16 - ^ $rsi: .cfa 24 - ^ $rdi: .cfa 32 - ^ $r12: .cfa 40 - ^ $r13: .cfa 48 - ^ $r14: .cfa 56 - ^ $r15: .cfa 64 - ^ $rbx: .cfa 0 - ^ .ra: .cfa 8 - ^
STACK CFI INIT aaea2 82 .cfa: $rsp 160 + $rbp: .cfa 0 - ^ $rdi: .cfa 0 - ^ $r12: .cfa 0 - ^ $r14: .cfa 0 - ^ $r15: .cfa 0 - ^ $rbx: .cfa 16 - ^ $rsi: .cfa 24 - ^ .ra: .cfa 8 - ^
STACK CFI INIT aaf24 189 .cfa: $rsp 160 + $rbp: .cfa 0 - ^ $rdi: .cfa 0 - ^ $r12: .cfa 0 - ^ $r13: .cfa 0 - ^ $r14: .cfa 0 - ^ $r15: .cfa 0 - ^ $rbx: .cfa 16 - ^ $rsi: .cfa 24 - ^ .ra: .cfa 8 - ^
STACK CFI INIT ab0ae 75 .cfa: $rsp 128 + $r14: .cfa 0 - ^ $rdi: .cfa 16 - ^ $r12: .cfa 24 - ^ $r15: .cfa 32 - ^ $rbx: .cfa 0 - ^ $rbp: .cfa 0 - ^ $rsi: .cfa 0 - ^ .ra: .cfa 8 - ^
STACK CFI INIT ab124 710 .cfa: $rsp 224 + $rbp: .cfa 16 - ^ $rbx: .cfa 24 - ^ $rsi: .cfa 32 - ^ $rdi: .cfa 40 - ^ $r12: .cfa 48 - ^ $r13: .cfa 56 - ^ $r14: .cfa 64 - ^ $r15: .cfa 72 - ^ .ra: .cfa 8 - ^
STACK CFI INIT ab834 2d .cfa: $rsp 992 + $rdi: .cfa 16 - ^ $r12: .cfa 24 - ^ $r13: .cfa 32 - ^ $r14: .cfa 40 - ^ $r15: .cfa 48 - ^ $rbx: .cfa 0 - ^ $rsi: .cfa 0 - ^ .ra: .cfa 8 - ^
STACK CFI INIT ab862 15a .cfa: $rsp 272 + $rbp: .cfa 16 - ^ $r12: .cfa 24 - ^ $r13: .cfa 32 - ^ $r14: .cfa 40 - ^ $r15: .cfa 48 - ^ $rbx: .cfa 0 - ^ $rsi: .cfa 0 - ^ $rdi: .cfa 0 - ^ .ra: .cfa 8 - ^
STACK CFI INIT ab9bc 19a .cfa: $rsp 256 + $rbp: .cfa 16 - ^ $rbx: .cfa 0 - ^ .ra: .cfa 8 - ^
STACK CFI INIT abb56 aa .cfa: $rsp 160 + $rbp: .cfa 16 - ^ $rsi: .cfa 24 - ^ $rdi: .cfa 32 - ^ $r12: .cfa 40 - ^ $r13: .cfa 48 - ^ $r14: .cfa 56 - ^ $r15: .cfa 64 - ^ $rbx: .cfa 0 - ^ .ra: .cfa 8 - ^
STACK CFI INIT abc00 20 .cfa: $rsp 112 + $rbx: .cfa 16 - ^ $rbp: .cfa 24 - ^ $rsi: .cfa 32 - ^ $rdi: .cfa 40 - ^ $r12: .cfa 48 - ^ $r13: .cfa 56 - ^ $r14: .cfa 64 - ^ .ra: .cfa 8 - ^
STACK CFI INIT abc20 159 .cfa: $rsp 112 + $r15: .cfa 0 - ^ $rbx: .cfa 16 - ^ $rbp: .cfa 24 - ^ $rsi: .cfa 32 - ^ $rdi: .cfa 40 - ^ $r12: .cfa 48 - ^ $r13: .cfa 56 - ^ $r14: .cfa 64 - ^ .ra: .cfa 8 - ^
STACK CFI INIT abd7a 14 .cfa: $rsp 112 + $rbp: .cfa 16 - ^ $rdi: .cfa 24 - ^ $r14: .cfa 32 - ^ $rbx: .cfa 0 - ^ .ra: .cfa 8 - ^
STACK CFI INIT abd8e 1b .cfa: $rsp 48 + $rdi: .cfa 16 - ^ $rbx: .cfa 0 - ^ .ra: .cfa 8 - ^
STACK CFI INIT abdaa 29 .cfa: $rsp 112 + $rbx: .cfa 16 - ^ $rsi: .cfa 24 - ^ $r12: .cfa 32 - ^ $r14: .cfa 40 - ^ .ra: .cfa 8 - ^
STACK CFI INIT abdd3 59 .cfa: $rsp 112 + $rbp: .cfa 0 - ^ $rdi: .cfa 0 - ^ $r13: .cfa 0 - ^ $r15: .cfa 0 - ^ $rbx: .cfa 16 - ^ $rsi: .cfa 24 - ^ $r12: .cfa 32 - ^ $r14: .cfa 40 - ^ .ra: .cfa 8 - ^
STACK CFI INIT abe2c 94 .cfa: $rsp 112 + $rbp: .cfa 0 - ^ $rdi: .cfa 0 - ^ $r15: .cfa 0 - ^ $rbx: .cfa 16 - ^ $rsi: .cfa 24 - ^ $r12: .cfa 32 - ^ $r14: .cfa 40 - ^ .ra: .cfa 8 - ^
STACK CFI INIT abec0 e8 .cfa: $rsp 128 + $rbp: .cfa 16 - ^ $rsi: .cfa 24 - ^ $rdi: .cfa 32 - ^ $r12: .cfa 40 - ^ $r13: .cfa 48 - ^ $r14: .cfa 56 - ^ $r15: .cfa 64 - ^ $rbx: .cfa 0 - ^ .ra: .cfa 8 - ^
STACK CFI INIT abfa8 6c .cfa: $rsp 16 + $rbx: .cfa 8 - ^ .ra: .cfa 8 - ^
STACK CFI INIT ac040 88 .cfa: $rsp 64 + $rbx: .cfa 16 - ^ .ra: .cfa 8 - ^
STACK CFI INIT ac0c8 14 .cfa: $rsp 112 + $rbp: .cfa 16 - ^ $rdi: .cfa 24 - ^ $r15: .cfa 32 - ^ $rbx: .cfa 0 - ^ $rsi: .cfa 0 - ^ .ra: .cfa 8 - ^
STACK CFI INIT ac0dc a .cfa: $rsp 160 + $rdi: .cfa 16 - ^ $r12: .cfa 24 - ^ $r13: .cfa 32 - ^ $r14: .cfa 40 - ^ $r15: .cfa 48 - ^ $rbx: .cfa 0 - ^ $rsi: .cfa 0 - ^ .ra: .cfa 8 - ^
STACK CFI INIT ac0e6 5a .cfa: $rsp 64 + $rdi: .cfa 16 - ^ $rbx: .cfa 0 - ^ $rsi: .cfa 0 - ^ .ra: .cfa 8 - ^
STACK CFI INIT ac140 73 .cfa: $rsp 80 + $rdi: .cfa 16 - ^ $r12: .cfa 24 - ^ $r13: .cfa 32 - ^ $r14: .cfa 40 - ^ $r15: .cfa 48 - ^ $rbx: .cfa 0 - ^ $rbp: .cfa 0 - ^ $rsi: .cfa 0 - ^ .ra: .cfa 8 - ^
STACK CFI INIT ac1b4 bd .cfa: $rsp 208 + $rbp: .cfa 16 - ^ $rbx: .cfa 24 - ^ $rsi: .cfa 32 - ^ $rdi: .cfa 40 - ^ .ra: .cfa 8 - ^
STACK CFI INIT ac272 5 .cfa: $rsp 48 + $rdi: .cfa 16 - ^ $rbx: .cfa 0 - ^ $rsi: .cfa 0 - ^ .ra: .cfa 8 - ^
STACK CFI INIT ac278 2dd .cfa: $rsp 1056 + $rdi: .cfa 16 - ^ $r12: .cfa 24 - ^ $r13: .cfa 32 - ^ $r14: .cfa 40 - ^ $r15: .cfa 48 - ^ $rbx: .cfa 0 - ^ $rsi: .cfa 0 - ^ .ra: .cfa 8 - ^
STACK CFI INIT ac556 a .cfa: $rsp 80 + $rdi: .cfa 16 - ^ $r14: .cfa 24 - ^ $r15: .cfa 32 - ^ $rbx: .cfa 0 - ^ $rbp: .cfa 0 - ^ $rsi: .cfa 0 - ^ .ra: .cfa 8 - ^
STACK CFI INIT ac560 13 .cfa: $rsp 128 + $rsi: .cfa 16 - ^ $rdi: .cfa 24 - ^ $r12: .cfa 32 - ^ $r14: .cfa 40 - ^ $r15: .cfa 48 - ^ $rbx: .cfa 0 - ^ $rbp: .cfa 0 - ^ .ra: .cfa 8 - ^
STACK CFI INIT ac573 16d .cfa: $rsp 128 + $r13: .cfa 0 - ^ $rsi: .cfa 16 - ^ $rdi: .cfa 24 - ^ $r12: .cfa 32 - ^ $r14: .cfa 40 - ^ $r15: .cfa 48 - ^ $rbx: .cfa 0 - ^ $rbp: .cfa 0 - ^ .ra: .cfa 8 - ^
STACK CFI INIT ac6e0 a .cfa: $rsp 80 + $rbx: .cfa 16 - ^ .ra: .cfa 8 - ^
STACK CFI INIT ac6ea 65 .cfa: $rsp 288 + $rbp: .cfa 16 - ^ $rbx: .cfa 24 - ^ $rsi: .cfa 32 - ^ $rdi: .cfa 40 - ^ $r12: .cfa 48 - ^ $r13: .cfa 56 - ^ $r14: .cfa 64 - ^ $r15: .cfa 72 - ^ .ra: .cfa 8 - ^
STACK CFI INIT ac750 a .cfa: $rsp 48 + $rdi: .cfa 16 - ^ $rbx: .cfa 0 - ^ $rbp: .cfa 0 - ^ $rsi: .cfa 0 - ^ .ra: .cfa 8 - ^
STACK CFI INIT ac75a 58 .cfa: $rsp 64 + $rdi: .cfa 16 - ^ $rbx: .cfa 0 - ^ $rbp: .cfa 0 - ^ $rsi: .cfa 0 - ^ .ra: .cfa 8 - ^
STACK CFI INIT ac7b2 15 .cfa: $rsp 48 + $rdi: .cfa 16 - ^ $rbx: .cfa 0 - ^ $rbp: .cfa 0 - ^ $rsi: .cfa 0 - ^ .ra: .cfa 8 - ^
STACK CFI INIT ac7c8 32 .cfa: $rsp 64 + $rdi: .cfa 16 - ^ $rbx: .cfa 0 - ^ .ra: .cfa 8 - ^
STACK CFI INIT ac7fa 59 .cfa: $rsp 96 + $rdi: .cfa 16 - ^ $r12: .cfa 24 - ^ $r13: .cfa 32 - ^ $r14: .cfa 40 - ^ $r15: .cfa 48 - ^ $rbx: .cfa 0 - ^ $rbp: .cfa 0 - ^ $rsi: .cfa 0 - ^ .ra: .cfa 8 - ^
STACK CFI INIT ac854 65 .cfa: $rsp 96 + $rdi: .cfa 16 - ^ $rbx: .cfa 0 - ^ .ra: .cfa 8 - ^
STACK CFI INIT ac8ba 7d .cfa: $rsp 48 + $rdi: .cfa 16 - ^ $rbx: .cfa 0 - ^ $rsi: .cfa 0 - ^ .ra: .cfa 8 - ^
STACK CFI INIT ac938 65 .cfa: $rsp 96 + $rdi: .cfa 16 - ^ $rbx: .cfa 0 - ^ .ra: .cfa 8 - ^
STACK CFI INIT ac99e 191 .cfa: $rsp 208 + $rbp: .cfa 16 - ^ $rsi: .cfa 24 - ^ $rdi: .cfa 32 - ^ $r12: .cfa 40 - ^ $r13: .cfa 48 - ^ $r14: .cfa 56 - ^ $r15: .cfa 64 - ^ $rbx: .cfa 0 - ^ .ra: .cfa 8 - ^
STACK CFI INIT acb5a 1b .cfa: $rsp 48 + $rbx: .cfa 16 - ^ .ra: .cfa 8 - ^
STACK CFI INIT acb76 24 .cfa: $rsp 48 + .ra: .cfa 8 - ^
STACK CFI INIT acb9a 24 .cfa: $rsp 48 + .ra: .cfa 8 - ^
STACK CFI INIT acbf0 3f .cfa: $rsp 128 + $rbp: .cfa 16 - ^ $rsi: .cfa 24 - ^ $rdi: .cfa 32 - ^ $r12: .cfa 40 - ^ $r13: .cfa 48 - ^ $r14: .cfa 56 - ^ $r15: .cfa 64 - ^ $rbx: .cfa 0 - ^ .ra: .cfa 8 - ^
STACK CFI INIT acc30 22 .cfa: $rsp 176 + $rbp: .cfa 16 - ^ $r14: .cfa 24 - ^ $r15: .cfa 32 - ^ $rbx: .cfa 0 - ^ $rsi: .cfa 0 - ^ $rdi: .cfa 0 - ^ $r12: .cfa 0 - ^ .ra: .cfa 8 - ^
STACK CFI INIT acc52 130 .cfa: $rsp 208 + $rbp: .cfa 16 - ^ $rsi: .cfa 24 - ^ $rdi: .cfa 32 - ^ $r12: .cfa 40 - ^ $r13: .cfa 48 - ^ $r14: .cfa 56 - ^ $r15: .cfa 64 - ^ $rbx: .cfa 0 - ^ .ra: .cfa 8 - ^
STACK CFI INIT acd82 a .cfa: $rsp 112 + $rbp: .cfa 16 - ^ $rsi: .cfa 24 - ^ $rdi: .cfa 32 - ^ $r12: .cfa 40 - ^ $r13: .cfa 48 - ^ $r14: .cfa 56 - ^ $r15: .cfa 64 - ^ $rbx: .cfa 0 - ^ .ra: .cfa 8 - ^
STACK CFI INIT acd8c 18e .cfa: $rsp 160 + $rbp: .cfa 16 - ^ $rsi: .cfa 24 - ^ $rdi: .cfa 32 - ^ $r12: .cfa 40 - ^ $r13: .cfa 48 - ^ $r14: .cfa 56 - ^ $r15: .cfa 64 - ^ $rbx: .cfa 0 - ^ .ra: .cfa 8 - ^
STACK CFI INIT acf1a 20 .cfa: $rsp 64 + $rbx: .cfa 16 - ^ .ra: .cfa 8 - ^
STACK CFI INIT acf3a 2fa .cfa: $rsp 352 + $rbp: .cfa 16 - ^ $rsi: .cfa 24 - ^ $rdi: .cfa 32 - ^ $r12: .cfa 40 - ^ $r13: .cfa 48 - ^ $r14: .cfa 56 - ^ $r15: .cfa 64 - ^ $rbx: .cfa 0 - ^ .ra: .cfa 8 - ^
STACK CFI INIT ad234 b9 .cfa: $rsp 528 + $rbp: .cfa 16 - ^ $rsi: .cfa 24 - ^ $rdi: .cfa 32 - ^ $r12: .cfa 40 - ^ $r13: .cfa 48 - ^ $r14: .cfa 56 - ^ $r15: .cfa 64 - ^ $rbx: .cfa 0 - ^ .ra: .cfa 8 - ^
STACK CFI INIT ad2ee a .cfa: $rsp 96 + $rdi: .cfa 16 - ^ $r14: .cfa 24 - ^ $r15: .cfa 32 - ^ $rbx: .cfa 0 - ^ $rbp: .cfa 0 - ^ $rsi: .cfa 0 - ^ .ra: .cfa 8 - ^
STACK CFI INIT ad2f8 15 .cfa: $rsp 64 + $rdi: .cfa 16 - ^ $rbx: .cfa 0 - ^ $rsi: .cfa 0 - ^ .ra: .cfa 8 - ^
STACK CFI INIT ad30e 62 .cfa: $rsp 80 + $r12: .cfa 16 - ^ $r14: .cfa 24 - ^ $r15: .cfa 32 - ^ $rbx: .cfa 0 - ^ $rbp: .cfa 0 - ^ $rsi: .cfa 0 - ^ .ra: .cfa 8 - ^
STACK CFI INIT ad370 e9 .cfa: $rsp 496 + $rbp: .cfa 16 - ^ $rbx: .cfa 24 - ^ $rsi: .cfa 32 - ^ $rdi: .cfa 40 - ^ $r12: .cfa 48 - ^ $r13: .cfa 56 - ^ $r14: .cfa 64 - ^ $r15: .cfa 72 - ^ .ra: .cfa 8 - ^
STACK CFI INIT ad45a 22 .cfa: $rsp 160 + $rbp: .cfa 16 - ^ $r14: .cfa 24 - ^ $r15: .cfa 32 - ^ $rbx: .cfa 0 - ^ $rsi: .cfa 0 - ^ $rdi: .cfa 0 - ^ $r12: .cfa 0 - ^ .ra: .cfa 8 - ^
STACK CFI INIT ad47c a0 .cfa: $rsp 176 + $rbp: .cfa 16 - ^ $rsi: .cfa 24 - ^ $rdi: .cfa 32 - ^ $r12: .cfa 40 - ^ $r13: .cfa 48 - ^ $r14: .cfa 56 - ^ $r15: .cfa 64 - ^ $rbx: .cfa 0 - ^ .ra: .cfa 8 - ^
STACK CFI INIT ad51c 22 .cfa: $rsp 96 + $rdi: .cfa 16 - ^ $r12: .cfa 24 - ^ $r13: .cfa 32 - ^ $r14: .cfa 40 - ^ $r15: .cfa 48 - ^ $rbx: .cfa 0 - ^ $rbp: .cfa 0 - ^ $rsi: .cfa 0 - ^ .ra: .cfa 8 - ^
STACK CFI INIT ad53e 7 .cfa: $rsp 96 + $rdi: .cfa 16 - ^ $r12: .cfa 24 - ^ $r13: .cfa 32 - ^ $r14: .cfa 40 - ^ $r15: .cfa 48 - ^ $rbx: .cfa 0 - ^ $rsi: .cfa 0 - ^ .ra: .cfa 8 - ^
STACK CFI INIT ad546 1d7 .cfa: $rsp 208 + $rbp: .cfa 16 - ^ $rsi: .cfa 24 - ^ $rdi: .cfa 32 - ^ $r12: .cfa 40 - ^ $r13: .cfa 48 - ^ $r14: .cfa 56 - ^ $r15: .cfa 64 - ^ $rbx: .cfa 0 - ^ .ra: .cfa 8 - ^
STACK CFI INIT ad71e 14 .cfa: $rsp 96 + $r14: .cfa 16 - ^ $rbx: .cfa 0 - ^ $rbp: .cfa 0 - ^ $rsi: .cfa 0 - ^ $rdi: .cfa 0 - ^ .ra: .cfa 8 - ^
STACK CFI INIT ad732 56 .cfa: $rsp 80 + $rbx: .cfa 16 - ^ $rsi: .cfa 24 - ^ $rdi: .cfa 32 - ^ .ra: .cfa 8 - ^
STACK CFI INIT ad788 43 .cfa: $rsp 144 + $rbx: .cfa 16 - ^ $rsi: .cfa 24 - ^ $rdi: .cfa 32 - ^ $r14: .cfa 40 - ^ $r15: .cfa 48 - ^ .ra: .cfa 8 - ^
STACK CFI INIT ad7cc b1 .cfa: $rsp 64 + $rdi: .cfa 16 - ^ $rbx: .cfa 0 - ^ $rbp: .cfa 0 - ^ .ra: .cfa 8 - ^
STACK CFI INIT ad87e a .cfa: $rsp 320 + $rbx: .cfa 16 - ^ $rsi: .cfa 24 - ^ $rdi: .cfa 32 - ^ $r12: .cfa 40 - ^ $r13: .cfa 48 - ^ $r14: .cfa 56 - ^ $r15: .cfa 64 - ^ .ra: .cfa 8 - ^
STACK CFI INIT ad888 9 .cfa: $rsp 48 + $rdi: .cfa 16 - ^ $rbx: .cfa 0 - ^ .ra: .cfa 8 - ^
STACK CFI INIT ad892 28 .cfa: $rsp 64 + $rdi: .cfa 16 - ^ $r14: .cfa 24 - ^ $r15: .cfa 32 - ^ $rbx: .cfa 0 - ^ $rbp: .cfa 0 - ^ $rsi: .cfa 0 - ^ .ra: .cfa 8 - ^
STACK CFI INIT ad8ba 11 .cfa: $rsp 80 + $rdi: .cfa 16 - ^ $rbx: .cfa 0 - ^ $rsi: .cfa 0 - ^ .ra: .cfa 8 - ^
STACK CFI INIT ad8cc 4d .cfa: $rsp 112 + $rbp: .cfa 16 - ^ $rsi: .cfa 24 - ^ $rdi: .cfa 32 - ^ $r12: .cfa 40 - ^ $r13: .cfa 48 - ^ $r14: .cfa 56 - ^ $r15: .cfa 64 - ^ $rbx: .cfa 0 - ^ .ra: .cfa 8 - ^
STACK CFI INIT ad91a a .cfa: $rsp 112 + $rbx: .cfa 16 - ^ $rbp: .cfa 24 - ^ $rsi: .cfa 32 - ^ $rdi: .cfa 40 - ^ $r13: .cfa 48 - ^ $r14: .cfa 56 - ^ $r15: .cfa 64 - ^ .ra: .cfa 8 - ^
STACK CFI INIT ad924 7 .cfa: $rsp 64 + $rdi: .cfa 16 - ^ $rbx: .cfa 0 - ^ .ra: .cfa 8 - ^
STACK CFI INIT ad92c 14 .cfa: $rsp 48 + $rdi: .cfa 16 - ^ $rbx: .cfa 0 - ^ .ra: .cfa 8 - ^
STACK CFI INIT ad940 35 .cfa: $rsp 192 + $rsi: .cfa 16 - ^ $rdi: .cfa 24 - ^ $r12: .cfa 32 - ^ $r13: .cfa 40 - ^ $r15: .cfa 48 - ^ $rbx: .cfa 0 - ^ .ra: .cfa 8 - ^
STACK CFI INIT ad976 19 .cfa: $rsp 64 + $r14: .cfa 16 - ^ $rbx: .cfa 0 - ^ $rbp: .cfa 0 - ^ $rsi: .cfa 0 - ^ $rdi: .cfa 0 - ^ .ra: .cfa 8 - ^
STACK CFI INIT ad990 6d .cfa: $rsp 288 + $rdi: .cfa 16 - ^ $rbx: .cfa 0 - ^ .ra: .cfa 8 - ^
STACK CFI INIT ad9fe 34 .cfa: $rsp 48 + $rdi: .cfa 16 - ^ $rbx: .cfa 0 - ^ .ra: .cfa 8 - ^
STACK CFI INIT ada32 5f .cfa: $rsp 48 + $rdi: .cfa 16 - ^ $rbx: .cfa 0 - ^ .ra: .cfa 8 - ^
STACK CFI INIT ada92 9b .cfa: $rsp 48 + .ra: .cfa 8 - ^
STACK CFI INIT adb2e 47 .cfa: $rsp 128 + $rdi: .cfa 16 - ^ $r12: .cfa 24 - ^ $r14: .cfa 32 - ^ $rbx: .cfa 0 - ^ $rsi: .cfa 0 - ^ .ra: .cfa 8 - ^
STACK CFI INIT adb8a 22 .cfa: $rsp 48 + $rdi: .cfa 16 - ^ $rbx: .cfa 0 - ^ $rbp: .cfa 0 - ^ $rsi: .cfa 0 - ^ .ra: .cfa 8 - ^
STACK CFI INIT adbac f .cfa: $rsp 96 + $rbx: .cfa 16 - ^ $rsi: .cfa 24 - ^ $rdi: .cfa 32 - ^ $r14: .cfa 40 - ^ $r15: .cfa 48 - ^ .ra: .cfa 8 - ^
STACK CFI INIT adbbc 13 .cfa: $rsp 48 + $rdi: .cfa 16 - ^ $rbx: .cfa 0 - ^ .ra: .cfa 8 - ^
STACK CFI INIT adbd0 1b .cfa: $rsp 64 + $rdi: .cfa 16 - ^ $rbx: .cfa 0 - ^ $rsi: .cfa 0 - ^ .ra: .cfa 8 - ^
STACK CFI INIT adbec 5f .cfa: $rsp 80 + $rdi: .cfa 16 - ^ $r14: .cfa 24 - ^ $r15: .cfa 32 - ^ $rbx: .cfa 0 - ^ $rbp: .cfa 0 - ^ $rsi: .cfa 0 - ^ .ra: .cfa 8 - ^
STACK CFI INIT adc4c f .cfa: $rsp 48 + $rbx: .cfa 16 - ^ .ra: .cfa 8 - ^
STACK CFI INIT adc5c a .cfa: $rsp 48 + $rdi: .cfa 16 - ^ $rbx: .cfa 0 - ^ $rsi: .cfa 0 - ^ .ra: .cfa 8 - ^
STACK CFI INIT adc66 a .cfa: $rsp 144 + $rdi: .cfa 16 - ^ $r12: .cfa 24 - ^ $r13: .cfa 32 - ^ $r14: .cfa 40 - ^ $r15: .cfa 48 - ^ $rbx: .cfa 0 - ^ $rsi: .cfa 0 - ^ .ra: .cfa 8 - ^
STACK CFI INIT adc70 c .cfa: $rsp 64 + $rsi: .cfa 16 - ^ $rdi: .cfa 24 - ^ $r14: .cfa 32 - ^ $rbp: .cfa 0 - ^ .ra: .cfa 8 - ^
STACK CFI INIT adc7c 5d .cfa: $rsp 112 + $rbp: .cfa 16 - ^ $rdi: .cfa 24 - ^ $r14: .cfa 32 - ^ $rbx: .cfa 0 - ^ $rsi: .cfa 0 - ^ .ra: .cfa 8 - ^
STACK CFI INIT adcda 21 .cfa: $rsp 80 + $rsi: .cfa 16 - ^ $rdi: .cfa 24 - ^ $r14: .cfa 32 - ^ $rbx: .cfa 0 - ^ $rbp: .cfa 0 - ^ .ra: .cfa 8 - ^
STACK CFI INIT add1c 12a .cfa: $rsp 352 + $rbp: .cfa 16 - ^ $rsi: .cfa 24 - ^ $rdi: .cfa 32 - ^ $r12: .cfa 40 - ^ $r13: .cfa 48 - ^ $r14: .cfa 56 - ^ $r15: .cfa 64 - ^ $rbx: .cfa 0 - ^ .ra: .cfa 8 - ^
STACK CFI INIT ade46 148 .cfa: $rsp 2112 + $rbx: .cfa 16 - ^ $rsi: .cfa 24 - ^ $rdi: .cfa 32 - ^ $r12: .cfa 40 - ^ $r13: .cfa 48 - ^ $r14: .cfa 56 - ^ $r15: .cfa 64 - ^ .ra: .cfa 8 - ^
STACK CFI INIT adf8e 1e .cfa: $rsp 64 + $rdi: .cfa 16 - ^ $r14: .cfa 24 - ^ $r15: .cfa 32 - ^ $rbx: .cfa 0 - ^ $rbp: .cfa 0 - ^ $rsi: .cfa 0 - ^ .ra: .cfa 8 - ^
STACK CFI INIT adfac b8 .cfa: $rsp 240 + $rbp: .cfa 16 - ^ $rbx: .cfa 24 - ^ $rsi: .cfa 32 - ^ $rdi: .cfa 40 - ^ $r12: .cfa 48 - ^ $r13: .cfa 56 - ^ $r14: .cfa 64 - ^ $r15: .cfa 72 - ^ .ra: .cfa 8 - ^
STACK CFI INIT ae064 5 .cfa: $rsp 64 + $rdi: .cfa 16 - ^ $rbx: .cfa 0 - ^ $rbp: .cfa 0 - ^ $rsi: .cfa 0 - ^ .ra: .cfa 8 - ^
STACK CFI INIT ae06a 33 .cfa: $rsp 176 + $rbp: .cfa 16 - ^ $rsi: .cfa 24 - ^ $rdi: .cfa 32 - ^ $r12: .cfa 40 - ^ $r13: .cfa 48 - ^ $r14: .cfa 56 - ^ $r15: .cfa 64 - ^ $rbx: .cfa 0 - ^ .ra: .cfa 8 - ^
STACK CFI INIT ae09e 21 .cfa: $rsp 112 + $rdi: .cfa 16 - ^ $rbx: .cfa 0 - ^ .ra: .cfa 8 - ^
STACK CFI INIT ae0c0 f7 .cfa: $rsp 320 + $rbp: .cfa 16 - ^ $rbx: .cfa 24 - ^ $rsi: .cfa 32 - ^ $rdi: .cfa 40 - ^ $r12: .cfa 48 - ^ $r14: .cfa 56 - ^ $r15: .cfa 64 - ^ .ra: .cfa 8 - ^
STACK CFI INIT ae1b8 61 .cfa: $rsp 144 + $rbp: .cfa 16 - ^ $rbx: .cfa 24 - ^ $rsi: .cfa 32 - ^ $rdi: .cfa 40 - ^ $r12: .cfa 48 - ^ $r13: .cfa 56 - ^ $r15: .cfa 64 - ^ .ra: .cfa 8 - ^
STACK CFI INIT ae21a 1e .cfa: $rsp 224 + $rsi: .cfa 16 - ^ $rdi: .cfa 24 - ^ $r14: .cfa 32 - ^ $rbx: .cfa 0 - ^ $rbp: .cfa 0 - ^ .ra: .cfa 8 - ^
STACK CFI INIT ae238 a .cfa: $rsp 48 + $rdi: .cfa 16 - ^ $rbx: .cfa 0 - ^ .ra: .cfa 8 - ^
STACK CFI INIT ae242 72 .cfa: $rsp 640 + $rbp: .cfa 16 - ^ $rsi: .cfa 24 - ^ $rdi: .cfa 32 - ^ $r12: .cfa 40 - ^ $r13: .cfa 48 - ^ $r14: .cfa 56 - ^ $r15: .cfa 64 - ^ $rbx: .cfa 0 - ^ .ra: .cfa 8 - ^
STACK CFI INIT ae2b4 32 .cfa: $rsp 176 + $rdi: .cfa 16 - ^ $r14: .cfa 24 - ^ $r15: .cfa 32 - ^ $rbx: .cfa 0 - ^ $rsi: .cfa 0 - ^ .ra: .cfa 8 - ^
STACK CFI INIT ae2e6 598 .cfa: $rsp 1040 + $rbp: .cfa 16 - ^ $rbx: .cfa 24 - ^ $rsi: .cfa 32 - ^ $rdi: .cfa 40 - ^ .ra: .cfa 8 - ^
STACK CFI INIT ae87e 20 .cfa: $rsp 192 + $rdi: .cfa 16 - ^ $r12: .cfa 24 - ^ $r13: .cfa 32 - ^ $r14: .cfa 40 - ^ $r15: .cfa 48 - ^ $rbx: .cfa 0 - ^ $rbp: .cfa 0 - ^ $rsi: .cfa 0 - ^ .ra: .cfa 8 - ^
STACK CFI INIT ae89e b6 .cfa: $rsp 224 + $rbp: .cfa 16 - ^ $rsi: .cfa 24 - ^ $rdi: .cfa 32 - ^ $r12: .cfa 40 - ^ $r13: .cfa 48 - ^ $r14: .cfa 56 - ^ $r15: .cfa 64 - ^ $rbx: .cfa 0 - ^ .ra: .cfa 8 - ^
STACK CFI INIT ae954 a .cfa: $rsp 208 + $rbp: .cfa 16 - ^ $rsi: .cfa 24 - ^ $rdi: .cfa 32 - ^ $r12: .cfa 40 - ^ $r13: .cfa 48 - ^ $r14: .cfa 56 - ^ $r15: .cfa 64 - ^ $rbx: .cfa 0 - ^ .ra: .cfa 8 - ^
STACK CFI INIT ae95e 11 .cfa: $rsp 96 + $rbx: .cfa 0 - ^ $rdi: .cfa 0 - ^ $r12: .cfa 0 - ^ $r13: .cfa 0 - ^ $r14: .cfa 0 - ^ $r15: .cfa 0 - ^ $rbp: .cfa 16 - ^ $rsi: .cfa 24 - ^ .ra: .cfa 8 - ^
STACK CFI INIT ae970 237 .cfa: $rsp 288 + $rbp: .cfa 16 - ^ $rsi: .cfa 24 - ^ $rdi: .cfa 32 - ^ $r12: .cfa 40 - ^ $r13: .cfa 48 - ^ $r14: .cfa 56 - ^ $r15: .cfa 64 - ^ $rbx: .cfa 0 - ^ .ra: .cfa 8 - ^
STACK CFI INIT aeba8 2b .cfa: $rsp 32 + .ra: .cfa 8 - ^
STACK CFI INIT aebd4 f1 .cfa: $rsp 160 + $rbp: .cfa 16 - ^ $rsi: .cfa 24 - ^ $rdi: .cfa 32 - ^ $r12: .cfa 40 - ^ $r13: .cfa 48 - ^ $r14: .cfa 56 - ^ $r15: .cfa 64 - ^ $rbx: .cfa 0 - ^ .ra: .cfa 8 - ^
STACK CFI INIT aecc6 31 .cfa: $rsp 288 + $rbp: .cfa 16 - ^ $r12: .cfa 24 - ^ $r13: .cfa 32 - ^ $r14: .cfa 40 - ^ $r15: .cfa 48 - ^ $rbx: .cfa 0 - ^ $rsi: .cfa 0 - ^ $rdi: .cfa 0 - ^ .ra: .cfa 8 - ^
STACK CFI INIT aecf8 32 .cfa: $rsp 80 + $r12: .cfa 16 - ^ $r14: .cfa 24 - ^ $r15: .cfa 32 - ^ $rbx: .cfa 0 - ^ $rbp: .cfa 0 - ^ $rsi: .cfa 0 - ^ $rdi: .cfa 0 - ^ .ra: .cfa 8 - ^
STACK CFI INIT aed2a 175 .cfa: $rsp 112 + $rbx: .cfa 16 - ^ $rbp: .cfa 24 - ^ $rsi: .cfa 32 - ^ $rdi: .cfa 40 - ^ $r12: .cfa 48 - ^ $r13: .cfa 56 - ^ $r14: .cfa 64 - ^ $r15: .cfa 72 - ^ .ra: .cfa 8 - ^
STACK CFI INIT aeea0 1e0 .cfa: $rsp 144 + $rbp: .cfa 16 - ^ $rbx: .cfa 24 - ^ $rsi: .cfa 32 - ^ $rdi: .cfa 40 - ^ $r12: .cfa 48 - ^ $r13: .cfa 56 - ^ $r14: .cfa 64 - ^ $r15: .cfa 72 - ^ .ra: .cfa 8 - ^
STACK CFI INIT af080 1d .cfa: $rsp 288 + $rbp: .cfa 16 - ^ $rsi: .cfa 24 - ^ $rdi: .cfa 32 - ^ $r14: .cfa 40 - ^ $r15: .cfa 48 - ^ $rbx: .cfa 0 - ^ .ra: .cfa 8 - ^
STACK CFI INIT af09e a .cfa: $rsp 48 + $r14: .cfa 16 - ^ $rbx: .cfa 0 - ^ $rsi: .cfa 0 - ^ $rdi: .cfa 0 - ^ .ra: .cfa 8 - ^
STACK CFI INIT af0a8 32 .cfa: $rsp 96 + $rbp: .cfa 16 - ^ $rsi: .cfa 24 - ^ $rdi: .cfa 32 - ^ $r12: .cfa 40 - ^ $r14: .cfa 48 - ^ $rbx: .cfa 0 - ^ .ra: .cfa 8 - ^
STACK CFI INIT af0da a .cfa: $rsp 48 + $rdi: .cfa 16 - ^ $rbx: .cfa 0 - ^ .ra: .cfa 8 - ^
STACK CFI INIT af0e4 14 .cfa: $rsp 80 + $r12: .cfa 16 - ^ $r14: .cfa 24 - ^ $r15: .cfa 32 - ^ $rbx: .cfa 0 - ^ $rbp: .cfa 0 - ^ $rsi: .cfa 0 - ^ $rdi: .cfa 0 - ^ .ra: .cfa 8 - ^
STACK CFI INIT af0f8 a67 .cfa: $rsp 464 + $rbp: .cfa 16 - ^ $rsi: .cfa 24 - ^ $rdi: .cfa 32 - ^ $r12: .cfa 40 - ^ $r13: .cfa 48 - ^ $r14: .cfa 56 - ^ $r15: .cfa 64 - ^ $rbx: .cfa 0 - ^ .ra: .cfa 8 - ^
STACK CFI INIT afb60 d1 .cfa: $rsp 176 + $rbp: .cfa 16 - ^ $rsi: .cfa 24 - ^ $rdi: .cfa 32 - ^ $r12: .cfa 40 - ^ $r13: .cfa 48 - ^ $r14: .cfa 56 - ^ $r15: .cfa 64 - ^ $rbx: .cfa 0 - ^ .ra: .cfa 8 - ^
STACK CFI INIT afc32 32 .cfa: $rsp 96 + $rdi: .cfa 16 - ^ $r12: .cfa 24 - ^ $r13: .cfa 32 - ^ $r14: .cfa 40 - ^ $r15: .cfa 48 - ^ $rbx: .cfa 0 - ^ $rbp: .cfa 0 - ^ $rsi: .cfa 0 - ^ .ra: .cfa 8 - ^
STACK CFI INIT afc64 1b .cfa: $rsp 80 + .ra: .cfa 8 - ^
STACK CFI INIT afc80 38 .cfa: $rsp 176 + $rbp: .cfa 16 - ^ $rsi: .cfa 24 - ^ $rdi: .cfa 32 - ^ $rbx: .cfa 0 - ^ .ra: .cfa 8 - ^
STACK CFI INIT afcb8 3c .cfa: $rsp 64 + $r12: .cfa 16 - ^ $r14: .cfa 24 - ^ $r15: .cfa 32 - ^ $rbx: .cfa 0 - ^ $rbp: .cfa 0 - ^ $rsi: .cfa 0 - ^ $rdi: .cfa 0 - ^ .ra: .cfa 8 - ^
STACK CFI INIT afcf4 a .cfa: $rsp 224 + $rbp: .cfa 16 - ^ $rsi: .cfa 24 - ^ $rdi: .cfa 32 - ^ $rbx: .cfa 0 - ^ .ra: .cfa 8 - ^
STACK CFI INIT afcfe 14 .cfa: $rsp 64 + $rdi: .cfa 16 - ^ $r14: .cfa 24 - ^ $r15: .cfa 32 - ^ $rbx: .cfa 0 - ^ $rbp: .cfa 0 - ^ $rsi: .cfa 0 - ^ .ra: .cfa 8 - ^
STACK CFI INIT afd12 2f .cfa: $rsp 64 + $rdi: .cfa 16 - ^ $r14: .cfa 24 - ^ $r15: .cfa 32 - ^ $rbx: .cfa 0 - ^ $rbp: .cfa 0 - ^ $rsi: .cfa 0 - ^ .ra: .cfa 8 - ^
STACK CFI INIT afd42 7 .cfa: $rsp 48 + $r15: .cfa 16 - ^ $rbx: .cfa 0 - ^ $rbp: .cfa 0 - ^ $rsi: .cfa 0 - ^ $rdi: .cfa 0 - ^ .ra: .cfa 8 - ^
STACK CFI INIT afd4a d7 .cfa: $rsp 688 + $rbp: .cfa 16 - ^ $rbx: .cfa 24 - ^ $rsi: .cfa 32 - ^ $r12: .cfa 40 - ^ $r13: .cfa 48 - ^ $r14: .cfa 56 - ^ $r15: .cfa 64 - ^ .ra: .cfa 8 - ^
STACK CFI INIT afe22 6c .cfa: $rsp 240 + $rbp: .cfa 16 - ^ $rbx: .cfa 24 - ^ $rsi: .cfa 32 - ^ $rdi: .cfa 40 - ^ .ra: .cfa 8 - ^
STACK CFI INIT afe8e 8b .cfa: $rsp 512 + $rbp: .cfa 16 - ^ $rsi: .cfa 24 - ^ $rdi: .cfa 32 - ^ $r14: .cfa 40 - ^ $r15: .cfa 48 - ^ $rbx: .cfa 0 - ^ .ra: .cfa 8 - ^
STACK CFI INIT aff1a 1ed .cfa: $rsp 672 + $rdi: .cfa 16 - ^ $r12: .cfa 24 - ^ $r14: .cfa 32 - ^ $rbx: .cfa 0 - ^ $rbp: .cfa 0 - ^ $rsi: .cfa 0 - ^ .ra: .cfa 8 - ^
STACK CFI INIT b0108 64 .cfa: $rsp 48 + $rdi: .cfa 16 - ^ $rbx: .cfa 0 - ^ $rsi: .cfa 0 - ^ .ra: .cfa 8 - ^
STACK CFI INIT b016c 70 .cfa: $rsp 288 + $rbp: .cfa 16 - ^ $r14: .cfa 24 - ^ $r15: .cfa 32 - ^ $rbx: .cfa 0 - ^ $rsi: .cfa 0 - ^ $rdi: .cfa 0 - ^ .ra: .cfa 8 - ^
STACK CFI INIT b01dc 9d .cfa: $rsp 352 + $rbp: .cfa 16 - ^ $rsi: .cfa 24 - ^ $rdi: .cfa 32 - ^ $r12: .cfa 40 - ^ $r13: .cfa 48 - ^ $r14: .cfa 56 - ^ $r15: .cfa 64 - ^ $rbx: .cfa 0 - ^ .ra: .cfa 8 - ^
STACK CFI INIT b027a 24 .cfa: $rsp 128 + $rbp: .cfa 16 - ^ $rbx: .cfa 24 - ^ $rdi: .cfa 32 - ^ .ra: .cfa 8 - ^
STACK CFI INIT b029e d .cfa: $rsp 48 + $rdi: .cfa 16 - ^ $rbx: .cfa 0 - ^ $rbp: .cfa 0 - ^ $rsi: .cfa 0 - ^ .ra: .cfa 8 - ^
STACK CFI INIT b02ac 2c .cfa: $rsp 128 + $rbp: .cfa 16 - ^ $rsi: .cfa 24 - ^ $rdi: .cfa 32 - ^ $rbx: .cfa 0 - ^ .ra: .cfa 8 - ^
STACK CFI INIT b02d8 11 .cfa: $rsp 128 + $rdi: .cfa 16 - ^ $rbx: .cfa 0 - ^ .ra: .cfa 8 - ^
STACK CFI INIT b02ea 2d .cfa: $rsp 272 + $rbp: .cfa 16 - ^ $rbx: .cfa 0 - ^ $rsi: .cfa 0 - ^ $rdi: .cfa 0 - ^ .ra: .cfa 8 - ^
STACK CFI INIT b0318 101 .cfa: $rsp 336 + $rbp: .cfa 16 - ^ $rbx: .cfa 24 - ^ $rsi: .cfa 32 - ^ $rdi: .cfa 40 - ^ $r12: .cfa 48 - ^ $r13: .cfa 56 - ^ $r14: .cfa 64 - ^ $r15: .cfa 72 - ^ .ra: .cfa 8 - ^
STACK CFI INIT b041a 8a .cfa: $rsp 720 + $rdi: .cfa 16 - ^ $r12: .cfa 24 - ^ $r13: .cfa 32 - ^ $r14: .cfa 40 - ^ $r15: .cfa 48 - ^ $rbx: .cfa 0 - ^ $rsi: .cfa 0 - ^ .ra: .cfa 8 - ^
STACK CFI INIT b04a4 64 .cfa: $rsp 272 + $rbp: .cfa 16 - ^ $rsi: .cfa 24 - ^ $rdi: .cfa 32 - ^ $r12: .cfa 40 - ^ $r13: .cfa 48 - ^ $r14: .cfa 56 - ^ $r15: .cfa 64 - ^ $rbx: .cfa 0 - ^ .ra: .cfa 8 - ^
STACK CFI INIT b0508 c4 .cfa: $rsp 624 + $rdi: .cfa 16 - ^ $rbx: .cfa 0 - ^ $rsi: .cfa 0 - ^ .ra: .cfa 8 - ^
STACK CFI INIT b05cc b9 .cfa: $rsp 80 + $rbp: .cfa 16 - ^ $rsi: .cfa 24 - ^ $rdi: .cfa 32 - ^ $rbx: .cfa 0 - ^ .ra: .cfa 8 - ^
STACK CFI INIT b0686 1f7 .cfa: $rsp 400 + $rbp: .cfa 16 - ^ $rsi: .cfa 24 - ^ $rdi: .cfa 32 - ^ $r12: .cfa 40 - ^ $r13: .cfa 48 - ^ $r14: .cfa 56 - ^ $r15: .cfa 64 - ^ $rbx: .cfa 0 - ^ .ra: .cfa 8 - ^
STACK CFI INIT b087e b .cfa: $rsp 48 + $rbx: .cfa 16 - ^ .ra: .cfa 8 - ^
STACK CFI INIT b088a 78 .cfa: $rbp 320 + $rbp: .cfa 16 - ^ $rbx: .cfa 24 - ^ $rsi: .cfa 32 - ^ $r12: .cfa 40 - ^ $r13: .cfa 48 - ^ $r14: .cfa 56 - ^ $r15: .cfa 64 - ^ .ra: .cfa 8 - ^
STACK CFI INIT b0902 7 .cfa: $rsp 656 + $rbp: .cfa 16 - ^ $rdi: .cfa 24 - ^ $r14: .cfa 32 - ^ $rbx: .cfa 0 - ^ $rsi: .cfa 0 - ^ .ra: .cfa 8 - ^
STACK CFI INIT b090a 16 .cfa: $rsp 64 + $rdi: .cfa 16 - ^ $rbx: .cfa 0 - ^ .ra: .cfa 8 - ^
STACK CFI INIT b0920 a .cfa: $rsp 80 + $rdi: .cfa 16 - ^ $r14: .cfa 24 - ^ $r15: .cfa 32 - ^ $rbx: .cfa 0 - ^ $rbp: .cfa 0 - ^ $rsi: .cfa 0 - ^ .ra: .cfa 8 - ^
STACK CFI INIT b092a 1a .cfa: $rsp 64 + $rbp: .cfa 16 - ^ $rbx: .cfa 24 - ^ $rdi: .cfa 32 - ^ .ra: .cfa 8 - ^
STACK CFI INIT b0944 44 .cfa: $rsp 128 + $rbp: .cfa 16 - ^ $rbx: .cfa 0 - ^ $rsi: .cfa 0 - ^ $rdi: .cfa 0 - ^ $r14: .cfa 0 - ^ .ra: .cfa 8 - ^
STACK CFI INIT b0988 41 .cfa: $rsp 48 + $rdi: .cfa 16 - ^ $rbx: .cfa 0 - ^ .ra: .cfa 8 - ^
STACK CFI INIT b09ca 10 .cfa: $rsp 112 + $rbx: .cfa 16 - ^ .ra: .cfa 8 - ^
STACK CFI INIT b09da 1d .cfa: $rsp 128 + $rdi: .cfa 16 - ^ $rbx: .cfa 0 - ^ .ra: .cfa 8 - ^
STACK CFI INIT b09f8 13 .cfa: $rsp 144 + $rdi: .cfa 16 - ^ $rbx: .cfa 0 - ^ $rsi: .cfa 0 - ^ .ra: .cfa 8 - ^
STACK CFI INIT b0a0c 21 .cfa: $rsp 224 + $rbp: .cfa 16 - ^ $rbx: .cfa 24 - ^ $rsi: .cfa 32 - ^ $rdi: .cfa 40 - ^ $r12: .cfa 48 - ^ $r14: .cfa 56 - ^ $r15: .cfa 64 - ^ .ra: .cfa 8 - ^
STACK CFI INIT b0a2e 6c .cfa: $rsp 720 + $rbp: .cfa 16 - ^ $rdi: .cfa 24 - ^ $r14: .cfa 32 - ^ $rbx: .cfa 0 - ^ $rsi: .cfa 0 - ^ .ra: .cfa 8 - ^
STACK CFI INIT b0a9a 11 .cfa: $rsp 320 + $rsi: .cfa 16 - ^ $rdi: .cfa 24 - ^ $r14: .cfa 32 - ^ $rbx: .cfa 0 - ^ $rbp: .cfa 0 - ^ .ra: .cfa 8 - ^
STACK CFI INIT b0aac a .cfa: $rsp 576 + $rdi: .cfa 16 - ^ $rbx: .cfa 0 - ^ $rsi: .cfa 0 - ^ .ra: .cfa 8 - ^
STACK CFI INIT b0ab6 a .cfa: $rsp 368 + $rbp: .cfa 16 - ^ $rbx: .cfa 24 - ^ $rsi: .cfa 32 - ^ $rdi: .cfa 40 - ^ $r14: .cfa 48 - ^ .ra: .cfa 8 - ^
STACK CFI INIT b0ac0 128 .cfa: $rsp 224 + $rbp: .cfa 16 - ^ $r12: .cfa 24 - ^ $r13: .cfa 32 - ^ $r14: .cfa 40 - ^ $r15: .cfa 48 - ^ $rbx: .cfa 0 - ^ $rsi: .cfa 0 - ^ $rdi: .cfa 0 - ^ .ra: .cfa 8 - ^
STACK CFI INIT b0be8 133 .cfa: $rsp 160 + $rbp: .cfa 16 - ^ $rbx: .cfa 24 - ^ $rsi: .cfa 32 - ^ $rdi: .cfa 40 - ^ $r12: .cfa 48 - ^ $r13: .cfa 56 - ^ $r14: .cfa 64 - ^ $r15: .cfa 72 - ^ .ra: .cfa 8 - ^
STACK CFI INIT b0d1c 5a .cfa: $rsp 48 + $r14: .cfa 16 - ^ $rbx: .cfa 0 - ^ $rbp: .cfa 0 - ^ $rsi: .cfa 0 - ^ $rdi: .cfa 0 - ^ .ra: .cfa 8 - ^
STACK CFI INIT b0d76 43 .cfa: $rsp 176 + $rbp: .cfa 16 - ^ $r14: .cfa 24 - ^ $r15: .cfa 32 - ^ $rbx: .cfa 0 - ^ $rsi: .cfa 0 - ^ $rdi: .cfa 0 - ^ $r12: .cfa 0 - ^ .ra: .cfa 8 - ^
STACK CFI INIT b0dba 11 .cfa: $rsp 176 + $rdi: .cfa 16 - ^ $rbx: .cfa 0 - ^ $rsi: .cfa 0 - ^ .ra: .cfa 8 - ^
STACK CFI INIT b0dcc 8 .cfa: $rsp 48 + $rdi: .cfa 16 - ^ $rbx: .cfa 0 - ^ $rbp: .cfa 0 - ^ $rsi: .cfa 0 - ^ .ra: .cfa 8 - ^
STACK CFI INIT b0dd4 4c .cfa: $rbp 1552 + $rbp: .cfa 16 - ^ $rbx: $rbp 1560 + ^ $rsi: $rbp 1568 + ^ $rdi: $rbp 1576 + ^ .ra: .cfa 8 - ^
STACK CFI INIT b0e20 7 .cfa: $rsp 1536 + $rdi: .cfa 16 - ^ $r14: .cfa 24 - ^ $r15: .cfa 32 - ^ $rbx: .cfa 0 - ^ $rsi: .cfa 0 - ^ .ra: .cfa 8 - ^
STACK CFI INIT b0e28 288 .cfa: $rsp 128 + $rbp: .cfa 16 - ^ $rsi: .cfa 24 - ^ $rdi: .cfa 32 - ^ $r12: .cfa 40 - ^ $r13: .cfa 48 - ^ $r14: .cfa 56 - ^ $r15: .cfa 64 - ^ $rbx: .cfa 0 - ^ .ra: .cfa 8 - ^
STACK CFI INIT b10b0 10 .cfa: $rsp 96 + $rdi: .cfa 16 - ^ $rbx: .cfa 0 - ^ .ra: .cfa 8 - ^
STACK CFI INIT b10c0 14c .cfa: $rsp 1744 + $rbp: .cfa 16 - ^ $rsi: .cfa 24 - ^ $rdi: .cfa 32 - ^ $r12: .cfa 40 - ^ $r13: .cfa 48 - ^ $r14: .cfa 56 - ^ $r15: .cfa 64 - ^ $rbx: .cfa 0 - ^ .ra: .cfa 8 - ^
STACK CFI INIT b120c 214 .cfa: $rsp 144 + $rbp: .cfa 16 - ^ $rsi: .cfa 24 - ^ $rdi: .cfa 32 - ^ $r12: .cfa 40 - ^ $r13: .cfa 48 - ^ $r14: .cfa 56 - ^ $r15: .cfa 64 - ^ $rbx: .cfa 0 - ^ .ra: .cfa 8 - ^
STACK CFI INIT b1420 2ba .cfa: $rsp 1760 + $rbp: .cfa 16 - ^ $rsi: .cfa 24 - ^ $rdi: .cfa 32 - ^ $r12: .cfa 40 - ^ $r13: .cfa 48 - ^ $r14: .cfa 56 - ^ $r15: .cfa 64 - ^ $rbx: .cfa 0 - ^ .ra: .cfa 8 - ^
STACK CFI INIT b16da a0 .cfa: $rsp 144 + $rbx: .cfa 16 - ^ $rbp: .cfa 24 - ^ $rsi: .cfa 32 - ^ $rdi: .cfa 40 - ^ $r12: .cfa 48 - ^ $r13: .cfa 56 - ^ $r14: .cfa 64 - ^ $r15: .cfa 72 - ^ .ra: .cfa 8 - ^
STACK CFI INIT b177a 92 .cfa: $rsp 64 + $rsi: .cfa 16 - ^ $rdi: .cfa 24 - ^ $r14: .cfa 32 - ^ $rbx: .cfa 0 - ^ .ra: .cfa 8 - ^
STACK CFI INIT b180c bc .cfa: $rsp 160 + $rbp: .cfa 16 - ^ $rsi: .cfa 24 - ^ $rdi: .cfa 32 - ^ $r12: .cfa 40 - ^ $r13: .cfa 48 - ^ $r14: .cfa 56 - ^ $r15: .cfa 64 - ^ $rbx: .cfa 0 - ^ .ra: .cfa 8 - ^
STACK CFI INIT b18c8 77 .cfa: $rsp 96 + $rdi: .cfa 16 - ^ $r12: .cfa 24 - ^ $r13: .cfa 32 - ^ $r14: .cfa 40 - ^ $r15: .cfa 48 - ^ $rbx: .cfa 0 - ^ $rbp: .cfa 0 - ^ $rsi: .cfa 0 - ^ .ra: .cfa 8 - ^
STACK CFI INIT b1940 30 .cfa: $rsp 48 + $rdi: .cfa 16 - ^ $rbx: .cfa 0 - ^ $rbp: .cfa 0 - ^ $rsi: .cfa 0 - ^ .ra: .cfa 8 - ^
STACK CFI INIT b1970 37 .cfa: $rsp 208 + $rbx: .cfa 16 - ^ $rsi: .cfa 24 - ^ $rdi: .cfa 32 - ^ $r12: .cfa 40 - ^ $r13: .cfa 48 - ^ $r14: .cfa 56 - ^ $r15: .cfa 64 - ^ .ra: .cfa 8 - ^
STACK CFI INIT b19a8 15 .cfa: $rsp 80 + $rbx: .cfa 16 - ^ .ra: .cfa 8 - ^
STACK CFI INIT b19bd ef .cfa: $rsp 80 + $rdi: .cfa 0 - ^ $rbx: .cfa 16 - ^ .ra: .cfa 8 - ^
STACK CFI INIT b1aac 1e .cfa: $rsp 48 + $rdi: .cfa 16 - ^ $rbp: .cfa 0 - ^ $rsi: .cfa 0 - ^ .ra: .cfa 8 - ^
STACK CFI INIT b1aca 82 .cfa: $rsp 48 + $rbx: .cfa 0 - ^ $rdi: .cfa 16 - ^ $rbp: .cfa 0 - ^ $rsi: .cfa 0 - ^ .ra: .cfa 8 - ^
STACK CFI INIT b1b4c 85 .cfa: $rsp 8 + $rbx: .cfa 0 - ^ $rdi: .cfa 0 - ^ .ra: .cfa 8 - ^
STACK CFI INIT b1bd2 14 .cfa: $rsp 80 + $rbx: .cfa 16 - ^ $rbp: .cfa 24 - ^ $rsi: .cfa 32 - ^ $rdi: .cfa 40 - ^ .ra: .cfa 8 - ^
STACK CFI INIT b1be6 e4 .cfa: $rsp 80 + $r12: .cfa 0 - ^ $r13: .cfa 0 - ^ $r14: .cfa 0 - ^ $r15: .cfa 0 - ^ $rbx: .cfa 16 - ^ $rbp: .cfa 24 - ^ $rsi: .cfa 32 - ^ $rdi: .cfa 40 - ^ .ra: .cfa 8 - ^
STACK CFI INIT b1cca 80 .cfa: $rsp 8 + $rbx: .cfa 0 - ^ $rdi: .cfa 0 - ^ .ra: .cfa 8 - ^
STACK CFI INIT b1d4a 5b .cfa: $rsp 96 + $rsi: .cfa 16 - ^ $rdi: .cfa 24 - ^ $r12: .cfa 32 - ^ $r14: .cfa 40 - ^ $r15: .cfa 48 - ^ $rbx: .cfa 0 - ^ $rbp: .cfa 0 - ^ .ra: .cfa 8 - ^
STACK CFI INIT b1da6 21a .cfa: $rsp 96 + $rbp: .cfa 16 - ^ $rsi: .cfa 24 - ^ $rdi: .cfa 32 - ^ $rbx: .cfa 0 - ^ .ra: .cfa 8 - ^
STACK CFI INIT b1fc0 1e .cfa: $rsp 48 + $rdi: .cfa 16 - ^ $rbx: .cfa 0 - ^ .ra: .cfa 8 - ^
STACK CFI INIT b1fde a .cfa: $rsp 144 + $rdi: .cfa 16 - ^ $r12: .cfa 24 - ^ $r13: .cfa 32 - ^ $r14: .cfa 40 - ^ $r15: .cfa 48 - ^ $rbx: .cfa 0 - ^ $rsi: .cfa 0 - ^ .ra: .cfa 8 - ^
STACK CFI INIT b1fe8 a .cfa: $rsp 112 + $rdi: .cfa 16 - ^ $r14: .cfa 24 - ^ $r15: .cfa 32 - ^ $rbx: .cfa 0 - ^ $rsi: .cfa 0 - ^ .ra: .cfa 8 - ^
STACK CFI INIT b1ff2 43 .cfa: $rsp 64 + $rdi: .cfa 16 - ^ $r14: .cfa 24 - ^ $r15: .cfa 32 - ^ $rbx: .cfa 0 - ^ $rbp: .cfa 0 - ^ $rsi: .cfa 0 - ^ .ra: .cfa 8 - ^
STACK CFI INIT b2036 a1 .cfa: $rsp 64 + $rdi: .cfa 16 - ^ $rbx: .cfa 0 - ^ .ra: .cfa 8 - ^
STACK CFI INIT b20d8 20 .cfa: $rsp 48 + $rdi: .cfa 16 - ^ $rbx: .cfa 0 - ^ $rsi: .cfa 0 - ^ .ra: .cfa 8 - ^
STACK CFI INIT b20f8 7 .cfa: $rsp 112 + $rbp: .cfa 16 - ^ $rsi: .cfa 24 - ^ $rdi: .cfa 32 - ^ $r14: .cfa 40 - ^ $r15: .cfa 48 - ^ $rbx: .cfa 0 - ^ .ra: .cfa 8 - ^
STACK CFI INIT b2100 7 .cfa: $rsp 96 + $rdi: .cfa 16 - ^ $r12: .cfa 24 - ^ $r13: .cfa 32 - ^ $r14: .cfa 40 - ^ $r15: .cfa 48 - ^ $rbx: .cfa 0 - ^ $rbp: .cfa 0 - ^ $rsi: .cfa 0 - ^ .ra: .cfa 8 - ^
STACK CFI INIT b2108 5c7 .cfa: $rsp 432 + $rbp: .cfa 16 - ^ $rsi: .cfa 24 - ^ $rdi: .cfa 32 - ^ $r12: .cfa 40 - ^ $r13: .cfa 48 - ^ $r14: .cfa 56 - ^ $r15: .cfa 64 - ^ $rbx: .cfa 0 - ^ .ra: .cfa 8 - ^
STACK CFI INIT b26d0 52 .cfa: $rsp 64 + $r12: .cfa 16 - ^ $r14: .cfa 24 - ^ $r15: .cfa 32 - ^ $rbx: .cfa 0 - ^ $rbp: .cfa 0 - ^ $rsi: .cfa 0 - ^ $rdi: .cfa 0 - ^ .ra: .cfa 8 - ^
STACK CFI INIT b2722 95 .cfa: $rsp 96 + $rdi: .cfa 16 - ^ $rbx: .cfa 0 - ^ $rsi: .cfa 0 - ^ .ra: .cfa 8 - ^
STACK CFI INIT b27b8 24b .cfa: $rsp 1504 + $rbp: .cfa 16 - ^ $rsi: .cfa 24 - ^ $rdi: .cfa 32 - ^ $r12: .cfa 40 - ^ $r13: .cfa 48 - ^ $r14: .cfa 56 - ^ $r15: .cfa 64 - ^ $rbx: .cfa 0 - ^ .ra: .cfa 8 - ^
STACK CFI INIT b2a04 190 .cfa: $rsp 752 + $rbp: .cfa 16 - ^ $rdi: .cfa 24 - ^ $r12: .cfa 32 - ^ $r14: .cfa 40 - ^ $r15: .cfa 48 - ^ $rbx: .cfa 0 - ^ $rsi: .cfa 0 - ^ .ra: .cfa 8 - ^
STACK CFI INIT b2b94 115 .cfa: $rsp 736 + $rbp: .cfa 16 - ^ $rsi: .cfa 24 - ^ $rdi: .cfa 32 - ^ $r12: .cfa 40 - ^ $r13: .cfa 48 - ^ $r14: .cfa 56 - ^ $r15: .cfa 64 - ^ $rbx: .cfa 0 - ^ .ra: .cfa 8 - ^
STACK CFI INIT b2caa 9b .cfa: $rsp 128 + $rdi: .cfa 16 - ^ $r14: .cfa 24 - ^ $r15: .cfa 32 - ^ $rbx: .cfa 0 - ^ $rbp: .cfa 0 - ^ $rsi: .cfa 0 - ^ .ra: .cfa 8 - ^
STACK CFI INIT b2d46 1cd .cfa: $rsp 880 + $rbp: .cfa 16 - ^ $rsi: .cfa 24 - ^ $rdi: .cfa 32 - ^ $r12: .cfa 40 - ^ $r13: .cfa 48 - ^ $r14: .cfa 56 - ^ $r15: .cfa 64 - ^ $rbx: .cfa 0 - ^ .ra: .cfa 8 - ^
STACK CFI INIT b2f14 a .cfa: $rsp 96 + $rdi: .cfa 16 - ^ $rbx: .cfa 0 - ^ $rbp: .cfa 0 - ^ $rsi: .cfa 0 - ^ .ra: .cfa 8 - ^
STACK CFI INIT b2f1e 1a .cfa: $rsp 8 + $rbx: .cfa 0 - ^ .ra: .cfa 8 - ^
STACK CFI INIT b2f38 30 .cfa: $rsp 288 + $rbp: .cfa 16 - ^ $rdi: .cfa 24 - ^ $r12: .cfa 32 - ^ $r14: .cfa 40 - ^ $r15: .cfa 48 - ^ $rbx: .cfa 0 - ^ $rsi: .cfa 0 - ^ .ra: .cfa 8 - ^
STACK CFI INIT b2f68 150 .cfa: $rsp 784 + $rbp: .cfa 16 - ^ $rsi: .cfa 24 - ^ $rdi: .cfa 32 - ^ $r12: .cfa 40 - ^ $r13: .cfa 48 - ^ $r14: .cfa 56 - ^ $r15: .cfa 64 - ^ $rbx: .cfa 0 - ^ .ra: .cfa 8 - ^
STACK CFI INIT b30b8 7 .cfa: $rsp 240 + $rbp: .cfa 16 - ^ $rdi: .cfa 24 - ^ $r14: .cfa 32 - ^ $rbx: .cfa 0 - ^ $rsi: .cfa 0 - ^ .ra: .cfa 8 - ^
STACK CFI INIT b30c0 26 .cfa: $rsp 48 + $rdi: .cfa 16 - ^ $rbx: .cfa 0 - ^ .ra: .cfa 8 - ^
STACK CFI INIT b30e6 b2 .cfa: $rsp 112 + $rbp: .cfa 16 - ^ $rsi: .cfa 24 - ^ $rdi: .cfa 32 - ^ $r12: .cfa 40 - ^ $r13: .cfa 48 - ^ $r14: .cfa 56 - ^ $r15: .cfa 64 - ^ $rbx: .cfa 0 - ^ .ra: .cfa 8 - ^
STACK CFI INIT b3198 7a .cfa: $rsp 64 + $rdi: .cfa 16 - ^ $rbx: .cfa 0 - ^ $rbp: .cfa 0 - ^ $rsi: .cfa 0 - ^ .ra: .cfa 8 - ^
STACK CFI INIT b3212 42 .cfa: $rsp 64 + .ra: .cfa 8 - ^
STACK CFI INIT b3254 ce .cfa: $rsp 256 + $rdi: .cfa 16 - ^ $r12: .cfa 24 - ^ $r13: .cfa 32 - ^ $r14: .cfa 40 - ^ $r15: .cfa 48 - ^ $rbx: .cfa 0 - ^ $rsi: .cfa 0 - ^ .ra: .cfa 8 - ^
STACK CFI INIT b3322 43 .cfa: $rsp 96 + $rbx: .cfa 16 - ^ $rsi: .cfa 24 - ^ $rdi: .cfa 32 - ^ $r14: .cfa 40 - ^ $r15: .cfa 48 - ^ .ra: .cfa 8 - ^
STACK CFI INIT b3366 a2 .cfa: $rsp 64 + $rdi: .cfa 16 - ^ $r14: .cfa 24 - ^ $r15: .cfa 32 - ^ $rbx: .cfa 0 - ^ $rbp: .cfa 0 - ^ $rsi: .cfa 0 - ^ .ra: .cfa 8 - ^
STACK CFI INIT b3408 54 .cfa: $rsp 80 + $rdi: .cfa 16 - ^ $r12: .cfa 24 - ^ $r13: .cfa 32 - ^ $r14: .cfa 40 - ^ $r15: .cfa 48 - ^ $rbx: .cfa 0 - ^ $rbp: .cfa 0 - ^ $rsi: .cfa 0 - ^ .ra: .cfa 8 - ^
STACK CFI INIT b345c 14e .cfa: $rsp 96 + $rbp: .cfa 16 - ^ $rsi: .cfa 24 - ^ $rdi: .cfa 32 - ^ $r12: .cfa 40 - ^ $r13: .cfa 48 - ^ $r14: .cfa 56 - ^ $r15: .cfa 64 - ^ $rbx: .cfa 0 - ^ .ra: .cfa 8 - ^
STACK CFI INIT b35aa a .cfa: $rsp 80 + $rdi: .cfa 16 - ^ $r12: .cfa 24 - ^ $r13: .cfa 32 - ^ $r14: .cfa 40 - ^ $r15: .cfa 48 - ^ $rbx: .cfa 0 - ^ $rbp: .cfa 0 - ^ $rsi: .cfa 0 - ^ .ra: .cfa 8 - ^
STACK CFI INIT b35ca 42 .cfa: $rsp 208 + $rdi: .cfa 16 - ^ $rbx: .cfa 0 - ^ $rsi: .cfa 0 - ^ .ra: .cfa 8 - ^
STACK CFI INIT b360c 7 .cfa: $rsp 96 + $r15: .cfa 16 - ^ .ra: .cfa 8 - ^
STACK CFI INIT b3614 83 .cfa: $rsp 160 + $rbp: .cfa 16 - ^ $rsi: .cfa 24 - ^ $rdi: .cfa 32 - ^ $r12: .cfa 40 - ^ $r13: .cfa 48 - ^ $r14: .cfa 56 - ^ $r15: .cfa 64 - ^ $rbx: .cfa 0 - ^ .ra: .cfa 8 - ^
STACK CFI INIT b3698 1c .cfa: $rsp 8 + $rbx: .cfa 0 - ^ $rdi: .cfa 0 - ^ .ra: .cfa 8 - ^
STACK CFI INIT b36b4 116 .cfa: $rsp 144 + $rbx: .cfa 16 - ^ $rbp: .cfa 24 - ^ $rsi: .cfa 32 - ^ $rdi: .cfa 40 - ^ $r12: .cfa 48 - ^ $r13: .cfa 56 - ^ $r14: .cfa 64 - ^ $r15: .cfa 72 - ^ .ra: .cfa 8 - ^
STACK CFI INIT b37ca 78 .cfa: $rsp 80 + $rdi: .cfa 16 - ^ $r14: .cfa 24 - ^ $r15: .cfa 32 - ^ $rbx: .cfa 0 - ^ $rbp: .cfa 0 - ^ $rsi: .cfa 0 - ^ .ra: .cfa 8 - ^
STACK CFI INIT b3842 78 .cfa: $rsp 64 + $r14: .cfa 16 - ^ $rbx: .cfa 0 - ^ $rbp: .cfa 0 - ^ $rsi: .cfa 0 - ^ $rdi: .cfa 0 - ^ .ra: .cfa 8 - ^
STACK CFI INIT b38ba 66 .cfa: $rsp 112 + $rbx: .cfa 16 - ^ .ra: .cfa 8 - ^
STACK CFI INIT b3920 c .cfa: $rsp 48 + $rdi: .cfa 16 - ^ $rbx: .cfa 0 - ^ .ra: .cfa 8 - ^
STACK CFI INIT b392c f .cfa: $rsp 64 + $r13: .cfa 16 - ^ $r14: .cfa 24 - ^ $r15: .cfa 32 - ^ $rbx: .cfa 0 - ^ $rsi: .cfa 0 - ^ $rdi: .cfa 0 - ^ $r12: .cfa 0 - ^ .ra: .cfa 8 - ^
STACK CFI INIT b393c 73 .cfa: $rsp 112 + $rdi: .cfa 16 - ^ $rbx: .cfa 0 - ^ .ra: .cfa 8 - ^
STACK CFI INIT b39b0 30 .cfa: $rsp 48 + $r14: .cfa 16 - ^ $rbx: .cfa 0 - ^ $rdi: .cfa 0 - ^ .ra: .cfa 8 - ^
STACK CFI INIT b3a0c ee .cfa: $rsp 80 + $rdi: .cfa 16 - ^ $r12: .cfa 24 - ^ $r13: .cfa 32 - ^ $r14: .cfa 40 - ^ $r15: .cfa 48 - ^ $rbx: .cfa 0 - ^ $rbp: .cfa 0 - ^ $rsi: .cfa 0 - ^ .ra: .cfa 8 - ^
STACK CFI INIT b3afa 14 .cfa: $rsp 48 + $rdi: .cfa 16 - ^ $rbx: .cfa 0 - ^ $rbp: .cfa 0 - ^ $rsi: .cfa 0 - ^ .ra: .cfa 8 - ^
STACK CFI INIT b3b0e 19 .cfa: $rsp 48 + $rdi: .cfa 16 - ^ $rbx: .cfa 0 - ^ $rsi: .cfa 0 - ^ .ra: .cfa 8 - ^
STACK CFI INIT b3b28 2c .cfa: $rsp 80 + $r12: .cfa 16 - ^ $r14: .cfa 24 - ^ $r15: .cfa 32 - ^ $rbx: .cfa 0 - ^ $rbp: .cfa 0 - ^ $rsi: .cfa 0 - ^ $rdi: .cfa 0 - ^ .ra: .cfa 8 - ^
STACK CFI INIT b3b54 33 .cfa: $rsp 8 + $rbx: .cfa 0 - ^ .ra: .cfa 8 - ^
STACK CFI INIT b3b88 19 .cfa: $rsp 48 + $r14: .cfa 16 - ^ $rbx: .cfa 0 - ^ $rbp: .cfa 0 - ^ $rsi: .cfa 0 - ^ $rdi: .cfa 0 - ^ .ra: .cfa 8 - ^
STACK CFI INIT b3ba2 13 .cfa: $rsp 256 + $rbx: .cfa 16 - ^ $rbp: .cfa 24 - ^ $rsi: .cfa 32 - ^ $rdi: .cfa 40 - ^ $r14: .cfa 48 - ^ $r15: .cfa 56 - ^ .ra: .cfa 8 - ^
STACK CFI INIT b3bb6 55 .cfa: $rsp 112 + $rdi: .cfa 16 - ^ $r12: .cfa 24 - ^ $r13: .cfa 32 - ^ $r14: .cfa 40 - ^ $r15: .cfa 48 - ^ $rbx: .cfa 0 - ^ $rbp: .cfa 0 - ^ $rsi: .cfa 0 - ^ .ra: .cfa 8 - ^
STACK CFI INIT b3c0c 55 .cfa: $rsp 112 + $rbx: .cfa 16 - ^ $rsi: .cfa 24 - ^ $rdi: .cfa 32 - ^ $r14: .cfa 40 - ^ $r15: .cfa 48 - ^ .ra: .cfa 8 - ^
STACK CFI INIT b3c62 5a .cfa: $rsp 8 + $rbx: .cfa 0 - ^ $rsi: .cfa 0 - ^ $rdi: .cfa 0 - ^ .ra: .cfa 8 - ^
STACK CFI INIT b3cbc 4a .cfa: $rsp 192 + $rbp: .cfa 16 - ^ $rsi: .cfa 24 - ^ $rdi: .cfa 32 - ^ $r12: .cfa 40 - ^ $r13: .cfa 48 - ^ $r14: .cfa 56 - ^ $r15: .cfa 64 - ^ $rbx: .cfa 0 - ^ .ra: .cfa 8 - ^
STACK CFI INIT b3d06 a .cfa: $rsp 160 + $rbp: .cfa 16 - ^ $rbx: .cfa 24 - ^ $rsi: .cfa 32 - ^ $rdi: .cfa 40 - ^ .ra: .cfa 8 - ^
STACK CFI INIT b3d10 a .cfa: $rsp 176 + $rbp: .cfa 16 - ^ $rsi: .cfa 24 - ^ $rdi: .cfa 32 - ^ $r14: .cfa 40 - ^ $r15: .cfa 48 - ^ $rbx: .cfa 0 - ^ .ra: .cfa 8 - ^
STACK CFI INIT b3d1a a .cfa: $rsp 176 + $rbp: .cfa 16 - ^ $rbx: .cfa 24 - ^ $rsi: .cfa 32 - ^ $rdi: .cfa 40 - ^ $r12: .cfa 48 - ^ $r13: .cfa 56 - ^ $r14: .cfa 64 - ^ .ra: .cfa 8 - ^
STACK CFI INIT b3d24 7c .cfa: $rsp 128 + $rbx: .cfa 16 - ^ $rsi: .cfa 24 - ^ $rdi: .cfa 32 - ^ $r12: .cfa 40 - ^ $r13: .cfa 48 - ^ $r14: .cfa 56 - ^ $r15: .cfa 64 - ^ .ra: .cfa 8 - ^
STACK CFI INIT b3da0 5e .cfa: $rsp 8 + $rbx: .cfa 0 - ^ $rsi: .cfa 0 - ^ $rdi: .cfa 0 - ^ .ra: .cfa 8 - ^
STACK CFI INIT b3dfe 2ef .cfa: $rsp 1920 + $rbp: .cfa 16 - ^ $r12: .cfa 24 - ^ $r13: .cfa 32 - ^ $r14: .cfa 40 - ^ $r15: .cfa 48 - ^ $rbx: .cfa 0 - ^ $rsi: .cfa 0 - ^ $rdi: .cfa 0 - ^ .ra: .cfa 8 - ^
STACK CFI INIT b40ee d3 .cfa: $rsp 144 + $rbp: .cfa 16 - ^ $rbx: .cfa 24 - ^ $rsi: .cfa 32 - ^ $rdi: .cfa 40 - ^ $r12: .cfa 48 - ^ $r13: .cfa 56 - ^ $r14: .cfa 64 - ^ $r15: .cfa 72 - ^ .ra: .cfa 8 - ^
STACK CFI INIT b4258 7 .cfa: $rsp 48 + $rdi: .cfa 16 - ^ $rbx: .cfa 0 - ^ $rsi: .cfa 0 - ^ .ra: .cfa 8 - ^
STACK CFI INIT b4260 16 .cfa: $rsp 64 + $r13: .cfa 16 - ^ $r14: .cfa 24 - ^ $r15: .cfa 32 - ^ $rbx: .cfa 0 - ^ $rsi: .cfa 0 - ^ $rdi: .cfa 0 - ^ $r12: .cfa 0 - ^ .ra: .cfa 8 - ^
STACK CFI INIT b4282 184 .cfa: $rsp 512 + $rdi: .cfa 16 - ^ $r12: .cfa 24 - ^ $r13: .cfa 32 - ^ $r14: .cfa 40 - ^ $r15: .cfa 48 - ^ $rbx: .cfa 0 - ^ $rsi: .cfa 0 - ^ .ra: .cfa 8 - ^
STACK CFI INIT b4406 16 .cfa: $rsp 48 + $rbx: .cfa 16 - ^ .ra: .cfa 8 - ^
STACK CFI INIT b441c a .cfa: $rsp 96 + $rdi: .cfa 16 - ^ $r12: .cfa 24 - ^ $r13: .cfa 32 - ^ $r14: .cfa 40 - ^ $r15: .cfa 48 - ^ $rbx: .cfa 0 - ^ $rsi: .cfa 0 - ^ .ra: .cfa 8 - ^
STACK CFI INIT b4426 79 .cfa: $rsp 64 + .ra: .cfa 8 - ^
STACK CFI INIT b44a0 a .cfa: $rsp 96 + $rdi: .cfa 16 - ^ $r12: .cfa 24 - ^ $r13: .cfa 32 - ^ $r14: .cfa 40 - ^ $r15: .cfa 48 - ^ $rbx: .cfa 0 - ^ $rsi: .cfa 0 - ^ .ra: .cfa 8 - ^
STACK CFI INIT b44aa 78 .cfa: $rsp 160 + $rbp: .cfa 16 - ^ $rsi: .cfa 24 - ^ $rdi: .cfa 32 - ^ $r12: .cfa 40 - ^ $r13: .cfa 48 - ^ $r14: .cfa 56 - ^ $r15: .cfa 64 - ^ $rbx: .cfa 0 - ^ .ra: .cfa 8 - ^
STACK CFI INIT b4522 a .cfa: $rsp 64 + $rsi: .cfa 16 - ^ $rdi: .cfa 24 - ^ $r14: .cfa 32 - ^ $rbx: .cfa 0 - ^ $rbp: .cfa 0 - ^ .ra: .cfa 8 - ^
STACK CFI INIT b452c b .cfa: $rsp 64 + $rbx: .cfa 16 - ^ .ra: .cfa 8 - ^
STACK CFI INIT b4538 14 .cfa: $rsp 48 + $r14: .cfa 16 - ^ $rbx: .cfa 0 - ^ $rbp: .cfa 0 - ^ $rsi: .cfa 0 - ^ $rdi: .cfa 0 - ^ .ra: .cfa 8 - ^
STACK CFI INIT b454c 1d7 .cfa: $rsp 96 + $rbp: .cfa 16 - ^ $rsi: .cfa 24 - ^ $rdi: .cfa 32 - ^ $r12: .cfa 40 - ^ $r13: .cfa 48 - ^ $r14: .cfa 56 - ^ $r15: .cfa 64 - ^ $rbx: .cfa 0 - ^ .ra: .cfa 8 - ^
STACK CFI INIT b4724 d1 .cfa: $rsp 128 + $rbx: .cfa 16 - ^ $rbp: .cfa 24 - ^ $rsi: .cfa 32 - ^ $rdi: .cfa 40 - ^ $r12: .cfa 48 - ^ $r13: .cfa 56 - ^ $r14: .cfa 64 - ^ $r15: .cfa 72 - ^ .ra: .cfa 8 - ^
STACK CFI INIT b47f6 a .cfa: $rsp 48 + $r14: .cfa 16 - ^ $rbx: .cfa 0 - ^ $rsi: .cfa 0 - ^ $rdi: .cfa 0 - ^ .ra: .cfa 8 - ^
STACK CFI INIT b4800 42 .cfa: $rsp 112 + $rsi: .cfa 16 - ^ $rdi: .cfa 24 - ^ $r14: .cfa 32 - ^ $rbx: .cfa 0 - ^ $rbp: .cfa 0 - ^ .ra: .cfa 8 - ^
STACK CFI INIT b4842 38 .cfa: $rsp 80 + $rsi: .cfa 16 - ^ $rdi: .cfa 24 - ^ $r14: .cfa 32 - ^ $rbx: .cfa 0 - ^ $rbp: .cfa 0 - ^ .ra: .cfa 8 - ^
STACK CFI INIT b487a 36 .cfa: $rsp 112 + $rbp: .cfa 16 - ^ $rsi: .cfa 24 - ^ $rdi: .cfa 32 - ^ $r12: .cfa 40 - ^ $r14: .cfa 48 - ^ $rbx: .cfa 0 - ^ .ra: .cfa 8 - ^
STACK CFI INIT b48b0 a .cfa: $rsp 64 + $rdi: .cfa 16 - ^ $r12: .cfa 24 - ^ $r14: .cfa 32 - ^ $rbx: .cfa 0 - ^ $rbp: .cfa 0 - ^ $rsi: .cfa 0 - ^ .ra: .cfa 8 - ^
STACK CFI INIT b48ba 38 .cfa: $rsp 48 + $rdi: .cfa 16 - ^ $rbx: .cfa 0 - ^ $rsi: .cfa 0 - ^ .ra: .cfa 8 - ^
STACK CFI INIT b490c 8f .cfa: $rsp 192 + $rdi: .cfa 16 - ^ $r12: .cfa 24 - ^ $r13: .cfa 32 - ^ $r14: .cfa 40 - ^ $r15: .cfa 48 - ^ $rbx: .cfa 0 - ^ $rsi: .cfa 0 - ^ .ra: .cfa 8 - ^
STACK CFI INIT b499c 3e .cfa: $rsp 80 + $rdi: .cfa 16 - ^ $r12: .cfa 24 - ^ $r13: .cfa 32 - ^ $r14: .cfa 40 - ^ $r15: .cfa 48 - ^ $rbx: .cfa 0 - ^ $rbp: .cfa 0 - ^ $rsi: .cfa 0 - ^ .ra: .cfa 8 - ^
STACK CFI INIT b49da 14 .cfa: $rsp 80 + $r12: .cfa 16 - ^ $r14: .cfa 24 - ^ $r15: .cfa 32 - ^ $rbx: .cfa 0 - ^ $rbp: .cfa 0 - ^ $rsi: .cfa 0 - ^ $rdi: .cfa 0 - ^ .ra: .cfa 8 - ^
STACK CFI INIT b49ee 7 .cfa: $rsp 64 + $rsi: .cfa 16 - ^ $rdi: .cfa 24 - ^ $r14: .cfa 32 - ^ $rbx: .cfa 0 - ^ $rbp: .cfa 0 - ^ .ra: .cfa 8 - ^
STACK CFI INIT b49f6 e .cfa: $rsp 48 + $rbx: .cfa 16 - ^ .ra: .cfa 8 - ^
STACK CFI INIT b4a04 e .cfa: $rsp 64 + $rbx: .cfa 16 - ^ .ra: .cfa 8 - ^
STACK CFI INIT b4a12 f .cfa: $rsp 64 + $r12: .cfa 16 - ^ $r14: .cfa 24 - ^ $r15: .cfa 32 - ^ $rbx: .cfa 0 - ^ $rbp: .cfa 0 - ^ $rsi: .cfa 0 - ^ $rdi: .cfa 0 - ^ .ra: .cfa 8 - ^
STACK CFI INIT b4a22 51 .cfa: $rsp 48 + $rdi: .cfa 16 - ^ $rbx: .cfa 0 - ^ .ra: .cfa 8 - ^
STACK CFI INIT b4a74 122 .cfa: $rsp 176 + $rbp: .cfa 16 - ^ $rsi: .cfa 24 - ^ $rdi: .cfa 32 - ^ $r12: .cfa 40 - ^ $r13: .cfa 48 - ^ $r14: .cfa 56 - ^ $r15: .cfa 64 - ^ $rbx: .cfa 0 - ^ .ra: .cfa 8 - ^
STACK CFI INIT b4b96 16 .cfa: $rsp 48 + $rdi: .cfa 16 - ^ $rbx: .cfa 0 - ^ $rsi: .cfa 0 - ^ .ra: .cfa 8 - ^
STACK CFI INIT b4bac 23 .cfa: $rsp 96 + $r14: .cfa 16 - ^ $rbx: .cfa 0 - ^ $rsi: .cfa 0 - ^ $rdi: .cfa 0 - ^ .ra: .cfa 8 - ^
STACK CFI INIT b4bd0 31 .cfa: $rsp 128 + $rbp: .cfa 16 - ^ $rsi: .cfa 24 - ^ $rdi: .cfa 32 - ^ $rbx: .cfa 0 - ^ .ra: .cfa 8 - ^
STACK CFI INIT b4c02 29 .cfa: $rsp 48 + $rdi: .cfa 16 - ^ $rsi: .cfa 0 - ^ .ra: .cfa 8 - ^
STACK CFI INIT b4c2c 1f .cfa: $rsp 80 + $rbx: .cfa 16 - ^ .ra: .cfa 8 - ^
STACK CFI INIT b4c4c a8 .cfa: $rsp 80 + $r13: .cfa 16 - ^ $r14: .cfa 24 - ^ $r15: .cfa 32 - ^ $rbx: .cfa 0 - ^ $rbp: .cfa 0 - ^ $rsi: .cfa 0 - ^ $rdi: .cfa 0 - ^ .ra: .cfa 8 - ^
STACK CFI INIT b4cf4 7 .cfa: $rsp 48 + $r14: .cfa 16 - ^ $rbx: .cfa 0 - ^ $rbp: .cfa 0 - ^ $rsi: .cfa 0 - ^ $rdi: .cfa 0 - ^ .ra: .cfa 8 - ^
