MODULE windows x86_64 A128178EA85DAE837E96C39303FF06381 oleaut32.pdb
INFO CODE_ID BCDE805BC4000 oleaut32.dll
FUNC 1010 10d 0 dcomoa_IID_Lookup
FUNC 1130 125 0 dcomoff_IID_Lookup
FUNC 1260 89 0 dcomoc_IID_Lookup
FUNC 12ea a 0 _dcomoa_IID_Lookup
FUNC 12f4 49 0 _dcomoff_IID_Lookup
FUNC 133e a 0 _dcomoc_IID_Lookup
FUNC 1350 2b 0 wil::details::`dynamic initializer for 'g_header_init_WilInitialize_ResultMacros_DesktopOrSystem''
FUNC 1380 19 0 `dynamic initializer for 'BstrRefCounts''
FUNC 13a0 19 0 `dynamic initializer for 'SafeArrayDataRefCounts''
FUNC 13c0 19 0 `dynamic initializer for 'SafeArrayDescriptorRefCounts''
FUNC 13e0 216 0 VarBstrFromDec
FUNC 1600 189 0 VarDecFromR8
FUNC 1790 f7 0 VarDecRound
FUNC 1890 51 0 Div96By32(unsigned long*, unsigned long)
FUNC 18f0 199 0 VarDecFromR4
FUNC 1a90 ef 0 RefCountMap<unsigned short*>::Increment(unsigned short*)
PUBLIC 1b88 0 ATL::CCritSecLock::Lock(void)
FUNC 1bb4 d 0 InitOnceHolder::~InitOnceHolder(void)
PUBLIC 1bc8 0 InitOnceHolder::BeginInitialize(_RTL_RUN_ONCE*)
PUBLIC 1c10 0 std::_Tree_comp_alloc<std::_Tmap_traits<unsigned short*, int, std::less<unsigned short*>, throwingAllocator<std::pair<unsigned short* const, int> >, 0> >::_Buyheadnode(void)
FUNC 1c78 94 0 std::map<unsigned short*, int, std::less<unsigned short*>, throwingAllocator<std::pair<unsigned short* const, int> > >::_Try_emplace<unsigned short* const&>(unsigned short* const&)
PUBLIC 1d14 0 std::_Tree<std::_Tmap_traits<unsigned short*, int, std::less<unsigned short*>, throwingAllocator<std::pair<unsigned short* const, int> >, 0> >::find(unsigned short* const&)
FUNC 1d5c 67 0 std::_Tree<std::_Tmap_traits<unsigned short*, int, std::less<unsigned short*>, throwingAllocator<std::pair<unsigned short* const, int> >, 0> >::_Insert_hint<std::pair<unsigned short* const, int>&, std::_Tree_node<std::pair<unsigned short* const, int>, void*>*>(std::_Tree_const_iterator<std::_Tree_val<std::_Tree_simple_types<std::pair<unsigned short* const, int> > > >, std::pair<unsigned short* const, int>&, std::_Tree_node<std::pair<unsigned short* const, int>, void*>*)
FUNC 1dcc 78 0 std::_Tree<std::_Tmap_traits<unsigned short*, int, std::less<unsigned short*>, throwingAllocator<std::pair<unsigned short* const, int> >, 0> >::_Insert_at<std::pair<unsigned short* const, int>&, std::_Tree_node<std::pair<unsigned short* const, int>, void*>*>(bool, std::_Tree_node<std::pair<unsigned short* const, int>, void*>*, std::pair<unsigned short* const, int>&, std::_Tree_node<std::pair<unsigned short* const, int>, void*>*)
PUBLIC 1e4c 0 std::_Tree_comp_alloc<std::_Tmap_traits<unsigned short*, int, std::less<unsigned short*>, throwingAllocator<std::pair<unsigned short* const, int> >, 0> >::_Buynode<std::piecewise_construct_t const&, std::tuple<unsigned short* const&>, std::tuple<> >(std::piecewise_construct_t const&, std::tuple<unsigned short* const&>&&, std::tuple<>&&)
PUBLIC 1ea0 0 std::_Tree_comp_alloc<std::_Tmap_traits<unsigned short*, int, std::less<unsigned short*>, throwingAllocator<std::pair<unsigned short* const, int> >, 0> >::_Buynode0(void)
FUNC 1ee4 1c 0 throwingAllocator<std::_Tree_node<std::pair<unsigned short* const, int>, void*> >::allocate(uint64_t)
FUNC 1f08 27 0 std::_Allocate<16, std::_Default_allocate_traits, 0>(uint64_t)
PUBLIC 1f38 0 SplitResID(unsigned short*, unsigned short**)
FUNC 1fa4 33 0 RefCountMap<unsigned short*>::Get(unsigned short*)
FUNC 1fe0 36 0 SysReAllocString
FUNC 201c 39 0 TiperrOfOFErr(unsigned int)
FUNC 2060 4e 0 VarUI4FromDec
FUNC 20c0 69 0 SafeArrayDestroyDescriptor
FUNC 2130 11d 0 CTypeLib2::VariantFromConstData(HCONST, tagVARIANT*)
FUNC 2254 64 0 std::_Tree<std::_Tmap_traits<unsigned short*, int, std::less<unsigned short*>, throwingAllocator<std::pair<unsigned short* const, int> >, 0> >::erase(std::_Tree_const_iterator<std::_Tree_val<std::_Tree_simple_types<std::pair<unsigned short* const, int> > > >)
FUNC 22c0 e3 0 std::_Tree<std::_Tmap_traits<unsigned short*, int, std::less<unsigned short*>, throwingAllocator<std::pair<unsigned short* const, int> >, 0> >::_Extract(std::_Tree_const_iterator<std::_Tree_val<std::_Tree_simple_types<std::pair<unsigned short* const, int> > > >)
PUBLIC 23b0 0 VarDecFix
FUNC 23d0 3d 0 DecFixInt(tagDEC*, tagDEC*)
PUBLIC 2420 0 IEnumVARIANT_Next_Proxy
FUNC 2470 1fc 0 VARIANT_UserUnmarshal64
FUNC 2680 324 0 LPSAFEARRAY_UserUnmarshal64
FUNC 29b0 13c 0 VARIANT_UserMarshal64
FUNC 2b00 1e1 0 LPSAFEARRAY_UserMarshal64
FUNC 2cf0 a6 0 VarBstrFromR4
FUNC 2da0 b1 0 VARIANT_UserSize64
FUNC 2e60 ed 0 LPSAFEARRAY_UserSize64
FUNC 2f54 2a 0 SafeBuffer::Read<uint64_t>(void)
PUBLIC 2f90 0 DispGetIDsOfNames
PUBLIC 2fb0 0 IEnumVARIANT_RemoteNext_Thunk
PUBLIC 2ffc 0 std::map<unsigned short*, int, std::less<unsigned short*>, throwingAllocator<std::pair<unsigned short* const, int> > >::`scalar deleting destructor'(unsigned int)
FUNC 3060 32 0 std::_Tree<std::_Tmap_traits<unsigned short*, int, std::less<unsigned short*>, throwingAllocator<std::pair<unsigned short* const, int> >, 0> >::_Erase(std::_Tree_node<std::pair<unsigned short* const, int>, void*>*)
PUBLIC 30a0 0 SysAddRefString
PUBLIC 30b0 0 VarDateFromUdate
FUNC 30d0 74 0 VarBstrFromI8
PUBLIC 3150 0 VarDecFromI4
PUBLIC 3180 0 OleCreatePictureIndirect
PUBLIC 31e0 0 OleCreateFontIndirect
PUBLIC 3230 0 DispInvoke
PUBLIC 3290 0 VARIANT_UserFree64
FUNC 329c 4a 0 GetRealClassFactory
FUNC 32ec 83 0 CreateRealStub
FUNC 3380 af 0 CStubWrapper::Invoke(tagRPCOLEMESSAGE*, IRpcChannelBuffer*)
FUNC 3440 8b 0 IPropertyBag_Read_Proxy
FUNC 34e0 d9 0 SafeArrayAllocDescriptorEx
PUBLIC 35c0 0 SafeArraySetIID
FUNC 35f0 70 0 VarBstrFromUI8
FUNC 3670 9f 0 VarBstrFromR8
FUNC 3720 5a 0 VarBstrFromUI4
PUBLIC 3780 0 ErrSysAllocString
FUNC 37b8 af 0 EditStrFromReal
FUNC 3870 11d 0 GetNumInfo(unsigned long, unsigned long, tagNUMINFO**)
PUBLIC 3994 0 disp_gcvt
FUNC 3a00 83 0 VarR8FromDec
FUNC 3a8c 19 0 fnDblPower10(int)
FUNC 3ab0 d7 0 LPSAFEARRAY_Size
FUNC 3b90 2a 0 GetSafeArrayDiscr(tagSAFEARRAY*, unsigned long*)
FUNC 3bc0 1e7 0 LPSAFEARRAY_Marshal
FUNC 3db0 3ad 0 SafeArray_ValidateBuffer(unsigned long*, unsigned char*, tagSAFEARRAY const*, int)
FUNC 4164 29 0 SafeBuffer::Read<unsigned int>(void)
FUNC 4194 6b 0 SafeBuffer::Mul(unsigned int, unsigned int)
FUNC 4208 2a 0 SafeBuffer::Read<unsigned short>(void)
FUNC 4238 72 0 SafeArray_ValidateVt(SafeBuffer&, unsigned short, unsigned short)
FUNC 42b0 38a 0 LPSAFEARRAY_Unmarshal
PUBLIC 4640 0 SafeArrayUnlock
PUBLIC 4670 0 SafeArrayAccessData
PUBLIC 46a8 0 DpMul(DBLPREC&, DBLPREC&)
FUNC 4798 91 0 CTypeInfo2::VariantVtOfHtype(HTYPE, unsigned short*, _GUID*, IRecordInfo**, unsigned short*)
PUBLIC 4830 0 ReleaseInvokeArgs
FUNC 488c 8a 0 IsCharType
FUNC 491c 34 0 IsTaiwan
FUNC 4958 38 0 IsChina
FUNC 4998 453 0 CNumInfo::Init(unsigned long, unsigned long, char**)
PUBLIC 4e00 0 VarUI8FromStr
FUNC 4e8c 29 0 GETOADIGIT(unsigned long, unsigned short)
FUNC 4ebc 194 0 VariantVtOfTypedesc
PUBLIC 5058 0 ElemInfoTable::LookupVarDescr(unsigned int, unsigned long*)
FUNC 5090 12d 0 CTypeInfo2::GetVarDesc(unsigned int, tagVARDESC**)
PUBLIC 51d0 0 VarBstrCat
FUNC 5264 195 0 CNumInfo::Create(unsigned long, unsigned long, CNumInfo**, char**)
FUNC 5400 2e 0 ISOADIGIT(unsigned long, unsigned short)
FUNC 5434 38 0 IsThai
FUNC 5480 22d 0 SafeArrayRedim
FUNC 56c0 d5 0 VarI4FromStr
PUBLIC 57a0 0 VarR8FromStr
FUNC 5830 1d8 0 CTypeInfo2::GetTypeAttr(tagTYPEATTR**)
FUNC 5a10 169 0 MulPower10(double*, double, int)
PUBLIC 5b80 0 VariantTimeToSystemTime
PUBLIC 5c08 0 ErrUnpackDate
FUNC 5c40 310 0 VarUdateFromDate
PUBLIC 5f60 0 SystemTimeToVariantTime
FUNC 6070 223 0 VarDateFromUdateEx
FUNC 62a0 28d 0 SafeArrayCreate
FUNC 6534 23 0 TlbIndexOfParam
FUNC 6560 753 0 VarParseNumFromStr
FUNC 6cc0 395 0 VarNumFromParseNum
PUBLIC 705c 0 ErrStringCopy
FUNC 7098 285 0 CoerceArg
FUNC 7324 68 0 CopyBackByrefArgs
PUBLIC 73a0 0 CTypeInfo2::Invoke(void*, long, unsigned short, tagDISPPARAMS*, tagVARIANT*, tagEXCEPINFO*, unsigned int*)
FUNC 7f20 2c8 0 DispCallFunc
FUNC 81f0 6c5 0 CTypeInfo2::GetInvokeArgs(tagFuncDescr*, InfoDef*, unsigned short, tagDISPPARAMS*, tagVARIANT**, void*, INVOKEARGS**, unsigned int*, int)
FUNC 88c0 180 0 AllocInvokeArgs
PUBLIC 8a50 0 SysAllocStringByteLen
PUBLIC 8b00 0 SafeArrayReleaseDescriptor
FUNC 8b10 43 0 _SafeArrayReleaseData(void*, bool, unsigned long)
FUNC 8b60 1c4 0 SafeArrayGetElement
FUNC 8d30 e6 0 SafeArrayDestroy
FUNC 8e20 269 0 _SafeArrayDestroyData(tagSAFEARRAY*, int)
FUNC 9090 70 0 _SafeArrayReleaseDescriptor(tagSAFEARRAY*, bool, unsigned long)
FUNC 9110 be 0 ReleaseResources(tagSAFEARRAY*, void*, unsigned long, unsigned short, unsigned long)
FUNC 91e0 1d9 0 SafeArrayPutElement
PUBLIC 93c0 0 VariantChangeType
PUBLIC 93f0 0 VariantChangeTypeEx
PUBLIC b170 0 SysAllocStringLen
PUBLIC b240 0 SysAllocString
PUBLIC b330 0 APP_DATA::AllocCachedMem(unsigned long)
FUNC b3c0 193 0 SafeArrayCreateVector
FUNC b560 49 0 _SafeArrayFreeData(void*)
PUBLIC b5b0 0 GetMalloc(IMalloc**)
PUBLIC b5f0 0 GetAppData(APP_DATA**)
PUBLIC b640 0 SysReleaseString
PUBLIC b670 0 SysFreeStringImpl(unsigned short*)
PUBLIC b700 0 SysFreeString
FUNC b7a0 110 0 APP_DATA::FreeCachedMem(void*, unsigned long)
PUBLIC b8c0 0 IsLegalVartype(unsigned short)
FUNC b910 50 0 SafeArraySize3(unsigned short, unsigned long, tagSAFEARRAYBOUND*)
FUNC b970 f1 0 SafeArrayElementSizeFeatures(unsigned short, unsigned short*, unsigned short*, IRecordInfo*)
FUNC ba70 f9 0 _SafeArrayDestroy(tagSAFEARRAY*, int)
FUNC bb70 148 0 SysReAllocStringLen
FUNC bcc0 6d 0 BSTR_UserFree
FUNC bd40 28b 0 BSTR_UserUnmarshal
FUNC bfd4 63 0 SBGetConfigValue(SBConfigValue)
FUNC c040 109 0 InitAppData
FUNC c150 45 0 CTypeInfo2::ReleaseFuncDesc(tagFUNCDESC*)
FUNC c1a0 3b4 0 CTypeInfo2::GetFuncDescInternal(unsigned int, tagFUNCDESC**, unsigned long)
FUNC c55c 139 0 CTypeLib2::InitTYPEDESCFromTypeDescr(HTYPE, tagTYPEDESC*, unsigned int, unsigned char**)
FUNC c6a0 93 0 CTypeInfo2::GetFuncDesc(unsigned int, tagFUNCDESC**)
FUNC c740 1d3 0 SafeArrayCopy
FUNC c920 1d0 0 SafeArrayCopyData
PUBLIC caf8 0 ShieldActivated(void)
FUNC cb18 3c8 0 Variant_ValidateBuffer(unsigned long*, unsigned char*, int)
FUNC cee8 68 0 SafeBuffer::SafeBuffer(unsigned long*, unsigned char*)
FUNC cf60 339 0 VARIANT_UserUnmarshal
FUNC d2a0 1a4 0 VARIANT_UserSize
FUNC d450 210 0 VARIANT_UserMarshal
FUNC d668 34 0 RequiredDcomProtocolVersion(unsigned long*, unsigned long, unsigned long)
PUBLIC d6b0 0 SafeArrayAllocDescriptor
PUBLIC d740 0 CTypeLib2::ReleaseTLibAttr(tagTLIBATTR*)
FUNC d780 d6 0 CTypeLib2::GetLibAttr(tagTLIBATTR**)
FUNC d860 2ba 0 LoadTypeLibEx
FUNC db20 e3 0 OLE_TYPEMGR::LookupTypeLib(unsigned short const*, tagSYSKIND)
FUNC dc0c 26 0 FFullyQualified
FUNC dc38 195 0 OLE_TYPEMGR::TypeLibLoaded(unsigned short const*, int, ITypeLib*, tagSYSKIND)
FUNC ddd4 210 0 CTypeLib2::Create(int, ILockBytes*, void*, unsigned short const*, int, tagSYSKIND, CTypeLib2**)
FUNC dfec f9 0 FindTypeLib(unsigned short const*, LoadInfo*, int)
FUNC e0ec 81 0 ErrOpen(unsigned short const*, int*)
FUNC e174 a9 0 VerifyIsExeOrTlb(LoadInfo*)
FUNC e224 13d 0 CreateFileLockBytesOnHFILE(int, int, unsigned long, unsigned long, void**, ILockBytes**)
PUBLIC m e370 0 CUnivStubWrapper::`scalar deleting destructor'(unsigned int)
PUBLIC e3b0 0 CProxyWrapper::Release(void)
FUNC e450 162 0 ProxyStubCLSIDOfInterface(_GUID const&, _GUID*)
FUNC e5b8 6f 0 CStubWrapper::~CStubWrapper(void)
FUNC e630 2a0 0 CPSFactory::CreateProxy(IUnknown*, _GUID const&, IRpcProxyBuffer**, void**)
FUNC e8e0 300 0 CPSFactory::CreateStub(_GUID const&, IUnknown*, IRpcStubBuffer**)
FUNC ebf0 119 0 DllGetClassObject
PUBLIC ed10 0 IsAutomationCLSID(_GUID const&)
FUNC edf0 f86 0 HEAP::Map32To64(CTypeLib2*, HEAP*, unsigned long*, unsigned long)
FUNC fd80 a2 0 CTypeLib2::GetSizeOfTypeDescrAdditionalBytes(HTYPE, tagSYSKIND, unsigned long*)
FUNC fe30 34a 0 ElemInfoTable::Read(CTypeLib2*, int)
FUNC 10180 b0 0 HEAP::CheckForInfodefOffset(CTypeLib2*, HTYPE, unsigned long, tagSYSKIND, InfodefOffsetsPatched**, long*)
PUBLIC 10238 0 MemAlloc
FUNC 102b0 854 0 CTypeLib2::ReadExisting(tagSYSKIND)
PUBLIC 10b0c 0 HEAP::SetReadWriteFlags(CTypeLib2*)
PUBLIC 10b50 0 CTypeLib2::ReadBytes(void*, unsigned long)
FUNC 10bc0 104 0 HEAP::ReadHeap(CTypeLib2*)
FUNC 10ccc df 0 HEAP::FixInfoDef(unsigned long, unsigned long, tagSYSKIND, int, void*, InfodefOffsetsPatched**, long*)
FUNC 10dc0 375 0 CTypeLib2::~CTypeLib2(void)
FUNC 1113c 3b 0 MemFree
FUNC 11180 a9 0 CTypeInfo2::Destroy(void)
FUNC 11230 d6 0 CTypeLib2::CheckForBad64BitLayout(tagSYSKIND)
PUBLIC 1130c 0 CTypeLib2::CTypeLib2(void)
PUBLIC 11420 0 FileLockBytesMemory::Release(void)
PUBLIC 1145c 0 FileLockBytesMemory::~FileLockBytesMemory(void)
FUNC 114b0 fd 0 CTypeInfo2::Release(void)
PUBLIC 115b4 0 OLE_TYPEMGR::TypeLibUnloaded(ITypeLib*)
FUNC 1165c 30 0 CTypeLib2::DeleteCTypeInfo2(CTypeInfo2*)
PUBLIC 11694 0 SzLibIdOfIID(_GUID const&, unsigned short*, long, unsigned short*, unsigned short*, int*)
FUNC 11818 521 0 GetTypeInfoOfIIDFwd(_GUID const&, ITypeInfo**, int)
FUNC 11d40 40 0 QueryClassesRootValueW
FUNC 11d88 d9 0 MapIIDToFusionTypeInfo(_GUID const&, ITypeInfo**)
FUNC 11e68 4f 0 GetTypeInfoOfIID(_GUID const&, ITypeInfo**)
FUNC 11ec0 bf 0 CProxyWrapper::Connect(IRpcChannelBuffer*)
FUNC 11f88 17e 0 CreateRealProxy
FUNC 1210c 56 0 SuspendImpersonate(void**)
PUBLIC 12168 0 FIsLCID(unsigned short const*)
FUNC 12210 129 0 OACleanup
PUBLIC 12340 0 OLE_TYPEMGR::Release(void)
FUNC 123a0 52 0 CStubWrapper::QueryInterface(_GUID const&, void**)
PUBLIC 123f8 0 InfodefOffsetsPatched::EmptyTheList(void)
FUNC 12430 115 0 CUnivStubWrapper::Invoke(tagRPCOLEMESSAGE*, IRpcChannelBuffer*)
PUBLIC 1254c 0 ReleaseAppData(void)
PUBLIC 125ec 0 APP_DATA::FlushMemCache(void)
PUBLIC 12684 0 FExistsRegisteredTypelib(HKEY__*, unsigned short const*, unsigned short const**)
PUBLIC 12744 0 GetBestLcidMatch(HKEY__*, unsigned long, unsigned long*, unsigned short const**)
FUNC 12810 183 0 GetTypeLibPathFromRegistry(unsigned short const*, unsigned short, unsigned short, unsigned long, int, unsigned long, unsigned short*, unsigned short*, unsigned short*)
PUBLIC 1299c 0 TLIBKEY::~TLIBKEY(void)
FUNC 129ec 28f 0 OpenTypeLibKey(unsigned short const*, unsigned short, unsigned short, int, TLIBKEY*, unsigned short*, unsigned short*)
FUNC 12c84 369 0 LoadRegTypeLibOfSzGuid_WithSyskind
PUBLIC 12ff4 0 ResumeImpersonate(void*)
PUBLIC 13024 0 LoadRegTypeLibIsolated
FUNC 130a4 1a2 0 CTypeInfo2::GetNamesInternal(long, unsigned short**, unsigned int, unsigned int*, int)
FUNC 13250 24f 0 CTypeInfo2::GetDocumentation(long, unsigned short**, unsigned short**, unsigned long*, unsigned short**)
PUBLIC 134a8 0 ElemInfoTable::IndexOfMemid(long, unsigned int)
FUNC 134dc 34 0 CTypeLib2::BstrOfHname(unsigned long, unsigned short**)
FUNC 13518 96 0 BstrFromRgbData(unsigned char*, unsigned long, unsigned short**)
FUNC 135b4 b9 0 CTypeInfo2::GetBaseTypeInfo(InfoDef*, ITypeInfo**, CTypeInfo2**)
FUNC 13680 141 0 CTypeInfo2::GetRefTypeInfo(unsigned long, ITypeInfo**)
FUNC 137c8 73 0 CTypeInfo2::MakeDual(InfoDef*)
FUNC 13850 e2 0 CTypeLib2::GetTypeInfoOfGuid(_GUID const&, ITypeInfo**)
PUBLIC 13938 0 CTypeLib2::LookupGuidEntry(_GUID const&, unsigned long*)
FUNC 139d0 12a 0 CTypeLib2::GetTypeInfoOfInfoDef(unsigned long, CTypeInfo2**)
FUNC 13b00 4f 0 CTypeLib2::AllocCTypeInfo2(CTypeInfo2**)
PUBLIC 13b58 0 CTypeInfo2::InternalAddRef(void)
FUNC 13b88 390 0 CTypeLib2::GetTypeInfoOfInfoRef(unsigned long, ITypeInfo**)
PUBLIC 13f20 0 CTypeInfo2::AddRef(void)
PUBLIC 13f64 0 OLE_TYPEMGR::LookupRefdTypeLib(REFLIBATTR*)
PUBLIC 14014 0 MemRealloc
FUNC 14070 64 0 CTypeInfo2::GetNames(long, unsigned short**, unsigned int, unsigned int*)
FUNC 140e0 df 0 CTypeInfo2::QueryInterface(_GUID const&, void**)
FUNC 141c8 9b 0 CTypeInfo2::GetIDsOfNamesHnameBase(InfoDef*, unsigned long, unsigned short**, unsigned int, long*)
PUBLIC 14270 0 CTypeInfo2::GetIDsOfNames(unsigned short**, unsigned int, long*)
FUNC 142c0 23c 0 CTypeInfo2::GetIDsOfNamesHname(unsigned long, unsigned short**, unsigned int, long*)
FUNC 14510 d7 0 LHashValOfNameSysA
FUNC 145f0 168 0 LoadRegTypeLib_WithSyskind
PUBLIC 14760 0 LoadRegTypeLib
FUNC 14788 1d 0 IsDBCS(unsigned long)
PUBLIC 147b0 0 LHashValOfNameSys
FUNC 14850 94 0 CTypeLib2::Release(void)
PUBLIC 148ec 0 InterlockedDecRefCnt(unsigned long*, unsigned long*)
PUBLIC 14938 0 CTypeLib2::`scalar deleting destructor'(unsigned int)
PUBLIC 14964 0 wil::details::in1diag3::Return_Hr(void*, unsigned int, char const*, long)
PUBLIC 14998 0 wil::details::ReportFailure_Hr(void*, unsigned int, char const*, char const*, char const*, void*, wil::FailureType, long)
FUNC 149dc c3 0 wil::details::ReportFailure(void*, unsigned int, char const*, char const*, char const*, void*, wil::FailureType, long, unsigned short const*, wil::details::ReportFailureOptions)
FUNC 14aa8 1d2 0 wil::details::LogFailure(void*, unsigned int, char const*, char const*, char const*, void*, wil::FailureType, long, unsigned short const*, bool, unsigned short*, uint64_t, char*, uint64_t, wil::FailureInfo*)
PUBLIC 14c80 0 wil::details::RecordReturn(long)
PUBLIC 14ca0 0 RefCountMap<unsigned short*>::Decrement(unsigned short*)
PUBLIC 14d70 0 SysStringLen
FUNC 14d90 195 0 HEAP::AllocChunk2(unsigned long*, unsigned long, unsigned long)
FUNC 14f30 5e 0 FileLockBytesMemory::ReadAt(_ULARGE_INTEGER, void*, unsigned long, unsigned long*)
FUNC 14fa0 b5 0 VarBstrCmp
FUNC 15060 66 0 SafeArrayGetUBound
PUBLIC 150d0 0 operator new(uint64_t)
FUNC 15140 31 0 RefCountMap<tagSAFEARRAY*>::Decrement(tagSAFEARRAY*)
FUNC 15180 30d 0 OpenClassesRootKeyExW
FUNC 15494 190 0 RegOpenOtherKeyEx(HKEY__*, unsigned short const*, unsigned long, unsigned long, HKEY__**, unsigned short*)
FUNC 1562c 53 0 IsUIAccessToken(void*, int*)
FUNC 15688 270 0 GetOffsetOfResource(int, char*, int, _IMAGE_DOS_HEADER*, long*, long*)
FUNC 15900 2cc 0 GetRsrcDirEntry(int, unsigned long, unsigned short*, unsigned long, _IMAGE_RESOURCE_DIRECTORY_ENTRY*)
FUNC 15bd4 27 0 mbslen
PUBLIC 15c10 0 SafeArrayGetLBound
PUBLIC 15c50 0 SafeArrayGetVartype
FUNC 15cb0 31 0 RefCountMap<void*>::Get(void*)
FUNC 15cf0 31 0 RefCountMap<void*>::Decrement(void*)
PUBLIC 15d30 0 SafeArrayUnaccessData
FUNC 15d60 54 0 InitMbString
FUNC 15dc0 31 0 RefCountMap<tagSAFEARRAY*>::Get(tagSAFEARRAY*)
FUNC 15df8 58 0 HEAP::Unload(void)
PUBLIC 15e60 0 CPSFactory::QueryInterface(_GUID const&, void**)
PUBLIC 15eb0 0 SafeArrayGetDim
PUBLIC 15ec4 0 InitDateInfo(int)
PUBLIC 15f28 0 InitNumInfo(int)
FUNC 15f88 1d0 0 InitProcessData(void)
PUBLIC 16160 0 OaGetEnv(char const*)
FUNC 161b4 2a 0 OaInitializeCriticalSectionAndSpinCount
FUNC 161e4 87 0 ReleaseProcessData(void)
PUBLIC 16274 0 OaDeleteCriticalSection
PUBLIC 162a8 0 CNumInfo::Release(void)
FUNC 16310 a0 0 CProxyWrapper::QueryInterface(_GUID const&, void**)
PUBLIC 163b8 0 operator delete(void*)
PUBLIC 16440 0 BSTR_UserMarshal
PUBLIC 164c0 0 VarDecCmp
FUNC 1654c e0 0 DecAddSub
FUNC 16640 7c 0 VarBstrFromI4
PUBLIC 166c4 0 xtoa
PUBLIC 16790 0 SafeArrayGetElemsize
PUBLIC 167b0 0 BSTR_UserSize
FUNC 167e0 8c 0 SafeArrayPtrOfIndex
FUNC 16880 f4 0 BSTR_UserUnmarshal64
FUNC 16980 4f 0 CStubWrapper::Disconnect(void)
PUBLIC 169e0 0 CStubWrapper::Release(void)
FUNC 16a20 af 0 VARIANT_UserFree
FUNC 16ae0 d5 0 LPSAFEARRAY_UserFree
PUBLIC 16bbc 0 RefCountMap<void*>::RefCountMap<void*>(void)
PUBLIC 16bf8 0 RefCountMap<tagSAFEARRAY*>::RefCountMap<tagSAFEARRAY*>(void)
PUBLIC 16c34 0 RefCountMap<unsigned short*>::RefCountMap<unsigned short*>(void)
PUBLIC 16c70 0 ATL::CCriticalSection::CCriticalSection(void)
PUBLIC 16ca0 0 SysStringByteLen
PUBLIC 16cc0 0 CProxyWrapper::Disconnect(void)
PUBLIC 16d10 0 BSTR_UserMarshal64
PUBLIC 16d90 0 CTypeInfo2::ReleaseTypeAttr(tagTYPEATTR*)
FUNC 16dc0 26 0 CStubRecordInfoCF::QueryInterface(_GUID const&, void**)
PUBLIC 16df0 0 BSTR_UserSize64
FUNC 16e20 8a 0 CTypeInfo2::GetRefTypeOfImplType(unsigned int, unsigned long*)
FUNC 16eb0 4b3 0 VarCmp
PUBLIC m 1736c 0 Microsoft::WRL::ComPtr<IPackagedComProxyStubCatalogInternal>::InternalRelease(void)
FUNC 173a0 8b 0 SafeArrayAllocData
PUBLIC 17440 0 _delayLoadHelper2
FUNC 1747c 35 0 RefCountMap<void*>::~RefCountMap<void*>(void)
FUNC 174b8 35 0 RefCountMap<tagSAFEARRAY*>::~RefCountMap<tagSAFEARRAY*>(void)
PUBLIC 174f4 0 RefCountMap<unsigned short*>::~RefCountMap<unsigned short*>(void)
PUBLIC 17530 0 SafeArrayLock
PUBLIC 17560 0 wil::details::GetCurrentModuleName(void)
FUNC 175a4 d8 0 wil::details::GetModuleInformation(void*, unsigned int*, char*, uint64_t)
FUNC 17684 6c 0 StringCchCopyA(char*, uint64_t, char const*)
PUBLIC 17700 0 BSTR_UserFree64
FUNC 1770c c6 0 x64toa
FUNC 177e0 25 0 CTypeInfo2::ReleaseVarDesc(tagVARDESC*)
FUNC 17810 81 0 IPropertyBag_RemoteRead_Thunk
PUBLIC 178a0 0 CStdStubBuffer_Release
PUBLIC m 178c0 0 CDispStubWrapper::CDispWrapper::AddRef(void)
PUBLIC 178d0 0 OleTranslateColor
FUNC 1791c 79 0 ExtractValueProperty(IDispatch*, unsigned long, tagVARIANT*)
PUBLIC 179a0 0 LoadTypeLib
FUNC 179b0 184 0 VarBoolFromStr
PUBLIC 17b3c 0 IsDBCS
PUBLIC 17b90 0 GenericTypeLibOLE::AddRef(void)
PUBLIC 17bb0 0 GenericTypeLibOLE::GetTypeInfoCount(void)
PUBLIC 17bc0 0 GenericTypeLibOLE::SetGuid(_GUID const&)
PUBLIC 17be0 0 GenericTypeLibOLE::SetHelpContext(unsigned long)
PUBLIC 17bf0 0 GenericTypeLibOLE::SetVersion(unsigned short, unsigned short)
PUBLIC m 17c10 0 STL_TYPEINFO::ReleaseFuncDesc(tagFUNCDESC*)
PUBLIC 17c20 0 wil::details::RecordFailFast(long)
PUBLIC m 17c40 0 COleAutomationPSFactory::AddRef(void)
PUBLIC m 17c60 0 GTLibStream::Revert(void)
PUBLIC m 17c70 0 CRecordInfo::RequestTypeChange(tagCHANGEKIND, ITypeInfo*, unsigned short*, int*)
PUBLIC 17c80 0 GTLibStorage::SetClass(_GUID const&)
PUBLIC 17ca0 0 GTLibStorage::Stat(tagSTATSTG*, unsigned long)
PUBLIC 17ce0 0 GENPROJ_TYPEBIND::AddRef(void)
PUBLIC m 17cf0 0 GENPROJ_TYPEBIND::GetCbSize(void)
PUBLIC 17d00 0 GENPROJ_TYPEBIND::GetTypeInfo(TYPEINFO**)
PUBLIC m 17d10 0 CStreamOnBuffer::UnlockRegion(_ULARGE_INTEGER, _ULARGE_INTEGER, unsigned long)
PUBLIC 17d20 0 GEN_DTINFO::EndDepIteration(void)
PUBLIC 17d40 0 DYN_TYPEBIND::GetCbSizeVft(void)
PUBLIC 17d50 0 GEN_DTINFO::InitializeIteration(void)
PUBLIC 17d70 0 GEN_DTINFO::NotReady(void)
PUBLIC 17da0 0 GEN_DTINFO::SetAlignment(unsigned short)
PUBLIC m 17dc0 0 CDefnTypeComp::AddRef(void)
PUBLIC 17de0 0 DYN_TYPEBIND::GetAlignment(void)
PUBLIC 17df0 0 DYN_TYPEBIND::GetCbSize(void)
PUBLIC 17e00 0 DYN_TYPEBIND::GetOPvft(void)
PUBLIC 17e10 0 DYN_TYPEBIND::GetTypeKind(void)
PUBLIC 17e30 0 DEFN_TYPEBIND::GetOPvft(void)
PUBLIC 17e40 0 DYN_TYPEMEMBERS::GetTypeKind(void)
PUBLIC 17e60 0 DYN_TYPEMEMBERS::IsLaidOut(void)
PUBLIC 17e80 0 CTypeLib2::AddRef(void)
PUBLIC 17ea0 0 CTypeLib2::GetTypeInfoCount(void)
PUBLIC 17eb0 0 CTypeLib2::SetHelpContext(unsigned long)
PUBLIC 17ec0 0 CTypeLib2::SetHelpStringContext(unsigned long)
PUBLIC 17ed0 0 CLEANLOCALSTORAGE_UserSize
PUBLIC 17ee0 0 CDispTypeInfo::GetVarDesc(unsigned int, tagVARDESC**)
PUBLIC 17ef0 0 CStdDispUnkImpl::AddRef(void)
PUBLIC 17f10 0 CRecordInfo::GetMarshalSizeMax(_GUID const&, void*, unsigned long, void*, unsigned long, unsigned long*)
PUBLIC 17f30 0 CRecordInfo::GetUnmarshalClass(_GUID const&, void*, unsigned long, void*, unsigned long, _GUID*)
PUBLIC 17f50 0 CStubUniv::DebugServerQueryInterface(void**)
PUBLIC 17f60 0 CPDProxImpl::AddRef(void)
PUBLIC 17f80 0 CPDUnkImpl::AddRef(void)
PUBLIC m 17fa0 0 CPTIProxImpl::AddRef(void)
PUBLIC m 17fc0 0 CPTIUnkImpl::AddRef(void)
PUBLIC m 17fe0 0 CPTLibProxImpl::AddRef(void)
PUBLIC m 18000 0 CPTCompUnkImpl::AddRef(void)
PUBLIC m 18020 0 CStubTypeInfo::DebugServerQueryInterface(void**)
PUBLIC 18030 0 CProxyWrapper::AddRef(void)
PUBLIC 18040 0 CStreamOnBuffer::AddRef(void)
PUBLIC m 18060 0 ITypeInfo_LocalInvoke_Thunk
FUNC 18078 6e 0 ElemInfoTable::ProcessElemMatch(unsigned int, unsigned int, tagFuncDescr**)
FUNC 180ec 14b 0 CDateInfo::Create(unsigned long, unsigned long, CDateInfo**, char**)
FUNC 18240 9c 0 GetDayNameInfo
PUBLIC 182e4 0 CDateInfo::Init(unsigned long, unsigned long, char**)
FUNC 19070 b1 0 SafeGetLocaleInfoPooled(tagDATEINFO*, unsigned long, unsigned short**, int*)
FUNC 19128 95 0 SafeGetLocaleInfo(unsigned long, unsigned long, unsigned short*, int)
FUNC 191d0 1e5 0 VarBstrFromDate
FUNC 193bc 1d6 0 RenderTime
FUNC 19598 af 0 AppendAmPm
FUNC 19650 26c 0 RenderDate
FUNC 198c4 32 0 IsKorea
FUNC 198fc 38 0 IsJapan
FUNC 1993c fe 0 GetDateInfo
FUNC 19a40 105 0 GetDateWindow(unsigned long, tagDATEINFO*, unsigned long)
FUNC 19b4c 7c 0 InitializeUserCalendars(void)
FUNC 19bd0 65 0 VarBstrFromBool
FUNC 19c3c 105 0 ElemInfoTable::VerifyPropFuncs(CTypeLib2*, tagFuncDescr*, tagFuncDescr*)
FUNC 19d48 2e 0 CDateInfo::Release(void)
PUBLIC 19d80 0 DosDateTimeToVariantTime
PUBLIC 19e8c 0 ErrPackDate
FUNC 19edc 255 0 CTypeInfo2::SysSpecificLayOut(tagSYSKIND)
FUNC 1a138 23 0 CTypeInfo2::TypeChangeEpilog(long, tagCHANGEKIND)
FUNC 1a164 26a 0 ElemInfoTable::Layout(CTypeLib2*, ITypeInfo*, unsigned short)
PUBLIC 1a3d4 0 ElemInfoTable::IndexOfName(unsigned long, unsigned int)
FUNC 1a408 cf 0 ElemInfoTable::ComputeSysSpecificOvfts(unsigned long*, tagSYSKIND, tagSYSKIND)
PUBLIC 1a4e0 0 CTypeLib2::MarkAllForReLayout(void)
PUBLIC 1a5a0 0 CTypeLib2::GetTypeInfo(unsigned int, ITypeInfo**)
PUBLIC 1a610 0 CTypeLib2::GetTypeInfoType(unsigned int, tagTYPEKIND*)
PUBLIC 1a660 0 CTypeLib2::InfoDefOfIndex(unsigned int, unsigned long*)
FUNC 1a6a0 1d 0 initialize_legacy_wide_specifiers
PUBLIC 1a6c4 0 _local_stdio_printf_options
PUBLIC 1a6d4 0 _local_stdio_scanf_options
FUNC 1a6f0 1d 0 initialize_msvcrt_compatibility
FUNC 1a720 50 0 dllmain_crt_dispatch
FUNC 1a778 116 0 dllmain_crt_process_attach
FUNC 1a894 83 0 dllmain_crt_process_detach
FUNC 1a920 133 0 dllmain_dispatch
PUBLIC 1aa60 0 DllMainCRTStartup
PUBLIC 1aab0 0 _security_check_cookie
PUBLIC 1aad8 0 _raise_securityfailure
PUBLIC 1ab40 0 _report_gsfailure
PUBLIC 1ac18 0 _report_rangecheckfailure
PUBLIC 1ac34 0 _report_securityfailure
FUNC 1acd8 6d 0 capture_current_context
FUNC 1ad4c 71 0 capture_previous_context
PUBLIC m 1adc4 0 operator delete[](void*)
PUBLIC 1add0 0 operator new[](uint64_t)
FUNC 1ade0 130 0 __scrt_initialize_thread_safe_statics
FUNC 1af20 28 0 __scrt_uninitialize_thread_safe_statics
PUBLIC 1af50 0 _scrt_acquire_startup_lock
PUBLIC 1af90 0 _scrt_dllmain_after_initialize_c
PUBLIC 1afcc 0 _scrt_dllmain_before_initialize_c
PUBLIC 1afe8 0 _scrt_dllmain_crt_thread_attach
PUBLIC 1b018 0 _scrt_dllmain_crt_thread_detach
PUBLIC 1b034 0 _scrt_dllmain_exception_filter
PUBLIC 1b09c 0 _scrt_dllmain_uninitialize_c
PUBLIC 1b0d4 0 _scrt_dllmain_uninitialize_critical
PUBLIC 1b0f0 0 _scrt_initialize_crt
PUBLIC 1b140 0 _scrt_initialize_onexit_tables
PUBLIC 1b220 0 _scrt_is_nonwritable_in_current_image
PUBLIC 1b2c0 0 _scrt_release_startup_lock
PUBLIC 1b2ec 0 _scrt_uninitialize_crt
PUBLIC 1b320 0 onexit
PUBLIC 1b378 0 atexit
PUBLIC m 1b3a0 0 type_info::`vector deleting destructor'(unsigned int)
PUBLIC 1b3cc 0 _security_init_cookie
PUBLIC 1b480 0 __scrt_initialize_type_info(void)
PUBLIC 1b494 0 __scrt_uninitialize_type_info(void)
PUBLIC 1b4a8 0 _scrt_initialize_default_local_stdio_options
PUBLIC 1b4cc 0 _scrt_get_dyn_tls_init_callback
PUBLIC 1b4dc 0 _crt_debugger_hook
PUBLIC 1b4ec 0 _scrt_fastfail
PUBLIC 1b640 0 RTC_Initialize
PUBLIC 1b684 0 RTC_Terminate
PUBLIC 1b6c8 0 _isa_available_init
PUBLIC 1b888 0 _scrt_is_ucrt_dll_in_use
PUBLIC 1b89a 0 initterm
PUBLIC 1b8a6 0 initterm_e
PUBLIC 1b8b2 0 memset
PUBLIC 1b8be 0 _CxxFrameHandler3
PUBLIC 1b8ca 0 _std_terminate
PUBLIC m 1b8d6 0 _std_exception_copy
PUBLIC m 1b8e2 0 _std_exception_destroy
PUBLIC m 1b8ee 0 o___std_type_info_destroy_list
PUBLIC m 1b8fa 0 o___stdio_common_vsscanf
PUBLIC m 1b906 0 _stdio_common_vswprintf
PUBLIC m 1b912 0 o___stdio_common_vswprintf_s
PUBLIC m 1b91e 0 cexit
PUBLIC m 1b92a 0 configure_narrow_argv
PUBLIC m 1b936 0 o__crt_atexit
PUBLIC m 1b942 0 o__execute_onexit_table
PUBLIC m 1b94e 0 o__initialize_narrow_environment
PUBLIC m 1b95a 0 o__initialize_onexit_table
PUBLIC m 1b970 0 o__purecall
PUBLIC m 1b97c 0 register_onexit_function
PUBLIC m 1b988 0 seh_filter_dll
PUBLIC m 1b994 0 ceil
PUBLIC m 1b9a0 0 o_floor
PUBLIC m 1b9ac 0 fmod
PUBLIC m 1b9b8 0 o_pow
PUBLIC 1b9c4 0 _C_specific_handler
PUBLIC 1b9d0 0 sscanf_s
PUBLIC 1ba24 0 vsnwprintf
PUBLIC 1ba8c 0 swprintf_s
PUBLIC 1baf0 0 CreateErrorInfo
PUBLIC 1bb00 0 GetErrorInfo
PUBLIC 1bb10 0 SetErrorInfo
PUBLIC m 1bb1c 0 IsReadStoragePropertiesPresent
PUBLIC 1bb70 0 _imp_load_ReadStorageProperties
PUBLIC 1bb7c 0 _tailMerge_ext_ms_win_ole32_oleautomation_l1_1_0_dll
PUBLIC 1bbfb 0 _imp_load_WriteStorageProperties
PUBLIC 1bc0d 0 _imp_load_MonikerLoadTypeLib
PUBLIC 1bc1f 0 _imp_load_StdTypesGetClassObject
PUBLIC 1bc31 0 _imp_load_StdTypesRegisterServer
PUBLIC 1bc43 0 _imp_load_RegisterActiveObjectExt
PUBLIC 1bc55 0 _imp_load_RevokeActiveObjectExt
PUBLIC 1bc67 0 _imp_load_GetActiveObjectExt
PUBLIC 1bc79 0 _imp_load_CLIPFORMAT_UserUnmarshalExt
PUBLIC 1bc8b 0 _imp_load_STGMEDIUM_UserFreeExt
PUBLIC 1bc9d 0 _imp_load_HPALETTE_UserSizeExt
PUBLIC 1bcaf 0 _imp_load_STGMEDIUM_UserMarshalExt
PUBLIC 1bcc1 0 _imp_load_HWND_UserMarshalExt
PUBLIC 1bcd3 0 _imp_load_CLIPFORMAT_UserFreeExt
PUBLIC 1bce5 0 _imp_load_OleCreateFontIndirectExt
PUBLIC 1bcf7 0 _imp_load_OleLoadPictureExt
PUBLIC 1bd09 0 _imp_load_OleCreatePropertyFrameIndirectExt
PUBLIC 1bd1b 0 _imp_load_HWND_UserSizeExt
PUBLIC 1bd2d 0 _imp_load_HPALETTE_UserFreeExt
PUBLIC 1bd3f 0 _imp_load_OleLoadPicturePathExt
PUBLIC 1bd51 0 _imp_load_HPALETTE_UserUnmarshalExt
PUBLIC 1bd63 0 _imp_load_STGMEDIUM_UserUnmarshalExt
PUBLIC 1bd75 0 _imp_load_CLIPFORMAT_UserMarshalExt
PUBLIC 1bd87 0 _imp_load_OleCreatePictureIndirectExt
PUBLIC 1bd99 0 _imp_load_OleTranslateColorExt
PUBLIC 1bdab 0 _imp_load_OleIconToCursorExt
PUBLIC 1bdbd 0 _imp_load_CLIPFORMAT_UserSizeExt
PUBLIC 1bdcf 0 _imp_load_HWND_UserUnmarshalExt
PUBLIC 1bde1 0 _imp_load_OleSavePictureFileExt
PUBLIC 1bdf3 0 _imp_load_HWND_UserFreeExt
PUBLIC 1be05 0 _imp_load_STGMEDIUM_UserSizeExt
PUBLIC 1be17 0 _imp_load_HPALETTE_UserMarshalExt
PUBLIC 1be29 0 _imp_load_OleLoadPictureFileExt
PUBLIC 1be3b 0 _imp_load_SetOleautModule
PUBLIC m 1be50 0 IsSxsOleAut32RedirectTypeLibraryPresent
PUBLIC 1bea4 0 _imp_load_SxsOleAut32RedirectTypeLibrary
PUBLIC 1beb0 0 _tailMerge_ext_ms_win_sxs_oleautomation_l1_1_0_dll
PUBLIC 1bf2f 0 _imp_load_SxsOleAut32MapConfiguredClsidToReferenceClsid
PUBLIC 1bf41 0 _imp_load_SxsOleAut32MapIIDToProxyStubCLSID
PUBLIC 1bf53 0 _imp_load_SxsOleAut32MapIIDToTLBPath
PUBLIC 1bf70 0 CStdStubBuffer_Invoke
PUBLIC 1bf80 0 CStdStubBuffer_DebugServerQueryInterface
PUBLIC 1bf90 0 ObjectStublessClient5
PUBLIC 1bfa0 0 CStdStubBuffer_AddRef
PUBLIC 1bfb0 0 CStdStubBuffer_CountRefs
PUBLIC 1bfc0 0 CStdStubBuffer_QueryInterface
PUBLIC 1bfd0 0 CStdStubBuffer_DebugServerRelease
PUBLIC 1bfe0 0 CStdStubBuffer_Disconnect
PUBLIC 1bff0 0 CStdStubBuffer_IsIIDSupported
PUBLIC 1c000 0 CStdStubBuffer_Connect
PUBLIC 1c010 0 ObjectStublessClient4
PUBLIC 1c020 0 ObjectStublessClient12
PUBLIC 1c030 0 NdrProxyForwardingFunction14
PUBLIC 1c040 0 ObjectStublessClient14
PUBLIC 1c050 0 ObjectStublessClient11
PUBLIC 1c060 0 NdrProxyForwardingFunction8
PUBLIC 1c070 0 ObjectStublessClient22
PUBLIC 1c080 0 ObjectStublessClient3
PUBLIC 1c090 0 ObjectStublessClient27
PUBLIC 1c0a0 0 ObjectStublessClient18
PUBLIC 1c0b0 0 ObjectStublessClient28
PUBLIC 1c0c0 0 ObjectStublessClient20
PUBLIC 1c0d0 0 ObjectStublessClient15
PUBLIC 1c0e0 0 ObjectStublessClient23
PUBLIC 1c0f0 0 NdrProxyForwardingFunction6
PUBLIC 1c100 0 ObjectStublessClient7
PUBLIC 1c110 0 NdrProxyForwardingFunction11
PUBLIC 1c120 0 ObjectStublessClient13
PUBLIC 1c130 0 ObjectStublessClient19
PUBLIC 1c140 0 NdrProxyForwardingFunction13
PUBLIC 1c150 0 NdrProxyForwardingFunction4
PUBLIC 1c160 0 NdrProxyForwardingFunction5
PUBLIC 1c170 0 ObjectStublessClient6
PUBLIC 1c180 0 ObjectStublessClient8
PUBLIC 1c190 0 NdrProxyForwardingFunction10
PUBLIC 1c1a0 0 ObjectStublessClient9
PUBLIC 1c1b0 0 ObjectStublessClient26
PUBLIC 1c1c0 0 ObjectStublessClient17
PUBLIC 1c1d0 0 ObjectStublessClient10
PUBLIC 1c1e0 0 NdrProxyForwardingFunction9
PUBLIC 1c1f0 0 ObjectStublessClient16
PUBLIC 1c200 0 NdrProxyForwardingFunction12
PUBLIC 1c210 0 ObjectStublessClient29
PUBLIC 1c220 0 ObjectStublessClient21
PUBLIC 1c230 0 NdrProxyForwardingFunction3
PUBLIC 1c240 0 NdrProxyForwardingFunction7
PUBLIC 1c250 0 ObjectStublessClient24
PUBLIC 1c260 0 ObjectStublessClient25
PUBLIC 1c270 0 IUnknown_AddRef_Proxy
PUBLIC 1c280 0 NdrOleFree
PUBLIC 1c290 0 IUnknown_Release_Proxy
PUBLIC 1c2a0 0 NdrOleAllocate
PUBLIC 1c2b0 0 IUnknown_QueryInterface_Proxy
PUBLIC 1c2c0 0 NdrStubForwardingFunction
PUBLIC 1c2d0 0 NdrStubCall2
PUBLIC 1c2e0 0 ApiSetQueryApiSetPresence
PUBLIC m 1c2ec 0 _vcrt_thread_attach
PUBLIC 1c2f8 0 DuplicateString(unsigned short*)
PUBLIC 1c3b0 0 IntAdd(int, int, int*)
PUBLIC 1c3e4 0 ParseEraInformation(unsigned short*, unsigned short)
PUBLIC 1c408 0 wil::details::in1diag3::FailFast_Hr(void*, unsigned int, char const*, long)
PUBLIC 1c448 0 DllMain
PUBLIC 1c55c 0 _GSHandlerCheck
PUBLIC 1c580 0 _GSHandlerCheckCommon
PUBLIC 1c5e4 0 _GSHandlerCheck_SEH
PUBLIC m 1c680 0 _chkstk
PUBLIC 1c6d7 0 wcscmp
PUBLIC 1c6e3 0 CxxThrowException
PUBLIC 1c6ef 0 memcmp
PUBLIC 1c6fb 0 memcpy
PUBLIC 1c707 0 memmove
PUBLIC 1c720 0 DispCheckICall
PUBLIC 1c740 0 DispCallFuncAmd64
PUBLIC 1c7f0 0 guard_dispatch_icall_nop
PUBLIC 1c800 0 GenericTypeLibOLE::AddRef(void)
PUBLIC 1c810 0 GenericTypeLibOLE::QueryInterface(_GUID const&, void**)
PUBLIC 1c820 0 GenericTypeLibOLE::Release(void)
PUBLIC 1c830 0 STL_TYPEINFO::AddRef(void)
PUBLIC 1c840 0 GEN_DTINFO::QueryInterface(_GUID const&, void**)
PUBLIC 1c850 0 STL_TYPEINFO::QueryInterface(_GUID const&, void**)
PUBLIC 1c860 0 STL_TYPEINFO::Release(void)
PUBLIC 1c870 0 CTypeLib2::AddRef(void)
PUBLIC 1c880 0 CTypeLib2::AddRef(void)
PUBLIC 1c890 0 CTypeLib2::QueryInterface(_GUID const&, void**)
PUBLIC 1c8a0 0 CTypeLib2::QueryInterface(_GUID const&, void**)
PUBLIC 1c8b0 0 CTypeLib2::Release(void)
PUBLIC 1c8c0 0 CTypeLib2::Release(void)
PUBLIC 1c8d0 0 CTypeInfo2::AddRef(void)
PUBLIC 1c8e0 0 CTypeInfo2::AddRef(void)
PUBLIC 1c8f0 0 CTypeInfo2::QueryInterface(_GUID const&, void**)
PUBLIC 1c900 0 CTypeInfo2::QueryInterface(_GUID const&, void**)
PUBLIC 1c910 0 CTypeInfo2::Release(void)
PUBLIC 1c920 0 CTypeInfo2::Release(void)
PUBLIC 1c930 0 CRecordInfo::AddRef(void)
PUBLIC 1c940 0 CRecordInfo::AddRef(void)
PUBLIC 1c950 0 CRecordInfo::AddRef(void)
PUBLIC 1c960 0 CRecordInfo::QueryInterface(_GUID const&, void**)
PUBLIC 1c970 0 CRecordInfo::QueryInterface(_GUID const&, void**)
PUBLIC 1c980 0 CRecordInfo::QueryInterface(_GUID const&, void**)
PUBLIC 1c990 0 CRecordInfo::Release(void)
PUBLIC 1c9a0 0 CRecordInfo::Release(void)
PUBLIC 1c9b0 0 CRecordInfo::Release(void)
PUBLIC 1c9c0 0 CProxUniv::CPriv::AddRef(void)
PUBLIC 1c9d0 0 CStubUniv::AddRef(void)
PUBLIC 1c9e0 0 CProxUniv::CPriv::QueryInterface(_GUID const&, void**)
PUBLIC 1c9f0 0 CStubUniv::QueryInterface(_GUID const&, void**)
PUBLIC 1ca00 0 CProxUniv::CPriv::Release(void)
PUBLIC 1ca10 0 CStubUniv::Release(void)
FUNC 1ca1f 1b 0 `RefCountMap<unsigned short * __ptr64>::Increment'::`1'::catch$13
FUNC 1ca40 c 0 `RefCountMap<unsigned short * __ptr64>::Increment'::`1'::dtor$0
FUNC 1ca52 1d 0 `RefCountMap<unsigned short * __ptr64>::Increment'::`1'::dtor$1
FUNC 1ca75 c 0 `RefCountMap<unsigned short * __ptr64>::Increment'::`1'::dtor$2
FUNC 1ca87 20 0 `ATL::CCritSecLock::Lock'::`1'::filt$0
FUNC 1caad 25 0 `std::_Tree_comp_alloc<std::_Tmap_traits<unsigned short * __ptr64,int,std::less<unsigned short * __ptr64>,throwingAllocator<std::pair<unsigned short * __ptr64 const,int> >,0> >::_Buyheadnode'::`1'::catch$11
FUNC 1cad8 28 0 `std::_Tree<std::_Tmap_traits<unsigned short * __ptr64,int,std::less<unsigned short * __ptr64>,throwingAllocator<std::pair<unsigned short * __ptr64 const,int> >,0> >::_Insert_hint<std::pair<unsigned short * __ptr64 const,int> & __ptr64,std::_Tree_node<std::pair<unsigned short * __ptr64 const,int>,void * __ptr64> * __ptr64>'::`1'::catch$77
FUNC 1cb06 25 0 `std::_Tree_comp_alloc<std::_Tmap_traits<unsigned short * __ptr64,int,std::less<unsigned short * __ptr64>,throwingAllocator<std::pair<unsigned short * __ptr64 const,int> >,0> >::_Buynode<std::piecewise_construct_t const & __ptr64,std::tuple<unsigned short * __ptr64 const & __ptr64>,std::tuple<> >'::`1'::catch$7
FUNC 1cb31 25 0 `std::_Tree_comp_alloc<std::_Tmap_traits<unsigned short * __ptr64,int,std::less<unsigned short * __ptr64>,throwingAllocator<std::pair<unsigned short * __ptr64 const,int> >,0> >::_Buynode0'::`1'::catch$20
FUNC 1cb5c 1a 0 LPSAFEARRAY_UserUnmarshal64$fin$0
FUNC 1cb7c 1a 0 LPSAFEARRAY_UserMarshal64$fin$0
FUNC 1cb9c 1a 0 LPSAFEARRAY_Marshal$fin$0
FUNC 1cbbc 39 0 LPSAFEARRAY_Unmarshal$fin$0
FUNC 1cbfb 20 0 `ATL::CCriticalSection::CCriticalSection'::`1'::filt$0
FUNC 1cc21 17 0 `dllmain_crt_process_attach'::`1'::fin$0
FUNC 1cc3e 1c 0 `dllmain_crt_process_detach'::`1'::fin$0
FUNC 1cc60 36 0 `dllmain_dispatch'::`1'::filt$0
FUNC 1cc9c 18 0 __scrt_is_nonwritable_in_current_image$filt$0
FUNC 1ccc0 5 0 `dynamic atexit destructor for 'BstrRefCounts''
FUNC 1ccd0 5 0 `dynamic atexit destructor for 'SafeArrayDataRefCounts''
FUNC 1cce0 5 0 `dynamic atexit destructor for 'SafeArrayDescriptorRefCounts''
FUNC 1cce6 13b 0 VarBstrFromDec
FUNC 1ce22 10e 0 VarDecFromR8
FUNC 1cf30 22 0 VarDecRound
FUNC 1cf52 4e 0 Div96By32
FUNC 1cfa0 f6 0 VarDecFromR4
FUNC 1d096 39 0 RefCountMap<unsigned short * __ptr64>::Increment
FUNC 1d0d0 e 0 InitOnceHolder::~InitOnceHolder
FUNC 1d0de 15 0 std::map<unsigned short * __ptr64,int,std::less<unsigned short * __ptr64>,throwingAllocator<std::pair<unsigned short * __ptr64 const,int> > >::_Try_emplace<unsigned short * __ptr64 const & __ptr64>
FUNC 1d0f4 1f1 0 std::_Tree<std::_Tmap_traits<unsigned short * __ptr64,int,std::less<unsigned short * __ptr64>,throwingAllocator<std::pair<unsigned short * __ptr64 const,int> >,0> >::_Insert_hint<std::pair<unsigned short * __ptr64 const,int> & __ptr64,std::_Tree_node<std::pair<unsigned short * __ptr64 const,int>,void * __ptr64> * __ptr64>
FUNC 1d2e6 10b 0 std::_Tree<std::_Tmap_traits<unsigned short * __ptr64,int,std::less<unsigned short * __ptr64>,throwingAllocator<std::pair<unsigned short * __ptr64 const,int> >,0> >::_Insert_at<std::pair<unsigned short * __ptr64 const,int> & __ptr64,std::_Tree_node<std::pair<unsigned short * __ptr64 const,int>,void * __ptr64> * __ptr64>
FUNC 1d3f2 2f 0 throwingAllocator<std::_Tree_node<std::pair<unsigned short * __ptr64 const,int>,void * __ptr64> >::allocate
FUNC 1d422 34 0 std::_Allocate<16,std::_Default_allocate_traits,0>
FUNC 1d456 76 0 RefCountMap<unsigned short * __ptr64>::Get
FUNC 1d4cc 1a 0 SysReAllocString
FUNC 1d4e6 ca 0 TiperrOfOFErr
FUNC 1d5b0 2c 0 VarUI4FromDec
FUNC 1d5dc 5c 0 SafeArrayDestroyDescriptor
FUNC 1d638 c0 0 CTypeLib2::VariantFromConstData
FUNC 1d6f8 16 0 std::_Tree<std::_Tmap_traits<unsigned short * __ptr64,int,std::less<unsigned short * __ptr64>,throwingAllocator<std::pair<unsigned short * __ptr64 const,int> >,0> >::erase
FUNC 1d70e 22e 0 std::_Tree<std::_Tmap_traits<unsigned short * __ptr64,int,std::less<unsigned short * __ptr64>,throwingAllocator<std::pair<unsigned short * __ptr64 const,int> >,0> >::_Extract
FUNC 1d93c 71 0 DecFixInt
FUNC 1d9ae 24 0 _IPropertyBag_Read_Proxy
FUNC 1d9d2 47c 0 VARIANT_UserUnmarshal64
FUNC 1de4e 5ed 0 LPSAFEARRAY_UserUnmarshal64
FUNC 1e43c 272 0 VARIANT_UserMarshal64
FUNC 1e6ae 28d 0 LPSAFEARRAY_UserMarshal64
FUNC 1e93c 7c 0 VarBstrFromR4
FUNC 1e9b8 1bd 0 VARIANT_UserSize64
FUNC 1eb76 18f 0 LPSAFEARRAY_UserSize64
FUNC 1ed06 10 0 SafeBuffer::Read<unsigned __int64>
FUNC 1ed16 2a 0 std::_Tree<std::_Tmap_traits<unsigned short * __ptr64,int,std::less<unsigned short * __ptr64>,throwingAllocator<std::pair<unsigned short * __ptr64 const,int> >,0> >::_Erase
FUNC 1ed40 33 0 VarBstrFromI8
FUNC 1ed74 2c 0 SafeArrayAllocDescriptorEx
FUNC 1eda0 33 0 VarBstrFromUI8
FUNC 1edd4 78 0 VarBstrFromR8
FUNC 1ee4c d 0 VarBstrFromUI4
FUNC 1ee5a 1e3 0 EditStrFromReal
FUNC 1f03e 7b 0 GetNumInfo
FUNC 1f0ba 1a 0 VarR8FromDec
FUNC 1f0d4 15 0 fnDblPower10
FUNC 1f0ea 1b1 0 LPSAFEARRAY_Size
FUNC 1f29c df 0 GetSafeArrayDiscr
FUNC 1f37c 283 0 LPSAFEARRAY_Marshal
FUNC 1f600 4cb 0 SafeArray_ValidateBuffer
FUNC 1facc 10 0 SafeBuffer::Read<unsigned int>
FUNC 1fadc 29 0 SafeBuffer::Mul
FUNC 1fb06 10 0 SafeBuffer::Read<unsigned short>
FUNC 1fb16 1b3 0 SafeArray_ValidateVt
FUNC 1fcca 630 0 LPSAFEARRAY_Unmarshal
FUNC 202fa c4 0 CTypeInfo2::VariantVtOfHtype
FUNC 203be c4 0 IsCharType
FUNC 20482 d 0 IsTaiwan
FUNC 20490 3a 0 IsChina
FUNC 204ca d5 0 CNumInfo::Init
FUNC 205a0 2c 0 GETOADIGIT
FUNC 205cc 2c5 0 VariantVtOfTypedesc
FUNC 20892 af 0 CTypeInfo2::GetVarDesc
FUNC 20942 f7 0 CNumInfo::Create
FUNC 20a3a 17 0 ISOADIGIT
FUNC 20a52 d 0 IsThai
FUNC 20a60 fa 0 SafeArrayRedim
FUNC 20b5a a2 0 VarI4FromStr
FUNC 20bfc 33 0 CTypeInfo2::GetTypeAttr
FUNC 20c30 fe 0 MulPower10
FUNC 20d2e d8 0 VarUdateFromDate
FUNC 20e06 11e 0 VarDateFromUdateEx
FUNC 20f24 75 0 SafeArrayCreate
FUNC 20f9a 27 0 TlbIndexOfParam
FUNC 20fc2 600 0 VarParseNumFromStr
FUNC 215c2 d68 0 VarNumFromParseNum
FUNC 2232a 37c 0 CoerceArg
FUNC 226a6 1d5 0 CopyBackByrefArgs
FUNC 2287c d1 0 DispCallFunc
FUNC 2294e 295 0 CTypeInfo2::GetInvokeArgs
FUNC 22be4 43 0 AllocInvokeArgs
FUNC 22c28 13 0 _SafeArrayReleaseData
FUNC 22c3c e8 0 SafeArrayGetElement
FUNC 22d24 95 0 SafeArrayDestroy
FUNC 22dba c9 0 _SafeArrayDestroyData
FUNC 22e84 33 0 _SafeArrayReleaseDescriptor
FUNC 22eb8 ab 0 ReleaseResources
FUNC 22f64 116 0 SafeArrayPutElement
FUNC 2307a 60 0 SafeArrayCreateVector
FUNC 230da 1f 0 _SafeArrayFreeData
FUNC 230fa 10 0 APP_DATA::FreeCachedMem
FUNC 2310a 47 0 SafeArraySize3
FUNC 23152 75 0 SafeArrayElementSizeFeatures
FUNC 231c8 95 0 _SafeArrayDestroy
FUNC 2325e 65 0 SysReAllocStringLen
FUNC 232c4 46 0 BSTR_UserFree
FUNC 2330a 150 0 BSTR_UserUnmarshal
FUNC 2345a 279 0 SBGetConfigValue
FUNC 236d4 54 0 InitAppData
FUNC 23728 3e 0 CTypeInfo2::ReleaseFuncDesc
FUNC 23766 bf 0 CTypeInfo2::GetFuncDescInternal
FUNC 23826 12 0 CTypeLib2::InitTYPEDESCFromTypeDescr
FUNC 23838 18 0 CTypeInfo2::GetFuncDesc
FUNC 23850 119 0 SafeArrayCopy
FUNC 2396a cb 0 SafeArrayCopyData
FUNC 23a36 557 0 Variant_ValidateBuffer
FUNC 23f8e 10 0 SafeBuffer::SafeBuffer
FUNC 23f9e 35f 0 VARIANT_UserUnmarshal
FUNC 242fe 125 0 VARIANT_UserSize
FUNC 24424 1ca 0 VARIANT_UserMarshal
FUNC 245ee 53 0 RequiredDcomProtocolVersion
FUNC 24642 14 0 CTypeLib2::GetLibAttr
FUNC 24656 1eb 0 LoadTypeLibEx
FUNC 24842 1b 0 OLE_TYPEMGR::LookupTypeLib
FUNC 2485e 1d 0 OLE_TYPEMGR::TypeLibLoaded
FUNC 2487c 91 0 CTypeLib2::Create
FUNC 2490e 2c 0 FindTypeLib
FUNC 2493a 74 0 ErrOpen
FUNC 249ae 45 0 VerifyIsExeOrTlb
FUNC 249f4 69 0 CreateFileLockBytesOnHFILE
FUNC 24a5e 123 0 ProxyStubCLSIDOfInterface
FUNC 24b82 26 0 CStubWrapper::~CStubWrapper
FUNC 24ba8 44 0 CPSFactory::CreateProxy
FUNC 24bec 88 0 CPSFactory::CreateStub
FUNC 24c74 64 0 DllGetClassObject
FUNC 24cd8 2d5 0 HEAP::Map32To64
FUNC 24fae 68 0 CTypeLib2::GetSizeOfTypeDescrAdditionalBytes
FUNC 25016 108 0 ElemInfoTable::Read
FUNC 2511e 10 0 HEAP::CheckForInfodefOffset
FUNC 2512e a9 0 CTypeLib2::ReadExisting
FUNC 251d8 25 0 HEAP::ReadHeap
FUNC 251fe f0 0 HEAP::FixInfoDef
FUNC 252ee 146 0 CTypeLib2::~CTypeLib2
FUNC 25434 45 0 MemFree
FUNC 2547a 68 0 CTypeInfo2::Destroy
FUNC 254e2 57 0 CTypeLib2::CheckForBad64BitLayout
FUNC 2553a 1a 0 CTypeInfo2::Release
FUNC 25554 d 0 CTypeLib2::DeleteCTypeInfo2
FUNC 25562 7a 0 GetTypeInfoOfIIDFwd
FUNC 255dc 39 0 QueryClassesRootValueW
FUNC 25616 e8 0 MapIIDToFusionTypeInfo
FUNC 256fe 1a 0 GetTypeInfoOfIID
FUNC 25718 1b 0 CProxyWrapper::Connect
FUNC 25734 23 0 CreateRealProxy
FUNC 25758 1b 0 SuspendImpersonate
FUNC 25774 b 0 OACleanup
FUNC 25780 17 0 CStubWrapper::QueryInterface
FUNC 25798 f5 0 CUnivStubWrapper::Invoke
FUNC 2588e 2f 0 GetTypeLibPathFromRegistry
FUNC 258be 67 0 OpenTypeLibKey
FUNC 25926 239 0 LoadRegTypeLibOfSzGuid_WithSyskind
FUNC 25b60 144 0 CTypeInfo2::GetNamesInternal
FUNC 25ca4 14d 0 CTypeInfo2::GetDocumentation
FUNC 25df2 8 0 CTypeLib2::BstrOfHname
FUNC 25dfa 11 0 BstrFromRgbData
FUNC 25e0c 75 0 CTypeInfo2::GetBaseTypeInfo
FUNC 25e82 8b 0 CTypeInfo2::GetRefTypeInfo
FUNC 25f0e 1c 0 CTypeInfo2::MakeDual
FUNC 25f2a a 0 CTypeLib2::GetTypeInfoOfGuid
FUNC 25f34 4a 0 CTypeLib2::GetTypeInfoOfInfoDef
FUNC 25f7e 4a 0 CTypeLib2::AllocCTypeInfo2
FUNC 25fc8 30d 0 CTypeLib2::GetTypeInfoOfInfoRef
FUNC 262d6 6e 0 CTypeInfo2::GetNames
FUNC 26344 1d6 0 CTypeInfo2::QueryInterface
FUNC 2651a 24 0 CTypeInfo2::GetIDsOfNamesHnameBase
FUNC 2653e 1a8 0 CTypeInfo2::GetIDsOfNamesHname
FUNC 266e6 103 0 LHashValOfNameSysA
FUNC 267ea 46 0 LoadRegTypeLib_WithSyskind
FUNC 26830 19 0 GetRealClassFactory
FUNC 2684a e 0 IsDBCS
FUNC 26858 c7 0 CStubWrapper::Invoke
FUNC 26920 13 0 CTypeLib2::Release
FUNC 26934 5e 0 wil::details::ReportFailure
FUNC 26992 150 0 wil::details::LogFailure
FUNC 26ae2 192 0 HEAP::AllocChunk2
FUNC 26c74 14 0 FileLockBytesMemory::ReadAt
FUNC 26c88 6a 0 VarBstrCmp
FUNC 26cf2 f 0 SafeArrayGetUBound
FUNC 26d02 9d 0 RefCountMap<tagSAFEARRAY * __ptr64>::Decrement
FUNC 26da0 d2 0 OpenClassesRootKeyExW
FUNC 26e72 22 0 RegOpenOtherKeyEx
FUNC 26e94 1f 0 IsUIAccessToken
FUNC 26eb4 20a 0 GetOffsetOfResource
FUNC 270be 4f 0 GetRsrcDirEntry
FUNC 2710e 29 0 _mbslen
FUNC 27138 80 0 RefCountMap<void * __ptr64>::Get
FUNC 271b8 9d 0 RefCountMap<void * __ptr64>::Decrement
FUNC 27256 16 0 InitMbString
FUNC 2726c 80 0 RefCountMap<tagSAFEARRAY * __ptr64>::Get
FUNC 272ec 45 0 HEAP::Unload
FUNC 27332 20e 0 InitProcessData
FUNC 27540 2b 0 OaInitializeCriticalSectionAndSpinCount
FUNC 2756c 20 0 ReleaseProcessData
FUNC 2758c e 0 CProxyWrapper::QueryInterface
FUNC 2759a 3c0 0 DecAddSub
FUNC 2795a 2f 0 VarBstrFromI4
FUNC 2798a 20 0 SafeArrayPtrOfIndex
FUNC 279aa 15 0 BSTR_UserUnmarshal64
FUNC 279c0 13 0 CStubWrapper::Disconnect
FUNC 279d4 b9 0 VARIANT_UserFree
FUNC 27a8e ab 0 LPSAFEARRAY_UserFree
FUNC 27b3a 2a 0 CStubRecordInfoCF::QueryInterface
FUNC 27b64 67 0 CTypeInfo2::GetRefTypeOfImplType
FUNC 27bcc 5ee 0 VarCmp
FUNC 281ba 1b 0 SafeArrayAllocData
FUNC 281d6 33 0 RefCountMap<void * __ptr64>::~RefCountMap<void * __ptr64>
FUNC 2820a 33 0 RefCountMap<tagSAFEARRAY * __ptr64>::~RefCountMap<tagSAFEARRAY * __ptr64>
FUNC 2823e e 0 wil::details::GetModuleInformation
FUNC 2824c 11 0 StringCchCopyA
FUNC 2825e 12 0 x64toa
FUNC 28270 19 0 CTypeInfo2::ReleaseVarDesc
FUNC 2828a 22 0 _IPropertyBag_RemoteRead_Thunk
FUNC 282ac 18 0 ExtractValueProperty
FUNC 282c4 22 0 ElemInfoTable::ProcessElemMatch
FUNC 282e6 29b 0 CTypeInfo2::SysSpecificLayOut
FUNC 28582 26 0 CTypeInfo2::TypeChangeEpilog
FUNC 285a8 ca 0 ElemInfoTable::Layout
FUNC 28672 5b 0 ElemInfoTable::ComputeSysSpecificOvfts
FUNC 286ce 14f 0 CDateInfo::Create
FUNC 2881e 7c 0 GetDayNameInfo
FUNC 2889a 6e 0 SafeGetLocaleInfoPooled
FUNC 28908 27 0 SafeGetLocaleInfo
FUNC 28930 12b 0 VarBstrFromDate
FUNC 28a5c 4f 0 RenderTime
FUNC 28aac 21 0 AppendAmPm
FUNC 28ace 476 0 RenderDate
FUNC 28f44 1a 0 IsKorea
FUNC 28f5e d 0 IsJapan
FUNC 28f6c 61 0 GetDateInfo
FUNC 28fce b1 0 GetDateWindow
FUNC 29080 85 0 InitializeUserCalendars
FUNC 29106 64 0 VarBstrFromBool
FUNC 2916a e8 0 VarBoolFromStr
FUNC 29252 8b 0 ElemInfoTable::VerifyPropFuncs
FUNC 292de 28 0 CDateInfo::Release
PUBLIC 29310 0 GenericTypeLibOLE::GenericTypeLibOLE(void)
PUBLIC 29568 0 GenericTypeLibOLE::~GenericTypeLibOLE(void)
PUBLIC m 29760 0 GenericTypeLibOLE::`scalar deleting destructor'(unsigned int)
PUBLIC 297b4 0 SHEAP_MGR::`scalar deleting destructor'(unsigned int)
PUBLIC 2980c 0 GenericTypeLibOLE::Add(GEN_DTINFO*, unsigned short*)
PUBLIC 2990c 0 GenericTypeLibOLE::AddNameToCache(unsigned int, unsigned long)
PUBLIC 29970 0 GenericTypeLibOLE::AddTypeEntry(char*, unsigned short*)
PUBLIC 29bf4 0 GenericTypeLibOLE::Create(IStorage*, GenericTypeLibOLE**)
PUBLIC 29c8c 0 GenericTypeLibOLE::CreateHsz(unsigned short*, unsigned int*)
PUBLIC 29d10 0 GenericTypeLibOLE::CreateTypeInfo(unsigned short*, tagTYPEKIND, ICreateTypeInfo**)
PUBLIC 29db0 0 GenericTypeLibOLE::DeleteHsz(unsigned int)
PUBLIC 29df0 0 GenericTypeLibOLE::FindMembers(char*, unsigned long, ITypeInfo**, long*, unsigned short*)
PUBLIC 2a190 0 GenericTypeLibOLE::FindName(unsigned short*, unsigned long, ITypeInfo**, long*, unsigned short*)
PUBLIC 2a324 0 BLK_DESC::Free(void)
PUBLIC 2a380 0 GenericTypeLibOLE::GetBinddescOfSzName(char*, GENPROJ_BIND_DESC*)
PUBLIC 2a43c 0 GenericTypeLibOLE::GetCompressedTypeId(ITypeInfo*, unsigned short**)
PUBLIC 2a640 0 GenericTypeLibOLE::GetDocumentation(int, unsigned short**, unsigned short**, unsigned long*, unsigned short**)
PUBLIC 2a988 0 GenericTypeLibOLE::GetDstrMgr(DOCSTR_MGR**)
PUBLIC 2aa54 0 GenericTypeLibOLE::GetGdtiOfItyp(unsigned int, GEN_DTINFO**)
PUBLIC 2aa90 0 GenericTypeLibOLE::GetLibAttr(tagTLIBATTR**)
PUBLIC 2ab34 0 GenericTypeLibOLE::GetNamMgr(NAMMGR**)
PUBLIC 2ac28 0 GenericTypeLibOLE::GetSampleHashVal(void)
PUBLIC 2ac68 0 GenericTypeLibOLE::GetStorage(unsigned long, IStorage**)
PUBLIC 2ae34 0 GenericTypeLibOLE::GetTypeBind(void)
PUBLIC 2af30 0 GenericTypeLibOLE::GetTypeComp(ITypeComp**)
PUBLIC 2afc0 0 GenericTypeLibOLE::GetTypeInfo(unsigned int, ITypeInfo**)
PUBLIC 2b110 0 GenericTypeLibOLE::GetTypeInfoOfGuid(_GUID const&, ITypeInfo**)
PUBLIC 2b180 0 GenericTypeLibOLE::GetTypeInfoType(unsigned int, tagTYPEKIND*)
PUBLIC 2b1c0 0 GenericTypeLibOLE::Init(void)
PUBLIC 2b2d8 0 InterlockedRestoreRefCnt(unsigned long*, unsigned long*)
PUBLIC 2b308 0 GenericTypeLibOLE::InvalidateNameCache(unsigned int)
PUBLIC 2b338 0 GEN_DTINFO::IsDualDispinterface(void)
PUBLIC 2b360 0 GenericTypeLibOLE::IsName(unsigned short*, unsigned long, int*)
PUBLIC 2b474 0 GenericTypeLibOLE::IsNameInCache(unsigned int, unsigned long) const
PUBLIC 2b4b8 0 GenericTypeLibOLE::IsValidNameCache(unsigned int) const
PUBLIC 2b4e8 0 GenericTypeLibOLE::LoadNameCache(void)
PUBLIC 2b5e8 0 GenericTypeLibOLE::MakeLocalTypeId(unsigned int*)
PUBLIC 2b63c 0 GenericTypeLibOLE::OpenTypeStream(unsigned int, STREAM_OPEN_MODE, STREAM**)
PUBLIC 2b7d4 0 GenericTypeLibOLE::QHteRef(unsigned short)
PUBLIC 2b8b8 0 GenericTypeLibOLE::QszLibIdOrFile(void)
PUBLIC 2b8e0 0 GenericTypeLibOLE::QueryInterface(_GUID const&, void**)
PUBLIC 2b9b8 0 GenericTypeLibOLE::Read(STREAM*)
PUBLIC 2be5c 0 GenericTypeLibOLE::Read(void)
PUBLIC 2bee8 0 GenericTypeLibOLE::ReadNameCacheArray(void)
PUBLIC 2bff4 0 GenericTypeLibOLE::ReadString(STREAM*, unsigned int*)
PUBLIC 2c148 0 RegDeleteEntireKey(HKEY__*, unsigned short const*)
PUBLIC 2c280 0 GenericTypeLibOLE::Release(void)
PUBLIC 2c330 0 GenericTypeLibOLE::ReleaseTLibAttr(tagTLIBATTR*)
PUBLIC 2c34c 0 GenericTypeLibOLE::ResetHsz(unsigned short*, unsigned int*)
PUBLIC 2c3a0 0 GenericTypeLibOLE::SaveAllChanges(IStorage*)
PUBLIC 2c3b0 0 GenericTypeLibOLE::SaveAllChanges(void)
PUBLIC 2c590 0 GenericTypeLibOLE::SaveOrCopyChanges(IStorage*, int)
PUBLIC 2c6f4 0 GenericTypeLibOLE::SetDirectory(unsigned short*, int)
PUBLIC 2c770 0 GenericTypeLibOLE::SetDocString(unsigned short*)
PUBLIC 2c7a0 0 GenericTypeLibOLE::SetHelpFileName(unsigned short*)
PUBLIC 2c890 0 GenericTypeLibOLE::SetLcid(unsigned long)
PUBLIC 2c920 0 GenericTypeLibOLE::SetLibFlags(unsigned int)
PUBLIC 2c948 0 GenericTypeLibOLE::SetLibId(unsigned short*)
PUBLIC 2c970 0 GenericTypeLibOLE::SetModified(int)
PUBLIC 2c990 0 GenericTypeLibOLE::SetName(unsigned short*)
PUBLIC 2ca2c 0 GenericTypeLibOLE::SetTypeDocString(unsigned int, unsigned short*)
PUBLIC 2caac 0 GenericTypeLibOLE::TypeInfoFromCompressedTypeId(unsigned short*, ITypeInfo**)
PUBLIC 2cbe4 0 GenericTypeLibOLE::UnAddTypeEntry(unsigned int)
PUBLIC 2cc6c 0 GenericTypeLibOLE::UpdateTypeId(unsigned int)
PUBLIC 2cd60 0 GenericTypeLibOLE::Write(STREAM*)
PUBLIC 2d36c 0 GenericTypeLibOLE::WriteString(STREAM*, unsigned int)
PUBLIC 2d4c4 0 GenericTypeLibOLE::WriteTypeId(STREAM*, ITypeInfo*)
PUBLIC 2d580 0 CreateTypeLib
PUBLIC 2d630 0 FilterReferencedTypeInfos
PUBLIC 2da5c 0 GetRegGuidsFromTypeLib
PUBLIC 2dc94 0 LoadTypeLib1LockBytes
PUBLIC 2ddb0 0 UnRegisterTypeLib
PUBLIC 2de40 0 UnRegisterTypeLibForUser
PUBLIC 2dee8 0 UnRegisterTypeLib_Impl
PUBLIC 2e474 0 wil::verify_hresult<long>(long)
PUBLIC 2e480 0 wil::unique_any_t<wil::details::unique_storage<wil::details::resource_policy<HKEY__*, long (*)(HKEY__*), long (RegCloseKey::*)(HKEY__*), wistd::integral_constant<uint64_t, 0>, HKEY__*, 0, std::nullptr_t> > >::unique_any_t<wil::details::unique_storage<wil::details::resource_policy<HKEY__*, long (*)(HKEY__*), long (RegCloseKey::*)(HKEY__*), wistd::integral_constant<uint64_t, 0>, HKEY__*, 0, std::nullptr_t> > >(void)
PUBLIC 2e490 0 wil::unique_any_t<wil::details::unique_storage<wil::details::resource_policy<HKEY__*, long (*)(HKEY__*), long (RegCloseKey::*)(HKEY__*), wistd::integral_constant<uint64_t, 0>, HKEY__*, 0, std::nullptr_t> > >::~unique_any_t<wil::details::unique_storage<wil::details::resource_policy<HKEY__*, long (*)(HKEY__*), long (RegCloseKey::*)(HKEY__*), wistd::integral_constant<uint64_t, 0>, HKEY__*, 0, std::nullptr_t> > >(void)
PUBLIC 2e4b0 0 wil::unique_any_t<wil::details::unique_storage<wil::details::resource_policy<HKEY__*, long (*)(HKEY__*), long (RegCloseKey::*)(HKEY__*), wistd::integral_constant<uint64_t, 0>, HKEY__*, 0, std::nullptr_t> > >::operator&(void)
PUBLIC 2e500 0 ConvertPathToUNC(unsigned short const*, unsigned short**)
PUBLIC 2e7c0 0 wil::details::DebugBreak(void)
PUBLIC 2e7d0 0 ErrOpenFile(unsigned short const*, int*, unsigned short*)
PUBLIC 2e8e8 0 FFileExists(unsigned short const*)
PUBLIC 2e974 0 FastRegCreateKey(HKEY__*, unsigned short const*, HKEY__**, unsigned long)
PUBLIC 2e9ec 0 FastRegCreateSubKey(HKEY__*, unsigned short*, unsigned short*, int, unsigned long)
PUBLIC 2ea60 0 FastRegSetValueEx(HKEY__*, unsigned short const*, unsigned long, unsigned short const*, unsigned long)
PUBLIC 2eb2c 0 FindTypeLibUnqual(unsigned short const*, LoadInfo*)
PUBLIC 2ec5c 0 wil::details::FreeProcessHeap(void*)
PUBLIC 2ec88 0 wil::GetFailureLogString(unsigned short*, uint64_t, wil::FailureInfo const&)
PUBLIC 2eef0 0 GetRsrcIdList(int, unsigned long, unsigned long*, unsigned long*)
PUBLIC 2f000 0 GetTypeLibResIdList(unsigned short const*, unsigned long*, unsigned long*)
PUBLIC 2f1c8 0 HrCurPos(int, unsigned long*)
PUBLIC 2f1fc 0 wil::details::LogStringPrintf(unsigned short*, unsigned short const*, unsigned short const*, ...)
PUBLIC 2f280 0 wil::details::RecordException(long)
PUBLIC 2f29c 0 wil::details::RecordLog(long)
FUNC 2f2b8 ae 0 RegisterInterface
FUNC 2f36c 10c 0 RegisterInterfaceWorker
FUNC 2f480 30 0 RegisterPathAndAlias
FUNC 2f4b8 6b 0 SkipVolumeName
FUNC 2f52c 67 0 StripDirsFromEnd
PUBLIC 2f59c 0 UninitLoadInfo(LoadInfo*)
PUBLIC 2f5d0 0 wil::details::WilDynamicLoadRaiseFailFastException(_EXCEPTION_RECORD*, _CONTEXT*, unsigned long)
PUBLIC 2f630 0 wil::details::WilFailFast(wil::FailureInfo const&)
PUBLIC 2f6cc 0 wil::details::WilRaiseFailFastException(_EXCEPTION_RECORD*, _CONTEXT*, unsigned long)
PUBLIC 2f6f8 0 wil::details::in1diag3::_FailFastImmediate_Unexpected(void)
PUBLIC 2f710 0 GetHelpDir
PUBLIC 2f9a0 0 GetPathEnd
PUBLIC 2fa24 0 IsolateFilename
PUBLIC 2fa4c 0 LoadRegTypeLibOfSzGuidLookup_WithSyskind
PUBLIC 2fb04 0 MakeAbsolutePath
PUBLIC 2fc40 0 QueryPathOfRegTypeLib
PUBLIC 2fd40 0 RegisterTypeLib
PUBLIC 2fdf0 0 RegisterTypeLibForUser
PUBLIC 2fe74 0 RegisterTypeLib_Impl
PUBLIC 30678 0 ClearTypeDesc(tagTYPEDESC*)
PUBLIC 306b8 0 CompareHimptypes(TYPE_DATA* const, unsigned int, TYPE_DATA* const, unsigned int, int*)
PUBLIC 30754 0 FreeFuncDesc(tagFUNCDESC*)
PUBLIC 307c0 0 FreeVarDesc(tagVARDESC*)
PUBLIC 30804 0 GetLibIdKind(unsigned short*)
PUBLIC 30840 0 GetLibIdOfRegLib(unsigned short const*, unsigned short, unsigned short, unsigned long, unsigned short const*, unsigned short const*, unsigned short**)
PUBLIC 30a50 0 GetRegLibOfLibId(unsigned short*, ITypeLib**)
PUBLIC 30b14 0 GetTimeStamp(unsigned short*)
PUBLIC 30b5c 0 GetTypeInfoOfTypeId(unsigned short*, ITypeInfo**)
PUBLIC 30c38 0 IsSimpleType(TYPEDESCKIND)
PUBLIC 30c74 0 IsUnqualifiable(GEN_DTINFO*)
PUBLIC 30ca4 0 QuickSortIndex(unsigned long*, unsigned int*, unsigned int)
PUBLIC 30dc8 0 SplitGuidLibId(unsigned short*, unsigned short**, unsigned short**, unsigned short*, unsigned short*, unsigned long*, unsigned short**, unsigned short**)
PUBLIC 30edc 0 SwapElementIndex(unsigned long*, unsigned int*, unsigned int, unsigned int)
PUBLIC 30f10 0 GetLibIdOfTypeLib
PUBLIC 310b0 0 GetVarConversionLocaleSetting
PUBLIC 310e0 0 OaEnablePerUserTLibRegistration
PUBLIC 31100 0 SetOaNoCache
PUBLIC 31120 0 SetVarConversionLocaleSetting
PUBLIC 311b4 0 GetInsensitiveCompTbl(unsigned long, tagSYSKIND, char*)
PUBLIC 31368 0 LHashValOfDBCSName(tagSYSKIND, unsigned long, char const*)
PUBLIC 31580 0 OaBuildVersion
PUBLIC 315bc 0 GTLibStream::~GTLibStream(void)
PUBLIC 31650 0 GTLibStorage::Commit(unsigned long)
PUBLIC 31828 0 GTLibStorage::Create(ILockBytes*, unsigned int, IStorage**)
PUBLIC 31958 0 GTLibStream::Create(ILockBytes*, unsigned long, GTLibStorage*, IStream**)
PUBLIC 31a30 0 GTLibStorage::CreateStream(unsigned short const*, unsigned long, unsigned long, unsigned long, IStream**)
PUBLIC 31b44 0 GTLibStorage::LookupStream(char const*)
PUBLIC 31bcc 0 GTLibStream::Open(ILockBytes*, unsigned long, unsigned long, IStream**)
PUBLIC 31c70 0 GTLibStorage::OpenForReadOnly(ILockBytes*, IStorage**)
PUBLIC 31f30 0 GTLibStorage::OpenStream(unsigned short const*, void*, unsigned long, unsigned long, IStream**)
PUBLIC 32000 0 GTLibStorage::QueryInterface(_GUID const&, void**)
PUBLIC 32060 0 GTLibStream::QueryInterface(_GUID const&, void**)
PUBLIC 320a0 0 GTLibStream::Read(void*, unsigned long, unsigned long*)
PUBLIC 32100 0 GTLibStorage::Release(void)
PUBLIC 32160 0 GTLibStream::Release(void)
PUBLIC 321a0 0 GTLibStream::Seek(_LARGE_INTEGER, unsigned long, _ULARGE_INTEGER*)
PUBLIC 321fc 0 GTLibStorage::SortStreamInfo(StreamInfo*, unsigned int)
PUBLIC 32350 0 GTLibStorage::SwapStreamInfos(StreamInfo*, StreamInfo*)
PUBLIC 323e0 0 GTLibStream::Write(void const*, unsigned long, unsigned long*)
PUBLIC 32434 0 MemZalloc
PUBLIC 32470 0 SHEAP_MGR::Create(SHEAP_MGR**, unsigned int)
PUBLIC 324ac 0 BLK_DESC::Init(SHEAP_MGR*, unsigned int)
PUBLIC 32530 0 BLK_DESC::Read(STREAM*)
PUBLIC 3259c 0 BLK_DESC::Realloc(unsigned long)
PUBLIC 32608 0 BLK_DESC::Write(STREAM*)
FUNC 32670 118 0 IsDispatchType
PUBLIC 32790 0 OpenFileLockBytes(int, unsigned short*, ILockBytes**)
PUBLIC m 328b0 0 FileLockBytes::QueryInterface(_GUID const&, void**)
PUBLIC 328f0 0 FileLockBytes::ReadAt(_ULARGE_INTEGER, void*, unsigned long, unsigned long*)
PUBLIC 32990 0 FileLockBytes::Release(void)
PUBLIC 329e0 0 FileLockBytes::WriteAt(_ULARGE_INTEGER, void const*, unsigned long, unsigned long*)
PUBLIC 32a70 0 ValidateMemid
PUBLIC 32acc 0 VerifyLcid
PUBLIC 32b48 0 NAMMGR::AddEntry(unsigned int)
PUBLIC 32bec 0 NAMMGR::BstrOfHlnam(unsigned int, char**) const
PUBLIC 32c38 0 NAMMGR::BstrWOfHlnam(unsigned int, unsigned short**) const
PUBLIC 32cec 0 NAMMGR::FindTextNam(char const*, unsigned int, int, int*, int)
PUBLIC 32e64 0 NAMMGR::GenerateSortKey(void)
PUBLIC 32ee4 0 NAMMGR::GetHgnamOfStrLhash(char*, unsigned long, unsigned long*)
PUBLIC 32f94 0 NAMMGR::HashOfHlnam(unsigned int)
PUBLIC 32fc8 0 NAMMGR::HgnamOfHlnam(unsigned int, unsigned long*)
PUBLIC 32ffc 0 NAMMGR::HgnamOfStr(char*, unsigned long*)
PUBLIC 33050 0 NAMMGR::HlnamOfStr(char const*, unsigned int*, int, int*, int, int)
PUBLIC 33194 0 NAMMGR::HlnamOfStrIfExist(char const*)
PUBLIC 331ec 0 NAMMGR::HlnamOfStrW(unsigned short const*, unsigned int*, int, int*, int, int)
PUBLIC 3324c 0 NAMMGR::Init(SHEAP_MGR*, DYN_TYPEROOT*)
PUBLIC 332f0 0 NAMMGR::IsName(char*, unsigned long, int*)
PUBLIC 33398 0 NAMMGR::Read(STREAM*)
PUBLIC 333f4 0 NAMMGR::StrOfHlnam(unsigned int, char*, unsigned int) const
PUBLIC 33444 0 NAMMGR::StriEq(char const*, char const*)
PUBLIC 33524 0 NAMMGR::Write(STREAM*)
PUBLIC 33584 0 BLK_MGR::AddChunkToFreeList(unsigned int, unsigned int)
PUBLIC 336a4 0 BLK_MGR::AllocChunk2(unsigned int*, unsigned int, unsigned int)
PUBLIC 33770 0 BLK_MGR::CbSizeChunkTrue(unsigned int) const
PUBLIC 3379c 0 BLK_MGR::CreateStandalone(BLK_MGR**, int)
PUBLIC 33840 0 BLK_MGR::Free(void)
PUBLIC 33870 0 BLK_MGR::FreeChunk(unsigned int, unsigned int)
PUBLIC 33894 0 BLK_MGR::HfreechunkOfCbSize(unsigned int)
PUBLIC 33938 0 BLK_MGR::Init(SHEAP_MGR*, int, int)
PUBLIC 339a8 0 BLK_MGR::Read(STREAM*)
PUBLIC 33a28 0 BLK_MGR::Trim(unsigned int*)
PUBLIC 33b04 0 BLK_MGR::Write(STREAM*)
PUBLIC 33ba4 0 GENPROJ_TYPEBIND::~GENPROJ_TYPEBIND(void)
PUBLIC m 33c30 0 GENPROJ_TYPEBIND::`scalar deleting destructor'(unsigned int)
PUBLIC 33c6c 0 GENPROJ_TYPEBIND::AddNameToTable(char*, unsigned int, int)
PUBLIC 33d20 0 GENPROJ_TYPEBIND::BindDefnProjLevelStr(char*, unsigned int, ACCESS, ACCESS, EXBIND*)
PUBLIC 33de0 0 GENPROJ_TYPEBIND::BindDefnStr(char*, unsigned int, ACCESS, EXBIND*)
PUBLIC 33e88 0 GENPROJ_TYPEBIND::BindItyp(unsigned int, int, unsigned long, unsigned int, ACCESS, ACCESS, COMPSTATE, EXBIND*)
PUBLIC 34080 0 GENPROJ_TYPEBIND::BindModulesWithCaches(int, unsigned long, unsigned int, ACCESS, ACCESS, COMPSTATE, EXBIND*)
PUBLIC 34288 0 GENPROJ_TYPEBIND::BindModulesWithNammgr(int, unsigned long, unsigned int, ACCESS, ACCESS, COMPSTATE, EXBIND*)
PUBLIC 343c4 0 GENPROJ_TYPEBIND::BindProjLevel(int, unsigned long, unsigned int, ACCESS, ACCESS, COMPSTATE, EXBIND*)
PUBLIC 34720 0 GENPROJ_TYPEBIND::BindTypeDefnProjLevelStr(char*, unsigned int, ACCESS, ACCESS, EXBIND*)
PUBLIC 347e0 0 GENPROJ_TYPEBIND::BindTypeDefnStr(char*, unsigned int, ACCESS, EXBIND*)
PUBLIC 3486c 0 GENPROJ_TYPEBIND::Init(SHEAP_MGR*)
PUBLIC 348c0 0 GENPROJ_TYPEBIND::QueryProtocol(unsigned short const*)
PUBLIC 3490c 0 GENPROJ_TYPEBIND::Read(STREAM*)
PUBLIC 34970 0 GENPROJ_TYPEBIND::Release(void)
PUBLIC 34984 0 GENPROJ_TYPEBIND::RemoveNameFromTable(unsigned short*)
PUBLIC 34a10 0 GENPROJ_TYPEBIND::Write(STREAM*)
PUBLIC 34a78 0 DOCSTR_MGR::~DOCSTR_MGR(void)
PUBLIC 34bdc 0 DOCSTR_MGR::AddNewWord(char*, WORD_ENTRY**)
PUBLIC 34cbc 0 DOCSTR_MGR::AddWord(char*, WORD_ENTRY**)
PUBLIC 34d50 0 DOCSTR_MGR::BuildCmptHuffmanTree(HUFFMAN_TREE_MEM*)
PUBLIC 34e20 0 DOCSTR_MGR::BuildHuffmanTree(WORD_ENTRY**, long*, unsigned int*)
PUBLIC 34ff8 0 DOCSTR_MGR::CreateSubTree(HUFFMAN_TREE_MEM*, HUFFMAN_TREE_MEM*, HUFFMAN_TREE_MEM**)
PUBLIC 3509c 0 DOCSTR_MGR::GetDecodedDocStrOfHst(unsigned char*, unsigned short**)
PUBLIC 35254 0 DOCSTR_MGR::GetEncodedDocStrOfHst(unsigned int, char**, unsigned int*)
PUBLIC 3532c 0 DOCSTR_MGR::GetHstOfHelpString(char const*, unsigned int*)
PUBLIC 35504 0 DOCSTR_MGR::GetNthBit(unsigned int, unsigned char*)
PUBLIC 35580 0 DOCSTR_MGR::GetWord(void*, unsigned char*, unsigned int*, char*, int)
PUBLIC 35610 0 DOCSTR_MGR::Init(void)
PUBLIC 356b0 0 DOCSTR_MGR::ParseString(char const*, char***, unsigned int*)
PUBLIC 3580c 0 DOCSTR_MGR::ProcessDocStrings(void)
PUBLIC 35a7c 0 DOCSTR_MGR::Read(STREAM*)
PUBLIC 35bdc 0 DOCSTR_MGR::ReleaseHuffmanTree(HUFFMAN_TREE_MEM*)
PUBLIC 35c80 0 DOCSTR_MGR::SetNthBit(unsigned int, unsigned char*, _HCODE)
PUBLIC 35d2c 0 DOCSTR_MGR::TraverseHuffmanTree(HUFFMAN_TREE_MEM*, unsigned char*, unsigned int)
PUBLIC 35dec 0 DOCSTR_MGR::Write(STREAM*)
PUBLIC 35ec0 0 OLE_TYPEMGR::GetPathOfLoadedTypelib(ITypeLib*, int)
PUBLIC 35f60 0 OLE_TYPEMGR::RefLibAttrOfLoadedTypeLib(ITypeLib*)
PUBLIC 35fa0 0 OLE_TYPEMGR::SetGuidOfLoadedTypelib(ITypeLib*, _GUID const&)
PUBLIC 36000 0 OLE_TYPEMGR::SetLcidOfLoadedTypelib(ITypeLib*, unsigned long)
PUBLIC 3605c 0 DOCFILE_STREAM::FlushBuffer(void)
PUBLIC 360e0 0 DOCFILE_STREAM::GetPos(long*)
PUBLIC 36144 0 DOCFILE_STREAM::Open(IStorage**, IStorage**, int, unsigned short*, STREAM_OPEN_MODE, STREAM**)
PUBLIC 362a0 0 DOCFILE_STREAM::Open(IStorage**, IStorage**, GenericTypeLibOLE*, unsigned int, int, unsigned short*, STREAM_OPEN_MODE, STREAM**)
PUBLIC 36310 0 DOCFILE_STREAM::Read(void*, unsigned long)
PUBLIC 36400 0 DOCFILE_STREAM::Release(void)
PUBLIC 364e0 0 DOCFILE_STREAM::SetPos(long)
PUBLIC 36560 0 DOCFILE_STREAM::Write(void const*, unsigned long)
PUBLIC 365ec 0 DYN_TYPEROOT::~DYN_TYPEROOT(void)
PUBLIC 366f4 0 GEN_DTINFO::~GEN_DTINFO(void)
PUBLIC 36744 0 DYN_TYPEROOT::`scalar deleting destructor'(unsigned int)
PUBLIC m 36770 0 GEN_DTINFO::`scalar deleting destructor'(unsigned int)
PUBLIC m 367b0 0 STL_TYPEINFO::`scalar deleting destructor'(unsigned int)
PUBLIC 367f0 0 GEN_DTINFO::AddFuncDesc(unsigned int, tagFUNCDESC*)
PUBLIC 368b0 0 GEN_DTINFO::AddImplType(unsigned int, unsigned long)
PUBLIC 36a60 0 GEN_DTINFO::AddRefTypeInfo(ITypeInfo*, unsigned long*)
PUBLIC 36ca0 0 GEN_DTINFO::AddVarDesc(unsigned int, tagVARDESC*)
PUBLIC 36d70 0 GEN_DTINFO::AddressOfMember(long, tagINVOKEKIND, void**)
PUBLIC 36eb0 0 ENTRYMGR::AllocDllentrydefnByName(unsigned int, char*, unsigned int*)
PUBLIC 36f44 0 GEN_DTINFO::Create(GEN_DTINFO**, tagTYPEKIND, int, ACCESS, tagSYSKIND)
PUBLIC 370e0 0 GEN_DTINFO::CreateInstance(IUnknown*, _GUID const&, void**)
PUBLIC 37200 0 GEN_DTINFO::DefineFuncAsDllEntry(unsigned int, unsigned short*, unsigned short*)
PUBLIC 37364 0 DYN_TYPEROOT::EnsureInDeclaredState(void)
PUBLIC 373e0 0 DYN_TYPEROOT::EnsureInSemiDeclaredState(void)
PUBLIC 37440 0 DYN_TYPEROOT::EnsurePartsRead(void)
PUBLIC 374c0 0 GEN_DTINFO::EnsurePartsRead(void)
PUBLIC 374d0 0 GEN_DTINFO::GetDefnTypeBind(DEFN_TYPEBIND**)
PUBLIC 37540 0 GEN_DTINFO::GetDllEntry(long, tagINVOKEKIND, unsigned short**, unsigned short**, unsigned short*)
PUBLIC 377c0 0 GEN_DTINFO::GetDocumentation(long, unsigned short**, unsigned short**, unsigned long*, unsigned short**)
PUBLIC 37980 0 DYN_TYPEROOT::GetDtmbrs(DYN_TYPEMEMBERS**)
PUBLIC 37ad0 0 GEN_DTINFO::GetDynTypeMembers(DYN_TYPEMEMBERS**)
PUBLIC 37b08 0 DYN_TYPEROOT::GetEntMgr(ENTRYMGR**)
PUBLIC 37d20 0 GEN_DTINFO::GetFuncDesc(unsigned int, tagFUNCDESC**)
PUBLIC 37f00 0 DYN_TYPEROOT::GetImpMgr(IMPMGR**)
PUBLIC 380c0 0 GEN_DTINFO::GetImplTypeFlags(unsigned int, int*)
PUBLIC m 38170 0 CTypeInfo2::GetMops(long, unsigned short**)
PUBLIC 38190 0 GEN_DTINFO::GetNames(long, unsigned short**, unsigned int, unsigned int*)
PUBLIC 383e0 0 GEN_DTINFO::GetNextDepTypeInfo(DYNTYPEINFO**)
PUBLIC 38470 0 GEN_DTINFO::GetRefTypeInfo(unsigned long, ITypeInfo**)
PUBLIC 386f0 0 GEN_DTINFO::GetRefTypeOfImplType(unsigned int, unsigned long*)
PUBLIC 387f0 0 GEN_DTINFO::GetTypeAttr(tagTYPEATTR**)
PUBLIC 38b20 0 GEN_DTINFO::GetTypeComp(ITypeComp**)
PUBLIC 38bbc 0 GetTypeInfoOfImplType(GEN_DTINFO*, unsigned int, ITypeInfo**)
PUBLIC 38d10 0 GEN_DTINFO::GetVarDesc(unsigned int, tagVARDESC**)
PUBLIC 38da4 0 FUNC_DEFN::Hdllentrydefn(void) const
PUBLIC 38dc8 0 DYN_TYPEROOT::Init(GEN_DTINFO*, unsigned int, unsigned int, int, ACCESS, tagTYPEKIND, tagSYSKIND)
PUBLIC 38edc 0 InterfaceFuncdescToDispatch(tagFUNCDESC*)
PUBLIC 38f9c 0 IsFunkyDispinterface(GEN_DTINFO*, int*)
PUBLIC 38ff4 0 DYN_TYPEROOT::IsIdMungable(unsigned long, unsigned short*)
PUBLIC 39104 0 IsInterfaceSupported(ITypeInfo*, int*)
PUBLIC 391c0 0 GEN_DTINFO::IsReady(void)
PUBLIC 391e0 0 GEN_DTINFO::IterationNotInProgress(void)
PUBLIC 391f0 0 GEN_DTINFO::LayOut(void)
PUBLIC 39458 0 GEN_DTINFO::MakeDual(void)
PUBLIC 39608 0 DYN_TYPEROOT::MakeHimptypeLevels(void)
PUBLIC 39734 0 DYN_TYPEROOT::PdfntbindSemiDeclared(DEFN_TYPEBIND**)
PUBLIC 39788 0 TYPE_DATA::QtdefnResultOfHfdefn(unsigned int, unsigned int) const
PUBLIC 397c0 0 GEN_DTINFO::QueryInterface(_GUID const&, void**)
PUBLIC 39840 0 DYN_TYPEROOT::Read(void)
PUBLIC 39950 0 GEN_DTINFO::Read(void)
PUBLIC 39960 0 DYN_TYPEROOT::ReadFixed(STREAM*)
PUBLIC 39a30 0 GEN_DTINFO::ReleaseFuncDesc(tagFUNCDESC*)
PUBLIC 39a40 0 GEN_DTINFO::ReleasePublicResources(void)
PUBLIC 39a80 0 GEN_DTINFO::ReleaseTypeAttr(tagTYPEATTR*)
PUBLIC 39ad0 0 GEN_DTINFO::ReleaseVarDesc(tagVARDESC*)
PUBLIC 39ae0 0 GEN_DTINFO::RemoveInternalRefs(void)
PUBLIC 39b10 0 GEN_DTINFO::SetDocString(unsigned short*)
PUBLIC 39b50 0 GEN_DTINFO::SetFuncAndParamNames(unsigned int, unsigned short**, unsigned int)
PUBLIC 39bf0 0 GEN_DTINFO::SetFuncDocString(unsigned int, unsigned short*)
PUBLIC 39ca0 0 GEN_DTINFO::SetFuncHelpContext(unsigned int, unsigned long)
PUBLIC 39d10 0 GEN_DTINFO::SetGuid(_GUID const&)
PUBLIC 39d50 0 GEN_DTINFO::SetHelpContext(unsigned long)
PUBLIC 39d90 0 GEN_DTINFO::SetImplTypeFlags(unsigned int, int)
PUBLIC 39e10 0 GEN_DTINFO::SetTypeDescAlias(tagTYPEDESC*)
PUBLIC 39e90 0 GEN_DTINFO::SetTypeFlags(unsigned int)
PUBLIC 3a080 0 GEN_DTINFO::SetVarDocString(unsigned int, unsigned short*)
PUBLIC 3a110 0 GEN_DTINFO::SetVarHelpContext(unsigned int, unsigned long)
PUBLIC 3a180 0 GEN_DTINFO::SetVarName(unsigned int, unsigned short*)
PUBLIC 3a210 0 GEN_DTINFO::SetVersion(unsigned short, unsigned short)
PUBLIC 3a270 0 DYN_TYPEROOT::Write(void)
PUBLIC 3a330 0 GEN_DTINFO::Write(void)
PUBLIC 3a340 0 DYN_TYPEROOT::WriteFixed(STREAM*)
PUBLIC 3a430 0 DYN_TYPEROOT::WriteParts(STREAM*)
PUBLIC 3a540 0 DYN_TYPEROOT::WriteToStream(STREAM*)
PUBLIC 3a610 0 GEN_DTINFO::WriteToStream(STREAM*)
PUBLIC 3a620 0 ConvertBstrAlloc(unsigned long, unsigned short**)
PUBLIC 3a650 0 ConvertBstrToA(unsigned short*, char**)
PUBLIC 3a6f8 0 ConvertBstrToAInPlace(char**)
PUBLIC 3a744 0 ConvertBstrToWInPlace(unsigned short**)
PUBLIC 3a7d4 0 ConvertStringAlloc(unsigned long, void**)
PUBLIC 3a82c 0 ConvertStringFree(char*)
PUBLIC 3a86c 0 ConvertStringToA(unsigned short const*, char**)
PUBLIC 3a928 0 ConvertStringToW(char const*, unsigned short**)
PUBLIC 3a9c4 0 StringFromGUID2A
PUBLIC 3aa50 0 STL_TYPEINFO::AddRef(void)
PUBLIC 3aa90 0 STL_TYPEINFO::GetContainingTypeLib(ITypeLib**, unsigned int*)
PUBLIC 3aad0 0 STL_TYPEINFO::QueryInterface(_GUID const&, void**)
PUBLIC 3ab70 0 STL_TYPEINFO::RelInternalRef(void)
PUBLIC 3ac00 0 STL_TYPEINFO::Release(void)
PUBLIC 3aca4 0 STL_TYPEINFO::ReleasePartner(void)
PUBLIC 3accc 0 STL_TYPEINFO::SetContainingTypeLib(GenericTypeLibOLE*)
PUBLIC 3ad30 0 STL_TYPEINFO::SetModified(int)
PUBLIC m 3ad90 0 CDefnTypeComp::`scalar deleting destructor'(unsigned int)
PUBLIC 3ade0 0 CDefnTypeComp::Bind(unsigned short*, unsigned long, unsigned short, ITypeInfo**, tagDESCKIND*, tagBINDPTR*)
PUBLIC 3b130 0 CDefnTypeComp::BindType(unsigned short*, unsigned long, ITypeInfo**, ITypeComp**)
PUBLIC 3b328 0 CDefnTypeComp::Create(CDefnTypeComp**, DEFN_TYPEBIND*)
PUBLIC 3b3a0 0 CDefnTypeComp::QueryInterface(_GUID const&, void**)
PUBLIC 3b4e0 0 CDefnTypeComp::Release(void)
PUBLIC 3b530 0 GENPROJ_BINDNAME_TABLE::AddNameToTable(unsigned int, unsigned int, int, int)
PUBLIC 3b5f0 0 GENPROJ_BINDNAME_TABLE::AddQgpbinddesc(GENPROJ_BIND_DESC*)
PUBLIC 3b69c 0 GENPROJ_BINDNAME_TABLE::AllocCaches(unsigned int, unsigned int)
PUBLIC 3b744 0 GENPROJ_BINDNAME_TABLE::FreeCaches(void)
PUBLIC 3b790 0 GENPROJ_BINDNAME_TABLE::GetBucketOfHlnam(unsigned int) const
PUBLIC 3b7c8 0 GENPROJ_BIND_DESC::Hlnam(void)
PUBLIC 3b7ec 0 GENPROJ_BINDNAME_TABLE::IndexOfHlnam(unsigned int) const
PUBLIC 3b86c 0 GENPROJ_BINDNAME_TABLE::Init(SHEAP_MGR*, NAMMGR*)
PUBLIC 3b8cc 0 GENPROJ_BINDNAME_TABLE::Read(STREAM*)
PUBLIC 3b9a8 0 GENPROJ_BINDNAME_TABLE::ReleaseResources(void)
PUBLIC 3ba30 0 GENPROJ_BINDNAME_TABLE::RemoveNameFromTableOfIbucket(unsigned int)
PUBLIC 3baf0 0 GENPROJ_BINDNAME_TABLE::SetTableSize(unsigned int)
PUBLIC 3bc78 0 GENPROJ_BINDNAME_TABLE::Write(STREAM*)
PUBLIC m 3bd70 0 DYN_TYPEBIND::`vector deleting destructor'(unsigned int)
PUBLIC 3bdac 0 DEFN::Access(void)
PUBLIC 3bde0 0 DYN_TYPEBIND::AddRef(void)
PUBLIC 3bdf4 0 DYN_TYPEBIND::BindBase(int, unsigned int, unsigned int, unsigned long, unsigned int, ACCESS, EXBIND*, GenericTypeLibOLE*)
PUBLIC 3bf24 0 DYN_TYPEBIND::BindDefnCur(int, unsigned long, unsigned int, ACCESS, EXBIND*)
PUBLIC 3c180 0 DYN_TYPEBIND::BindDefnStr(char*, unsigned int, ACCESS, EXBIND*)
PUBLIC 3c22c 0 DYN_TYPEBIND::BindIdDefn(int, unsigned long, unsigned int, ACCESS, EXBIND*)
PUBLIC 3c450 0 DYN_TYPEBIND::BindTypeDefnStr(char*, unsigned int, ACCESS, EXBIND*)
PUBLIC 3c4f4 0 VAR_DEFN::GetImplTypeFlags(void) const
PUBLIC 3c520 0 DYN_TYPEBIND::GetTypeInfo(TYPEINFO**)
PUBLIC 3c54c 0 DYN_BINDNAME_TABLE::HdefnOfIndex(unsigned int) const
PUBLIC 3c578 0 DYN_BINDNAME_TABLE::IndexFirstOfHlnam(unsigned int) const
PUBLIC 3c5ac 0 DYN_BINDNAME_TABLE::IndexNextOfHlnam(unsigned int, unsigned int) const
PUBLIC 3c5e0 0 DYN_TYPEBIND::QueryProtocol(unsigned short const*)
PUBLIC 3c62c 0 DYN_TYPEBIND::Read(STREAM*)
PUBLIC 3c770 0 DYN_TYPEBIND::Release(void)
PUBLIC 3c784 0 DYN_TYPEBIND::Write(STREAM*)
PUBLIC 3c8d8 0 STREAM::ReadSz(unsigned short**)
PUBLIC 3c978 0 TYPE_DATA::AddFuncDesc(unsigned int, tagFUNCDESC*, unsigned int*)
PUBLIC 3cf80 0 TYPE_DATA::AddImplType(unsigned int, unsigned long)
PUBLIC 3d06c 0 TYPE_DATA::AddVarDesc(unsigned int, tagVARDESC*, unsigned int*)
PUBLIC 3d3a8 0 TYPE_DATA::AllocConstValOfVariant(tagVARIANT*, unsigned int)
PUBLIC 3d65c 0 TYPE_DATA::AllocTypeDefnOfTypeDesc(tagTYPEDESC*, unsigned int, unsigned short*, int, int*)
PUBLIC 3dabc 0 TYPE_DATA::AllocTypeDescOfTypeDefn(unsigned int, int, tagTYPEDESC*)
PUBLIC 3dd6c 0 FUNC_TYPE_DEFN::CArgsOpt(void) const
PUBLIC 3dd94 0 EquivTypeDefnsIgnoreByRef(TYPE_DATA*, int, unsigned short, TYPE_DATA*, int, unsigned short, unsigned short, int*, int)
PUBLIC 3df54 0 TYPE_DATA::GetDocumentation(long, unsigned short**, unsigned short**, unsigned long*, unsigned short**)
PUBLIC 3e0f4 0 TYPE_DATA::GetDynTypeBindOfHvdefn(unsigned int, DYN_TYPEBIND**, unsigned int*)
PUBLIC 3e1b4 0 TYPE_DATA::GetEncodedHelpContext(unsigned long, unsigned short*)
PUBLIC 3e254 0 TYPE_DATA::GetFuncDefnForDoc(unsigned int)
PUBLIC 3e334 0 TYPE_DATA::GetFuncDesc(unsigned int, tagFUNCDESC**)
PUBLIC 3e398 0 TYPE_DATA::GetFuncDescOfHfdefn(unsigned int, tagFUNCDESC**)
PUBLIC 3e678 0 TYPE_DATA::GetNames(long, unsigned short**, unsigned int, unsigned int*)
PUBLIC 3e878 0 TYPE_DATA::GetRefTypeOfImplType(unsigned int, unsigned long*)
PUBLIC 3e904 0 TYPE_DATA::GetTypeInfoOfHvdefn(unsigned int, ITypeInfo**, unsigned int*)
PUBLIC 3ea30 0 TYPE_DATA::GetVarDesc(unsigned int, tagVARDESC**)
PUBLIC 3ea98 0 TYPE_DATA::GetVarDescOfHvdefn(unsigned int, tagVARDESC**)
PUBLIC 3ee98 0 MBR_VAR_DEFN::HchunkConstMbrVal(void) const
PUBLIC 3eecc 0 TYPE_DATA::HchunkOfString(char*, unsigned int*)
PUBLIC 3ef28 0 TYPE_DATA::HfdefnNextOfHlnam(unsigned int, unsigned int, tagINVOKEKIND*)
PUBLIC 3ef68 0 TYPE_DATA::HfdefnOfIndex(unsigned int, unsigned int*)
PUBLIC 3ef9c 0 TYPE_DATA::HmvdefnOfIndex(unsigned int)
PUBLIC 3efbc 0 TYPE_DATA::HvdefnOfHlnam(unsigned int)
PUBLIC 3eff0 0 FUNC_DEFN::IsSub(void) const
PUBLIC 3f028 0 PbConstVal(TYPE_DATA*, VAR_DEFN*)
PUBLIC 3f074 0 TYPE_DATA::QtdefnOfHvdefn(unsigned int, unsigned int) const
PUBLIC 3f0ac 0 TYPE_DATA::SetFuncAndParamNamesOfHfdefn(unsigned int, unsigned short**, unsigned int)
PUBLIC 3f258 0 TYPE_DATA::SetFuncDocString(unsigned int, char*)
PUBLIC 3f2c0 0 TYPE_DATA::SetFuncHelpContext(unsigned int, unsigned long)
PUBLIC 3f328 0 TYPE_DATA::SetTypeDefnAlias(tagTYPEDESC*)
PUBLIC 3f380 0 TYPE_DATA::SetVarDocString(unsigned int, char*)
PUBLIC 3f3ec 0 TYPE_DATA::SetVarHelpContext(unsigned int, unsigned long)
PUBLIC 3f454 0 TYPE_DATA::SetVarName(unsigned int, char*)
PUBLIC 3f508 0 TYPE_DATA::StringOfHchunk(unsigned int, char**)
PUBLIC 3f580 0 TYPE_DATA::UHelpContextOfEncoding(unsigned short)
PUBLIC 3f5bc 0 TYPE_DATA::UpdateADocString(DOCSTR_MGR*, unsigned int, unsigned int*)
PUBLIC 3f650 0 TYPE_DATA::UpdateDocStrings(void)
PUBLIC 3f798 0 oOpenFile
PUBLIC 3f82c 0 oWNetGetConnection
PUBLIC 3f968 0 TlbGetErrorInfo
PUBLIC 3fa10 0 IMPMGR::~IMPMGR(void)
PUBLIC 3faa8 0 IMPMGR::CheckRemainingDep(DEPEND_KIND*)
PUBLIC 3fc38 0 IMPMGR::GetHimptype(ITypeInfo*, DEPEND_KIND, unsigned short*)
PUBLIC 3fd20 0 IMPMGR::GetHimptypeIfExists(ITypeInfo*)
PUBLIC 3fd58 0 IMPMGR::GetTypeInfo(unsigned int, DEPEND_KIND, ITypeInfo**)
PUBLIC 3fdb0 0 IMPMGR::HimptypeAlloc(unsigned short*)
PUBLIC 3fedc 0 IMPMGR::HimptypeNext(unsigned int) const
PUBLIC 3fefc 0 IMPMGR::Init(SHEAP_MGR*, BLK_DESC*, BLK_DESC*, DYN_TYPEROOT*)
PUBLIC 3ff8c 0 IMPMGR::NewEntry(UB_IMPTYPE**, unsigned short*)
PUBLIC 3fff0 0 IMPMGR::Read(STREAM*)
PUBLIC 40144 0 IMPMGR::RegisterDeclRefDep(ITypeInfo*)
PUBLIC 401b4 0 IMPMGR::ReleasePtinfo(unsigned int)
PUBLIC 40240 0 IMPMGR::RemoveInternalRefs(void)
PUBLIC 4029c 0 IMPMGR::SetPtinfo(unsigned int, ITypeInfo*, int)
PUBLIC 403a0 0 IMPMGR::Write(STREAM*)
PUBLIC 404c4 0 IMPMGR::WriteLayoutEntries(STREAM*, int)
PUBLIC 40560 0 DEFN_TYPEBIND::QueryProtocol(unsigned short const*)
PUBLIC 405b4 0 DYN_TYPEMEMBERS::DYN_TYPEMEMBERS(void)
PUBLIC 406c4 0 DYN_TYPEMEMBERS::~DYN_TYPEMEMBERS(void)
PUBLIC 4071c 0 PROPERTY_NODE::~PROPERTY_NODE(void)
PUBLIC 40750 0 DYN_TYPEMEMBERS::AddRef(void)
PUBLIC 40768 0 DYN_TYPEMEMBERS::AlignmentTdesckind(TYPEDESCKIND)
PUBLIC 407c8 0 DYN_TYPEMEMBERS::AllocHmembers(void)
PUBLIC 40af0 0 DYN_TYPEMEMBERS::BuildBindNameTable(void)
PUBLIC 40be4 0 DYN_TYPEMEMBERS::BuildNameCache(unsigned int)
PUBLIC 40e5c 0 DYN_TYPEMEMBERS::GenerateOverrides(void)
PUBLIC 40f20 0 DYN_TYPEMEMBERS::GetSize(void)
PUBLIC 40f38 0 DYN_TYPEMEMBERS::GetSizeAlignmentOfArray(tagTYPEKIND, unsigned int, unsigned int*, unsigned int*)
PUBLIC 410e4 0 DYN_TYPEMEMBERS::GetSizeAlignmentOfHtdefn(tagTYPEKIND, int, unsigned int, unsigned int*, unsigned int*)
PUBLIC 41264 0 DYN_TYPEMEMBERS::GetSizeAlignmentOfHtdefnNonUdt(tagTYPEKIND, int, unsigned int, unsigned int*, unsigned int*)
PUBLIC 41344 0 DYN_TYPEMEMBERS::GetSizeAlignmentOfHtdefnUdt(unsigned int, unsigned int*, unsigned int*)
PUBLIC 41414 0 DYN_TYPEMEMBERS::Init(SHEAP_MGR*, DYN_TYPEROOT*)
PUBLIC 41510 0 FUNC_DEFN::IsHresultSub(void) const
PUBLIC 41550 0 DYN_TYPEMEMBERS::Layout(void)
PUBLIC 41670 0 DYN_TYPEMEMBERS::LayoutBases(tagTYPEKIND, unsigned int*, unsigned int*)
PUBLIC 4177c 0 DYN_TYPEMEMBERS::LayoutDataMembers(tagTYPEKIND, unsigned int*, unsigned int*, unsigned int)
PUBLIC 41808 0 DYN_TYPEMEMBERS::LayoutMembers(void)
PUBLIC 4199c 0 DYN_TYPEMEMBERS::LayoutVarOfHvdefn(tagTYPEKIND, unsigned int, unsigned short*, unsigned int*, int, unsigned int, int)
PUBLIC 41b00 0 DYN_TYPEMEMBERS::MakeLaidOut(void)
PUBLIC 41b54 0 PROPERTY_NODE::PnodeOfHlnam(unsigned int)
PUBLIC 41b70 0 DYN_TYPEMEMBERS::Read(STREAM*)
PUBLIC 41bf0 0 DYN_TYPEMEMBERS::Release(void)
PUBLIC 41c08 0 DYN_TYPEMEMBERS::UpdateBinderOptimization(unsigned int, unsigned int, int)
PUBLIC 41db4 0 DYN_TYPEMEMBERS::UpdateNameCacheOfBaseClass(ITypeInfo*, unsigned int)
PUBLIC 42158 0 DYN_TYPEMEMBERS::UpdateNameCacheOfHdefnList(unsigned int, INFOKIND, unsigned int)
PUBLIC 421c8 0 VerifyProperties(DYN_TYPEROOT*, PROPERTY_NODE*)
PUBLIC 423a8 0 VerifyTwoProperties(DYN_TYPEROOT*, TYPE_DATA*, unsigned int, PROPKIND, unsigned int, PROPKIND)
PUBLIC 427b8 0 DYN_TYPEMEMBERS::Write(STREAM*)
PUBLIC 42838 0 TYPE_DATA::AllocArrayDescriptor(unsigned int, unsigned short*)
PUBLIC 428c4 0 TYPE_DATA::AllocFuncDefn(unsigned short*, unsigned int)
PUBLIC 42964 0 TYPE_DATA::AllocMbrVarDefn(unsigned short*, unsigned int)
PUBLIC 429fc 0 TYPE_DATA::AllocTypeDefn(unsigned int, TYPEDESCKIND* const, unsigned short*)
PUBLIC 42a78 0 TYPE_DATA::AllocVardefnPredeclared(void)
PUBLIC 42c48 0 TYPE_DATA::AllocVirtualFuncDefn(unsigned short*, unsigned int)
PUBLIC 42ce8 0 TYPE_DATA::AppendMbrVarDefn(unsigned int)
PUBLIC 42d64 0 TYPE_DEFN::DefnSize(void)
PUBLIC 42dc0 0 TYPE_DATA::FreeArrayDescriptor(unsigned int)
PUBLIC 42dfc 0 TYPE_DATA::FreeFuncDefn(unsigned int)
PUBLIC 42f80 0 TYPE_DATA::FreeMbrVarDefn(unsigned int)
PUBLIC 4306c 0 TYPE_DATA::FreeTypeDefn(unsigned int)
PUBLIC 430b4 0 TYPE_DATA::FreeTypeDefnResources(unsigned int)
PUBLIC 43144 0 TYPE_DATA::HdefnOfHmember(unsigned long, unsigned int*)
PUBLIC 431b4 0 TYPE_DATA::HfdefnOfHmember(unsigned long, unsigned int) const
PUBLIC 43214 0 TYPE_DATA::Init(SHEAP_MGR*, DYN_TYPEROOT*)
PUBLIC 432a8 0 TYPE_DATA::Read(STREAM*)
PUBLIC 43498 0 TYPE_DATA::ReleaseDllentrydefn(unsigned int)
PUBLIC 43530 0 TYPE_DATA::SizeofConstVal(VAR_DEFN*, unsigned int)
PUBLIC 43598 0 TYPE_DATA::Write(STREAM*)
PUBLIC 437fc 0 ENTRYMGR::AllocDllentrydefn(unsigned int*, unsigned int, int)
PUBLIC 43884 0 ENTRYMGR::DllEntryNameOfHchunk(unsigned int, char*, unsigned int)
PUBLIC 438cc 0 ENTRYMGR::GetAddressOfDllentry(unsigned int, void**)
PUBLIC 43ac4 0 ENTRYMGR::Read(STREAM*)
PUBLIC 43b7c 0 ENTRYMGR::Write(STREAM*)
PUBLIC 43c20 0 GEN_DTINFO::GetIDsOfNames(unsigned short**, unsigned int, long*)
PUBLIC 440f0 0 GEN_DTINFO::GetInvokeArgs(unsigned int, TYPE_DATA*, unsigned short, tagDISPPARAMS*, tagVARIANT**, void*, INVOKEARGS**, unsigned int*, int)
PUBLIC 44780 0 GEN_DTINFO::Invoke(void*, long, unsigned short, tagDISPPARAMS*, tagVARIANT*, tagEXCEPINFO*, unsigned int*)
PUBLIC 4510c 0 GEN_DTINFO::VariantVtOfHtdefn(unsigned int, TYPE_DATA*, int, unsigned short*, _GUID*, IRecordInfo**, unsigned short*)
PUBLIC m 45190 0 DYN_BINDNAME_TABLE::`vector deleting destructor'(unsigned int)
PUBLIC 451c4 0 DYN_BINDNAME_TABLE::AddHdefn(unsigned int)
PUBLIC 4522c 0 DYN_BINDNAME_TABLE::FindIndexOfHlnam(unsigned int, unsigned int) const
PUBLIC 45294 0 DYN_BINDNAME_TABLE::GetBucketOfHlnam(unsigned int) const
PUBLIC 452cc 0 DYN_BINDNAME_TABLE::Read(STREAM*)
PUBLIC 4533c 0 DYN_BINDNAME_TABLE::ReleaseTable(void)
PUBLIC 45374 0 DYN_BINDNAME_TABLE::SetTableSize(unsigned int)
PUBLIC 45408 0 DYN_BINDNAME_TABLE::TraverseDefnList(unsigned int)
PUBLIC 4559c 0 DYN_BINDNAME_TABLE::Write(STREAM*)
PUBLIC 4561c 0 mbschr
PUBLIC 45700 0 mbscmp
PUBLIC 457a0 0 mbsrchr
PUBLIC 4586c 0 CTypeLib2::ComputeCbFUNCDESC(tagFuncDescr*, tagSYSKIND, unsigned long*)
PUBLIC 45964 0 CTypeLib2::ComputeCbVARDESC(tagVarDescr*, tagSYSKIND, unsigned long*)
PUBLIC 459dc 0 CTypeLib2::ConstDataFromVariant(tagVARIANT*, HCONST*)
PUBLIC 45d20 0 CTypeLib2::GetItemCustomData(unsigned long, _GUID const*, tagVARIANT*, tagCUSTDATA*)
PUBLIC 45ef8 0 CTypeInfo2::GetSysSpecificSizeAlignOfTypedescr(HTYPE, unsigned long*, unsigned long*, tagSYSKIND)
PUBLIC 46138 0 CTypeLib2::ReadTypeDescrs(void)
PUBLIC 46170 0 CTypeLib2::SetItemCustomData(_GUID const&, tagVARIANT*, unsigned long*)
PUBLIC 46288 0 CTypeInfo2::TypeDescrFromTYPEDESC(tagTYPEDESC*, HTYPE*, unsigned short*)
PUBLIC 465c0 0 ClearCustData
PUBLIC 46650 0 CreateTypeLib2
PUBLIC 466e0 0 CTypeLib2::InitNew(tagSYSKIND)
PUBLIC 468fc 0 CTypeLib2::MakeWriteable(void)
PUBLIC 46b1c 0 CTypeLib2::ReadGuids(void)
PUBLIC 46b50 0 CTypeLib2::ReadInfoRefs(void)
PUBLIC 46b84 0 ElemInfoTable::Unload(void)
PUBLIC 46be4 0 CTypeLib2::WriteBytes(void*, unsigned long)
PUBLIC 46c48 0 CTypeLib2::WriteLibHeader(void)
PUBLIC 470e4 0 CTypeLib2::WriteSeek(unsigned long)
PUBLIC 47140 0 ReleaseOutParamResources(tagVARIANT*)
PUBLIC 4720c 0 HEAP::AddChunkToFreeList(unsigned long, unsigned long)
PUBLIC 47358 0 HEAP::Map64To32(CTypeLib2*, HEAP*, unsigned long*, unsigned long)
PUBLIC 47b04 0 HEAP::Realloc(unsigned long)
PUBLIC 47b48 0 HEAP::Trim(unsigned long*)
PUBLIC 47c04 0 HEAP::Trim(void)
PUBLIC 47c38 0 HEAP::UnMap64To32(CTypeLib2*, HEAP*, unsigned long*, unsigned long)
PUBLIC 481b4 0 HEAP::WriteHeader(CTypeLib2*)
PUBLIC 481e0 0 HEAP::WriteHeap(CTypeLib2*)
PUBLIC 48230 0 CTypeInfo2::AddFuncDesc(unsigned int, tagFUNCDESC*)
PUBLIC 487f0 0 CTypeInfo2::AddImplType(unsigned int, unsigned long)
PUBLIC 48ad0 0 CTypeInfo2::AddRefTypeInfo(ITypeInfo*, unsigned long*)
PUBLIC 48bf0 0 CTypeInfo2::AddVarDesc(unsigned int, tagVARDESC*)
PUBLIC 48e10 0 CTypeInfo2::AddressOfMember(long, tagINVOKEKIND, void**)
PUBLIC 48f48 0 CTypeInfo2::AddressOfModuleFunc(InfoDef*, tagFuncDescr*, void**)
PUBLIC 49250 0 CTypeInfo2::AllocVardescPredeclared(tagVARDESC**)
PUBLIC 492e0 0 CTypeInfo2::Bind(unsigned short*, unsigned long, unsigned short, ITypeInfo**, tagDESCKIND*, tagBINDPTR*)
PUBLIC 49370 0 CTypeInfo2::BindHname(unsigned short*, unsigned long, unsigned long, unsigned short, int, ITypeInfo**, tagDESCKIND*, tagBINDPTR*)
PUBLIC 496d8 0 CTypeInfo2::BindHnameBase(InfoDef*, int, unsigned short*, unsigned long, unsigned long, unsigned short, int, ITypeInfo**, tagDESCKIND*, tagBINDPTR*)
PUBLIC 49890 0 CTypeInfo2::BindType(unsigned short*, unsigned long, ITypeInfo**, ITypeComp**)
PUBLIC 498c0 0 CTypeInfo2::CreateInstance(IUnknown*, _GUID const&, void**)
PUBLIC 499f0 0 CTypeInfo2::DefineFuncAsDllEntry(unsigned int, unsigned short*, unsigned short*)
PUBLIC 49bf0 0 CTypeInfo2::DeleteFuncDesc(unsigned int)
PUBLIC 49c80 0 CTypeInfo2::DeleteFuncDescByMemId(long, tagINVOKEKIND)
PUBLIC 49d10 0 CTypeInfo2::DeleteImplType(unsigned int)
PUBLIC 49e00 0 CTypeInfo2::DeleteVarDesc(unsigned int)
PUBLIC 49e90 0 CTypeInfo2::DeleteVarDescByMemId(long)
PUBLIC 49edc 0 CTypeLib2::EnsureInfoBasesReadable(void)
PUBLIC 49ef8 0 CTypeLib2::EnsureStringsReadable(void)
PUBLIC 49f20 0 CTypeInfo2::GetAllCustData(tagCUSTDATA*)
PUBLIC 49f70 0 CTypeInfo2::GetAllFuncCustData(unsigned int, tagCUSTDATA*)
PUBLIC 49fb0 0 CTypeInfo2::GetAllImplTypeCustData(unsigned int, tagCUSTDATA*)
PUBLIC 49ff0 0 CTypeInfo2::GetAllParamCustData(unsigned int, unsigned int, tagCUSTDATA*)
PUBLIC 4a050 0 CTypeInfo2::GetAllVarCustData(unsigned int, tagCUSTDATA*)
PUBLIC 4a090 0 CTypeInfo2::GetContainingTypeLib(ITypeLib**, unsigned int*)
PUBLIC 4a0e0 0 CTypeInfo2::GetCustData(_GUID const&, tagVARIANT*)
PUBLIC 4a130 0 CTypeInfo2::GetDllEntry(long, tagINVOKEKIND, unsigned short**, unsigned short**, unsigned short*)
PUBLIC 4a310 0 CTypeInfo2::GetDocumentation2(long, unsigned long, unsigned short**, unsigned long*, unsigned short**)
PUBLIC 4a580 0 CTypeInfo2::GetFuncCustData(unsigned int, _GUID const&, tagVARIANT*)
PUBLIC 4a5c0 0 CTypeInfo2::GetFuncCustDataInternal(unsigned int, unsigned long, unsigned int, _GUID const*, tagVARIANT*, tagCUSTDATA*)
PUBLIC 4a720 0 CTypeInfo2::GetFuncIndexOfMemId(long, tagINVOKEKIND, unsigned int*)
PUBLIC 4a7e0 0 CTypeInfo2::GetImplTypeCustData(unsigned int, _GUID const&, tagVARIANT*)
PUBLIC 4a810 0 CTypeInfo2::GetImplTypeCustDataInternal(unsigned int, _GUID const*, tagVARIANT*, tagCUSTDATA*)
PUBLIC 4a8d0 0 CTypeInfo2::GetImplTypeFlags(unsigned int, int*)
PUBLIC 4a990 0 CTypeInfo2::GetParamCustData(unsigned int, unsigned int, _GUID const&, tagVARIANT*)
PUBLIC 4a9f0 0 CTypeInfo2::GetTypeComp(ITypeComp**)
PUBLIC 4aa30 0 CTypeInfo2::GetTypeFlags(unsigned long*)
PUBLIC 4aa60 0 CTypeInfo2::GetTypeKind(tagTYPEKIND*)
PUBLIC 4aa80 0 CTypeInfo2::GetVarCustData(unsigned int, _GUID const&, tagVARIANT*)
PUBLIC 4aab0 0 CTypeInfo2::GetVarCustDataInternal(unsigned int, _GUID const*, tagVARIANT*, tagCUSTDATA*)
PUBLIC 4ab70 0 CTypeInfo2::GetVarIndexOfMemId(long, unsigned int*)
PUBLIC 4abf0 0 CTypeInfo2::Invalidate(void)
PUBLIC 4ac38 0 CTypeInfo2::IsNameHname(unsigned short*, unsigned long, unsigned long, int, NameEntry**, long*)
PUBLIC 4ae20 0 CTypeInfo2::LayOut(void)
PUBLIC 4ae3c 0 ElemInfoTable::LookupFuncDescr(unsigned int, unsigned long*)
PUBLIC 4ae70 0 CTypeInfo2::SetAlignment(unsigned short)
PUBLIC 4af40 0 CTypeInfo2::SetCustData(_GUID const&, tagVARIANT*)
PUBLIC 4afe0 0 CTypeInfo2::SetDocString(unsigned short*)
PUBLIC 4b070 0 CTypeInfo2::SetFuncAndParamNames(unsigned int, unsigned short**, unsigned int)
PUBLIC 4b2b0 0 CTypeInfo2::SetFuncCustData(unsigned int, _GUID const&, tagVARIANT*)
PUBLIC 4b3e0 0 CTypeInfo2::SetFuncDocString(unsigned int, unsigned short*)
PUBLIC 4b500 0 CTypeInfo2::SetFuncHelpContext(unsigned int, unsigned long)
PUBLIC 4b610 0 CTypeInfo2::SetFuncHelpStringContext(unsigned int, unsigned long)
PUBLIC 4b720 0 CTypeInfo2::SetGuid(_GUID const&)
PUBLIC 4b830 0 CTypeInfo2::SetHelpContext(unsigned long)
PUBLIC 4b8b0 0 CTypeInfo2::SetHelpStringContext(unsigned long)
PUBLIC 4b930 0 CTypeInfo2::SetImplTypeCustData(unsigned int, _GUID const&, tagVARIANT*)
PUBLIC 4ba20 0 CTypeInfo2::SetImplTypeFlags(unsigned int, int)
PUBLIC 4baf0 0 CTypeInfo2::SetName(unsigned short*)
PUBLIC 4bc10 0 CTypeInfo2::SetParamCustData(unsigned int, unsigned int, _GUID const&, tagVARIANT*)
PUBLIC 4bd50 0 CTypeInfo2::SetTypeDescAlias(tagTYPEDESC*)
PUBLIC 4be20 0 CTypeInfo2::SetTypeFlags(unsigned int)
PUBLIC 4bf9c 0 CTypeInfo2::SetTypeInfoName(InfoDef*, unsigned long, NameEntry*)
PUBLIC 4bff0 0 CTypeInfo2::SetVarCustData(unsigned int, _GUID const&, tagVARIANT*)
PUBLIC 4c0d0 0 CTypeInfo2::SetVarDocString(unsigned int, unsigned short*)
PUBLIC 4c1c0 0 CTypeInfo2::SetVarHelpContext(unsigned int, unsigned long)
PUBLIC 4c290 0 CTypeInfo2::SetVarHelpStringContext(unsigned int, unsigned long)
PUBLIC 4c360 0 CTypeInfo2::SetVarName(unsigned int, unsigned short*)
PUBLIC 4c480 0 CTypeInfo2::SetVersion(unsigned short, unsigned short)
PUBLIC 4c50c 0 CTypeInfo2::TypeChangePrologName(tagCHANGEKIND, unsigned short*)
PUBLIC 4c540 0 CTypeInfo2::UpdateInfoDefOfName(unsigned long)
PUBLIC 4c5f0 0 CTypeLib2::Bind(unsigned short*, unsigned long, unsigned short, ITypeInfo**, tagDESCKIND*, tagBINDPTR*)
PUBLIC 4cb00 0 CTypeLib2::BindType(unsigned short*, unsigned long, ITypeInfo**, ITypeComp**)
PUBLIC 4cc00 0 CTypeLib2::CreateTypeInfo(unsigned short*, tagTYPEKIND, ICreateTypeInfo**)
PUBLIC 4ce40 0 CTypeLib2::DeleteTypeInfo(unsigned short*)
PUBLIC 4cffc 0 CTypeLib2::FindAllNamesSlowly(unsigned short*, unsigned long, unsigned long, ITypeInfo**, long*, unsigned short*)
PUBLIC 4d1f0 0 CTypeLib2::FindName(unsigned short*, unsigned long, ITypeInfo**, long*, unsigned short*)
PUBLIC 4d440 0 CTypeLib2::GetAllCustData(tagCUSTDATA*)
PUBLIC 4d480 0 CTypeLib2::GetCustData(_GUID const&, tagVARIANT*)
PUBLIC 4d4c0 0 CTypeLib2::GetDocumentation2(int, unsigned long, unsigned short**, unsigned long*, unsigned short**)
PUBLIC 4d570 0 CTypeLib2::GetDocumentation2Helper(unsigned long, unsigned long, unsigned long, unsigned long, unsigned short**, unsigned long*, unsigned short**)
PUBLIC 4d920 0 CTypeLib2::GetDocumentation(int, unsigned short**, unsigned short**, unsigned long*, unsigned short**)
PUBLIC 4db18 0 CTypeLib2::GetHelpFile(unsigned long, unsigned short**)
PUBLIC 4dc90 0 CTypeLib2::GetLibStatistics(unsigned long*, unsigned long*)
PUBLIC 4dcc0 0 CTypeLib2::GetTypeComp(ITypeComp**)
PUBLIC 4dd00 0 CTypeLib2::IsName(unsigned short*, unsigned long, int*)
PUBLIC 4ded0 0 CTypeLib2::QueryInterface(_GUID const&, void**)
PUBLIC 4e008 0 ReleaseDesc(ITypeInfo*, tagDESCKIND*, tagBINDPTR*)
PUBLIC 4e050 0 CTypeLib2::SaveAllChanges(void)
PUBLIC 4e5a4 0 CTypeLib2::SetAFileName(unsigned short*, unsigned int)
PUBLIC 4e670 0 CTypeLib2::SetCustData(_GUID const&, tagVARIANT*)
PUBLIC 4e690 0 CTypeLib2::SetDocString(unsigned short*)
PUBLIC 4e6c0 0 CTypeLib2::SetGuid(_GUID const&)
PUBLIC 4e710 0 CTypeLib2::SetHelpFileName(unsigned short*)
PUBLIC 4e730 0 CTypeLib2::SetHelpStringDll(unsigned short*)
PUBLIC 4e750 0 CTypeLib2::SetLcid(unsigned long)
PUBLIC 4e7d0 0 CTypeLib2::SetLibFlags(unsigned int)
PUBLIC 4e7f0 0 CTypeLib2::SetName(unsigned short*)
PUBLIC 4e830 0 CTypeLib2::SetVersion(unsigned short, unsigned short)
PUBLIC 4e8b0 0 CTypeLib2::UpdateNameBindingInfo(unsigned long, NameEntry*)
PUBLIC 4e964 0 CTypeLib2::AllocGuidEntry(_GUID const&, unsigned long, unsigned long*)
PUBLIC 4ea98 0 CTypeLib2::BstrOfHstring(unsigned long, unsigned short**)
PUBLIC 4eb00 0 CTypeLib2::CreateInfoRef(ITypeLib*, ITypeInfo*, unsigned int, unsigned long*)
PUBLIC 4ef48 0 CTypeLib2::DeleteMemberName(unsigned long)
PUBLIC 4ef78 0 CTypeLib2::GetPtlibStdole2(ITypeLib**)
PUBLIC 4effc 0 CTypeLib2::HnameOfBucket(char*, unsigned int, unsigned int) const
PUBLIC 4f0a4 0 CTypeLib2::HnameOfStrAIfExists(char*, unsigned int*, unsigned int*) const
PUBLIC 4f140 0 CTypeLib2::HnameOfStrAIfExistsWithHashVal(char*, unsigned long, unsigned int*)
PUBLIC 4f1e0 0 CTypeLib2::HnameOfStrW(unsigned short*, unsigned long*)
PUBLIC 4f358 0 CTypeLib2::HnameOfStrWIfExists(unsigned short*, unsigned long, unsigned long*)
PUBLIC 4f3f0 0 CTypeLib2::HstringOfStr(unsigned short*, unsigned long*)
PUBLIC 4f568 0 CTypeLib2::InitGuidTable(void)
PUBLIC 4f5ec 0 CTypeLib2::InitNameTable(void)
PUBLIC 4f674 0 LoadStdole2_WithSyskind(ITypeLib**, tagSYSKIND)
PUBLIC 4f6e0 0 CTypeLib2::ReadNames(void)
PUBLIC 4f718 0 ElemInfoTable::AddElemDescr(unsigned int, unsigned short, unsigned long*)
PUBLIC 4f830 0 ElemInfoTable::AddFuncDescr(unsigned int, unsigned short, int, unsigned long*)
PUBLIC 4f994 0 ElemInfoTable::AddVarDescr(unsigned int, unsigned long*)
PUBLIC 4fa14 0 ElemInfoTable::AdjustElemDescrs(unsigned long, unsigned int, int)
PUBLIC 4fb94 0 ElemInfoTable::ComputeSysSpecificOinsts(InfoDef*, unsigned long*, unsigned long*, tagSYSKIND)
PUBLIC 4fcbc 0 ElemInfoTable::DeleteAllNames(CTypeLib2*)
PUBLIC 4fd44 0 ElemInfoTable::DeleteElemDescr(CTypeLib2*, unsigned int)
PUBLIC 4fde4 0 ElemInfoTable::DeleteFuncDescr(CTypeLib2*, unsigned int)
PUBLIC 4fe70 0 ElemInfoTable::DeleteVarDescr(CTypeLib2*, unsigned int)
PUBLIC 4feb0 0 ElemInfoTable::ExpandFuncDescr(unsigned long, tagFuncDescr**)
PUBLIC 5005c 0 ElemInfoTable::ExpandVarDescr(unsigned long, tagVarDescr**)
PUBLIC 50138 0 ElemInfoTable::GetFuncIndexOfElemInvkind(unsigned int, unsigned int, int, unsigned int*)
PUBLIC 50224 0 ElemInfoTable::GetFuncIndexOfMemidInvkind(long, unsigned int, unsigned int*)
PUBLIC 5027c 0 ElemInfoTable::GetVarIndexOfMemid(long, unsigned int*)
PUBLIC 502c0 0 ElemInfoTable32Bit::Write(CTypeLib2*, ElemInfoTable*)
FUNC 505fc 2e 0 FixR8
PUBLIC 50630 0 VarAbs
PUBLIC 508a0 0 VarCyRound
PUBLIC 50920 0 VarFix
PUBLIC 50b20 0 VarInt
PUBLIC 50d00 0 VarNeg
PUBLIC 50fb0 0 VarR8Round
PUBLIC 510a0 0 VarRound
PUBLIC 51290 0 GetBstr(unsigned short*&, unsigned short*&, tagVARIANT*)
FUNC 513a0 9c 0 GetValuePropOfDispatch
PUBLIC 51450 0 VarAdd
PUBLIC 51e40 0 VarCat
PUBLIC 51f20 0 VarCyMulI8
PUBLIC 51fb0 0 VarDiv
PUBLIC 52640 0 VarMul
PUBLIC 52f20 0 VarPow
PUBLIC 530a0 0 VarR8Pow
PUBLIC 53160 0 VarSub
FUNC 53a6c 138 0 GetInteger
FUNC 53bac 157 0 GetIntegerI8
PUBLIC 53d10 0 VarAnd
PUBLIC 53ea0 0 VarEqv
PUBLIC 53ed0 0 VarIdiv
PUBLIC 54090 0 VarImp
PUBLIC 54180 0 VarMod
PUBLIC 54300 0 VarNot
PUBLIC 543a0 0 VarOr
PUBLIC 54540 0 VarXor
FUNC 54668 225 0 HardTypeCheck
PUBLIC 548a0 0 VarDecCmpR8
PUBLIC 54910 0 VarR4CmpR8
PUBLIC 54960 0 VarCyAbs
PUBLIC 54990 0 VarCyAdd
PUBLIC 549c0 0 VarCyCmp
PUBLIC 549e0 0 VarCyCmpR8
PUBLIC 54a40 0 VarCyFix
PUBLIC 54a80 0 VarCyInt
PUBLIC 54af0 0 VarCyMul
PUBLIC 54c60 0 VarCyMulI4
PUBLIC 54d00 0 VarCyNeg
PUBLIC 54d30 0 VarCySub
PUBLIC 54d60 0 Div128By96(unsigned long*, unsigned long*)
PUBLIC 54e88 0 Div96By64(unsigned long*, SPLIT64)
PUBLIC 54f40 0 FullDiv64By32(uint64_t*, unsigned long)
PUBLIC 54fc0 0 ScaleResult(unsigned long*, int, int)
PUBLIC 551d4 0 SearchScale(unsigned long, unsigned long, int)
PUBLIC 552c0 0 VarDecAbs
PUBLIC 552f0 0 VarDecAdd
PUBLIC 55300 0 VarDecDiv
PUBLIC 55980 0 VarDecInt
PUBLIC 559c0 0 VarDecMul
PUBLIC 55c30 0 VarDecNeg
PUBLIC 55c60 0 VarDecSub
PUBLIC 55c70 0 BRECORD_GetCbRec(unsigned long*, unsigned char*, unsigned long*)
PUBLIC 55d74 0 BRECORD_UserFree
PUBLIC 55e58 0 BRECORD_UserMarshal
PUBLIC 56028 0 BRECORD_UserMarshal64
PUBLIC 561fc 0 BRECORD_UserSize
PUBLIC 5636c 0 BRECORD_UserSize64
PUBLIC 564dc 0 BRECORD_UserUnmarshal
FUNC 5697b 65 0 BRECORD_UserUnmarshal$fin$0
PUBLIC 569e8 0 BRECORD_UserUnmarshal64
PUBLIC 56dc0 0 CLEANLOCALSTORAGE_UserMarshal
PUBLIC 56e70 0 CLEANLOCALSTORAGE_UserUnmarshal
PUBLIC 56ef0 0 LPSAFEARRAY_UserFree64
PUBLIC 56f00 0 LPSAFEARRAY_UserMarshal
PUBLIC 56f10 0 LPSAFEARRAY_UserSize
PUBLIC 56f20 0 LPSAFEARRAY_UserUnmarshal
FUNC 56f30 39 0 ConvI4FromR8
FUNC 56f70 3c 0 ConvI8FromR8
FUNC 56fb4 5a 0 ConvUI4FromR8
FUNC 57014 8d 0 ConvUI8FromR8
PUBLIC 570a8 0 nls_number_to_bstr(unsigned long, unsigned long, unsigned short*, unsigned short**, int)
PUBLIC 571c0 0 BstrFromVector
PUBLIC 57228 0 DispAlloc
PUBLIC 5728c 0 DispFree
PUBLIC 572c8 0 IsChinaT
PUBLIC 57320 0 MapHalfWidth
PUBLIC 57470 0 VarBoolFromCy
PUBLIC 57490 0 VarBoolFromDate
PUBLIC 574a0 0 VarBoolFromDisp
PUBLIC m 574f0 0 VarBoolFromI1
PUBLIC m 57510 0 VarBoolFromI2
PUBLIC m 57530 0 VarBoolFromI4
PUBLIC m 57550 0 VarBoolFromI8
PUBLIC 57570 0 VarBoolFromR4
PUBLIC 57590 0 VarBoolFromR8
PUBLIC 575b0 0 VarBstrFromCy
PUBLIC 57970 0 VarBstrFromDisp
PUBLIC 579c0 0 VarBstrFromI1
PUBLIC 579d0 0 VarBstrFromI2
PUBLIC 57a70 0 VarBstrFromUI1
PUBLIC 57a80 0 VarBstrFromUI2
PUBLIC 57a90 0 VarCyFromDisp
PUBLIC 57ae0 0 VarCyFromI1
PUBLIC 57b00 0 VarCyFromStr
PUBLIC 57b90 0 VarCyFromUI1
PUBLIC 57bb0 0 VarCyFromUI2
PUBLIC 57bd0 0 VarCyFromUI4
PUBLIC 57bf0 0 VarCyFromUI8
PUBLIC m 57c10 0 VarR8FromI2
PUBLIC 57c30 0 VarDateFromCy
PUBLIC 57c70 0 VarDateFromDisp
PUBLIC 57cd0 0 VarDateFromI1
PUBLIC 57d10 0 VarDateFromI4
PUBLIC 57d50 0 VarDateFromI8
PUBLIC 57d90 0 VarDateFromR4
PUBLIC 57dc0 0 VarDateFromR8
PUBLIC m 57df0 0 VarDateFromUI1
PUBLIC 57e10 0 VarDateFromUI2
PUBLIC 57e50 0 VarDateFromUI4
PUBLIC 57e90 0 VarDateFromUI8
PUBLIC m 57ed0 0 VarI1FromBool
PUBLIC 57ee0 0 VarI1FromCy
PUBLIC 57f10 0 VarI1FromDate
PUBLIC 57f20 0 VarI1FromDisp
PUBLIC 57f70 0 VarI1FromI2
PUBLIC 57fa0 0 VarI1FromI4
PUBLIC 57fc0 0 VarI1FromI8
PUBLIC 57fe0 0 VarI1FromR4
PUBLIC 57ff0 0 VarI1FromR8
PUBLIC 58030 0 VarI1FromStr
PUBLIC 58060 0 VarI1FromUI1
PUBLIC 58080 0 VarI1FromUI2
PUBLIC 580a0 0 VarI1FromUI4
PUBLIC 580c0 0 VarI1FromUI8
PUBLIC m 580e0 0 VarI2FromBool
PUBLIC 580f0 0 VarI2FromDate
PUBLIC 58100 0 VarI2FromDisp
PUBLIC 58150 0 VarI2FromI1
PUBLIC 58160 0 VarI2FromI4
PUBLIC 58180 0 VarI2FromI8
PUBLIC 581b0 0 VarI2FromR4
PUBLIC 581c0 0 VarI2FromR8
PUBLIC 58200 0 VarI2FromStr
PUBLIC m 58290 0 VarI2FromUI1
PUBLIC 582a0 0 VarI2FromUI2
PUBLIC 582c0 0 VarI2FromUI4
PUBLIC 582e0 0 VarI2FromUI8
PUBLIC m 58300 0 VarI4FromBool
PUBLIC 58310 0 VarI4FromDate
PUBLIC 58320 0 VarI4FromDisp
PUBLIC 58370 0 VarI4FromI1
PUBLIC 58380 0 VarI4FromI8
PUBLIC 583b0 0 VarI4FromR4
PUBLIC 583c0 0 VarI4FromR8
PUBLIC m 58400 0 VarI4FromUI1
PUBLIC m 58410 0 VarUI4FromUI2
PUBLIC 58420 0 VarI4FromUI4
PUBLIC 58440 0 VarI4FromUI8
PUBLIC m 58460 0 VarI8FromBool
PUBLIC 58470 0 VarI8FromDate
PUBLIC 58480 0 VarI8FromDisp
PUBLIC 584d0 0 VarI8FromI1
PUBLIC 584e0 0 VarI8FromR4
PUBLIC 584f0 0 VarI8FromR8
PUBLIC 58530 0 VarI8FromStr
PUBLIC m 58680 0 VarUI8FromUI1
PUBLIC m 58690 0 VarUI8FromUI2
PUBLIC m 586a0 0 VarUI8FromUI4
PUBLIC 586b0 0 VarI8FromUI8
PUBLIC m 586e0 0 VarR4FromI2
PUBLIC 58700 0 VarR4FromDate
PUBLIC 58710 0 VarR4FromDisp
PUBLIC 58770 0 VarR4FromI1
PUBLIC 58790 0 VarR4FromI4
PUBLIC 587b0 0 VarR4FromI8
PUBLIC 587d0 0 VarR4FromR8
PUBLIC 58810 0 VarR4FromStr
PUBLIC 588a0 0 VarR4FromUI1
PUBLIC 588c0 0 VarR4FromUI2
PUBLIC 588e0 0 VarR4FromUI4
PUBLIC 58900 0 VarR4FromUI8
PUBLIC 58930 0 VarR8FromDate
PUBLIC 58940 0 VarR8FromDisp
PUBLIC 589a0 0 VarR8FromI1
PUBLIC 589c0 0 VarR8FromI4
PUBLIC 589e0 0 VarR8FromI8
PUBLIC 58a00 0 VarR8FromR4
PUBLIC 58a20 0 VarR8FromUI2
PUBLIC 58a40 0 VarR8FromUI4
PUBLIC 58a60 0 VarR8FromUI8
PUBLIC 58a90 0 VarUI1FromCy
PUBLIC 58ac0 0 VarUI1FromDate
PUBLIC 58ad0 0 VarUI1FromDisp
PUBLIC 58b20 0 VarUI1FromI1
PUBLIC m 58b40 0 VarUI1FromI2
PUBLIC m 58b60 0 VarUI1FromI4
PUBLIC m 58b80 0 VarUI1FromI8
PUBLIC 58ba0 0 VarUI1FromR4
PUBLIC 58bb0 0 VarUI1FromR8
PUBLIC 58bf0 0 VarUI1FromStr
PUBLIC 58c20 0 VarUI2FromCy
PUBLIC 58c60 0 VarUI2FromDate
PUBLIC 58c70 0 VarUI2FromDisp
PUBLIC 58cc0 0 VarUI2FromI1
PUBLIC 58ce0 0 VarUI2FromI2
PUBLIC m 58d00 0 VarUI2FromI4
PUBLIC m 58d20 0 VarUI2FromUI8
PUBLIC 58d40 0 VarUI2FromR4
PUBLIC 58d50 0 VarUI2FromR8
PUBLIC 58d90 0 VarUI2FromStr
PUBLIC 58dd0 0 VarUI4FromCy
PUBLIC 58df0 0 VarUI4FromDate
PUBLIC 58e00 0 VarUI4FromDisp
PUBLIC 58e50 0 VarUI4FromI1
PUBLIC 58e70 0 VarUI4FromI2
PUBLIC 58e90 0 VarUI4FromI4
PUBLIC m 58eb0 0 VarUI4FromI8
PUBLIC 58ed0 0 VarUI4FromR4
PUBLIC 58ee0 0 VarUI4FromR8
PUBLIC 58f20 0 VarUI4FromStr
PUBLIC 58fb0 0 VarUI8FromCy
PUBLIC 58fd0 0 VarUI8FromDate
PUBLIC 58fe0 0 VarUI8FromDisp
PUBLIC 59030 0 VarUI8FromI1
PUBLIC 59050 0 VarUI8FromI2
PUBLIC 59070 0 VarUI8FromI8
PUBLIC 59090 0 VarUI8FromR4
PUBLIC 590a0 0 VarUI8FromR8
PUBLIC 590e0 0 VectorFromBstr
PUBLIC 5915c 0 CDispTypeInfo::AllocInvokeArgs(unsigned int, tagINVOKEARGS**)
PUBLIC 5926c 0 CDispTypeInfo::Create(tagTYPEKIND, tagINTERFACEDATA*, unsigned long, ITypeInfo**)
PUBLIC 592f0 0 CDispTypeInfo::GetDocumentation(long, unsigned short**, unsigned short**, unsigned long*, unsigned short**)
PUBLIC 59360 0 CDispTypeInfo::GetFuncDesc(unsigned int, tagFUNCDESC**)
PUBLIC 59500 0 CDispTypeInfo::GetIDsOfNames(unsigned short**, unsigned int, long*)
PUBLIC 59644 0 CDispTypeInfo::GetInvokeArgs(tagMETHODDATA*, unsigned short, tagDISPPARAMS*, tagINVOKEARGS**, unsigned int*)
PUBLIC 59880 0 CDispTypeInfo::GetNames(long, unsigned short**, unsigned int, unsigned int*)
PUBLIC 59980 0 CDispTypeInfo::GetRefTypeInfo(unsigned long, ITypeInfo**)
PUBLIC 599d0 0 CDispTypeInfo::GetRefTypeOfImplType(unsigned int, unsigned long*)
PUBLIC 599f0 0 CDispTypeInfo::GetTypeAttr(tagTYPEATTR**)
PUBLIC 59ac0 0 CDispTypeInfo::Invoke(void*, long, unsigned short, tagDISPPARAMS*, tagVARIANT*, tagEXCEPINFO*, unsigned int*)
PUBLIC 59d30 0 CDispTypeInfo::PmdataOfDispid(long, unsigned short, tagMETHODDATA**)
PUBLIC 59d70 0 CDispTypeInfo::QueryInterface(_GUID const&, void**)
PUBLIC 59dd0 0 CDispTypeInfo::Release(void)
PUBLIC 59e00 0 CDispTypeInfo::ReleaseFuncDesc(tagFUNCDESC*)
PUBLIC 59e30 0 CDispTypeInfo::ReleaseInvokeArgs(tagINVOKEARGS*)
PUBLIC 59ec0 0 CDispTypeInfo::ReleaseTypeAttr(tagTYPEATTR*)
PUBLIC 59ed4 0 CDispTypeInfo::StrICmp(unsigned short*, int, unsigned short*, int)
PUBLIC 59f70 0 CreateDispTypeInfo
PUBLIC 59fb0 0 CStdDisp::AddRef(void)
PUBLIC 59fc8 0 CStdDisp::Create(IUnknown*, void*, ITypeInfo*, IUnknown**)
PUBLIC 5a0a0 0 CStdDisp::GetIDsOfNames(_GUID const&, unsigned short**, unsigned int, unsigned long, long*)
PUBLIC 5a100 0 CStdDisp::GetTypeInfo(unsigned int, unsigned long, ITypeInfo**)
PUBLIC 5a140 0 CStdDisp::GetTypeInfoCount(unsigned int*)
PUBLIC 5a160 0 CStdDisp::Invoke(long, _GUID const&, unsigned long, unsigned short, tagDISPPARAMS*, tagVARIANT*, tagEXCEPINFO*, unsigned int*)
PUBLIC 5a1e0 0 CStdDisp::QueryInterface(_GUID const&, void**)
PUBLIC 5a200 0 CStdDispUnkImpl::QueryInterface(_GUID const&, void**)
PUBLIC 5a280 0 CStdDisp::Release(void)
PUBLIC 5a2a0 0 CStdDispUnkImpl::Release(void)
PUBLIC 5a300 0 CreateStdDispatch
PUBLIC 5a310 0 DispGetParam
PUBLIC 5a38c 0 IndexOfParam
PUBLIC 5a3d0 0 COleAutomationPSFactory::Create(void)
PUBLIC 5a410 0 COleAutomationPSFactory::CreateProxy(IUnknown*, _GUID const&, IRpcProxyBuffer**, void**)
PUBLIC 5a6b0 0 COleAutomationPSFactory::CreateStub(_GUID const&, IUnknown*, IRpcStubBuffer**)
PUBLIC 5a900 0 COleAutomationPSFactory::QueryInterface(_GUID const&, void**)
PUBLIC 5a960 0 COleAutomationPSFactory::Release(void)
PUBLIC 5a990 0 DllRegisterServer
PUBLIC 5ac90 0 DllUnregisterServer
PUBLIC 5aca0 0 VariantTimeToDosDateTime
PUBLIC 5ad40 0 GetActiveObject
PUBLIC 5ad90 0 RegisterActiveObject
PUBLIC 5adf0 0 RevokeActiveObject
PUBLIC 5ae2c 0 BaseYearOf2DigitYear
PUBLIC 5af00 0 ErrConvertUdsCalendar
FUNC 5b1d8 97 0 GDMY2nDays
FUNC 5b278 49 0 GY2nDays
PUBLIC 5b2d0 0 GetAltMonthNames
PUBLIC 5b310 0 GetCurrentYear
FUNC 5b3e4 6e 0 HDMY2nDays
FUNC 5b458 74 0 HY2nDays
FUNC 5b4d4 5b 0 IsGYLeap
FUNC 5b538 89 0 IsHYLeap
FUNC 5b5c8 b9 0 nDays2GM
FUNC 5b688 53 0 nDays2GY
FUNC 5b6e4 85 0 nDays2HD
FUNC 5b770 8e 0 nDays2HM
FUNC 5b804 5f 0 nDays2HY
PUBLIC 5b86c 0 CRecordInfo::CRecordInfo(void)
PUBLIC 5b914 0 CRecordInfo::~CRecordInfo(void)
PUBLIC 5b9b8 0 CRecordInfo::`scalar deleting destructor'(unsigned int)
PUBLIC 5b9f0 0 CRecordInfo::ActualSize(tagTYPEDESC*, unsigned long*, unsigned short*)
PUBLIC 5bb90 0 CRecordInfo::AddRef(void)
PUBLIC 5bbd0 0 CRecordInfo::AfterTypeChange(tagCHANGEKIND, ITypeInfo*, unsigned short*)
PUBLIC 5c120 0 LinearCookieSegManager<29>::CanPack(unsigned long&, unsigned long&)
PUBLIC 5c178 0 CopyTypeDesc(ITypeInfo*, tagTYPEDESC*, CRecordInfo*, tagTYPEDESC*, int)
PUBLIC 5c3e0 0 CStubRecordInfoCF::CreateInstance(IUnknown*, _GUID const&, void**)
PUBLIC 5c40c 0 DispUDT(ITypeInfo*)
PUBLIC 5c5e0 0 CRecordInfo::FieldClear(tagTYPEDESC*, void*, unsigned long)
PUBLIC 5c7e0 0 CRecordInfo::FieldCopy(tagTYPEDESC*, void*, unsigned long, void*)
PUBLIC 5ca90 0 CRecordInfo::Free(void*)
PUBLIC 5cb30 0 CRecordInfo::GetField(void*, unsigned short const*, tagVARIANT*)
PUBLIC 5cbd0 0 CRecordInfo::GetFieldNames(unsigned long*, unsigned short**)
PUBLIC 5cce0 0 CRecordInfo::GetFieldNoCopy(void*, unsigned short const*, tagVARIANT*, void**)
PUBLIC 5cd90 0 CRecordInfo::GetGuid(_GUID*)
PUBLIC 5cdd0 0 CRecordInfo::GetHRefOfRecordInfo(IRecordInfo*, unsigned long*)
PUBLIC 5ce40 0 CRecordInfo::GetName(unsigned short**)
PUBLIC 5ce90 0 CRecordInfo::GetRefRecordInfo(unsigned long, IRecordInfo**)
PUBLIC 5cf04 0 GetRpcTypeMarshal(ITypeInfo*, ITypeMarshal**)
PUBLIC 5cf90 0 CRecordInfo::GetSize(unsigned long*)
PUBLIC 5cfb0 0 CRecordInfo::GetTypeInfo(ITypeInfo**)
PUBLIC 5cff0 0 LinearCookieSegManager<29>::GrowByChunk(void)
PUBLIC 5d0c0 0 LinearCookieSegManager<29>::GrowByOne(void)
PUBLIC 5d130 0 CRecordInfo::IndexOfField(unsigned short const*, unsigned long*)
PUBLIC 5d2f0 0 LinearCookieSegManager<29>::Insert64BitPtr(unsigned long&, int64_t)
PUBLIC 5d428 0 IsEnum(ITypeInfo*, unsigned long)
PUBLIC 5d4c0 0 CRecordInfo::IsMatchingType(IRecordInfo*)
PUBLIC 5d524 0 CRecordInfo::IsTrusted(IRecordInfo*)
PUBLIC 5d5a8 0 HashTable::Lookup(_GUID const&)
PUBLIC 5d658 0 Map64To32::Make32BitCookieFrom64BitPtr(int64_t)
PUBLIC 5d690 0 CRecordInfo::MakeVar(tagTYPEDESC*, void*, unsigned long, tagVARIANT*)
PUBLIC 5dd10 0 CRecordInfo::MakeVarNoCopy(tagTYPEDESC*, tagSAFEARRAY**, void*, unsigned long, tagVARIANT*, void**)
PUBLIC 5e140 0 CRecordInfo::Marshal(void*, unsigned long, void*, unsigned long, unsigned char*, unsigned long*)
PUBLIC 5e210 0 CRecordInfo::MarshalInterface(IStream*, _GUID const&, void*, unsigned long, void*, unsigned long)
PUBLIC 5e330 0 CRecordInfo::PutField(unsigned long, void*, unsigned short const*, tagVARIANT*)
PUBLIC 5e3e0 0 CRecordInfo::PutFieldNoCopy(unsigned long, void*, unsigned short const*, tagVARIANT*)
PUBLIC 5e490 0 CRecordInfo::QueryInterface(_GUID const&, void**)
PUBLIC 5e570 0 CStubRecordInfo::QueryInterface(_GUID const&, void**)
PUBLIC 5e5c0 0 CRecordInfo::RecordClear(void*)
PUBLIC 5e650 0 CRecordInfo::RecordCopy(void*, void*)
PUBLIC 5e780 0 CRecordInfo::RecordCreate(void)
PUBLIC 5e7c0 0 CRecordInfo::RecordCreateCopy(void*, void**)
PUBLIC 5e900 0 CRecordInfo::RecordDestroy(void*)
PUBLIC 5e940 0 CRecordInfo::RecordInit(void*)
PUBLIC 5e970 0 CRecordInfo::Release(void)
PUBLIC 5eb30 0 CRecordInfo::ReleaseTdesc(tagTYPEDESC*)
PUBLIC 5ebd0 0 HashTable::Remove(_GUID const&)
PUBLIC 5ec88 0 RemoveInd(tagVARIANT*)
PUBLIC 5ed90 0 CRecordInfo::Size(void*, unsigned long, void*, unsigned long*)
PUBLIC 5ee50 0 CRecordInfo::TakeVar(tagTYPEDESC*, void*, unsigned long, tagVARIANT*)
PUBLIC 5f4e0 0 CRecordInfo::TakeVarNoCopy(tagTYPEDESC*, void*, unsigned long, tagVARIANT*)
PUBLIC 5f920 0 CRecordInfo::TakeVarNoCopyRef(tagTYPEDESC*, void*, unsigned long, tagVARIANT*)
PUBLIC 5f980 0 CRecordInfo::TakeVarRef(tagTYPEDESC*, void*, unsigned long, tagVARIANT*)
PUBLIC 5fbe0 0 CRecordInfo::Unmarshal(void*, unsigned long, unsigned long, unsigned char*, unsigned long*)
PUBLIC 5fcb0 0 CStubRecordInfo::UnmarshalInterface(IStream*, _GUID const&, void**)
PUBLIC 5fe94 0 VtTdescToVar(ITypeInfo*, tagTYPEDESC*, unsigned short*, _GUID*)
PUBLIC 60050 0 GetRecordInfoFromGuids
PUBLIC 601c0 0 GetRecordInfoFromTypeInfo
PUBLIC 60960 0 CLIPFORMAT_UserFree
PUBLIC 609b0 0 CLIPFORMAT_UserMarshal
PUBLIC 60a10 0 CLIPFORMAT_UserSize
PUBLIC 60a60 0 CLIPFORMAT_UserUnmarshal
PUBLIC 60ac0 0 HPALETTE_UserFree
PUBLIC 60b10 0 HPALETTE_UserMarshal
PUBLIC 60b70 0 HPALETTE_UserSize
PUBLIC 60bc0 0 HPALETTE_UserUnmarshal
PUBLIC 60c20 0 HWND_UserFree
PUBLIC 60c70 0 HWND_UserMarshal
PUBLIC 60cd0 0 HWND_UserSize
PUBLIC 60d20 0 HWND_UserUnmarshal
PUBLIC 60d80 0 OleCreatePropertyFrame
PUBLIC 60de0 0 OleCreatePropertyFrameIndirect
PUBLIC 60e20 0 OleIconToCursor
PUBLIC 60e70 0 OleLoadPicture
PUBLIC 60ea0 0 OleLoadPictureEx
PUBLIC 60f30 0 OleLoadPictureFile
PUBLIC 60f70 0 OleLoadPictureFileEx
PUBLIC 60ff0 0 OleLoadPicturePath
PUBLIC 61070 0 OleSavePictureFile
PUBLIC 610b0 0 STGMEDIUM_UserFree
PUBLIC 61100 0 STGMEDIUM_UserMarshal
PUBLIC 61160 0 STGMEDIUM_UserSize
PUBLIC 611b0 0 STGMEDIUM_UserUnmarshal
PUBLIC 61210 0 SafeArrayAddRef
PUBLIC 612a0 0 SafeArrayCreateEx
PUBLIC 613e0 0 SafeArrayCreateVectorEx
PUBLIC 61560 0 SafeArrayGetIID
PUBLIC 61590 0 SafeArrayGetRecordInfo
PUBLIC 615e0 0 SafeArrayReleaseData
PUBLIC 615f0 0 SafeArraySetRecordInfo
PUBLIC 61660 0 Thunk_SafeArrayDestroyData
PUBLIC 616bc 0 ErrStringCopyNoNull
PUBLIC 616f4 0 ErrSysAllocStringLen
PUBLIC 61720 0 VarBoolFromDec
PUBLIC 61750 0 VarCyFromDec
PUBLIC 61aa0 0 VarDateFromDec
PUBLIC 61b00 0 VarDecFromBool
PUBLIC 61b30 0 VarDecFromCy
PUBLIC 61b60 0 VarDecFromDate
PUBLIC 61b70 0 VarDecFromDisp
PUBLIC 61bd0 0 VarDecFromI1
PUBLIC 61c00 0 VarDecFromI2
PUBLIC 61c40 0 VarDecFromI8
PUBLIC 61c90 0 VarDecFromStr
PUBLIC 61d20 0 VarDecFromUI1
PUBLIC 61d40 0 VarDecFromUI2
PUBLIC 61d60 0 VarDecFromUI4
PUBLIC 61d80 0 VarDecFromUI8
PUBLIC 61da0 0 VarI1FromDec
PUBLIC 61e20 0 VarI2FromDec
PUBLIC 61ea0 0 VarI4FromDec
PUBLIC 61f30 0 VarI8FromDec
PUBLIC 61fc0 0 VarR4FromDec
PUBLIC 62010 0 VarUI1FromDec
PUBLIC 62090 0 VarUI2FromDec
PUBLIC 62110 0 VarUI8FromDec
PUBLIC 62190 0 wmemset
PUBLIC 621c0 0 CDateInfo::~CDateInfo(void)
FUNC 622ac 28 0 AdjustTime
FUNC 622dc 7e 0 AdjustUDSDate
FUNC 62360 36 0 AdjustUDSTime
FUNC 6239c 3c 0 ChinaDigit
FUNC 623e0 9d 0 DayOfMN
FUNC 62490 106 0 DayOfMNN
FUNC 625a0 1f3 0 DayOfNN
FUNC 627a0 1f1 0 DayOfNNN
FUNC 62998 112 0 DefaultEraYearToGregYear
PUBLIC 62ab0 0 GetUserInfo(char**)
PUBLIC 62be0 0 IntOfString(unsigned long, unsigned short*, int*, int*)
FUNC 62fac 31a 0 IsBuddhistYear
FUNC 632cc f9 0 IsDBCSAmPm
FUNC 633cc 377 0 IsImperialEra
PUBLIC 6374c 0 IsIntOverflow(int, int)
PUBLIC 63774 0 IsPrefix(unsigned short const*, unsigned int, unsigned short const*, tagDATEINFO const*)
FUNC 637cc 304 0 IsRepublicEra
PUBLIC 63ad8 0 IsSameUser(char*, char*)
FUNC 63af8 9a 0 LEGAL_DAY
FUNC 63b98 324 0 MonthNumOfMonthName
PUBLIC 63ec4 0 RebasePoolPointersInArray(unsigned short** const, int, tagDATEINFO*, int64_t)
PUBLIC 63ef8 0 ResizeExtraPool(tagDATEINFO*, int)
FUNC 64030 632 0 ddlex
FUNC 64668 686 0 ddsep
PUBLIC 64cf4 0 GetImperialEra
PUBLIC 64e40 0 VarDateFromStr
PUBLIC 65710 0 VarCyFromI2
PUBLIC 65730 0 VarCyFromI4
PUBLIC 65750 0 VarCyFromR4
PUBLIC 65760 0 VarCyFromR8
PUBLIC 65870 0 VarI2FromCy
PUBLIC 658c0 0 VarI4FromCy
PUBLIC 65940 0 VarR4FromCy
PUBLIC 65970 0 VarR8FromCy
PUBLIC 65990 0 VarCyFromI8
PUBLIC 659d0 0 VarI8FromCy
FUNC 65a38 56 0 DaysInYear
FUNC 65a94 e2 0 FirstDay
PUBLIC 65b7c 0 FormatVarToNum(tagVARIANT*, tagVARIANT*, unsigned long)
PUBLIC 65d18 0 GetInfo(unsigned short*, unsigned short*, unsigned short*)
PUBLIC 65d68 0 GetMediumDateFormat(unsigned char*&, unsigned long)
PUBLIC 65e54 0 GetNlsFormat(unsigned long, unsigned char*&, unsigned long)
PUBLIC 65f18 0 GetWeekOfYear(UDATE, int, int, unsigned long, unsigned long)
PUBLIC 66014 0 ParseFormatString(unsigned short*, int, unsigned char*, int, int, int, unsigned long)
PUBLIC 66d08 0 RenderInt(int, int, int, unsigned short*, unsigned short*)
PUBLIC 66db8 0 TokenizeNumericFormat(unsigned char*, int, int, int, int, int, int, unsigned int)
PUBLIC 66ed0 0 TokenizeSection(unsigned char*, int, int)
PUBLIC 6704c 0 wmemchr(unsigned short*, unsigned short, uint64_t)
PUBLIC 67070 0 VarFormat
PUBLIC 67160 0 VarFormatCurrency
PUBLIC 67280 0 VarFormatDateTime
PUBLIC 67300 0 VarFormatFromTokens
PUBLIC 692d0 0 VarFormatNumber
PUBLIC 693e0 0 VarFormatPercent
PUBLIC 694d0 0 VarMonthName
PUBLIC 695a0 0 VarTokenizeFormatString
PUBLIC 69830 0 VarWeekdayName
PUBLIC 69924 0 UInt64x64To128
PUBLIC 699a8 0 IsValidDate(double)
PUBLIC 699d0 0 CProxUniv::~CProxUniv(void)
PUBLIC 69a84 0 CProxUniv::`scalar deleting destructor'(unsigned int)
PUBLIC 69ab0 0 CStreamOnBuffer::`scalar deleting destructor'(unsigned int)
PUBLIC 69afc 0 CProxUniv::CacheFuncDescs(ITypeInfo*)
PUBLIC 69c80 0 CanWeRemoteIt(ITypeInfo*, ITypeInfo**, unsigned short*, int*)
PUBLIC 69e20 0 CProxUniv::CPriv::Connect(IRpcChannelBuffer*)
PUBLIC 69e80 0 CStubUniv::Connect(IUnknown*)
PUBLIC 69ee0 0 CStubUniv::CountRefs(void)
PUBLIC 69efc 0 CProxUniv::Create(IUnknown*, _GUID const&, IUnknown**)
PUBLIC 6a0b4 0 CStubUniv::Create(IUnknown*, _GUID const&, IRpcStubBuffer**)
PUBLIC 6a190 0 CProxUniv::CPriv::Disconnect(void)
PUBLIC 6a1d0 0 CStubUniv::Disconnect(void)
PUBLIC 6a21c 0 CStubUniv::DispatchMethod(int)
PUBLIC 6a68c 0 CVtableSizeCache::GetVtableSize(_GUID const&, unsigned long*)
PUBLIC 6a840 0 CStubUniv::Invoke(tagRPCOLEMESSAGE*, IRpcChannelBuffer*)
PUBLIC 6a9a0 0 CStubUniv::IsIIDSupported(_GUID const&)
PUBLIC 6a9cc 0 CVtableSizeCache::Lookup(_GUID const&, int*)
PUBLIC 6aa58 0 CProxUniv::PSInit(void)
PUBLIC 6abd0 0 CStubUniv::PSInit(void)
PUBLIC 6ace0 0 CProxUniv::CPriv::QueryInterface(_GUID const&, void**)
PUBLIC 6ada0 0 CStubUniv::QueryInterface(_GUID const&, void**)
PUBLIC 6ae30 0 CProxUniv::CPriv::Release(void)
PUBLIC 6ae60 0 CStubUniv::Release(void)
PUBLIC 6aec0 0 CProxUniv::CPriv::ReleaseMarshalBuffer(tagRPCOLEMESSAGE*, unsigned long, IUnknown*)
PUBLIC 6aed0 0 CProxUniv::ReleaseMarshalBuffer(tagRPCOLEMESSAGE*, unsigned long, IUnknown*)
PUBLIC 6b020 0 CStubUniv::ReleaseMarshalBuffer(tagRPCOLEMESSAGE*, unsigned long, IUnknown*)
PUBLIC 6b164 0 ReleasePSFunctionInArgs(IStream*, tagSYSKIND)
PUBLIC 6b21c 0 ReleasePSFunctionOutArgs(IStream*, int, tagSYSKIND)
PUBLIC 6b27c 0 TryInvokeCall(CProxUniv*, IStream*, long)
FUNC 6b2b0 1a 0 `TryInvokeCall'::`1'::fin$0
PUBLIC 6b2d0 0 VarVtOfIface(ITypeInfo*, tagTYPEATTR*, unsigned short*, _GUID*)
PUBLIC 6b310 0 VarVtOfTypeDesc(ITypeInfo*, tagTYPEDESC*, unsigned short*, _GUID*)
PUBLIC 6b4d8 0 VarVtOfUDT(ITypeInfo*, tagTYPEDESC*, unsigned short*, _GUID*)
PUBLIC 6b64c 0 ProxyMethod
PUBLIC 6bbd0 0 BRECORD_ValidateBuffer(unsigned long*, unsigned char*, unsigned int, int)
FUNC 6bd58 27 0 `BRECORD_ValidateBuffer'::`1'::fin$0
PUBLIC 6bd88 0 SafeBuffer::RaiseShieldException(unsigned long, char const*, ...)
PUBLIC 6bda8 0 SafeBuffer::RaiseShieldException(char const*, ...)
PUBLIC 6bdd0 0 SafeArray_RetrieveRecordSize(unsigned long*, SafeBuffer&, int)
FUNC 6bef1 27 0 `SafeArray_RetrieveRecordSize'::`1'::fin$0
PUBLIC 6bf20 0 CProxDisp::`scalar deleting destructor'(unsigned int)
PUBLIC 6bfa0 0 CPDDispImpl::AddRef(void)
PUBLIC 6bfc0 0 CPDProxImpl::Connect(IRpcChannelBuffer*)
PUBLIC 6c014 0 CProxDisp::Create(IUnknown*, _GUID const&)
PUBLIC 6c0a0 0 CPDProxImpl::Disconnect(void)
PUBLIC 6c0e0 0 CPDDispImpl::GetIDsOfNames(_GUID const&, unsigned short**, unsigned int, unsigned long, long*)
PUBLIC 6c120 0 CPDDispImpl::GetTypeInfo(unsigned int, unsigned long, ITypeInfo**)
PUBLIC 6c150 0 CPDDispImpl::GetTypeInfoCount(unsigned int*)
PUBLIC 6c170 0 CPDDispImpl::Invoke(long, _GUID const&, unsigned long, unsigned short, tagDISPPARAMS*, tagVARIANT*, tagEXCEPINFO*, unsigned int*)
PUBLIC 6c1e0 0 ProxyGetIDsOfNames(IRpcChannelBuffer*, tagSYSKIND, _GUID const&, unsigned short**, unsigned int, unsigned long, long*)
PUBLIC 6c61c 0 ProxyGetTypeInfo(IRpcChannelBuffer*, tagSYSKIND, unsigned int, unsigned long, ITypeInfo**, ITypeInfo**)
PUBLIC 6c7d8 0 ProxyGetTypeInfoCount(IRpcChannelBuffer*, tagSYSKIND, unsigned int*)
PUBLIC 6c918 0 ProxyInvoke(IRpcChannelBuffer*, tagSYSKIND, long, _GUID const&, unsigned long, unsigned short, tagDISPPARAMS*, tagVARIANT*, tagEXCEPINFO*, unsigned int*)
PUBLIC 6cce0 0 CPDDispImpl::QueryInterface(_GUID const&, void**)
PUBLIC 6cd00 0 CPDProxImpl::QueryInterface(_GUID const&, void**)
PUBLIC 6cd10 0 CPDUnkImpl::QueryInterface(_GUID const&, void**)
PUBLIC 6cde0 0 CPDDispImpl::Release(void)
PUBLIC 6ce00 0 CPDProxImpl::Release(void)
PUBLIC 6ce10 0 CPDUnkImpl::Release(void)
PUBLIC 6ce50 0 CPDDispImpl::SysKind(void)
PUBLIC m 6cf70 0 CPEVEnumVARIANTImpl::AddRef(void)
PUBLIC 6cf90 0 CPEVEnumVARIANTImpl::Clone(IEnumVARIANT**)
PUBLIC m 6d090 0 CPSupErrProxImpl::Connect(IRpcChannelBuffer*)
PUBLIC 6d0d8 0 CProxEnumVARIANT::Create(IUnknown*)
PUBLIC m 6d150 0 CPEVProxImpl::Disconnect(void)
PUBLIC 6d190 0 CPEVEnumVARIANTImpl::Next(unsigned long, tagVARIANT*, unsigned long*)
PUBLIC m 6d3a0 0 CPEVEnumVARIANTImpl::QueryInterface(_GUID const&, void**)
PUBLIC 6d3c0 0 CPEVProxImpl::QueryInterface(_GUID const&, void**)
PUBLIC 6d3d0 0 CPEVUnkImpl::QueryInterface(_GUID const&, void**)
PUBLIC m 6d480 0 CPSupErrSupImpl::Release(void)
PUBLIC 6d4a0 0 CPEVProxImpl::Release(void)
PUBLIC 6d4b0 0 CPEVUnkImpl::Release(void)
PUBLIC 6d520 0 CPEVEnumVARIANTImpl::Reset(void)
PUBLIC 6d5f0 0 CPEVEnumVARIANTImpl::Skip(unsigned long)
PUBLIC 6d6e4 0 CProxTypeInfo::Create(IUnknown*, int)
PUBLIC 6d770 0 CPTITypeInfoImpl::CreateInstance(IUnknown*, _GUID const&, void**)
PUBLIC 6d8b8 0 DoReleaseDanglingParamDesc(tagPARAMDESC*)
PUBLIC 6d8f0 0 DoReleaseDanglingTypeDesc(tagTYPEDESC*)
PUBLIC 6d988 0 DoReleaseFuncDesc(tagFUNCDESC*)
PUBLIC 6da1c 0 DoReleaseTypeAttr(tagTYPEATTR*)
PUBLIC 6da54 0 DoReleaseVarDesc(tagVARDESC*)
PUBLIC 6daac 0 FuncdescRead(IStream*, tagFUNCDESC*, tagSYSKIND)
PUBLIC 6db98 0 FuncdescWrite(IStream*, tagFUNCDESC*, tagSYSKIND)
PUBLIC 6dd70 0 CPTITypeInfoImpl::GetAllCustData(tagCUSTDATA*)
PUBLIC 6ddc0 0 CPTITypeInfoImpl::GetAllFuncCustData(unsigned int, tagCUSTDATA*)
PUBLIC 6de10 0 CPTITypeInfoImpl::GetAllImplTypeCustData(unsigned int, tagCUSTDATA*)
PUBLIC 6de60 0 CPTITypeInfoImpl::GetAllParamCustData(unsigned int, unsigned int, tagCUSTDATA*)
PUBLIC 6dec0 0 CPTITypeInfoImpl::GetAllVarCustData(unsigned int, tagCUSTDATA*)
PUBLIC 6df10 0 CPTITypeInfoImpl::GetContainingTypeLib(ITypeLib**, unsigned int*)
PUBLIC 6e090 0 CPTITypeInfoImpl::GetCustData(_GUID const&, tagVARIANT*)
PUBLIC 6e0dc 0 GetCustDataProxy(unsigned long*, unsigned long*, _GUID const&, IRpcChannelBuffer*, unsigned long, tagCUSTDATA*)
PUBLIC 6e340 0 CPTITypeInfoImpl::GetDllEntry(long, tagINVOKEKIND, unsigned short**, unsigned short**, unsigned short*)
PUBLIC 6e5f0 0 CPTITypeInfoImpl::GetDocumentation2(long, unsigned long, unsigned short**, unsigned long*, unsigned short**)
PUBLIC 6e630 0 CPTITypeInfoImpl::GetDocumentation(long, unsigned short**, unsigned short**, unsigned long*, unsigned short**)
PUBLIC 6e670 0 CPTITypeInfoImpl::GetDocumentationX(long, unsigned short**, unsigned short**, unsigned long*, unsigned short**, unsigned long, unsigned long)
PUBLIC 6e9f0 0 CPTITypeInfoImpl::GetFuncCustData(unsigned int, _GUID const&, tagVARIANT*)
PUBLIC 6ea50 0 CPTITypeInfoImpl::GetFuncDesc(unsigned int, tagFUNCDESC**)
PUBLIC 6ec10 0 CPTITypeInfoImpl::GetFuncIndexOfMemId(long, tagINVOKEKIND, unsigned int*)
PUBLIC 6eda0 0 CPTITypeInfoImpl::GetImplTypeCustData(unsigned int, _GUID const&, tagVARIANT*)
PUBLIC 6ee00 0 CPTITypeInfoImpl::GetImplTypeFlags(unsigned int, int*)
PUBLIC 6ef70 0 CPTITypeInfoImpl::GetNames(long, unsigned short**, unsigned int, unsigned int*)
PUBLIC 6f200 0 CPTITypeInfoImpl::GetParamCustData(unsigned int, unsigned int, _GUID const&, tagVARIANT*)
PUBLIC 6f270 0 CPTITypeInfoImpl::GetRefTypeInfo(unsigned long, ITypeInfo**)
PUBLIC 6f3b0 0 CPTITypeInfoImpl::GetRefTypeOfImplType(unsigned int, unsigned long*)
PUBLIC 6f520 0 CPTITypeInfoImpl::GetTypeAttr(tagTYPEATTR**)
PUBLIC 6f6d0 0 CPTITypeInfoImpl::GetTypeComp(ITypeComp**)
PUBLIC 6f7e0 0 CPTITypeInfoImpl::GetTypeFlags(unsigned long*)
PUBLIC 6f930 0 CPTITypeInfoImpl::GetTypeKind(tagTYPEKIND*)
PUBLIC 6fa80 0 CPTITypeInfoImpl::GetVarCustData(unsigned int, _GUID const&, tagVARIANT*)
PUBLIC 6fae0 0 CPTITypeInfoImpl::GetVarDesc(unsigned int, tagVARDESC**)
PUBLIC 6fca0 0 CPTITypeInfoImpl::GetVarIndexOfMemId(long, unsigned int*)
PUBLIC 6fe14 0 GetVariantProxy(unsigned long*, unsigned long*, _GUID const&, IRpcChannelBuffer*, unsigned long, _GUID const&, tagVARIANT*)
PUBLIC 6ffa0 0 ParamdescRead(IStream*, tagPARAMDESC*, tagSYSKIND)
PUBLIC 70130 0 ParamdescWrite(IStream*, tagPARAMDESC*, tagSYSKIND)
PUBLIC 70260 0 CPTIProxImpl::QueryInterface(_GUID const&, void**)
PUBLIC 70270 0 CPTIUnkImpl::QueryInterface(_GUID const&, void**)
PUBLIC 70350 0 CPTIProxImpl::Release(void)
PUBLIC 70360 0 CPTIUnkImpl::Release(void)
PUBLIC m 703d0 0 ITypeInfo_ReleaseFuncDesc_Proxy
PUBLIC m 703e0 0 ITypeInfo_ReleaseTypeAttr_Proxy
PUBLIC m 703f0 0 CPTITypeInfoImpl::ReleaseVarDesc(tagVARDESC*)
PUBLIC 70400 0 TypeattrRead(IStream*, tagTYPEATTR*, tagSYSKIND)
PUBLIC 7046c 0 TypeattrWrite(IStream*, tagTYPEATTR*, tagSYSKIND)
PUBLIC 70610 0 TypedescRead(IStream*, tagTYPEDESC*, tagSYSKIND)
PUBLIC 70860 0 TypedescWrite(IStream*, tagTYPEDESC*, tagSYSKIND)
PUBLIC 709c8 0 VardescRead(IStream*, tagVARDESC*, tagSYSKIND)
PUBLIC 70ab4 0 VardescWrite(IStream*, tagVARDESC*, tagSYSKIND)
PUBLIC 70b40 0 ParamdescReadOrWrite
PUBLIC 70b70 0 TypedescReadOrWrite
PUBLIC m 70ba0 0 CPTLibTypeLibImpl::AddRef(void)
PUBLIC 70bc0 0 CPTLibProxImpl::Connect(IRpcChannelBuffer*)
PUBLIC 70c14 0 CProxTypeLib::Create(IUnknown*, int)
PUBLIC m 70ca0 0 CPTCompProxImpl::Disconnect(void)
PUBLIC 70cd8 0 CPTLibTypeLibImpl::DoGetTypeInfoCount(unsigned int*)
PUBLIC 70df0 0 CPTLibTypeLibImpl::FindName(unsigned short*, unsigned long, ITypeInfo**, long*, unsigned short*)
PUBLIC 71140 0 CPTLibTypeLibImpl::GetAllCustData(tagCUSTDATA*)
PUBLIC 71190 0 CPTLibTypeLibImpl::GetCustData(_GUID const&, tagVARIANT*)
PUBLIC 711e0 0 CPTLibTypeLibImpl::GetDocumentation2(int, unsigned long, unsigned short**, unsigned long*, unsigned short**)
PUBLIC 71220 0 CPTLibTypeLibImpl::GetDocumentation(int, unsigned short**, unsigned short**, unsigned long*, unsigned short**)
PUBLIC 71260 0 CPTLibTypeLibImpl::GetDocumentationX(int, unsigned short**, unsigned short**, unsigned long*, unsigned short**, unsigned long, unsigned long)
PUBLIC 71610 0 CPTLibTypeLibImpl::GetLibAttr(tagTLIBATTR**)
PUBLIC 71760 0 CPTLibTypeLibImpl::GetLibStatistics(unsigned long*, unsigned long*)
PUBLIC 71900 0 CPTLibTypeLibImpl::GetTypeComp(ITypeComp**)
PUBLIC 71a10 0 CPTLibTypeLibImpl::GetTypeInfo(unsigned int, ITypeInfo**)
PUBLIC 71b50 0 CPTLibTypeLibImpl::GetTypeInfoCount(void)
PUBLIC 71b80 0 CPTLibTypeLibImpl::GetTypeInfoOfGuid(_GUID const&, ITypeInfo**)
PUBLIC 71cc0 0 CPTLibTypeLibImpl::GetTypeInfoType(unsigned int, tagTYPEKIND*)
PUBLIC 71e30 0 CPTLibTypeLibImpl::IsName(unsigned short*, unsigned long, int*)
PUBLIC 72050 0 CPTLibProxImpl::QueryInterface(_GUID const&, void**)
PUBLIC m 72060 0 CPTCompTypeCompImpl::QueryInterface(_GUID const&, void**)
PUBLIC 72080 0 CPTLibUnkImpl::QueryInterface(_GUID const&, void**)
PUBLIC 72160 0 ReadLibAttr(IStream*, tagTLIBATTR*)
PUBLIC 722e0 0 CPTLibProxImpl::Release(void)
PUBLIC m 722f0 0 CPTCompTypeCompImpl::Release(void)
PUBLIC 72310 0 CPTLibUnkImpl::Release(void)
PUBLIC 72380 0 CPTLibTypeLibImpl::ReleaseTLibAttr(tagTLIBATTR*)
PUBLIC 723a4 0 CPTLibTypeLibImpl::SysKind(void)
PUBLIC 724ec 0 WriteLibAttr(IStream*, tagTLIBATTR*)
PUBLIC 725e0 0 CPTCompTypeCompImpl::Bind(unsigned short*, unsigned long, unsigned short, ITypeInfo**, tagDESCKIND*, tagBINDPTR*)
PUBLIC 728c0 0 CPTCompTypeCompImpl::BindType(unsigned short*, unsigned long, ITypeInfo**, ITypeComp**)
PUBLIC 72aa0 0 CPTCompProxImpl::Connect(IRpcChannelBuffer*)
PUBLIC 72af4 0 CProxTypeComp::Create(IUnknown*)
PUBLIC 72b70 0 CPTCompProxImpl::QueryInterface(_GUID const&, void**)
PUBLIC 72b80 0 CPTCompUnkImpl::QueryInterface(_GUID const&, void**)
PUBLIC 72c20 0 CPTCompProxImpl::Release(void)
PUBLIC 72c30 0 CPTCompUnkImpl::Release(void)
PUBLIC 72c9c 0 CPTCompTypeCompImpl::SysKind(void)
PUBLIC 72de4 0 CProxSupportErrorInfo::Create(IUnknown*)
PUBLIC 72e50 0 CPSupErrSupImpl::InterfaceSupportsErrorInfo(_GUID const&)
PUBLIC 72f80 0 CPSupErrProxImpl::QueryInterface(_GUID const&, void**)
PUBLIC 72f90 0 CPSupErrUnkImpl::QueryInterface(_GUID const&, void**)
PUBLIC 73040 0 CPSupErrProxImpl::Release(void)
PUBLIC 73050 0 CPSupErrUnkImpl::Release(void)
PUBLIC 730c0 0 CStubDisp::Connect(IUnknown*)
PUBLIC m 73120 0 CStubTypeInfo::CountRefs(void)
PUBLIC 7313c 0 CStubDisp::Create(IUnknown*, _GUID const&, IRpcStubBuffer**)
PUBLIC m 731d0 0 CStubTypeLib::Disconnect(void)
FUNC 7321c 42 0 DispatchGetSysKind
PUBLIC 73270 0 CStubDisp::Invoke(tagRPCOLEMESSAGE*, IRpcChannelBuffer*)
PUBLIC 73370 0 CStubDisp::IsIIDSupported(_GUID const&)
PUBLIC m 733a0 0 CStubDisp::QueryInterface(_GUID const&, void**)
PUBLIC 73400 0 CStubDisp::Release(void)
PUBLIC 7344c 0 StubGetIDsOfNames(IDispatch*, IStream*)
PUBLIC 738f0 0 StubGetTypeInfo(IDispatch*, IStream*)
PUBLIC 73a0c 0 StubGetTypeInfoCount(IDispatch*, IStream*)
PUBLIC 73a8c 0 StubInvoke(IDispatch*, IStream*)
PUBLIC 73fe0 0 CStubEnumVARIANT::Connect(IUnknown*)
PUBLIC 74038 0 CStubEnumVARIANT::Create(IUnknown*, IRpcStubBuffer**)
FUNC 740b0 8e 0 DispatchClone
FUNC 74144 20f 0 DispatchNext
FUNC 7435c a0 0 DispatchSkip
PUBLIC 74410 0 CStubEnumVARIANT::Invoke(tagRPCOLEMESSAGE*, IRpcChannelBuffer*)
PUBLIC 74520 0 CStubEnumVARIANT::IsIIDSupported(_GUID const&)
PUBLIC 74550 0 CStubEnumVARIANT::Release(void)
PUBLIC 745a0 0 CStubTypeInfo::Connect(IUnknown*)
PUBLIC 74608 0 CStubTypeInfo::Create(IUnknown*, IRpcStubBuffer**, int)
PUBLIC 74698 0 CStubTypeInfo::CreateInstance(void)
PUBLIC 747a0 0 CStubTypeInfo::GetContainingTypeLib(void)
PUBLIC 74864 0 CStubTypeInfo::GetCustData(void)
PUBLIC 7497c 0 CStubTypeInfo::GetCustDataStub(unsigned long)
PUBLIC 74c20 0 CStubTypeInfo::GetDllEntry(void)
PUBLIC 74e04 0 CStubTypeInfo::GetDocumentation(unsigned long)
PUBLIC 750c0 0 CStubTypeInfo::GetFuncCustData(void)
PUBLIC 75218 0 CStubTypeInfo::GetFuncDesc(void)
PUBLIC 75358 0 CStubTypeInfo::GetFuncIndexOfMemId(void)
PUBLIC 7545c 0 CStubTypeInfo::GetImplTypeCustData(void)
PUBLIC 755b4 0 CStubTypeInfo::GetImplTypeFlags(void)
PUBLIC 75678 0 CStubTypeInfo::GetNames(void)
PUBLIC 75898 0 CStubTypeInfo::GetParamCustData(void)
PUBLIC 75a38 0 CStubTypeInfo::GetRefTypeInfo(void)
PUBLIC 75b14 0 CStubTypeInfo::GetRefTypeOfImplType(void)
PUBLIC 75bd0 0 CStubTypeInfo::GetTypeAttr(void)
PUBLIC 75cd4 0 CStubTypeInfo::GetTypeComp(void)
PUBLIC 75d6c 0 CStubTypeInfo::GetTypeFlags(void)
PUBLIC 75de4 0 CStubTypeInfo::GetTypeKind(void)
PUBLIC 75e64 0 CStubTypeInfo::GetVarCustData(void)
PUBLIC 75fbc 0 CStubTypeInfo::GetVarDesc(void)
PUBLIC 760fc 0 CStubTypeInfo::GetVarIndexOfMemId(void)
PUBLIC 761d0 0 CStubTypeInfo::Invoke(tagRPCOLEMESSAGE*, IRpcChannelBuffer*)
PUBLIC 76430 0 CStubTypeInfo::IsIIDSupported(_GUID const&)
PUBLIC 76490 0 CStubTypeInfo::Release(void)
PUBLIC 764e0 0 CStubTypeLib::Connect(IUnknown*)
PUBLIC 76548 0 CStubTypeLib::Create(IUnknown*, IRpcStubBuffer**, int)
PUBLIC 765dc 0 CStubTypeLib::FindName(void)
PUBLIC 76874 0 CStubTypeLib::GetAllCustData(void)
PUBLIC 76978 0 CStubTypeLib::GetCustData(void)
PUBLIC 76a94 0 CStubTypeLib::GetDocumentation(unsigned long)
PUBLIC 76d98 0 CStubTypeLib::GetLibAttr(void)
PUBLIC 76e30 0 CStubTypeLib::GetLibStatistics(void)
PUBLIC 76ee0 0 CStubTypeLib::GetTypeComp(void)
PUBLIC 76f7c 0 CStubTypeLib::GetTypeInfo(void)
PUBLIC 7704c 0 CStubTypeLib::GetTypeInfoCount(void)
PUBLIC 7709c 0 CStubTypeLib::GetTypeInfoOfGuid(void)
PUBLIC 77198 0 CStubTypeLib::GetTypeInfoType(void)
PUBLIC 77260 0 CStubTypeLib::Invoke(tagRPCOLEMESSAGE*, IRpcChannelBuffer*)
PUBLIC 773f0 0 CStubTypeLib::IsIIDSupported(_GUID const&)
PUBLIC 77444 0 CStubTypeLib::IsName(void)
PUBLIC 77560 0 CStubTypeLib::Release(void)
PUBLIC m 775ac 0 CStubTypeLib::SysKind(void)
PUBLIC 77644 0 CStubTypeComp::Bind(void)
PUBLIC 77890 0 CStubTypeComp::BindType(void)
PUBLIC 779b0 0 CStubTypeComp::Connect(IUnknown*)
PUBLIC 77a08 0 CStubTypeComp::Create(IUnknown*, IRpcStubBuffer**)
PUBLIC 77a90 0 CStubTypeComp::Invoke(tagRPCOLEMESSAGE*, IRpcChannelBuffer*)
PUBLIC 77b60 0 CStubTypeComp::IsIIDSupported(_GUID const&)
PUBLIC 77b90 0 CStubTypeComp::Release(void)
PUBLIC 77be0 0 CStubSupportErrorInfo::Connect(IUnknown*)
PUBLIC 77c38 0 CStubSupportErrorInfo::Create(IUnknown*, IRpcStubBuffer**)
FUNC 77cb0 f4 0 DispatchInterfaceSupportsErrorInfo
PUBLIC 77db0 0 CStubSupportErrorInfo::Invoke(tagRPCOLEMESSAGE*, IRpcChannelBuffer*)
PUBLIC 77e60 0 CStubSupportErrorInfo::IsIIDSupported(_GUID const&)
PUBLIC 77e90 0 CStubSupportErrorInfo::Release(void)
PUBLIC 77ee0 0 CStdStubBuffer2_Release
PUBLIC 77ef4 0 NdrpRegisterInterface
PUBLIC 78114 0 OcxDllRegisterServer
PUBLIC m 78450 0 CDispStubWrapper::`vector deleting destructor'(unsigned int)
PUBLIC 7848c 0 CProxyWrapper::`scalar deleting destructor'(unsigned int)
PUBLIC 78520 0 CStubWrapper::Connect(IUnknown*)
PUBLIC 78590 0 CStubWrapper::CountRefs(void)
PUBLIC 785f0 0 CStubWrapper::DebugServerQueryInterface(void**)
PUBLIC 78620 0 CStubWrapper::DebugServerRelease(void*)
PUBLIC 78650 0 CDispStubWrapper::Invoke(tagRPCOLEMESSAGE*, IRpcChannelBuffer*)
PUBLIC 78820 0 CStubWrapper::IsIIDSupported(_GUID const&)
PUBLIC 78860 0 CDispStubWrapper::CDispWrapper::QueryInterface(_GUID const&, void**)
PUBLIC 788b0 0 CDispStubWrapper::CDispWrapper::Release(void)
PUBLIC 788e0 0 UM1000(CProxUniv*, ...)
PUBLIC 78910 0 UM1001(CProxUniv*, ...)
PUBLIC 78940 0 UM1002(CProxUniv*, ...)
PUBLIC 78970 0 UM1003(CProxUniv*, ...)
PUBLIC 789a0 0 UM1004(CProxUniv*, ...)
PUBLIC 789d0 0 UM1005(CProxUniv*, ...)
PUBLIC 78a00 0 UM1006(CProxUniv*, ...)
PUBLIC 78a30 0 UM1007(CProxUniv*, ...)
PUBLIC 78a60 0 UM1008(CProxUniv*, ...)
PUBLIC 78a90 0 UM1009(CProxUniv*, ...)
PUBLIC 78ac0 0 UM100(CProxUniv*, ...)
PUBLIC 78af0 0 UM1010(CProxUniv*, ...)
PUBLIC 78b20 0 UM1011(CProxUniv*, ...)
PUBLIC 78b50 0 UM1012(CProxUniv*, ...)
PUBLIC 78b80 0 UM1013(CProxUniv*, ...)
PUBLIC 78bb0 0 UM1014(CProxUniv*, ...)
PUBLIC 78be0 0 UM1015(CProxUniv*, ...)
PUBLIC 78c10 0 UM1016(CProxUniv*, ...)
PUBLIC 78c40 0 UM1017(CProxUniv*, ...)
PUBLIC 78c70 0 UM1018(CProxUniv*, ...)
PUBLIC 78ca0 0 UM1019(CProxUniv*, ...)
PUBLIC 78cd0 0 UM101(CProxUniv*, ...)
PUBLIC 78d00 0 UM1020(CProxUniv*, ...)
PUBLIC 78d30 0 UM1021(CProxUniv*, ...)
PUBLIC 78d60 0 UM1022(CProxUniv*, ...)
PUBLIC 78d90 0 UM1023(CProxUniv*, ...)
PUBLIC 78dc0 0 UM102(CProxUniv*, ...)
PUBLIC 78df0 0 UM103(CProxUniv*, ...)
PUBLIC 78e20 0 UM104(CProxUniv*, ...)
PUBLIC 78e50 0 UM105(CProxUniv*, ...)
PUBLIC 78e80 0 UM106(CProxUniv*, ...)
PUBLIC 78eb0 0 UM107(CProxUniv*, ...)
PUBLIC 78ee0 0 UM108(CProxUniv*, ...)
PUBLIC 78f10 0 UM109(CProxUniv*, ...)
PUBLIC 78f40 0 UM10(CProxUniv*, ...)
PUBLIC 78f70 0 UM110(CProxUniv*, ...)
PUBLIC 78fa0 0 UM111(CProxUniv*, ...)
PUBLIC 78fd0 0 UM112(CProxUniv*, ...)
PUBLIC 79000 0 UM113(CProxUniv*, ...)
PUBLIC 79030 0 UM114(CProxUniv*, ...)
PUBLIC 79060 0 UM115(CProxUniv*, ...)
PUBLIC 79090 0 UM116(CProxUniv*, ...)
PUBLIC 790c0 0 UM117(CProxUniv*, ...)
PUBLIC 790f0 0 UM118(CProxUniv*, ...)
PUBLIC 79120 0 UM119(CProxUniv*, ...)
PUBLIC 79150 0 UM11(CProxUniv*, ...)
PUBLIC 79180 0 UM120(CProxUniv*, ...)
PUBLIC 791b0 0 UM121(CProxUniv*, ...)
PUBLIC 791e0 0 UM122(CProxUniv*, ...)
PUBLIC 79210 0 UM123(CProxUniv*, ...)
PUBLIC 79240 0 UM124(CProxUniv*, ...)
PUBLIC 79270 0 UM125(CProxUniv*, ...)
PUBLIC 792a0 0 UM126(CProxUniv*, ...)
PUBLIC 792d0 0 UM127(CProxUniv*, ...)
PUBLIC 79300 0 UM128(CProxUniv*, ...)
PUBLIC 79330 0 UM129(CProxUniv*, ...)
PUBLIC 79360 0 UM12(CProxUniv*, ...)
PUBLIC 79390 0 UM130(CProxUniv*, ...)
PUBLIC 793c0 0 UM131(CProxUniv*, ...)
PUBLIC 793f0 0 UM132(CProxUniv*, ...)
PUBLIC 79420 0 UM133(CProxUniv*, ...)
PUBLIC 79450 0 UM134(CProxUniv*, ...)
PUBLIC 79480 0 UM135(CProxUniv*, ...)
PUBLIC 794b0 0 UM136(CProxUniv*, ...)
PUBLIC 794e0 0 UM137(CProxUniv*, ...)
PUBLIC 79510 0 UM138(CProxUniv*, ...)
PUBLIC 79540 0 UM139(CProxUniv*, ...)
PUBLIC 79570 0 UM13(CProxUniv*, ...)
PUBLIC 795a0 0 UM140(CProxUniv*, ...)
PUBLIC 795d0 0 UM141(CProxUniv*, ...)
PUBLIC 79600 0 UM142(CProxUniv*, ...)
PUBLIC 79630 0 UM143(CProxUniv*, ...)
PUBLIC 79660 0 UM144(CProxUniv*, ...)
PUBLIC 79690 0 UM145(CProxUniv*, ...)
PUBLIC 796c0 0 UM146(CProxUniv*, ...)
PUBLIC 796f0 0 UM147(CProxUniv*, ...)
PUBLIC 79720 0 UM148(CProxUniv*, ...)
PUBLIC 79750 0 UM149(CProxUniv*, ...)
PUBLIC 79780 0 UM14(CProxUniv*, ...)
PUBLIC 797b0 0 UM150(CProxUniv*, ...)
PUBLIC 797e0 0 UM151(CProxUniv*, ...)
PUBLIC 79810 0 UM152(CProxUniv*, ...)
PUBLIC 79840 0 UM153(CProxUniv*, ...)
PUBLIC 79870 0 UM154(CProxUniv*, ...)
PUBLIC 798a0 0 UM155(CProxUniv*, ...)
PUBLIC 798d0 0 UM156(CProxUniv*, ...)
PUBLIC 79900 0 UM157(CProxUniv*, ...)
PUBLIC 79930 0 UM158(CProxUniv*, ...)
PUBLIC 79960 0 UM159(CProxUniv*, ...)
PUBLIC 79990 0 UM15(CProxUniv*, ...)
PUBLIC 799c0 0 UM160(CProxUniv*, ...)
PUBLIC 799f0 0 UM161(CProxUniv*, ...)
PUBLIC 79a20 0 UM162(CProxUniv*, ...)
PUBLIC 79a50 0 UM163(CProxUniv*, ...)
PUBLIC 79a80 0 UM164(CProxUniv*, ...)
PUBLIC 79ab0 0 UM165(CProxUniv*, ...)
PUBLIC 79ae0 0 UM166(CProxUniv*, ...)
PUBLIC 79b10 0 UM167(CProxUniv*, ...)
PUBLIC 79b40 0 UM168(CProxUniv*, ...)
PUBLIC 79b70 0 UM169(CProxUniv*, ...)
PUBLIC 79ba0 0 UM16(CProxUniv*, ...)
PUBLIC 79bd0 0 UM170(CProxUniv*, ...)
PUBLIC 79c00 0 UM171(CProxUniv*, ...)
PUBLIC 79c30 0 UM172(CProxUniv*, ...)
PUBLIC 79c60 0 UM173(CProxUniv*, ...)
PUBLIC 79c90 0 UM174(CProxUniv*, ...)
PUBLIC 79cc0 0 UM175(CProxUniv*, ...)
PUBLIC 79cf0 0 UM176(CProxUniv*, ...)
PUBLIC 79d20 0 UM177(CProxUniv*, ...)
PUBLIC 79d50 0 UM178(CProxUniv*, ...)
PUBLIC 79d80 0 UM179(CProxUniv*, ...)
PUBLIC 79db0 0 UM17(CProxUniv*, ...)
PUBLIC 79de0 0 UM180(CProxUniv*, ...)
PUBLIC 79e10 0 UM181(CProxUniv*, ...)
PUBLIC 79e40 0 UM182(CProxUniv*, ...)
PUBLIC 79e70 0 UM183(CProxUniv*, ...)
PUBLIC 79ea0 0 UM184(CProxUniv*, ...)
PUBLIC 79ed0 0 UM185(CProxUniv*, ...)
PUBLIC 79f00 0 UM186(CProxUniv*, ...)
PUBLIC 79f30 0 UM187(CProxUniv*, ...)
PUBLIC 79f60 0 UM188(CProxUniv*, ...)
PUBLIC 79f90 0 UM189(CProxUniv*, ...)
PUBLIC 79fc0 0 UM18(CProxUniv*, ...)
PUBLIC 79ff0 0 UM190(CProxUniv*, ...)
PUBLIC 7a020 0 UM191(CProxUniv*, ...)
PUBLIC 7a050 0 UM192(CProxUniv*, ...)
PUBLIC 7a080 0 UM193(CProxUniv*, ...)
PUBLIC 7a0b0 0 UM194(CProxUniv*, ...)
PUBLIC 7a0e0 0 UM195(CProxUniv*, ...)
PUBLIC 7a110 0 UM196(CProxUniv*, ...)
PUBLIC 7a140 0 UM197(CProxUniv*, ...)
PUBLIC 7a170 0 UM198(CProxUniv*, ...)
PUBLIC 7a1a0 0 UM199(CProxUniv*, ...)
PUBLIC 7a1d0 0 UM19(CProxUniv*, ...)
PUBLIC 7a200 0 UM200(CProxUniv*, ...)
PUBLIC 7a230 0 UM201(CProxUniv*, ...)
PUBLIC 7a260 0 UM202(CProxUniv*, ...)
PUBLIC 7a290 0 UM203(CProxUniv*, ...)
PUBLIC 7a2c0 0 UM204(CProxUniv*, ...)
PUBLIC 7a2f0 0 UM205(CProxUniv*, ...)
PUBLIC 7a320 0 UM206(CProxUniv*, ...)
PUBLIC 7a350 0 UM207(CProxUniv*, ...)
PUBLIC 7a380 0 UM208(CProxUniv*, ...)
PUBLIC 7a3b0 0 UM209(CProxUniv*, ...)
PUBLIC 7a3e0 0 UM20(CProxUniv*, ...)
PUBLIC 7a410 0 UM210(CProxUniv*, ...)
PUBLIC 7a440 0 UM211(CProxUniv*, ...)
PUBLIC 7a470 0 UM212(CProxUniv*, ...)
PUBLIC 7a4a0 0 UM213(CProxUniv*, ...)
PUBLIC 7a4d0 0 UM214(CProxUniv*, ...)
PUBLIC 7a500 0 UM215(CProxUniv*, ...)
PUBLIC 7a530 0 UM216(CProxUniv*, ...)
PUBLIC 7a560 0 UM217(CProxUniv*, ...)
PUBLIC 7a590 0 UM218(CProxUniv*, ...)
PUBLIC 7a5c0 0 UM219(CProxUniv*, ...)
PUBLIC 7a5f0 0 UM21(CProxUniv*, ...)
PUBLIC 7a620 0 UM220(CProxUniv*, ...)
PUBLIC 7a650 0 UM221(CProxUniv*, ...)
PUBLIC 7a680 0 UM222(CProxUniv*, ...)
PUBLIC 7a6b0 0 UM223(CProxUniv*, ...)
PUBLIC 7a6e0 0 UM224(CProxUniv*, ...)
PUBLIC 7a710 0 UM225(CProxUniv*, ...)
PUBLIC 7a740 0 UM226(CProxUniv*, ...)
PUBLIC 7a770 0 UM227(CProxUniv*, ...)
PUBLIC 7a7a0 0 UM228(CProxUniv*, ...)
PUBLIC 7a7d0 0 UM229(CProxUniv*, ...)
PUBLIC 7a800 0 UM22(CProxUniv*, ...)
PUBLIC 7a830 0 UM230(CProxUniv*, ...)
PUBLIC 7a860 0 UM231(CProxUniv*, ...)
PUBLIC 7a890 0 UM232(CProxUniv*, ...)
PUBLIC 7a8c0 0 UM233(CProxUniv*, ...)
PUBLIC 7a8f0 0 UM234(CProxUniv*, ...)
PUBLIC 7a920 0 UM235(CProxUniv*, ...)
PUBLIC 7a950 0 UM236(CProxUniv*, ...)
PUBLIC 7a980 0 UM237(CProxUniv*, ...)
PUBLIC 7a9b0 0 UM238(CProxUniv*, ...)
PUBLIC 7a9e0 0 UM239(CProxUniv*, ...)
PUBLIC 7aa10 0 UM23(CProxUniv*, ...)
PUBLIC 7aa40 0 UM240(CProxUniv*, ...)
PUBLIC 7aa70 0 UM241(CProxUniv*, ...)
PUBLIC 7aaa0 0 UM242(CProxUniv*, ...)
PUBLIC 7aad0 0 UM243(CProxUniv*, ...)
PUBLIC 7ab00 0 UM244(CProxUniv*, ...)
PUBLIC 7ab30 0 UM245(CProxUniv*, ...)
PUBLIC 7ab60 0 UM246(CProxUniv*, ...)
PUBLIC 7ab90 0 UM247(CProxUniv*, ...)
PUBLIC 7abc0 0 UM248(CProxUniv*, ...)
PUBLIC 7abf0 0 UM249(CProxUniv*, ...)
PUBLIC 7ac20 0 UM24(CProxUniv*, ...)
PUBLIC 7ac50 0 UM250(CProxUniv*, ...)
PUBLIC 7ac80 0 UM251(CProxUniv*, ...)
PUBLIC 7acb0 0 UM252(CProxUniv*, ...)
PUBLIC 7ace0 0 UM253(CProxUniv*, ...)
PUBLIC 7ad10 0 UM254(CProxUniv*, ...)
PUBLIC 7ad40 0 UM255(CProxUniv*, ...)
PUBLIC 7ad70 0 UM256(CProxUniv*, ...)
PUBLIC 7ada0 0 UM257(CProxUniv*, ...)
PUBLIC 7add0 0 UM258(CProxUniv*, ...)
PUBLIC 7ae00 0 UM259(CProxUniv*, ...)
PUBLIC 7ae30 0 UM25(CProxUniv*, ...)
PUBLIC 7ae60 0 UM260(CProxUniv*, ...)
PUBLIC 7ae90 0 UM261(CProxUniv*, ...)
PUBLIC 7aec0 0 UM262(CProxUniv*, ...)
PUBLIC 7aef0 0 UM263(CProxUniv*, ...)
PUBLIC 7af20 0 UM264(CProxUniv*, ...)
PUBLIC 7af50 0 UM265(CProxUniv*, ...)
PUBLIC 7af80 0 UM266(CProxUniv*, ...)
PUBLIC 7afb0 0 UM267(CProxUniv*, ...)
PUBLIC 7afe0 0 UM268(CProxUniv*, ...)
PUBLIC 7b010 0 UM269(CProxUniv*, ...)
PUBLIC 7b040 0 UM26(CProxUniv*, ...)
PUBLIC 7b070 0 UM270(CProxUniv*, ...)
PUBLIC 7b0a0 0 UM271(CProxUniv*, ...)
PUBLIC 7b0d0 0 UM272(CProxUniv*, ...)
PUBLIC 7b100 0 UM273(CProxUniv*, ...)
PUBLIC 7b130 0 UM274(CProxUniv*, ...)
PUBLIC 7b160 0 UM275(CProxUniv*, ...)
PUBLIC 7b190 0 UM276(CProxUniv*, ...)
PUBLIC 7b1c0 0 UM277(CProxUniv*, ...)
PUBLIC 7b1f0 0 UM278(CProxUniv*, ...)
PUBLIC 7b220 0 UM279(CProxUniv*, ...)
PUBLIC 7b250 0 UM27(CProxUniv*, ...)
PUBLIC 7b280 0 UM280(CProxUniv*, ...)
PUBLIC 7b2b0 0 UM281(CProxUniv*, ...)
PUBLIC 7b2e0 0 UM282(CProxUniv*, ...)
PUBLIC 7b310 0 UM283(CProxUniv*, ...)
PUBLIC 7b340 0 UM284(CProxUniv*, ...)
PUBLIC 7b370 0 UM285(CProxUniv*, ...)
PUBLIC 7b3a0 0 UM286(CProxUniv*, ...)
PUBLIC 7b3d0 0 UM287(CProxUniv*, ...)
PUBLIC 7b400 0 UM288(CProxUniv*, ...)
PUBLIC 7b430 0 UM289(CProxUniv*, ...)
PUBLIC 7b460 0 UM28(CProxUniv*, ...)
PUBLIC 7b490 0 UM290(CProxUniv*, ...)
PUBLIC 7b4c0 0 UM291(CProxUniv*, ...)
PUBLIC 7b4f0 0 UM292(CProxUniv*, ...)
PUBLIC 7b520 0 UM293(CProxUniv*, ...)
PUBLIC 7b550 0 UM294(CProxUniv*, ...)
PUBLIC 7b580 0 UM295(CProxUniv*, ...)
PUBLIC 7b5b0 0 UM296(CProxUniv*, ...)
PUBLIC 7b5e0 0 UM297(CProxUniv*, ...)
PUBLIC 7b610 0 UM298(CProxUniv*, ...)
PUBLIC 7b640 0 UM299(CProxUniv*, ...)
PUBLIC 7b670 0 UM29(CProxUniv*, ...)
PUBLIC 7b6a0 0 UM300(CProxUniv*, ...)
PUBLIC 7b6d0 0 UM301(CProxUniv*, ...)
PUBLIC 7b700 0 UM302(CProxUniv*, ...)
PUBLIC 7b730 0 UM303(CProxUniv*, ...)
PUBLIC 7b760 0 UM304(CProxUniv*, ...)
PUBLIC 7b790 0 UM305(CProxUniv*, ...)
PUBLIC 7b7c0 0 UM306(CProxUniv*, ...)
PUBLIC 7b7f0 0 UM307(CProxUniv*, ...)
PUBLIC 7b820 0 UM308(CProxUniv*, ...)
PUBLIC 7b850 0 UM309(CProxUniv*, ...)
PUBLIC 7b880 0 UM30(CProxUniv*, ...)
PUBLIC 7b8b0 0 UM310(CProxUniv*, ...)
PUBLIC 7b8e0 0 UM311(CProxUniv*, ...)
PUBLIC 7b910 0 UM312(CProxUniv*, ...)
PUBLIC 7b940 0 UM313(CProxUniv*, ...)
PUBLIC 7b970 0 UM314(CProxUniv*, ...)
PUBLIC 7b9a0 0 UM315(CProxUniv*, ...)
PUBLIC 7b9d0 0 UM316(CProxUniv*, ...)
PUBLIC 7ba00 0 UM317(CProxUniv*, ...)
PUBLIC 7ba30 0 UM318(CProxUniv*, ...)
PUBLIC 7ba60 0 UM319(CProxUniv*, ...)
PUBLIC 7ba90 0 UM31(CProxUniv*, ...)
PUBLIC 7bac0 0 UM320(CProxUniv*, ...)
PUBLIC 7baf0 0 UM321(CProxUniv*, ...)
PUBLIC 7bb20 0 UM322(CProxUniv*, ...)
PUBLIC 7bb50 0 UM323(CProxUniv*, ...)
PUBLIC 7bb80 0 UM324(CProxUniv*, ...)
PUBLIC 7bbb0 0 UM325(CProxUniv*, ...)
PUBLIC 7bbe0 0 UM326(CProxUniv*, ...)
PUBLIC 7bc10 0 UM327(CProxUniv*, ...)
PUBLIC 7bc40 0 UM328(CProxUniv*, ...)
PUBLIC 7bc70 0 UM329(CProxUniv*, ...)
PUBLIC 7bca0 0 UM32(CProxUniv*, ...)
PUBLIC 7bcd0 0 UM330(CProxUniv*, ...)
PUBLIC 7bd00 0 UM331(CProxUniv*, ...)
PUBLIC 7bd30 0 UM332(CProxUniv*, ...)
PUBLIC 7bd60 0 UM333(CProxUniv*, ...)
PUBLIC 7bd90 0 UM334(CProxUniv*, ...)
PUBLIC 7bdc0 0 UM335(CProxUniv*, ...)
PUBLIC 7bdf0 0 UM336(CProxUniv*, ...)
PUBLIC 7be20 0 UM337(CProxUniv*, ...)
PUBLIC 7be50 0 UM338(CProxUniv*, ...)
PUBLIC 7be80 0 UM339(CProxUniv*, ...)
PUBLIC 7beb0 0 UM33(CProxUniv*, ...)
PUBLIC 7bee0 0 UM340(CProxUniv*, ...)
PUBLIC 7bf10 0 UM341(CProxUniv*, ...)
PUBLIC 7bf40 0 UM342(CProxUniv*, ...)
PUBLIC 7bf70 0 UM343(CProxUniv*, ...)
PUBLIC 7bfa0 0 UM344(CProxUniv*, ...)
PUBLIC 7bfd0 0 UM345(CProxUniv*, ...)
PUBLIC 7c000 0 UM346(CProxUniv*, ...)
PUBLIC 7c030 0 UM347(CProxUniv*, ...)
PUBLIC 7c060 0 UM348(CProxUniv*, ...)
PUBLIC 7c090 0 UM349(CProxUniv*, ...)
PUBLIC 7c0c0 0 UM34(CProxUniv*, ...)
PUBLIC 7c0f0 0 UM350(CProxUniv*, ...)
PUBLIC 7c120 0 UM351(CProxUniv*, ...)
PUBLIC 7c150 0 UM352(CProxUniv*, ...)
PUBLIC 7c180 0 UM353(CProxUniv*, ...)
PUBLIC 7c1b0 0 UM354(CProxUniv*, ...)
PUBLIC 7c1e0 0 UM355(CProxUniv*, ...)
PUBLIC 7c210 0 UM356(CProxUniv*, ...)
PUBLIC 7c240 0 UM357(CProxUniv*, ...)
PUBLIC 7c270 0 UM358(CProxUniv*, ...)
PUBLIC 7c2a0 0 UM359(CProxUniv*, ...)
PUBLIC 7c2d0 0 UM35(CProxUniv*, ...)
PUBLIC 7c300 0 UM360(CProxUniv*, ...)
PUBLIC 7c330 0 UM361(CProxUniv*, ...)
PUBLIC 7c360 0 UM362(CProxUniv*, ...)
PUBLIC 7c390 0 UM363(CProxUniv*, ...)
PUBLIC 7c3c0 0 UM364(CProxUniv*, ...)
PUBLIC 7c3f0 0 UM365(CProxUniv*, ...)
PUBLIC 7c420 0 UM366(CProxUniv*, ...)
PUBLIC 7c450 0 UM367(CProxUniv*, ...)
PUBLIC 7c480 0 UM368(CProxUniv*, ...)
PUBLIC 7c4b0 0 UM369(CProxUniv*, ...)
PUBLIC 7c4e0 0 UM36(CProxUniv*, ...)
PUBLIC 7c510 0 UM370(CProxUniv*, ...)
PUBLIC 7c540 0 UM371(CProxUniv*, ...)
PUBLIC 7c570 0 UM372(CProxUniv*, ...)
PUBLIC 7c5a0 0 UM373(CProxUniv*, ...)
PUBLIC 7c5d0 0 UM374(CProxUniv*, ...)
PUBLIC 7c600 0 UM375(CProxUniv*, ...)
PUBLIC 7c630 0 UM376(CProxUniv*, ...)
PUBLIC 7c660 0 UM377(CProxUniv*, ...)
PUBLIC 7c690 0 UM378(CProxUniv*, ...)
PUBLIC 7c6c0 0 UM379(CProxUniv*, ...)
PUBLIC 7c6f0 0 UM37(CProxUniv*, ...)
PUBLIC 7c720 0 UM380(CProxUniv*, ...)
PUBLIC 7c750 0 UM381(CProxUniv*, ...)
PUBLIC 7c780 0 UM382(CProxUniv*, ...)
PUBLIC 7c7b0 0 UM383(CProxUniv*, ...)
PUBLIC 7c7e0 0 UM384(CProxUniv*, ...)
PUBLIC 7c810 0 UM385(CProxUniv*, ...)
PUBLIC 7c840 0 UM386(CProxUniv*, ...)
PUBLIC 7c870 0 UM387(CProxUniv*, ...)
PUBLIC 7c8a0 0 UM388(CProxUniv*, ...)
PUBLIC 7c8d0 0 UM389(CProxUniv*, ...)
PUBLIC 7c900 0 UM38(CProxUniv*, ...)
PUBLIC 7c930 0 UM390(CProxUniv*, ...)
PUBLIC 7c960 0 UM391(CProxUniv*, ...)
PUBLIC 7c990 0 UM392(CProxUniv*, ...)
PUBLIC 7c9c0 0 UM393(CProxUniv*, ...)
PUBLIC 7c9f0 0 UM394(CProxUniv*, ...)
PUBLIC 7ca20 0 UM395(CProxUniv*, ...)
PUBLIC 7ca50 0 UM396(CProxUniv*, ...)
PUBLIC 7ca80 0 UM397(CProxUniv*, ...)
PUBLIC 7cab0 0 UM398(CProxUniv*, ...)
PUBLIC 7cae0 0 UM399(CProxUniv*, ...)
PUBLIC 7cb10 0 UM39(CProxUniv*, ...)
PUBLIC 7cb40 0 UM3(CProxUniv*, ...)
PUBLIC 7cb70 0 UM400(CProxUniv*, ...)
PUBLIC 7cba0 0 UM401(CProxUniv*, ...)
PUBLIC 7cbd0 0 UM402(CProxUniv*, ...)
PUBLIC 7cc00 0 UM403(CProxUniv*, ...)
PUBLIC 7cc30 0 UM404(CProxUniv*, ...)
PUBLIC 7cc60 0 UM405(CProxUniv*, ...)
PUBLIC 7cc90 0 UM406(CProxUniv*, ...)
PUBLIC 7ccc0 0 UM407(CProxUniv*, ...)
PUBLIC 7ccf0 0 UM408(CProxUniv*, ...)
PUBLIC 7cd20 0 UM409(CProxUniv*, ...)
PUBLIC 7cd50 0 UM40(CProxUniv*, ...)
PUBLIC 7cd80 0 UM410(CProxUniv*, ...)
PUBLIC 7cdb0 0 UM411(CProxUniv*, ...)
PUBLIC 7cde0 0 UM412(CProxUniv*, ...)
PUBLIC 7ce10 0 UM413(CProxUniv*, ...)
PUBLIC 7ce40 0 UM414(CProxUniv*, ...)
PUBLIC 7ce70 0 UM415(CProxUniv*, ...)
PUBLIC 7cea0 0 UM416(CProxUniv*, ...)
PUBLIC 7ced0 0 UM417(CProxUniv*, ...)
PUBLIC 7cf00 0 UM418(CProxUniv*, ...)
PUBLIC 7cf30 0 UM419(CProxUniv*, ...)
PUBLIC 7cf60 0 UM41(CProxUniv*, ...)
PUBLIC 7cf90 0 UM420(CProxUniv*, ...)
PUBLIC 7cfc0 0 UM421(CProxUniv*, ...)
PUBLIC 7cff0 0 UM422(CProxUniv*, ...)
PUBLIC 7d020 0 UM423(CProxUniv*, ...)
PUBLIC 7d050 0 UM424(CProxUniv*, ...)
PUBLIC 7d080 0 UM425(CProxUniv*, ...)
PUBLIC 7d0b0 0 UM426(CProxUniv*, ...)
PUBLIC 7d0e0 0 UM427(CProxUniv*, ...)
PUBLIC 7d110 0 UM428(CProxUniv*, ...)
PUBLIC 7d140 0 UM429(CProxUniv*, ...)
PUBLIC 7d170 0 UM42(CProxUniv*, ...)
PUBLIC 7d1a0 0 UM430(CProxUniv*, ...)
PUBLIC 7d1d0 0 UM431(CProxUniv*, ...)
PUBLIC 7d200 0 UM432(CProxUniv*, ...)
PUBLIC 7d230 0 UM433(CProxUniv*, ...)
PUBLIC 7d260 0 UM434(CProxUniv*, ...)
PUBLIC 7d290 0 UM435(CProxUniv*, ...)
PUBLIC 7d2c0 0 UM436(CProxUniv*, ...)
PUBLIC 7d2f0 0 UM437(CProxUniv*, ...)
PUBLIC 7d320 0 UM438(CProxUniv*, ...)
PUBLIC 7d350 0 UM439(CProxUniv*, ...)
PUBLIC 7d380 0 UM43(CProxUniv*, ...)
PUBLIC 7d3b0 0 UM440(CProxUniv*, ...)
PUBLIC 7d3e0 0 UM441(CProxUniv*, ...)
PUBLIC 7d410 0 UM442(CProxUniv*, ...)
PUBLIC 7d440 0 UM443(CProxUniv*, ...)
PUBLIC 7d470 0 UM444(CProxUniv*, ...)
PUBLIC 7d4a0 0 UM445(CProxUniv*, ...)
PUBLIC 7d4d0 0 UM446(CProxUniv*, ...)
PUBLIC 7d500 0 UM447(CProxUniv*, ...)
PUBLIC 7d530 0 UM448(CProxUniv*, ...)
PUBLIC 7d560 0 UM449(CProxUniv*, ...)
PUBLIC 7d590 0 UM44(CProxUniv*, ...)
PUBLIC 7d5c0 0 UM450(CProxUniv*, ...)
PUBLIC 7d5f0 0 UM451(CProxUniv*, ...)
PUBLIC 7d620 0 UM452(CProxUniv*, ...)
PUBLIC 7d650 0 UM453(CProxUniv*, ...)
PUBLIC 7d680 0 UM454(CProxUniv*, ...)
PUBLIC 7d6b0 0 UM455(CProxUniv*, ...)
PUBLIC 7d6e0 0 UM456(CProxUniv*, ...)
PUBLIC 7d710 0 UM457(CProxUniv*, ...)
PUBLIC 7d740 0 UM458(CProxUniv*, ...)
PUBLIC 7d770 0 UM459(CProxUniv*, ...)
PUBLIC 7d7a0 0 UM45(CProxUniv*, ...)
PUBLIC 7d7d0 0 UM460(CProxUniv*, ...)
PUBLIC 7d800 0 UM461(CProxUniv*, ...)
PUBLIC 7d830 0 UM462(CProxUniv*, ...)
PUBLIC 7d860 0 UM463(CProxUniv*, ...)
PUBLIC 7d890 0 UM464(CProxUniv*, ...)
PUBLIC 7d8c0 0 UM465(CProxUniv*, ...)
PUBLIC 7d8f0 0 UM466(CProxUniv*, ...)
PUBLIC 7d920 0 UM467(CProxUniv*, ...)
PUBLIC 7d950 0 UM468(CProxUniv*, ...)
PUBLIC 7d980 0 UM469(CProxUniv*, ...)
PUBLIC 7d9b0 0 UM46(CProxUniv*, ...)
PUBLIC 7d9e0 0 UM470(CProxUniv*, ...)
PUBLIC 7da10 0 UM471(CProxUniv*, ...)
PUBLIC 7da40 0 UM472(CProxUniv*, ...)
PUBLIC 7da70 0 UM473(CProxUniv*, ...)
PUBLIC 7daa0 0 UM474(CProxUniv*, ...)
PUBLIC 7dad0 0 UM475(CProxUniv*, ...)
PUBLIC 7db00 0 UM476(CProxUniv*, ...)
PUBLIC 7db30 0 UM477(CProxUniv*, ...)
PUBLIC 7db60 0 UM478(CProxUniv*, ...)
PUBLIC 7db90 0 UM479(CProxUniv*, ...)
PUBLIC 7dbc0 0 UM47(CProxUniv*, ...)
PUBLIC 7dbf0 0 UM480(CProxUniv*, ...)
PUBLIC 7dc20 0 UM481(CProxUniv*, ...)
PUBLIC 7dc50 0 UM482(CProxUniv*, ...)
PUBLIC 7dc80 0 UM483(CProxUniv*, ...)
PUBLIC 7dcb0 0 UM484(CProxUniv*, ...)
PUBLIC 7dce0 0 UM485(CProxUniv*, ...)
PUBLIC 7dd10 0 UM486(CProxUniv*, ...)
PUBLIC 7dd40 0 UM487(CProxUniv*, ...)
PUBLIC 7dd70 0 UM488(CProxUniv*, ...)
PUBLIC 7dda0 0 UM489(CProxUniv*, ...)
PUBLIC 7ddd0 0 UM48(CProxUniv*, ...)
PUBLIC 7de00 0 UM490(CProxUniv*, ...)
PUBLIC 7de30 0 UM491(CProxUniv*, ...)
PUBLIC 7de60 0 UM492(CProxUniv*, ...)
PUBLIC 7de90 0 UM493(CProxUniv*, ...)
PUBLIC 7dec0 0 UM494(CProxUniv*, ...)
PUBLIC 7def0 0 UM495(CProxUniv*, ...)
PUBLIC 7df20 0 UM496(CProxUniv*, ...)
PUBLIC 7df50 0 UM497(CProxUniv*, ...)
PUBLIC 7df80 0 UM498(CProxUniv*, ...)
PUBLIC 7dfb0 0 UM499(CProxUniv*, ...)
PUBLIC 7dfe0 0 UM49(CProxUniv*, ...)
PUBLIC 7e010 0 UM4(CProxUniv*, ...)
PUBLIC 7e040 0 UM500(CProxUniv*, ...)
PUBLIC 7e070 0 UM501(CProxUniv*, ...)
PUBLIC 7e0a0 0 UM502(CProxUniv*, ...)
PUBLIC 7e0d0 0 UM503(CProxUniv*, ...)
PUBLIC 7e100 0 UM504(CProxUniv*, ...)
PUBLIC 7e130 0 UM505(CProxUniv*, ...)
PUBLIC 7e160 0 UM506(CProxUniv*, ...)
PUBLIC 7e190 0 UM507(CProxUniv*, ...)
PUBLIC 7e1c0 0 UM508(CProxUniv*, ...)
PUBLIC 7e1f0 0 UM509(CProxUniv*, ...)
PUBLIC 7e220 0 UM50(CProxUniv*, ...)
PUBLIC 7e250 0 UM510(CProxUniv*, ...)
PUBLIC 7e280 0 UM511(CProxUniv*, ...)
PUBLIC 7e2b0 0 UM512(CProxUniv*, ...)
PUBLIC 7e2e0 0 UM513(CProxUniv*, ...)
PUBLIC 7e310 0 UM514(CProxUniv*, ...)
PUBLIC 7e340 0 UM515(CProxUniv*, ...)
PUBLIC 7e370 0 UM516(CProxUniv*, ...)
PUBLIC 7e3a0 0 UM517(CProxUniv*, ...)
PUBLIC 7e3d0 0 UM518(CProxUniv*, ...)
PUBLIC 7e400 0 UM519(CProxUniv*, ...)
PUBLIC 7e430 0 UM51(CProxUniv*, ...)
PUBLIC 7e460 0 UM520(CProxUniv*, ...)
PUBLIC 7e490 0 UM521(CProxUniv*, ...)
PUBLIC 7e4c0 0 UM522(CProxUniv*, ...)
PUBLIC 7e4f0 0 UM523(CProxUniv*, ...)
PUBLIC 7e520 0 UM524(CProxUniv*, ...)
PUBLIC 7e550 0 UM525(CProxUniv*, ...)
PUBLIC 7e580 0 UM526(CProxUniv*, ...)
PUBLIC 7e5b0 0 UM527(CProxUniv*, ...)
PUBLIC 7e5e0 0 UM528(CProxUniv*, ...)
PUBLIC 7e610 0 UM529(CProxUniv*, ...)
PUBLIC 7e640 0 UM52(CProxUniv*, ...)
PUBLIC 7e670 0 UM530(CProxUniv*, ...)
PUBLIC 7e6a0 0 UM531(CProxUniv*, ...)
PUBLIC 7e6d0 0 UM532(CProxUniv*, ...)
PUBLIC 7e700 0 UM533(CProxUniv*, ...)
PUBLIC 7e730 0 UM534(CProxUniv*, ...)
PUBLIC 7e760 0 UM535(CProxUniv*, ...)
PUBLIC 7e790 0 UM536(CProxUniv*, ...)
PUBLIC 7e7c0 0 UM537(CProxUniv*, ...)
PUBLIC 7e7f0 0 UM538(CProxUniv*, ...)
PUBLIC 7e820 0 UM539(CProxUniv*, ...)
PUBLIC 7e850 0 UM53(CProxUniv*, ...)
PUBLIC 7e880 0 UM540(CProxUniv*, ...)
PUBLIC 7e8b0 0 UM541(CProxUniv*, ...)
PUBLIC 7e8e0 0 UM542(CProxUniv*, ...)
PUBLIC 7e910 0 UM543(CProxUniv*, ...)
PUBLIC 7e940 0 UM544(CProxUniv*, ...)
PUBLIC 7e970 0 UM545(CProxUniv*, ...)
PUBLIC 7e9a0 0 UM546(CProxUniv*, ...)
PUBLIC 7e9d0 0 UM547(CProxUniv*, ...)
PUBLIC 7ea00 0 UM548(CProxUniv*, ...)
PUBLIC 7ea30 0 UM549(CProxUniv*, ...)
PUBLIC 7ea60 0 UM54(CProxUniv*, ...)
PUBLIC 7ea90 0 UM550(CProxUniv*, ...)
PUBLIC 7eac0 0 UM551(CProxUniv*, ...)
PUBLIC 7eaf0 0 UM552(CProxUniv*, ...)
PUBLIC 7eb20 0 UM553(CProxUniv*, ...)
PUBLIC 7eb50 0 UM554(CProxUniv*, ...)
PUBLIC 7eb80 0 UM555(CProxUniv*, ...)
PUBLIC 7ebb0 0 UM556(CProxUniv*, ...)
PUBLIC 7ebe0 0 UM557(CProxUniv*, ...)
PUBLIC 7ec10 0 UM558(CProxUniv*, ...)
PUBLIC 7ec40 0 UM559(CProxUniv*, ...)
PUBLIC 7ec70 0 UM55(CProxUniv*, ...)
PUBLIC 7eca0 0 UM560(CProxUniv*, ...)
PUBLIC 7ecd0 0 UM561(CProxUniv*, ...)
PUBLIC 7ed00 0 UM562(CProxUniv*, ...)
PUBLIC 7ed30 0 UM563(CProxUniv*, ...)
PUBLIC 7ed60 0 UM564(CProxUniv*, ...)
PUBLIC 7ed90 0 UM565(CProxUniv*, ...)
PUBLIC 7edc0 0 UM566(CProxUniv*, ...)
PUBLIC 7edf0 0 UM567(CProxUniv*, ...)
PUBLIC 7ee20 0 UM568(CProxUniv*, ...)
PUBLIC 7ee50 0 UM569(CProxUniv*, ...)
PUBLIC 7ee80 0 UM56(CProxUniv*, ...)
PUBLIC 7eeb0 0 UM570(CProxUniv*, ...)
PUBLIC 7eee0 0 UM571(CProxUniv*, ...)
PUBLIC 7ef10 0 UM572(CProxUniv*, ...)
PUBLIC 7ef40 0 UM573(CProxUniv*, ...)
PUBLIC 7ef70 0 UM574(CProxUniv*, ...)
PUBLIC 7efa0 0 UM575(CProxUniv*, ...)
PUBLIC 7efd0 0 UM576(CProxUniv*, ...)
PUBLIC 7f000 0 UM577(CProxUniv*, ...)
PUBLIC 7f030 0 UM578(CProxUniv*, ...)
PUBLIC 7f060 0 UM579(CProxUniv*, ...)
PUBLIC 7f090 0 UM57(CProxUniv*, ...)
PUBLIC 7f0c0 0 UM580(CProxUniv*, ...)
PUBLIC 7f0f0 0 UM581(CProxUniv*, ...)
PUBLIC 7f120 0 UM582(CProxUniv*, ...)
PUBLIC 7f150 0 UM583(CProxUniv*, ...)
PUBLIC 7f180 0 UM584(CProxUniv*, ...)
PUBLIC 7f1b0 0 UM585(CProxUniv*, ...)
PUBLIC 7f1e0 0 UM586(CProxUniv*, ...)
PUBLIC 7f210 0 UM587(CProxUniv*, ...)
PUBLIC 7f240 0 UM588(CProxUniv*, ...)
PUBLIC 7f270 0 UM589(CProxUniv*, ...)
PUBLIC 7f2a0 0 UM58(CProxUniv*, ...)
PUBLIC 7f2d0 0 UM590(CProxUniv*, ...)
PUBLIC 7f300 0 UM591(CProxUniv*, ...)
PUBLIC 7f330 0 UM592(CProxUniv*, ...)
PUBLIC 7f360 0 UM593(CProxUniv*, ...)
PUBLIC 7f390 0 UM594(CProxUniv*, ...)
PUBLIC 7f3c0 0 UM595(CProxUniv*, ...)
PUBLIC 7f3f0 0 UM596(CProxUniv*, ...)
PUBLIC 7f420 0 UM597(CProxUniv*, ...)
PUBLIC 7f450 0 UM598(CProxUniv*, ...)
PUBLIC 7f480 0 UM599(CProxUniv*, ...)
PUBLIC 7f4b0 0 UM59(CProxUniv*, ...)
PUBLIC 7f4e0 0 UM5(CProxUniv*, ...)
PUBLIC 7f510 0 UM600(CProxUniv*, ...)
PUBLIC 7f540 0 UM601(CProxUniv*, ...)
PUBLIC 7f570 0 UM602(CProxUniv*, ...)
PUBLIC 7f5a0 0 UM603(CProxUniv*, ...)
PUBLIC 7f5d0 0 UM604(CProxUniv*, ...)
PUBLIC 7f600 0 UM605(CProxUniv*, ...)
PUBLIC 7f630 0 UM606(CProxUniv*, ...)
PUBLIC 7f660 0 UM607(CProxUniv*, ...)
PUBLIC 7f690 0 UM608(CProxUniv*, ...)
PUBLIC 7f6c0 0 UM609(CProxUniv*, ...)
PUBLIC 7f6f0 0 UM60(CProxUniv*, ...)
PUBLIC 7f720 0 UM610(CProxUniv*, ...)
PUBLIC 7f750 0 UM611(CProxUniv*, ...)
PUBLIC 7f780 0 UM612(CProxUniv*, ...)
PUBLIC 7f7b0 0 UM613(CProxUniv*, ...)
PUBLIC 7f7e0 0 UM614(CProxUniv*, ...)
PUBLIC 7f810 0 UM615(CProxUniv*, ...)
PUBLIC 7f840 0 UM616(CProxUniv*, ...)
PUBLIC 7f870 0 UM617(CProxUniv*, ...)
PUBLIC 7f8a0 0 UM618(CProxUniv*, ...)
PUBLIC 7f8d0 0 UM619(CProxUniv*, ...)
PUBLIC 7f900 0 UM61(CProxUniv*, ...)
PUBLIC 7f930 0 UM620(CProxUniv*, ...)
PUBLIC 7f960 0 UM621(CProxUniv*, ...)
PUBLIC 7f990 0 UM622(CProxUniv*, ...)
PUBLIC 7f9c0 0 UM623(CProxUniv*, ...)
PUBLIC 7f9f0 0 UM624(CProxUniv*, ...)
PUBLIC 7fa20 0 UM625(CProxUniv*, ...)
PUBLIC 7fa50 0 UM626(CProxUniv*, ...)
PUBLIC 7fa80 0 UM627(CProxUniv*, ...)
PUBLIC 7fab0 0 UM628(CProxUniv*, ...)
PUBLIC 7fae0 0 UM629(CProxUniv*, ...)
PUBLIC 7fb10 0 UM62(CProxUniv*, ...)
PUBLIC 7fb40 0 UM630(CProxUniv*, ...)
PUBLIC 7fb70 0 UM631(CProxUniv*, ...)
PUBLIC 7fba0 0 UM632(CProxUniv*, ...)
PUBLIC 7fbd0 0 UM633(CProxUniv*, ...)
PUBLIC 7fc00 0 UM634(CProxUniv*, ...)
PUBLIC 7fc30 0 UM635(CProxUniv*, ...)
PUBLIC 7fc60 0 UM636(CProxUniv*, ...)
PUBLIC 7fc90 0 UM637(CProxUniv*, ...)
PUBLIC 7fcc0 0 UM638(CProxUniv*, ...)
PUBLIC 7fcf0 0 UM639(CProxUniv*, ...)
PUBLIC 7fd20 0 UM63(CProxUniv*, ...)
PUBLIC 7fd50 0 UM640(CProxUniv*, ...)
PUBLIC 7fd80 0 UM641(CProxUniv*, ...)
PUBLIC 7fdb0 0 UM642(CProxUniv*, ...)
PUBLIC 7fde0 0 UM643(CProxUniv*, ...)
PUBLIC 7fe10 0 UM644(CProxUniv*, ...)
PUBLIC 7fe40 0 UM645(CProxUniv*, ...)
PUBLIC 7fe70 0 UM646(CProxUniv*, ...)
PUBLIC 7fea0 0 UM647(CProxUniv*, ...)
PUBLIC 7fed0 0 UM648(CProxUniv*, ...)
PUBLIC 7ff00 0 UM649(CProxUniv*, ...)
PUBLIC 7ff30 0 UM64(CProxUniv*, ...)
PUBLIC 7ff60 0 UM650(CProxUniv*, ...)
PUBLIC 7ff90 0 UM651(CProxUniv*, ...)
PUBLIC 7ffc0 0 UM652(CProxUniv*, ...)
PUBLIC 7fff0 0 UM653(CProxUniv*, ...)
PUBLIC 80020 0 UM654(CProxUniv*, ...)
PUBLIC 80050 0 UM655(CProxUniv*, ...)
PUBLIC 80080 0 UM656(CProxUniv*, ...)
PUBLIC 800b0 0 UM657(CProxUniv*, ...)
PUBLIC 800e0 0 UM658(CProxUniv*, ...)
PUBLIC 80110 0 UM659(CProxUniv*, ...)
PUBLIC 80140 0 UM65(CProxUniv*, ...)
PUBLIC 80170 0 UM660(CProxUniv*, ...)
PUBLIC 801a0 0 UM661(CProxUniv*, ...)
PUBLIC 801d0 0 UM662(CProxUniv*, ...)
PUBLIC 80200 0 UM663(CProxUniv*, ...)
PUBLIC 80230 0 UM664(CProxUniv*, ...)
PUBLIC 80260 0 UM665(CProxUniv*, ...)
PUBLIC 80290 0 UM666(CProxUniv*, ...)
PUBLIC 802c0 0 UM667(CProxUniv*, ...)
PUBLIC 802f0 0 UM668(CProxUniv*, ...)
PUBLIC 80320 0 UM669(CProxUniv*, ...)
PUBLIC 80350 0 UM66(CProxUniv*, ...)
PUBLIC 80380 0 UM670(CProxUniv*, ...)
PUBLIC 803b0 0 UM671(CProxUniv*, ...)
PUBLIC 803e0 0 UM672(CProxUniv*, ...)
PUBLIC 80410 0 UM673(CProxUniv*, ...)
PUBLIC 80440 0 UM674(CProxUniv*, ...)
PUBLIC 80470 0 UM675(CProxUniv*, ...)
PUBLIC 804a0 0 UM676(CProxUniv*, ...)
PUBLIC 804d0 0 UM677(CProxUniv*, ...)
PUBLIC 80500 0 UM678(CProxUniv*, ...)
PUBLIC 80530 0 UM679(CProxUniv*, ...)
PUBLIC 80560 0 UM67(CProxUniv*, ...)
PUBLIC 80590 0 UM680(CProxUniv*, ...)
PUBLIC 805c0 0 UM681(CProxUniv*, ...)
PUBLIC 805f0 0 UM682(CProxUniv*, ...)
PUBLIC 80620 0 UM683(CProxUniv*, ...)
PUBLIC 80650 0 UM684(CProxUniv*, ...)
PUBLIC 80680 0 UM685(CProxUniv*, ...)
PUBLIC 806b0 0 UM686(CProxUniv*, ...)
PUBLIC 806e0 0 UM687(CProxUniv*, ...)
PUBLIC 80710 0 UM688(CProxUniv*, ...)
PUBLIC 80740 0 UM689(CProxUniv*, ...)
PUBLIC 80770 0 UM68(CProxUniv*, ...)
PUBLIC 807a0 0 UM690(CProxUniv*, ...)
PUBLIC 807d0 0 UM691(CProxUniv*, ...)
PUBLIC 80800 0 UM692(CProxUniv*, ...)
PUBLIC 80830 0 UM693(CProxUniv*, ...)
PUBLIC 80860 0 UM694(CProxUniv*, ...)
PUBLIC 80890 0 UM695(CProxUniv*, ...)
PUBLIC 808c0 0 UM696(CProxUniv*, ...)
PUBLIC 808f0 0 UM697(CProxUniv*, ...)
PUBLIC 80920 0 UM698(CProxUniv*, ...)
PUBLIC 80950 0 UM699(CProxUniv*, ...)
PUBLIC 80980 0 UM69(CProxUniv*, ...)
PUBLIC 809b0 0 UM6(CProxUniv*, ...)
PUBLIC 809e0 0 UM700(CProxUniv*, ...)
PUBLIC 80a10 0 UM701(CProxUniv*, ...)
PUBLIC 80a40 0 UM702(CProxUniv*, ...)
PUBLIC 80a70 0 UM703(CProxUniv*, ...)
PUBLIC 80aa0 0 UM704(CProxUniv*, ...)
PUBLIC 80ad0 0 UM705(CProxUniv*, ...)
PUBLIC 80b00 0 UM706(CProxUniv*, ...)
PUBLIC 80b30 0 UM707(CProxUniv*, ...)
PUBLIC 80b60 0 UM708(CProxUniv*, ...)
PUBLIC 80b90 0 UM709(CProxUniv*, ...)
PUBLIC 80bc0 0 UM70(CProxUniv*, ...)
PUBLIC 80bf0 0 UM710(CProxUniv*, ...)
PUBLIC 80c20 0 UM711(CProxUniv*, ...)
PUBLIC 80c50 0 UM712(CProxUniv*, ...)
PUBLIC 80c80 0 UM713(CProxUniv*, ...)
PUBLIC 80cb0 0 UM714(CProxUniv*, ...)
PUBLIC 80ce0 0 UM715(CProxUniv*, ...)
PUBLIC 80d10 0 UM716(CProxUniv*, ...)
PUBLIC 80d40 0 UM717(CProxUniv*, ...)
PUBLIC 80d70 0 UM718(CProxUniv*, ...)
PUBLIC 80da0 0 UM719(CProxUniv*, ...)
PUBLIC 80dd0 0 UM71(CProxUniv*, ...)
PUBLIC 80e00 0 UM720(CProxUniv*, ...)
PUBLIC 80e30 0 UM721(CProxUniv*, ...)
PUBLIC 80e60 0 UM722(CProxUniv*, ...)
PUBLIC 80e90 0 UM723(CProxUniv*, ...)
PUBLIC 80ec0 0 UM724(CProxUniv*, ...)
PUBLIC 80ef0 0 UM725(CProxUniv*, ...)
PUBLIC 80f20 0 UM726(CProxUniv*, ...)
PUBLIC 80f50 0 UM727(CProxUniv*, ...)
PUBLIC 80f80 0 UM728(CProxUniv*, ...)
PUBLIC 80fb0 0 UM729(CProxUniv*, ...)
PUBLIC 80fe0 0 UM72(CProxUniv*, ...)
PUBLIC 81010 0 UM730(CProxUniv*, ...)
PUBLIC 81040 0 UM731(CProxUniv*, ...)
PUBLIC 81070 0 UM732(CProxUniv*, ...)
PUBLIC 810a0 0 UM733(CProxUniv*, ...)
PUBLIC 810d0 0 UM734(CProxUniv*, ...)
PUBLIC 81100 0 UM735(CProxUniv*, ...)
PUBLIC 81130 0 UM736(CProxUniv*, ...)
PUBLIC 81160 0 UM737(CProxUniv*, ...)
PUBLIC 81190 0 UM738(CProxUniv*, ...)
PUBLIC 811c0 0 UM739(CProxUniv*, ...)
PUBLIC 811f0 0 UM73(CProxUniv*, ...)
PUBLIC 81220 0 UM740(CProxUniv*, ...)
PUBLIC 81250 0 UM741(CProxUniv*, ...)
PUBLIC 81280 0 UM742(CProxUniv*, ...)
PUBLIC 812b0 0 UM743(CProxUniv*, ...)
PUBLIC 812e0 0 UM744(CProxUniv*, ...)
PUBLIC 81310 0 UM745(CProxUniv*, ...)
PUBLIC 81340 0 UM746(CProxUniv*, ...)
PUBLIC 81370 0 UM747(CProxUniv*, ...)
PUBLIC 813a0 0 UM748(CProxUniv*, ...)
PUBLIC 813d0 0 UM749(CProxUniv*, ...)
PUBLIC 81400 0 UM74(CProxUniv*, ...)
PUBLIC 81430 0 UM750(CProxUniv*, ...)
PUBLIC 81460 0 UM751(CProxUniv*, ...)
PUBLIC 81490 0 UM752(CProxUniv*, ...)
PUBLIC 814c0 0 UM753(CProxUniv*, ...)
PUBLIC 814f0 0 UM754(CProxUniv*, ...)
PUBLIC 81520 0 UM755(CProxUniv*, ...)
PUBLIC 81550 0 UM756(CProxUniv*, ...)
PUBLIC 81580 0 UM757(CProxUniv*, ...)
PUBLIC 815b0 0 UM758(CProxUniv*, ...)
PUBLIC 815e0 0 UM759(CProxUniv*, ...)
PUBLIC 81610 0 UM75(CProxUniv*, ...)
PUBLIC 81640 0 UM760(CProxUniv*, ...)
PUBLIC 81670 0 UM761(CProxUniv*, ...)
PUBLIC 816a0 0 UM762(CProxUniv*, ...)
PUBLIC 816d0 0 UM763(CProxUniv*, ...)
PUBLIC 81700 0 UM764(CProxUniv*, ...)
PUBLIC 81730 0 UM765(CProxUniv*, ...)
PUBLIC 81760 0 UM766(CProxUniv*, ...)
PUBLIC 81790 0 UM767(CProxUniv*, ...)
PUBLIC 817c0 0 UM768(CProxUniv*, ...)
PUBLIC 817f0 0 UM769(CProxUniv*, ...)
PUBLIC 81820 0 UM76(CProxUniv*, ...)
PUBLIC 81850 0 UM770(CProxUniv*, ...)
PUBLIC 81880 0 UM771(CProxUniv*, ...)
PUBLIC 818b0 0 UM772(CProxUniv*, ...)
PUBLIC 818e0 0 UM773(CProxUniv*, ...)
PUBLIC 81910 0 UM774(CProxUniv*, ...)
PUBLIC 81940 0 UM775(CProxUniv*, ...)
PUBLIC 81970 0 UM776(CProxUniv*, ...)
PUBLIC 819a0 0 UM777(CProxUniv*, ...)
PUBLIC 819d0 0 UM778(CProxUniv*, ...)
PUBLIC 81a00 0 UM779(CProxUniv*, ...)
PUBLIC 81a30 0 UM77(CProxUniv*, ...)
PUBLIC 81a60 0 UM780(CProxUniv*, ...)
PUBLIC 81a90 0 UM781(CProxUniv*, ...)
PUBLIC 81ac0 0 UM782(CProxUniv*, ...)
PUBLIC 81af0 0 UM783(CProxUniv*, ...)
PUBLIC 81b20 0 UM784(CProxUniv*, ...)
PUBLIC 81b50 0 UM785(CProxUniv*, ...)
PUBLIC 81b80 0 UM786(CProxUniv*, ...)
PUBLIC 81bb0 0 UM787(CProxUniv*, ...)
PUBLIC 81be0 0 UM788(CProxUniv*, ...)
PUBLIC 81c10 0 UM789(CProxUniv*, ...)
PUBLIC 81c40 0 UM78(CProxUniv*, ...)
PUBLIC 81c70 0 UM790(CProxUniv*, ...)
PUBLIC 81ca0 0 UM791(CProxUniv*, ...)
PUBLIC 81cd0 0 UM792(CProxUniv*, ...)
PUBLIC 81d00 0 UM793(CProxUniv*, ...)
PUBLIC 81d30 0 UM794(CProxUniv*, ...)
PUBLIC 81d60 0 UM795(CProxUniv*, ...)
PUBLIC 81d90 0 UM796(CProxUniv*, ...)
PUBLIC 81dc0 0 UM797(CProxUniv*, ...)
PUBLIC 81df0 0 UM798(CProxUniv*, ...)
PUBLIC 81e20 0 UM799(CProxUniv*, ...)
PUBLIC 81e50 0 UM79(CProxUniv*, ...)
PUBLIC 81e80 0 UM7(CProxUniv*, ...)
PUBLIC 81eb0 0 UM800(CProxUniv*, ...)
PUBLIC 81ee0 0 UM801(CProxUniv*, ...)
PUBLIC 81f10 0 UM802(CProxUniv*, ...)
PUBLIC 81f40 0 UM803(CProxUniv*, ...)
PUBLIC 81f70 0 UM804(CProxUniv*, ...)
PUBLIC 81fa0 0 UM805(CProxUniv*, ...)
PUBLIC 81fd0 0 UM806(CProxUniv*, ...)
PUBLIC 82000 0 UM807(CProxUniv*, ...)
PUBLIC 82030 0 UM808(CProxUniv*, ...)
PUBLIC 82060 0 UM809(CProxUniv*, ...)
PUBLIC 82090 0 UM80(CProxUniv*, ...)
PUBLIC 820c0 0 UM810(CProxUniv*, ...)
PUBLIC 820f0 0 UM811(CProxUniv*, ...)
PUBLIC 82120 0 UM812(CProxUniv*, ...)
PUBLIC 82150 0 UM813(CProxUniv*, ...)
PUBLIC 82180 0 UM814(CProxUniv*, ...)
PUBLIC 821b0 0 UM815(CProxUniv*, ...)
PUBLIC 821e0 0 UM816(CProxUniv*, ...)
PUBLIC 82210 0 UM817(CProxUniv*, ...)
PUBLIC 82240 0 UM818(CProxUniv*, ...)
PUBLIC 82270 0 UM819(CProxUniv*, ...)
PUBLIC 822a0 0 UM81(CProxUniv*, ...)
PUBLIC 822d0 0 UM820(CProxUniv*, ...)
PUBLIC 82300 0 UM821(CProxUniv*, ...)
PUBLIC 82330 0 UM822(CProxUniv*, ...)
PUBLIC 82360 0 UM823(CProxUniv*, ...)
PUBLIC 82390 0 UM824(CProxUniv*, ...)
PUBLIC 823c0 0 UM825(CProxUniv*, ...)
PUBLIC 823f0 0 UM826(CProxUniv*, ...)
PUBLIC 82420 0 UM827(CProxUniv*, ...)
PUBLIC 82450 0 UM828(CProxUniv*, ...)
PUBLIC 82480 0 UM829(CProxUniv*, ...)
PUBLIC 824b0 0 UM82(CProxUniv*, ...)
PUBLIC 824e0 0 UM830(CProxUniv*, ...)
PUBLIC 82510 0 UM831(CProxUniv*, ...)
PUBLIC 82540 0 UM832(CProxUniv*, ...)
PUBLIC 82570 0 UM833(CProxUniv*, ...)
PUBLIC 825a0 0 UM834(CProxUniv*, ...)
PUBLIC 825d0 0 UM835(CProxUniv*, ...)
PUBLIC 82600 0 UM836(CProxUniv*, ...)
PUBLIC 82630 0 UM837(CProxUniv*, ...)
PUBLIC 82660 0 UM838(CProxUniv*, ...)
PUBLIC 82690 0 UM839(CProxUniv*, ...)
PUBLIC 826c0 0 UM83(CProxUniv*, ...)
PUBLIC 826f0 0 UM840(CProxUniv*, ...)
PUBLIC 82720 0 UM841(CProxUniv*, ...)
PUBLIC 82750 0 UM842(CProxUniv*, ...)
PUBLIC 82780 0 UM843(CProxUniv*, ...)
PUBLIC 827b0 0 UM844(CProxUniv*, ...)
PUBLIC 827e0 0 UM845(CProxUniv*, ...)
PUBLIC 82810 0 UM846(CProxUniv*, ...)
PUBLIC 82840 0 UM847(CProxUniv*, ...)
PUBLIC 82870 0 UM848(CProxUniv*, ...)
PUBLIC 828a0 0 UM849(CProxUniv*, ...)
PUBLIC 828d0 0 UM84(CProxUniv*, ...)
PUBLIC 82900 0 UM850(CProxUniv*, ...)
PUBLIC 82930 0 UM851(CProxUniv*, ...)
PUBLIC 82960 0 UM852(CProxUniv*, ...)
PUBLIC 82990 0 UM853(CProxUniv*, ...)
PUBLIC 829c0 0 UM854(CProxUniv*, ...)
PUBLIC 829f0 0 UM855(CProxUniv*, ...)
PUBLIC 82a20 0 UM856(CProxUniv*, ...)
PUBLIC 82a50 0 UM857(CProxUniv*, ...)
PUBLIC 82a80 0 UM858(CProxUniv*, ...)
PUBLIC 82ab0 0 UM859(CProxUniv*, ...)
PUBLIC 82ae0 0 UM85(CProxUniv*, ...)
PUBLIC 82b10 0 UM860(CProxUniv*, ...)
PUBLIC 82b40 0 UM861(CProxUniv*, ...)
PUBLIC 82b70 0 UM862(CProxUniv*, ...)
PUBLIC 82ba0 0 UM863(CProxUniv*, ...)
PUBLIC 82bd0 0 UM864(CProxUniv*, ...)
PUBLIC 82c00 0 UM865(CProxUniv*, ...)
PUBLIC 82c30 0 UM866(CProxUniv*, ...)
PUBLIC 82c60 0 UM867(CProxUniv*, ...)
PUBLIC 82c90 0 UM868(CProxUniv*, ...)
PUBLIC 82cc0 0 UM869(CProxUniv*, ...)
PUBLIC 82cf0 0 UM86(CProxUniv*, ...)
PUBLIC 82d20 0 UM870(CProxUniv*, ...)
PUBLIC 82d50 0 UM871(CProxUniv*, ...)
PUBLIC 82d80 0 UM872(CProxUniv*, ...)
PUBLIC 82db0 0 UM873(CProxUniv*, ...)
PUBLIC 82de0 0 UM874(CProxUniv*, ...)
PUBLIC 82e10 0 UM875(CProxUniv*, ...)
PUBLIC 82e40 0 UM876(CProxUniv*, ...)
PUBLIC 82e70 0 UM877(CProxUniv*, ...)
PUBLIC 82ea0 0 UM878(CProxUniv*, ...)
PUBLIC 82ed0 0 UM879(CProxUniv*, ...)
PUBLIC 82f00 0 UM87(CProxUniv*, ...)
PUBLIC 82f30 0 UM880(CProxUniv*, ...)
PUBLIC 82f60 0 UM881(CProxUniv*, ...)
PUBLIC 82f90 0 UM882(CProxUniv*, ...)
PUBLIC 82fc0 0 UM883(CProxUniv*, ...)
PUBLIC 82ff0 0 UM884(CProxUniv*, ...)
PUBLIC 83020 0 UM885(CProxUniv*, ...)
PUBLIC 83050 0 UM886(CProxUniv*, ...)
PUBLIC 83080 0 UM887(CProxUniv*, ...)
PUBLIC 830b0 0 UM888(CProxUniv*, ...)
PUBLIC 830e0 0 UM889(CProxUniv*, ...)
PUBLIC 83110 0 UM88(CProxUniv*, ...)
PUBLIC 83140 0 UM890(CProxUniv*, ...)
PUBLIC 83170 0 UM891(CProxUniv*, ...)
PUBLIC 831a0 0 UM892(CProxUniv*, ...)
PUBLIC 831d0 0 UM893(CProxUniv*, ...)
PUBLIC 83200 0 UM894(CProxUniv*, ...)
PUBLIC 83230 0 UM895(CProxUniv*, ...)
PUBLIC 83260 0 UM896(CProxUniv*, ...)
PUBLIC 83290 0 UM897(CProxUniv*, ...)
PUBLIC 832c0 0 UM898(CProxUniv*, ...)
PUBLIC 832f0 0 UM899(CProxUniv*, ...)
PUBLIC 83320 0 UM89(CProxUniv*, ...)
PUBLIC 83350 0 UM8(CProxUniv*, ...)
PUBLIC 83380 0 UM900(CProxUniv*, ...)
PUBLIC 833b0 0 UM901(CProxUniv*, ...)
PUBLIC 833e0 0 UM902(CProxUniv*, ...)
PUBLIC 83410 0 UM903(CProxUniv*, ...)
PUBLIC 83440 0 UM904(CProxUniv*, ...)
PUBLIC 83470 0 UM905(CProxUniv*, ...)
PUBLIC 834a0 0 UM906(CProxUniv*, ...)
PUBLIC 834d0 0 UM907(CProxUniv*, ...)
PUBLIC 83500 0 UM908(CProxUniv*, ...)
PUBLIC 83530 0 UM909(CProxUniv*, ...)
PUBLIC 83560 0 UM90(CProxUniv*, ...)
PUBLIC 83590 0 UM910(CProxUniv*, ...)
PUBLIC 835c0 0 UM911(CProxUniv*, ...)
PUBLIC 835f0 0 UM912(CProxUniv*, ...)
PUBLIC 83620 0 UM913(CProxUniv*, ...)
PUBLIC 83650 0 UM914(CProxUniv*, ...)
PUBLIC 83680 0 UM915(CProxUniv*, ...)
PUBLIC 836b0 0 UM916(CProxUniv*, ...)
PUBLIC 836e0 0 UM917(CProxUniv*, ...)
PUBLIC 83710 0 UM918(CProxUniv*, ...)
PUBLIC 83740 0 UM919(CProxUniv*, ...)
PUBLIC 83770 0 UM91(CProxUniv*, ...)
PUBLIC 837a0 0 UM920(CProxUniv*, ...)
PUBLIC 837d0 0 UM921(CProxUniv*, ...)
PUBLIC 83800 0 UM922(CProxUniv*, ...)
PUBLIC 83830 0 UM923(CProxUniv*, ...)
PUBLIC 83860 0 UM924(CProxUniv*, ...)
PUBLIC 83890 0 UM925(CProxUniv*, ...)
PUBLIC 838c0 0 UM926(CProxUniv*, ...)
PUBLIC 838f0 0 UM927(CProxUniv*, ...)
PUBLIC 83920 0 UM928(CProxUniv*, ...)
PUBLIC 83950 0 UM929(CProxUniv*, ...)
PUBLIC 83980 0 UM92(CProxUniv*, ...)
PUBLIC 839b0 0 UM930(CProxUniv*, ...)
PUBLIC 839e0 0 UM931(CProxUniv*, ...)
PUBLIC 83a10 0 UM932(CProxUniv*, ...)
PUBLIC 83a40 0 UM933(CProxUniv*, ...)
PUBLIC 83a70 0 UM934(CProxUniv*, ...)
PUBLIC 83aa0 0 UM935(CProxUniv*, ...)
PUBLIC 83ad0 0 UM936(CProxUniv*, ...)
PUBLIC 83b00 0 UM937(CProxUniv*, ...)
PUBLIC 83b30 0 UM938(CProxUniv*, ...)
PUBLIC 83b60 0 UM939(CProxUniv*, ...)
PUBLIC 83b90 0 UM93(CProxUniv*, ...)
PUBLIC 83bc0 0 UM940(CProxUniv*, ...)
PUBLIC 83bf0 0 UM941(CProxUniv*, ...)
PUBLIC 83c20 0 UM942(CProxUniv*, ...)
PUBLIC 83c50 0 UM943(CProxUniv*, ...)
PUBLIC 83c80 0 UM944(CProxUniv*, ...)
PUBLIC 83cb0 0 UM945(CProxUniv*, ...)
PUBLIC 83ce0 0 UM946(CProxUniv*, ...)
PUBLIC 83d10 0 UM947(CProxUniv*, ...)
PUBLIC 83d40 0 UM948(CProxUniv*, ...)
PUBLIC 83d70 0 UM949(CProxUniv*, ...)
PUBLIC 83da0 0 UM94(CProxUniv*, ...)
PUBLIC 83dd0 0 UM950(CProxUniv*, ...)
PUBLIC 83e00 0 UM951(CProxUniv*, ...)
PUBLIC 83e30 0 UM952(CProxUniv*, ...)
PUBLIC 83e60 0 UM953(CProxUniv*, ...)
PUBLIC 83e90 0 UM954(CProxUniv*, ...)
PUBLIC 83ec0 0 UM955(CProxUniv*, ...)
PUBLIC 83ef0 0 UM956(CProxUniv*, ...)
PUBLIC 83f20 0 UM957(CProxUniv*, ...)
PUBLIC 83f50 0 UM958(CProxUniv*, ...)
PUBLIC 83f80 0 UM959(CProxUniv*, ...)
PUBLIC 83fb0 0 UM95(CProxUniv*, ...)
PUBLIC 83fe0 0 UM960(CProxUniv*, ...)
PUBLIC 84010 0 UM961(CProxUniv*, ...)
PUBLIC 84040 0 UM962(CProxUniv*, ...)
PUBLIC 84070 0 UM963(CProxUniv*, ...)
PUBLIC 840a0 0 UM964(CProxUniv*, ...)
PUBLIC 840d0 0 UM965(CProxUniv*, ...)
PUBLIC 84100 0 UM966(CProxUniv*, ...)
PUBLIC 84130 0 UM967(CProxUniv*, ...)
PUBLIC 84160 0 UM968(CProxUniv*, ...)
PUBLIC 84190 0 UM969(CProxUniv*, ...)
PUBLIC 841c0 0 UM96(CProxUniv*, ...)
PUBLIC 841f0 0 UM970(CProxUniv*, ...)
PUBLIC 84220 0 UM971(CProxUniv*, ...)
PUBLIC 84250 0 UM972(CProxUniv*, ...)
PUBLIC 84280 0 UM973(CProxUniv*, ...)
PUBLIC 842b0 0 UM974(CProxUniv*, ...)
PUBLIC 842e0 0 UM975(CProxUniv*, ...)
PUBLIC 84310 0 UM976(CProxUniv*, ...)
PUBLIC 84340 0 UM977(CProxUniv*, ...)
PUBLIC 84370 0 UM978(CProxUniv*, ...)
PUBLIC 843a0 0 UM979(CProxUniv*, ...)
PUBLIC 843d0 0 UM97(CProxUniv*, ...)
PUBLIC 84400 0 UM980(CProxUniv*, ...)
PUBLIC 84430 0 UM981(CProxUniv*, ...)
PUBLIC 84460 0 UM982(CProxUniv*, ...)
PUBLIC 84490 0 UM983(CProxUniv*, ...)
PUBLIC 844c0 0 UM984(CProxUniv*, ...)
PUBLIC 844f0 0 UM985(CProxUniv*, ...)
PUBLIC 84520 0 UM986(CProxUniv*, ...)
PUBLIC 84550 0 UM987(CProxUniv*, ...)
PUBLIC 84580 0 UM988(CProxUniv*, ...)
PUBLIC 845b0 0 UM989(CProxUniv*, ...)
PUBLIC 845e0 0 UM98(CProxUniv*, ...)
PUBLIC 84610 0 UM990(CProxUniv*, ...)
PUBLIC 84640 0 UM991(CProxUniv*, ...)
PUBLIC 84670 0 UM992(CProxUniv*, ...)
PUBLIC 846a0 0 UM993(CProxUniv*, ...)
PUBLIC 846d0 0 UM994(CProxUniv*, ...)
PUBLIC 84700 0 UM995(CProxUniv*, ...)
PUBLIC 84730 0 UM996(CProxUniv*, ...)
PUBLIC 84760 0 UM997(CProxUniv*, ...)
PUBLIC 84790 0 UM998(CProxUniv*, ...)
PUBLIC 847c0 0 UM999(CProxUniv*, ...)
PUBLIC 847f0 0 UM99(CProxUniv*, ...)
PUBLIC 84820 0 UM9(CProxUniv*, ...)
PUBLIC 84850 0 UnivAddRef
PUBLIC 84870 0 UnivGetIDsOfNames
PUBLIC 848b0 0 UnivGetTypeInfo
PUBLIC 848e0 0 UnivGetTypeInfoCount
PUBLIC 84900 0 UnivInvoke
PUBLIC 84970 0 UnivQueryInterface
PUBLIC 84990 0 UnivRelease
PUBLIC 849a8 0 BstrRead(IStream*, unsigned short**, tagSYSKIND)
PUBLIC 84b80 0 BstrReadAndRelease(IStream*, tagSYSKIND)
PUBLIC 84c3c 0 BstrWrite(IStream*, unsigned short*, tagSYSKIND)
PUBLIC 84de8 0 DispUnmarshalInterfaceAndRelease(IStream*)
PUBLIC 84e58 0 ExcepinfoRead(IStream*, tagEXCEPINFO*, tagSYSKIND)
PUBLIC 84f10 0 ExcepinfoWrite(IStream*, tagEXCEPINFO*, tagSYSKIND)
PUBLIC 84fe0 0 MarshalErrorInfo(IStream*, tagSYSKIND)
FUNC 851d8 1fb 0 SafeArrayRead
PUBLIC 853dc 0 SafeArrayReadAndRelease(IStream*, tagSYSKIND)
FUNC 85590 1c3 0 SafeArrayReadData
FUNC 8575c ee 0 SafeArrayReadDataAndRelease
FUNC 85850 312 0 SafeArrayReadExisting
FUNC 85b68 24f 0 SafeArrayWrite
PUBLIC 85dc0 0 StructRead(IStream*, tagFIELD_DESC*, void*, tagSYSKIND)
PUBLIC 85fa4 0 StructWrite(IStream*, tagFIELD_DESC*, void*, tagSYSKIND)
PUBLIC 860e4 0 UnmarshalErrorInfo(IStream*, tagSYSKIND)
PUBLIC 86390 0 VariantRead(IStream*, tagVARIANT*, tagVARIANT*, tagSYSKIND)
PUBLIC 867f0 0 VariantReadAndRelease(IStream*, tagSYSKIND)
PUBLIC 86a5c 0 VariantReadType(IStream*, tagVARIANT*, tagSYSKIND)
PUBLIC 86f7c 0 VariantWrite(IStream*, tagVARIANT*, tagSYSKIND)
PUBLIC 87290 0 Win16ScodeFromWin32Scode(long)
PUBLIC 87328 0 Win32ScodeFromWin16Scode(long)
PUBLIC 873c0 0 DispMarshalInterface
PUBLIC 87458 0 DispUnmarshalHresult
PUBLIC 87484 0 DispUnmarshalInterface
PUBLIC 87508 0 CStreamOnBuffer::CStreamOnBuffer(IRpcChannelBuffer*, tagRPCOLEMESSAGE*, _GUID const&, unsigned long)
PUBLIC 875b0 0 CStreamOnBuffer::Call(void)
PUBLIC 87660 0 CStreamOnBuffer::QueryInterface(_GUID const&, void**)
PUBLIC 876c0 0 CStreamOnBuffer::Read(void*, unsigned long, unsigned long*)
PUBLIC 87740 0 CStreamOnBuffer::Release(void)
PUBLIC 87790 0 CStreamOnBuffer::ResetBuffer(void)
PUBLIC 87810 0 CStreamOnBuffer::ResizeBuffer(unsigned long)
PUBLIC 878a0 0 CStreamOnBuffer::RewindBuffer(void)
PUBLIC 878c0 0 CStreamOnBuffer::Seek(_LARGE_INTEGER, unsigned long, _ULARGE_INTEGER*)
PUBLIC 87940 0 CStreamOnBuffer::Write(void const*, unsigned long, unsigned long*)
PUBLIC 879fc 0 GetPrimaryInterface(ITypeInfo*, ITypeInfo**)
PUBLIC m 87bc0 0 std::_Tree_comp_alloc<std::_Tmap_traits<void*, int, std::less<void*>, throwingAllocator<std::pair<void* const, int> >, 0> >::_Buynode<std::piecewise_construct_t const&, std::tuple<void* const&>, std::tuple<> >(std::piecewise_construct_t const&, std::tuple<void* const&>&&, std::tuple<>&&)
FUNC m 87c0e 25 0 `std::_Tree_comp_alloc<std::_Tmap_traits<tagSAFEARRAY * __ptr64,int,std::less<tagSAFEARRAY * __ptr64>,throwingAllocator<std::pair<tagSAFEARRAY * __ptr64 const,int> >,0> >::_Buynode<std::piecewise_construct_t const & __ptr64,std::tuple<tagSAFEARRAY * __ptr64 const & __ptr64>,std::tuple<> >'::`1'::catch$7
PUBLIC m 87c3c 0 std::_Tree<std::_Tmap_traits<tagSAFEARRAY*, int, std::less<tagSAFEARRAY*>, throwingAllocator<std::pair<tagSAFEARRAY* const, int> >, 0> >::_Insert_at<std::pair<tagSAFEARRAY* const, int>&, std::_Tree_node<std::pair<tagSAFEARRAY* const, int>, void*>*>(bool, std::_Tree_node<std::pair<tagSAFEARRAY* const, int>, void*>*, std::pair<tagSAFEARRAY* const, int>&, std::_Tree_node<std::pair<tagSAFEARRAY* const, int>, void*>*)
PUBLIC m 87dac 0 std::_Tree<std::_Tmap_traits<void*, int, std::less<void*>, throwingAllocator<std::pair<void* const, int> >, 0> >::_Insert_hint<std::pair<void* const, int>&, std::_Tree_node<std::pair<void* const, int>, void*>*>(std::_Tree_const_iterator<std::_Tree_val<std::_Tree_simple_types<std::pair<void* const, int> > > >, std::pair<void* const, int>&, std::_Tree_node<std::pair<void* const, int>, void*>*)
FUNC m 87ffb 28 0 `std::_Tree<std::_Tmap_traits<tagSAFEARRAY * __ptr64,int,std::less<tagSAFEARRAY * __ptr64>,throwingAllocator<std::pair<tagSAFEARRAY * __ptr64 const,int> >,0> >::_Insert_hint<std::pair<tagSAFEARRAY * __ptr64 const,int> & __ptr64,std::_Tree_node<std::pair<tagSAFEARRAY * __ptr64 const,int>,void * __ptr64> * __ptr64>'::`1'::catch$77
PUBLIC 8802c 0 std::_Tree<std::_Tmap_traits<unsigned short*, int, std::less<unsigned short*>, throwingAllocator<std::pair<unsigned short* const, int> >, 0> >::_Insert_nohint<std::pair<unsigned short* const, int>&, std::_Tree_node<std::pair<unsigned short* const, int>, void*>*>(bool, std::pair<unsigned short* const, int>&, std::_Tree_node<std::pair<unsigned short* const, int>, void*>*)
FUNC 8816a 25 0 `std::_Tree<std::_Tmap_traits<unsigned short * __ptr64,int,std::less<unsigned short * __ptr64>,throwingAllocator<std::pair<unsigned short * __ptr64 const,int> >,0> >::_Insert_nohint<std::pair<unsigned short * __ptr64 const,int> & __ptr64,std::_Tree_node<std::pair<unsigned short * __ptr64 const,int>,void * __ptr64> * __ptr64>'::`1'::catch$32
PUBLIC m 88198 0 std::_Tree<std::_Tmap_traits<void*, int, std::less<void*>, throwingAllocator<std::pair<void* const, int> >, 0> >::_Insert_nohint<std::pair<void* const, int>&, std::_Tree_node<std::pair<void* const, int>, void*>*>(bool, std::pair<void* const, int>&, std::_Tree_node<std::pair<void* const, int>, void*>*)
FUNC m 882d6 25 0 `std::_Tree<std::_Tmap_traits<tagSAFEARRAY * __ptr64,int,std::less<tagSAFEARRAY * __ptr64>,throwingAllocator<std::pair<tagSAFEARRAY * __ptr64 const,int> >,0> >::_Insert_nohint<std::pair<tagSAFEARRAY * __ptr64 const,int> & __ptr64,std::_Tree_node<std::pair<tagSAFEARRAY * __ptr64 const,int>,void * __ptr64> * __ptr64>'::`1'::catch$32
PUBLIC m 88304 0 std::map<void*, int, std::less<void*>, throwingAllocator<std::pair<void* const, int> > >::_Try_emplace<void* const&>(void* const&)
PUBLIC 883a8 0 std::bad_alloc::bad_alloc(std::bad_alloc const&)
PUBLIC 883f0 0 std::exception::exception(std::exception const&)
PUBLIC 8842c 0 ATL::CCritSecLock::~CCritSecLock(void)
PUBLIC 88454 0 std::bad_alloc::~bad_alloc(void)
PUBLIC m 88470 0 std::exception::`vector deleting destructor'(unsigned int)
PUBLIC 884b8 0 ATL::AtlThrowImpl(long)
PUBLIC 884e0 0 RefCountMap<tagSAFEARRAY*>::Increment(tagSAFEARRAY*)
FUNC 885f5 c 0 `RefCountMap<tagSAFEARRAY * __ptr64>::Increment'::`1'::dtor$0
FUNC 88601 1d 0 `RefCountMap<tagSAFEARRAY * __ptr64>::Increment'::`1'::dtor$1
FUNC 8861e c 0 `RefCountMap<tagSAFEARRAY * __ptr64>::Increment'::`1'::dtor$2
FUNC 8862a 1b 0 `RefCountMap<tagSAFEARRAY * __ptr64>::Increment'::`1'::catch$13
PUBLIC 8864c 0 RefCountMap<void*>::Increment(void*)
FUNC 88761 c 0 `RefCountMap<void * __ptr64>::Increment'::`1'::dtor$0
FUNC 8876d 1d 0 `RefCountMap<void * __ptr64>::Increment'::`1'::dtor$1
FUNC 8878a c 0 `RefCountMap<void * __ptr64>::Increment'::`1'::dtor$2
FUNC 88796 1b 0 `RefCountMap<void * __ptr64>::Increment'::`1'::catch$13
PUBLIC m 887b8 0 std::_Tree_comp_alloc<std::_Tmap_traits<tagSAFEARRAY*, int, std::less<tagSAFEARRAY*>, throwingAllocator<std::pair<tagSAFEARRAY* const, int> >, 0> >::_Buyheadnode(void)
FUNC m 88819 25 0 `std::_Tree_comp_alloc<std::_Tmap_traits<tagSAFEARRAY * __ptr64,int,std::less<tagSAFEARRAY * __ptr64>,throwingAllocator<std::pair<tagSAFEARRAY * __ptr64 const,int> >,0> >::_Buyheadnode'::`1'::catch$11
PUBLIC m 88844 0 std::_Tree_comp_alloc<std::_Tmap_traits<tagSAFEARRAY*, int, std::less<tagSAFEARRAY*>, throwingAllocator<std::pair<tagSAFEARRAY* const, int> >, 0> >::_Buynode0(void)
FUNC m 88880 25 0 `std::_Tree_comp_alloc<std::_Tmap_traits<tagSAFEARRAY * __ptr64,int,std::less<tagSAFEARRAY * __ptr64>,throwingAllocator<std::pair<tagSAFEARRAY * __ptr64 const,int> >,0> >::_Buynode0'::`1'::catch$20
PUBLIC m 888ac 0 std::_Tree<std::_Tmap_traits<tagSAFEARRAY*, int, std::less<tagSAFEARRAY*>, throwingAllocator<std::pair<tagSAFEARRAY* const, int> >, 0> >::_Erase(std::_Tree_node<std::pair<tagSAFEARRAY* const, int>, void*>*)
PUBLIC m 88908 0 std::_Tree<std::_Tmap_traits<void*, int, std::less<void*>, throwingAllocator<std::pair<void* const, int> >, 0> >::_Extract(std::_Tree_const_iterator<std::_Tree_val<std::_Tree_simple_types<std::pair<void* const, int> > > >)
PUBLIC m 88bdc 0 std::_Tree<std::_Tmap_traits<unsigned short*, int, std::less<unsigned short*>, throwingAllocator<std::pair<unsigned short* const, int> >, 0> >::_Lrotate(std::_Tree_node<std::pair<unsigned short* const, int>, void*>*)
PUBLIC m 88c2c 0 std::_Tree_val<std::_Tree_simple_types<std::pair<tagSAFEARRAY* const, int> > >::_Min(std::_Tree_node<std::pair<tagSAFEARRAY* const, int>, void*>*)
PUBLIC m 88c50 0 std::_Tree<std::_Tmap_traits<void*, int, std::less<void*>, throwingAllocator<std::pair<void* const, int> >, 0> >::_Rrotate(std::_Tree_node<std::pair<void* const, int>, void*>*)
PUBLIC m 88ca4 0 throwingAllocator<std::_Tree_node<std::pair<tagSAFEARRAY* const, int>, void*> >::allocate(uint64_t)
PUBLIC m 88cf4 0 std::_Tree<std::_Tmap_traits<void*, int, std::less<void*>, throwingAllocator<std::pair<void* const, int> >, 0> >::erase(std::_Tree_const_iterator<std::_Tree_val<std::_Tree_simple_types<std::pair<void* const, int> > > >, std::_Tree_const_iterator<std::_Tree_val<std::_Tree_simple_types<std::pair<void* const, int> > > >)
PUBLIC m 88dc4 0 std::_Tree<std::_Tmap_traits<tagSAFEARRAY*, int, std::less<tagSAFEARRAY*>, throwingAllocator<std::pair<tagSAFEARRAY* const, int> >, 0> >::erase(std::_Tree_const_iterator<std::_Tree_val<std::_Tree_simple_types<std::pair<tagSAFEARRAY* const, int> > > >)
PUBLIC m 88e3c 0 std::_Tree<std::_Tmap_traits<void*, int, std::less<void*>, throwingAllocator<std::pair<void* const, int> >, 0> >::find(void* const&)
PUBLIC 88e90 0 std::exception::what(void) const
PUBLIC 88ea8 0 GetTokenElevationType(void*, _TOKEN_ELEVATION_TYPE*)
PUBLIC 88efc 0 IsUserHiveOK(int*)
PUBLIC 88f84 0 IsUserHiveOK(void*, int*)
PUBLIC 8903c 0 OpenLongFileA(char const*, _OFLONGSTRUCTA*, unsigned int)
PUBLIC 8925c 0 OpenLongFileW(unsigned short const*, _OFLONGSTRUCTW*, unsigned int)
PUBLIC 893a0 0 GEN_CONNECTIONPOINT::Advise(IUnknown*, unsigned long*)
PUBLIC 89484 0 GDTINFO_CP::Create(void)
PUBLIC m 894d0 0 GEN_CPCONTAINER::EnumConnectionPoints(IEnumConnectionPoints**)
PUBLIC 894f0 0 GEN_CPCONTAINER::FindConnectionPoint(_GUID const&, IConnectionPoint**)
PUBLIC 89560 0 GEN_CONNECTIONPOINT::GetConnectionInterface(_GUID*)
PUBLIC 89580 0 GEN_CONNECTIONPOINT::GetConnectionPointContainer(IConnectionPointContainer**)
PUBLIC 895b4 0 GEN_CONNECTIONPOINT::Init(GEN_CPCONTAINER*, _GUID const&)
PUBLIC 89620 0 GDTINFO_CP::OkToChangeType(tagCHANGEKIND, ITypeInfo*, unsigned short*)
PUBLIC 896a0 0 GEN_CONNECTIONPOINT::QueryInterface(_GUID const&, void**)
PUBLIC 89730 0 GEN_CPCONTAINER::QueryInterface(_GUID const&, void**)
PUBLIC 897b0 0 GEN_CONNECTIONPOINT::Release(void)
PUBLIC 89890 0 GEN_CPCONTAINER::Release(void)
PUBLIC 898b8 0 GEN_CPCONTAINER::RemoveConnectionPoint(GEN_CONNECTIONPOINT*)
PUBLIC 89914 0 GDTINFO_CP::TypeHasChanged(tagCHANGEKIND, ITypeInfo*, unsigned short*)
PUBLIC 89970 0 GEN_CONNECTIONPOINT::Unadvise(unsigned long)
PUBLIC 89a30 0 IAdviseSinkEx_RemoteOnClose_Thunk
PUBLIC 89a60 0 IAdviseSinkEx_RemoteOnDataChange_Thunk
PUBLIC 89aa0 0 IAdviseSinkEx_RemoteOnRename_Thunk
PUBLIC 89ae0 0 IAdviseSinkEx_RemoteOnSave_Thunk
PUBLIC 89b10 0 IAdviseSinkEx_RemoteOnViewChange_Thunk
PUBLIC 89b50 0 IAdviseSinkEx_RemoteOnViewStatusChange_Thunk
PUBLIC 89b80 0 IQuickActivate_RemoteQuickActivate_Thunk
PUBLIC 89bc0 0 IClassFactory2_RemoteCreateInstanceLic_Thunk
PUBLIC m 89c20 0 IEnumConnections_RemoteNext_Thunk
PUBLIC 89c70 0 IPersistMemory_RemoteLoad_Thunk
PUBLIC 89cb0 0 IPersistMemory_RemoteSave_Thunk
PUBLIC 89cf0 0 IDispatch_RemoteInvoke_Thunk
PUBLIC 89d60 0 ITypeComp_RemoteBindType_Thunk
PUBLIC 89dc0 0 ITypeComp_RemoteBind_Thunk
PUBLIC 89e30 0 ITypeInfo2_RemoteGetDocumentation2_Thunk
PUBLIC 89eb0 0 ITypeInfo_RemoteCreateInstance_Thunk
PUBLIC 89f00 0 ITypeInfo_RemoteGetContainingTypeLib_Thunk
PUBLIC 89f40 0 ITypeInfo_RemoteGetDllEntry_Thunk
PUBLIC 89fc0 0 ITypeInfo_RemoteGetDocumentation_Thunk
PUBLIC 8a040 0 ITypeInfo_RemoteGetFuncDesc_Thunk
PUBLIC 8a070 0 ITypeInfo_RemoteGetNames_Thunk
PUBLIC 8a0b0 0 ITypeInfo_RemoteGetTypeAttr_Thunk
PUBLIC 8a0e0 0 ITypeInfo_RemoteGetVarDesc_Thunk
PUBLIC 8a110 0 ITypeLib2_RemoteGetDocumentation2_Thunk
PUBLIC 8a190 0 ITypeLib2_RemoteGetLibStatistics_Thunk
PUBLIC 8a1d0 0 ITypeLib_RemoteFindName_Thunk
PUBLIC 8a260 0 ITypeLib_RemoteGetDocumentation_Thunk
PUBLIC 8a2e0 0 ITypeLib_RemoteGetLibAttr_Thunk
PUBLIC 8a310 0 ITypeLib_RemoteGetTypeInfoCount_Thunk
PUBLIC 8a350 0 ITypeLib_RemoteIsName_Thunk
PUBLIC 8a3e0 0 InvokeProxyPreCheck(unsigned long*, tagDISPPARAMS*, tagVARIANT*, unsigned int*, unsigned int**, tagVARIANT**, tagVARIANT**)
PUBLIC 8a550 0 InvokeStubPostCheck(long, tagDISPPARAMS*, tagEXCEPINFO*, unsigned short*, unsigned int, unsigned int*, tagVARIANT*)
PUBLIC 8a63c 0 InvokeStubPreCheck(tagDISPPARAMS*, unsigned short**, unsigned long, tagVARIANT**, tagEXCEPINFO**, unsigned int**, unsigned int, unsigned int*, tagVARIANT*)
PUBLIC 8a77c 0 SecureFuncDesc(tagFUNCDESC*)
PUBLIC 8a7d0 0 IAdviseSinkEx_OnClose_Proxy
PUBLIC 8a7f0 0 IAdviseSinkEx_OnDataChange_Proxy
PUBLIC 8a820 0 IAdviseSinkEx_OnRename_Proxy
PUBLIC 8a850 0 IAdviseSinkEx_OnSave_Proxy
PUBLIC 8a870 0 IAdviseSinkEx_OnViewChange_Proxy
PUBLIC 8a8a0 0 IAdviseSinkEx_OnViewStatusChange_Proxy
PUBLIC 8a8d0 0 IClassFactory2_CreateInstanceLic_Proxy
PUBLIC 8a920 0 IDispatch_Invoke_Proxy
PUBLIC 8aad0 0 IDispatch_Invoke_Stub
PUBLIC 8ac00 0 IEnumConnectionPoints_Next_Proxy
PUBLIC 8ac60 0 IEnumConnections_Next_Proxy
PUBLIC 8acc0 0 IEnumOleUndoUnits_Next_Proxy
PUBLIC 8ad10 0 IPersistMemory_Load_Proxy
PUBLIC 8ad40 0 IPersistMemory_Save_Proxy
PUBLIC 8ad80 0 IQuickActivate_QuickActivate_Proxy
PUBLIC 8ae50 0 ITypeComp_BindType_Proxy
PUBLIC 8aeb0 0 ITypeComp_Bind_Proxy
PUBLIC 8afcc 0 ITypeComp_Bind_Stub
PUBLIC 8b110 0 ITypeInfo2_GetDocumentation2_Proxy
PUBLIC 8b1e0 0 ITypeInfo_CreateInstance_Proxy
PUBLIC 8b230 0 ITypeInfo_GetContainingTypeLib_Proxy
PUBLIC 8b2c0 0 ITypeInfo_GetDllEntry_Proxy
PUBLIC 8b390 0 ITypeInfo_GetDocumentation_Proxy
PUBLIC 8b470 0 ITypeInfo_GetFuncDesc_Proxy
PUBLIC 8b4b8 0 ITypeInfo_GetFuncDesc_Stub
PUBLIC 8b550 0 ITypeInfo_GetNames_Proxy
PUBLIC 8b5a0 0 ITypeInfo_GetTypeAttr_Proxy
PUBLIC 8b5e4 0 ITypeInfo_GetTypeAttr_Stub
PUBLIC 8b690 0 ITypeInfo_GetVarDesc_Proxy
PUBLIC 8b6d8 0 ITypeInfo_GetVarDesc_Stub
PUBLIC 8b780 0 ITypeLib2_GetDocumentation2_Proxy
PUBLIC 8b850 0 ITypeLib2_GetLibStatistics_Proxy
PUBLIC 8b8a0 0 ITypeLib_FindName_Proxy
PUBLIC 8b970 0 ITypeLib_GetDocumentation_Proxy
PUBLIC 8ba70 0 ITypeLib_GetLibAttr_Proxy
PUBLIC 8bab4 0 ITypeLib_GetLibAttr_Stub
PUBLIC 8bb50 0 ITypeLib_GetTypeInfoCount_Proxy
PUBLIC 8bb90 0 ITypeLib_IsName_Proxy
PUBLIC 8bc40 0 ITypeLib_ReleaseTLibAttr_Proxy
PUBLIC 8bc7c 0 VariantClearWorker
PUBLIC 8bdc0 0 VariantCopy
PUBLIC 8c090 0 VariantClear
PUBLIC 8c0f0 0 VariantInit
FUNC 8c110 a4 0 VariantCopyInd
FUNC 8c1b4 1da 0 VariantCopyInd
PUBLIC 8c38e 0 <unknown in oleaut32.dll>
STACK CFI INIT 1010 10d .cfa: $rsp 64 + $rdi: .cfa 16 - ^ $r14: .cfa 24 - ^ $r15: .cfa 32 - ^ $rbx: .cfa 0 - ^ $rbp: .cfa 0 - ^ $rsi: .cfa 0 - ^ .ra: .cfa 8 - ^
STACK CFI INIT 1130 125 .cfa: $rsp 64 + $rdi: .cfa 16 - ^ $r14: .cfa 24 - ^ $r15: .cfa 32 - ^ $rbx: .cfa 0 - ^ $rbp: .cfa 0 - ^ $rsi: .cfa 0 - ^ .ra: .cfa 8 - ^
STACK CFI INIT 1260 89 .cfa: $rsp 48 + $rdi: .cfa 16 - ^ $rbx: .cfa 0 - ^ $rsi: .cfa 0 - ^ .ra: .cfa 8 - ^
STACK CFI INIT 12ea a .cfa: $rsp 64 + $rdi: .cfa 16 - ^ $r14: .cfa 24 - ^ $r15: .cfa 32 - ^ $rbx: .cfa 0 - ^ $rbp: .cfa 0 - ^ $rsi: .cfa 0 - ^ .ra: .cfa 8 - ^
STACK CFI INIT 12f4 49 .cfa: $rsp 64 + $rdi: .cfa 16 - ^ $r14: .cfa 24 - ^ $r15: .cfa 32 - ^ $rbx: .cfa 0 - ^ $rbp: .cfa 0 - ^ $rsi: .cfa 0 - ^ .ra: .cfa 8 - ^
STACK CFI INIT 133e a .cfa: $rsp 48 + $rdi: .cfa 16 - ^ $rbx: .cfa 0 - ^ $rsi: .cfa 0 - ^ .ra: .cfa 8 - ^
STACK CFI INIT 1380 19 .cfa: $rsp 48 + .ra: .cfa 8 - ^
STACK CFI INIT 13a0 19 .cfa: $rsp 48 + .ra: .cfa 8 - ^
STACK CFI INIT 13c0 19 .cfa: $rsp 48 + .ra: .cfa 8 - ^
STACK CFI INIT 13e0 216 .cfa: $rsp 288 + $rbp: .cfa 16 - ^ $rbx: .cfa 24 - ^ $rsi: .cfa 32 - ^ $rdi: .cfa 40 - ^ $r12: .cfa 48 - ^ $r13: .cfa 56 - ^ $r14: .cfa 64 - ^ $r15: .cfa 72 - ^ .ra: .cfa 8 - ^
STACK CFI INIT 1600 189 .cfa: $rsp 144 + $rbp: .cfa 16 - ^ $rbx: .cfa 24 - ^ $rsi: .cfa 32 - ^ $rdi: .cfa 40 - ^ $r12: .cfa 48 - ^ $r14: .cfa 56 - ^ $r15: .cfa 64 - ^ .ra: .cfa 8 - ^
STACK CFI INIT 1790 f7 .cfa: $rsp 64 + $r14: .cfa 16 - ^ $rbx: .cfa 0 - ^ $rbp: .cfa 0 - ^ $rsi: .cfa 0 - ^ $rdi: .cfa 0 - ^ .ra: .cfa 8 - ^
STACK CFI INIT 18f0 199 .cfa: $rsp 112 + $rbx: .cfa 16 - ^ $rbp: .cfa 24 - ^ $rsi: .cfa 32 - ^ $rdi: .cfa 40 - ^ $r12: .cfa 48 - ^ $r14: .cfa 56 - ^ $r15: .cfa 64 - ^ .ra: .cfa 8 - ^
STACK CFI INIT 1a90 ef .cfa: $rsp 96 + $rbx: .cfa 16 - ^ .ra: .cfa 8 - ^
STACK CFI INIT 1b88 24 .cfa: $rsp 48 + $rbx: .cfa 16 - ^ .ra: .cfa 8 - ^
STACK CFI INIT 1bc8 42 .cfa: $rsp 48 + $rdi: .cfa 16 - ^ $rbx: .cfa 0 - ^ .ra: .cfa 8 - ^
STACK CFI INIT 1c10 61 .cfa: $rsp 64 + .ra: .cfa 8 - ^
STACK CFI INIT 1c78 94 .cfa: $rsp 64 + $rdi: .cfa 16 - ^ $rbx: .cfa 0 - ^ $rsi: .cfa 0 - ^ .ra: .cfa 8 - ^
STACK CFI INIT 1d5c 67 .cfa: $rsp 96 + $r14: .cfa 16 - ^ $rbx: .cfa 0 - ^ $rsi: .cfa 0 - ^ $rdi: .cfa 0 - ^ .ra: .cfa 8 - ^
STACK CFI INIT 1dcc 78 .cfa: $rsp 48 + $rbx: .cfa 16 - ^ .ra: .cfa 8 - ^
STACK CFI INIT 1e4c 4e .cfa: $rsp 64 + $rbx: .cfa 16 - ^ .ra: .cfa 8 - ^
STACK CFI INIT 1ea0 3c .cfa: $rsp 64 + $rbx: .cfa 16 - ^ .ra: .cfa 8 - ^
STACK CFI INIT 1ee4 1c .cfa: $rsp 80 + .ra: .cfa 8 - ^
STACK CFI INIT 1f08 27 .cfa: $rsp 48 + .ra: .cfa 8 - ^
STACK CFI INIT 1fa4 33 .cfa: $rsp 64 + $rbx: .cfa 16 - ^ .ra: .cfa 8 - ^
STACK CFI INIT 1fe0 36 .cfa: $rsp 48 + $rdi: .cfa 16 - ^ $rbx: .cfa 0 - ^ .ra: .cfa 8 - ^
STACK CFI INIT 2060 4e .cfa: $rsp 48 + $rbx: .cfa 16 - ^ .ra: .cfa 8 - ^
STACK CFI INIT 20c0 69 .cfa: $rsp 64 + $rdi: .cfa 16 - ^ $rbx: .cfa 0 - ^ $rbp: .cfa 0 - ^ $rsi: .cfa 0 - ^ .ra: .cfa 8 - ^
STACK CFI INIT 2130 11d .cfa: $rsp 48 + $rdi: .cfa 16 - ^ $rbx: .cfa 0 - ^ $rsi: .cfa 0 - ^ .ra: .cfa 8 - ^
STACK CFI INIT 2254 64 .cfa: $rsp 48 + $rdi: .cfa 16 - ^ $rbx: .cfa 0 - ^ .ra: .cfa 8 - ^
STACK CFI INIT 22c0 e3 .cfa: $rsp 48 + $rdi: .cfa 16 - ^ $rbx: .cfa 0 - ^ $rsi: .cfa 0 - ^ .ra: .cfa 8 - ^
STACK CFI INIT 23b0 19 .cfa: $rsp 48 + .ra: .cfa 8 - ^
STACK CFI INIT 23d0 3d .cfa: $rsp 64 + $rdi: .cfa 16 - ^ $rbx: .cfa 0 - ^ .ra: .cfa 8 - ^
STACK CFI INIT 2420 48 .cfa: $rsp 64 + $rbx: .cfa 16 - ^ .ra: .cfa 8 - ^
STACK CFI INIT 2470 1fc .cfa: $rsp 192 + $rdi: .cfa 16 - ^ $r12: .cfa 24 - ^ $r13: .cfa 32 - ^ $r14: .cfa 40 - ^ $r15: .cfa 48 - ^ $rbx: .cfa 0 - ^ $rbp: .cfa 0 - ^ $rsi: .cfa 0 - ^ .ra: .cfa 8 - ^
STACK CFI INIT 2680 324 .cfa: $rsp 368 + $rbx: .cfa 16 - ^ $rsi: .cfa 24 - ^ $rdi: .cfa 32 - ^ $r12: .cfa 40 - ^ $r13: .cfa 48 - ^ $r14: .cfa 56 - ^ $r15: .cfa 64 - ^ .ra: .cfa 8 - ^
STACK CFI INIT 29b0 13c .cfa: $rsp 80 + $r13: .cfa 16 - ^ $r14: .cfa 24 - ^ $r15: .cfa 32 - ^ $rbx: .cfa 0 - ^ $rsi: .cfa 0 - ^ $rdi: .cfa 0 - ^ $r12: .cfa 0 - ^ .ra: .cfa 8 - ^
STACK CFI INIT 2b00 1e1 .cfa: $rsp 192 + $rbx: .cfa 16 - ^ $rsi: .cfa 24 - ^ $rdi: .cfa 32 - ^ $r12: .cfa 40 - ^ $r13: .cfa 48 - ^ $r14: .cfa 56 - ^ $r15: .cfa 64 - ^ .ra: .cfa 8 - ^
STACK CFI INIT 2cf0 a6 .cfa: $rsp 400 + $rbx: .cfa 16 - ^ $rsi: .cfa 24 - ^ $rdi: .cfa 32 - ^ .ra: .cfa 8 - ^
STACK CFI INIT 2da0 b1 .cfa: $rsp 64 + $r14: .cfa 16 - ^ $rbx: .cfa 0 - ^ $rdi: .cfa 0 - ^ .ra: .cfa 8 - ^
STACK CFI INIT 2e60 ed .cfa: $rsp 160 + $rbp: .cfa 16 - ^ $rsi: .cfa 24 - ^ $rdi: .cfa 32 - ^ $r12: .cfa 40 - ^ $r13: .cfa 48 - ^ $r14: .cfa 56 - ^ $r15: .cfa 64 - ^ $rbx: .cfa 0 - ^ .ra: .cfa 8 - ^
STACK CFI INIT 2f54 2a .cfa: $rsp 48 + .ra: .cfa 8 - ^
STACK CFI INIT 2f90 16 .cfa: $rsp 64 + .ra: .cfa 8 - ^
STACK CFI INIT 2fb0 46 .cfa: $rsp 64 + $rdi: .cfa 16 - ^ $rbx: .cfa 0 - ^ .ra: .cfa 8 - ^
STACK CFI INIT 2ffc 5d .cfa: $rsp 64 + $rbx: .cfa 16 - ^ .ra: .cfa 8 - ^
STACK CFI INIT 3060 32 .cfa: $rsp 48 + $rdi: .cfa 16 - ^ $rbx: .cfa 0 - ^ $rsi: .cfa 0 - ^ .ra: .cfa 8 - ^
STACK CFI INIT 30d0 74 .cfa: $rsp 160 + $rbx: .cfa 16 - ^ $rbp: .cfa 24 - ^ $rsi: .cfa 32 - ^ $rdi: .cfa 40 - ^ .ra: .cfa 8 - ^
STACK CFI INIT 3180 57 .cfa: $rsp 48 + $rdi: .cfa 16 - ^ $rbx: .cfa 0 - ^ $rbp: .cfa 0 - ^ $rsi: .cfa 0 - ^ .ra: .cfa 8 - ^
STACK CFI INIT 31e0 47 .cfa: $rsp 48 + $rdi: .cfa 16 - ^ $rbx: .cfa 0 - ^ $rsi: .cfa 0 - ^ .ra: .cfa 8 - ^
STACK CFI INIT 3230 53 .cfa: $rsp 96 + .ra: .cfa 8 - ^
STACK CFI INIT 329c 4a .cfa: $rsp 64 + $rbx: .cfa 16 - ^ .ra: .cfa 8 - ^
STACK CFI INIT 32ec 83 .cfa: $rsp 80 + $rdi: .cfa 16 - ^ $rbx: .cfa 0 - ^ $rbp: .cfa 0 - ^ $rsi: .cfa 0 - ^ .ra: .cfa 8 - ^
STACK CFI INIT 3380 af .cfa: $rsp 64 + $rsi: .cfa 16 - ^ $rdi: .cfa 24 - ^ $r14: .cfa 32 - ^ $rbx: .cfa 0 - ^ $rbp: .cfa 0 - ^ .ra: .cfa 8 - ^
STACK CFI INIT 3440 8b .cfa: $rsp 80 + $rdi: .cfa 16 - ^ $rbx: .cfa 0 - ^ $rbp: .cfa 0 - ^ $rsi: .cfa 0 - ^ .ra: .cfa 8 - ^
STACK CFI INIT 34e0 d9 .cfa: $rsp 48 + $r14: .cfa 16 - ^ $rbx: .cfa 0 - ^ $rbp: .cfa 0 - ^ $rsi: .cfa 0 - ^ $rdi: .cfa 0 - ^ .ra: .cfa 8 - ^
STACK CFI INIT 35f0 70 .cfa: $rsp 160 + $rbx: .cfa 16 - ^ $rbp: .cfa 24 - ^ $rsi: .cfa 32 - ^ $rdi: .cfa 40 - ^ .ra: .cfa 8 - ^
STACK CFI INIT 3670 9f .cfa: $rsp 1488 + $rbx: .cfa 16 - ^ $rsi: .cfa 24 - ^ $rdi: .cfa 32 - ^ .ra: .cfa 8 - ^
STACK CFI INIT 3720 5a .cfa: $rsp 144 + $rbx: .cfa 16 - ^ .ra: .cfa 8 - ^
STACK CFI INIT 3780 30 .cfa: $rsp 48 + $rbx: .cfa 16 - ^ .ra: .cfa 8 - ^
STACK CFI INIT 37b8 af .cfa: $rsp 64 + $rdi: .cfa 16 - ^ $r14: .cfa 24 - ^ $r15: .cfa 32 - ^ $rbx: .cfa 0 - ^ $rbp: .cfa 0 - ^ $rsi: .cfa 0 - ^ .ra: .cfa 8 - ^
STACK CFI INIT 3870 11d .cfa: $rsp 80 + $rbp: .cfa 16 - ^ $rdi: .cfa 24 - ^ $r12: .cfa 32 - ^ $r14: .cfa 40 - ^ $r15: .cfa 48 - ^ $rbx: .cfa 0 - ^ $rsi: .cfa 0 - ^ .ra: .cfa 8 - ^
STACK CFI INIT 3994 58 .cfa: $rsp 112 + $rbx: .cfa 16 - ^ .ra: .cfa 8 - ^
STACK CFI INIT 3a00 83 .cfa: $rsp 64 + $rdi: .cfa 16 - ^ $rbx: .cfa 0 - ^ .ra: .cfa 8 - ^
STACK CFI INIT 3ab0 d7 .cfa: $rsp 176 + $rbx: .cfa 16 - ^ $rbp: .cfa 24 - ^ $rsi: .cfa 32 - ^ $rdi: .cfa 40 - ^ $r12: .cfa 48 - ^ $r13: .cfa 56 - ^ $r14: .cfa 64 - ^ $r15: .cfa 72 - ^ .ra: .cfa 8 - ^
STACK CFI INIT 3b90 2a .cfa: $rsp 48 + .ra: .cfa 8 - ^
STACK CFI INIT 3bc0 1e7 .cfa: $rsp 192 + $rbx: .cfa 16 - ^ $rsi: .cfa 24 - ^ $rdi: .cfa 32 - ^ $r12: .cfa 40 - ^ $r13: .cfa 48 - ^ $r14: .cfa 56 - ^ $r15: .cfa 64 - ^ .ra: .cfa 8 - ^
STACK CFI INIT 3db0 3ad .cfa: $rsp 160 + $rbp: .cfa 16 - ^ $rsi: .cfa 24 - ^ $rdi: .cfa 32 - ^ $r12: .cfa 40 - ^ $r13: .cfa 48 - ^ $r14: .cfa 56 - ^ $r15: .cfa 64 - ^ $rbx: .cfa 0 - ^ .ra: .cfa 8 - ^
STACK CFI INIT 4164 29 .cfa: $rsp 48 + .ra: .cfa 8 - ^
STACK CFI INIT 4194 6b .cfa: $rsp 48 + $rdi: .cfa 16 - ^ $rbx: .cfa 0 - ^ $rbp: .cfa 0 - ^ $rsi: .cfa 0 - ^ .ra: .cfa 8 - ^
STACK CFI INIT 4208 2a .cfa: $rsp 48 + .ra: .cfa 8 - ^
STACK CFI INIT 4238 72 .cfa: $rsp 48 + .ra: .cfa 8 - ^
STACK CFI INIT 42b0 38a .cfa: $rsp 368 + $rbx: .cfa 16 - ^ $rsi: .cfa 24 - ^ $rdi: .cfa 32 - ^ $r12: .cfa 40 - ^ $r13: .cfa 48 - ^ $r14: .cfa 56 - ^ $r15: .cfa 64 - ^ .ra: .cfa 8 - ^
STACK CFI INIT 46a8 e7 .cfa: $rsp 80 + .ra: .cfa 8 - ^
STACK CFI INIT 4798 91 .cfa: $rsp 688 + $rbx: .cfa 16 - ^ $rbp: .cfa 24 - ^ $rsi: .cfa 32 - ^ $rdi: .cfa 40 - ^ $r12: .cfa 48 - ^ $r14: .cfa 56 - ^ $r15: .cfa 64 - ^ .ra: .cfa 8 - ^
STACK CFI INIT 4830 53 .cfa: $rsp 48 + $rdi: .cfa 16 - ^ $rbx: .cfa 0 - ^ .ra: .cfa 8 - ^
STACK CFI INIT 488c 8a .cfa: $rsp 96 + $rbp: .cfa 16 - ^ $rdi: .cfa 24 - ^ $r14: .cfa 32 - ^ $rbx: .cfa 0 - ^ $rsi: .cfa 0 - ^ .ra: .cfa 8 - ^
STACK CFI INIT 491c 34 .cfa: $rsp 48 + .ra: .cfa 8 - ^
STACK CFI INIT 4958 38 .cfa: $rsp 48 + .ra: .cfa 8 - ^
STACK CFI INIT 4998 453 .cfa: $rsp 208 + $rbp: .cfa 16 - ^ $rbx: .cfa 24 - ^ $rsi: .cfa 32 - ^ $rdi: .cfa 40 - ^ $r12: .cfa 48 - ^ $r13: .cfa 56 - ^ $r14: .cfa 64 - ^ $r15: .cfa 72 - ^ .ra: .cfa 8 - ^
STACK CFI INIT 4e00 83 .cfa: $rsp 144 + $rbx: .cfa 16 - ^ .ra: .cfa 8 - ^
STACK CFI INIT 4e8c 29 .cfa: $rsp 48 + $rbx: .cfa 16 - ^ .ra: .cfa 8 - ^
STACK CFI INIT 4ebc 194 .cfa: $rsp 176 + $rbp: .cfa 16 - ^ $rsi: .cfa 24 - ^ $rdi: .cfa 32 - ^ $r12: .cfa 40 - ^ $r13: .cfa 48 - ^ $r14: .cfa 56 - ^ $r15: .cfa 64 - ^ $rbx: .cfa 0 - ^ .ra: .cfa 8 - ^
STACK CFI INIT 5090 12d .cfa: $rsp 96 + $rsi: .cfa 16 - ^ $rdi: .cfa 24 - ^ $r12: .cfa 32 - ^ $r14: .cfa 40 - ^ $r15: .cfa 48 - ^ $rbx: .cfa 0 - ^ $rbp: .cfa 0 - ^ .ra: .cfa 8 - ^
STACK CFI INIT 51d0 8d .cfa: $rsp 64 + $rdi: .cfa 16 - ^ $r14: .cfa 24 - ^ $r15: .cfa 32 - ^ $rbx: .cfa 0 - ^ $rbp: .cfa 0 - ^ $rsi: .cfa 0 - ^ .ra: .cfa 8 - ^
STACK CFI INIT 5264 195 .cfa: $rsp 80 + $rdi: .cfa 16 - ^ $r12: .cfa 24 - ^ $r13: .cfa 32 - ^ $r14: .cfa 40 - ^ $r15: .cfa 48 - ^ $rbx: .cfa 0 - ^ $rbp: .cfa 0 - ^ $rsi: .cfa 0 - ^ .ra: .cfa 8 - ^
STACK CFI INIT 5400 2e .cfa: $rsp 48 + $rbx: .cfa 16 - ^ .ra: .cfa 8 - ^
STACK CFI INIT 5434 38 .cfa: $rsp 48 + .ra: .cfa 8 - ^
STACK CFI INIT 5480 22d .cfa: $rsp 112 + $rbp: .cfa 16 - ^ $rsi: .cfa 24 - ^ $rdi: .cfa 32 - ^ $r12: .cfa 40 - ^ $r13: .cfa 48 - ^ $r14: .cfa 56 - ^ $r15: .cfa 64 - ^ $rbx: .cfa 0 - ^ .ra: .cfa 8 - ^
STACK CFI INIT 56c0 d5 .cfa: $rsp 128 + $rbp: .cfa 16 - ^ $rbx: .cfa 24 - ^ .ra: .cfa 8 - ^
STACK CFI INIT 57a0 85 .cfa: $rsp 144 + $rbx: .cfa 16 - ^ .ra: .cfa 8 - ^
STACK CFI INIT 5830 1d8 .cfa: $rsp 80 + $rdi: .cfa 16 - ^ $r14: .cfa 24 - ^ $r15: .cfa 32 - ^ $rbx: .cfa 0 - ^ $rbp: .cfa 0 - ^ $rsi: .cfa 0 - ^ .ra: .cfa 8 - ^
STACK CFI INIT 5a10 169 .cfa: $rsp 160 + $rbp: .cfa 16 - ^ $rbx: .cfa 0 - ^ $rsi: .cfa 0 - ^ $rdi: .cfa 0 - ^ .ra: .cfa 8 - ^
STACK CFI INIT 5b80 80 .cfa: $rsp 96 + $rbx: .cfa 16 - ^ .ra: .cfa 8 - ^
STACK CFI INIT 5c40 310 .cfa: $rsp 160 + $rdi: .cfa 16 - ^ $r14: .cfa 24 - ^ $r15: .cfa 32 - ^ $rbx: .cfa 0 - ^ $rbp: .cfa 0 - ^ $rsi: .cfa 0 - ^ .ra: .cfa 8 - ^
STACK CFI INIT 5f60 105 .cfa: $rsp 96 + $rdi: .cfa 16 - ^ $rbx: .cfa 0 - ^ .ra: .cfa 8 - ^
STACK CFI INIT 6070 223 .cfa: $rsp 160 + $rbx: .cfa 16 - ^ $rbp: .cfa 24 - ^ $rsi: .cfa 32 - ^ $rdi: .cfa 40 - ^ $r12: .cfa 48 - ^ $r13: .cfa 56 - ^ $r14: .cfa 64 - ^ $r15: .cfa 72 - ^ .ra: .cfa 8 - ^
STACK CFI INIT 62a0 28d .cfa: $rsp 96 + $rbp: .cfa 16 - ^ $rsi: .cfa 24 - ^ $rdi: .cfa 32 - ^ $r12: .cfa 40 - ^ $r13: .cfa 48 - ^ $r14: .cfa 56 - ^ $r15: .cfa 64 - ^ $rbx: .cfa 0 - ^ .ra: .cfa 8 - ^
STACK CFI INIT 6560 b3 .cfa: $rsp 224 + $rbp: .cfa 16 - ^ $r12: .cfa 24 - ^ $r13: .cfa 32 - ^ $r14: .cfa 40 - ^ $r15: .cfa 48 - ^ $rsi: .cfa 0 - ^ $rdi: .cfa 0 - ^ .ra: .cfa 8 - ^
STACK CFI INIT 6613 19e .cfa: $rsp 224 + $rbx: .cfa 0 - ^ $rbp: .cfa 16 - ^ $r12: .cfa 24 - ^ $r13: .cfa 32 - ^ $r14: .cfa 40 - ^ $r15: .cfa 48 - ^ $rsi: .cfa 0 - ^ $rdi: .cfa 0 - ^ .ra: .cfa 8 - ^
STACK CFI INIT 67b1 30 .cfa: $rsp 224 + $rbp: .cfa 16 - ^ $r12: .cfa 24 - ^ $r13: .cfa 32 - ^ $r14: .cfa 40 - ^ $r15: .cfa 48 - ^ $rsi: .cfa 0 - ^ $rdi: .cfa 0 - ^ .ra: .cfa 8 - ^
STACK CFI INIT 67e1 1fb .cfa: $rsp 224 + $rbx: .cfa 0 - ^ $rbp: .cfa 16 - ^ $r12: .cfa 24 - ^ $r13: .cfa 32 - ^ $r14: .cfa 40 - ^ $r15: .cfa 48 - ^ $rsi: .cfa 0 - ^ $rdi: .cfa 0 - ^ .ra: .cfa 8 - ^
STACK CFI INIT 69dc b .cfa: $rsp 224 + $rbp: .cfa 16 - ^ $r12: .cfa 24 - ^ $r13: .cfa 32 - ^ $r14: .cfa 40 - ^ $r15: .cfa 48 - ^ $rsi: .cfa 0 - ^ $rdi: .cfa 0 - ^ .ra: .cfa 8 - ^
STACK CFI INIT 69e7 2cc .cfa: $rsp 224 + $rbx: .cfa 0 - ^ $rbp: .cfa 16 - ^ $r12: .cfa 24 - ^ $r13: .cfa 32 - ^ $r14: .cfa 40 - ^ $r15: .cfa 48 - ^ $rsi: .cfa 0 - ^ $rdi: .cfa 0 - ^ .ra: .cfa 8 - ^
STACK CFI INIT 6cc0 395 .cfa: $rsp 208 + $rbp: .cfa 16 - ^ $rsi: .cfa 24 - ^ $rdi: .cfa 32 - ^ $r12: .cfa 40 - ^ $r13: .cfa 48 - ^ $r14: .cfa 56 - ^ $r15: .cfa 64 - ^ $rbx: .cfa 0 - ^ .ra: .cfa 8 - ^
STACK CFI INIT 705c 33 .cfa: $rsp 48 + $rbx: .cfa 16 - ^ .ra: .cfa 8 - ^
STACK CFI INIT 7098 285 .cfa: $rsp 112 + $rdi: .cfa 16 - ^ $r12: .cfa 24 - ^ $r13: .cfa 32 - ^ $r14: .cfa 40 - ^ $r15: .cfa 48 - ^ $rbx: .cfa 0 - ^ $rbp: .cfa 0 - ^ $rsi: .cfa 0 - ^ .ra: .cfa 8 - ^
STACK CFI INIT 7324 68 .cfa: $rsp 96 + $rdi: .cfa 16 - ^ $r12: .cfa 24 - ^ $r13: .cfa 32 - ^ $r14: .cfa 40 - ^ $r15: .cfa 48 - ^ $rbx: .cfa 0 - ^ $rbp: .cfa 0 - ^ $rsi: .cfa 0 - ^ .ra: .cfa 8 - ^
STACK CFI INIT 73a0 b77 .cfa: $rsp 896 + $rbp: .cfa 16 - ^ $rbx: .cfa 24 - ^ $rsi: .cfa 32 - ^ $rdi: .cfa 40 - ^ $r12: .cfa 48 - ^ $r13: .cfa 56 - ^ $r14: .cfa 64 - ^ $r15: .cfa 72 - ^ .ra: .cfa 8 - ^
STACK CFI INIT 7f20 2c8 .cfa: $rbp 160 + $rbp: .cfa 16 - ^ $rsi: .cfa 24 - ^ $rdi: .cfa 32 - ^ $r12: .cfa 40 - ^ $r13: .cfa 48 - ^ $r14: .cfa 56 - ^ $r15: .cfa 64 - ^ $rbx: $rbp 176 + ^ .ra: .cfa 8 - ^
STACK CFI INIT 81f0 101 .cfa: $rsp 848 + $rbp: .cfa 16 - ^ $rbx: .cfa 24 - ^ $rsi: .cfa 32 - ^ $rdi: .cfa 40 - ^ $r12: .cfa 48 - ^ $r14: .cfa 56 - ^ .ra: .cfa 8 - ^
STACK CFI INIT 82f1 281 .cfa: $rsp 848 + $r15: .cfa 0 - ^ $r13: .cfa 0 - ^ $rbp: .cfa 16 - ^ $rbx: .cfa 24 - ^ $rsi: .cfa 32 - ^ $rdi: .cfa 40 - ^ $r12: .cfa 48 - ^ $r14: .cfa 56 - ^ .ra: .cfa 8 - ^
STACK CFI INIT 8572 1f .cfa: $rsp 848 + $rbp: .cfa 16 - ^ $rbx: .cfa 24 - ^ $rsi: .cfa 32 - ^ $rdi: .cfa 40 - ^ $r12: .cfa 48 - ^ $r14: .cfa 56 - ^ .ra: .cfa 8 - ^
STACK CFI INIT 8591 1f .cfa: $rsp 848 + $r13: .cfa 0 - ^ $r15: .cfa 0 - ^ $rbp: .cfa 16 - ^ $rbx: .cfa 24 - ^ $rsi: .cfa 32 - ^ $rdi: .cfa 40 - ^ $r12: .cfa 48 - ^ $r14: .cfa 56 - ^ .ra: .cfa 8 - ^
STACK CFI INIT 85b0 1f .cfa: $rsp 848 + $r15: .cfa 0 - ^ $rbp: .cfa 16 - ^ $rbx: .cfa 24 - ^ $rsi: .cfa 32 - ^ $rdi: .cfa 40 - ^ $r12: .cfa 48 - ^ $r14: .cfa 56 - ^ .ra: .cfa 8 - ^
STACK CFI INIT 85cf d1 .cfa: $rsp 848 + $r13: .cfa 0 - ^ $r15: .cfa 0 - ^ $rbp: .cfa 16 - ^ $rbx: .cfa 24 - ^ $rsi: .cfa 32 - ^ $rdi: .cfa 40 - ^ $r12: .cfa 48 - ^ $r14: .cfa 56 - ^ .ra: .cfa 8 - ^
STACK CFI INIT 86a0 9 .cfa: $rsp 848 + $rbp: .cfa 16 - ^ $rbx: .cfa 24 - ^ $rsi: .cfa 32 - ^ $rdi: .cfa 40 - ^ $r12: .cfa 48 - ^ $r14: .cfa 56 - ^ .ra: .cfa 8 - ^
STACK CFI INIT 86a9 1c4 .cfa: $rsp 848 + $r13: .cfa 0 - ^ $r15: .cfa 0 - ^ $rbp: .cfa 16 - ^ $rbx: .cfa 24 - ^ $rsi: .cfa 32 - ^ $rdi: .cfa 40 - ^ $r12: .cfa 48 - ^ $r14: .cfa 56 - ^ .ra: .cfa 8 - ^
STACK CFI INIT 886d 28 .cfa: $rsp 848 + $rbp: .cfa 16 - ^ $rbx: .cfa 24 - ^ $rsi: .cfa 32 - ^ $rdi: .cfa 40 - ^ $r12: .cfa 48 - ^ $r14: .cfa 56 - ^ .ra: .cfa 8 - ^
STACK CFI INIT 8895 20 .cfa: $rsp 848 + $r13: .cfa 0 - ^ $r15: .cfa 0 - ^ $rbp: .cfa 16 - ^ $rbx: .cfa 24 - ^ $rsi: .cfa 32 - ^ $rdi: .cfa 40 - ^ $r12: .cfa 48 - ^ $r14: .cfa 56 - ^ .ra: .cfa 8 - ^
STACK CFI INIT 88c0 180 .cfa: $rsp 64 + $rsi: .cfa 16 - ^ $rdi: .cfa 24 - ^ $r14: .cfa 32 - ^ $rbx: .cfa 0 - ^ $rbp: .cfa 0 - ^ .ra: .cfa 8 - ^
STACK CFI INIT 8a50 a5 .cfa: $rsp 48 + $rdi: .cfa 16 - ^ $rbx: .cfa 0 - ^ $rsi: .cfa 0 - ^ .ra: .cfa 8 - ^
STACK CFI INIT 8b10 43 .cfa: $rsp 48 + $rdi: .cfa 16 - ^ $rbx: .cfa 0 - ^ .ra: .cfa 8 - ^
STACK CFI INIT 8b60 2d .cfa: $rsp 64 + $rbx: .cfa 16 - ^ $rbp: .cfa 24 - ^ $r14: .cfa 32 - ^ .ra: .cfa 8 - ^
STACK CFI INIT 8b8d 135 .cfa: $rsp 64 + $rsi: .cfa 0 - ^ $rdi: .cfa 0 - ^ $r15: .cfa 0 - ^ $rbx: .cfa 16 - ^ $rbp: .cfa 24 - ^ $r14: .cfa 32 - ^ .ra: .cfa 8 - ^
STACK CFI INIT 8cc2 10 .cfa: $rsp 64 + $rbx: .cfa 16 - ^ $rbp: .cfa 24 - ^ $r14: .cfa 32 - ^ .ra: .cfa 8 - ^
STACK CFI INIT 8cd2 52 .cfa: $rsp 64 + $rsi: .cfa 0 - ^ $rdi: .cfa 0 - ^ $r15: .cfa 0 - ^ $rbx: .cfa 16 - ^ $rbp: .cfa 24 - ^ $r14: .cfa 32 - ^ .ra: .cfa 8 - ^
STACK CFI INIT 8d30 1c .cfa: $rsp 64 + $rbx: .cfa 16 - ^ .ra: .cfa 8 - ^
STACK CFI INIT 8d4c 59 .cfa: $rsp 64 + $rsi: .cfa 0 - ^ $rbx: .cfa 16 - ^ .ra: .cfa 8 - ^
STACK CFI INIT 8da5 6 .cfa: $rsp 64 + $rbx: .cfa 16 - ^ .ra: .cfa 8 - ^
STACK CFI INIT 8dab 4 .cfa: $rsp 64 + $rsi: .cfa 0 - ^ $rbx: .cfa 16 - ^ .ra: .cfa 8 - ^
STACK CFI INIT 8daf 5 .cfa: $rsp 64 + $rbp: .cfa 0 - ^ $rsi: .cfa 0 - ^ $rbx: .cfa 16 - ^ .ra: .cfa 8 - ^
STACK CFI INIT 8db4 3d .cfa: $rsp 64 + $rdi: .cfa 0 - ^ $rbp: .cfa 0 - ^ $rsi: .cfa 0 - ^ $rbx: .cfa 16 - ^ .ra: .cfa 8 - ^
STACK CFI INIT 8df1 1d .cfa: $rsp 64 + $rbp: .cfa 0 - ^ $rsi: .cfa 0 - ^ $rbx: .cfa 16 - ^ .ra: .cfa 8 - ^
STACK CFI INIT 8e0e 8 .cfa: $rsp 64 + $rbx: .cfa 16 - ^ .ra: .cfa 8 - ^
STACK CFI INIT 8e20 20 .cfa: $rsp 64 + $rsi: .cfa 16 - ^ $r14: .cfa 24 - ^ .ra: .cfa 8 - ^
STACK CFI INIT 8e40 12 .cfa: $rsp 64 + $rbx: .cfa 0 - ^ $rsi: .cfa 16 - ^ $r14: .cfa 24 - ^ .ra: .cfa 8 - ^
STACK CFI INIT 8e52 81 .cfa: $rsp 64 + $rdi: .cfa 0 - ^ $r15: .cfa 0 - ^ $rbx: .cfa 0 - ^ $rsi: .cfa 16 - ^ $r14: .cfa 24 - ^ .ra: .cfa 8 - ^
STACK CFI INIT 8ed3 6f .cfa: $rsp 64 + $r15: .cfa 0 - ^ $rbx: .cfa 0 - ^ $rsi: .cfa 16 - ^ $r14: .cfa 24 - ^ .ra: .cfa 8 - ^
STACK CFI INIT 8f42 5 .cfa: $rsp 64 + $rbx: .cfa 0 - ^ $rsi: .cfa 16 - ^ $r14: .cfa 24 - ^ .ra: .cfa 8 - ^
STACK CFI INIT 8f47 a .cfa: $rsp 64 + $rsi: .cfa 16 - ^ $r14: .cfa 24 - ^ .ra: .cfa 8 - ^
STACK CFI INIT 8f51 d5 .cfa: $rsp 64 + $rbx: .cfa 0 - ^ $rdi: .cfa 0 - ^ $r15: .cfa 0 - ^ $rsi: .cfa 16 - ^ $r14: .cfa 24 - ^ .ra: .cfa 8 - ^
STACK CFI INIT 9026 1e .cfa: $rsp 64 + $rbx: .cfa 0 - ^ $r15: .cfa 0 - ^ $rsi: .cfa 16 - ^ $r14: .cfa 24 - ^ .ra: .cfa 8 - ^
STACK CFI INIT 9044 45 .cfa: $rsp 64 + $rbx: .cfa 0 - ^ $rdi: .cfa 0 - ^ $r15: .cfa 0 - ^ $rsi: .cfa 16 - ^ $r14: .cfa 24 - ^ .ra: .cfa 8 - ^
STACK CFI INIT 9090 70 .cfa: $rsp 48 + $rdi: .cfa 16 - ^ $rbx: .cfa 0 - ^ .ra: .cfa 8 - ^
STACK CFI INIT 9110 29 .cfa: $rsp 48 + $rbx: .cfa 16 - ^ .ra: .cfa 8 - ^
STACK CFI INIT 9139 43 .cfa: $rsp 48 + $rdi: .cfa 0 - ^ $rbx: .cfa 16 - ^ .ra: .cfa 8 - ^
STACK CFI INIT 917c d .cfa: $rsp 48 + $rbx: .cfa 16 - ^ .ra: .cfa 8 - ^
STACK CFI INIT 9189 24 .cfa: $rsp 48 + $rdi: .cfa 0 - ^ $rbx: .cfa 16 - ^ .ra: .cfa 8 - ^
STACK CFI INIT 91ad 21 .cfa: $rsp 48 + $rdi: .cfa 0 - ^ $rbx: .cfa 16 - ^ .ra: .cfa 8 - ^
STACK CFI INIT 91e0 35 .cfa: $rsp 80 + $rbx: .cfa 16 - ^ $rsi: .cfa 24 - ^ $r15: .cfa 32 - ^ .ra: .cfa 8 - ^
STACK CFI INIT 9215 13c .cfa: $rsp 80 + $rbp: .cfa 0 - ^ $rdi: .cfa 0 - ^ $r12: .cfa 0 - ^ $r13: .cfa 0 - ^ $r14: .cfa 0 - ^ $rbx: .cfa 16 - ^ $rsi: .cfa 24 - ^ $r15: .cfa 32 - ^ .ra: .cfa 8 - ^
STACK CFI INIT 9351 10 .cfa: $rsp 80 + $rbx: .cfa 16 - ^ $rsi: .cfa 24 - ^ $r15: .cfa 32 - ^ .ra: .cfa 8 - ^
STACK CFI INIT 9361 58 .cfa: $rsp 80 + $rbp: .cfa 0 - ^ $rdi: .cfa 0 - ^ $r12: .cfa 0 - ^ $r13: .cfa 0 - ^ $r14: .cfa 0 - ^ $rbx: .cfa 16 - ^ $rsi: .cfa 24 - ^ $r15: .cfa 32 - ^ .ra: .cfa 8 - ^
STACK CFI INIT 93c0 1e .cfa: $rsp 64 + .ra: .cfa 8 - ^
STACK CFI INIT 93f0 4d .cfa: $rsp 240 + $rbp: .cfa 16 - ^ $rbx: .cfa 24 - ^ $rdi: .cfa 32 - ^ $r12: .cfa 40 - ^ $r13: .cfa 48 - ^ .ra: .cfa 8 - ^
STACK CFI INIT 943d 88 .cfa: $rsp 240 + $r15: .cfa 0 - ^ $rbp: .cfa 16 - ^ $rbx: .cfa 24 - ^ $rdi: .cfa 32 - ^ $r12: .cfa 40 - ^ $r13: .cfa 48 - ^ .ra: .cfa 8 - ^
STACK CFI INIT 94c5 298 .cfa: $rsp 240 + $rsi: .cfa 0 - ^ $r14: .cfa 0 - ^ $r15: .cfa 0 - ^ $rbp: .cfa 16 - ^ $rbx: .cfa 24 - ^ $rdi: .cfa 32 - ^ $r12: .cfa 40 - ^ $r13: .cfa 48 - ^ .ra: .cfa 8 - ^
STACK CFI INIT 975d 8 .cfa: $rsp 240 + $r15: .cfa 0 - ^ $rbp: .cfa 16 - ^ $rbx: .cfa 24 - ^ $rdi: .cfa 32 - ^ $r12: .cfa 40 - ^ $r13: .cfa 48 - ^ .ra: .cfa 8 - ^
STACK CFI INIT 9765 1b .cfa: $rsp 240 + $rbp: .cfa 16 - ^ $rbx: .cfa 24 - ^ $rdi: .cfa 32 - ^ $r12: .cfa 40 - ^ $r13: .cfa 48 - ^ .ra: .cfa 8 - ^
STACK CFI INIT 9780 134d .cfa: $rsp 240 + $rsi: .cfa 0 - ^ $r14: .cfa 0 - ^ $r15: .cfa 0 - ^ $rbp: .cfa 16 - ^ $rbx: .cfa 24 - ^ $rdi: .cfa 32 - ^ $r12: .cfa 40 - ^ $r13: .cfa 48 - ^ .ra: .cfa 8 - ^
STACK CFI INIT aacd a .cfa: $rsp 240 + $rbp: .cfa 16 - ^ $rbx: .cfa 24 - ^ $rdi: .cfa 32 - ^ $r12: .cfa 40 - ^ $r13: .cfa 48 - ^ .ra: .cfa 8 - ^
STACK CFI INIT aad7 68a .cfa: $rsp 240 + $rsi: .cfa 0 - ^ $r14: .cfa 0 - ^ $r15: .cfa 0 - ^ $rbp: .cfa 16 - ^ $rbx: .cfa 24 - ^ $rdi: .cfa 32 - ^ $r12: .cfa 40 - ^ $r13: .cfa 48 - ^ .ra: .cfa 8 - ^
STACK CFI INIT b170 5c .cfa: $rsp 48 + $rdi: .cfa 16 - ^ $rbx: .cfa 0 - ^ $rbp: .cfa 0 - ^ $rsi: .cfa 0 - ^ .ra: .cfa 8 - ^
STACK CFI INIT b1cc 32 .cfa: $rsp 48 + $r14: .cfa 0 - ^ $rdi: .cfa 16 - ^ $rbx: .cfa 0 - ^ $rbp: .cfa 0 - ^ $rsi: .cfa 0 - ^ .ra: .cfa 8 - ^
STACK CFI INIT b1fe 33 .cfa: $rsp 48 + $rdi: .cfa 16 - ^ $rbx: .cfa 0 - ^ $rbp: .cfa 0 - ^ $rsi: .cfa 0 - ^ .ra: .cfa 8 - ^
STACK CFI INIT b240 12 .cfa: $rsp 48 + $rdi: .cfa 16 - ^ .ra: .cfa 8 - ^
STACK CFI INIT b252 b5 .cfa: $rsp 48 + $rbx: .cfa 0 - ^ $rbp: .cfa 0 - ^ $r14: .cfa 0 - ^ $rsi: .cfa 0 - ^ $rdi: .cfa 16 - ^ .ra: .cfa 8 - ^
STACK CFI INIT b307 8 .cfa: $rsp 48 + $rdi: .cfa 16 - ^ .ra: .cfa 8 - ^
STACK CFI INIT b30f 1b .cfa: $rsp 48 + $rbx: .cfa 0 - ^ $rbp: .cfa 0 - ^ $rsi: .cfa 0 - ^ $r14: .cfa 0 - ^ $rdi: .cfa 16 - ^ .ra: .cfa 8 - ^
STACK CFI INIT b330 84 .cfa: $rsp 48 + .ra: .cfa 8 - ^
STACK CFI INIT b3c0 74 .cfa: $rsp 112 + $rbx: .cfa 16 - ^ $r12: .cfa 24 - ^ $r14: .cfa 32 - ^ $r15: .cfa 40 - ^ .ra: .cfa 8 - ^
STACK CFI INIT b434 57 .cfa: $rsp 112 + $rbp: .cfa 0 - ^ $rsi: .cfa 0 - ^ $r13: .cfa 0 - ^ $rbx: .cfa 16 - ^ $r12: .cfa 24 - ^ $r14: .cfa 32 - ^ $r15: .cfa 40 - ^ .ra: .cfa 8 - ^
STACK CFI INIT b48b a0 .cfa: $rsp 112 + $rdi: .cfa 0 - ^ $rbp: .cfa 0 - ^ $rsi: .cfa 0 - ^ $r13: .cfa 0 - ^ $rbx: .cfa 16 - ^ $r12: .cfa 24 - ^ $r14: .cfa 32 - ^ $r15: .cfa 40 - ^ .ra: .cfa 8 - ^
STACK CFI INIT b52b 12 .cfa: $rsp 112 + $rbp: .cfa 0 - ^ $rsi: .cfa 0 - ^ $r13: .cfa 0 - ^ $rbx: .cfa 16 - ^ $r12: .cfa 24 - ^ $r14: .cfa 32 - ^ $r15: .cfa 40 - ^ .ra: .cfa 8 - ^
STACK CFI INIT b53d 10 .cfa: $rsp 112 + $rbx: .cfa 16 - ^ $r12: .cfa 24 - ^ $r14: .cfa 32 - ^ $r15: .cfa 40 - ^ .ra: .cfa 8 - ^
STACK CFI INIT b54d 2 .cfa: $rsp 112 + $rbp: .cfa 0 - ^ $rsi: .cfa 0 - ^ $rdi: .cfa 0 - ^ $r13: .cfa 0 - ^ $rbx: .cfa 16 - ^ $r12: .cfa 24 - ^ $r14: .cfa 32 - ^ $r15: .cfa 40 - ^ .ra: .cfa 8 - ^
STACK CFI INIT b54f 4 .cfa: $rsp 112 + $rbp: .cfa 0 - ^ $rsi: .cfa 0 - ^ $r13: .cfa 0 - ^ $rbx: .cfa 16 - ^ $r12: .cfa 24 - ^ $r14: .cfa 32 - ^ $r15: .cfa 40 - ^ .ra: .cfa 8 - ^
STACK CFI INIT b560 49 .cfa: $rsp 48 + $rbx: .cfa 16 - ^ .ra: .cfa 8 - ^
STACK CFI INIT b5b0 31 .cfa: $rsp 48 + $rbx: .cfa 16 - ^ .ra: .cfa 8 - ^
STACK CFI INIT b5f0 3f .cfa: $rsp 48 + $rbx: .cfa 16 - ^ .ra: .cfa 8 - ^
STACK CFI INIT b640 28 .cfa: $rsp 48 + $rbx: .cfa 16 - ^ .ra: .cfa 8 - ^
STACK CFI INIT b670 80 .cfa: $rsp 48 + $rbx: .cfa 16 - ^ .ra: .cfa 8 - ^
STACK CFI INIT b700 90 .cfa: $rsp 48 + $rbx: .cfa 16 - ^ .ra: .cfa 8 - ^
STACK CFI INIT b7a0 2d .cfa: $rsp 48 + $rdi: .cfa 16 - ^ $rbx: .cfa 0 - ^ $rsi: .cfa 0 - ^ .ra: .cfa 8 - ^
STACK CFI INIT b7cd 56 .cfa: $rsp 48 + $rbp: .cfa 0 - ^ $rdi: .cfa 16 - ^ $rbx: .cfa 0 - ^ $rsi: .cfa 0 - ^ .ra: .cfa 8 - ^
STACK CFI INIT b823 10 .cfa: $rsp 48 + $rdi: .cfa 16 - ^ $rbx: .cfa 0 - ^ $rsi: .cfa 0 - ^ .ra: .cfa 8 - ^
STACK CFI INIT b833 7d .cfa: $rsp 48 + $rbp: .cfa 0 - ^ $rdi: .cfa 16 - ^ $rbx: .cfa 0 - ^ $rsi: .cfa 0 - ^ .ra: .cfa 8 - ^
STACK CFI INIT b970 f1 .cfa: $rsp 48 + $rbx: .cfa 16 - ^ .ra: .cfa 8 - ^
STACK CFI INIT ba70 81 .cfa: $rsp 64 + $rdi: .cfa 16 - ^ $rbx: .cfa 0 - ^ $rsi: .cfa 0 - ^ .ra: .cfa 8 - ^
STACK CFI INIT baf1 5 .cfa: $rsp 64 + $rbp: .cfa 0 - ^ $rdi: .cfa 16 - ^ $rbx: .cfa 0 - ^ $rsi: .cfa 0 - ^ .ra: .cfa 8 - ^
STACK CFI INIT baf6 45 .cfa: $rsp 64 + $r14: .cfa 0 - ^ $rbp: .cfa 0 - ^ $rdi: .cfa 16 - ^ $rbx: .cfa 0 - ^ $rsi: .cfa 0 - ^ .ra: .cfa 8 - ^
STACK CFI INIT bb3b 1c .cfa: $rsp 64 + $rbp: .cfa 0 - ^ $rdi: .cfa 16 - ^ $rbx: .cfa 0 - ^ $rsi: .cfa 0 - ^ .ra: .cfa 8 - ^
STACK CFI INIT bb57 12 .cfa: $rsp 64 + $rdi: .cfa 16 - ^ $rbx: .cfa 0 - ^ $rsi: .cfa 0 - ^ .ra: .cfa 8 - ^
STACK CFI INIT bb70 148 .cfa: $rsp 80 + $rdi: .cfa 16 - ^ $r12: .cfa 24 - ^ $r13: .cfa 32 - ^ $r14: .cfa 40 - ^ $r15: .cfa 48 - ^ $rbx: .cfa 0 - ^ $rbp: .cfa 0 - ^ $rsi: .cfa 0 - ^ .ra: .cfa 8 - ^
STACK CFI INIT bcc0 6d .cfa: $rsp 48 + $rdi: .cfa 16 - ^ $rbx: .cfa 0 - ^ .ra: .cfa 8 - ^
STACK CFI INIT bd40 31 .cfa: $rsp 320 + $rbx: .cfa 16 - ^ $rbp: .cfa 24 - ^ $r12: .cfa 32 - ^ .ra: .cfa 8 - ^
STACK CFI INIT bd71 231 .cfa: $rsp 320 + $rsi: .cfa 0 - ^ $rdi: .cfa 0 - ^ $r13: .cfa 0 - ^ $r14: .cfa 0 - ^ $r15: .cfa 0 - ^ $rbx: .cfa 16 - ^ $rbp: .cfa 24 - ^ $r12: .cfa 32 - ^ .ra: .cfa 8 - ^
STACK CFI INIT bfa2 29 .cfa: $rsp 320 + $rsi: .cfa 0 - ^ $rdi: .cfa 0 - ^ $r13: .cfa 0 - ^ $r14: .cfa 0 - ^ $r15: .cfa 0 - ^ $rbx: .cfa 16 - ^ $rbp: .cfa 24 - ^ $r12: .cfa 32 - ^ .ra: .cfa 8 - ^
STACK CFI INIT bfd4 63 .cfa: $rsp 80 + $rbp: .cfa 16 - ^ $rbx: .cfa 24 - ^ $rdi: .cfa 32 - ^ .ra: .cfa 8 - ^
STACK CFI INIT c040 109 .cfa: $rsp 48 + $rdi: .cfa 16 - ^ $rbx: .cfa 0 - ^ .ra: .cfa 8 - ^
STACK CFI INIT c150 45 .cfa: $rsp 48 + $rdi: .cfa 16 - ^ $rbx: .cfa 0 - ^ $rsi: .cfa 0 - ^ .ra: .cfa 8 - ^
STACK CFI INIT c1a0 6a .cfa: $rsp 128 + $rbx: .cfa 16 - ^ $rsi: .cfa 24 - ^ $rdi: .cfa 32 - ^ $r12: .cfa 40 - ^ $r13: .cfa 48 - ^ $r14: .cfa 56 - ^ $r15: .cfa 64 - ^ .ra: .cfa 8 - ^
STACK CFI INIT c20a 22e .cfa: $rsp 128 + $rbp: .cfa 0 - ^ $rbx: .cfa 16 - ^ $rsi: .cfa 24 - ^ $rdi: .cfa 32 - ^ $r12: .cfa 40 - ^ $r13: .cfa 48 - ^ $r14: .cfa 56 - ^ $r15: .cfa 64 - ^ .ra: .cfa 8 - ^
STACK CFI INIT c438 10 .cfa: $rsp 128 + $rbx: .cfa 16 - ^ $rsi: .cfa 24 - ^ $rdi: .cfa 32 - ^ $r12: .cfa 40 - ^ $r13: .cfa 48 - ^ $r14: .cfa 56 - ^ $r15: .cfa 64 - ^ .ra: .cfa 8 - ^
STACK CFI INIT c448 24 .cfa: $rsp 128 + $rbp: .cfa 0 - ^ $rbx: .cfa 16 - ^ $rsi: .cfa 24 - ^ $rdi: .cfa 32 - ^ $r12: .cfa 40 - ^ $r13: .cfa 48 - ^ $r14: .cfa 56 - ^ $r15: .cfa 64 - ^ .ra: .cfa 8 - ^
STACK CFI INIT c46c 1f .cfa: $rsp 128 + $rbx: .cfa 16 - ^ $rsi: .cfa 24 - ^ $rdi: .cfa 32 - ^ $r12: .cfa 40 - ^ $r13: .cfa 48 - ^ $r14: .cfa 56 - ^ $r15: .cfa 64 - ^ .ra: .cfa 8 - ^
STACK CFI INIT c48b 43 .cfa: $rsp 128 + $rbp: .cfa 0 - ^ $rbx: .cfa 16 - ^ $rsi: .cfa 24 - ^ $rdi: .cfa 32 - ^ $r12: .cfa 40 - ^ $r13: .cfa 48 - ^ $r14: .cfa 56 - ^ $r15: .cfa 64 - ^ .ra: .cfa 8 - ^
STACK CFI INIT c4ce 48 .cfa: $rsp 128 + $rbx: .cfa 16 - ^ $rsi: .cfa 24 - ^ $rdi: .cfa 32 - ^ $r12: .cfa 40 - ^ $r13: .cfa 48 - ^ $r14: .cfa 56 - ^ $r15: .cfa 64 - ^ .ra: .cfa 8 - ^
STACK CFI INIT c516 3e .cfa: $rsp 128 + $rbp: .cfa 0 - ^ $rbx: .cfa 16 - ^ $rsi: .cfa 24 - ^ $rdi: .cfa 32 - ^ $r12: .cfa 40 - ^ $r13: .cfa 48 - ^ $r14: .cfa 56 - ^ $r15: .cfa 64 - ^ .ra: .cfa 8 - ^
STACK CFI INIT c55c 139 .cfa: $rsp 80 + $rdi: .cfa 16 - ^ $r14: .cfa 24 - ^ $r15: .cfa 32 - ^ $rbx: .cfa 0 - ^ $rbp: .cfa 0 - ^ $rsi: .cfa 0 - ^ .ra: .cfa 8 - ^
STACK CFI INIT c6a0 93 .cfa: $rsp 64 + $rdi: .cfa 16 - ^ $r14: .cfa 24 - ^ $r15: .cfa 32 - ^ $rbx: .cfa 0 - ^ $rbp: .cfa 0 - ^ $rsi: .cfa 0 - ^ .ra: .cfa 8 - ^
STACK CFI INIT c740 36 .cfa: $rsp 80 + $rbx: .cfa 16 - ^ $rsi: .cfa 24 - ^ $rdi: .cfa 32 - ^ $r12: .cfa 40 - ^ $r14: .cfa 48 - ^ .ra: .cfa 8 - ^
STACK CFI INIT c776 167 .cfa: $rsp 80 + $rbp: .cfa 0 - ^ $r15: .cfa 0 - ^ $rbx: .cfa 16 - ^ $rsi: .cfa 24 - ^ $rdi: .cfa 32 - ^ $r12: .cfa 40 - ^ $r14: .cfa 48 - ^ .ra: .cfa 8 - ^
STACK CFI INIT c8dd c .cfa: $rsp 80 + $rbx: .cfa 16 - ^ $rsi: .cfa 24 - ^ $rdi: .cfa 32 - ^ $r12: .cfa 40 - ^ $r14: .cfa 48 - ^ .ra: .cfa 8 - ^
STACK CFI INIT c8e9 1c .cfa: $rsp 80 + $rbp: .cfa 0 - ^ $r15: .cfa 0 - ^ $rbx: .cfa 16 - ^ $rsi: .cfa 24 - ^ $rdi: .cfa 32 - ^ $r12: .cfa 40 - ^ $r14: .cfa 48 - ^ .ra: .cfa 8 - ^
STACK CFI INIT c905 e .cfa: $rsp 80 + $rbx: .cfa 16 - ^ $rsi: .cfa 24 - ^ $rdi: .cfa 32 - ^ $r12: .cfa 40 - ^ $r14: .cfa 48 - ^ .ra: .cfa 8 - ^
STACK CFI INIT c920 63 .cfa: $rsp 64 + $rbx: .cfa 16 - ^ $rbp: .cfa 24 - ^ $rdi: .cfa 32 - ^ .ra: .cfa 8 - ^
STACK CFI INIT c983 d8 .cfa: $rsp 64 + $rsi: .cfa 0 - ^ $r12: .cfa 0 - ^ $r14: .cfa 0 - ^ $r15: .cfa 0 - ^ $rbx: .cfa 16 - ^ $rbp: .cfa 24 - ^ $rdi: .cfa 32 - ^ .ra: .cfa 8 - ^
STACK CFI INIT ca5b 8 .cfa: $rsp 64 + $rbx: .cfa 16 - ^ $rbp: .cfa 24 - ^ $rdi: .cfa 32 - ^ .ra: .cfa 8 - ^
STACK CFI INIT ca63 8d .cfa: $rsp 64 + $rsi: .cfa 0 - ^ $r12: .cfa 0 - ^ $r14: .cfa 0 - ^ $r15: .cfa 0 - ^ $rbx: .cfa 16 - ^ $rbp: .cfa 24 - ^ $rdi: .cfa 32 - ^ .ra: .cfa 8 - ^
STACK CFI INIT caf8 19 .cfa: $rsp 48 + .ra: .cfa 8 - ^
STACK CFI INIT cb18 3c8 .cfa: $rsp 112 + $rbp: .cfa 16 - ^ $r12: .cfa 24 - ^ $r13: .cfa 32 - ^ $r14: .cfa 40 - ^ $r15: .cfa 48 - ^ $rbx: .cfa 0 - ^ $rsi: .cfa 0 - ^ $rdi: .cfa 0 - ^ .ra: .cfa 8 - ^
STACK CFI INIT cee8 68 .cfa: $rsp 144 + $rbx: .cfa 16 - ^ .ra: .cfa 8 - ^
STACK CFI INIT cf60 339 .cfa: $rsp 192 + $rdi: .cfa 16 - ^ $r12: .cfa 24 - ^ $r13: .cfa 32 - ^ $r14: .cfa 40 - ^ $r15: .cfa 48 - ^ $rbx: .cfa 0 - ^ $rbp: .cfa 0 - ^ $rsi: .cfa 0 - ^ .ra: .cfa 8 - ^
STACK CFI INIT d2a0 1a4 .cfa: $rsp 64 + $r14: .cfa 16 - ^ $rbx: .cfa 0 - ^ $rsi: .cfa 0 - ^ $rdi: .cfa 0 - ^ $r12: .cfa 0 - ^ .ra: .cfa 8 - ^
STACK CFI INIT d450 210 .cfa: $rsp 96 + $rdi: .cfa 16 - ^ $r12: .cfa 24 - ^ $r13: .cfa 32 - ^ $r14: .cfa 40 - ^ $r15: .cfa 48 - ^ $rbx: .cfa 0 - ^ $rbp: .cfa 0 - ^ $rsi: .cfa 0 - ^ .ra: .cfa 8 - ^
STACK CFI INIT d668 34 .cfa: $rsp 48 + $rdi: .cfa 16 - ^ $rbx: .cfa 0 - ^ .ra: .cfa 8 - ^
STACK CFI INIT d6b0 87 .cfa: $rsp 48 + $rdi: .cfa 16 - ^ $rbx: .cfa 0 - ^ $rbp: .cfa 0 - ^ $rsi: .cfa 0 - ^ .ra: .cfa 8 - ^
STACK CFI INIT d740 38 .cfa: $rsp 48 + $rbx: .cfa 16 - ^ .ra: .cfa 8 - ^
STACK CFI INIT d780 d6 .cfa: $rsp 64 + $rbp: .cfa 16 - ^ $rsi: .cfa 24 - ^ $rdi: .cfa 32 - ^ $rbx: .cfa 0 - ^ .ra: .cfa 8 - ^
STACK CFI INIT d860 2ba .cfa: $rsp 2400 + $rbp: .cfa 16 - ^ $rsi: .cfa 24 - ^ $rdi: .cfa 32 - ^ $r12: .cfa 40 - ^ $r13: .cfa 48 - ^ $r14: .cfa 56 - ^ $r15: .cfa 64 - ^ $rbx: .cfa 0 - ^ .ra: .cfa 8 - ^
STACK CFI INIT db20 e3 .cfa: $rsp 64 + $r12: .cfa 16 - ^ $r14: .cfa 24 - ^ $r15: .cfa 32 - ^ $rbx: .cfa 0 - ^ $rbp: .cfa 0 - ^ $rsi: .cfa 0 - ^ $rdi: .cfa 0 - ^ .ra: .cfa 8 - ^
STACK CFI INIT dc38 195 .cfa: $rsp 80 + $rsi: .cfa 16 - ^ $rdi: .cfa 24 - ^ $r12: .cfa 32 - ^ $r14: .cfa 40 - ^ $r15: .cfa 48 - ^ $rbx: .cfa 0 - ^ $rbp: .cfa 0 - ^ .ra: .cfa 8 - ^
STACK CFI INIT ddd4 210 .cfa: $rsp 96 + $rdi: .cfa 16 - ^ $r12: .cfa 24 - ^ $r13: .cfa 32 - ^ $r14: .cfa 40 - ^ $r15: .cfa 48 - ^ $rbx: .cfa 0 - ^ $rbp: .cfa 0 - ^ $rsi: .cfa 0 - ^ .ra: .cfa 8 - ^
STACK CFI INIT dfec f9 .cfa: $rsp 64 + $rsi: .cfa 16 - ^ $rdi: .cfa 24 - ^ $r14: .cfa 32 - ^ $rbx: .cfa 0 - ^ $rbp: .cfa 0 - ^ .ra: .cfa 8 - ^
STACK CFI INIT e0ec 81 .cfa: $rsp 80 + $rdi: .cfa 16 - ^ $rbx: .cfa 0 - ^ $rbp: .cfa 0 - ^ $rsi: .cfa 0 - ^ .ra: .cfa 8 - ^
STACK CFI INIT e174 a9 .cfa: $rsp 64 + $rdi: .cfa 16 - ^ $r14: .cfa 24 - ^ $r15: .cfa 32 - ^ $rbx: .cfa 0 - ^ $rbp: .cfa 0 - ^ $rsi: .cfa 0 - ^ .ra: .cfa 8 - ^
STACK CFI INIT e224 13d .cfa: $rsp 128 + $rdi: .cfa 16 - ^ $r14: .cfa 24 - ^ $r15: .cfa 32 - ^ $rbx: .cfa 0 - ^ $rbp: .cfa 0 - ^ $rsi: .cfa 0 - ^ .ra: .cfa 8 - ^
STACK CFI INIT e370 34 .cfa: $rsp 48 + $rdi: .cfa 16 - ^ $rbx: .cfa 0 - ^ .ra: .cfa 8 - ^
STACK CFI INIT e3b0 98 .cfa: $rsp 48 + $rdi: .cfa 16 - ^ $rbx: .cfa 0 - ^ .ra: .cfa 8 - ^
STACK CFI INIT e450 162 .cfa: $rsp 496 + $rbp: .cfa 16 - ^ $rsi: .cfa 24 - ^ $rdi: .cfa 32 - ^ $rbx: .cfa 0 - ^ .ra: .cfa 8 - ^
STACK CFI INIT e5b8 6f .cfa: $rsp 48 + $rbx: .cfa 16 - ^ .ra: .cfa 8 - ^
STACK CFI INIT e630 2a0 .cfa: $rsp 96 + $rdi: .cfa 16 - ^ $r14: .cfa 24 - ^ $r15: .cfa 32 - ^ $rbx: .cfa 0 - ^ $rsi: .cfa 0 - ^ .ra: .cfa 8 - ^
STACK CFI INIT e8e0 3e .cfa: $rsp 112 + $rbp: .cfa 16 - ^ $rsi: .cfa 24 - ^ $rdi: .cfa 32 - ^ $r14: .cfa 40 - ^ .ra: .cfa 8 - ^
STACK CFI INIT e91e 2c2 .cfa: $rsp 112 + $rbx: .cfa 0 - ^ $rbp: .cfa 16 - ^ $rsi: .cfa 24 - ^ $rdi: .cfa 32 - ^ $r14: .cfa 40 - ^ .ra: .cfa 8 - ^
STACK CFI INIT ebf0 119 .cfa: $rsp 64 + $rdi: .cfa 16 - ^ $rbx: .cfa 0 - ^ $rsi: .cfa 0 - ^ .ra: .cfa 8 - ^
STACK CFI INIT edf0 f86 .cfa: $rsp 208 + $rbp: .cfa 16 - ^ $rbx: .cfa 24 - ^ $rsi: .cfa 32 - ^ $rdi: .cfa 40 - ^ $r12: .cfa 48 - ^ $r13: .cfa 56 - ^ $r14: .cfa 64 - ^ $r15: .cfa 72 - ^ .ra: .cfa 8 - ^
STACK CFI INIT fd80 a2 .cfa: $rsp 48 + $rdi: .cfa 16 - ^ $rbx: .cfa 0 - ^ $rbp: .cfa 0 - ^ $rsi: .cfa 0 - ^ .ra: .cfa 8 - ^
STACK CFI INIT fe30 48 .cfa: $rsp 112 + $rbx: .cfa 16 - ^ $rbp: .cfa 24 - ^ $rsi: .cfa 32 - ^ $rdi: .cfa 40 - ^ $r12: .cfa 48 - ^ $r14: .cfa 56 - ^ .ra: .cfa 8 - ^
STACK CFI INIT fe78 2d4 .cfa: $rsp 112 + $r15: .cfa 0 - ^ $rbx: .cfa 16 - ^ $rbp: .cfa 24 - ^ $rsi: .cfa 32 - ^ $rdi: .cfa 40 - ^ $r12: .cfa 48 - ^ $r14: .cfa 56 - ^ .ra: .cfa 8 - ^
STACK CFI INIT 1014c 20 .cfa: $rsp 112 + $rbx: .cfa 16 - ^ $rbp: .cfa 24 - ^ $rsi: .cfa 32 - ^ $rdi: .cfa 40 - ^ $r12: .cfa 48 - ^ $r14: .cfa 56 - ^ .ra: .cfa 8 - ^
STACK CFI INIT 1016c e .cfa: $rsp 112 + $r15: .cfa 0 - ^ $rbx: .cfa 16 - ^ $rbp: .cfa 24 - ^ $rsi: .cfa 32 - ^ $rdi: .cfa 40 - ^ $r12: .cfa 48 - ^ $r14: .cfa 56 - ^ .ra: .cfa 8 - ^
STACK CFI INIT 10180 b0 .cfa: $rsp 80 + $rbx: .cfa 16 - ^ .ra: .cfa 8 - ^
STACK CFI INIT 10238 63 .cfa: $rsp 48 + $rdi: .cfa 16 - ^ $rbx: .cfa 0 - ^ .ra: .cfa 8 - ^
STACK CFI INIT 102b0 32 .cfa: $rsp 112 + $rbx: .cfa 16 - ^ $rbp: .cfa 24 - ^ .ra: .cfa 8 - ^
STACK CFI INIT 102e2 8f .cfa: $rsp 112 + $rdi: .cfa 0 - ^ $rbx: .cfa 16 - ^ $rbp: .cfa 24 - ^ .ra: .cfa 8 - ^
STACK CFI INIT 10371 215 .cfa: $rsp 112 + $rsi: .cfa 0 - ^ $rdi: .cfa 0 - ^ $rbx: .cfa 16 - ^ $rbp: .cfa 24 - ^ .ra: .cfa 8 - ^
STACK CFI INIT 10586 5c .cfa: $rsp 112 + $r14: .cfa 0 - ^ $rsi: .cfa 0 - ^ $rdi: .cfa 0 - ^ $rbx: .cfa 16 - ^ $rbp: .cfa 24 - ^ .ra: .cfa 8 - ^
STACK CFI INIT 105e2 4cb .cfa: $rsp 112 + $r12: .cfa 0 - ^ $r13: .cfa 0 - ^ $r15: .cfa 0 - ^ $r14: .cfa 0 - ^ $rsi: .cfa 0 - ^ $rdi: .cfa 0 - ^ $rbx: .cfa 16 - ^ $rbp: .cfa 24 - ^ .ra: .cfa 8 - ^
STACK CFI INIT 10aad 5 .cfa: $rsp 112 + $r14: .cfa 0 - ^ $rsi: .cfa 0 - ^ $rdi: .cfa 0 - ^ $rbx: .cfa 16 - ^ $rbp: .cfa 24 - ^ .ra: .cfa 8 - ^
STACK CFI INIT 10ab2 5 .cfa: $rsp 112 + $rsi: .cfa 0 - ^ $rdi: .cfa 0 - ^ $rbx: .cfa 16 - ^ $rbp: .cfa 24 - ^ .ra: .cfa 8 - ^
STACK CFI INIT 10ab7 5 .cfa: $rsp 112 + $rdi: .cfa 0 - ^ $rbx: .cfa 16 - ^ $rbp: .cfa 24 - ^ .ra: .cfa 8 - ^
STACK CFI INIT 10abc 7 .cfa: $rsp 112 + $rbx: .cfa 16 - ^ $rbp: .cfa 24 - ^ .ra: .cfa 8 - ^
STACK CFI INIT 10ac3 41 .cfa: $rsp 112 + $rsi: .cfa 0 - ^ $rdi: .cfa 0 - ^ $r14: .cfa 0 - ^ $rbx: .cfa 16 - ^ $rbp: .cfa 24 - ^ .ra: .cfa 8 - ^
STACK CFI INIT 10b50 5f .cfa: $rsp 64 + $rdi: .cfa 16 - ^ $rbx: .cfa 0 - ^ .ra: .cfa 8 - ^
STACK CFI INIT 10bc0 2b .cfa: $rsp 96 + $rbx: .cfa 16 - ^ $rbp: .cfa 24 - ^ $rsi: .cfa 32 - ^ $rdi: .cfa 40 - ^ .ra: .cfa 8 - ^
STACK CFI INIT 10beb 60 .cfa: $rsp 96 + $r14: .cfa 0 - ^ $rbx: .cfa 16 - ^ $rbp: .cfa 24 - ^ $rsi: .cfa 32 - ^ $rdi: .cfa 40 - ^ .ra: .cfa 8 - ^
STACK CFI INIT 10c4b 4a .cfa: $rsp 96 + $r15: .cfa 0 - ^ $r14: .cfa 0 - ^ $rbx: .cfa 16 - ^ $rbp: .cfa 24 - ^ $rsi: .cfa 32 - ^ $rdi: .cfa 40 - ^ .ra: .cfa 8 - ^
STACK CFI INIT 10c95 9 .cfa: $rsp 96 + $r14: .cfa 0 - ^ $rbx: .cfa 16 - ^ $rbp: .cfa 24 - ^ $rsi: .cfa 32 - ^ $rdi: .cfa 40 - ^ .ra: .cfa 8 - ^
STACK CFI INIT 10c9e 18 .cfa: $rsp 96 + $rbx: .cfa 16 - ^ $rbp: .cfa 24 - ^ $rsi: .cfa 32 - ^ $rdi: .cfa 40 - ^ .ra: .cfa 8 - ^
STACK CFI INIT 10cb6 6 .cfa: $rsp 96 + $r14: .cfa 0 - ^ $rbx: .cfa 16 - ^ $rbp: .cfa 24 - ^ $rsi: .cfa 32 - ^ $rdi: .cfa 40 - ^ .ra: .cfa 8 - ^
STACK CFI INIT 10cbc 8 .cfa: $rsp 96 + $r14: .cfa 0 - ^ $r15: .cfa 0 - ^ $rbx: .cfa 16 - ^ $rbp: .cfa 24 - ^ $rsi: .cfa 32 - ^ $rdi: .cfa 40 - ^ .ra: .cfa 8 - ^
STACK CFI INIT 10ccc df .cfa: $rsp 48 + $r14: .cfa 16 - ^ $rbx: .cfa 0 - ^ $rbp: .cfa 0 - ^ $rsi: .cfa 0 - ^ $rdi: .cfa 0 - ^ .ra: .cfa 8 - ^
STACK CFI INIT 10dc0 23 .cfa: $rsp 80 + $rbx: .cfa 16 - ^ $rdi: .cfa 24 - ^ .ra: .cfa 8 - ^
STACK CFI INIT 10de3 2f .cfa: $rsp 80 + $rsi: .cfa 0 - ^ $rbx: .cfa 16 - ^ $rdi: .cfa 24 - ^ .ra: .cfa 8 - ^
STACK CFI INIT 10e12 18 .cfa: $rsp 80 + $r14: .cfa 0 - ^ $rsi: .cfa 0 - ^ $rbx: .cfa 16 - ^ $rdi: .cfa 24 - ^ .ra: .cfa 8 - ^
STACK CFI INIT 10e2a 12d .cfa: $rsp 80 + $rbp: .cfa 0 - ^ $r14: .cfa 0 - ^ $rsi: .cfa 0 - ^ $rbx: .cfa 16 - ^ $rdi: .cfa 24 - ^ .ra: .cfa 8 - ^
STACK CFI INIT 10f57 5 .cfa: $rsp 80 + $r14: .cfa 0 - ^ $rsi: .cfa 0 - ^ $rbx: .cfa 16 - ^ $rdi: .cfa 24 - ^ .ra: .cfa 8 - ^
STACK CFI INIT 10f5c 21 .cfa: $rsp 80 + $rsi: .cfa 0 - ^ $rbx: .cfa 16 - ^ $rdi: .cfa 24 - ^ .ra: .cfa 8 - ^
STACK CFI INIT 10f7d 163 .cfa: $rsp 80 + $rbx: .cfa 16 - ^ $rdi: .cfa 24 - ^ .ra: .cfa 8 - ^
STACK CFI INIT 110e0 e .cfa: $rsp 80 + $rbp: .cfa 0 - ^ $rsi: .cfa 0 - ^ $r14: .cfa 0 - ^ $rbx: .cfa 16 - ^ $rdi: .cfa 24 - ^ .ra: .cfa 8 - ^
STACK CFI INIT 110ee 47 .cfa: $rsp 80 + $rsi: .cfa 0 - ^ $rbx: .cfa 16 - ^ $rdi: .cfa 24 - ^ .ra: .cfa 8 - ^
STACK CFI INIT 1113c 3b .cfa: $rsp 48 + $rbx: .cfa 16 - ^ .ra: .cfa 8 - ^
STACK CFI INIT 11180 a9 .cfa: $rsp 48 + $rdi: .cfa 16 - ^ $rbx: .cfa 0 - ^ .ra: .cfa 8 - ^
STACK CFI INIT 11230 d6 .cfa: $rsp 8 + $rbx: .cfa 0 - ^ $rbp: .cfa 0 - ^ $rsi: .cfa 0 - ^ $rdi: .cfa 0 - ^ .ra: .cfa 8 - ^
STACK CFI INIT 1130c 101 .cfa: $rsp 48 + $rbx: .cfa 16 - ^ .ra: .cfa 8 - ^
STACK CFI INIT 11420 34 .cfa: $rsp 48 + $rdi: .cfa 16 - ^ $rbx: .cfa 0 - ^ .ra: .cfa 8 - ^
STACK CFI INIT 1145c 45 .cfa: $rsp 48 + $rbx: .cfa 16 - ^ .ra: .cfa 8 - ^
STACK CFI INIT 114b0 fd .cfa: $rsp 48 + $r14: .cfa 16 - ^ $rbx: .cfa 0 - ^ $rsi: .cfa 0 - ^ $rdi: .cfa 0 - ^ .ra: .cfa 8 - ^
STACK CFI INIT 115b4 a0 .cfa: $rsp 48 + $rdi: .cfa 16 - ^ $rbx: .cfa 0 - ^ $rsi: .cfa 0 - ^ .ra: .cfa 8 - ^
STACK CFI INIT 11694 17d .cfa: $rsp 352 + $rbp: .cfa 16 - ^ $rbx: .cfa 24 - ^ $rsi: .cfa 32 - ^ $rdi: .cfa 40 - ^ $r12: .cfa 48 - ^ $r14: .cfa 56 - ^ $r15: .cfa 64 - ^ .ra: .cfa 8 - ^
STACK CFI INIT 11818 521 .cfa: $rsp 992 + $rbp: .cfa 16 - ^ $rsi: .cfa 24 - ^ $rdi: .cfa 32 - ^ $r12: .cfa 40 - ^ $r13: .cfa 48 - ^ $r14: .cfa 56 - ^ $r15: .cfa 64 - ^ $rbx: .cfa 0 - ^ .ra: .cfa 8 - ^
STACK CFI INIT 11d40 40 .cfa: $rsp 80 + $rdi: .cfa 16 - ^ $rbx: .cfa 0 - ^ $rsi: .cfa 0 - ^ .ra: .cfa 8 - ^
STACK CFI INIT 11d88 d9 .cfa: $rsp 656 + $rbp: .cfa 16 - ^ $rdi: .cfa 24 - ^ $r12: .cfa 32 - ^ $r14: .cfa 40 - ^ $r15: .cfa 48 - ^ $rbx: .cfa 0 - ^ $rsi: .cfa 0 - ^ .ra: .cfa 8 - ^
STACK CFI INIT 11e68 4f .cfa: $rsp 48 + $rdi: .cfa 16 - ^ $rbx: .cfa 0 - ^ .ra: .cfa 8 - ^
STACK CFI INIT 11ec0 bf .cfa: $rsp 80 + $rdi: .cfa 16 - ^ $r14: .cfa 24 - ^ $r15: .cfa 32 - ^ $rbx: .cfa 0 - ^ $rsi: .cfa 0 - ^ .ra: .cfa 8 - ^
STACK CFI INIT 11f88 17e .cfa: $rsp 112 + $r12: .cfa 16 - ^ $r14: .cfa 24 - ^ $r15: .cfa 32 - ^ $rbx: .cfa 0 - ^ $rbp: .cfa 0 - ^ $rsi: .cfa 0 - ^ $rdi: .cfa 0 - ^ .ra: .cfa 8 - ^
STACK CFI INIT 1210c 56 .cfa: $rsp 48 + $rbx: .cfa 16 - ^ .ra: .cfa 8 - ^
STACK CFI INIT 12168 99 .cfa: $rsp 144 + $rdi: .cfa 16 - ^ $rbx: .cfa 0 - ^ $rsi: .cfa 0 - ^ .ra: .cfa 8 - ^
STACK CFI INIT 12210 26 .cfa: $rsp 64 + $rdi: .cfa 16 - ^ .ra: .cfa 8 - ^
STACK CFI INIT 12236 db .cfa: $rsp 64 + $rbx: .cfa 0 - ^ $rbp: .cfa 0 - ^ $rsi: .cfa 0 - ^ $r14: .cfa 0 - ^ $r15: .cfa 0 - ^ $rdi: .cfa 16 - ^ .ra: .cfa 8 - ^
STACK CFI INIT 12311 28 .cfa: $rsp 64 + $rbx: .cfa 0 - ^ $rbp: .cfa 0 - ^ $rsi: .cfa 0 - ^ $r14: .cfa 0 - ^ $r15: .cfa 0 - ^ $rdi: .cfa 16 - ^ .ra: .cfa 8 - ^
STACK CFI INIT 12340 52 .cfa: $rsp 48 + $rbx: .cfa 16 - ^ .ra: .cfa 8 - ^
STACK CFI INIT 123a0 52 .cfa: $rsp 48 + .ra: .cfa 8 - ^
STACK CFI INIT 123f8 26 .cfa: $rsp 48 + $rbx: .cfa 16 - ^ .ra: .cfa 8 - ^
STACK CFI INIT 12430 115 .cfa: $rsp 96 + $rbp: .cfa 16 - ^ $rdi: .cfa 24 - ^ $r12: .cfa 32 - ^ $r14: .cfa 40 - ^ $r15: .cfa 48 - ^ $rbx: .cfa 0 - ^ $rsi: .cfa 0 - ^ .ra: .cfa 8 - ^
STACK CFI INIT 1254c 99 .cfa: $rsp 48 + $rdi: .cfa 16 - ^ $rbx: .cfa 0 - ^ .ra: .cfa 8 - ^
STACK CFI INIT 125ec 90 .cfa: $rsp 48 + $r14: .cfa 16 - ^ $rbx: .cfa 0 - ^ $rbp: .cfa 0 - ^ $rsi: .cfa 0 - ^ $rdi: .cfa 0 - ^ .ra: .cfa 8 - ^
STACK CFI INIT 12684 ba .cfa: $rsp 80 + $rdi: .cfa 16 - ^ $rbx: .cfa 0 - ^ $rsi: .cfa 0 - ^ .ra: .cfa 8 - ^
STACK CFI INIT 12744 c5 .cfa: $rsp 112 + $rbx: .cfa 16 - ^ $rbp: .cfa 24 - ^ $rsi: .cfa 32 - ^ $rdi: .cfa 40 - ^ $r14: .cfa 48 - ^ .ra: .cfa 8 - ^
STACK CFI INIT 12810 183 .cfa: $rsp 224 + $rbp: .cfa 16 - ^ $rbx: .cfa 24 - ^ $rsi: .cfa 32 - ^ $rdi: .cfa 40 - ^ $r12: .cfa 48 - ^ $r14: .cfa 56 - ^ $r15: .cfa 64 - ^ .ra: .cfa 8 - ^
STACK CFI INIT 1299c 49 .cfa: $rsp 48 + $rbx: .cfa 16 - ^ .ra: .cfa 8 - ^
STACK CFI INIT 129ec 28f .cfa: $rsp 240 + $rbp: .cfa 16 - ^ $rsi: .cfa 24 - ^ $rdi: .cfa 32 - ^ $r12: .cfa 40 - ^ $r13: .cfa 48 - ^ $r14: .cfa 56 - ^ $r15: .cfa 64 - ^ $rbx: .cfa 0 - ^ .ra: .cfa 8 - ^
STACK CFI INIT 12c84 369 .cfa: $rsp 800 + $rbp: .cfa 16 - ^ $rbx: .cfa 24 - ^ $rsi: .cfa 32 - ^ $rdi: .cfa 40 - ^ $r12: .cfa 48 - ^ $r13: .cfa 56 - ^ $r14: .cfa 64 - ^ $r15: .cfa 72 - ^ .ra: .cfa 8 - ^
STACK CFI INIT 12ff4 28 .cfa: $rsp 48 + $rbx: .cfa 16 - ^ .ra: .cfa 8 - ^
STACK CFI INIT 13024 78 .cfa: $rsp 80 + $rdi: .cfa 16 - ^ $rbx: .cfa 0 - ^ $rbp: .cfa 0 - ^ $rsi: .cfa 0 - ^ .ra: .cfa 8 - ^
STACK CFI INIT 130a4 1a2 .cfa: $rsp 112 + $rdi: .cfa 16 - ^ $r12: .cfa 24 - ^ $r13: .cfa 32 - ^ $r14: .cfa 40 - ^ $r15: .cfa 48 - ^ $rbx: .cfa 0 - ^ $rbp: .cfa 0 - ^ $rsi: .cfa 0 - ^ .ra: .cfa 8 - ^
STACK CFI INIT 13250 24f .cfa: $rsp 112 + $rdi: .cfa 16 - ^ $r12: .cfa 24 - ^ $r13: .cfa 32 - ^ $r14: .cfa 40 - ^ $r15: .cfa 48 - ^ $rbx: .cfa 0 - ^ $rbp: .cfa 0 - ^ $rsi: .cfa 0 - ^ .ra: .cfa 8 - ^
STACK CFI INIT 13518 96 .cfa: $rsp 80 + $rdi: .cfa 16 - ^ $r14: .cfa 24 - ^ $r15: .cfa 32 - ^ $rbx: .cfa 0 - ^ $rbp: .cfa 0 - ^ $rsi: .cfa 0 - ^ .ra: .cfa 8 - ^
STACK CFI INIT 135b4 b9 .cfa: $rsp 64 + $rsi: .cfa 16 - ^ $rdi: .cfa 24 - ^ $r14: .cfa 32 - ^ $rbx: .cfa 0 - ^ $rbp: .cfa 0 - ^ .ra: .cfa 8 - ^
STACK CFI INIT 13680 141 .cfa: $rsp 64 + $rbp: .cfa 16 - ^ $rdi: .cfa 24 - ^ $r14: .cfa 32 - ^ $rbx: .cfa 0 - ^ $rsi: .cfa 0 - ^ .ra: .cfa 8 - ^
STACK CFI INIT 137c8 73 .cfa: $rsp 48 + $rdi: .cfa 16 - ^ $rbx: .cfa 0 - ^ .ra: .cfa 8 - ^
STACK CFI INIT 13850 e2 .cfa: $rsp 96 + $rbp: .cfa 16 - ^ $rsi: .cfa 24 - ^ $rdi: .cfa 32 - ^ $rbx: .cfa 0 - ^ .ra: .cfa 8 - ^
STACK CFI INIT 13938 91 .cfa: $rsp 8 + $rbx: .cfa 0 - ^ .ra: .cfa 8 - ^
STACK CFI INIT 139d0 12a .cfa: $rsp 64 + $rdi: .cfa 16 - ^ $r14: .cfa 24 - ^ $r15: .cfa 32 - ^ $rbx: .cfa 0 - ^ $rbp: .cfa 0 - ^ $rsi: .cfa 0 - ^ .ra: .cfa 8 - ^
STACK CFI INIT 13b00 4f .cfa: $rsp 48 + $rbx: .cfa 16 - ^ .ra: .cfa 8 - ^
STACK CFI INIT 13b88 390 .cfa: $rsp 1008 + $rbp: .cfa 16 - ^ $rsi: .cfa 24 - ^ $rdi: .cfa 32 - ^ $r12: .cfa 40 - ^ $r13: .cfa 48 - ^ $r14: .cfa 56 - ^ $r15: .cfa 64 - ^ $rbx: .cfa 0 - ^ .ra: .cfa 8 - ^
STACK CFI INIT 13f20 3d .cfa: $rsp 48 + .ra: .cfa 8 - ^
STACK CFI INIT 13f64 a9 .cfa: $rsp 64 + $rdi: .cfa 16 - ^ $r14: .cfa 24 - ^ $r15: .cfa 32 - ^ $rbx: .cfa 0 - ^ $rbp: .cfa 0 - ^ $rsi: .cfa 0 - ^ .ra: .cfa 8 - ^
STACK CFI INIT 14014 48 .cfa: $rsp 48 + $rdi: .cfa 16 - ^ $rbx: .cfa 0 - ^ .ra: .cfa 8 - ^
STACK CFI INIT 14070 64 .cfa: $rsp 64 + $rdi: .cfa 16 - ^ $rbx: .cfa 0 - ^ $rbp: .cfa 0 - ^ $rsi: .cfa 0 - ^ .ra: .cfa 8 - ^
STACK CFI INIT 140e0 df .cfa: $rsp 48 + $r14: .cfa 16 - ^ $rbx: .cfa 0 - ^ $rsi: .cfa 0 - ^ $rdi: .cfa 0 - ^ .ra: .cfa 8 - ^
STACK CFI INIT 141c8 9b .cfa: $rsp 80 + $rdi: .cfa 16 - ^ $rbx: .cfa 0 - ^ $rbp: .cfa 0 - ^ $rsi: .cfa 0 - ^ .ra: .cfa 8 - ^
STACK CFI INIT 14270 4a .cfa: $rsp 64 + $rdi: .cfa 16 - ^ .ra: .cfa 8 - ^
STACK CFI INIT 142c0 23c .cfa: $rsp 1200 + $rbp: .cfa 16 - ^ $rsi: .cfa 24 - ^ $rdi: .cfa 32 - ^ $r12: .cfa 40 - ^ $r13: .cfa 48 - ^ $r14: .cfa 56 - ^ $r15: .cfa 64 - ^ $rbx: .cfa 0 - ^ .ra: .cfa 8 - ^
STACK CFI INIT 14510 d7 .cfa: $rsp 48 + .ra: .cfa 8 - ^
STACK CFI INIT 145f0 168 .cfa: $rsp 256 + $rbx: .cfa 16 - ^ $rbp: .cfa 24 - ^ $rsi: .cfa 32 - ^ $rdi: .cfa 40 - ^ $r12: .cfa 48 - ^ $r13: .cfa 56 - ^ $r14: .cfa 64 - ^ $r15: .cfa 72 - ^ .ra: .cfa 8 - ^
STACK CFI INIT 14760 20 .cfa: $rsp 64 + .ra: .cfa 8 - ^
STACK CFI INIT 147b0 8f .cfa: $rsp 352 + $rdi: .cfa 16 - ^ $rbx: .cfa 0 - ^ .ra: .cfa 8 - ^
STACK CFI INIT 14850 94 .cfa: $rsp 48 + $rdi: .cfa 16 - ^ $rbx: .cfa 0 - ^ $rsi: .cfa 0 - ^ .ra: .cfa 8 - ^
STACK CFI INIT 14938 24 .cfa: $rsp 48 + $rbx: .cfa 16 - ^ .ra: .cfa 8 - ^
STACK CFI INIT 14964 2e .cfa: $rsp 80 + .ra: .cfa 8 - ^
STACK CFI INIT 14998 3e .cfa: $rsp 96 + .ra: .cfa 8 - ^
STACK CFI INIT 149dc c3 .cfa: $rsp 5440 + $rbx: .cfa 16 - ^ $rdi: .cfa 24 - ^ .ra: .cfa 8 - ^
STACK CFI INIT 14aa8 1d2 .cfa: $rsp 112 + $rdi: .cfa 16 - ^ $r12: .cfa 24 - ^ $r13: .cfa 32 - ^ $r14: .cfa 40 - ^ $r15: .cfa 48 - ^ $rbx: .cfa 0 - ^ $rbp: .cfa 0 - ^ $rsi: .cfa 0 - ^ .ra: .cfa 8 - ^
STACK CFI INIT 14ca0 c2 .cfa: $rsp 64 + $rbx: .cfa 16 - ^ .ra: .cfa 8 - ^
STACK CFI INIT 14d90 11 .cfa: $rsp 96 + $rbx: .cfa 16 - ^ $rbp: .cfa 24 - ^ $rsi: .cfa 32 - ^ $rdi: .cfa 40 - ^ $r13: .cfa 48 - ^ $r14: .cfa 56 - ^ .ra: .cfa 8 - ^
STACK CFI INIT 14da1 184 .cfa: $rsp 96 + $r12: .cfa 0 - ^ $r15: .cfa 0 - ^ $rbx: .cfa 16 - ^ $rbp: .cfa 24 - ^ $rsi: .cfa 32 - ^ $rdi: .cfa 40 - ^ $r13: .cfa 48 - ^ $r14: .cfa 56 - ^ .ra: .cfa 8 - ^
STACK CFI INIT 14f30 5e .cfa: $rsp 48 + $rbx: .cfa 16 - ^ .ra: .cfa 8 - ^
STACK CFI INIT 14fa0 2c .cfa: $rsp 64 + $rdi: .cfa 16 - ^ $rbx: .cfa 0 - ^ .ra: .cfa 8 - ^
STACK CFI INIT 14fcc 6a .cfa: $rsp 64 + $rsi: .cfa 0 - ^ $r14: .cfa 0 - ^ $rdi: .cfa 16 - ^ $rbx: .cfa 0 - ^ .ra: .cfa 8 - ^
STACK CFI INIT 15036 9 .cfa: $rsp 64 + $rdi: .cfa 16 - ^ $rbx: .cfa 0 - ^ .ra: .cfa 8 - ^
STACK CFI INIT 1503f 16 .cfa: $rsp 64 + $rsi: .cfa 0 - ^ $r14: .cfa 0 - ^ $rdi: .cfa 16 - ^ $rbx: .cfa 0 - ^ .ra: .cfa 8 - ^
STACK CFI INIT 150d0 5d .cfa: $rsp 48 + $rbx: .cfa 16 - ^ .ra: .cfa 8 - ^
STACK CFI INIT 15140 31 .cfa: $rsp 64 + .ra: .cfa 8 - ^
STACK CFI INIT 15180 31 .cfa: $rsp 192 + $rbp: .cfa 16 - ^ $rsi: .cfa 24 - ^ $r12: .cfa 32 - ^ $r14: .cfa 40 - ^ .ra: .cfa 8 - ^
STACK CFI INIT 151b1 4 .cfa: $rsp 192 + $rbx: .cfa 0 - ^ $rbp: .cfa 16 - ^ $rsi: .cfa 24 - ^ $r12: .cfa 32 - ^ $r14: .cfa 40 - ^ .ra: .cfa 8 - ^
STACK CFI INIT 151b5 4 .cfa: $rsp 192 + $rdi: .cfa 0 - ^ $rbx: .cfa 0 - ^ $rbp: .cfa 16 - ^ $rsi: .cfa 24 - ^ $r12: .cfa 32 - ^ $r14: .cfa 40 - ^ .ra: .cfa 8 - ^
STACK CFI INIT 151b9 6b .cfa: $rsp 192 + $r13: .cfa 0 - ^ $rdi: .cfa 0 - ^ $rbx: .cfa 0 - ^ $rbp: .cfa 16 - ^ $rsi: .cfa 24 - ^ $r12: .cfa 32 - ^ $r14: .cfa 40 - ^ .ra: .cfa 8 - ^
STACK CFI INIT 15224 95 .cfa: $rsp 192 + $r15: .cfa 0 - ^ $r13: .cfa 0 - ^ $rdi: .cfa 0 - ^ $rbx: .cfa 0 - ^ $rbp: .cfa 16 - ^ $rsi: .cfa 24 - ^ $r12: .cfa 32 - ^ $r14: .cfa 40 - ^ .ra: .cfa 8 - ^
STACK CFI INIT 152b9 53 .cfa: $rsp 192 + $r13: .cfa 0 - ^ $rdi: .cfa 0 - ^ $rbx: .cfa 0 - ^ $rbp: .cfa 16 - ^ $rsi: .cfa 24 - ^ $r12: .cfa 32 - ^ $r14: .cfa 40 - ^ .ra: .cfa 8 - ^
STACK CFI INIT 1530c c .cfa: $rsp 192 + $rdi: .cfa 0 - ^ $rbx: .cfa 0 - ^ $rbp: .cfa 16 - ^ $rsi: .cfa 24 - ^ $r12: .cfa 32 - ^ $r14: .cfa 40 - ^ .ra: .cfa 8 - ^
STACK CFI INIT 15318 4d .cfa: $rsp 192 + $rbx: .cfa 0 - ^ $rbp: .cfa 16 - ^ $rsi: .cfa 24 - ^ $r12: .cfa 32 - ^ $r14: .cfa 40 - ^ .ra: .cfa 8 - ^
STACK CFI INIT 15365 e .cfa: $rsp 192 + $rbp: .cfa 16 - ^ $rsi: .cfa 24 - ^ $r12: .cfa 32 - ^ $r14: .cfa 40 - ^ .ra: .cfa 8 - ^
STACK CFI INIT 15373 25 .cfa: $rsp 192 + $rbx: .cfa 0 - ^ $rdi: .cfa 0 - ^ $r13: .cfa 0 - ^ $rbp: .cfa 16 - ^ $rsi: .cfa 24 - ^ $r12: .cfa 32 - ^ $r14: .cfa 40 - ^ .ra: .cfa 8 - ^
STACK CFI INIT 15398 20 .cfa: $rsp 192 + $rbx: .cfa 0 - ^ $rbp: .cfa 16 - ^ $rsi: .cfa 24 - ^ $r12: .cfa 32 - ^ $r14: .cfa 40 - ^ .ra: .cfa 8 - ^
STACK CFI INIT 153b8 33 .cfa: $rsp 192 + $rbx: .cfa 0 - ^ $rdi: .cfa 0 - ^ $r13: .cfa 0 - ^ $r15: .cfa 0 - ^ $rbp: .cfa 16 - ^ $rsi: .cfa 24 - ^ $r12: .cfa 32 - ^ $r14: .cfa 40 - ^ .ra: .cfa 8 - ^
STACK CFI INIT 153eb a2 .cfa: $rsp 192 + $rbx: .cfa 0 - ^ $rdi: .cfa 0 - ^ $r13: .cfa 0 - ^ $rbp: .cfa 16 - ^ $rsi: .cfa 24 - ^ $r12: .cfa 32 - ^ $r14: .cfa 40 - ^ .ra: .cfa 8 - ^
STACK CFI INIT 15494 190 .cfa: $rbp 80 + $rbp: .cfa 16 - ^ $r12: .cfa 24 - ^ $r13: .cfa 32 - ^ $r14: .cfa 40 - ^ $r15: .cfa 48 - ^ $rbx: $rbp 80 + ^ $rsi: $rbp 88 + ^ $rdi: $rbp 96 + ^ .ra: .cfa 8 - ^
STACK CFI INIT 1562c 53 .cfa: $rsp 64 + $rdi: .cfa 16 - ^ $rbx: .cfa 0 - ^ .ra: .cfa 8 - ^
STACK CFI INIT 15688 270 .cfa: $rsp 576 + $rbp: .cfa 16 - ^ $rsi: .cfa 24 - ^ $rdi: .cfa 32 - ^ $r12: .cfa 40 - ^ $r13: .cfa 48 - ^ $r14: .cfa 56 - ^ $r15: .cfa 64 - ^ $rbx: .cfa 0 - ^ .ra: .cfa 8 - ^
STACK CFI INIT 15900 56 .cfa: $rsp 400 + $rbp: .cfa 16 - ^ $rsi: .cfa 24 - ^ $rdi: .cfa 32 - ^ $r12: .cfa 40 - ^ $r13: .cfa 48 - ^ $r14: .cfa 56 - ^ .ra: .cfa 8 - ^
STACK CFI INIT 15956 c9 .cfa: $rsp 400 + $rbx: .cfa 0 - ^ $r15: .cfa 0 - ^ $rbp: .cfa 16 - ^ $rsi: .cfa 24 - ^ $rdi: .cfa 32 - ^ $r12: .cfa 40 - ^ $r13: .cfa 48 - ^ $r14: .cfa 56 - ^ .ra: .cfa 8 - ^
STACK CFI INIT 15a1f 21 .cfa: $rsp 400 + $rbp: .cfa 16 - ^ $rsi: .cfa 24 - ^ $rdi: .cfa 32 - ^ $r12: .cfa 40 - ^ $r13: .cfa 48 - ^ $r14: .cfa 56 - ^ .ra: .cfa 8 - ^
STACK CFI INIT 15a40 18c .cfa: $rsp 400 + $rbx: .cfa 0 - ^ $r15: .cfa 0 - ^ $rbp: .cfa 16 - ^ $rsi: .cfa 24 - ^ $rdi: .cfa 32 - ^ $r12: .cfa 40 - ^ $r13: .cfa 48 - ^ $r14: .cfa 56 - ^ .ra: .cfa 8 - ^
STACK CFI INIT 15cb0 31 .cfa: $rsp 64 + .ra: .cfa 8 - ^
STACK CFI INIT 15cf0 31 .cfa: $rsp 64 + .ra: .cfa 8 - ^
STACK CFI INIT 15d60 54 .cfa: $rsp 48 + $rdi: .cfa 16 - ^ $rbx: .cfa 0 - ^ .ra: .cfa 8 - ^
STACK CFI INIT 15dc0 31 .cfa: $rsp 64 + .ra: .cfa 8 - ^
STACK CFI INIT 15df8 58 .cfa: $rsp 48 + $rdi: .cfa 16 - ^ $rbx: .cfa 0 - ^ .ra: .cfa 8 - ^
STACK CFI INIT 15ec4 5c .cfa: $rsp 48 + $rbx: .cfa 16 - ^ .ra: .cfa 8 - ^
STACK CFI INIT 15f28 59 .cfa: $rsp 48 + $rbx: .cfa 16 - ^ .ra: .cfa 8 - ^
STACK CFI INIT 15f88 1d0 .cfa: $rsp 128 + $rbp: .cfa 16 - ^ $rbx: .cfa 0 - ^ $rsi: .cfa 0 - ^ .ra: .cfa 8 - ^
STACK CFI INIT 16160 4d .cfa: $rsp 48 + $rbx: .cfa 16 - ^ .ra: .cfa 8 - ^
STACK CFI INIT 161b4 2a .cfa: $rsp 48 + $rdi: .cfa 16 - ^ $rbx: .cfa 0 - ^ .ra: .cfa 8 - ^
STACK CFI INIT 161e4 87 .cfa: $rsp 48 + .ra: .cfa 8 - ^
STACK CFI INIT 16274 2e .cfa: $rsp 48 + $rbx: .cfa 16 - ^ .ra: .cfa 8 - ^
STACK CFI INIT 162a8 5c .cfa: $rsp 48 + $rdi: .cfa 16 - ^ $rbx: .cfa 0 - ^ .ra: .cfa 8 - ^
STACK CFI INIT 16310 a0 .cfa: $rsp 48 + $rdi: .cfa 16 - ^ $rbx: .cfa 0 - ^ .ra: .cfa 8 - ^
STACK CFI INIT 163b8 82 .cfa: $rsp 64 + $rbx: .cfa 16 - ^ .ra: .cfa 8 - ^
STACK CFI INIT 16440 6b .cfa: $rsp 48 + $rdi: .cfa 16 - ^ $rbx: .cfa 0 - ^ .ra: .cfa 8 - ^
STACK CFI INIT 164c0 86 .cfa: $rsp 64 + .ra: .cfa 8 - ^
STACK CFI INIT 1654c e0 .cfa: $rsp 192 + $rbp: .cfa 16 - ^ $rbx: .cfa 24 - ^ $rsi: .cfa 32 - ^ $rdi: .cfa 40 - ^ $r12: .cfa 48 - ^ $r13: .cfa 56 - ^ $r14: .cfa 64 - ^ $r15: .cfa 72 - ^ .ra: .cfa 8 - ^
STACK CFI INIT 16640 7c .cfa: $rsp 112 + $rbx: .cfa 16 - ^ $rsi: .cfa 24 - ^ $rdi: .cfa 32 - ^ .ra: .cfa 8 - ^
STACK CFI INIT 166c4 c4 .cfa: $rsp 96 + $rdi: .cfa 16 - ^ $rbx: .cfa 0 - ^ .ra: .cfa 8 - ^
STACK CFI INIT 167e0 8c .cfa: $rsp 8 + $rbx: .cfa 0 - ^ $rdi: .cfa 0 - ^ .ra: .cfa 8 - ^
STACK CFI INIT 16880 f4 .cfa: $rsp 144 + $r14: .cfa 16 - ^ $rbx: .cfa 0 - ^ $rbp: .cfa 0 - ^ $rsi: .cfa 0 - ^ $rdi: .cfa 0 - ^ .ra: .cfa 8 - ^
STACK CFI INIT 16980 4f .cfa: $rsp 48 + $rbx: .cfa 16 - ^ .ra: .cfa 8 - ^
STACK CFI INIT 169e0 30 .cfa: $rsp 48 + $rbx: .cfa 16 - ^ .ra: .cfa 8 - ^
STACK CFI INIT 16a20 af .cfa: $rsp 64 + $rdi: .cfa 16 - ^ $rbx: .cfa 0 - ^ .ra: .cfa 8 - ^
STACK CFI INIT 16ae0 d5 .cfa: $rsp 96 + $rsi: .cfa 16 - ^ $rdi: .cfa 24 - ^ $r12: .cfa 32 - ^ $r14: .cfa 40 - ^ $r15: .cfa 48 - ^ $rbx: .cfa 0 - ^ $rbp: .cfa 0 - ^ .ra: .cfa 8 - ^
STACK CFI INIT 16bbc 33 .cfa: $rsp 48 + $rbx: .cfa 16 - ^ .ra: .cfa 8 - ^
STACK CFI INIT 16bf8 33 .cfa: $rsp 48 + $rbx: .cfa 16 - ^ .ra: .cfa 8 - ^
STACK CFI INIT 16c34 33 .cfa: $rsp 48 + $rbx: .cfa 16 - ^ .ra: .cfa 8 - ^
STACK CFI INIT 16c70 20 .cfa: $rsp 48 + $rbx: .cfa 16 - ^ .ra: .cfa 8 - ^
STACK CFI INIT 16cc0 42 .cfa: $rsp 48 + $rdi: .cfa 16 - ^ $rbx: .cfa 0 - ^ .ra: .cfa 8 - ^
STACK CFI INIT 16d10 6e .cfa: $rsp 48 + $rdi: .cfa 16 - ^ $rbx: .cfa 0 - ^ .ra: .cfa 8 - ^
STACK CFI INIT 16d90 24 .cfa: $rsp 48 + $rbx: .cfa 16 - ^ .ra: .cfa 8 - ^
STACK CFI INIT 16e20 8a .cfa: $rsp 48 + $rdi: .cfa 16 - ^ $rbx: .cfa 0 - ^ $rbp: .cfa 0 - ^ $rsi: .cfa 0 - ^ .ra: .cfa 8 - ^
STACK CFI INIT 16eb0 4b3 .cfa: $rsp 192 + $rbp: .cfa 16 - ^ $rbx: .cfa 24 - ^ $rsi: .cfa 32 - ^ $rdi: .cfa 40 - ^ $r12: .cfa 48 - ^ $r14: .cfa 56 - ^ $r15: .cfa 64 - ^ .ra: .cfa 8 - ^
STACK CFI INIT 1736c 26 .cfa: $rsp 48 + .ra: .cfa 8 - ^
STACK CFI INIT 173a0 8b .cfa: $rsp 48 + $rdi: .cfa 16 - ^ $rbx: .cfa 0 - ^ .ra: .cfa 8 - ^
STACK CFI INIT 17440 36 .cfa: $rsp 64 + .ra: .cfa 8 - ^
STACK CFI INIT 1747c 35 .cfa: $rsp 48 + $rbx: .cfa 16 - ^ .ra: .cfa 8 - ^
STACK CFI INIT 174b8 35 .cfa: $rsp 48 + $rbx: .cfa 16 - ^ .ra: .cfa 8 - ^
STACK CFI INIT 174f4 31 .cfa: $rsp 48 + .ra: .cfa 8 - ^
STACK CFI INIT 17560 3c .cfa: $rsp 48 + .ra: .cfa 8 - ^
STACK CFI INIT 175a4 d8 .cfa: $rsp 384 + $rbx: .cfa 16 - ^ $rbp: .cfa 24 - ^ $rsi: .cfa 32 - ^ $rdi: .cfa 40 - ^ .ra: .cfa 8 - ^
STACK CFI INIT 1770c c6 .cfa: $rsp 96 + $rbx: .cfa 16 - ^ .ra: .cfa 8 - ^
STACK CFI INIT 177e0 25 .cfa: $rsp 48 + $rbx: .cfa 16 - ^ .ra: .cfa 8 - ^
STACK CFI INIT 17810 81 .cfa: $rsp 64 + $r14: .cfa 16 - ^ $rbx: .cfa 0 - ^ $rbp: .cfa 0 - ^ $rsi: .cfa 0 - ^ $rdi: .cfa 0 - ^ .ra: .cfa 8 - ^
STACK CFI INIT 178d0 45 .cfa: $rsp 48 + $rdi: .cfa 16 - ^ $rbx: .cfa 0 - ^ $rsi: .cfa 0 - ^ .ra: .cfa 8 - ^
STACK CFI INIT 1791c 79 .cfa: $rsp 128 + $rdi: .cfa 16 - ^ $rbx: .cfa 0 - ^ .ra: .cfa 8 - ^
STACK CFI INIT 179b0 184 .cfa: $rsp 96 + $rdi: .cfa 16 - ^ $r12: .cfa 24 - ^ $r13: .cfa 32 - ^ $r14: .cfa 40 - ^ $r15: .cfa 48 - ^ $rbx: .cfa 0 - ^ $rbp: .cfa 0 - ^ $rsi: .cfa 0 - ^ .ra: .cfa 8 - ^
STACK CFI INIT 17b3c 4a .cfa: $rsp 48 + .ra: .cfa 8 - ^
STACK CFI INIT 180ec 14b .cfa: $rsp 80 + $rdi: .cfa 16 - ^ $r12: .cfa 24 - ^ $r13: .cfa 32 - ^ $r14: .cfa 40 - ^ $r15: .cfa 48 - ^ $rbx: .cfa 0 - ^ $rbp: .cfa 0 - ^ $rsi: .cfa 0 - ^ .ra: .cfa 8 - ^
STACK CFI INIT 18240 9c .cfa: $rsp 48 + $rdi: .cfa 16 - ^ $rbx: .cfa 0 - ^ $rbp: .cfa 0 - ^ $rsi: .cfa 0 - ^ .ra: .cfa 8 - ^
STACK CFI INIT 182e4 d86 .cfa: $rsp 608 + $rbp: .cfa 16 - ^ $rbx: .cfa 24 - ^ $rsi: .cfa 32 - ^ $rdi: .cfa 40 - ^ $r12: .cfa 48 - ^ $r13: .cfa 56 - ^ $r14: .cfa 64 - ^ $r15: .cfa 72 - ^ .ra: .cfa 8 - ^
STACK CFI INIT 19070 b1 .cfa: $rsp 48 + $r14: .cfa 16 - ^ $rbx: .cfa 0 - ^ $rbp: .cfa 0 - ^ $rsi: .cfa 0 - ^ $rdi: .cfa 0 - ^ .ra: .cfa 8 - ^
STACK CFI INIT 19128 95 .cfa: $rsp 48 + $r14: .cfa 16 - ^ $rbx: .cfa 0 - ^ $rbp: .cfa 0 - ^ $rsi: .cfa 0 - ^ $rdi: .cfa 0 - ^ .ra: .cfa 8 - ^
STACK CFI INIT 191d0 1e5 .cfa: $rsp 784 + $rbp: .cfa 16 - ^ $rbx: .cfa 24 - ^ $rsi: .cfa 32 - ^ $rdi: .cfa 40 - ^ $r12: .cfa 48 - ^ $r13: .cfa 56 - ^ $r14: .cfa 64 - ^ $r15: .cfa 72 - ^ .ra: .cfa 8 - ^
STACK CFI INIT 193bc 1d6 .cfa: $rsp 176 + $rbp: .cfa 16 - ^ $rbx: .cfa 24 - ^ $rsi: .cfa 32 - ^ $rdi: .cfa 40 - ^ $r12: .cfa 48 - ^ $r13: .cfa 56 - ^ $r14: .cfa 64 - ^ $r15: .cfa 72 - ^ .ra: .cfa 8 - ^
STACK CFI INIT 19598 af .cfa: $rsp 48 + $r14: .cfa 16 - ^ $rbx: .cfa 0 - ^ $rbp: .cfa 0 - ^ $rsi: .cfa 0 - ^ .ra: .cfa 8 - ^
STACK CFI INIT 19650 26c .cfa: $rsp 96 + $rbp: .cfa 16 - ^ $rsi: .cfa 24 - ^ $rdi: .cfa 32 - ^ $r12: .cfa 40 - ^ $r13: .cfa 48 - ^ $r14: .cfa 56 - ^ $r15: .cfa 64 - ^ $rbx: .cfa 0 - ^ .ra: .cfa 8 - ^
STACK CFI INIT 198c4 32 .cfa: $rsp 48 + .ra: .cfa 8 - ^
STACK CFI INIT 198fc 38 .cfa: $rsp 48 + .ra: .cfa 8 - ^
STACK CFI INIT 1993c fe .cfa: $rsp 80 + $rbp: .cfa 16 - ^ $rsi: .cfa 24 - ^ $rdi: .cfa 32 - ^ $r14: .cfa 40 - ^ $r15: .cfa 48 - ^ $rbx: .cfa 0 - ^ .ra: .cfa 8 - ^
STACK CFI INIT 19a40 105 .cfa: $rsp 192 + $rbp: .cfa 16 - ^ $rbx: .cfa 24 - ^ $rsi: .cfa 32 - ^ $rdi: .cfa 40 - ^ $r13: .cfa 48 - ^ $r14: .cfa 56 - ^ $r15: .cfa 64 - ^ .ra: .cfa 8 - ^
STACK CFI INIT 19b4c 7c .cfa: $rsp 144 + $rbp: .cfa 16 - ^ $rbx: .cfa 0 - ^ .ra: .cfa 8 - ^
STACK CFI INIT 19bd0 65 .cfa: $rsp 48 + $rdi: .cfa 16 - ^ $rbx: .cfa 0 - ^ $rbp: .cfa 0 - ^ $rsi: .cfa 0 - ^ .ra: .cfa 8 - ^
STACK CFI INIT 19c3c 105 .cfa: $rsp 16 + $r14: .cfa 16 - ^ $rbx: .cfa 0 - ^ $rbp: .cfa 0 - ^ $rsi: .cfa 0 - ^ $rdi: .cfa 0 - ^ .ra: .cfa 8 - ^
STACK CFI INIT 19d48 2e .cfa: $rsp 48 + $rdi: .cfa 16 - ^ $rbx: .cfa 0 - ^ .ra: .cfa 8 - ^
STACK CFI INIT 19d80 105 .cfa: $rsp 128 + $rdi: .cfa 16 - ^ $rbx: .cfa 0 - ^ .ra: .cfa 8 - ^
STACK CFI INIT 19e8c 4a .cfa: $rsp 48 + $rbx: .cfa 16 - ^ .ra: .cfa 8 - ^
STACK CFI INIT 19edc 255 .cfa: $rsp 144 + $rbp: .cfa 16 - ^ $rsi: .cfa 24 - ^ $rdi: .cfa 32 - ^ $r12: .cfa 40 - ^ $r13: .cfa 48 - ^ $r14: .cfa 56 - ^ $r15: .cfa 64 - ^ $rbx: .cfa 0 - ^ .ra: .cfa 8 - ^
STACK CFI INIT 1a138 23 .cfa: $rsp 48 + $rbx: .cfa 16 - ^ .ra: .cfa 8 - ^
STACK CFI INIT 1a164 26a .cfa: $rsp 192 + $rbp: .cfa 16 - ^ $rsi: .cfa 24 - ^ $rdi: .cfa 32 - ^ $r12: .cfa 40 - ^ $r13: .cfa 48 - ^ $r14: .cfa 56 - ^ $r15: .cfa 64 - ^ $rbx: .cfa 0 - ^ .ra: .cfa 8 - ^
STACK CFI INIT 1a408 cf .cfa: $rsp 40 + $r12: .cfa 16 - ^ $r13: .cfa 24 - ^ $r14: .cfa 32 - ^ $r15: .cfa 40 - ^ $rbx: .cfa 0 - ^ $rbp: .cfa 0 - ^ $rsi: .cfa 0 - ^ $rdi: .cfa 0 - ^ .ra: .cfa 8 - ^
STACK CFI INIT 1a4e0 ab .cfa: $rsp 8 + $rbx: .cfa 0 - ^ .ra: .cfa 8 - ^
STACK CFI INIT 1a5a0 60 .cfa: $rsp 48 + $rdi: .cfa 16 - ^ $rbx: .cfa 0 - ^ .ra: .cfa 8 - ^
STACK CFI INIT 1a610 49 .cfa: $rsp 48 + .ra: .cfa 8 - ^
STACK CFI INIT 1a6a0 1d .cfa: $rsp 48 + .ra: .cfa 8 - ^
STACK CFI INIT 1a6f0 1d .cfa: $rsp 48 + .ra: .cfa 8 - ^
STACK CFI INIT 1a720 50 .cfa: $rsp 48 + .ra: .cfa 8 - ^
STACK CFI INIT 1a778 116 .cfa: $rsp 48 + $r14: .cfa 16 - ^ $rbx: .cfa 0 - ^ $rsi: .cfa 0 - ^ $rdi: .cfa 0 - ^ .ra: .cfa 8 - ^
STACK CFI INIT 1a894 83 .cfa: $rsp 48 + $rdi: .cfa 16 - ^ $rbx: .cfa 0 - ^ .ra: .cfa 8 - ^
STACK CFI INIT 1a920 133 .cfa: $rsp 96 + $rsi: .cfa 16 - ^ $rdi: .cfa 24 - ^ $r14: .cfa 32 - ^ $rbx: .cfa 0 - ^ .ra: .cfa 8 - ^
STACK CFI INIT 1aa60 3d .cfa: $rsp 48 + $rdi: .cfa 16 - ^ $rbx: .cfa 0 - ^ $rsi: .cfa 0 - ^ .ra: .cfa 8 - ^
STACK CFI INIT 1aab0 21 .cfa: $rsp 8 + .ra: .cfa 8 - ^
STACK CFI INIT 1aad8 5d .cfa: $rsp 48 + $rbx: .cfa 16 - ^ .ra: .cfa 8 - ^
STACK CFI INIT 1ab40 d2 .cfa: $rsp 64 + .ra: .cfa 8 - ^
STACK CFI INIT 1ac18 13 .cfa: $rsp 48 + .ra: .cfa 8 - ^
STACK CFI INIT 1ac34 9c .cfa: $rsp 48 + .ra: .cfa 8 - ^
STACK CFI INIT 1acd8 6d .cfa: $rsp 80 + $rdi: .cfa 16 - ^ $rbx: .cfa 0 - ^ .ra: .cfa 8 - ^
STACK CFI INIT 1ad4c 71 .cfa: $rsp 96 + $rbx: .cfa 16 - ^ $rsi: .cfa 24 - ^ $rdi: .cfa 32 - ^ .ra: .cfa 8 - ^
STACK CFI INIT 1ade0 130 .cfa: $rsp 48 + $rdi: .cfa 16 - ^ $rbx: .cfa 0 - ^ $rsi: .cfa 0 - ^ .ra: .cfa 8 - ^
STACK CFI INIT 1af20 28 .cfa: $rsp 48 + .ra: .cfa 8 - ^
STACK CFI INIT 1af50 39 .cfa: $rsp 48 + .ra: .cfa 8 - ^
STACK CFI INIT 1af90 34 .cfa: $rsp 48 + .ra: .cfa 8 - ^
STACK CFI INIT 1afcc 15 .cfa: $rsp 48 + .ra: .cfa 8 - ^
STACK CFI INIT 1afe8 28 .cfa: $rsp 48 + .ra: .cfa 8 - ^
STACK CFI INIT 1b018 15 .cfa: $rsp 48 + .ra: .cfa 8 - ^
STACK CFI INIT 1b034 60 .cfa: $rsp 48 + $rdi: .cfa 16 - ^ $rbx: .cfa 0 - ^ $rbp: .cfa 0 - ^ $rsi: .cfa 0 - ^ .ra: .cfa 8 - ^
STACK CFI INIT 1b09c 30 .cfa: $rsp 48 + .ra: .cfa 8 - ^
STACK CFI INIT 1b0d4 14 .cfa: $rsp 48 + .ra: .cfa 8 - ^
STACK CFI INIT 1b0f0 49 .cfa: $rsp 48 + $rbx: .cfa 16 - ^ .ra: .cfa 8 - ^
STACK CFI INIT 1b140 da .cfa: $rsp 80 + $rbp: .cfa 16 - ^ $rbx: .cfa 0 - ^ .ra: .cfa 8 - ^
STACK CFI INIT 1b220 99 .cfa: $rsp 32 + .ra: .cfa 8 - ^
STACK CFI INIT 1b2c0 24 .cfa: $rsp 48 + $rbx: .cfa 16 - ^ .ra: .cfa 8 - ^
STACK CFI INIT 1b2ec 2b .cfa: $rsp 48 + $rbx: .cfa 16 - ^ .ra: .cfa 8 - ^
STACK CFI INIT 1b320 4f .cfa: $rsp 48 + $rbx: .cfa 16 - ^ .ra: .cfa 8 - ^
STACK CFI INIT 1b378 17 .cfa: $rsp 48 + .ra: .cfa 8 - ^
STACK CFI INIT 1b3a0 26 .cfa: $rsp 48 + $rbx: .cfa 16 - ^ .ra: .cfa 8 - ^
STACK CFI INIT 1b3cc ad .cfa: $rsp 48 + $rbp: .cfa 16 - ^ $rbx: .cfa 0 - ^ .ra: .cfa 8 - ^
STACK CFI INIT 1b4a8 1b .cfa: $rsp 48 + .ra: .cfa 8 - ^
STACK CFI INIT 1b4ec 14b .cfa: $rsp 1488 + $rbp: .cfa 16 - ^ $rbx: .cfa 0 - ^ .ra: .cfa 8 - ^
STACK CFI INIT 1b640 3c .cfa: $rsp 48 + $rdi: .cfa 16 - ^ $rbx: .cfa 0 - ^ .ra: .cfa 8 - ^
STACK CFI INIT 1b684 3c .cfa: $rsp 48 + $rdi: .cfa 16 - ^ $rbx: .cfa 0 - ^ .ra: .cfa 8 - ^
STACK CFI INIT 1b6c8 1b9 .cfa: $rsp 48 + $rsi: .cfa 16 - ^ $rdi: .cfa 24 - ^ $r14: .cfa 32 - ^ $rbx: .cfa 0 - ^ $rbp: .cfa 0 - ^ .ra: .cfa 8 - ^
STACK CFI INIT 1b9d0 4e .cfa: $rsp 80 + $rbx: .cfa 16 - ^ $rsi: .cfa 24 - ^ $rdi: .cfa 32 - ^ .ra: .cfa 8 - ^
STACK CFI INIT 1ba24 62 .cfa: $rsp 64 + $rdi: .cfa 16 - ^ $rbx: .cfa 0 - ^ $rbp: .cfa 0 - ^ $rsi: .cfa 0 - ^ .ra: .cfa 8 - ^
STACK CFI INIT 1ba8c 52 .cfa: $rsp 96 + $rbx: .cfa 16 - ^ $rbp: .cfa 24 - ^ $rsi: .cfa 32 - ^ $rdi: .cfa 40 - ^ .ra: .cfa 8 - ^
STACK CFI INIT 1bb1c 4e .cfa: $rsp 48 + .ra: .cfa 8 - ^
STACK CFI INIT 1bb7c 77 .cfa: $rsp 112 + .ra: .cfa 8 - ^
STACK CFI INIT 1be50 4e .cfa: $rsp 48 + .ra: .cfa 8 - ^
STACK CFI INIT 1beb0 77 .cfa: $rsp 112 + .ra: .cfa 8 - ^
STACK CFI INIT 1c2f8 b1 .cfa: $rsp 48 + $rdi: .cfa 16 - ^ $rbx: .cfa 0 - ^ $rsi: .cfa 0 - ^ .ra: .cfa 8 - ^
STACK CFI INIT 1c3e4 1d .cfa: $rsp 48 + $rbx: .cfa 16 - ^ .ra: .cfa 8 - ^
STACK CFI INIT 1c408 3a .cfa: $rsp 80 + .ra: .cfa 8 - ^
STACK CFI INIT 1c448 10c .cfa: $rsp 48 + $rdi: .cfa 16 - ^ $rbx: .cfa 0 - ^ .ra: .cfa 8 - ^
STACK CFI INIT 1c55c 1d .cfa: $rsp 48 + .ra: .cfa 8 - ^
STACK CFI INIT 1c580 5b .cfa: $rsp 16 + $rbx: .cfa 16 - ^ .ra: .cfa 8 - ^
STACK CFI INIT 1c5e4 85 .cfa: $rsp 48 + $r14: .cfa 16 - ^ $rbx: .cfa 0 - ^ $rbp: .cfa 0 - ^ $rsi: .cfa 0 - ^ $rdi: .cfa 0 - ^ .ra: .cfa 8 - ^
STACK CFI INIT 1c680 51 .cfa: $rsp 24 + .ra: .cfa 8 - ^
STACK CFI INIT 1c720 f .cfa: $rsp 48 + .ra: .cfa 8 - ^
STACK CFI INIT 1c740 93 .cfa: $rbp 64 + $rbp: $rbp 32 + ^ $rsi: $rbp 40 + ^ $rdi: $rbp 48 + ^ .ra: .cfa 8 - ^
STACK CFI INIT 1c7f0 2 .cfa: $rsp 8 + .ra: .cfa 8 - ^
STACK CFI INIT 1ca1f 1b .cfa: $rsp 48 + $rbp: .cfa 16 - ^ .ra: .cfa 8 - ^
STACK CFI INIT 1ca52 1d .cfa: $rsp 48 + $rbp: .cfa 16 - ^ .ra: .cfa 8 - ^
STACK CFI INIT 1ca87 20 .cfa: $rsp 48 + $rbp: .cfa 16 - ^ .ra: .cfa 8 - ^
STACK CFI INIT 1caad 25 .cfa: $rsp 48 + $rbp: .cfa 16 - ^ .ra: .cfa 8 - ^
STACK CFI INIT 1cad8 28 .cfa: $rsp 64 + $rbp: .cfa 16 - ^ .ra: .cfa 8 - ^
STACK CFI INIT 1cb06 25 .cfa: $rsp 48 + $rbp: .cfa 16 - ^ .ra: .cfa 8 - ^
STACK CFI INIT 1cb31 25 .cfa: $rsp 48 + $rbp: .cfa 16 - ^ .ra: .cfa 8 - ^
STACK CFI INIT 1cb5c 1a .cfa: $rsp 64 + $rbp: .cfa 16 - ^ .ra: .cfa 8 - ^
STACK CFI INIT 1cb7c 1a .cfa: $rsp 64 + $rbp: .cfa 16 - ^ .ra: .cfa 8 - ^
STACK CFI INIT 1cb9c 1a .cfa: $rsp 64 + $rbp: .cfa 16 - ^ .ra: .cfa 8 - ^
STACK CFI INIT 1cbbc 39 .cfa: $rsp 64 + $rbp: .cfa 16 - ^ .ra: .cfa 8 - ^
STACK CFI INIT 1cbfb 20 .cfa: $rsp 48 + $rbp: .cfa 16 - ^ .ra: .cfa 8 - ^
STACK CFI INIT 1cc21 17 .cfa: $rsp 48 + $rbp: .cfa 16 - ^ .ra: .cfa 8 - ^
STACK CFI INIT 1cc3e 1c .cfa: $rsp 48 + $rbp: .cfa 16 - ^ .ra: .cfa 8 - ^
STACK CFI INIT 1cc60 36 .cfa: $rsp 64 + $rbp: .cfa 16 - ^ .ra: .cfa 8 - ^
STACK CFI INIT 1cc9c 18 .cfa: $rsp 16 + $rbp: .cfa 16 - ^ .ra: .cfa 8 - ^
STACK CFI INIT 1cce6 13b .cfa: $rsp 288 + $rbp: .cfa 16 - ^ $rbx: .cfa 24 - ^ $rsi: .cfa 32 - ^ $rdi: .cfa 40 - ^ $r12: .cfa 48 - ^ $r13: .cfa 56 - ^ $r14: .cfa 64 - ^ $r15: .cfa 72 - ^ .ra: .cfa 8 - ^
STACK CFI INIT 1ce22 10e .cfa: $rsp 144 + $rbp: .cfa 16 - ^ $rbx: .cfa 24 - ^ $rsi: .cfa 32 - ^ $rdi: .cfa 40 - ^ $r12: .cfa 48 - ^ $r14: .cfa 56 - ^ $r15: .cfa 64 - ^ .ra: .cfa 8 - ^
STACK CFI INIT 1cf30 22 .cfa: $rsp 64 + $r14: .cfa 16 - ^ $rbx: .cfa 0 - ^ $rbp: .cfa 0 - ^ $rsi: .cfa 0 - ^ $rdi: .cfa 0 - ^ .ra: .cfa 8 - ^
STACK CFI INIT 1cfa0 f6 .cfa: $rsp 112 + $rbx: .cfa 16 - ^ $rbp: .cfa 24 - ^ $rsi: .cfa 32 - ^ $rdi: .cfa 40 - ^ $r12: .cfa 48 - ^ $r14: .cfa 56 - ^ $r15: .cfa 64 - ^ .ra: .cfa 8 - ^
STACK CFI INIT 1d096 39 .cfa: $rsp 96 + $rbx: .cfa 16 - ^ .ra: .cfa 8 - ^
STACK CFI INIT 1d0de 15 .cfa: $rsp 64 + $rdi: .cfa 16 - ^ $rbx: .cfa 0 - ^ $rsi: .cfa 0 - ^ .ra: .cfa 8 - ^
STACK CFI INIT 1d0f4 1f1 .cfa: $rsp 96 + $r14: .cfa 16 - ^ $rbx: .cfa 0 - ^ $rsi: .cfa 0 - ^ $rdi: .cfa 0 - ^ .ra: .cfa 8 - ^
STACK CFI INIT 1d2e6 10b .cfa: $rsp 48 + $rbx: .cfa 16 - ^ .ra: .cfa 8 - ^
STACK CFI INIT 1d3f2 2f .cfa: $rsp 80 + .ra: .cfa 8 - ^
STACK CFI INIT 1d422 34 .cfa: $rsp 48 + .ra: .cfa 8 - ^
STACK CFI INIT 1d456 76 .cfa: $rsp 64 + $rbx: .cfa 16 - ^ .ra: .cfa 8 - ^
STACK CFI INIT 1d4cc 1a .cfa: $rsp 48 + $rdi: .cfa 16 - ^ $rbx: .cfa 0 - ^ .ra: .cfa 8 - ^
STACK CFI INIT 1d5b0 2c .cfa: $rsp 48 + $rbx: .cfa 16 - ^ .ra: .cfa 8 - ^
STACK CFI INIT 1d5dc 5c .cfa: $rsp 64 + $rdi: .cfa 16 - ^ $rbx: .cfa 0 - ^ $rbp: .cfa 0 - ^ $rsi: .cfa 0 - ^ .ra: .cfa 8 - ^
STACK CFI INIT 1d638 c0 .cfa: $rsp 48 + $rdi: .cfa 16 - ^ $rbx: .cfa 0 - ^ $rsi: .cfa 0 - ^ .ra: .cfa 8 - ^
STACK CFI INIT 1d6f8 16 .cfa: $rsp 48 + $rdi: .cfa 16 - ^ $rbx: .cfa 0 - ^ .ra: .cfa 8 - ^
STACK CFI INIT 1d70e 22e .cfa: $rsp 48 + $rdi: .cfa 16 - ^ $rbx: .cfa 0 - ^ $rsi: .cfa 0 - ^ .ra: .cfa 8 - ^
STACK CFI INIT 1d93c 71 .cfa: $rsp 64 + $rdi: .cfa 16 - ^ $rbx: .cfa 0 - ^ .ra: .cfa 8 - ^
STACK CFI INIT 1d9ae 24 .cfa: $rsp 80 + $rdi: .cfa 16 - ^ $rbx: .cfa 0 - ^ $rbp: .cfa 0 - ^ $rsi: .cfa 0 - ^ .ra: .cfa 8 - ^
STACK CFI INIT 1d9d2 47c .cfa: $rsp 192 + $rdi: .cfa 16 - ^ $r12: .cfa 24 - ^ $r13: .cfa 32 - ^ $r14: .cfa 40 - ^ $r15: .cfa 48 - ^ $rbx: .cfa 0 - ^ $rbp: .cfa 0 - ^ $rsi: .cfa 0 - ^ .ra: .cfa 8 - ^
STACK CFI INIT 1de4e 5ed .cfa: $rsp 368 + $rbx: .cfa 16 - ^ $rsi: .cfa 24 - ^ $rdi: .cfa 32 - ^ $r12: .cfa 40 - ^ $r13: .cfa 48 - ^ $r14: .cfa 56 - ^ $r15: .cfa 64 - ^ .ra: .cfa 8 - ^
STACK CFI INIT 1e43c 272 .cfa: $rsp 80 + $r13: .cfa 16 - ^ $r14: .cfa 24 - ^ $r15: .cfa 32 - ^ $rbx: .cfa 0 - ^ $rsi: .cfa 0 - ^ $rdi: .cfa 0 - ^ $r12: .cfa 0 - ^ .ra: .cfa 8 - ^
STACK CFI INIT 1e6ae 28d .cfa: $rsp 192 + $rbx: .cfa 16 - ^ $rsi: .cfa 24 - ^ $rdi: .cfa 32 - ^ $r12: .cfa 40 - ^ $r13: .cfa 48 - ^ $r14: .cfa 56 - ^ $r15: .cfa 64 - ^ .ra: .cfa 8 - ^
STACK CFI INIT 1e93c 7c .cfa: $rsp 400 + $rbx: .cfa 16 - ^ $rsi: .cfa 24 - ^ $rdi: .cfa 32 - ^ .ra: .cfa 8 - ^
STACK CFI INIT 1e9b8 1bd .cfa: $rsp 64 + $r14: .cfa 16 - ^ $rbx: .cfa 0 - ^ $rdi: .cfa 0 - ^ .ra: .cfa 8 - ^
STACK CFI INIT 1eb76 18f .cfa: $rsp 160 + $rbp: .cfa 16 - ^ $rsi: .cfa 24 - ^ $rdi: .cfa 32 - ^ $r12: .cfa 40 - ^ $r13: .cfa 48 - ^ $r14: .cfa 56 - ^ $r15: .cfa 64 - ^ $rbx: .cfa 0 - ^ .ra: .cfa 8 - ^
STACK CFI INIT 1ed06 10 .cfa: $rsp 48 + .ra: .cfa 8 - ^
STACK CFI INIT 1ed16 2a .cfa: $rsp 48 + $rdi: .cfa 16 - ^ $rbx: .cfa 0 - ^ $rsi: .cfa 0 - ^ .ra: .cfa 8 - ^
STACK CFI INIT 1ed40 33 .cfa: $rsp 160 + $rbx: .cfa 16 - ^ $rbp: .cfa 24 - ^ $rsi: .cfa 32 - ^ $rdi: .cfa 40 - ^ .ra: .cfa 8 - ^
STACK CFI INIT 1ed74 2c .cfa: $rsp 48 + $r14: .cfa 16 - ^ $rbx: .cfa 0 - ^ $rbp: .cfa 0 - ^ $rsi: .cfa 0 - ^ $rdi: .cfa 0 - ^ .ra: .cfa 8 - ^
STACK CFI INIT 1eda0 33 .cfa: $rsp 160 + $rbx: .cfa 16 - ^ $rbp: .cfa 24 - ^ $rsi: .cfa 32 - ^ $rdi: .cfa 40 - ^ .ra: .cfa 8 - ^
STACK CFI INIT 1edd4 78 .cfa: $rsp 1488 + $rbx: .cfa 16 - ^ $rsi: .cfa 24 - ^ $rdi: .cfa 32 - ^ .ra: .cfa 8 - ^
STACK CFI INIT 1ee4c d .cfa: $rsp 144 + $rbx: .cfa 16 - ^ .ra: .cfa 8 - ^
STACK CFI INIT 1ee5a 1e3 .cfa: $rsp 64 + $rdi: .cfa 16 - ^ $r14: .cfa 24 - ^ $r15: .cfa 32 - ^ $rbx: .cfa 0 - ^ $rbp: .cfa 0 - ^ $rsi: .cfa 0 - ^ .ra: .cfa 8 - ^
STACK CFI INIT 1f03e 7b .cfa: $rsp 80 + $rbp: .cfa 16 - ^ $rdi: .cfa 24 - ^ $r12: .cfa 32 - ^ $r14: .cfa 40 - ^ $r15: .cfa 48 - ^ $rbx: .cfa 0 - ^ $rsi: .cfa 0 - ^ .ra: .cfa 8 - ^
STACK CFI INIT 1f0ba 1a .cfa: $rsp 64 + $rdi: .cfa 16 - ^ $rbx: .cfa 0 - ^ .ra: .cfa 8 - ^
STACK CFI INIT 1f0ea 1b1 .cfa: $rsp 176 + $rbx: .cfa 16 - ^ $rbp: .cfa 24 - ^ $rsi: .cfa 32 - ^ $rdi: .cfa 40 - ^ $r12: .cfa 48 - ^ $r13: .cfa 56 - ^ $r14: .cfa 64 - ^ $r15: .cfa 72 - ^ .ra: .cfa 8 - ^
STACK CFI INIT 1f29c df .cfa: $rsp 48 + .ra: .cfa 8 - ^
STACK CFI INIT 1f37c 283 .cfa: $rsp 192 + $rbx: .cfa 16 - ^ $rsi: .cfa 24 - ^ $rdi: .cfa 32 - ^ $r12: .cfa 40 - ^ $r13: .cfa 48 - ^ $r14: .cfa 56 - ^ $r15: .cfa 64 - ^ .ra: .cfa 8 - ^
STACK CFI INIT 1f600 4cb .cfa: $rsp 160 + $rbp: .cfa 16 - ^ $rsi: .cfa 24 - ^ $rdi: .cfa 32 - ^ $r12: .cfa 40 - ^ $r13: .cfa 48 - ^ $r14: .cfa 56 - ^ $r15: .cfa 64 - ^ $rbx: .cfa 0 - ^ .ra: .cfa 8 - ^
STACK CFI INIT 1facc 10 .cfa: $rsp 48 + .ra: .cfa 8 - ^
STACK CFI INIT 1fadc 29 .cfa: $rsp 48 + $rdi: .cfa 16 - ^ $rbx: .cfa 0 - ^ $rbp: .cfa 0 - ^ $rsi: .cfa 0 - ^ .ra: .cfa 8 - ^
STACK CFI INIT 1fb06 10 .cfa: $rsp 48 + .ra: .cfa 8 - ^
STACK CFI INIT 1fb16 1b3 .cfa: $rsp 48 + .ra: .cfa 8 - ^
STACK CFI INIT 1fcca 630 .cfa: $rsp 368 + $rbx: .cfa 16 - ^ $rsi: .cfa 24 - ^ $rdi: .cfa 32 - ^ $r12: .cfa 40 - ^ $r13: .cfa 48 - ^ $r14: .cfa 56 - ^ $r15: .cfa 64 - ^ .ra: .cfa 8 - ^
STACK CFI INIT 202fa c4 .cfa: $rsp 688 + $rbx: .cfa 16 - ^ $rbp: .cfa 24 - ^ $rsi: .cfa 32 - ^ $rdi: .cfa 40 - ^ $r12: .cfa 48 - ^ $r14: .cfa 56 - ^ $r15: .cfa 64 - ^ .ra: .cfa 8 - ^
STACK CFI INIT 203be c4 .cfa: $rsp 96 + $rbp: .cfa 16 - ^ $rdi: .cfa 24 - ^ $r14: .cfa 32 - ^ $rbx: .cfa 0 - ^ $rsi: .cfa 0 - ^ .ra: .cfa 8 - ^
STACK CFI INIT 20482 d .cfa: $rsp 48 + .ra: .cfa 8 - ^
STACK CFI INIT 20490 3a .cfa: $rsp 48 + .ra: .cfa 8 - ^
STACK CFI INIT 204ca d5 .cfa: $rsp 208 + $rbp: .cfa 16 - ^ $rbx: .cfa 24 - ^ $rsi: .cfa 32 - ^ $rdi: .cfa 40 - ^ $r12: .cfa 48 - ^ $r13: .cfa 56 - ^ $r14: .cfa 64 - ^ $r15: .cfa 72 - ^ .ra: .cfa 8 - ^
STACK CFI INIT 205a0 2c .cfa: $rsp 48 + $rbx: .cfa 16 - ^ .ra: .cfa 8 - ^
STACK CFI INIT 205cc 2c5 .cfa: $rsp 176 + $rbp: .cfa 16 - ^ $rsi: .cfa 24 - ^ $rdi: .cfa 32 - ^ $r12: .cfa 40 - ^ $r13: .cfa 48 - ^ $r14: .cfa 56 - ^ $r15: .cfa 64 - ^ $rbx: .cfa 0 - ^ .ra: .cfa 8 - ^
STACK CFI INIT 20892 af .cfa: $rsp 96 + $rsi: .cfa 16 - ^ $rdi: .cfa 24 - ^ $r12: .cfa 32 - ^ $r14: .cfa 40 - ^ $r15: .cfa 48 - ^ $rbx: .cfa 0 - ^ $rbp: .cfa 0 - ^ .ra: .cfa 8 - ^
STACK CFI INIT 20942 f7 .cfa: $rsp 80 + $rdi: .cfa 16 - ^ $r12: .cfa 24 - ^ $r13: .cfa 32 - ^ $r14: .cfa 40 - ^ $r15: .cfa 48 - ^ $rbx: .cfa 0 - ^ $rbp: .cfa 0 - ^ $rsi: .cfa 0 - ^ .ra: .cfa 8 - ^
STACK CFI INIT 20a3a 17 .cfa: $rsp 48 + $rbx: .cfa 16 - ^ .ra: .cfa 8 - ^
STACK CFI INIT 20a52 d .cfa: $rsp 48 + .ra: .cfa 8 - ^
STACK CFI INIT 20a60 fa .cfa: $rsp 112 + $rbp: .cfa 16 - ^ $rsi: .cfa 24 - ^ $rdi: .cfa 32 - ^ $r12: .cfa 40 - ^ $r13: .cfa 48 - ^ $r14: .cfa 56 - ^ $r15: .cfa 64 - ^ $rbx: .cfa 0 - ^ .ra: .cfa 8 - ^
STACK CFI INIT 20b5a a2 .cfa: $rsp 128 + $rbp: .cfa 16 - ^ $rbx: .cfa 24 - ^ .ra: .cfa 8 - ^
STACK CFI INIT 20bfc 33 .cfa: $rsp 80 + $rdi: .cfa 16 - ^ $r14: .cfa 24 - ^ $r15: .cfa 32 - ^ $rbx: .cfa 0 - ^ $rbp: .cfa 0 - ^ $rsi: .cfa 0 - ^ .ra: .cfa 8 - ^
STACK CFI INIT 20c30 fe .cfa: $rsp 160 + $rbp: .cfa 16 - ^ $rbx: .cfa 0 - ^ $rsi: .cfa 0 - ^ $rdi: .cfa 0 - ^ .ra: .cfa 8 - ^
STACK CFI INIT 20d2e d8 .cfa: $rsp 160 + $rdi: .cfa 16 - ^ $r14: .cfa 24 - ^ $r15: .cfa 32 - ^ $rbx: .cfa 0 - ^ $rbp: .cfa 0 - ^ $rsi: .cfa 0 - ^ .ra: .cfa 8 - ^
STACK CFI INIT 20e06 11e .cfa: $rsp 160 + $rbx: .cfa 16 - ^ $rbp: .cfa 24 - ^ $rsi: .cfa 32 - ^ $rdi: .cfa 40 - ^ $r12: .cfa 48 - ^ $r13: .cfa 56 - ^ $r14: .cfa 64 - ^ $r15: .cfa 72 - ^ .ra: .cfa 8 - ^
STACK CFI INIT 20f24 75 .cfa: $rsp 96 + $rbp: .cfa 16 - ^ $rsi: .cfa 24 - ^ $rdi: .cfa 32 - ^ $r12: .cfa 40 - ^ $r13: .cfa 48 - ^ $r14: .cfa 56 - ^ $r15: .cfa 64 - ^ $rbx: .cfa 0 - ^ .ra: .cfa 8 - ^
STACK CFI INIT 20fc2 3e .cfa: $rsp 224 + $rbp: .cfa 16 - ^ $r12: .cfa 24 - ^ $r13: .cfa 32 - ^ $r14: .cfa 40 - ^ $r15: .cfa 48 - ^ $rsi: .cfa 0 - ^ $rdi: .cfa 0 - ^ .ra: .cfa 8 - ^
STACK CFI INIT 21000 5aa .cfa: $rsp 224 + $rbx: .cfa 0 - ^ $rbp: .cfa 16 - ^ $r12: .cfa 24 - ^ $r13: .cfa 32 - ^ $r14: .cfa 40 - ^ $r15: .cfa 48 - ^ $rsi: .cfa 0 - ^ $rdi: .cfa 0 - ^ .ra: .cfa 8 - ^
STACK CFI INIT 215aa 18 .cfa: $rsp 224 + $rbp: .cfa 16 - ^ $r12: .cfa 24 - ^ $r13: .cfa 32 - ^ $r14: .cfa 40 - ^ $r15: .cfa 48 - ^ $rsi: .cfa 0 - ^ $rdi: .cfa 0 - ^ .ra: .cfa 8 - ^
STACK CFI INIT 215c2 d68 .cfa: $rsp 208 + $rbp: .cfa 16 - ^ $rsi: .cfa 24 - ^ $rdi: .cfa 32 - ^ $r12: .cfa 40 - ^ $r13: .cfa 48 - ^ $r14: .cfa 56 - ^ $r15: .cfa 64 - ^ $rbx: .cfa 0 - ^ .ra: .cfa 8 - ^
STACK CFI INIT 2232a 37c .cfa: $rsp 112 + $rdi: .cfa 16 - ^ $r12: .cfa 24 - ^ $r13: .cfa 32 - ^ $r14: .cfa 40 - ^ $r15: .cfa 48 - ^ $rbx: .cfa 0 - ^ $rbp: .cfa 0 - ^ $rsi: .cfa 0 - ^ .ra: .cfa 8 - ^
STACK CFI INIT 226a6 1d5 .cfa: $rsp 96 + $rdi: .cfa 16 - ^ $r12: .cfa 24 - ^ $r13: .cfa 32 - ^ $r14: .cfa 40 - ^ $r15: .cfa 48 - ^ $rbx: .cfa 0 - ^ $rbp: .cfa 0 - ^ $rsi: .cfa 0 - ^ .ra: .cfa 8 - ^
STACK CFI INIT 2287c d1 .cfa: $rbp 160 + $rbp: .cfa 16 - ^ $rsi: .cfa 24 - ^ $rdi: .cfa 32 - ^ $r12: .cfa 40 - ^ $r13: .cfa 48 - ^ $r14: .cfa 56 - ^ $r15: .cfa 64 - ^ $rbx: $rbp 176 + ^ .ra: .cfa 8 - ^
STACK CFI INIT 2294e 17 .cfa: $rsp 848 + $rbp: .cfa 16 - ^ $rbx: .cfa 24 - ^ $rsi: .cfa 32 - ^ $rdi: .cfa 40 - ^ $r12: .cfa 48 - ^ $r14: .cfa 56 - ^ .ra: .cfa 8 - ^
STACK CFI INIT 22965 27e .cfa: $rsp 848 + $r13: .cfa 0 - ^ $r15: .cfa 0 - ^ $rbp: .cfa 16 - ^ $rbx: .cfa 24 - ^ $rsi: .cfa 32 - ^ $rdi: .cfa 40 - ^ $r12: .cfa 48 - ^ $r14: .cfa 56 - ^ .ra: .cfa 8 - ^
STACK CFI INIT 22be4 43 .cfa: $rsp 64 + $rsi: .cfa 16 - ^ $rdi: .cfa 24 - ^ $r14: .cfa 32 - ^ $rbx: .cfa 0 - ^ $rbp: .cfa 0 - ^ .ra: .cfa 8 - ^
STACK CFI INIT 22c28 13 .cfa: $rsp 48 + $rdi: .cfa 16 - ^ $rbx: .cfa 0 - ^ .ra: .cfa 8 - ^
STACK CFI INIT 22c3c de .cfa: $rsp 64 + $rsi: .cfa 0 - ^ $rdi: .cfa 0 - ^ $r15: .cfa 0 - ^ $rbx: .cfa 16 - ^ $rbp: .cfa 24 - ^ $r14: .cfa 32 - ^ .ra: .cfa 8 - ^
STACK CFI INIT 22d1a a .cfa: $rsp 64 + $rbx: .cfa 16 - ^ $rbp: .cfa 24 - ^ $r14: .cfa 32 - ^ .ra: .cfa 8 - ^
STACK CFI INIT 22d24 a .cfa: $rsp 64 + $rbx: .cfa 16 - ^ .ra: .cfa 8 - ^
STACK CFI INIT 22d2e 4d .cfa: $rsp 64 + $rbp: .cfa 0 - ^ $rsi: .cfa 0 - ^ $rbx: .cfa 16 - ^ .ra: .cfa 8 - ^
STACK CFI INIT 22d7b 3e .cfa: $rsp 64 + $rsi: .cfa 0 - ^ $rbx: .cfa 16 - ^ .ra: .cfa 8 - ^
STACK CFI INIT 22dba a .cfa: $rsp 64 + $rsi: .cfa 16 - ^ $r14: .cfa 24 - ^ .ra: .cfa 8 - ^
STACK CFI INIT 22dc4 43 .cfa: $rsp 64 + $rbx: .cfa 0 - ^ $rdi: .cfa 0 - ^ $r15: .cfa 0 - ^ $rsi: .cfa 16 - ^ $r14: .cfa 24 - ^ .ra: .cfa 8 - ^
STACK CFI INIT 22e07 30 .cfa: $rsp 64 + $rbp: .cfa 0 - ^ $rbx: .cfa 0 - ^ $rdi: .cfa 0 - ^ $r15: .cfa 0 - ^ $rsi: .cfa 16 - ^ $r14: .cfa 24 - ^ .ra: .cfa 8 - ^
STACK CFI INIT 22e37 14 .cfa: $rsp 64 + $rbx: .cfa 0 - ^ $rdi: .cfa 0 - ^ $r15: .cfa 0 - ^ $rsi: .cfa 16 - ^ $r14: .cfa 24 - ^ .ra: .cfa 8 - ^
STACK CFI INIT 22e4b 38 .cfa: $rsp 64 + $rbx: .cfa 0 - ^ $r15: .cfa 0 - ^ $rsi: .cfa 16 - ^ $r14: .cfa 24 - ^ .ra: .cfa 8 - ^
STACK CFI INIT 22e84 33 .cfa: $rsp 48 + $rdi: .cfa 16 - ^ $rbx: .cfa 0 - ^ .ra: .cfa 8 - ^
STACK CFI INIT 22eb8 71 .cfa: $rsp 48 + $rdi: .cfa 0 - ^ $rbx: .cfa 16 - ^ .ra: .cfa 8 - ^
STACK CFI INIT 22f29 8 .cfa: $rsp 48 + $rbp: .cfa 0 - ^ $rdi: .cfa 0 - ^ $rbx: .cfa 16 - ^ .ra: .cfa 8 - ^
STACK CFI INIT 22f31 32 .cfa: $rsp 48 + $rsi: .cfa 0 - ^ $rbp: .cfa 0 - ^ $rdi: .cfa 0 - ^ $rbx: .cfa 16 - ^ .ra: .cfa 8 - ^
STACK CFI INIT 22f64 a .cfa: $rsp 80 + $rbx: .cfa 16 - ^ $rsi: .cfa 24 - ^ $r15: .cfa 32 - ^ .ra: .cfa 8 - ^
STACK CFI INIT 22f6e 102 .cfa: $rsp 80 + $rbp: .cfa 0 - ^ $rdi: .cfa 0 - ^ $r12: .cfa 0 - ^ $r13: .cfa 0 - ^ $r14: .cfa 0 - ^ $rbx: .cfa 16 - ^ $rsi: .cfa 24 - ^ $r15: .cfa 32 - ^ .ra: .cfa 8 - ^
STACK CFI INIT 23070 a .cfa: $rsp 80 + $rbx: .cfa 16 - ^ $rsi: .cfa 24 - ^ $r15: .cfa 32 - ^ .ra: .cfa 8 - ^
STACK CFI INIT 2307a 28 .cfa: $rsp 112 + $rbx: .cfa 16 - ^ $r12: .cfa 24 - ^ $r14: .cfa 32 - ^ $r15: .cfa 40 - ^ .ra: .cfa 8 - ^
STACK CFI INIT 230a2 38 .cfa: $rsp 112 + $rbp: .cfa 0 - ^ $rsi: .cfa 0 - ^ $rdi: .cfa 0 - ^ $r13: .cfa 0 - ^ $rbx: .cfa 16 - ^ $r12: .cfa 24 - ^ $r14: .cfa 32 - ^ $r15: .cfa 40 - ^ .ra: .cfa 8 - ^
STACK CFI INIT 230da 1f .cfa: $rsp 48 + $rbx: .cfa 16 - ^ .ra: .cfa 8 - ^
STACK CFI INIT 230fa 10 .cfa: $rsp 48 + $rdi: .cfa 16 - ^ $rbx: .cfa 0 - ^ $rsi: .cfa 0 - ^ .ra: .cfa 8 - ^
STACK CFI INIT 23152 75 .cfa: $rsp 48 + $rbx: .cfa 16 - ^ .ra: .cfa 8 - ^
STACK CFI INIT 231c8 a .cfa: $rsp 64 + $rdi: .cfa 16 - ^ $rbx: .cfa 0 - ^ $rsi: .cfa 0 - ^ .ra: .cfa 8 - ^
STACK CFI INIT 231d2 4d .cfa: $rsp 64 + $rbp: .cfa 0 - ^ $rdi: .cfa 16 - ^ $rbx: .cfa 0 - ^ $rsi: .cfa 0 - ^ .ra: .cfa 8 - ^
STACK CFI INIT 2321f 3e .cfa: $rsp 64 + $rdi: .cfa 16 - ^ $rbx: .cfa 0 - ^ $rsi: .cfa 0 - ^ .ra: .cfa 8 - ^
STACK CFI INIT 2325e 65 .cfa: $rsp 80 + $rdi: .cfa 16 - ^ $r12: .cfa 24 - ^ $r13: .cfa 32 - ^ $r14: .cfa 40 - ^ $r15: .cfa 48 - ^ $rbx: .cfa 0 - ^ $rbp: .cfa 0 - ^ $rsi: .cfa 0 - ^ .ra: .cfa 8 - ^
STACK CFI INIT 232c4 46 .cfa: $rsp 48 + $rdi: .cfa 16 - ^ $rbx: .cfa 0 - ^ .ra: .cfa 8 - ^
STACK CFI INIT 2330a 9 .cfa: $rsp 320 + $rbx: .cfa 16 - ^ $rbp: .cfa 24 - ^ $r12: .cfa 32 - ^ .ra: .cfa 8 - ^
STACK CFI INIT 23313 147 .cfa: $rsp 320 + $rsi: .cfa 0 - ^ $rdi: .cfa 0 - ^ $r13: .cfa 0 - ^ $r14: .cfa 0 - ^ $r15: .cfa 0 - ^ $rbx: .cfa 16 - ^ $rbp: .cfa 24 - ^ $r12: .cfa 32 - ^ .ra: .cfa 8 - ^
STACK CFI INIT 2345a 279 .cfa: $rsp 80 + $rbp: .cfa 16 - ^ $rbx: .cfa 24 - ^ $rdi: .cfa 32 - ^ .ra: .cfa 8 - ^
STACK CFI INIT 236d4 54 .cfa: $rsp 48 + $rdi: .cfa 16 - ^ $rbx: .cfa 0 - ^ .ra: .cfa 8 - ^
STACK CFI INIT 23728 3e .cfa: $rsp 48 + $rdi: .cfa 16 - ^ $rbx: .cfa 0 - ^ $rsi: .cfa 0 - ^ .ra: .cfa 8 - ^
STACK CFI INIT 23766 1d .cfa: $rsp 128 + $rbx: .cfa 16 - ^ $rsi: .cfa 24 - ^ $rdi: .cfa 32 - ^ $r12: .cfa 40 - ^ $r13: .cfa 48 - ^ $r14: .cfa 56 - ^ $r15: .cfa 64 - ^ .ra: .cfa 8 - ^
STACK CFI INIT 23783 98 .cfa: $rsp 128 + $rbp: .cfa 0 - ^ $rbx: .cfa 16 - ^ $rsi: .cfa 24 - ^ $rdi: .cfa 32 - ^ $r12: .cfa 40 - ^ $r13: .cfa 48 - ^ $r14: .cfa 56 - ^ $r15: .cfa 64 - ^ .ra: .cfa 8 - ^
STACK CFI INIT 2381b a .cfa: $rsp 128 + $rbx: .cfa 16 - ^ $rsi: .cfa 24 - ^ $rdi: .cfa 32 - ^ $r12: .cfa 40 - ^ $r13: .cfa 48 - ^ $r14: .cfa 56 - ^ $r15: .cfa 64 - ^ .ra: .cfa 8 - ^
STACK CFI INIT 23826 12 .cfa: $rsp 80 + $rdi: .cfa 16 - ^ $r14: .cfa 24 - ^ $r15: .cfa 32 - ^ $rbx: .cfa 0 - ^ $rbp: .cfa 0 - ^ $rsi: .cfa 0 - ^ .ra: .cfa 8 - ^
STACK CFI INIT 23838 18 .cfa: $rsp 64 + $rdi: .cfa 16 - ^ $r14: .cfa 24 - ^ $r15: .cfa 32 - ^ $rbx: .cfa 0 - ^ $rbp: .cfa 0 - ^ $rsi: .cfa 0 - ^ .ra: .cfa 8 - ^
STACK CFI INIT 23850 a .cfa: $rsp 80 + $rbx: .cfa 16 - ^ $rsi: .cfa 24 - ^ $rdi: .cfa 32 - ^ $r12: .cfa 40 - ^ $r14: .cfa 48 - ^ .ra: .cfa 8 - ^
STACK CFI INIT 2385a 10f .cfa: $rsp 80 + $rbp: .cfa 0 - ^ $r15: .cfa 0 - ^ $rbx: .cfa 16 - ^ $rsi: .cfa 24 - ^ $rdi: .cfa 32 - ^ $r12: .cfa 40 - ^ $r14: .cfa 48 - ^ .ra: .cfa 8 - ^
STACK CFI INIT 2396a c1 .cfa: $rsp 64 + $rsi: .cfa 0 - ^ $r12: .cfa 0 - ^ $r14: .cfa 0 - ^ $r15: .cfa 0 - ^ $rbx: .cfa 16 - ^ $rbp: .cfa 24 - ^ $rdi: .cfa 32 - ^ .ra: .cfa 8 - ^
STACK CFI INIT 23a2b a .cfa: $rsp 64 + $rbx: .cfa 16 - ^ $rbp: .cfa 24 - ^ $rdi: .cfa 32 - ^ .ra: .cfa 8 - ^
STACK CFI INIT 23a36 557 .cfa: $rsp 112 + $rbp: .cfa 16 - ^ $r12: .cfa 24 - ^ $r13: .cfa 32 - ^ $r14: .cfa 40 - ^ $r15: .cfa 48 - ^ $rbx: .cfa 0 - ^ $rsi: .cfa 0 - ^ $rdi: .cfa 0 - ^ .ra: .cfa 8 - ^
STACK CFI INIT 23f8e 10 .cfa: $rsp 144 + $rbx: .cfa 16 - ^ .ra: .cfa 8 - ^
STACK CFI INIT 23f9e 35f .cfa: $rsp 192 + $rdi: .cfa 16 - ^ $r12: .cfa 24 - ^ $r13: .cfa 32 - ^ $r14: .cfa 40 - ^ $r15: .cfa 48 - ^ $rbx: .cfa 0 - ^ $rbp: .cfa 0 - ^ $rsi: .cfa 0 - ^ .ra: .cfa 8 - ^
STACK CFI INIT 242fe 125 .cfa: $rsp 64 + $r14: .cfa 16 - ^ $rbx: .cfa 0 - ^ $rsi: .cfa 0 - ^ $rdi: .cfa 0 - ^ $r12: .cfa 0 - ^ .ra: .cfa 8 - ^
STACK CFI INIT 24424 1ca .cfa: $rsp 96 + $rdi: .cfa 16 - ^ $r12: .cfa 24 - ^ $r13: .cfa 32 - ^ $r14: .cfa 40 - ^ $r15: .cfa 48 - ^ $rbx: .cfa 0 - ^ $rbp: .cfa 0 - ^ $rsi: .cfa 0 - ^ .ra: .cfa 8 - ^
STACK CFI INIT 245ee 53 .cfa: $rsp 48 + $rdi: .cfa 16 - ^ $rbx: .cfa 0 - ^ .ra: .cfa 8 - ^
STACK CFI INIT 24642 14 .cfa: $rsp 64 + $rbp: .cfa 16 - ^ $rsi: .cfa 24 - ^ $rdi: .cfa 32 - ^ $rbx: .cfa 0 - ^ .ra: .cfa 8 - ^
STACK CFI INIT 24656 1eb .cfa: $rsp 2400 + $rbp: .cfa 16 - ^ $rsi: .cfa 24 - ^ $rdi: .cfa 32 - ^ $r12: .cfa 40 - ^ $r13: .cfa 48 - ^ $r14: .cfa 56 - ^ $r15: .cfa 64 - ^ $rbx: .cfa 0 - ^ .ra: .cfa 8 - ^
STACK CFI INIT 24842 1b .cfa: $rsp 64 + $r12: .cfa 16 - ^ $r14: .cfa 24 - ^ $r15: .cfa 32 - ^ $rbx: .cfa 0 - ^ $rbp: .cfa 0 - ^ $rsi: .cfa 0 - ^ $rdi: .cfa 0 - ^ .ra: .cfa 8 - ^
STACK CFI INIT 2485e 1d .cfa: $rsp 80 + $rsi: .cfa 16 - ^ $rdi: .cfa 24 - ^ $r12: .cfa 32 - ^ $r14: .cfa 40 - ^ $r15: .cfa 48 - ^ $rbx: .cfa 0 - ^ $rbp: .cfa 0 - ^ .ra: .cfa 8 - ^
STACK CFI INIT 2487c 91 .cfa: $rsp 96 + $rdi: .cfa 16 - ^ $r12: .cfa 24 - ^ $r13: .cfa 32 - ^ $r14: .cfa 40 - ^ $r15: .cfa 48 - ^ $rbx: .cfa 0 - ^ $rbp: .cfa 0 - ^ $rsi: .cfa 0 - ^ .ra: .cfa 8 - ^
STACK CFI INIT 2490e 2c .cfa: $rsp 64 + $rsi: .cfa 16 - ^ $rdi: .cfa 24 - ^ $r14: .cfa 32 - ^ $rbx: .cfa 0 - ^ $rbp: .cfa 0 - ^ .ra: .cfa 8 - ^
STACK CFI INIT 2493a 74 .cfa: $rsp 80 + $rdi: .cfa 16 - ^ $rbx: .cfa 0 - ^ $rbp: .cfa 0 - ^ $rsi: .cfa 0 - ^ .ra: .cfa 8 - ^
STACK CFI INIT 249ae 45 .cfa: $rsp 64 + $rdi: .cfa 16 - ^ $r14: .cfa 24 - ^ $r15: .cfa 32 - ^ $rbx: .cfa 0 - ^ $rbp: .cfa 0 - ^ $rsi: .cfa 0 - ^ .ra: .cfa 8 - ^
STACK CFI INIT 249f4 69 .cfa: $rsp 128 + $rdi: .cfa 16 - ^ $r14: .cfa 24 - ^ $r15: .cfa 32 - ^ $rbx: .cfa 0 - ^ $rbp: .cfa 0 - ^ $rsi: .cfa 0 - ^ .ra: .cfa 8 - ^
STACK CFI INIT 24a5e 123 .cfa: $rsp 496 + $rbp: .cfa 16 - ^ $rsi: .cfa 24 - ^ $rdi: .cfa 32 - ^ $rbx: .cfa 0 - ^ .ra: .cfa 8 - ^
STACK CFI INIT 24b82 26 .cfa: $rsp 48 + $rbx: .cfa 16 - ^ .ra: .cfa 8 - ^
STACK CFI INIT 24ba8 44 .cfa: $rsp 96 + $rdi: .cfa 16 - ^ $r14: .cfa 24 - ^ $r15: .cfa 32 - ^ $rbx: .cfa 0 - ^ $rsi: .cfa 0 - ^ .ra: .cfa 8 - ^
STACK CFI INIT 24bec 88 .cfa: $rsp 112 + $rbx: .cfa 0 - ^ $rbp: .cfa 16 - ^ $rsi: .cfa 24 - ^ $rdi: .cfa 32 - ^ $r14: .cfa 40 - ^ .ra: .cfa 8 - ^
STACK CFI INIT 24c74 64 .cfa: $rsp 64 + $rdi: .cfa 16 - ^ $rbx: .cfa 0 - ^ $rsi: .cfa 0 - ^ .ra: .cfa 8 - ^
STACK CFI INIT 24cd8 2d5 .cfa: $rsp 208 + $rbp: .cfa 16 - ^ $rbx: .cfa 24 - ^ $rsi: .cfa 32 - ^ $rdi: .cfa 40 - ^ $r12: .cfa 48 - ^ $r13: .cfa 56 - ^ $r14: .cfa 64 - ^ $r15: .cfa 72 - ^ .ra: .cfa 8 - ^
STACK CFI INIT 24fae 68 .cfa: $rsp 48 + $rdi: .cfa 16 - ^ $rbx: .cfa 0 - ^ $rbp: .cfa 0 - ^ $rsi: .cfa 0 - ^ .ra: .cfa 8 - ^
STACK CFI INIT 25016 10 .cfa: $rsp 112 + $rbx: .cfa 16 - ^ $rbp: .cfa 24 - ^ $rsi: .cfa 32 - ^ $rdi: .cfa 40 - ^ $r12: .cfa 48 - ^ $r14: .cfa 56 - ^ .ra: .cfa 8 - ^
STACK CFI INIT 25026 f8 .cfa: $rsp 112 + $r15: .cfa 0 - ^ $rbx: .cfa 16 - ^ $rbp: .cfa 24 - ^ $rsi: .cfa 32 - ^ $rdi: .cfa 40 - ^ $r12: .cfa 48 - ^ $r14: .cfa 56 - ^ .ra: .cfa 8 - ^
STACK CFI INIT 2511e 10 .cfa: $rsp 80 + $rbx: .cfa 16 - ^ .ra: .cfa 8 - ^
STACK CFI INIT 2512e 9f .cfa: $rsp 112 + $rsi: .cfa 0 - ^ $rdi: .cfa 0 - ^ $r12: .cfa 0 - ^ $r13: .cfa 0 - ^ $r14: .cfa 0 - ^ $r15: .cfa 0 - ^ $rbx: .cfa 16 - ^ $rbp: .cfa 24 - ^ .ra: .cfa 8 - ^
STACK CFI INIT 251cd a .cfa: $rsp 112 + $rdi: .cfa 0 - ^ $rbx: .cfa 16 - ^ $rbp: .cfa 24 - ^ .ra: .cfa 8 - ^
STACK CFI INIT 251d8 25 .cfa: $rsp 96 + $r14: .cfa 0 - ^ $rbx: .cfa 16 - ^ $rbp: .cfa 24 - ^ $rsi: .cfa 32 - ^ $rdi: .cfa 40 - ^ .ra: .cfa 8 - ^
STACK CFI INIT 251fe f0 .cfa: $rsp 48 + $r14: .cfa 16 - ^ $rbx: .cfa 0 - ^ $rbp: .cfa 0 - ^ $rsi: .cfa 0 - ^ $rdi: .cfa 0 - ^ .ra: .cfa 8 - ^
STACK CFI INIT 252ee 11c .cfa: $rsp 80 + $rbp: .cfa 0 - ^ $rsi: .cfa 0 - ^ $r14: .cfa 0 - ^ $rbx: .cfa 16 - ^ $rdi: .cfa 24 - ^ .ra: .cfa 8 - ^
STACK CFI INIT 2540a 2a .cfa: $rsp 80 + $rbx: .cfa 16 - ^ $rdi: .cfa 24 - ^ .ra: .cfa 8 - ^
STACK CFI INIT 25434 45 .cfa: $rsp 48 + $rbx: .cfa 16 - ^ .ra: .cfa 8 - ^
STACK CFI INIT 2547a 68 .cfa: $rsp 48 + $rdi: .cfa 16 - ^ $rbx: .cfa 0 - ^ .ra: .cfa 8 - ^
STACK CFI INIT 254e2 57 .cfa: $rsp 8 + $rbx: .cfa 0 - ^ $rbp: .cfa 0 - ^ $rsi: .cfa 0 - ^ $rdi: .cfa 0 - ^ .ra: .cfa 8 - ^
STACK CFI INIT 2553a 1a .cfa: $rsp 48 + $r14: .cfa 16 - ^ $rbx: .cfa 0 - ^ $rsi: .cfa 0 - ^ $rdi: .cfa 0 - ^ .ra: .cfa 8 - ^
STACK CFI INIT 25562 7a .cfa: $rsp 992 + $rbp: .cfa 16 - ^ $rsi: .cfa 24 - ^ $rdi: .cfa 32 - ^ $r12: .cfa 40 - ^ $r13: .cfa 48 - ^ $r14: .cfa 56 - ^ $r15: .cfa 64 - ^ $rbx: .cfa 0 - ^ .ra: .cfa 8 - ^
STACK CFI INIT 255dc 39 .cfa: $rsp 80 + $rdi: .cfa 16 - ^ $rbx: .cfa 0 - ^ $rsi: .cfa 0 - ^ .ra: .cfa 8 - ^
STACK CFI INIT 25616 e8 .cfa: $rsp 656 + $rbp: .cfa 16 - ^ $rdi: .cfa 24 - ^ $r12: .cfa 32 - ^ $r14: .cfa 40 - ^ $r15: .cfa 48 - ^ $rbx: .cfa 0 - ^ $rsi: .cfa 0 - ^ .ra: .cfa 8 - ^
STACK CFI INIT 256fe 1a .cfa: $rsp 48 + $rdi: .cfa 16 - ^ $rbx: .cfa 0 - ^ .ra: .cfa 8 - ^
STACK CFI INIT 25718 1b .cfa: $rsp 80 + $rdi: .cfa 16 - ^ $r14: .cfa 24 - ^ $r15: .cfa 32 - ^ $rbx: .cfa 0 - ^ $rsi: .cfa 0 - ^ .ra: .cfa 8 - ^
STACK CFI INIT 25734 23 .cfa: $rsp 112 + $r12: .cfa 16 - ^ $r14: .cfa 24 - ^ $r15: .cfa 32 - ^ $rbx: .cfa 0 - ^ $rbp: .cfa 0 - ^ $rsi: .cfa 0 - ^ $rdi: .cfa 0 - ^ .ra: .cfa 8 - ^
STACK CFI INIT 25758 1b .cfa: $rsp 48 + $rbx: .cfa 16 - ^ .ra: .cfa 8 - ^
STACK CFI INIT 25774 b .cfa: $rsp 64 + $rbx: .cfa 0 - ^ $rbp: .cfa 0 - ^ $rsi: .cfa 0 - ^ $r14: .cfa 0 - ^ $r15: .cfa 0 - ^ $rdi: .cfa 16 - ^ .ra: .cfa 8 - ^
STACK CFI INIT 25780 17 .cfa: $rsp 48 + .ra: .cfa 8 - ^
STACK CFI INIT 25798 f5 .cfa: $rsp 96 + $rbp: .cfa 16 - ^ $rdi: .cfa 24 - ^ $r12: .cfa 32 - ^ $r14: .cfa 40 - ^ $r15: .cfa 48 - ^ $rbx: .cfa 0 - ^ $rsi: .cfa 0 - ^ .ra: .cfa 8 - ^
STACK CFI INIT 2588e 2f .cfa: $rsp 224 + $rbp: .cfa 16 - ^ $rbx: .cfa 24 - ^ $rsi: .cfa 32 - ^ $rdi: .cfa 40 - ^ $r12: .cfa 48 - ^ $r14: .cfa 56 - ^ $r15: .cfa 64 - ^ .ra: .cfa 8 - ^
STACK CFI INIT 258be 67 .cfa: $rsp 240 + $rbp: .cfa 16 - ^ $rsi: .cfa 24 - ^ $rdi: .cfa 32 - ^ $r12: .cfa 40 - ^ $r13: .cfa 48 - ^ $r14: .cfa 56 - ^ $r15: .cfa 64 - ^ $rbx: .cfa 0 - ^ .ra: .cfa 8 - ^
STACK CFI INIT 25926 239 .cfa: $rsp 800 + $rbp: .cfa 16 - ^ $rbx: .cfa 24 - ^ $rsi: .cfa 32 - ^ $rdi: .cfa 40 - ^ $r12: .cfa 48 - ^ $r13: .cfa 56 - ^ $r14: .cfa 64 - ^ $r15: .cfa 72 - ^ .ra: .cfa 8 - ^
STACK CFI INIT 25b60 144 .cfa: $rsp 112 + $rdi: .cfa 16 - ^ $r12: .cfa 24 - ^ $r13: .cfa 32 - ^ $r14: .cfa 40 - ^ $r15: .cfa 48 - ^ $rbx: .cfa 0 - ^ $rbp: .cfa 0 - ^ $rsi: .cfa 0 - ^ .ra: .cfa 8 - ^
STACK CFI INIT 25ca4 14d .cfa: $rsp 112 + $rdi: .cfa 16 - ^ $r12: .cfa 24 - ^ $r13: .cfa 32 - ^ $r14: .cfa 40 - ^ $r15: .cfa 48 - ^ $rbx: .cfa 0 - ^ $rbp: .cfa 0 - ^ $rsi: .cfa 0 - ^ .ra: .cfa 8 - ^
STACK CFI INIT 25dfa 11 .cfa: $rsp 80 + $rdi: .cfa 16 - ^ $r14: .cfa 24 - ^ $r15: .cfa 32 - ^ $rbx: .cfa 0 - ^ $rbp: .cfa 0 - ^ $rsi: .cfa 0 - ^ .ra: .cfa 8 - ^
STACK CFI INIT 25e0c 75 .cfa: $rsp 64 + $rsi: .cfa 16 - ^ $rdi: .cfa 24 - ^ $r14: .cfa 32 - ^ $rbx: .cfa 0 - ^ $rbp: .cfa 0 - ^ .ra: .cfa 8 - ^
STACK CFI INIT 25e82 8b .cfa: $rsp 64 + $rbp: .cfa 16 - ^ $rdi: .cfa 24 - ^ $r14: .cfa 32 - ^ $rbx: .cfa 0 - ^ $rsi: .cfa 0 - ^ .ra: .cfa 8 - ^
STACK CFI INIT 25f0e 1c .cfa: $rsp 48 + $rdi: .cfa 16 - ^ $rbx: .cfa 0 - ^ .ra: .cfa 8 - ^
STACK CFI INIT 25f2a a .cfa: $rsp 96 + $rbp: .cfa 16 - ^ $rsi: .cfa 24 - ^ $rdi: .cfa 32 - ^ $rbx: .cfa 0 - ^ .ra: .cfa 8 - ^
STACK CFI INIT 25f34 4a .cfa: $rsp 64 + $rdi: .cfa 16 - ^ $r14: .cfa 24 - ^ $r15: .cfa 32 - ^ $rbx: .cfa 0 - ^ $rbp: .cfa 0 - ^ $rsi: .cfa 0 - ^ .ra: .cfa 8 - ^
STACK CFI INIT 25f7e 4a .cfa: $rsp 48 + $rbx: .cfa 16 - ^ .ra: .cfa 8 - ^
STACK CFI INIT 25fc8 30d .cfa: $rsp 1008 + $rbp: .cfa 16 - ^ $rsi: .cfa 24 - ^ $rdi: .cfa 32 - ^ $r12: .cfa 40 - ^ $r13: .cfa 48 - ^ $r14: .cfa 56 - ^ $r15: .cfa 64 - ^ $rbx: .cfa 0 - ^ .ra: .cfa 8 - ^
STACK CFI INIT 262d6 6e .cfa: $rsp 64 + $rdi: .cfa 16 - ^ $rbx: .cfa 0 - ^ $rbp: .cfa 0 - ^ $rsi: .cfa 0 - ^ .ra: .cfa 8 - ^
STACK CFI INIT 26344 1d6 .cfa: $rsp 48 + $r14: .cfa 16 - ^ $rbx: .cfa 0 - ^ $rsi: .cfa 0 - ^ $rdi: .cfa 0 - ^ .ra: .cfa 8 - ^
STACK CFI INIT 2651a 24 .cfa: $rsp 80 + $rdi: .cfa 16 - ^ $rbx: .cfa 0 - ^ $rbp: .cfa 0 - ^ $rsi: .cfa 0 - ^ .ra: .cfa 8 - ^
STACK CFI INIT 2653e 1a8 .cfa: $rsp 1200 + $rbp: .cfa 16 - ^ $rsi: .cfa 24 - ^ $rdi: .cfa 32 - ^ $r12: .cfa 40 - ^ $r13: .cfa 48 - ^ $r14: .cfa 56 - ^ $r15: .cfa 64 - ^ $rbx: .cfa 0 - ^ .ra: .cfa 8 - ^
STACK CFI INIT 266e6 103 .cfa: $rsp 48 + .ra: .cfa 8 - ^
STACK CFI INIT 267ea 46 .cfa: $rsp 256 + $rbx: .cfa 16 - ^ $rbp: .cfa 24 - ^ $rsi: .cfa 32 - ^ $rdi: .cfa 40 - ^ $r12: .cfa 48 - ^ $r13: .cfa 56 - ^ $r14: .cfa 64 - ^ $r15: .cfa 72 - ^ .ra: .cfa 8 - ^
STACK CFI INIT 26830 19 .cfa: $rsp 64 + $rbx: .cfa 16 - ^ .ra: .cfa 8 - ^
STACK CFI INIT 26858 c7 .cfa: $rsp 64 + $rsi: .cfa 16 - ^ $rdi: .cfa 24 - ^ $r14: .cfa 32 - ^ $rbx: .cfa 0 - ^ $rbp: .cfa 0 - ^ .ra: .cfa 8 - ^
STACK CFI INIT 26920 13 .cfa: $rsp 48 + $rdi: .cfa 16 - ^ $rbx: .cfa 0 - ^ $rsi: .cfa 0 - ^ .ra: .cfa 8 - ^
STACK CFI INIT 26934 5e .cfa: $rsp 5440 + $rbx: .cfa 16 - ^ $rdi: .cfa 24 - ^ .ra: .cfa 8 - ^
STACK CFI INIT 26992 150 .cfa: $rsp 112 + $rdi: .cfa 16 - ^ $r12: .cfa 24 - ^ $r13: .cfa 32 - ^ $r14: .cfa 40 - ^ $r15: .cfa 48 - ^ $rbx: .cfa 0 - ^ $rbp: .cfa 0 - ^ $rsi: .cfa 0 - ^ .ra: .cfa 8 - ^
STACK CFI INIT 26ae2 192 .cfa: $rsp 96 + $r12: .cfa 0 - ^ $r15: .cfa 0 - ^ $rbx: .cfa 16 - ^ $rbp: .cfa 24 - ^ $rsi: .cfa 32 - ^ $rdi: .cfa 40 - ^ $r13: .cfa 48 - ^ $r14: .cfa 56 - ^ .ra: .cfa 8 - ^
STACK CFI INIT 26c74 14 .cfa: $rsp 48 + $rbx: .cfa 16 - ^ .ra: .cfa 8 - ^
STACK CFI INIT 26c88 6a .cfa: $rsp 64 + $rsi: .cfa 0 - ^ $r14: .cfa 0 - ^ $rdi: .cfa 16 - ^ $rbx: .cfa 0 - ^ .ra: .cfa 8 - ^
STACK CFI INIT 26d02 3e .cfa: $rsp 64 + .ra: .cfa 8 - ^
STACK CFI INIT 26d40 43 .cfa: $rsp 64 + $rbx: .cfa 0 - ^ .ra: .cfa 8 - ^
STACK CFI INIT 26d83 1c .cfa: $rsp 64 + .ra: .cfa 8 - ^
STACK CFI INIT 26da0 a .cfa: $rsp 192 + $rbp: .cfa 16 - ^ $rsi: .cfa 24 - ^ $r12: .cfa 32 - ^ $r14: .cfa 40 - ^ .ra: .cfa 8 - ^
STACK CFI INIT 26daa 4d .cfa: $rsp 192 + $rbx: .cfa 0 - ^ $rdi: .cfa 0 - ^ $r13: .cfa 0 - ^ $rbp: .cfa 16 - ^ $rsi: .cfa 24 - ^ $r12: .cfa 32 - ^ $r14: .cfa 40 - ^ .ra: .cfa 8 - ^
STACK CFI INIT 26df7 40 .cfa: $rsp 192 + $rbx: .cfa 0 - ^ $rdi: .cfa 0 - ^ $r13: .cfa 0 - ^ $r15: .cfa 0 - ^ $rbp: .cfa 16 - ^ $rsi: .cfa 24 - ^ $r12: .cfa 32 - ^ $r14: .cfa 40 - ^ .ra: .cfa 8 - ^
STACK CFI INIT 26e37 d .cfa: $rsp 192 + $rbx: .cfa 0 - ^ $rdi: .cfa 0 - ^ $r13: .cfa 0 - ^ $rbp: .cfa 16 - ^ $rsi: .cfa 24 - ^ $r12: .cfa 32 - ^ $r14: .cfa 40 - ^ .ra: .cfa 8 - ^
STACK CFI INIT 26e44 1a .cfa: $rsp 192 + $rbx: .cfa 0 - ^ $rdi: .cfa 0 - ^ $rbp: .cfa 16 - ^ $rsi: .cfa 24 - ^ $r12: .cfa 32 - ^ $r14: .cfa 40 - ^ .ra: .cfa 8 - ^
STACK CFI INIT 26e5e 14 .cfa: $rsp 192 + $rbx: .cfa 0 - ^ $rbp: .cfa 16 - ^ $rsi: .cfa 24 - ^ $r12: .cfa 32 - ^ $r14: .cfa 40 - ^ .ra: .cfa 8 - ^
STACK CFI INIT 26e72 22 .cfa: $rbp 80 + $rbp: .cfa 16 - ^ $r12: .cfa 24 - ^ $r13: .cfa 32 - ^ $r14: .cfa 40 - ^ $r15: .cfa 48 - ^ $rbx: $rbp 80 + ^ $rsi: $rbp 88 + ^ $rdi: $rbp 96 + ^ .ra: .cfa 8 - ^
STACK CFI INIT 26e94 1f .cfa: $rsp 64 + $rdi: .cfa 16 - ^ $rbx: .cfa 0 - ^ .ra: .cfa 8 - ^
STACK CFI INIT 26eb4 20a .cfa: $rsp 576 + $rbp: .cfa 16 - ^ $rsi: .cfa 24 - ^ $rdi: .cfa 32 - ^ $r12: .cfa 40 - ^ $r13: .cfa 48 - ^ $r14: .cfa 56 - ^ $r15: .cfa 64 - ^ $rbx: .cfa 0 - ^ .ra: .cfa 8 - ^
STACK CFI INIT 270be a .cfa: $rsp 400 + $rbp: .cfa 16 - ^ $rsi: .cfa 24 - ^ $rdi: .cfa 32 - ^ $r12: .cfa 40 - ^ $r13: .cfa 48 - ^ $r14: .cfa 56 - ^ .ra: .cfa 8 - ^
STACK CFI INIT 270c8 45 .cfa: $rsp 400 + $rbx: .cfa 0 - ^ $r15: .cfa 0 - ^ $rbp: .cfa 16 - ^ $rsi: .cfa 24 - ^ $rdi: .cfa 32 - ^ $r12: .cfa 40 - ^ $r13: .cfa 48 - ^ $r14: .cfa 56 - ^ .ra: .cfa 8 - ^
STACK CFI INIT 27138 43 .cfa: $rsp 64 + .ra: .cfa 8 - ^
STACK CFI INIT 2717b 21 .cfa: $rsp 64 + $rbx: .cfa 0 - ^ .ra: .cfa 8 - ^
STACK CFI INIT 2719c 1c .cfa: $rsp 64 + .ra: .cfa 8 - ^
STACK CFI INIT 271b8 3e .cfa: $rsp 64 + .ra: .cfa 8 - ^
STACK CFI INIT 271f6 43 .cfa: $rsp 64 + $rbx: .cfa 0 - ^ .ra: .cfa 8 - ^
STACK CFI INIT 27239 1c .cfa: $rsp 64 + .ra: .cfa 8 - ^
STACK CFI INIT 27256 16 .cfa: $rsp 48 + $rdi: .cfa 16 - ^ $rbx: .cfa 0 - ^ .ra: .cfa 8 - ^
STACK CFI INIT 2726c 43 .cfa: $rsp 64 + .ra: .cfa 8 - ^
STACK CFI INIT 272af 21 .cfa: $rsp 64 + $rbx: .cfa 0 - ^ .ra: .cfa 8 - ^
STACK CFI INIT 272d0 1c .cfa: $rsp 64 + .ra: .cfa 8 - ^
STACK CFI INIT 272ec 45 .cfa: $rsp 48 + $rdi: .cfa 16 - ^ $rbx: .cfa 0 - ^ .ra: .cfa 8 - ^
STACK CFI INIT 27332 20e .cfa: $rsp 128 + $rbp: .cfa 16 - ^ $rbx: .cfa 0 - ^ $rsi: .cfa 0 - ^ .ra: .cfa 8 - ^
STACK CFI INIT 27540 2b .cfa: $rsp 48 + $rdi: .cfa 16 - ^ $rbx: .cfa 0 - ^ .ra: .cfa 8 - ^
STACK CFI INIT 2756c 20 .cfa: $rsp 48 + .ra: .cfa 8 - ^
STACK CFI INIT 2758c e .cfa: $rsp 48 + $rdi: .cfa 16 - ^ $rbx: .cfa 0 - ^ .ra: .cfa 8 - ^
STACK CFI INIT 2759a 3c0 .cfa: $rsp 192 + $rbp: .cfa 16 - ^ $rbx: .cfa 24 - ^ $rsi: .cfa 32 - ^ $rdi: .cfa 40 - ^ $r12: .cfa 48 - ^ $r13: .cfa 56 - ^ $r14: .cfa 64 - ^ $r15: .cfa 72 - ^ .ra: .cfa 8 - ^
STACK CFI INIT 2795a 2f .cfa: $rsp 112 + $rbx: .cfa 16 - ^ $rsi: .cfa 24 - ^ $rdi: .cfa 32 - ^ .ra: .cfa 8 - ^
STACK CFI INIT 2798a 20 .cfa: $rsp 8 + $rbx: .cfa 0 - ^ $rdi: .cfa 0 - ^ .ra: .cfa 8 - ^
STACK CFI INIT 279aa 15 .cfa: $rsp 144 + $r14: .cfa 16 - ^ $rbx: .cfa 0 - ^ $rbp: .cfa 0 - ^ $rsi: .cfa 0 - ^ $rdi: .cfa 0 - ^ .ra: .cfa 8 - ^
STACK CFI INIT 279c0 13 .cfa: $rsp 48 + $rbx: .cfa 16 - ^ .ra: .cfa 8 - ^
STACK CFI INIT 279d4 b9 .cfa: $rsp 64 + $rdi: .cfa 16 - ^ $rbx: .cfa 0 - ^ .ra: .cfa 8 - ^
STACK CFI INIT 27a8e ab .cfa: $rsp 96 + $rsi: .cfa 16 - ^ $rdi: .cfa 24 - ^ $r12: .cfa 32 - ^ $r14: .cfa 40 - ^ $r15: .cfa 48 - ^ $rbx: .cfa 0 - ^ $rbp: .cfa 0 - ^ .ra: .cfa 8 - ^
STACK CFI INIT 27b64 67 .cfa: $rsp 48 + $rdi: .cfa 16 - ^ $rbx: .cfa 0 - ^ $rbp: .cfa 0 - ^ $rsi: .cfa 0 - ^ .ra: .cfa 8 - ^
STACK CFI INIT 27bcc 5ee .cfa: $rsp 192 + $rbp: .cfa 16 - ^ $rbx: .cfa 24 - ^ $rsi: .cfa 32 - ^ $rdi: .cfa 40 - ^ $r12: .cfa 48 - ^ $r14: .cfa 56 - ^ $r15: .cfa 64 - ^ .ra: .cfa 8 - ^
STACK CFI INIT 281ba 1b .cfa: $rsp 48 + $rdi: .cfa 16 - ^ $rbx: .cfa 0 - ^ .ra: .cfa 8 - ^
STACK CFI INIT 281d6 33 .cfa: $rsp 48 + $rbx: .cfa 16 - ^ .ra: .cfa 8 - ^
STACK CFI INIT 2820a 33 .cfa: $rsp 48 + $rbx: .cfa 16 - ^ .ra: .cfa 8 - ^
STACK CFI INIT 2823e e .cfa: $rsp 384 + $rbx: .cfa 16 - ^ $rbp: .cfa 24 - ^ $rsi: .cfa 32 - ^ $rdi: .cfa 40 - ^ .ra: .cfa 8 - ^
STACK CFI INIT 2825e 12 .cfa: $rsp 96 + $rbx: .cfa 16 - ^ .ra: .cfa 8 - ^
STACK CFI INIT 28270 19 .cfa: $rsp 48 + $rbx: .cfa 16 - ^ .ra: .cfa 8 - ^
STACK CFI INIT 2828a 22 .cfa: $rsp 64 + $r14: .cfa 16 - ^ $rbx: .cfa 0 - ^ $rbp: .cfa 0 - ^ $rsi: .cfa 0 - ^ $rdi: .cfa 0 - ^ .ra: .cfa 8 - ^
STACK CFI INIT 282ac 18 .cfa: $rsp 128 + $rdi: .cfa 16 - ^ $rbx: .cfa 0 - ^ .ra: .cfa 8 - ^
STACK CFI INIT 282e6 29b .cfa: $rsp 144 + $rbp: .cfa 16 - ^ $rsi: .cfa 24 - ^ $rdi: .cfa 32 - ^ $r12: .cfa 40 - ^ $r13: .cfa 48 - ^ $r14: .cfa 56 - ^ $r15: .cfa 64 - ^ $rbx: .cfa 0 - ^ .ra: .cfa 8 - ^
STACK CFI INIT 28582 26 .cfa: $rsp 48 + $rbx: .cfa 16 - ^ .ra: .cfa 8 - ^
STACK CFI INIT 285a8 ca .cfa: $rsp 192 + $rbp: .cfa 16 - ^ $rsi: .cfa 24 - ^ $rdi: .cfa 32 - ^ $r12: .cfa 40 - ^ $r13: .cfa 48 - ^ $r14: .cfa 56 - ^ $r15: .cfa 64 - ^ $rbx: .cfa 0 - ^ .ra: .cfa 8 - ^
STACK CFI INIT 28672 5b .cfa: $rsp 40 + $r12: .cfa 16 - ^ $r13: .cfa 24 - ^ $r14: .cfa 32 - ^ $r15: .cfa 40 - ^ $rbx: .cfa 0 - ^ $rbp: .cfa 0 - ^ $rsi: .cfa 0 - ^ $rdi: .cfa 0 - ^ .ra: .cfa 8 - ^
STACK CFI INIT 286ce 14f .cfa: $rsp 80 + $rdi: .cfa 16 - ^ $r12: .cfa 24 - ^ $r13: .cfa 32 - ^ $r14: .cfa 40 - ^ $r15: .cfa 48 - ^ $rbx: .cfa 0 - ^ $rbp: .cfa 0 - ^ $rsi: .cfa 0 - ^ .ra: .cfa 8 - ^
STACK CFI INIT 2881e 7c .cfa: $rsp 48 + $rdi: .cfa 16 - ^ $rbx: .cfa 0 - ^ $rbp: .cfa 0 - ^ $rsi: .cfa 0 - ^ .ra: .cfa 8 - ^
STACK CFI INIT 2889a 6e .cfa: $rsp 48 + $r14: .cfa 16 - ^ $rbx: .cfa 0 - ^ $rbp: .cfa 0 - ^ $rsi: .cfa 0 - ^ $rdi: .cfa 0 - ^ .ra: .cfa 8 - ^
STACK CFI INIT 28908 27 .cfa: $rsp 48 + $r14: .cfa 16 - ^ $rbx: .cfa 0 - ^ $rbp: .cfa 0 - ^ $rsi: .cfa 0 - ^ $rdi: .cfa 0 - ^ .ra: .cfa 8 - ^
STACK CFI INIT 28930 12b .cfa: $rsp 784 + $rbp: .cfa 16 - ^ $rbx: .cfa 24 - ^ $rsi: .cfa 32 - ^ $rdi: .cfa 40 - ^ $r12: .cfa 48 - ^ $r13: .cfa 56 - ^ $r14: .cfa 64 - ^ $r15: .cfa 72 - ^ .ra: .cfa 8 - ^
STACK CFI INIT 28a5c 4f .cfa: $rsp 176 + $rbp: .cfa 16 - ^ $rbx: .cfa 24 - ^ $rsi: .cfa 32 - ^ $rdi: .cfa 40 - ^ $r12: .cfa 48 - ^ $r13: .cfa 56 - ^ $r14: .cfa 64 - ^ $r15: .cfa 72 - ^ .ra: .cfa 8 - ^
STACK CFI INIT 28aac 21 .cfa: $rsp 48 + $r14: .cfa 16 - ^ $rbx: .cfa 0 - ^ $rbp: .cfa 0 - ^ $rsi: .cfa 0 - ^ .ra: .cfa 8 - ^
STACK CFI INIT 28ace 476 .cfa: $rsp 96 + $rbp: .cfa 16 - ^ $rsi: .cfa 24 - ^ $rdi: .cfa 32 - ^ $r12: .cfa 40 - ^ $r13: .cfa 48 - ^ $r14: .cfa 56 - ^ $r15: .cfa 64 - ^ $rbx: .cfa 0 - ^ .ra: .cfa 8 - ^
STACK CFI INIT 28f44 1a .cfa: $rsp 48 + .ra: .cfa 8 - ^
STACK CFI INIT 28f5e d .cfa: $rsp 48 + .ra: .cfa 8 - ^
STACK CFI INIT 28f6c 61 .cfa: $rsp 80 + $rbp: .cfa 16 - ^ $rsi: .cfa 24 - ^ $rdi: .cfa 32 - ^ $r14: .cfa 40 - ^ $r15: .cfa 48 - ^ $rbx: .cfa 0 - ^ .ra: .cfa 8 - ^
STACK CFI INIT 28fce b1 .cfa: $rsp 192 + $rbp: .cfa 16 - ^ $rbx: .cfa 24 - ^ $rsi: .cfa 32 - ^ $rdi: .cfa 40 - ^ $r13: .cfa 48 - ^ $r14: .cfa 56 - ^ $r15: .cfa 64 - ^ .ra: .cfa 8 - ^
STACK CFI INIT 29080 85 .cfa: $rsp 144 + $rbp: .cfa 16 - ^ $rbx: .cfa 0 - ^ .ra: .cfa 8 - ^
STACK CFI INIT 29106 64 .cfa: $rsp 48 + $rdi: .cfa 16 - ^ $rbx: .cfa 0 - ^ $rbp: .cfa 0 - ^ $rsi: .cfa 0 - ^ .ra: .cfa 8 - ^
STACK CFI INIT 2916a e8 .cfa: $rsp 96 + $rdi: .cfa 16 - ^ $r12: .cfa 24 - ^ $r13: .cfa 32 - ^ $r14: .cfa 40 - ^ $r15: .cfa 48 - ^ $rbx: .cfa 0 - ^ $rbp: .cfa 0 - ^ $rsi: .cfa 0 - ^ .ra: .cfa 8 - ^
STACK CFI INIT 29252 8b .cfa: $rsp 16 + $r14: .cfa 16 - ^ $rbx: .cfa 0 - ^ $rbp: .cfa 0 - ^ $rsi: .cfa 0 - ^ $rdi: .cfa 0 - ^ .ra: .cfa 8 - ^
STACK CFI INIT 292de 28 .cfa: $rsp 48 + $rdi: .cfa 16 - ^ $rbx: .cfa 0 - ^ .ra: .cfa 8 - ^
STACK CFI INIT 29568 1e8 .cfa: $rsp 48 + $rdi: .cfa 16 - ^ $rbx: .cfa 0 - ^ $rbp: .cfa 0 - ^ $rsi: .cfa 0 - ^ .ra: .cfa 8 - ^
STACK CFI INIT 29760 4b .cfa: $rsp 48 + $rdi: .cfa 16 - ^ $rbx: .cfa 0 - ^ .ra: .cfa 8 - ^
STACK CFI INIT 297b4 51 .cfa: $rsp 48 + $rdi: .cfa 16 - ^ $rbx: .cfa 0 - ^ $rsi: .cfa 0 - ^ .ra: .cfa 8 - ^
STACK CFI INIT 2980c f7 .cfa: $rsp 64 + $rdi: .cfa 16 - ^ $rbx: .cfa 0 - ^ $rbp: .cfa 0 - ^ $rsi: .cfa 0 - ^ .ra: .cfa 8 - ^
STACK CFI INIT 2990c 5b .cfa: $rsp 48 + $rdi: .cfa 16 - ^ $rbx: .cfa 0 - ^ $rsi: .cfa 0 - ^ .ra: .cfa 8 - ^
STACK CFI INIT 29970 27e .cfa: $rsp 144 + $rbp: .cfa 16 - ^ $rsi: .cfa 24 - ^ $rdi: .cfa 32 - ^ $r12: .cfa 40 - ^ $r13: .cfa 48 - ^ $r14: .cfa 56 - ^ $r15: .cfa 64 - ^ $rbx: .cfa 0 - ^ .ra: .cfa 8 - ^
STACK CFI INIT 29bf4 90 .cfa: $rsp 48 + $rdi: .cfa 16 - ^ $rbx: .cfa 0 - ^ $rsi: .cfa 0 - ^ .ra: .cfa 8 - ^
STACK CFI INIT 29c8c 72 .cfa: $rsp 64 + $rsi: .cfa 16 - ^ $rdi: .cfa 24 - ^ $r14: .cfa 32 - ^ $rbx: .cfa 0 - ^ $rbp: .cfa 0 - ^ .ra: .cfa 8 - ^
STACK CFI INIT 29d10 9a .cfa: $rsp 80 + $rsi: .cfa 16 - ^ $rdi: .cfa 24 - ^ $r14: .cfa 32 - ^ $rbx: .cfa 0 - ^ $rbp: .cfa 0 - ^ .ra: .cfa 8 - ^
STACK CFI INIT 29db0 37 .cfa: $rsp 48 + .ra: .cfa 8 - ^
STACK CFI INIT 29df0 391 .cfa: $rsp 176 + $rbp: .cfa 16 - ^ $r12: .cfa 24 - ^ $r13: .cfa 32 - ^ $r14: .cfa 40 - ^ $r15: .cfa 48 - ^ $rbx: .cfa 0 - ^ $rsi: .cfa 0 - ^ $rdi: .cfa 0 - ^ .ra: .cfa 8 - ^
STACK CFI INIT 2a190 18d .cfa: $rsp 112 + $rdi: .cfa 16 - ^ $r12: .cfa 24 - ^ $r13: .cfa 32 - ^ $r14: .cfa 40 - ^ $r15: .cfa 48 - ^ $rbx: .cfa 0 - ^ $rbp: .cfa 0 - ^ $rsi: .cfa 0 - ^ .ra: .cfa 8 - ^
STACK CFI INIT 2a324 55 .cfa: $rsp 48 + $rbx: .cfa 16 - ^ .ra: .cfa 8 - ^
STACK CFI INIT 2a380 b5 .cfa: $rsp 96 + $rdi: .cfa 16 - ^ $rbx: .cfa 0 - ^ $rsi: .cfa 0 - ^ .ra: .cfa 8 - ^
STACK CFI INIT 2a43c 1fa .cfa: $rsp 208 + $rbp: .cfa 16 - ^ $rbx: .cfa 24 - ^ $rsi: .cfa 32 - ^ $rdi: .cfa 40 - ^ $r13: .cfa 48 - ^ $r14: .cfa 56 - ^ $r15: .cfa 64 - ^ .ra: .cfa 8 - ^
STACK CFI INIT 2a640 33f .cfa: $rsp 704 + $rbp: .cfa 16 - ^ $rbx: .cfa 24 - ^ $rsi: .cfa 32 - ^ $rdi: .cfa 40 - ^ $r12: .cfa 48 - ^ $r13: .cfa 56 - ^ $r14: .cfa 64 - ^ $r15: .cfa 72 - ^ .ra: .cfa 8 - ^
STACK CFI INIT 2a988 c6 .cfa: $rsp 48 + $r14: .cfa 16 - ^ $rbx: .cfa 0 - ^ $rsi: .cfa 0 - ^ $rdi: .cfa 0 - ^ .ra: .cfa 8 - ^
STACK CFI INIT 2aa54 27 .cfa: $rsp 48 + $rbx: .cfa 16 - ^ .ra: .cfa 8 - ^
STACK CFI INIT 2aa90 9b .cfa: $rsp 48 + $rdi: .cfa 16 - ^ $rbx: .cfa 0 - ^ $rsi: .cfa 0 - ^ .ra: .cfa 8 - ^
STACK CFI INIT 2ab34 eb .cfa: $rsp 48 + $r14: .cfa 16 - ^ $rbx: .cfa 0 - ^ $rsi: .cfa 0 - ^ $rdi: .cfa 0 - ^ .ra: .cfa 8 - ^
STACK CFI INIT 2ac28 38 .cfa: $rsp 48 + $rbx: .cfa 16 - ^ .ra: .cfa 8 - ^
STACK CFI INIT 2ac68 1c5 .cfa: $rsp 160 + $rbp: .cfa 16 - ^ $rsi: .cfa 24 - ^ $rdi: .cfa 32 - ^ $r14: .cfa 40 - ^ $r15: .cfa 48 - ^ $rbx: .cfa 0 - ^ .ra: .cfa 8 - ^
STACK CFI INIT 2ae34 f4 .cfa: $rsp 48 + $rdi: .cfa 16 - ^ $rbx: .cfa 0 - ^ $rsi: .cfa 0 - ^ .ra: .cfa 8 - ^
STACK CFI INIT 2af30 7e .cfa: $rsp 48 + $rdi: .cfa 16 - ^ $rbx: .cfa 0 - ^ $rsi: .cfa 0 - ^ .ra: .cfa 8 - ^
STACK CFI INIT 2afc0 13f .cfa: $rsp 80 + $r12: .cfa 16 - ^ $r14: .cfa 24 - ^ $r15: .cfa 32 - ^ $rbx: .cfa 0 - ^ $rsi: .cfa 0 - ^ $rdi: .cfa 0 - ^ .ra: .cfa 8 - ^
STACK CFI INIT 2b110 5e .cfa: $rsp 16 + $rbx: .cfa 16 - ^ .ra: .cfa 8 - ^
STACK CFI INIT 2b1c0 111 .cfa: $rsp 48 + $rdi: .cfa 16 - ^ $rbx: .cfa 0 - ^ $rsi: .cfa 0 - ^ .ra: .cfa 8 - ^
STACK CFI INIT 2b360 10c .cfa: $rsp 80 + $rsi: .cfa 16 - ^ $rdi: .cfa 24 - ^ $r14: .cfa 32 - ^ $rbx: .cfa 0 - ^ $rbp: .cfa 0 - ^ .ra: .cfa 8 - ^
STACK CFI INIT 2b4e8 fa .cfa: $rsp 48 + $r14: .cfa 16 - ^ $rbx: .cfa 0 - ^ $rbp: .cfa 0 - ^ $rsi: .cfa 0 - ^ $rdi: .cfa 0 - ^ .ra: .cfa 8 - ^
STACK CFI INIT 2b5e8 4b .cfa: $rsp 48 + $rdi: .cfa 16 - ^ $rbx: .cfa 0 - ^ $rsi: .cfa 0 - ^ .ra: .cfa 8 - ^
STACK CFI INIT 2b63c 191 .cfa: $rsp 112 + $rdi: .cfa 16 - ^ $r12: .cfa 24 - ^ $r13: .cfa 32 - ^ $r14: .cfa 40 - ^ $r15: .cfa 48 - ^ $rbx: .cfa 0 - ^ $rbp: .cfa 0 - ^ $rsi: .cfa 0 - ^ .ra: .cfa 8 - ^
STACK CFI INIT 2b7d4 dd .cfa: $rsp 48 + $rdi: .cfa 16 - ^ $rbx: .cfa 0 - ^ $rsi: .cfa 0 - ^ .ra: .cfa 8 - ^
STACK CFI INIT 2b8e0 d0 .cfa: $rsp 48 + .ra: .cfa 8 - ^
STACK CFI INIT 2b9b8 49e .cfa: $rsp 288 + $rbp: .cfa 16 - ^ $rsi: .cfa 24 - ^ $rdi: .cfa 32 - ^ $r12: .cfa 40 - ^ $r13: .cfa 48 - ^ $r14: .cfa 56 - ^ $r15: .cfa 64 - ^ $rbx: .cfa 0 - ^ .ra: .cfa 8 - ^
STACK CFI INIT 2be5c 83 .cfa: $rsp 48 + $rdi: .cfa 16 - ^ $rbx: .cfa 0 - ^ $rbp: .cfa 0 - ^ $rsi: .cfa 0 - ^ .ra: .cfa 8 - ^
STACK CFI INIT 2bee8 105 .cfa: $rsp 64 + $rsi: .cfa 16 - ^ $rdi: .cfa 24 - ^ $r14: .cfa 32 - ^ $rbx: .cfa 0 - ^ $rbp: .cfa 0 - ^ .ra: .cfa 8 - ^
STACK CFI INIT 2bff4 14e .cfa: $rsp 96 + $rsi: .cfa 16 - ^ $rdi: .cfa 24 - ^ $r13: .cfa 32 - ^ $r14: .cfa 40 - ^ $r15: .cfa 48 - ^ $rbx: .cfa 0 - ^ $rbp: .cfa 0 - ^ .ra: .cfa 8 - ^
STACK CFI INIT 2c148 131 .cfa: $rsp 688 + $rbp: .cfa 16 - ^ $rdi: .cfa 24 - ^ $r14: .cfa 32 - ^ $rbx: .cfa 0 - ^ $rsi: .cfa 0 - ^ .ra: .cfa 8 - ^
STACK CFI INIT 2c280 a4 .cfa: $rsp 48 + $rdi: .cfa 16 - ^ $rbx: .cfa 0 - ^ $rsi: .cfa 0 - ^ .ra: .cfa 8 - ^
STACK CFI INIT 2c330 16 .cfa: $rsp 48 + .ra: .cfa 8 - ^
STACK CFI INIT 2c34c 48 .cfa: $rsp 48 + $rdi: .cfa 16 - ^ $rbx: .cfa 0 - ^ .ra: .cfa 8 - ^
STACK CFI INIT 2c3b0 1d8 .cfa: $rsp 96 + $rbp: .cfa 16 - ^ $rsi: .cfa 24 - ^ $rdi: .cfa 32 - ^ $r12: .cfa 40 - ^ $r13: .cfa 48 - ^ $r14: .cfa 56 - ^ $r15: .cfa 64 - ^ $rbx: .cfa 0 - ^ .ra: .cfa 8 - ^
STACK CFI INIT 2c590 15d .cfa: $rsp 48 + $rdi: .cfa 16 - ^ $rbx: .cfa 0 - ^ $rbp: .cfa 0 - ^ $rsi: .cfa 0 - ^ .ra: .cfa 8 - ^
STACK CFI INIT 2c6f4 68 .cfa: $rsp 48 + $rdi: .cfa 16 - ^ $rbx: .cfa 0 - ^ $rbp: .cfa 0 - ^ $rsi: .cfa 0 - ^ .ra: .cfa 8 - ^
STACK CFI INIT 2c7a0 dd .cfa: $rsp 48 + $rdi: .cfa 16 - ^ $rbx: .cfa 0 - ^ .ra: .cfa 8 - ^
STACK CFI INIT 2c890 80 .cfa: $rsp 48 + $rdi: .cfa 16 - ^ $rbx: .cfa 0 - ^ $rbp: .cfa 0 - ^ $rsi: .cfa 0 - ^ .ra: .cfa 8 - ^
STACK CFI INIT 2c948 20 .cfa: $rsp 48 + .ra: .cfa 8 - ^
STACK CFI INIT 2c990 95 .cfa: $rsp 96 + $rbp: .cfa 16 - ^ $rsi: .cfa 24 - ^ $rdi: .cfa 32 - ^ $rbx: .cfa 0 - ^ .ra: .cfa 8 - ^
STACK CFI INIT 2ca2c 79 .cfa: $rsp 64 + $rdi: .cfa 16 - ^ $rbx: .cfa 0 - ^ $rsi: .cfa 0 - ^ .ra: .cfa 8 - ^
STACK CFI INIT 2caac 12f .cfa: $rsp 80 + $rbp: .cfa 16 - ^ $rsi: .cfa 24 - ^ $rdi: .cfa 32 - ^ $rbx: .cfa 0 - ^ .ra: .cfa 8 - ^
STACK CFI INIT 2cbe4 82 .cfa: $rsp 48 + $rdi: .cfa 16 - ^ $rbx: .cfa 0 - ^ .ra: .cfa 8 - ^
STACK CFI INIT 2cc6c eb .cfa: $rsp 48 + $r14: .cfa 16 - ^ $rbx: .cfa 0 - ^ $rsi: .cfa 0 - ^ $rdi: .cfa 0 - ^ .ra: .cfa 8 - ^
STACK CFI INIT 2cd60 604 .cfa: $rsp 176 + $rbp: .cfa 16 - ^ $rsi: .cfa 24 - ^ $rdi: .cfa 32 - ^ $r12: .cfa 40 - ^ $r13: .cfa 48 - ^ $r14: .cfa 56 - ^ $r15: .cfa 64 - ^ $rbx: .cfa 0 - ^ .ra: .cfa 8 - ^
STACK CFI INIT 2d36c 14f .cfa: $rsp 112 + $rdi: .cfa 16 - ^ $r12: .cfa 24 - ^ $r13: .cfa 32 - ^ $r14: .cfa 40 - ^ $r15: .cfa 48 - ^ $rbx: .cfa 0 - ^ $rbp: .cfa 0 - ^ $rsi: .cfa 0 - ^ .ra: .cfa 8 - ^
STACK CFI INIT 2d4c4 af .cfa: $rsp 48 + $r14: .cfa 16 - ^ $rbx: .cfa 0 - ^ $rsi: .cfa 0 - ^ $rdi: .cfa 0 - ^ .ra: .cfa 8 - ^
STACK CFI INIT 2d580 a9 .cfa: $rsp 64 + $rsi: .cfa 16 - ^ $rdi: .cfa 24 - ^ $r14: .cfa 32 - ^ $rbx: .cfa 0 - ^ $rbp: .cfa 0 - ^ .ra: .cfa 8 - ^
STACK CFI INIT 2d630 424 .cfa: $rsp 864 + $rbp: .cfa 16 - ^ $rsi: .cfa 24 - ^ $rdi: .cfa 32 - ^ $r12: .cfa 40 - ^ $r13: .cfa 48 - ^ $r14: .cfa 56 - ^ $r15: .cfa 64 - ^ $rbx: .cfa 0 - ^ .ra: .cfa 8 - ^
STACK CFI INIT 2da5c 230 .cfa: $rsp 144 + $rbp: .cfa 16 - ^ $rsi: .cfa 24 - ^ $rdi: .cfa 32 - ^ $r12: .cfa 40 - ^ $r13: .cfa 48 - ^ $r14: .cfa 56 - ^ $r15: .cfa 64 - ^ $rbx: .cfa 0 - ^ .ra: .cfa 8 - ^
STACK CFI INIT 2dc94 116 .cfa: $rsp 96 + $rdi: .cfa 16 - ^ $r12: .cfa 24 - ^ $r13: .cfa 32 - ^ $r14: .cfa 40 - ^ $r15: .cfa 48 - ^ $rbx: .cfa 0 - ^ $rbp: .cfa 0 - ^ $rsi: .cfa 0 - ^ .ra: .cfa 8 - ^
STACK CFI INIT 2ddb0 81 .cfa: $rsp 80 + $rdi: .cfa 16 - ^ $rbx: .cfa 0 - ^ $rbp: .cfa 0 - ^ $rsi: .cfa 0 - ^ .ra: .cfa 8 - ^
STACK CFI INIT 2de40 a0 .cfa: $rsp 80 + $rdi: .cfa 16 - ^ $rbx: .cfa 0 - ^ $rbp: .cfa 0 - ^ $rsi: .cfa 0 - ^ .ra: .cfa 8 - ^
STACK CFI INIT 2dee8 584 .cfa: $rsp 928 + $rbp: .cfa 16 - ^ $rbx: .cfa 24 - ^ $rsi: .cfa 32 - ^ $rdi: .cfa 40 - ^ $r12: .cfa 48 - ^ $r13: .cfa 56 - ^ $r14: .cfa 64 - ^ $r15: .cfa 72 - ^ .ra: .cfa 8 - ^
STACK CFI INIT 2e490 17 .cfa: $rsp 48 + .ra: .cfa 8 - ^
STACK CFI INIT 2e4b0 4a .cfa: $rsp 48 + $rdi: .cfa 16 - ^ $rbx: .cfa 0 - ^ $rsi: .cfa 0 - ^ .ra: .cfa 8 - ^
STACK CFI INIT 2e500 2ac .cfa: $rsp 672 + $rbp: .cfa 16 - ^ $rsi: .cfa 24 - ^ $rdi: .cfa 32 - ^ $r12: .cfa 40 - ^ $r13: .cfa 48 - ^ $r14: .cfa 56 - ^ $r15: .cfa 64 - ^ $rbx: .cfa 0 - ^ .ra: .cfa 8 - ^
STACK CFI INIT 2e7d0 111 .cfa: $rsp 1168 + $rbp: .cfa 16 - ^ $rsi: .cfa 24 - ^ $rdi: .cfa 32 - ^ $rbx: .cfa 0 - ^ .ra: .cfa 8 - ^
STACK CFI INIT 2e8e8 84 .cfa: $rsp 464 + $rbx: .cfa 16 - ^ .ra: .cfa 8 - ^
STACK CFI INIT 2e974 71 .cfa: $rsp 96 + $rdi: .cfa 16 - ^ $rbx: .cfa 0 - ^ $rbp: .cfa 0 - ^ $rsi: .cfa 0 - ^ .ra: .cfa 8 - ^
STACK CFI INIT 2e9ec 6e .cfa: $rsp 64 + $rdi: .cfa 16 - ^ $rbx: .cfa 0 - ^ $rsi: .cfa 0 - ^ .ra: .cfa 8 - ^
STACK CFI INIT 2ea60 c3 .cfa: $rsp 656 + $rbx: .cfa 16 - ^ $rbp: .cfa 24 - ^ $rsi: .cfa 32 - ^ $rdi: .cfa 40 - ^ $r14: .cfa 48 - ^ .ra: .cfa 8 - ^
STACK CFI INIT 2eb2c 127 .cfa: $rsp 624 + $rsi: .cfa 16 - ^ $rdi: .cfa 24 - ^ $r14: .cfa 32 - ^ $rbx: .cfa 0 - ^ $rbp: .cfa 0 - ^ .ra: .cfa 8 - ^
STACK CFI INIT 2ec5c 23 .cfa: $rsp 48 + $rbx: .cfa 16 - ^ .ra: .cfa 8 - ^
STACK CFI INIT 2ec88 260 .cfa: $rsp 640 + $rbp: .cfa 16 - ^ $rsi: .cfa 24 - ^ $rdi: .cfa 32 - ^ $r14: .cfa 40 - ^ $r15: .cfa 48 - ^ $rbx: .cfa 0 - ^ .ra: .cfa 8 - ^
STACK CFI INIT 2eef0 10a .cfa: $rsp 144 + $rbx: .cfa 16 - ^ $rbp: .cfa 24 - ^ $rsi: .cfa 32 - ^ $rdi: .cfa 40 - ^ $r14: .cfa 48 - ^ $r15: .cfa 56 - ^ .ra: .cfa 8 - ^
STACK CFI INIT 2f000 1c1 .cfa: $rsp 304 + $rbp: .cfa 16 - ^ $rsi: .cfa 24 - ^ $rdi: .cfa 32 - ^ $r14: .cfa 40 - ^ $r15: .cfa 48 - ^ $rbx: .cfa 0 - ^ .ra: .cfa 8 - ^
STACK CFI INIT 2f1c8 2c .cfa: $rsp 48 + $rbx: .cfa 16 - ^ .ra: .cfa 8 - ^
STACK CFI INIT 2f1fc 7d .cfa: $rsp 64 + $rbx: .cfa 16 - ^ $rsi: .cfa 24 - ^ $rdi: .cfa 32 - ^ .ra: .cfa 8 - ^
STACK CFI INIT 2f2b8 ae .cfa: $rsp 48 + $rdi: .cfa 16 - ^ $rbx: .cfa 0 - ^ $rsi: .cfa 0 - ^ .ra: .cfa 8 - ^
STACK CFI INIT 2f36c 10c .cfa: $rsp 64 + $rdi: .cfa 16 - ^ $rbx: .cfa 0 - ^ $rsi: .cfa 0 - ^ .ra: .cfa 8 - ^
STACK CFI INIT 2f480 30 .cfa: $rsp 64 + .ra: .cfa 8 - ^
STACK CFI INIT 2f4b8 6b .cfa: $rsp 48 + $rdi: .cfa 16 - ^ $rbx: .cfa 0 - ^ $rsi: .cfa 0 - ^ .ra: .cfa 8 - ^
STACK CFI INIT 2f52c 67 .cfa: $rsp 48 + $rdi: .cfa 16 - ^ $rbx: .cfa 0 - ^ .ra: .cfa 8 - ^
STACK CFI INIT 2f59c 2d .cfa: $rsp 48 + $rbx: .cfa 16 - ^ .ra: .cfa 8 - ^
STACK CFI INIT 2f5d0 59 .cfa: $rsp 48 + $rdi: .cfa 16 - ^ $rbx: .cfa 0 - ^ $rsi: .cfa 0 - ^ .ra: .cfa 8 - ^
STACK CFI INIT 2f630 94 .cfa: $rsp 208 + $rbx: .cfa 16 - ^ .ra: .cfa 8 - ^
STACK CFI INIT 2f6cc 24 .cfa: $rsp 48 + .ra: .cfa 8 - ^
STACK CFI INIT 2f710 288 .cfa: $rsp 320 + $rbp: .cfa 16 - ^ $rbx: .cfa 24 - ^ $rsi: .cfa 32 - ^ $rdi: .cfa 40 - ^ $r12: .cfa 48 - ^ $r13: .cfa 56 - ^ $r14: .cfa 64 - ^ $r15: .cfa 72 - ^ .ra: .cfa 8 - ^
STACK CFI INIT 2f9a0 7c .cfa: $rsp 48 + $rdi: .cfa 16 - ^ $rbx: .cfa 0 - ^ $rbp: .cfa 0 - ^ $rsi: .cfa 0 - ^ .ra: .cfa 8 - ^
STACK CFI INIT 2fa24 22 .cfa: $rsp 48 + $rbx: .cfa 16 - ^ .ra: .cfa 8 - ^
STACK CFI INIT 2fa4c af .cfa: $rsp 160 + $rbx: .cfa 16 - ^ $rbp: .cfa 24 - ^ $rsi: .cfa 32 - ^ $rdi: .cfa 40 - ^ $r14: .cfa 48 - ^ .ra: .cfa 8 - ^
STACK CFI INIT 2fb04 132 .cfa: $rsp 80 + $rdi: .cfa 16 - ^ $r12: .cfa 24 - ^ $r13: .cfa 32 - ^ $r14: .cfa 40 - ^ $r15: .cfa 48 - ^ $rbx: .cfa 0 - ^ $rbp: .cfa 0 - ^ $rsi: .cfa 0 - ^ .ra: .cfa 8 - ^
STACK CFI INIT 2fc40 f7 .cfa: $rsp 208 + $rbx: .cfa 16 - ^ $rbp: .cfa 24 - ^ $rsi: .cfa 32 - ^ $rdi: .cfa 40 - ^ $r14: .cfa 48 - ^ .ra: .cfa 8 - ^
STACK CFI INIT 2fd40 9b .cfa: $rsp 64 + $rdi: .cfa 16 - ^ $rbx: .cfa 0 - ^ $rsi: .cfa 0 - ^ .ra: .cfa 8 - ^
STACK CFI INIT 2fdf0 7d .cfa: $rsp 48 + $rdi: .cfa 16 - ^ $rbx: .cfa 0 - ^ $rsi: .cfa 0 - ^ .ra: .cfa 8 - ^
STACK CFI INIT 2fe74 7fb .cfa: $rsp 1136 + $rbp: .cfa 16 - ^ $rbx: .cfa 24 - ^ $rsi: .cfa 32 - ^ $rdi: .cfa 40 - ^ $r12: .cfa 48 - ^ $r13: .cfa 56 - ^ $r14: .cfa 64 - ^ $r15: .cfa 72 - ^ .ra: .cfa 8 - ^
STACK CFI INIT 30678 39 .cfa: $rsp 48 + $rbx: .cfa 16 - ^ .ra: .cfa 8 - ^
STACK CFI INIT 306b8 94 .cfa: $rsp 64 + $rdi: .cfa 16 - ^ $rbx: .cfa 0 - ^ .ra: .cfa 8 - ^
STACK CFI INIT 30754 66 .cfa: $rsp 48 + $rdi: .cfa 16 - ^ $rbx: .cfa 0 - ^ $rsi: .cfa 0 - ^ .ra: .cfa 8 - ^
STACK CFI INIT 307c0 3c .cfa: $rsp 48 + $rbx: .cfa 16 - ^ .ra: .cfa 8 - ^
STACK CFI INIT 30840 209 .cfa: $rsp 192 + $rbx: .cfa 16 - ^ $rbp: .cfa 24 - ^ $rsi: .cfa 32 - ^ $rdi: .cfa 40 - ^ $r12: .cfa 48 - ^ $r13: .cfa 56 - ^ $r14: .cfa 64 - ^ $r15: .cfa 72 - ^ .ra: .cfa 8 - ^
STACK CFI INIT 30a50 bb .cfa: $rsp 144 + $rbp: .cfa 16 - ^ $rdi: .cfa 24 - ^ $r14: .cfa 32 - ^ $rbx: .cfa 0 - ^ $rsi: .cfa 0 - ^ .ra: .cfa 8 - ^
STACK CFI INIT 30b14 42 .cfa: $rsp 48 + $rbx: .cfa 16 - ^ .ra: .cfa 8 - ^
STACK CFI INIT 30b5c d4 .cfa: $rsp 64 + $rbp: .cfa 16 - ^ $rsi: .cfa 24 - ^ $rdi: .cfa 32 - ^ $rbx: .cfa 0 - ^ .ra: .cfa 8 - ^
STACK CFI INIT 30ca4 11b .cfa: $rsp 80 + $rdi: .cfa 16 - ^ $r12: .cfa 24 - ^ $r13: .cfa 32 - ^ $r14: .cfa 40 - ^ $r15: .cfa 48 - ^ $rbx: .cfa 0 - ^ $rbp: .cfa 0 - ^ $rsi: .cfa 0 - ^ .ra: .cfa 8 - ^
STACK CFI INIT 30dc8 10e .cfa: $rsp 64 + $rdi: .cfa 16 - ^ $rbx: .cfa 0 - ^ $rsi: .cfa 0 - ^ .ra: .cfa 8 - ^
STACK CFI INIT 30f10 198 .cfa: $rsp 224 + $rbp: .cfa 16 - ^ $rdi: .cfa 24 - ^ $r12: .cfa 32 - ^ $r14: .cfa 40 - ^ $r15: .cfa 48 - ^ $rbx: .cfa 0 - ^ $rsi: .cfa 0 - ^ .ra: .cfa 8 - ^
STACK CFI INIT 31120 8e .cfa: $rsp 48 + $rdi: .cfa 16 - ^ $rbx: .cfa 0 - ^ .ra: .cfa 8 - ^
STACK CFI INIT 311b4 1ad .cfa: $rsp 48 + $r14: .cfa 16 - ^ $rbx: .cfa 0 - ^ $rsi: .cfa 0 - ^ $rdi: .cfa 0 - ^ .ra: .cfa 8 - ^
STACK CFI INIT 31368 206 .cfa: $rsp 48 + $rdi: .cfa 16 - ^ $r12: .cfa 24 - ^ $r13: .cfa 32 - ^ $r14: .cfa 40 - ^ $r15: .cfa 48 - ^ $rbx: .cfa 0 - ^ $rbp: .cfa 0 - ^ $rsi: .cfa 0 - ^ .ra: .cfa 8 - ^
STACK CFI INIT 315bc 8e .cfa: $rsp 64 + $rbx: .cfa 16 - ^ .ra: .cfa 8 - ^
STACK CFI INIT 31650 1d2 .cfa: $rsp 144 + $rbp: .cfa 16 - ^ $rdi: .cfa 24 - ^ $r14: .cfa 32 - ^ $rbx: .cfa 0 - ^ $rsi: .cfa 0 - ^ .ra: .cfa 8 - ^
STACK CFI INIT 31828 128 .cfa: $rsp 80 + $rsi: .cfa 16 - ^ $rdi: .cfa 24 - ^ $r14: .cfa 32 - ^ $rbx: .cfa 0 - ^ $rbp: .cfa 0 - ^ .ra: .cfa 8 - ^
STACK CFI INIT 31958 c7 .cfa: $rsp 48 + $r14: .cfa 16 - ^ $rbx: .cfa 0 - ^ $rbp: .cfa 0 - ^ $rsi: .cfa 0 - ^ $rdi: .cfa 0 - ^ .ra: .cfa 8 - ^
STACK CFI INIT 31a30 10b .cfa: $rsp 48 + $rdi: .cfa 16 - ^ $rbx: .cfa 0 - ^ $rbp: .cfa 0 - ^ $rsi: .cfa 0 - ^ .ra: .cfa 8 - ^
STACK CFI INIT 31b44 81 .cfa: $rsp 64 + $rdi: .cfa 16 - ^ $r14: .cfa 24 - ^ $r15: .cfa 32 - ^ $rbx: .cfa 0 - ^ $rbp: .cfa 0 - ^ $rsi: .cfa 0 - ^ .ra: .cfa 8 - ^
STACK CFI INIT 31bcc 9d .cfa: $rsp 48 + $r14: .cfa 16 - ^ $rbx: .cfa 0 - ^ $rbp: .cfa 0 - ^ $rsi: .cfa 0 - ^ $rdi: .cfa 0 - ^ .ra: .cfa 8 - ^
STACK CFI INIT 31c70 2b8 .cfa: $rsp 416 + $rbp: .cfa 16 - ^ $rsi: .cfa 24 - ^ $rdi: .cfa 32 - ^ $r12: .cfa 40 - ^ $r13: .cfa 48 - ^ $r14: .cfa 56 - ^ $r15: .cfa 64 - ^ $rbx: .cfa 0 - ^ .ra: .cfa 8 - ^
STACK CFI INIT 31f30 bb .cfa: $rsp 64 + $rdi: .cfa 16 - ^ $rbx: .cfa 0 - ^ .ra: .cfa 8 - ^
STACK CFI INIT 320a0 56 .cfa: $rsp 64 + .ra: .cfa 8 - ^
STACK CFI INIT 32100 58 .cfa: $rsp 48 + $rdi: .cfa 16 - ^ $rbx: .cfa 0 - ^ .ra: .cfa 8 - ^
STACK CFI INIT 32160 34 .cfa: $rsp 48 + $rdi: .cfa 16 - ^ $rbx: .cfa 0 - ^ .ra: .cfa 8 - ^
STACK CFI INIT 321fc 14b .cfa: $rsp 96 + $rdi: .cfa 16 - ^ $r12: .cfa 24 - ^ $r13: .cfa 32 - ^ $r14: .cfa 40 - ^ $r15: .cfa 48 - ^ $rbx: .cfa 0 - ^ $rbp: .cfa 0 - ^ $rsi: .cfa 0 - ^ .ra: .cfa 8 - ^
STACK CFI INIT 32350 80 .cfa: $rsp 8 + $rbx: .cfa 0 - ^ $rsi: .cfa 0 - ^ $rdi: .cfa 0 - ^ .ra: .cfa 8 - ^
STACK CFI INIT 323e0 4e .cfa: $rsp 64 + .ra: .cfa 8 - ^
STACK CFI INIT 32434 35 .cfa: $rsp 48 + $rdi: .cfa 16 - ^ $rbx: .cfa 0 - ^ .ra: .cfa 8 - ^
STACK CFI INIT 32470 33 .cfa: $rsp 48 + $rbx: .cfa 16 - ^ .ra: .cfa 8 - ^
STACK CFI INIT 324ac 7c .cfa: $rsp 48 + $rdi: .cfa 16 - ^ $rbx: .cfa 0 - ^ $rsi: .cfa 0 - ^ .ra: .cfa 8 - ^
STACK CFI INIT 32530 65 .cfa: $rsp 48 + $rdi: .cfa 16 - ^ $rbx: .cfa 0 - ^ .ra: .cfa 8 - ^
STACK CFI INIT 3259c 64 .cfa: $rsp 48 + $rdi: .cfa 16 - ^ $rbx: .cfa 0 - ^ .ra: .cfa 8 - ^
STACK CFI INIT 32608 62 .cfa: $rsp 48 + $rdi: .cfa 16 - ^ $rbx: .cfa 0 - ^ $rsi: .cfa 0 - ^ .ra: .cfa 8 - ^
STACK CFI INIT 32670 118 .cfa: $rsp 64 + $rsi: .cfa 16 - ^ $rdi: .cfa 24 - ^ $r14: .cfa 32 - ^ $rbx: .cfa 0 - ^ .ra: .cfa 8 - ^
STACK CFI INIT 32790 115 .cfa: $rsp 912 + $rbp: .cfa 16 - ^ $rsi: .cfa 24 - ^ $rdi: .cfa 32 - ^ $rbx: .cfa 0 - ^ .ra: .cfa 8 - ^
STACK CFI INIT 328f0 98 .cfa: $rsp 48 + $rdi: .cfa 16 - ^ $rbx: .cfa 0 - ^ $rbp: .cfa 0 - ^ $rsi: .cfa 0 - ^ .ra: .cfa 8 - ^
STACK CFI INIT 32990 47 .cfa: $rsp 48 + $rdi: .cfa 16 - ^ $rbx: .cfa 0 - ^ .ra: .cfa 8 - ^
STACK CFI INIT 329e0 88 .cfa: $rsp 48 + $rdi: .cfa 16 - ^ $rbx: .cfa 0 - ^ $rbp: .cfa 0 - ^ $rsi: .cfa 0 - ^ .ra: .cfa 8 - ^
STACK CFI INIT 32acc 74 .cfa: $rsp 96 + $rbx: .cfa 16 - ^ .ra: .cfa 8 - ^
STACK CFI INIT 32b48 9b .cfa: $rsp 48 + $rdi: .cfa 16 - ^ $rbx: .cfa 0 - ^ $rbp: .cfa 0 - ^ $rsi: .cfa 0 - ^ .ra: .cfa 8 - ^
STACK CFI INIT 32bec 44 .cfa: $rsp 48 + $rbx: .cfa 16 - ^ .ra: .cfa 8 - ^
STACK CFI INIT 32c38 ae .cfa: $rsp 64 + $r14: .cfa 16 - ^ $rbx: .cfa 0 - ^ $rbp: .cfa 0 - ^ $rsi: .cfa 0 - ^ $rdi: .cfa 0 - ^ .ra: .cfa 8 - ^
STACK CFI INIT 32cec 170 .cfa: $rsp 96 + $rbp: .cfa 16 - ^ $rsi: .cfa 24 - ^ $rdi: .cfa 32 - ^ $r12: .cfa 40 - ^ $r13: .cfa 48 - ^ $r14: .cfa 56 - ^ $r15: .cfa 64 - ^ $rbx: .cfa 0 - ^ .ra: .cfa 8 - ^
STACK CFI INIT 32e64 79 .cfa: $rsp 320 + $rbx: .cfa 16 - ^ .ra: .cfa 8 - ^
STACK CFI INIT 32ee4 aa .cfa: $rsp 64 + $r14: .cfa 16 - ^ $rbx: .cfa 0 - ^ $rbp: .cfa 0 - ^ $rsi: .cfa 0 - ^ $rdi: .cfa 0 - ^ .ra: .cfa 8 - ^
STACK CFI INIT 32f94 2b .cfa: $rsp 48 + $rbx: .cfa 16 - ^ .ra: .cfa 8 - ^
STACK CFI INIT 32fc8 2e .cfa: $rsp 48 + $rdi: .cfa 16 - ^ $rbx: .cfa 0 - ^ .ra: .cfa 8 - ^
STACK CFI INIT 32ffc 4b .cfa: $rsp 80 + $rdi: .cfa 16 - ^ $rbx: .cfa 0 - ^ .ra: .cfa 8 - ^
STACK CFI INIT 33050 13c .cfa: $rsp 112 + $rbp: .cfa 16 - ^ $rsi: .cfa 24 - ^ $rdi: .cfa 32 - ^ $r12: .cfa 40 - ^ $r13: .cfa 48 - ^ $r14: .cfa 56 - ^ $r15: .cfa 64 - ^ $rbx: .cfa 0 - ^ .ra: .cfa 8 - ^
STACK CFI INIT 33194 51 .cfa: $rsp 64 + $rdi: .cfa 16 - ^ $rbx: .cfa 0 - ^ .ra: .cfa 8 - ^
STACK CFI INIT 331ec 5a .cfa: $rsp 80 + $rdi: .cfa 16 - ^ $rbx: .cfa 0 - ^ .ra: .cfa 8 - ^
STACK CFI INIT 3324c 9b .cfa: $rsp 48 + $rdi: .cfa 16 - ^ $rbx: .cfa 0 - ^ .ra: .cfa 8 - ^
STACK CFI INIT 332f0 a0 .cfa: $rsp 64 + $rdi: .cfa 16 - ^ $rbx: .cfa 0 - ^ $rsi: .cfa 0 - ^ .ra: .cfa 8 - ^
STACK CFI INIT 33398 53 .cfa: $rsp 48 + $rdi: .cfa 16 - ^ $rbx: .cfa 0 - ^ .ra: .cfa 8 - ^
STACK CFI INIT 333f4 48 .cfa: $rsp 48 + .ra: .cfa 8 - ^
STACK CFI INIT 33444 d9 .cfa: $rsp 64 + $rdi: .cfa 16 - ^ $rbx: .cfa 0 - ^ $rbp: .cfa 0 - ^ $rsi: .cfa 0 - ^ .ra: .cfa 8 - ^
STACK CFI INIT 33524 58 .cfa: $rsp 48 + $rdi: .cfa 16 - ^ $rbx: .cfa 0 - ^ .ra: .cfa 8 - ^
STACK CFI INIT 33584 118 .cfa: $rsp 8 + $rbx: .cfa 0 - ^ $rbp: .cfa 0 - ^ $rsi: .cfa 0 - ^ $rdi: .cfa 0 - ^ .ra: .cfa 8 - ^
STACK CFI INIT 336a4 c5 .cfa: $rsp 48 + $r14: .cfa 16 - ^ $rbx: .cfa 0 - ^ $rsi: .cfa 0 - ^ $rdi: .cfa 0 - ^ .ra: .cfa 8 - ^
STACK CFI INIT 3379c 9b .cfa: $rsp 48 + $r14: .cfa 16 - ^ $rbx: .cfa 0 - ^ $rsi: .cfa 0 - ^ $rdi: .cfa 0 - ^ .ra: .cfa 8 - ^
STACK CFI INIT 33840 27 .cfa: $rsp 48 + $rbx: .cfa 16 - ^ .ra: .cfa 8 - ^
STACK CFI INIT 33870 1e .cfa: $rsp 48 + .ra: .cfa 8 - ^
STACK CFI INIT 33894 9e .cfa: $rsp 48 + $rdi: .cfa 16 - ^ $rbx: .cfa 0 - ^ $rsi: .cfa 0 - ^ .ra: .cfa 8 - ^
STACK CFI INIT 33938 67 .cfa: $rsp 48 + $rdi: .cfa 16 - ^ $rbx: .cfa 0 - ^ .ra: .cfa 8 - ^
STACK CFI INIT 339a8 77 .cfa: $rsp 48 + $rdi: .cfa 16 - ^ $rbx: .cfa 0 - ^ .ra: .cfa 8 - ^
STACK CFI INIT 33a28 d5 .cfa: $rsp 80 + $rsi: .cfa 16 - ^ $rdi: .cfa 24 - ^ $r12: .cfa 32 - ^ $r14: .cfa 40 - ^ $r15: .cfa 48 - ^ $rbx: .cfa 0 - ^ $rbp: .cfa 0 - ^ .ra: .cfa 8 - ^
STACK CFI INIT 33b04 9a .cfa: $rsp 48 + $rdi: .cfa 16 - ^ $rbx: .cfa 0 - ^ .ra: .cfa 8 - ^
STACK CFI INIT 33ba4 7f .cfa: $rsp 48 + $rdi: .cfa 16 - ^ $rbx: .cfa 0 - ^ .ra: .cfa 8 - ^
STACK CFI INIT 33c30 34 .cfa: $rsp 48 + $rdi: .cfa 16 - ^ $rbx: .cfa 0 - ^ .ra: .cfa 8 - ^
STACK CFI INIT 33c6c ac .cfa: $rsp 96 + $rbp: .cfa 16 - ^ $rsi: .cfa 24 - ^ $rdi: .cfa 32 - ^ $rbx: .cfa 0 - ^ .ra: .cfa 8 - ^
STACK CFI INIT 33d20 b9 .cfa: $rsp 96 + $rdi: .cfa 16 - ^ $rbx: .cfa 0 - ^ $rbp: .cfa 0 - ^ $rsi: .cfa 0 - ^ .ra: .cfa 8 - ^
STACK CFI INIT 33de0 9f .cfa: $rsp 96 + $rdi: .cfa 16 - ^ $rbx: .cfa 0 - ^ $rbp: .cfa 0 - ^ $rsi: .cfa 0 - ^ .ra: .cfa 8 - ^
STACK CFI INIT 33e88 1f2 .cfa: $rsp 112 + $rsi: .cfa 16 - ^ $rdi: .cfa 24 - ^ $r12: .cfa 32 - ^ $r14: .cfa 40 - ^ $r15: .cfa 48 - ^ $rbx: .cfa 0 - ^ $rbp: .cfa 0 - ^ .ra: .cfa 8 - ^
STACK CFI INIT 34080 202 .cfa: $rsp 224 + $rbp: .cfa 16 - ^ $rsi: .cfa 24 - ^ $rdi: .cfa 32 - ^ $r12: .cfa 40 - ^ $r13: .cfa 48 - ^ $r14: .cfa 56 - ^ $r15: .cfa 64 - ^ $rbx: .cfa 0 - ^ .ra: .cfa 8 - ^
STACK CFI INIT 34288 133 .cfa: $rsp 160 + $r12: .cfa 16 - ^ $r14: .cfa 24 - ^ $r15: .cfa 32 - ^ $rbx: .cfa 0 - ^ $rbp: .cfa 0 - ^ $rsi: .cfa 0 - ^ $rdi: .cfa 0 - ^ .ra: .cfa 8 - ^
STACK CFI INIT 343c4 34c .cfa: $rsp 176 + $rbp: .cfa 16 - ^ $rbx: .cfa 24 - ^ $rsi: .cfa 32 - ^ $rdi: .cfa 40 - ^ $r12: .cfa 48 - ^ $r13: .cfa 56 - ^ $r14: .cfa 64 - ^ $r15: .cfa 72 - ^ .ra: .cfa 8 - ^
STACK CFI INIT 34720 af .cfa: $rsp 96 + $rdi: .cfa 16 - ^ $rbx: .cfa 0 - ^ $rsi: .cfa 0 - ^ .ra: .cfa 8 - ^
STACK CFI INIT 347e0 84 .cfa: $rsp 96 + $rdi: .cfa 16 - ^ $rbx: .cfa 0 - ^ $rsi: .cfa 0 - ^ .ra: .cfa 8 - ^
STACK CFI INIT 3486c 4c .cfa: $rsp 48 + $rdi: .cfa 16 - ^ $rbx: .cfa 0 - ^ .ra: .cfa 8 - ^
STACK CFI INIT 348c0 43 .cfa: $rsp 48 + $rdi: .cfa 16 - ^ $rbx: .cfa 0 - ^ .ra: .cfa 8 - ^
STACK CFI INIT 3490c 53 .cfa: $rsp 48 + $rdi: .cfa 16 - ^ $rbx: .cfa 0 - ^ .ra: .cfa 8 - ^
STACK CFI INIT 34984 86 .cfa: $rsp 96 + $rbp: .cfa 16 - ^ $rsi: .cfa 24 - ^ $rdi: .cfa 32 - ^ $rbx: .cfa 0 - ^ .ra: .cfa 8 - ^
STACK CFI INIT 34a10 60 .cfa: $rsp 48 + $rdi: .cfa 16 - ^ $rbx: .cfa 0 - ^ $rsi: .cfa 0 - ^ .ra: .cfa 8 - ^
STACK CFI INIT 34a78 15d .cfa: $rsp 64 + $rdi: .cfa 16 - ^ $r14: .cfa 24 - ^ $r15: .cfa 32 - ^ $rbx: .cfa 0 - ^ $rbp: .cfa 0 - ^ $rsi: .cfa 0 - ^ .ra: .cfa 8 - ^
STACK CFI INIT 34bdc d7 .cfa: $rsp 64 + $rdi: .cfa 16 - ^ $r14: .cfa 24 - ^ $r15: .cfa 32 - ^ $rbx: .cfa 0 - ^ $rbp: .cfa 0 - ^ $rsi: .cfa 0 - ^ .ra: .cfa 8 - ^
STACK CFI INIT 34cbc 8c .cfa: $rsp 48 + $rdi: .cfa 16 - ^ $rbx: .cfa 0 - ^ $rsi: .cfa 0 - ^ .ra: .cfa 8 - ^
STACK CFI INIT 34d50 c7 .cfa: $rsp 48 + $rdi: .cfa 16 - ^ $rbx: .cfa 0 - ^ $rsi: .cfa 0 - ^ .ra: .cfa 8 - ^
STACK CFI INIT 34e20 1d2 .cfa: $rsp 64 + $rdi: .cfa 16 - ^ $r14: .cfa 24 - ^ $r15: .cfa 32 - ^ $rbx: .cfa 0 - ^ $rbp: .cfa 0 - ^ $rsi: .cfa 0 - ^ .ra: .cfa 8 - ^
STACK CFI INIT 34ff8 9c .cfa: $rsp 48 + $r14: .cfa 16 - ^ $rbx: .cfa 0 - ^ $rbp: .cfa 0 - ^ $rsi: .cfa 0 - ^ $rdi: .cfa 0 - ^ .ra: .cfa 8 - ^
STACK CFI INIT 3509c 1b1 .cfa: $rsp 80 + $rdi: .cfa 16 - ^ $r14: .cfa 24 - ^ $r15: .cfa 32 - ^ $rbx: .cfa 0 - ^ $rbp: .cfa 0 - ^ $rsi: .cfa 0 - ^ .ra: .cfa 8 - ^
STACK CFI INIT 35254 cf .cfa: $rsp 64 + $r12: .cfa 16 - ^ $r14: .cfa 24 - ^ $r15: .cfa 32 - ^ $rbx: .cfa 0 - ^ $rbp: .cfa 0 - ^ $rsi: .cfa 0 - ^ $rdi: .cfa 0 - ^ .ra: .cfa 8 - ^
STACK CFI INIT 3532c 1d1 .cfa: $rsp 96 + $rbp: .cfa 16 - ^ $rsi: .cfa 24 - ^ $rdi: .cfa 32 - ^ $r12: .cfa 40 - ^ $r13: .cfa 48 - ^ $r14: .cfa 56 - ^ $r15: .cfa 64 - ^ $rbx: .cfa 0 - ^ .ra: .cfa 8 - ^
STACK CFI INIT 35580 87 .cfa: $rsp 48 + $rdi: .cfa 16 - ^ $rbx: .cfa 0 - ^ $rsi: .cfa 0 - ^ .ra: .cfa 8 - ^
STACK CFI INIT 35610 97 .cfa: $rsp 48 + $rbx: .cfa 16 - ^ .ra: .cfa 8 - ^
STACK CFI INIT 356b0 153 .cfa: $rsp 64 + $rdi: .cfa 16 - ^ $r14: .cfa 24 - ^ $r15: .cfa 32 - ^ $rbx: .cfa 0 - ^ $rbp: .cfa 0 - ^ $rsi: .cfa 0 - ^ .ra: .cfa 8 - ^
STACK CFI INIT 3580c 268 .cfa: $rsp 144 + $rdi: .cfa 16 - ^ $r14: .cfa 24 - ^ $r15: .cfa 32 - ^ $rbx: .cfa 0 - ^ $rsi: .cfa 0 - ^ .ra: .cfa 8 - ^
STACK CFI INIT 35a7c 158 .cfa: $rsp 64 + $r13: .cfa 16 - ^ $r14: .cfa 24 - ^ $r15: .cfa 32 - ^ $rbx: .cfa 0 - ^ $rbp: .cfa 0 - ^ $rsi: .cfa 0 - ^ $rdi: .cfa 0 - ^ .ra: .cfa 8 - ^
STACK CFI INIT 35bdc 9d .cfa: $rsp 48 + $rdi: .cfa 16 - ^ $rbx: .cfa 0 - ^ .ra: .cfa 8 - ^
STACK CFI INIT 35d2c b7 .cfa: $rsp 48 + $r14: .cfa 16 - ^ $rbx: .cfa 0 - ^ $rbp: .cfa 0 - ^ $rsi: .cfa 0 - ^ $rdi: .cfa 0 - ^ .ra: .cfa 8 - ^
STACK CFI INIT 35dec cc .cfa: $rsp 64 + $rdi: .cfa 16 - ^ $r14: .cfa 24 - ^ $r15: .cfa 32 - ^ $rbx: .cfa 0 - ^ $rbp: .cfa 0 - ^ $rsi: .cfa 0 - ^ .ra: .cfa 8 - ^
STACK CFI INIT 35ec0 98 .cfa: $rsp 48 + $rdi: .cfa 16 - ^ $rbx: .cfa 0 - ^ $rbp: .cfa 0 - ^ $rsi: .cfa 0 - ^ .ra: .cfa 8 - ^
STACK CFI INIT 35fa0 58 .cfa: $rsp 48 + $rdi: .cfa 16 - ^ $rbx: .cfa 0 - ^ $rsi: .cfa 0 - ^ .ra: .cfa 8 - ^
STACK CFI INIT 36000 54 .cfa: $rsp 48 + $rdi: .cfa 16 - ^ $rbx: .cfa 0 - ^ $rsi: .cfa 0 - ^ .ra: .cfa 8 - ^
STACK CFI INIT 3605c 79 .cfa: $rsp 64 + $rdi: .cfa 16 - ^ $rbx: .cfa 0 - ^ $rsi: .cfa 0 - ^ .ra: .cfa 8 - ^
STACK CFI INIT 360e0 5c .cfa: $rsp 64 + $rdi: .cfa 16 - ^ $rbx: .cfa 0 - ^ .ra: .cfa 8 - ^
STACK CFI INIT 36144 154 .cfa: $rsp 80 + $r14: .cfa 16 - ^ $rbx: .cfa 0 - ^ $rbp: .cfa 0 - ^ $rsi: .cfa 0 - ^ $rdi: .cfa 0 - ^ .ra: .cfa 8 - ^
STACK CFI INIT 362a0 69 .cfa: $rsp 64 + $rdi: .cfa 16 - ^ $rbx: .cfa 0 - ^ $rsi: .cfa 0 - ^ .ra: .cfa 8 - ^
STACK CFI INIT 36310 e9 .cfa: $rsp 64 + $rdi: .cfa 16 - ^ $rbx: .cfa 0 - ^ $rbp: .cfa 0 - ^ $rsi: .cfa 0 - ^ .ra: .cfa 8 - ^
STACK CFI INIT 36400 d6 .cfa: $rsp 48 + $rdi: .cfa 16 - ^ $rbx: .cfa 0 - ^ .ra: .cfa 8 - ^
STACK CFI INIT 364e0 78 .cfa: $rsp 64 + $rdi: .cfa 16 - ^ $rbx: .cfa 0 - ^ $rsi: .cfa 0 - ^ .ra: .cfa 8 - ^
STACK CFI INIT 36560 86 .cfa: $rsp 48 + $rdi: .cfa 16 - ^ $rbx: .cfa 0 - ^ $rbp: .cfa 0 - ^ $rsi: .cfa 0 - ^ .ra: .cfa 8 - ^
STACK CFI INIT 365ec 102 .cfa: $rsp 48 + $rdi: .cfa 16 - ^ $rbx: .cfa 0 - ^ $rsi: .cfa 0 - ^ .ra: .cfa 8 - ^
STACK CFI INIT 366f4 47 .cfa: $rsp 48 + $rbx: .cfa 16 - ^ .ra: .cfa 8 - ^
STACK CFI INIT 36744 25 .cfa: $rsp 48 + $rbx: .cfa 16 - ^ .ra: .cfa 8 - ^
STACK CFI INIT 36770 34 .cfa: $rsp 48 + $rdi: .cfa 16 - ^ $rbx: .cfa 0 - ^ .ra: .cfa 8 - ^
STACK CFI INIT 367b0 36 .cfa: $rsp 48 + $rbx: .cfa 16 - ^ .ra: .cfa 8 - ^
STACK CFI INIT 367f0 ae .cfa: $rsp 48 + $rdi: .cfa 16 - ^ $rbx: .cfa 0 - ^ $rsi: .cfa 0 - ^ .ra: .cfa 8 - ^
STACK CFI INIT 368b0 19c .cfa: $rsp 96 + $rbp: .cfa 16 - ^ $rsi: .cfa 24 - ^ $rdi: .cfa 32 - ^ $r14: .cfa 40 - ^ $r15: .cfa 48 - ^ $rbx: .cfa 0 - ^ .ra: .cfa 8 - ^
STACK CFI INIT 36a60 22f .cfa: $rsp 160 + $rbp: .cfa 16 - ^ $rsi: .cfa 24 - ^ $rdi: .cfa 32 - ^ $r14: .cfa 40 - ^ $r15: .cfa 48 - ^ $rbx: .cfa 0 - ^ .ra: .cfa 8 - ^
STACK CFI INIT 36ca0 bf .cfa: $rsp 48 + $rdi: .cfa 16 - ^ $rbx: .cfa 0 - ^ $rsi: .cfa 0 - ^ .ra: .cfa 8 - ^
STACK CFI INIT 36d70 138 .cfa: $rsp 80 + $rsi: .cfa 16 - ^ $rdi: .cfa 24 - ^ $r14: .cfa 32 - ^ $rbx: .cfa 0 - ^ $rbp: .cfa 0 - ^ .ra: .cfa 8 - ^
STACK CFI INIT 36eb0 8b .cfa: $rsp 64 + $rdi: .cfa 16 - ^ $rbx: .cfa 0 - ^ $rbp: .cfa 0 - ^ $rsi: .cfa 0 - ^ .ra: .cfa 8 - ^
STACK CFI INIT 36f44 18b .cfa: $rsp 112 + $r12: .cfa 16 - ^ $r14: .cfa 24 - ^ $r15: .cfa 32 - ^ $rbx: .cfa 0 - ^ $rbp: .cfa 0 - ^ $rsi: .cfa 0 - ^ $rdi: .cfa 0 - ^ .ra: .cfa 8 - ^
STACK CFI INIT 370e0 116 .cfa: $rsp 96 + $rdi: .cfa 16 - ^ $rbx: .cfa 0 - ^ .ra: .cfa 8 - ^
STACK CFI INIT 37200 15e .cfa: $rsp 128 + $rbp: .cfa 16 - ^ $r14: .cfa 24 - ^ $r15: .cfa 32 - ^ $rbx: .cfa 0 - ^ $rsi: .cfa 0 - ^ $rdi: .cfa 0 - ^ .ra: .cfa 8 - ^
STACK CFI INIT 37364 73 .cfa: $rsp 48 + $rbx: .cfa 16 - ^ .ra: .cfa 8 - ^
STACK CFI INIT 373e0 52 .cfa: $rsp 48 + $rbx: .cfa 16 - ^ .ra: .cfa 8 - ^
STACK CFI INIT 37440 76 .cfa: $rsp 48 + $rbx: .cfa 16 - ^ .ra: .cfa 8 - ^
STACK CFI INIT 374d0 5f .cfa: $rsp 48 + $rdi: .cfa 16 - ^ $rbx: .cfa 0 - ^ .ra: .cfa 8 - ^
STACK CFI INIT 37540 276 .cfa: $rsp 432 + $rbx: .cfa 16 - ^ $rbp: .cfa 24 - ^ $rsi: .cfa 32 - ^ $rdi: .cfa 40 - ^ $r12: .cfa 48 - ^ $r13: .cfa 56 - ^ $r14: .cfa 64 - ^ $r15: .cfa 72 - ^ .ra: .cfa 8 - ^
STACK CFI INIT 377c0 1af .cfa: $rsp 128 + $rbp: .cfa 16 - ^ $rsi: .cfa 24 - ^ $rdi: .cfa 32 - ^ $r12: .cfa 40 - ^ $r13: .cfa 48 - ^ $r14: .cfa 56 - ^ $r15: .cfa 64 - ^ $rbx: .cfa 0 - ^ .ra: .cfa 8 - ^
STACK CFI INIT 37980 13c .cfa: $rsp 64 + $rdi: .cfa 16 - ^ $r14: .cfa 24 - ^ $r15: .cfa 32 - ^ $rbx: .cfa 0 - ^ $rsi: .cfa 0 - ^ .ra: .cfa 8 - ^
STACK CFI INIT 37ad0 2f .cfa: $rsp 48 + $rbx: .cfa 16 - ^ .ra: .cfa 8 - ^
STACK CFI INIT 37b08 20e .cfa: $rsp 80 + $rsi: .cfa 16 - ^ $rdi: .cfa 24 - ^ $r12: .cfa 32 - ^ $r14: .cfa 40 - ^ $r15: .cfa 48 - ^ $rbx: .cfa 0 - ^ $rbp: .cfa 0 - ^ .ra: .cfa 8 - ^
STACK CFI INIT 37d20 1d9 .cfa: $rsp 112 + $rbp: .cfa 16 - ^ $rsi: .cfa 24 - ^ $rdi: .cfa 32 - ^ $r14: .cfa 40 - ^ $r15: .cfa 48 - ^ $rbx: .cfa 0 - ^ .ra: .cfa 8 - ^
STACK CFI INIT 37f00 1b4 .cfa: $rsp 80 + $rdi: .cfa 16 - ^ $r14: .cfa 24 - ^ $r15: .cfa 32 - ^ $rbx: .cfa 0 - ^ $rbp: .cfa 0 - ^ $rsi: .cfa 0 - ^ .ra: .cfa 8 - ^
STACK CFI INIT 380c0 9b .cfa: $rsp 48 + $rdi: .cfa 16 - ^ $rbx: .cfa 0 - ^ $rsi: .cfa 0 - ^ .ra: .cfa 8 - ^
STACK CFI INIT 38190 244 .cfa: $rsp 112 + $rbp: .cfa 16 - ^ $r12: .cfa 24 - ^ $r13: .cfa 32 - ^ $r14: .cfa 40 - ^ $r15: .cfa 48 - ^ $rbx: .cfa 0 - ^ $rsi: .cfa 0 - ^ $rdi: .cfa 0 - ^ .ra: .cfa 8 - ^
STACK CFI INIT 383e0 7f .cfa: $rsp 48 + $rdi: .cfa 16 - ^ $rbx: .cfa 0 - ^ .ra: .cfa 8 - ^
STACK CFI INIT 38470 276 .cfa: $rsp 96 + $rbp: .cfa 16 - ^ $rbx: .cfa 24 - ^ $rsi: .cfa 32 - ^ $rdi: .cfa 40 - ^ $r14: .cfa 48 - ^ .ra: .cfa 8 - ^
STACK CFI INIT 386f0 f6 .cfa: $rsp 64 + $rbp: .cfa 16 - ^ $rsi: .cfa 24 - ^ $rdi: .cfa 32 - ^ $rbx: .cfa 0 - ^ .ra: .cfa 8 - ^
STACK CFI INIT 387f0 328 .cfa: $rsp 112 + $rbp: .cfa 16 - ^ $rsi: .cfa 24 - ^ $rdi: .cfa 32 - ^ $r12: .cfa 40 - ^ $r13: .cfa 48 - ^ $r14: .cfa 56 - ^ $r15: .cfa 64 - ^ $rbx: .cfa 0 - ^ .ra: .cfa 8 - ^
STACK CFI INIT 38b20 93 .cfa: $rsp 48 + $rdi: .cfa 16 - ^ $rbx: .cfa 0 - ^ .ra: .cfa 8 - ^
STACK CFI INIT 38bbc 14a .cfa: $rsp 64 + $rbp: .cfa 16 - ^ $rdi: .cfa 24 - ^ $r14: .cfa 32 - ^ $rbx: .cfa 0 - ^ $rsi: .cfa 0 - ^ .ra: .cfa 8 - ^
STACK CFI INIT 38d10 8c .cfa: $rsp 48 + $rdi: .cfa 16 - ^ $rbx: .cfa 0 - ^ $rsi: .cfa 0 - ^ .ra: .cfa 8 - ^
STACK CFI INIT 38dc8 10d .cfa: $rsp 64 + $rdi: .cfa 16 - ^ $r14: .cfa 24 - ^ $r15: .cfa 32 - ^ $rbx: .cfa 0 - ^ $rbp: .cfa 0 - ^ $rsi: .cfa 0 - ^ .ra: .cfa 8 - ^
STACK CFI INIT 38edc b7 .cfa: $rsp 48 + $rdi: .cfa 16 - ^ $rbx: .cfa 0 - ^ $rsi: .cfa 0 - ^ .ra: .cfa 8 - ^
STACK CFI INIT 38f9c 50 .cfa: $rsp 48 + $rdi: .cfa 16 - ^ $rbx: .cfa 0 - ^ .ra: .cfa 8 - ^
STACK CFI INIT 38ff4 108 .cfa: $rsp 64 + $rsi: .cfa 16 - ^ $rdi: .cfa 24 - ^ $r14: .cfa 32 - ^ $rbx: .cfa 0 - ^ $rbp: .cfa 0 - ^ .ra: .cfa 8 - ^
STACK CFI INIT 39104 b1 .cfa: $rsp 64 + $rbx: .cfa 16 - ^ $rsi: .cfa 24 - ^ $rdi: .cfa 32 - ^ .ra: .cfa 8 - ^
STACK CFI INIT 391f0 261 .cfa: $rsp 144 + $rbp: .cfa 16 - ^ $rbx: .cfa 24 - ^ $rsi: .cfa 32 - ^ $rdi: .cfa 40 - ^ $r13: .cfa 48 - ^ $r14: .cfa 56 - ^ $r15: .cfa 64 - ^ .ra: .cfa 8 - ^
STACK CFI INIT 39458 1a9 .cfa: $rsp 80 + $rdi: .cfa 16 - ^ $r14: .cfa 24 - ^ $r15: .cfa 32 - ^ $rbx: .cfa 0 - ^ $rbp: .cfa 0 - ^ $rsi: .cfa 0 - ^ .ra: .cfa 8 - ^
STACK CFI INIT 39608 123 .cfa: $rsp 64 + $rbp: .cfa 16 - ^ $rsi: .cfa 24 - ^ $rdi: .cfa 32 - ^ $rbx: .cfa 0 - ^ .ra: .cfa 8 - ^
STACK CFI INIT 39734 4d .cfa: $rsp 48 + $rdi: .cfa 16 - ^ $rbx: .cfa 0 - ^ .ra: .cfa 8 - ^
STACK CFI INIT 397c0 6f .cfa: $rsp 48 + .ra: .cfa 8 - ^
STACK CFI INIT 39840 101 .cfa: $rsp 80 + $rbx: .cfa 16 - ^ $rbp: .cfa 24 - ^ $rsi: .cfa 32 - ^ $rdi: .cfa 40 - ^ $r14: .cfa 48 - ^ .ra: .cfa 8 - ^
STACK CFI INIT 39960 ca .cfa: $rsp 48 + $rdi: .cfa 16 - ^ $rbx: .cfa 0 - ^ .ra: .cfa 8 - ^
STACK CFI INIT 39a40 38 .cfa: $rsp 48 + $rbx: .cfa 16 - ^ .ra: .cfa 8 - ^
STACK CFI INIT 39a80 47 .cfa: $rsp 48 + $rdi: .cfa 16 - ^ $rbx: .cfa 0 - ^ .ra: .cfa 8 - ^
STACK CFI INIT 39ae0 25 .cfa: $rsp 48 + .ra: .cfa 8 - ^
STACK CFI INIT 39b50 94 .cfa: $rsp 48 + $rdi: .cfa 16 - ^ $rbx: .cfa 0 - ^ $rsi: .cfa 0 - ^ .ra: .cfa 8 - ^
STACK CFI INIT 39bf0 9e .cfa: $rsp 48 + $rdi: .cfa 16 - ^ $rbx: .cfa 0 - ^ $rsi: .cfa 0 - ^ .ra: .cfa 8 - ^
STACK CFI INIT 39ca0 61 .cfa: $rsp 48 + $rdi: .cfa 16 - ^ $rbx: .cfa 0 - ^ $rsi: .cfa 0 - ^ .ra: .cfa 8 - ^
STACK CFI INIT 39d90 76 .cfa: $rsp 48 + $rdi: .cfa 16 - ^ $rbx: .cfa 0 - ^ .ra: .cfa 8 - ^
STACK CFI INIT 39e10 6f .cfa: $rsp 48 + $rdi: .cfa 16 - ^ $rbx: .cfa 0 - ^ .ra: .cfa 8 - ^
STACK CFI INIT 39e90 1e0 .cfa: $rsp 80 + $rbp: .cfa 16 - ^ $rsi: .cfa 24 - ^ $rdi: .cfa 32 - ^ $rbx: .cfa 0 - ^ .ra: .cfa 8 - ^
STACK CFI INIT 3a080 7c .cfa: $rsp 48 + $rdi: .cfa 16 - ^ $rbx: .cfa 0 - ^ .ra: .cfa 8 - ^
STACK CFI INIT 3a110 61 .cfa: $rsp 48 + $rdi: .cfa 16 - ^ $rbx: .cfa 0 - ^ $rsi: .cfa 0 - ^ .ra: .cfa 8 - ^
STACK CFI INIT 3a180 7c .cfa: $rsp 48 + $rdi: .cfa 16 - ^ $rbx: .cfa 0 - ^ .ra: .cfa 8 - ^
STACK CFI INIT 3a270 b9 .cfa: $rsp 48 + $rdi: .cfa 16 - ^ $rbx: .cfa 0 - ^ $rbp: .cfa 0 - ^ $rsi: .cfa 0 - ^ .ra: .cfa 8 - ^
STACK CFI INIT 3a340 de .cfa: $rsp 48 + $r14: .cfa 16 - ^ $rbx: .cfa 0 - ^ $rsi: .cfa 0 - ^ $rdi: .cfa 0 - ^ .ra: .cfa 8 - ^
STACK CFI INIT 3a430 ff .cfa: $rsp 48 + $rdi: .cfa 16 - ^ $rbx: .cfa 0 - ^ $rbp: .cfa 0 - ^ $rsi: .cfa 0 - ^ .ra: .cfa 8 - ^
STACK CFI INIT 3a540 c9 .cfa: $rsp 48 + $rdi: .cfa 16 - ^ $rbx: .cfa 0 - ^ .ra: .cfa 8 - ^
STACK CFI INIT 3a620 27 .cfa: $rsp 48 + $rbx: .cfa 16 - ^ .ra: .cfa 8 - ^
STACK CFI INIT 3a650 a0 .cfa: $rsp 80 + $rdi: .cfa 16 - ^ $rbx: .cfa 0 - ^ $rsi: .cfa 0 - ^ .ra: .cfa 8 - ^
STACK CFI INIT 3a6f8 43 .cfa: $rsp 48 + $rdi: .cfa 16 - ^ $rbx: .cfa 0 - ^ .ra: .cfa 8 - ^
STACK CFI INIT 3a744 88 .cfa: $rsp 64 + $rdi: .cfa 16 - ^ $rbx: .cfa 0 - ^ $rsi: .cfa 0 - ^ .ra: .cfa 8 - ^
STACK CFI INIT 3a7d4 50 .cfa: $rsp 48 + $rdi: .cfa 16 - ^ $rbx: .cfa 0 - ^ .ra: .cfa 8 - ^
STACK CFI INIT 3a82c 39 .cfa: $rsp 48 + $rbx: .cfa 16 - ^ .ra: .cfa 8 - ^
STACK CFI INIT 3a86c b3 .cfa: $rsp 80 + $r14: .cfa 16 - ^ $rbx: .cfa 0 - ^ $rbp: .cfa 0 - ^ $rsi: .cfa 0 - ^ $rdi: .cfa 0 - ^ .ra: .cfa 8 - ^
STACK CFI INIT 3a928 96 .cfa: $rsp 64 + $r14: .cfa 16 - ^ $rbx: .cfa 0 - ^ $rsi: .cfa 0 - ^ $rdi: .cfa 0 - ^ .ra: .cfa 8 - ^
STACK CFI INIT 3a9c4 86 .cfa: $rsp 176 + $rdi: .cfa 16 - ^ $rbx: .cfa 0 - ^ .ra: .cfa 8 - ^
STACK CFI INIT 3aad0 98 .cfa: $rsp 48 + .ra: .cfa 8 - ^
STACK CFI INIT 3ab70 87 .cfa: $rsp 48 + $rdi: .cfa 16 - ^ $rbx: .cfa 0 - ^ .ra: .cfa 8 - ^
STACK CFI INIT 3ac00 9e .cfa: $rsp 48 + $rdi: .cfa 16 - ^ $rbx: .cfa 0 - ^ $rsi: .cfa 0 - ^ .ra: .cfa 8 - ^
STACK CFI INIT 3aca4 21 .cfa: $rsp 48 + .ra: .cfa 8 - ^
STACK CFI INIT 3accc 5d .cfa: $rsp 48 + $rdi: .cfa 16 - ^ $rbx: .cfa 0 - ^ .ra: .cfa 8 - ^
STACK CFI INIT 3ad30 51 .cfa: $rsp 48 + .ra: .cfa 8 - ^
STACK CFI INIT 3ad90 4a .cfa: $rsp 48 + $rdi: .cfa 16 - ^ $rbx: .cfa 0 - ^ .ra: .cfa 8 - ^
STACK CFI INIT 3ade0 344 .cfa: $rsp 192 + $rbp: .cfa 16 - ^ $rsi: .cfa 24 - ^ $rdi: .cfa 32 - ^ $r12: .cfa 40 - ^ $r13: .cfa 48 - ^ $r14: .cfa 56 - ^ $r15: .cfa 64 - ^ $rbx: .cfa 0 - ^ .ra: .cfa 8 - ^
STACK CFI INIT 3b130 1ef .cfa: $rsp 176 + $rbp: .cfa 16 - ^ $r12: .cfa 24 - ^ $r13: .cfa 32 - ^ $r14: .cfa 40 - ^ $r15: .cfa 48 - ^ $rbx: .cfa 0 - ^ $rsi: .cfa 0 - ^ $rdi: .cfa 0 - ^ .ra: .cfa 8 - ^
STACK CFI INIT 3b328 6c .cfa: $rsp 48 + $rdi: .cfa 16 - ^ $rbx: .cfa 0 - ^ $rsi: .cfa 0 - ^ .ra: .cfa 8 - ^
STACK CFI INIT 3b3a0 135 .cfa: $rsp 48 + $rdi: .cfa 16 - ^ $rbx: .cfa 0 - ^ $rsi: .cfa 0 - ^ .ra: .cfa 8 - ^
STACK CFI INIT 3b4e0 4a .cfa: $rsp 48 + $rdi: .cfa 16 - ^ $rbx: .cfa 0 - ^ .ra: .cfa 8 - ^
STACK CFI INIT 3b530 b8 .cfa: $rsp 64 + $rsi: .cfa 16 - ^ $rdi: .cfa 24 - ^ $r14: .cfa 32 - ^ $rbx: .cfa 0 - ^ $rbp: .cfa 0 - ^ .ra: .cfa 8 - ^
STACK CFI INIT 3b5f0 a3 .cfa: $rsp 48 + $rdi: .cfa 16 - ^ $rbx: .cfa 0 - ^ $rsi: .cfa 0 - ^ .ra: .cfa 8 - ^
STACK CFI INIT 3b69c a1 .cfa: $rsp 48 + $r14: .cfa 16 - ^ $rbx: .cfa 0 - ^ $rsi: .cfa 0 - ^ $rdi: .cfa 0 - ^ .ra: .cfa 8 - ^
STACK CFI INIT 3b744 44 .cfa: $rsp 48 + $rbx: .cfa 16 - ^ .ra: .cfa 8 - ^
STACK CFI INIT 3b790 2f .cfa: $rsp 48 + $rbx: .cfa 16 - ^ .ra: .cfa 8 - ^
STACK CFI INIT 3b7ec 77 .cfa: $rsp 48 + $rdi: .cfa 16 - ^ $rbx: .cfa 0 - ^ $rsi: .cfa 0 - ^ .ra: .cfa 8 - ^
STACK CFI INIT 3b86c 59 .cfa: $rsp 48 + $rdi: .cfa 16 - ^ $rbx: .cfa 0 - ^ $rsi: .cfa 0 - ^ .ra: .cfa 8 - ^
STACK CFI INIT 3b8cc d3 .cfa: $rsp 48 + $rdi: .cfa 16 - ^ $rbx: .cfa 0 - ^ $rsi: .cfa 0 - ^ .ra: .cfa 8 - ^
STACK CFI INIT 3b9a8 82 .cfa: $rsp 48 + $rdi: .cfa 16 - ^ $rbx: .cfa 0 - ^ $rbp: .cfa 0 - ^ $rsi: .cfa 0 - ^ .ra: .cfa 8 - ^
STACK CFI INIT 3ba30 b9 .cfa: $rsp 80 + $rdi: .cfa 16 - ^ $r12: .cfa 24 - ^ $r13: .cfa 32 - ^ $r14: .cfa 40 - ^ $r15: .cfa 48 - ^ $rbx: .cfa 0 - ^ $rbp: .cfa 0 - ^ $rsi: .cfa 0 - ^ .ra: .cfa 8 - ^
STACK CFI INIT 3baf0 181 .cfa: $rsp 96 + $rbp: .cfa 16 - ^ $rsi: .cfa 24 - ^ $rdi: .cfa 32 - ^ $r12: .cfa 40 - ^ $r13: .cfa 48 - ^ $r14: .cfa 56 - ^ $r15: .cfa 64 - ^ $rbx: .cfa 0 - ^ .ra: .cfa 8 - ^
STACK CFI INIT 3bc78 ed .cfa: $rsp 48 + $rdi: .cfa 16 - ^ $rbx: .cfa 0 - ^ $rsi: .cfa 0 - ^ .ra: .cfa 8 - ^
STACK CFI INIT 3bd70 36 .cfa: $rsp 48 + $rbx: .cfa 16 - ^ .ra: .cfa 8 - ^
STACK CFI INIT 3bdf4 128 .cfa: $rsp 80 + $rdi: .cfa 16 - ^ $r14: .cfa 24 - ^ $r15: .cfa 32 - ^ $rbx: .cfa 0 - ^ $rbp: .cfa 0 - ^ $rsi: .cfa 0 - ^ .ra: .cfa 8 - ^
STACK CFI INIT 3bf24 24b .cfa: $rsp 112 + $rdi: .cfa 16 - ^ $r12: .cfa 24 - ^ $r13: .cfa 32 - ^ $r14: .cfa 40 - ^ $r15: .cfa 48 - ^ $rbx: .cfa 0 - ^ $rbp: .cfa 0 - ^ $rsi: .cfa 0 - ^ .ra: .cfa 8 - ^
STACK CFI INIT 3c180 a6 .cfa: $rsp 80 + $rdi: .cfa 16 - ^ $rbx: .cfa 0 - ^ $rbp: .cfa 0 - ^ $rsi: .cfa 0 - ^ .ra: .cfa 8 - ^
STACK CFI INIT 3c22c 216 .cfa: $rsp 144 + $rbp: .cfa 16 - ^ $rsi: .cfa 24 - ^ $rdi: .cfa 32 - ^ $r12: .cfa 40 - ^ $r13: .cfa 48 - ^ $r14: .cfa 56 - ^ $r15: .cfa 64 - ^ $rbx: .cfa 0 - ^ .ra: .cfa 8 - ^
STACK CFI INIT 3c450 9c .cfa: $rsp 80 + $rdi: .cfa 16 - ^ $rbx: .cfa 0 - ^ $rsi: .cfa 0 - ^ .ra: .cfa 8 - ^
STACK CFI INIT 3c520 23 .cfa: $rsp 48 + .ra: .cfa 8 - ^
STACK CFI INIT 3c578 2b .cfa: $rsp 48 + $rdi: .cfa 16 - ^ $rbx: .cfa 0 - ^ .ra: .cfa 8 - ^
STACK CFI INIT 3c5ac 2a .cfa: $rsp 48 + .ra: .cfa 8 - ^
STACK CFI INIT 3c5e0 43 .cfa: $rsp 48 + $rdi: .cfa 16 - ^ $rbx: .cfa 0 - ^ .ra: .cfa 8 - ^
STACK CFI INIT 3c62c 138 .cfa: $rsp 64 + $rdi: .cfa 16 - ^ $rbx: .cfa 0 - ^ .ra: .cfa 8 - ^
STACK CFI INIT 3c784 14d .cfa: $rsp 48 + $rbp: .cfa 16 - ^ $rbx: .cfa 0 - ^ $rsi: .cfa 0 - ^ $rdi: .cfa 0 - ^ .ra: .cfa 8 - ^
STACK CFI INIT 3c8d8 99 .cfa: $rsp 48 + $rdi: .cfa 16 - ^ $rbx: .cfa 0 - ^ $rsi: .cfa 0 - ^ .ra: .cfa 8 - ^
STACK CFI INIT 3c978 600 .cfa: $rsp 144 + $rbp: .cfa 16 - ^ $rsi: .cfa 24 - ^ $rdi: .cfa 32 - ^ $r12: .cfa 40 - ^ $r13: .cfa 48 - ^ $r14: .cfa 56 - ^ $r15: .cfa 64 - ^ $rbx: .cfa 0 - ^ .ra: .cfa 8 - ^
STACK CFI INIT 3cf80 e3 .cfa: $rsp 48 + $rdi: .cfa 16 - ^ $rbx: .cfa 0 - ^ $rsi: .cfa 0 - ^ .ra: .cfa 8 - ^
STACK CFI INIT 3d06c 334 .cfa: $rsp 128 + $rbp: .cfa 16 - ^ $rsi: .cfa 24 - ^ $rdi: .cfa 32 - ^ $r12: .cfa 40 - ^ $r13: .cfa 48 - ^ $r14: .cfa 56 - ^ $r15: .cfa 64 - ^ $rbx: .cfa 0 - ^ .ra: .cfa 8 - ^
STACK CFI INIT 3d3a8 2ae .cfa: $rsp 80 + $rsi: .cfa 16 - ^ $rdi: .cfa 24 - ^ $r12: .cfa 32 - ^ $r14: .cfa 40 - ^ $r15: .cfa 48 - ^ $rbx: .cfa 0 - ^ $rbp: .cfa 0 - ^ .ra: .cfa 8 - ^
STACK CFI INIT 3d65c 457 .cfa: $rsp 128 + $rbp: .cfa 16 - ^ $r12: .cfa 24 - ^ $r13: .cfa 32 - ^ $r14: .cfa 40 - ^ $r15: .cfa 48 - ^ $rbx: .cfa 0 - ^ $rsi: .cfa 0 - ^ $rdi: .cfa 0 - ^ .ra: .cfa 8 - ^
STACK CFI INIT 3dabc 2a7 .cfa: $rsp 80 + $rdi: .cfa 16 - ^ $r12: .cfa 24 - ^ $r13: .cfa 32 - ^ $r14: .cfa 40 - ^ $r15: .cfa 48 - ^ $rbx: .cfa 0 - ^ $rbp: .cfa 0 - ^ $rsi: .cfa 0 - ^ .ra: .cfa 8 - ^
STACK CFI INIT 3dd94 1ba .cfa: $rsp 80 + $rdi: .cfa 16 - ^ $r12: .cfa 24 - ^ $r14: .cfa 32 - ^ $rbx: .cfa 0 - ^ $rbp: .cfa 0 - ^ $rsi: .cfa 0 - ^ .ra: .cfa 8 - ^
STACK CFI INIT 3df54 197 .cfa: $rsp 96 + $r13: .cfa 16 - ^ $r14: .cfa 24 - ^ $r15: .cfa 32 - ^ $rbx: .cfa 0 - ^ $rbp: .cfa 0 - ^ $rsi: .cfa 0 - ^ $rdi: .cfa 0 - ^ .ra: .cfa 8 - ^
STACK CFI INIT 3e0f4 b9 .cfa: $rsp 80 + $rsi: .cfa 16 - ^ $rdi: .cfa 24 - ^ $r14: .cfa 32 - ^ $rbx: .cfa 0 - ^ .ra: .cfa 8 - ^
STACK CFI INIT 3e1b4 98 .cfa: $rsp 48 + $rdi: .cfa 16 - ^ $rbx: .cfa 0 - ^ $rsi: .cfa 0 - ^ .ra: .cfa 8 - ^
STACK CFI INIT 3e254 da .cfa: $rsp 64 + $rsi: .cfa 16 - ^ $rdi: .cfa 24 - ^ $r14: .cfa 32 - ^ $rbx: .cfa 0 - ^ $rbp: .cfa 0 - ^ .ra: .cfa 8 - ^
STACK CFI INIT 3e398 2d9 .cfa: $rsp 80 + $rdi: .cfa 16 - ^ $r12: .cfa 24 - ^ $r13: .cfa 32 - ^ $r14: .cfa 40 - ^ $r15: .cfa 48 - ^ $rbx: .cfa 0 - ^ $rbp: .cfa 0 - ^ $rsi: .cfa 0 - ^ .ra: .cfa 8 - ^
STACK CFI INIT 3e678 1fa .cfa: $rsp 80 + $rdi: .cfa 16 - ^ $r12: .cfa 24 - ^ $r13: .cfa 32 - ^ $r14: .cfa 40 - ^ $r15: .cfa 48 - ^ $rbx: .cfa 0 - ^ $rbp: .cfa 0 - ^ $rsi: .cfa 0 - ^ .ra: .cfa 8 - ^
STACK CFI INIT 3e878 86 .cfa: $rsp 48 + $rdi: .cfa 16 - ^ $rbx: .cfa 0 - ^ $rsi: .cfa 0 - ^ .ra: .cfa 8 - ^
STACK CFI INIT 3e904 123 .cfa: $rsp 80 + $rbx: .cfa 16 - ^ $rbp: .cfa 24 - ^ $rsi: .cfa 32 - ^ $rdi: .cfa 40 - ^ $r14: .cfa 48 - ^ .ra: .cfa 8 - ^
STACK CFI INIT 3ea98 3fa .cfa: $rsp 80 + $rdi: .cfa 16 - ^ $r12: .cfa 24 - ^ $r13: .cfa 32 - ^ $r14: .cfa 40 - ^ $r15: .cfa 48 - ^ $rbx: .cfa 0 - ^ $rbp: .cfa 0 - ^ $rsi: .cfa 0 - ^ .ra: .cfa 8 - ^
STACK CFI INIT 3eecc 53 .cfa: $rsp 48 + $rdi: .cfa 16 - ^ $rbx: .cfa 0 - ^ .ra: .cfa 8 - ^
STACK CFI INIT 3f028 45 .cfa: $rsp 48 + .ra: .cfa 8 - ^
STACK CFI INIT 3f0ac 1a6 .cfa: $rsp 112 + $rdi: .cfa 16 - ^ $r12: .cfa 24 - ^ $r13: .cfa 32 - ^ $r14: .cfa 40 - ^ $r15: .cfa 48 - ^ $rbx: .cfa 0 - ^ $rbp: .cfa 0 - ^ $rsi: .cfa 0 - ^ .ra: .cfa 8 - ^
STACK CFI INIT 3f258 62 .cfa: $rsp 48 + $rdi: .cfa 16 - ^ $rbx: .cfa 0 - ^ $rsi: .cfa 0 - ^ .ra: .cfa 8 - ^
STACK CFI INIT 3f2c0 61 .cfa: $rsp 48 + $rdi: .cfa 16 - ^ $rbx: .cfa 0 - ^ $rsi: .cfa 0 - ^ .ra: .cfa 8 - ^
STACK CFI INIT 3f328 52 .cfa: $rsp 64 + $rdi: .cfa 16 - ^ $rbx: .cfa 0 - ^ .ra: .cfa 8 - ^
STACK CFI INIT 3f380 65 .cfa: $rsp 48 + $rdi: .cfa 16 - ^ $rbx: .cfa 0 - ^ .ra: .cfa 8 - ^
STACK CFI INIT 3f3ec 62 .cfa: $rsp 48 + $rdi: .cfa 16 - ^ $rbx: .cfa 0 - ^ .ra: .cfa 8 - ^
STACK CFI INIT 3f454 ae .cfa: $rsp 80 + $rdi: .cfa 16 - ^ $rbx: .cfa 0 - ^ $rsi: .cfa 0 - ^ .ra: .cfa 8 - ^
STACK CFI INIT 3f508 72 .cfa: $rsp 48 + $rdi: .cfa 16 - ^ $rbx: .cfa 0 - ^ $rsi: .cfa 0 - ^ .ra: .cfa 8 - ^
STACK CFI INIT 3f5bc 8c .cfa: $rsp 64 + $r14: .cfa 16 - ^ $rbx: .cfa 0 - ^ $rsi: .cfa 0 - ^ $rdi: .cfa 0 - ^ .ra: .cfa 8 - ^
STACK CFI INIT 3f650 13f .cfa: $rsp 48 + $rdi: .cfa 16 - ^ $rbx: .cfa 0 - ^ $rbp: .cfa 0 - ^ .ra: .cfa 8 - ^
STACK CFI INIT 3f798 8e .cfa: $rsp 368 + $rdi: .cfa 16 - ^ $rbx: .cfa 0 - ^ .ra: .cfa 8 - ^
STACK CFI INIT 3f82c 136 .cfa: $rsp 640 + $rsi: .cfa 16 - ^ $rdi: .cfa 24 - ^ $r14: .cfa 32 - ^ $rbx: .cfa 0 - ^ .ra: .cfa 8 - ^
STACK CFI INIT 3f968 a2 .cfa: $rsp 48 + $rdi: .cfa 16 - ^ $rbx: .cfa 0 - ^ .ra: .cfa 8 - ^
STACK CFI INIT 3fa10 92 .cfa: $rsp 48 + $rdi: .cfa 16 - ^ $rbx: .cfa 0 - ^ $rbp: .cfa 0 - ^ $rsi: .cfa 0 - ^ .ra: .cfa 8 - ^
STACK CFI INIT 3faa8 18a .cfa: $rsp 112 + $rbp: .cfa 16 - ^ $rbx: .cfa 24 - ^ $rsi: .cfa 32 - ^ $rdi: .cfa 40 - ^ $r12: .cfa 48 - ^ $r13: .cfa 56 - ^ $r14: .cfa 64 - ^ $r15: .cfa 72 - ^ .ra: .cfa 8 - ^
STACK CFI INIT 3fc38 e0 .cfa: $rsp 64 + $rsi: .cfa 16 - ^ $rdi: .cfa 24 - ^ $r14: .cfa 32 - ^ $rbx: .cfa 0 - ^ $rbp: .cfa 0 - ^ .ra: .cfa 8 - ^
STACK CFI INIT 3fd58 52 .cfa: $rsp 48 + $rdi: .cfa 16 - ^ $rbx: .cfa 0 - ^ $rsi: .cfa 0 - ^ .ra: .cfa 8 - ^
STACK CFI INIT 3fdb0 123 .cfa: $rsp 80 + $rdi: .cfa 16 - ^ $r12: .cfa 24 - ^ $r13: .cfa 32 - ^ $r14: .cfa 40 - ^ $r15: .cfa 48 - ^ $rbx: .cfa 0 - ^ $rbp: .cfa 0 - ^ $rsi: .cfa 0 - ^ .ra: .cfa 8 - ^
STACK CFI INIT 3fefc 87 .cfa: $rsp 48 + $rdi: .cfa 16 - ^ $rbx: .cfa 0 - ^ $rbp: .cfa 0 - ^ $rsi: .cfa 0 - ^ .ra: .cfa 8 - ^
STACK CFI INIT 3ff8c 5d .cfa: $rsp 48 + $rdi: .cfa 16 - ^ $rbx: .cfa 0 - ^ $rsi: .cfa 0 - ^ .ra: .cfa 8 - ^
STACK CFI INIT 3fff0 14e .cfa: $rsp 48 + $rdi: .cfa 16 - ^ $rbx: .cfa 0 - ^ $rsi: .cfa 0 - ^ .ra: .cfa 8 - ^
STACK CFI INIT 40144 6a .cfa: $rsp 48 + $rbx: .cfa 16 - ^ .ra: .cfa 8 - ^
STACK CFI INIT 401b4 85 .cfa: $rsp 48 + $rdi: .cfa 16 - ^ $rbx: .cfa 0 - ^ .ra: .cfa 8 - ^
STACK CFI INIT 40240 54 .cfa: $rsp 48 + .ra: .cfa 8 - ^
STACK CFI INIT 4029c fb .cfa: $rsp 64 + $rbp: .cfa 16 - ^ $rsi: .cfa 24 - ^ $rdi: .cfa 32 - ^ $rbx: .cfa 0 - ^ .ra: .cfa 8 - ^
STACK CFI INIT 403a0 11b .cfa: $rsp 48 + $rdi: .cfa 16 - ^ $rbx: .cfa 0 - ^ $rsi: .cfa 0 - ^ .ra: .cfa 8 - ^
STACK CFI INIT 404c4 96 .cfa: $rsp 48 + $r14: .cfa 16 - ^ $rbx: .cfa 0 - ^ $rbp: .cfa 0 - ^ $rsi: .cfa 0 - ^ $rdi: .cfa 0 - ^ .ra: .cfa 8 - ^
STACK CFI INIT 40560 4d .cfa: $rsp 48 + $rdi: .cfa 16 - ^ $rbx: .cfa 0 - ^ .ra: .cfa 8 - ^
STACK CFI INIT 406c4 52 .cfa: $rsp 48 + $rbx: .cfa 16 - ^ .ra: .cfa 8 - ^
STACK CFI INIT 4071c 24 .cfa: $rsp 48 + $rbx: .cfa 16 - ^ .ra: .cfa 8 - ^
STACK CFI INIT 407c8 321 .cfa: $rsp 128 + $rbp: .cfa 16 - ^ $rsi: .cfa 24 - ^ $rdi: .cfa 32 - ^ $r12: .cfa 40 - ^ $r13: .cfa 48 - ^ $r14: .cfa 56 - ^ $r15: .cfa 64 - ^ $rbx: .cfa 0 - ^ .ra: .cfa 8 - ^
STACK CFI INIT 40af0 ee .cfa: $rsp 48 + $rdi: .cfa 16 - ^ $rbx: .cfa 0 - ^ $rsi: .cfa 0 - ^ .ra: .cfa 8 - ^
STACK CFI INIT 40be4 26f .cfa: $rsp 112 + $rbp: .cfa 16 - ^ $rsi: .cfa 24 - ^ $rdi: .cfa 32 - ^ $r12: .cfa 40 - ^ $r13: .cfa 48 - ^ $r14: .cfa 56 - ^ $r15: .cfa 64 - ^ $rbx: .cfa 0 - ^ .ra: .cfa 8 - ^
STACK CFI INIT 40e5c ba .cfa: $rsp 8 + $rbx: .cfa 0 - ^ .ra: .cfa 8 - ^
STACK CFI INIT 40f38 1a4 .cfa: $rsp 112 + $rbp: .cfa 16 - ^ $rsi: .cfa 24 - ^ $rdi: .cfa 32 - ^ $r12: .cfa 40 - ^ $r13: .cfa 48 - ^ $r14: .cfa 56 - ^ $r15: .cfa 64 - ^ $rbx: .cfa 0 - ^ .ra: .cfa 8 - ^
STACK CFI INIT 410e4 178 .cfa: $rsp 64 + $rdi: .cfa 16 - ^ $rbx: .cfa 0 - ^ $rsi: .cfa 0 - ^ .ra: .cfa 8 - ^
STACK CFI INIT 41264 d7 .cfa: $rsp 64 + $rdi: .cfa 16 - ^ $rbx: .cfa 0 - ^ $rbp: .cfa 0 - ^ $rsi: .cfa 0 - ^ .ra: .cfa 8 - ^
STACK CFI INIT 41344 c9 .cfa: $rsp 80 + $rsi: .cfa 16 - ^ $rdi: .cfa 24 - ^ $r14: .cfa 32 - ^ $rbx: .cfa 0 - ^ $rbp: .cfa 0 - ^ .ra: .cfa 8 - ^
STACK CFI INIT 41414 f6 .cfa: $rsp 48 + $r14: .cfa 16 - ^ $rbx: .cfa 0 - ^ $rbp: .cfa 0 - ^ $rsi: .cfa 0 - ^ $rdi: .cfa 0 - ^ .ra: .cfa 8 - ^
STACK CFI INIT 41510 39 .cfa: $rsp 48 + .ra: .cfa 8 - ^
STACK CFI INIT 41550 11a .cfa: $rsp 64 + $rsi: .cfa 16 - ^ $rdi: .cfa 24 - ^ $r14: .cfa 32 - ^ $rbx: .cfa 0 - ^ $rbp: .cfa 0 - ^ .ra: .cfa 8 - ^
STACK CFI INIT 41670 106 .cfa: $rsp 96 + $rdi: .cfa 16 - ^ $r14: .cfa 24 - ^ $r15: .cfa 32 - ^ $rbx: .cfa 0 - ^ $rbp: .cfa 0 - ^ $rsi: .cfa 0 - ^ .ra: .cfa 8 - ^
STACK CFI INIT 4177c 84 .cfa: $rsp 96 + $rsi: .cfa 16 - ^ $rdi: .cfa 24 - ^ $r14: .cfa 32 - ^ $rbx: .cfa 0 - ^ $rbp: .cfa 0 - ^ .ra: .cfa 8 - ^
STACK CFI INIT 41808 18c .cfa: $rsp 80 + $rbp: .cfa 16 - ^ $rdi: .cfa 24 - ^ $r14: .cfa 32 - ^ $rbx: .cfa 0 - ^ $rsi: .cfa 0 - ^ .ra: .cfa 8 - ^
STACK CFI INIT 4199c 15e .cfa: $rsp 96 + $rdi: .cfa 16 - ^ $r12: .cfa 24 - ^ $r13: .cfa 32 - ^ $r14: .cfa 40 - ^ $r15: .cfa 48 - ^ $rbx: .cfa 0 - ^ $rbp: .cfa 0 - ^ $rsi: .cfa 0 - ^ .ra: .cfa 8 - ^
STACK CFI INIT 41b00 4c .cfa: $rsp 48 + $rbx: .cfa 16 - ^ .ra: .cfa 8 - ^
STACK CFI INIT 41b70 6d .cfa: $rsp 48 + $rdi: .cfa 16 - ^ $rbx: .cfa 0 - ^ $rsi: .cfa 0 - ^ .ra: .cfa 8 - ^
STACK CFI INIT 41c08 1a4 .cfa: $rsp 48 + $rdi: .cfa 16 - ^ $rbx: .cfa 0 - ^ $rsi: .cfa 0 - ^ .ra: .cfa 8 - ^
STACK CFI INIT 41db4 39e .cfa: $rsp 176 + $rbp: .cfa 16 - ^ $rsi: .cfa 24 - ^ $rdi: .cfa 32 - ^ $r12: .cfa 40 - ^ $r13: .cfa 48 - ^ $r14: .cfa 56 - ^ $r15: .cfa 64 - ^ $rbx: .cfa 0 - ^ .ra: .cfa 8 - ^
STACK CFI INIT 42158 68 .cfa: $rsp 48 + $rdi: .cfa 16 - ^ $rbx: .cfa 0 - ^ $rsi: .cfa 0 - ^ .ra: .cfa 8 - ^
STACK CFI INIT 421c8 1d7 .cfa: $rsp 96 + $rdi: .cfa 16 - ^ $r12: .cfa 24 - ^ $r13: .cfa 32 - ^ $r14: .cfa 40 - ^ $r15: .cfa 48 - ^ $rbx: .cfa 0 - ^ $rbp: .cfa 0 - ^ $rsi: .cfa 0 - ^ .ra: .cfa 8 - ^
STACK CFI INIT 423a8 409 .cfa: $rsp 208 + $rbp: .cfa 16 - ^ $rbx: .cfa 24 - ^ $rsi: .cfa 32 - ^ $rdi: .cfa 40 - ^ $r12: .cfa 48 - ^ $r13: .cfa 56 - ^ $r14: .cfa 64 - ^ $r15: .cfa 72 - ^ .ra: .cfa 8 - ^
STACK CFI INIT 427b8 78 .cfa: $rsp 48 + $rdi: .cfa 16 - ^ $rbx: .cfa 0 - ^ $rsi: .cfa 0 - ^ .ra: .cfa 8 - ^
STACK CFI INIT 42838 83 .cfa: $rsp 48 + $rdi: .cfa 16 - ^ $rbx: .cfa 0 - ^ $rbp: .cfa 0 - ^ $rsi: .cfa 0 - ^ .ra: .cfa 8 - ^
STACK CFI INIT 428c4 9a .cfa: $rsp 48 + $rdi: .cfa 16 - ^ $rbx: .cfa 0 - ^ $rsi: .cfa 0 - ^ .ra: .cfa 8 - ^
STACK CFI INIT 42964 8f .cfa: $rsp 48 + $rdi: .cfa 16 - ^ $rbx: .cfa 0 - ^ $rsi: .cfa 0 - ^ .ra: .cfa 8 - ^
STACK CFI INIT 429fc 75 .cfa: $rsp 48 + $rdi: .cfa 16 - ^ $rbx: .cfa 0 - ^ .ra: .cfa 8 - ^
STACK CFI INIT 42a78 1ca .cfa: $rsp 128 + $rbp: .cfa 16 - ^ $rbx: .cfa 24 - ^ $rsi: .cfa 32 - ^ $rdi: .cfa 40 - ^ $r12: .cfa 48 - ^ $r14: .cfa 56 - ^ $r15: .cfa 64 - ^ .ra: .cfa 8 - ^
STACK CFI INIT 42c48 9a .cfa: $rsp 48 + $rdi: .cfa 16 - ^ $rbx: .cfa 0 - ^ $rsi: .cfa 0 - ^ .ra: .cfa 8 - ^
STACK CFI INIT 42ce8 76 .cfa: $rsp 8 + $rbx: .cfa 0 - ^ .ra: .cfa 8 - ^
STACK CFI INIT 42d64 56 .cfa: $rsp 48 + .ra: .cfa 8 - ^
STACK CFI INIT 42dc0 34 .cfa: $rsp 48 + .ra: .cfa 8 - ^
STACK CFI INIT 42dfc 17d .cfa: $rsp 80 + $rdi: .cfa 16 - ^ $r12: .cfa 24 - ^ $r13: .cfa 32 - ^ $r14: .cfa 40 - ^ $r15: .cfa 48 - ^ $rbx: .cfa 0 - ^ $rbp: .cfa 0 - ^ $rsi: .cfa 0 - ^ .ra: .cfa 8 - ^
STACK CFI INIT 42f80 e5 .cfa: $rsp 48 + $r14: .cfa 16 - ^ $rbx: .cfa 0 - ^ $rsi: .cfa 0 - ^ $rdi: .cfa 0 - ^ .ra: .cfa 8 - ^
STACK CFI INIT 4306c 40 .cfa: $rsp 48 + $rdi: .cfa 16 - ^ $rbx: .cfa 0 - ^ .ra: .cfa 8 - ^
STACK CFI INIT 430b4 8a .cfa: $rsp 48 + $rdi: .cfa 16 - ^ $rbx: .cfa 0 - ^ $rsi: .cfa 0 - ^ .ra: .cfa 8 - ^
STACK CFI INIT 43144 69 .cfa: $rsp 48 + $rdi: .cfa 16 - ^ $rbx: .cfa 0 - ^ .ra: .cfa 8 - ^
STACK CFI INIT 43214 8b .cfa: $rsp 48 + $rdi: .cfa 16 - ^ $rbx: .cfa 0 - ^ $rsi: .cfa 0 - ^ .ra: .cfa 8 - ^
STACK CFI INIT 432a8 1e8 .cfa: $rsp 48 + $rdi: .cfa 16 - ^ $rbx: .cfa 0 - ^ $rsi: .cfa 0 - ^ .ra: .cfa 8 - ^
STACK CFI INIT 43498 91 .cfa: $rsp 48 + $rdi: .cfa 16 - ^ $rbx: .cfa 0 - ^ .ra: .cfa 8 - ^
STACK CFI INIT 43598 25c .cfa: $rsp 64 + $rbp: .cfa 16 - ^ $rdi: .cfa 24 - ^ $r14: .cfa 32 - ^ $rbx: .cfa 0 - ^ $rsi: .cfa 0 - ^ .ra: .cfa 8 - ^
STACK CFI INIT 437fc 81 .cfa: $rsp 48 + $r14: .cfa 16 - ^ $rbx: .cfa 0 - ^ $rbp: .cfa 0 - ^ $rsi: .cfa 0 - ^ $rdi: .cfa 0 - ^ .ra: .cfa 8 - ^
STACK CFI INIT 43884 40 .cfa: $rsp 48 + .ra: .cfa 8 - ^
STACK CFI INIT 438cc 1f1 .cfa: $rsp 656 + $rbp: .cfa 16 - ^ $rbx: .cfa 24 - ^ $rsi: .cfa 32 - ^ $rdi: .cfa 40 - ^ $r12: .cfa 48 - ^ $r14: .cfa 56 - ^ $r15: .cfa 64 - ^ .ra: .cfa 8 - ^
STACK CFI INIT 43ac4 af .cfa: $rsp 48 + $rdi: .cfa 16 - ^ $rbx: .cfa 0 - ^ $rsi: .cfa 0 - ^ .ra: .cfa 8 - ^
STACK CFI INIT 43b7c 99 .cfa: $rsp 48 + $rdi: .cfa 16 - ^ $rbx: .cfa 0 - ^ $rsi: .cfa 0 - ^ .ra: .cfa 8 - ^
STACK CFI INIT 43c20 4c8 .cfa: $rsp 176 + $rbp: .cfa 16 - ^ $r12: .cfa 24 - ^ $r13: .cfa 32 - ^ $r14: .cfa 40 - ^ $r15: .cfa 48 - ^ $rbx: .cfa 0 - ^ $rsi: .cfa 0 - ^ $rdi: .cfa 0 - ^ .ra: .cfa 8 - ^
STACK CFI INIT 440f0 689 .cfa: $rsp 304 + $rbp: .cfa 16 - ^ $rsi: .cfa 24 - ^ $rdi: .cfa 32 - ^ $r12: .cfa 40 - ^ $r13: .cfa 48 - ^ $r14: .cfa 56 - ^ $r15: .cfa 64 - ^ $rbx: .cfa 0 - ^ .ra: .cfa 8 - ^
STACK CFI INIT 44780 985 .cfa: $rsp 304 + $rbp: .cfa 16 - ^ $rbx: .cfa 24 - ^ $rsi: .cfa 32 - ^ $rdi: .cfa 40 - ^ $r12: .cfa 48 - ^ $r13: .cfa 56 - ^ $r14: .cfa 64 - ^ $r15: .cfa 72 - ^ .ra: .cfa 8 - ^
STACK CFI INIT 4510c 76 .cfa: $rsp 96 + $rbx: .cfa 16 - ^ .ra: .cfa 8 - ^
STACK CFI INIT 45190 2b .cfa: $rsp 48 + $rbx: .cfa 16 - ^ .ra: .cfa 8 - ^
STACK CFI INIT 451c4 61 .cfa: $rsp 48 + $rdi: .cfa 16 - ^ $rbx: .cfa 0 - ^ $rsi: .cfa 0 - ^ .ra: .cfa 8 - ^
STACK CFI INIT 4522c 62 .cfa: $rsp 8 + $rbx: .cfa 0 - ^ $rdi: .cfa 0 - ^ .ra: .cfa 8 - ^
STACK CFI INIT 45294 2f .cfa: $rsp 48 + $rbx: .cfa 16 - ^ .ra: .cfa 8 - ^
STACK CFI INIT 452cc 69 .cfa: $rsp 48 + $rdi: .cfa 16 - ^ $rbx: .cfa 0 - ^ .ra: .cfa 8 - ^
STACK CFI INIT 4533c 31 .cfa: $rsp 48 + $rbx: .cfa 16 - ^ .ra: .cfa 8 - ^
STACK CFI INIT 45374 8e .cfa: $rsp 48 + $rdi: .cfa 16 - ^ $rbx: .cfa 0 - ^ $rsi: .cfa 0 - ^ .ra: .cfa 8 - ^
STACK CFI INIT 45408 18d .cfa: $rsp 64 + $r12: .cfa 16 - ^ $r14: .cfa 24 - ^ $r15: .cfa 32 - ^ $rbx: .cfa 0 - ^ $rbp: .cfa 0 - ^ $rsi: .cfa 0 - ^ $rdi: .cfa 0 - ^ .ra: .cfa 8 - ^
STACK CFI INIT 4559c 78 .cfa: $rsp 48 + $rdi: .cfa 16 - ^ $rbx: .cfa 0 - ^ $rsi: .cfa 0 - ^ .ra: .cfa 8 - ^
STACK CFI INIT 4561c dc .cfa: $rsp 48 + $rdi: .cfa 16 - ^ $rbx: .cfa 0 - ^ .ra: .cfa 8 - ^
STACK CFI INIT 457a0 c4 .cfa: $rsp 16 + $rbx: .cfa 16 - ^ .ra: .cfa 8 - ^
STACK CFI INIT 4586c ef .cfa: $rsp 96 + $rdi: .cfa 16 - ^ $r12: .cfa 24 - ^ $r13: .cfa 32 - ^ $r14: .cfa 40 - ^ $r15: .cfa 48 - ^ $rbx: .cfa 0 - ^ $rbp: .cfa 0 - ^ $rsi: .cfa 0 - ^ .ra: .cfa 8 - ^
STACK CFI INIT 45964 72 .cfa: $rsp 64 + $rdi: .cfa 16 - ^ $rbx: .cfa 0 - ^ $rbp: .cfa 0 - ^ $rsi: .cfa 0 - ^ .ra: .cfa 8 - ^
STACK CFI INIT 459dc 33d .cfa: $rsp 112 + $rbp: .cfa 16 - ^ $rsi: .cfa 24 - ^ $rdi: .cfa 32 - ^ $r12: .cfa 40 - ^ $r13: .cfa 48 - ^ $r14: .cfa 56 - ^ $r15: .cfa 64 - ^ $rbx: .cfa 0 - ^ .ra: .cfa 8 - ^
STACK CFI INIT 45d20 1d1 .cfa: $rsp 96 + $rsi: .cfa 16 - ^ $rdi: .cfa 24 - ^ $r12: .cfa 32 - ^ $r14: .cfa 40 - ^ $r15: .cfa 48 - ^ $rbx: .cfa 0 - ^ $rbp: .cfa 0 - ^ .ra: .cfa 8 - ^
STACK CFI INIT 45ef8 237 .cfa: $rsp 128 + $rbp: .cfa 16 - ^ $rdi: .cfa 24 - ^ $r12: .cfa 32 - ^ $r14: .cfa 40 - ^ $r15: .cfa 48 - ^ $rbx: .cfa 0 - ^ $rsi: .cfa 0 - ^ .ra: .cfa 8 - ^
STACK CFI INIT 46138 31 .cfa: $rsp 48 + $rbx: .cfa 16 - ^ .ra: .cfa 8 - ^
STACK CFI INIT 46170 112 .cfa: $rsp 64 + $r14: .cfa 16 - ^ $rbx: .cfa 0 - ^ $rsi: .cfa 0 - ^ $rdi: .cfa 0 - ^ .ra: .cfa 8 - ^
STACK CFI INIT 46288 32d .cfa: $rsp 112 + $rbp: .cfa 16 - ^ $r12: .cfa 24 - ^ $r13: .cfa 32 - ^ $r14: .cfa 40 - ^ $r15: .cfa 48 - ^ $rbx: .cfa 0 - ^ $rsi: .cfa 0 - ^ $rdi: .cfa 0 - ^ .ra: .cfa 8 - ^
STACK CFI INIT 465c0 83 .cfa: $rsp 48 + $rdi: .cfa 16 - ^ $rbx: .cfa 0 - ^ $rsi: .cfa 0 - ^ .ra: .cfa 8 - ^
STACK CFI INIT 46650 89 .cfa: $rsp 80 + $rdi: .cfa 16 - ^ $rbx: .cfa 0 - ^ $rbp: .cfa 0 - ^ $rsi: .cfa 0 - ^ .ra: .cfa 8 - ^
STACK CFI INIT 466e0 215 .cfa: $rsp 48 + $r14: .cfa 16 - ^ $rbx: .cfa 0 - ^ $rbp: .cfa 0 - ^ $rsi: .cfa 0 - ^ $rdi: .cfa 0 - ^ .ra: .cfa 8 - ^
STACK CFI INIT 468fc 218 .cfa: $rsp 48 + $rdi: .cfa 16 - ^ $rbx: .cfa 0 - ^ $rsi: .cfa 0 - ^ .ra: .cfa 8 - ^
STACK CFI INIT 46b1c 2e .cfa: $rsp 48 + $rbx: .cfa 16 - ^ .ra: .cfa 8 - ^
STACK CFI INIT 46b50 2b .cfa: $rsp 48 + $rbx: .cfa 16 - ^ .ra: .cfa 8 - ^
STACK CFI INIT 46b84 59 .cfa: $rsp 48 + $rbx: .cfa 16 - ^ .ra: .cfa 8 - ^
STACK CFI INIT 46be4 5e .cfa: $rsp 64 + $rdi: .cfa 16 - ^ $rbx: .cfa 0 - ^ .ra: .cfa 8 - ^
STACK CFI INIT 46c48 494 .cfa: $rsp 48 + $rbp: .cfa 16 - ^ $rbx: .cfa 0 - ^ $rdi: .cfa 0 - ^ .ra: .cfa 8 - ^
STACK CFI INIT 470e4 56 .cfa: $rsp 64 + $rdi: .cfa 16 - ^ $rbx: .cfa 0 - ^ .ra: .cfa 8 - ^
STACK CFI INIT 47140 c5 .cfa: $rsp 48 + $rdi: .cfa 16 - ^ $rbx: .cfa 0 - ^ .ra: .cfa 8 - ^
STACK CFI INIT 4720c 145 .cfa: $rsp 8 + $rbx: .cfa 0 - ^ $rsi: .cfa 0 - ^ $rdi: .cfa 0 - ^ .ra: .cfa 8 - ^
STACK CFI INIT 47358 7a3 .cfa: $rsp 192 + $rbp: .cfa 16 - ^ $rbx: .cfa 24 - ^ $rsi: .cfa 32 - ^ $rdi: .cfa 40 - ^ $r12: .cfa 48 - ^ $r13: .cfa 56 - ^ $r14: .cfa 64 - ^ $r15: .cfa 72 - ^ .ra: .cfa 8 - ^
STACK CFI INIT 47b04 3e .cfa: $rsp 48 + $rdi: .cfa 16 - ^ $rbx: .cfa 0 - ^ .ra: .cfa 8 - ^
STACK CFI INIT 47b48 b3 .cfa: $rsp 48 + $r14: .cfa 16 - ^ $rbx: .cfa 0 - ^ $rsi: .cfa 0 - ^ $rdi: .cfa 0 - ^ .ra: .cfa 8 - ^
STACK CFI INIT 47c04 2e .cfa: $rsp 48 + $rbx: .cfa 16 - ^ .ra: .cfa 8 - ^
STACK CFI INIT 47c38 575 .cfa: $rsp 176 + $rbp: .cfa 16 - ^ $rbx: .cfa 24 - ^ $rsi: .cfa 32 - ^ $rdi: .cfa 40 - ^ $r12: .cfa 48 - ^ $r13: .cfa 56 - ^ $r14: .cfa 64 - ^ $r15: .cfa 72 - ^ .ra: .cfa 8 - ^
STACK CFI INIT 481b4 26 .cfa: $rsp 48 + .ra: .cfa 8 - ^
STACK CFI INIT 481e0 41 .cfa: $rsp 48 + $rdi: .cfa 16 - ^ $rbx: .cfa 0 - ^ .ra: .cfa 8 - ^
STACK CFI INIT 48230 5b2 .cfa: $rsp 176 + $rbp: .cfa 16 - ^ $rsi: .cfa 24 - ^ $rdi: .cfa 32 - ^ $r12: .cfa 40 - ^ $r13: .cfa 48 - ^ $r14: .cfa 56 - ^ $r15: .cfa 64 - ^ $rbx: .cfa 0 - ^ .ra: .cfa 8 - ^
STACK CFI INIT 487f0 2d6 .cfa: $rsp 112 + $rbp: .cfa 16 - ^ $rsi: .cfa 24 - ^ $rdi: .cfa 32 - ^ $r12: .cfa 40 - ^ $r13: .cfa 48 - ^ $r14: .cfa 56 - ^ $r15: .cfa 64 - ^ $rbx: .cfa 0 - ^ .ra: .cfa 8 - ^
STACK CFI INIT 48ad0 10f .cfa: $rsp 96 + $rsi: .cfa 16 - ^ $rdi: .cfa 24 - ^ $r14: .cfa 32 - ^ $rbx: .cfa 0 - ^ .ra: .cfa 8 - ^
STACK CFI INIT 48bf0 216 .cfa: $rsp 80 + $rdi: .cfa 16 - ^ $r12: .cfa 24 - ^ $r13: .cfa 32 - ^ $r14: .cfa 40 - ^ $r15: .cfa 48 - ^ $rbx: .cfa 0 - ^ $rbp: .cfa 0 - ^ $rsi: .cfa 0 - ^ .ra: .cfa 8 - ^
STACK CFI INIT 48e10 132 .cfa: $rsp 80 + $rdi: .cfa 16 - ^ $r12: .cfa 24 - ^ $r13: .cfa 32 - ^ $r14: .cfa 40 - ^ $r15: .cfa 48 - ^ $rbx: .cfa 0 - ^ $rbp: .cfa 0 - ^ $rsi: .cfa 0 - ^ .ra: .cfa 8 - ^
STACK CFI INIT 48f48 300 .cfa: $rsp 688 + $rbp: .cfa 16 - ^ $rbx: .cfa 24 - ^ $rsi: .cfa 32 - ^ $rdi: .cfa 40 - ^ $r12: .cfa 48 - ^ $r13: .cfa 56 - ^ $r14: .cfa 64 - ^ $r15: .cfa 72 - ^ .ra: .cfa 8 - ^
STACK CFI INIT 49250 82 .cfa: $rsp 48 + $rdi: .cfa 16 - ^ $rbx: .cfa 0 - ^ .ra: .cfa 8 - ^
STACK CFI INIT 492e0 88 .cfa: $rsp 96 + $rbx: .cfa 16 - ^ .ra: .cfa 8 - ^
STACK CFI INIT 49370 362 .cfa: $rsp 176 + $rbp: .cfa 16 - ^ $rsi: .cfa 24 - ^ $rdi: .cfa 32 - ^ $r12: .cfa 40 - ^ $r13: .cfa 48 - ^ $r14: .cfa 56 - ^ $r15: .cfa 64 - ^ $rbx: .cfa 0 - ^ .ra: .cfa 8 - ^
STACK CFI INIT 496d8 1b0 .cfa: $rsp 128 + $r12: .cfa 16 - ^ $r14: .cfa 24 - ^ $r15: .cfa 32 - ^ $rbx: .cfa 0 - ^ $rbp: .cfa 0 - ^ $rsi: .cfa 0 - ^ $rdi: .cfa 0 - ^ .ra: .cfa 8 - ^
STACK CFI INIT 498c0 120 .cfa: $rsp 96 + $rdi: .cfa 16 - ^ $rbx: .cfa 0 - ^ .ra: .cfa 8 - ^
STACK CFI INIT 499f0 1fa .cfa: $rsp 80 + $rsi: .cfa 16 - ^ $rdi: .cfa 24 - ^ $r12: .cfa 32 - ^ $r14: .cfa 40 - ^ $r15: .cfa 48 - ^ $rbx: .cfa 0 - ^ $rbp: .cfa 0 - ^ .ra: .cfa 8 - ^
STACK CFI INIT 49bf0 8a .cfa: $rsp 48 + $rdi: .cfa 16 - ^ $rbx: .cfa 0 - ^ $rsi: .cfa 0 - ^ .ra: .cfa 8 - ^
STACK CFI INIT 49c80 8a .cfa: $rsp 48 + $rdi: .cfa 16 - ^ $rbx: .cfa 0 - ^ $rbp: .cfa 0 - ^ $rsi: .cfa 0 - ^ .ra: .cfa 8 - ^
STACK CFI INIT 49d10 e9 .cfa: $rsp 48 + $rdi: .cfa 16 - ^ $rbx: .cfa 0 - ^ $rbp: .cfa 0 - ^ $rsi: .cfa 0 - ^ .ra: .cfa 8 - ^
STACK CFI INIT 49e00 8a .cfa: $rsp 48 + $rdi: .cfa 16 - ^ $rbx: .cfa 0 - ^ $rsi: .cfa 0 - ^ .ra: .cfa 8 - ^
STACK CFI INIT 49e90 45 .cfa: $rsp 48 + $rbx: .cfa 16 - ^ .ra: .cfa 8 - ^
STACK CFI INIT 49f20 41 .cfa: $rsp 64 + .ra: .cfa 8 - ^
STACK CFI INIT 49f70 39 .cfa: $rsp 80 + .ra: .cfa 8 - ^
STACK CFI INIT 49fb0 2d .cfa: $rsp 64 + .ra: .cfa 8 - ^
STACK CFI INIT 49ff0 4d .cfa: $rsp 80 + .ra: .cfa 8 - ^
STACK CFI INIT 4a050 2d .cfa: $rsp 64 + .ra: .cfa 8 - ^
STACK CFI INIT 4a0e0 44 .cfa: $rsp 64 + .ra: .cfa 8 - ^
STACK CFI INIT 4a130 1d7 .cfa: $rsp 80 + $rdi: .cfa 16 - ^ $r12: .cfa 24 - ^ $r13: .cfa 32 - ^ $r14: .cfa 40 - ^ $r15: .cfa 48 - ^ $rbx: .cfa 0 - ^ $rbp: .cfa 0 - ^ $rsi: .cfa 0 - ^ .ra: .cfa 8 - ^
STACK CFI INIT 4a310 25c .cfa: $rsp 112 + $rdi: .cfa 16 - ^ $r12: .cfa 24 - ^ $r13: .cfa 32 - ^ $r14: .cfa 40 - ^ $r15: .cfa 48 - ^ $rbx: .cfa 0 - ^ $rbp: .cfa 0 - ^ $rsi: .cfa 0 - ^ .ra: .cfa 8 - ^
STACK CFI INIT 4a580 3a .cfa: $rsp 80 + .ra: .cfa 8 - ^
STACK CFI INIT 4a5c0 156 .cfa: $rsp 112 + $rbp: .cfa 16 - ^ $rsi: .cfa 24 - ^ $rdi: .cfa 32 - ^ $r14: .cfa 40 - ^ $r15: .cfa 48 - ^ $rbx: .cfa 0 - ^ .ra: .cfa 8 - ^
STACK CFI INIT 4a720 b6 .cfa: $rsp 48 + $r14: .cfa 16 - ^ $rbx: .cfa 0 - ^ $rbp: .cfa 0 - ^ $rsi: .cfa 0 - ^ $rdi: .cfa 0 - ^ .ra: .cfa 8 - ^
STACK CFI INIT 4a7e0 29 .cfa: $rsp 64 + .ra: .cfa 8 - ^
STACK CFI INIT 4a810 b9 .cfa: $rsp 64 + $r14: .cfa 16 - ^ $rbx: .cfa 0 - ^ $rbp: .cfa 0 - ^ $rsi: .cfa 0 - ^ $rdi: .cfa 0 - ^ .ra: .cfa 8 - ^
STACK CFI INIT 4a8d0 ac .cfa: $rsp 48 + $r14: .cfa 16 - ^ $rbx: .cfa 0 - ^ $rsi: .cfa 0 - ^ $rdi: .cfa 0 - ^ .ra: .cfa 8 - ^
STACK CFI INIT 4a990 53 .cfa: $rsp 80 + .ra: .cfa 8 - ^
STACK CFI INIT 4a9f0 39 .cfa: $rsp 48 + .ra: .cfa 8 - ^
STACK CFI INIT 4aa80 29 .cfa: $rsp 64 + .ra: .cfa 8 - ^
STACK CFI INIT 4aab0 b8 .cfa: $rsp 96 + $rsi: .cfa 16 - ^ $rdi: .cfa 24 - ^ $r12: .cfa 32 - ^ $r14: .cfa 40 - ^ $r15: .cfa 48 - ^ $rbx: .cfa 0 - ^ $rbp: .cfa 0 - ^ .ra: .cfa 8 - ^
STACK CFI INIT 4ab70 6d .cfa: $rsp 48 + $rdi: .cfa 16 - ^ $rbx: .cfa 0 - ^ $rsi: .cfa 0 - ^ .ra: .cfa 8 - ^
STACK CFI INIT 4abf0 40 .cfa: $rsp 48 + $rbx: .cfa 16 - ^ .ra: .cfa 8 - ^
STACK CFI INIT 4ac38 1de .cfa: $rsp 128 + $rbp: .cfa 16 - ^ $rsi: .cfa 24 - ^ $rdi: .cfa 32 - ^ $r12: .cfa 40 - ^ $r13: .cfa 48 - ^ $r14: .cfa 56 - ^ $r15: .cfa 64 - ^ $rbx: .cfa 0 - ^ .ra: .cfa 8 - ^
STACK CFI INIT 4ae70 bf .cfa: $rsp 48 + $rdi: .cfa 16 - ^ $rbx: .cfa 0 - ^ $rbp: .cfa 0 - ^ $rsi: .cfa 0 - ^ .ra: .cfa 8 - ^
STACK CFI INIT 4af40 8f .cfa: $rsp 48 + $rdi: .cfa 16 - ^ $rbx: .cfa 0 - ^ $rbp: .cfa 0 - ^ $rsi: .cfa 0 - ^ .ra: .cfa 8 - ^
STACK CFI INIT 4afe0 84 .cfa: $rsp 48 + $rdi: .cfa 16 - ^ $rbx: .cfa 0 - ^ $rsi: .cfa 0 - ^ .ra: .cfa 8 - ^
STACK CFI INIT 4b070 231 .cfa: $rsp 96 + $rdi: .cfa 16 - ^ $r12: .cfa 24 - ^ $r13: .cfa 32 - ^ $r14: .cfa 40 - ^ $r15: .cfa 48 - ^ $rbx: .cfa 0 - ^ $rbp: .cfa 0 - ^ $rsi: .cfa 0 - ^ .ra: .cfa 8 - ^
STACK CFI INIT 4b2b0 11f .cfa: $rsp 64 + $rsi: .cfa 16 - ^ $rdi: .cfa 24 - ^ $r14: .cfa 32 - ^ $rbx: .cfa 0 - ^ $rbp: .cfa 0 - ^ .ra: .cfa 8 - ^
STACK CFI INIT 4b3e0 115 .cfa: $rsp 48 + $rdi: .cfa 16 - ^ $rbx: .cfa 0 - ^ $rsi: .cfa 0 - ^ .ra: .cfa 8 - ^
STACK CFI INIT 4b500 109 .cfa: $rsp 48 + $rdi: .cfa 16 - ^ $rbx: .cfa 0 - ^ $rbp: .cfa 0 - ^ $rsi: .cfa 0 - ^ .ra: .cfa 8 - ^
STACK CFI INIT 4b610 108 .cfa: $rsp 48 + $rdi: .cfa 16 - ^ $rbx: .cfa 0 - ^ $rbp: .cfa 0 - ^ $rsi: .cfa 0 - ^ .ra: .cfa 8 - ^
STACK CFI INIT 4b720 107 .cfa: $rsp 48 + $rdi: .cfa 16 - ^ $rbx: .cfa 0 - ^ $rsi: .cfa 0 - ^ .ra: .cfa 8 - ^
STACK CFI INIT 4b830 6f .cfa: $rsp 48 + $rdi: .cfa 16 - ^ $rbx: .cfa 0 - ^ $rsi: .cfa 0 - ^ .ra: .cfa 8 - ^
STACK CFI INIT 4b8b0 6f .cfa: $rsp 48 + $rdi: .cfa 16 - ^ $rbx: .cfa 0 - ^ $rsi: .cfa 0 - ^ .ra: .cfa 8 - ^
STACK CFI INIT 4b930 e0 .cfa: $rsp 48 + $r14: .cfa 16 - ^ $rbx: .cfa 0 - ^ $rbp: .cfa 0 - ^ $rsi: .cfa 0 - ^ $rdi: .cfa 0 - ^ .ra: .cfa 8 - ^
STACK CFI INIT 4ba20 bd .cfa: $rsp 48 + $rdi: .cfa 16 - ^ $rbx: .cfa 0 - ^ $rsi: .cfa 0 - ^ .ra: .cfa 8 - ^
STACK CFI INIT 4baf0 110 .cfa: $rsp 64 + $rsi: .cfa 16 - ^ $rdi: .cfa 24 - ^ $r14: .cfa 32 - ^ $rbx: .cfa 0 - ^ $rbp: .cfa 0 - ^ .ra: .cfa 8 - ^
STACK CFI INIT 4bc10 137 .cfa: $rsp 64 + $rsi: .cfa 16 - ^ $rdi: .cfa 24 - ^ $r14: .cfa 32 - ^ $rbx: .cfa 0 - ^ $rbp: .cfa 0 - ^ .ra: .cfa 8 - ^
STACK CFI INIT 4bd50 c6 .cfa: $rsp 48 + $rdi: .cfa 16 - ^ $rbx: .cfa 0 - ^ $rbp: .cfa 0 - ^ $rsi: .cfa 0 - ^ .ra: .cfa 8 - ^
STACK CFI INIT 4be20 176 .cfa: $rsp 64 + $rbx: .cfa 16 - ^ $rsi: .cfa 24 - ^ $rdi: .cfa 32 - ^ .ra: .cfa 8 - ^
STACK CFI INIT 4bff0 d9 .cfa: $rsp 64 + $rsi: .cfa 16 - ^ $rdi: .cfa 24 - ^ $r14: .cfa 32 - ^ $rbx: .cfa 0 - ^ $rbp: .cfa 0 - ^ .ra: .cfa 8 - ^
STACK CFI INIT 4c0d0 e6 .cfa: $rsp 48 + $rdi: .cfa 16 - ^ $rbx: .cfa 0 - ^ $rsi: .cfa 0 - ^ .ra: .cfa 8 - ^
STACK CFI INIT 4c1c0 c0 .cfa: $rsp 48 + $rdi: .cfa 16 - ^ $rbx: .cfa 0 - ^ $rsi: .cfa 0 - ^ .ra: .cfa 8 - ^
STACK CFI INIT 4c290 c8 .cfa: $rsp 48 + $rdi: .cfa 16 - ^ $rbx: .cfa 0 - ^ $rbp: .cfa 0 - ^ $rsi: .cfa 0 - ^ .ra: .cfa 8 - ^
STACK CFI INIT 4c360 10e .cfa: $rsp 64 + $rdi: .cfa 16 - ^ $r14: .cfa 24 - ^ $r15: .cfa 32 - ^ $rbx: .cfa 0 - ^ $rbp: .cfa 0 - ^ $rsi: .cfa 0 - ^ .ra: .cfa 8 - ^
STACK CFI INIT 4c480 83 .cfa: $rsp 48 + $rdi: .cfa 16 - ^ $rbx: .cfa 0 - ^ $rbp: .cfa 0 - ^ $rsi: .cfa 0 - ^ .ra: .cfa 8 - ^
STACK CFI INIT 4c50c 2b .cfa: $rsp 48 + .ra: .cfa 8 - ^
STACK CFI INIT 4c5f0 50a .cfa: $rsp 256 + $rbp: .cfa 16 - ^ $rbx: .cfa 24 - ^ $rsi: .cfa 32 - ^ $rdi: .cfa 40 - ^ $r12: .cfa 48 - ^ $r13: .cfa 56 - ^ $r14: .cfa 64 - ^ $r15: .cfa 72 - ^ .ra: .cfa 8 - ^
STACK CFI INIT 4cb00 fa .cfa: $rsp 80 + $rdi: .cfa 16 - ^ $r14: .cfa 24 - ^ $r15: .cfa 32 - ^ $rbx: .cfa 0 - ^ $rbp: .cfa 0 - ^ $rsi: .cfa 0 - ^ .ra: .cfa 8 - ^
STACK CFI INIT 4cc00 231 .cfa: $rsp 96 + $rdi: .cfa 16 - ^ $r12: .cfa 24 - ^ $r13: .cfa 32 - ^ $r14: .cfa 40 - ^ $r15: .cfa 48 - ^ $rbx: .cfa 0 - ^ $rbp: .cfa 0 - ^ $rsi: .cfa 0 - ^ .ra: .cfa 8 - ^
STACK CFI INIT 4ce40 1b4 .cfa: $rsp 80 + $rdi: .cfa 16 - ^ $r12: .cfa 24 - ^ $r13: .cfa 32 - ^ $r14: .cfa 40 - ^ $r15: .cfa 48 - ^ $rbx: .cfa 0 - ^ $rbp: .cfa 0 - ^ $rsi: .cfa 0 - ^ .ra: .cfa 8 - ^
STACK CFI INIT 4cffc 1e3 .cfa: $rsp 160 + $rbp: .cfa 16 - ^ $rsi: .cfa 24 - ^ $rdi: .cfa 32 - ^ $r12: .cfa 40 - ^ $r13: .cfa 48 - ^ $r14: .cfa 56 - ^ $r15: .cfa 64 - ^ $rbx: .cfa 0 - ^ .ra: .cfa 8 - ^
STACK CFI INIT 4d1f0 242 .cfa: $rsp 144 + $rbp: .cfa 16 - ^ $rsi: .cfa 24 - ^ $rdi: .cfa 32 - ^ $r12: .cfa 40 - ^ $r13: .cfa 48 - ^ $r14: .cfa 56 - ^ $r15: .cfa 64 - ^ $rbx: .cfa 0 - ^ .ra: .cfa 8 - ^
STACK CFI INIT 4d440 2e .cfa: $rsp 64 + .ra: .cfa 8 - ^
STACK CFI INIT 4d480 31 .cfa: $rsp 64 + .ra: .cfa 8 - ^
STACK CFI INIT 4d4c0 aa .cfa: $rsp 80 + $rdi: .cfa 16 - ^ $rbx: .cfa 0 - ^ .ra: .cfa 8 - ^
STACK CFI INIT 4d570 39c .cfa: $rsp 1280 + $rbp: .cfa 16 - ^ $rbx: .cfa 24 - ^ $rsi: .cfa 32 - ^ $rdi: .cfa 40 - ^ $r12: .cfa 48 - ^ $r13: .cfa 56 - ^ $r14: .cfa 64 - ^ $r15: .cfa 72 - ^ .ra: .cfa 8 - ^
STACK CFI INIT 4d920 1f1 .cfa: $rsp 160 + $rbp: .cfa 16 - ^ $rsi: .cfa 24 - ^ $rdi: .cfa 32 - ^ $r12: .cfa 40 - ^ $r13: .cfa 48 - ^ $r14: .cfa 56 - ^ $r15: .cfa 64 - ^ $rbx: .cfa 0 - ^ .ra: .cfa 8 - ^
STACK CFI INIT 4db18 169 .cfa: $rsp 1168 + $rbx: .cfa 16 - ^ $rbp: .cfa 24 - ^ $rsi: .cfa 32 - ^ $rdi: .cfa 40 - ^ $r14: .cfa 48 - ^ .ra: .cfa 8 - ^
STACK CFI INIT 4dd00 1c3 .cfa: $rsp 128 + $rdi: .cfa 16 - ^ $r12: .cfa 24 - ^ $r13: .cfa 32 - ^ $r14: .cfa 40 - ^ $r15: .cfa 48 - ^ $rbx: .cfa 0 - ^ $rbp: .cfa 0 - ^ $rsi: .cfa 0 - ^ .ra: .cfa 8 - ^
STACK CFI INIT 4ded0 131 .cfa: $rsp 48 + $rdi: .cfa 16 - ^ $rbx: .cfa 0 - ^ .ra: .cfa 8 - ^
STACK CFI INIT 4e008 34 .cfa: $rsp 48 + .ra: .cfa 8 - ^
STACK CFI INIT 4e050 54c .cfa: $rsp 416 + $rdi: .cfa 16 - ^ $r12: .cfa 24 - ^ $r13: .cfa 32 - ^ $r14: .cfa 40 - ^ $r15: .cfa 48 - ^ $rbx: .cfa 0 - ^ $rbp: .cfa 0 - ^ $rsi: .cfa 0 - ^ .ra: .cfa 8 - ^
STACK CFI INIT 4e5a4 ba .cfa: $rsp 48 + $rdi: .cfa 16 - ^ $rbx: .cfa 0 - ^ $rbp: .cfa 0 - ^ $rsi: .cfa 0 - ^ .ra: .cfa 8 - ^
STACK CFI INIT 4e6c0 42 .cfa: $rsp 48 + $rdi: .cfa 16 - ^ $rbx: .cfa 0 - ^ .ra: .cfa 8 - ^
STACK CFI INIT 4e750 75 .cfa: $rsp 48 + $rdi: .cfa 16 - ^ $rbx: .cfa 0 - ^ .ra: .cfa 8 - ^
STACK CFI INIT 4e7f0 39 .cfa: $rsp 48 + $rbx: .cfa 16 - ^ .ra: .cfa 8 - ^
STACK CFI INIT 4e830 79 .cfa: $rsp 48 + $rdi: .cfa 16 - ^ $rbx: .cfa 0 - ^ $rbp: .cfa 0 - ^ $rsi: .cfa 0 - ^ .ra: .cfa 8 - ^
STACK CFI INIT 4e8b0 ae .cfa: $rsp 64 + $rdi: .cfa 16 - ^ $r14: .cfa 24 - ^ $r15: .cfa 32 - ^ $rbx: .cfa 0 - ^ $rbp: .cfa 0 - ^ $rsi: .cfa 0 - ^ .ra: .cfa 8 - ^
STACK CFI INIT 4e964 12e .cfa: $rsp 80 + $rdi: .cfa 16 - ^ $r14: .cfa 24 - ^ $r15: .cfa 32 - ^ $rbx: .cfa 0 - ^ $rbp: .cfa 0 - ^ $rsi: .cfa 0 - ^ .ra: .cfa 8 - ^
STACK CFI INIT 4ea98 61 .cfa: $rsp 48 + $rdi: .cfa 16 - ^ $rbx: .cfa 0 - ^ $rsi: .cfa 0 - ^ .ra: .cfa 8 - ^
STACK CFI INIT 4eb00 43f .cfa: $rsp 176 + $rbp: .cfa 16 - ^ $rsi: .cfa 24 - ^ $rdi: .cfa 32 - ^ $r12: .cfa 40 - ^ $r13: .cfa 48 - ^ $r14: .cfa 56 - ^ $r15: .cfa 64 - ^ $rbx: .cfa 0 - ^ .ra: .cfa 8 - ^
STACK CFI INIT 4ef48 2a .cfa: $rsp 48 + .ra: .cfa 8 - ^
STACK CFI INIT 4ef78 7d .cfa: $rsp 48 + $r14: .cfa 16 - ^ $rbx: .cfa 0 - ^ $rbp: .cfa 0 - ^ $rsi: .cfa 0 - ^ $rdi: .cfa 0 - ^ .ra: .cfa 8 - ^
STACK CFI INIT 4effc a2 .cfa: $rsp 64 + $r14: .cfa 16 - ^ $rbx: .cfa 0 - ^ $rbp: .cfa 0 - ^ $rsi: .cfa 0 - ^ $rdi: .cfa 0 - ^ .ra: .cfa 8 - ^
STACK CFI INIT 4f0a4 96 .cfa: $rsp 64 + $rdi: .cfa 16 - ^ $r14: .cfa 24 - ^ $r15: .cfa 32 - ^ $rbx: .cfa 0 - ^ $rbp: .cfa 0 - ^ $rsi: .cfa 0 - ^ .ra: .cfa 8 - ^
STACK CFI INIT 4f140 97 .cfa: $rsp 48 + $rdi: .cfa 16 - ^ $rbx: .cfa 0 - ^ $rsi: .cfa 0 - ^ .ra: .cfa 8 - ^
STACK CFI INIT 4f1e0 16f .cfa: $rsp 1152 + $rbp: .cfa 16 - ^ $rsi: .cfa 24 - ^ $r14: .cfa 32 - ^ $rbx: .cfa 0 - ^ .ra: .cfa 8 - ^
STACK CFI INIT 4f358 8f .cfa: $rsp 1136 + $rbx: .cfa 16 - ^ $rsi: .cfa 24 - ^ $rdi: .cfa 32 - ^ .ra: .cfa 8 - ^
STACK CFI INIT 4f3f0 171 .cfa: $rsp 96 + $rbp: .cfa 16 - ^ $rsi: .cfa 24 - ^ $rdi: .cfa 32 - ^ $r12: .cfa 40 - ^ $r13: .cfa 48 - ^ $r14: .cfa 56 - ^ $r15: .cfa 64 - ^ $rbx: .cfa 0 - ^ .ra: .cfa 8 - ^
STACK CFI INIT 4f568 7c .cfa: $rsp 48 + $rdi: .cfa 16 - ^ $rbx: .cfa 0 - ^ .ra: .cfa 8 - ^
STACK CFI INIT 4f5ec 81 .cfa: $rsp 48 + $rdi: .cfa 16 - ^ $rbx: .cfa 0 - ^ .ra: .cfa 8 - ^
STACK CFI INIT 4f674 63 .cfa: $rsp 64 + $rdi: .cfa 16 - ^ $rbx: .cfa 0 - ^ .ra: .cfa 8 - ^
STACK CFI INIT 4f6e0 31 .cfa: $rsp 48 + $rbx: .cfa 16 - ^ .ra: .cfa 8 - ^
STACK CFI INIT 4f718 112 .cfa: $rsp 48 + $r14: .cfa 16 - ^ $rbx: .cfa 0 - ^ $rsi: .cfa 0 - ^ $rdi: .cfa 0 - ^ .ra: .cfa 8 - ^
STACK CFI INIT 4f830 15d .cfa: $rsp 64 + $r12: .cfa 16 - ^ $r14: .cfa 24 - ^ $r15: .cfa 32 - ^ $rbx: .cfa 0 - ^ $rbp: .cfa 0 - ^ $rsi: .cfa 0 - ^ $rdi: .cfa 0 - ^ .ra: .cfa 8 - ^
STACK CFI INIT 4f994 7a .cfa: $rsp 48 + $rdi: .cfa 16 - ^ $rbx: .cfa 0 - ^ .ra: .cfa 8 - ^
STACK CFI INIT 4fa14 17a .cfa: $rsp 48 + $rdi: .cfa 16 - ^ $rbx: .cfa 0 - ^ $rbp: .cfa 0 - ^ $rsi: .cfa 0 - ^ .ra: .cfa 8 - ^
STACK CFI INIT 4fb94 120 .cfa: $rsp 128 + $rbp: .cfa 16 - ^ $rsi: .cfa 24 - ^ $rdi: .cfa 32 - ^ $r12: .cfa 40 - ^ $r13: .cfa 48 - ^ $r14: .cfa 56 - ^ $r15: .cfa 64 - ^ $rbx: .cfa 0 - ^ .ra: .cfa 8 - ^
STACK CFI INIT 4fcbc 81 .cfa: $rsp 48 + $rdi: .cfa 16 - ^ $rbx: .cfa 0 - ^ $rbp: .cfa 0 - ^ $rsi: .cfa 0 - ^ .ra: .cfa 8 - ^
STACK CFI INIT 4fd44 9a .cfa: $rsp 48 + $rdi: .cfa 16 - ^ $rbx: .cfa 0 - ^ $rsi: .cfa 0 - ^ .ra: .cfa 8 - ^
STACK CFI INIT 4fde4 84 .cfa: $rsp 48 + $rbx: .cfa 16 - ^ .ra: .cfa 8 - ^
STACK CFI INIT 4fe70 3a .cfa: $rsp 48 + $rbx: .cfa 16 - ^ .ra: .cfa 8 - ^
STACK CFI INIT 4feb0 1a3 .cfa: $rsp 96 + $rbp: .cfa 16 - ^ $rsi: .cfa 24 - ^ $rdi: .cfa 32 - ^ $r12: .cfa 40 - ^ $r13: .cfa 48 - ^ $r14: .cfa 56 - ^ $r15: .cfa 64 - ^ $rbx: .cfa 0 - ^ .ra: .cfa 8 - ^
STACK CFI INIT 5005c d6 .cfa: $rsp 64 + $rsi: .cfa 16 - ^ $rdi: .cfa 24 - ^ $r14: .cfa 32 - ^ $rbx: .cfa 0 - ^ $rbp: .cfa 0 - ^ .ra: .cfa 8 - ^
STACK CFI INIT 50138 e6 .cfa: $rsp 8 + $rbx: .cfa 0 - ^ $rdi: .cfa 0 - ^ .ra: .cfa 8 - ^
STACK CFI INIT 50224 52 .cfa: $rsp 64 + $rbx: .cfa 16 - ^ .ra: .cfa 8 - ^
STACK CFI INIT 5027c 3b .cfa: $rsp 48 + .ra: .cfa 8 - ^
STACK CFI INIT 502c0 335 .cfa: $rsp 112 + $rbp: .cfa 16 - ^ $rsi: .cfa 24 - ^ $rdi: .cfa 32 - ^ $r12: .cfa 40 - ^ $r13: .cfa 48 - ^ $r14: .cfa 56 - ^ $r15: .cfa 64 - ^ $rbx: .cfa 0 - ^ .ra: .cfa 8 - ^
STACK CFI INIT 505fc 2e .cfa: $rsp 48 + .ra: .cfa 8 - ^
STACK CFI INIT 50630 266 .cfa: $rsp 96 + $rsi: .cfa 16 - ^ $rdi: .cfa 24 - ^ $r14: .cfa 32 - ^ $rbx: .cfa 0 - ^ $rbp: .cfa 0 - ^ .ra: .cfa 8 - ^
STACK CFI INIT 50920 1ec .cfa: $rsp 80 + $rdi: .cfa 16 - ^ $rbx: .cfa 0 - ^ $rbp: .cfa 0 - ^ $rsi: .cfa 0 - ^ .ra: .cfa 8 - ^
STACK CFI INIT 50b20 1d3 .cfa: $rsp 96 + $rsi: .cfa 16 - ^ $rdi: .cfa 24 - ^ $r14: .cfa 32 - ^ $rbx: .cfa 0 - ^ $rbp: .cfa 0 - ^ .ra: .cfa 8 - ^
STACK CFI INIT 50d00 29b .cfa: $rsp 96 + $rsi: .cfa 16 - ^ $rdi: .cfa 24 - ^ $r14: .cfa 32 - ^ $rbx: .cfa 0 - ^ $rbp: .cfa 0 - ^ .ra: .cfa 8 - ^
STACK CFI INIT 50fb0 df .cfa: $rsp 80 + $rdi: .cfa 16 - ^ $rbx: .cfa 0 - ^ $rsi: .cfa 0 - ^ .ra: .cfa 8 - ^
STACK CFI INIT 510a0 1ea .cfa: $rsp 96 + $rsi: .cfa 16 - ^ $rdi: .cfa 24 - ^ $r14: .cfa 32 - ^ $rbx: .cfa 0 - ^ $rbp: .cfa 0 - ^ .ra: .cfa 8 - ^
STACK CFI INIT 51290 109 .cfa: $rsp 128 + $rbp: .cfa 16 - ^ $r12: .cfa 24 - ^ $r14: .cfa 32 - ^ $rbx: .cfa 0 - ^ $rsi: .cfa 0 - ^ $rdi: .cfa 0 - ^ .ra: .cfa 8 - ^
STACK CFI INIT 513a0 9c .cfa: $rsp 128 + $rdi: .cfa 16 - ^ $rbx: .cfa 0 - ^ .ra: .cfa 8 - ^
STACK CFI INIT 51450 9e1 .cfa: $rsp 144 + $rbp: .cfa 16 - ^ $r12: .cfa 24 - ^ $r13: .cfa 32 - ^ $r14: .cfa 40 - ^ $r15: .cfa 48 - ^ $rbx: .cfa 0 - ^ $rsi: .cfa 0 - ^ $rdi: .cfa 0 - ^ .ra: .cfa 8 - ^
STACK CFI INIT 51e40 d5 .cfa: $rsp 80 + $rdi: .cfa 16 - ^ $rbx: .cfa 0 - ^ $rbp: .cfa 0 - ^ $rsi: .cfa 0 - ^ .ra: .cfa 8 - ^
STACK CFI INIT 51f20 7b .cfa: $rsp 48 + $rdi: .cfa 16 - ^ $rbx: .cfa 0 - ^ .ra: .cfa 8 - ^
STACK CFI INIT 51fb0 681 .cfa: $rsp 144 + $rbp: .cfa 16 - ^ $rdi: .cfa 24 - ^ $r12: .cfa 32 - ^ $r13: .cfa 40 - ^ $r14: .cfa 48 - ^ $rbx: .cfa 0 - ^ $rsi: .cfa 0 - ^ .ra: .cfa 8 - ^
STACK CFI INIT 52640 8d5 .cfa: $rsp 144 + $rbp: .cfa 16 - ^ $r12: .cfa 24 - ^ $r13: .cfa 32 - ^ $r14: .cfa 40 - ^ $r15: .cfa 48 - ^ $rbx: .cfa 0 - ^ $rsi: .cfa 0 - ^ $rdi: .cfa 0 - ^ .ra: .cfa 8 - ^
STACK CFI INIT 52f20 170 .cfa: $rsp 128 + $rbp: .cfa 16 - ^ $r14: .cfa 24 - ^ $r15: .cfa 32 - ^ $rbx: .cfa 0 - ^ $rsi: .cfa 0 - ^ $rdi: .cfa 0 - ^ $r12: .cfa 0 - ^ .ra: .cfa 8 - ^
STACK CFI INIT 530a0 b8 .cfa: $rsp 96 + $rbx: .cfa 16 - ^ .ra: .cfa 8 - ^
STACK CFI INIT 53160 905 .cfa: $rsp 144 + $rbp: .cfa 16 - ^ $r12: .cfa 24 - ^ $r13: .cfa 32 - ^ $r14: .cfa 40 - ^ $r15: .cfa 48 - ^ $rbx: .cfa 0 - ^ $rsi: .cfa 0 - ^ $rdi: .cfa 0 - ^ .ra: .cfa 8 - ^
STACK CFI INIT 53a6c 138 .cfa: $rsp 80 + $rdi: .cfa 16 - ^ $r14: .cfa 24 - ^ $r15: .cfa 32 - ^ $rbx: .cfa 0 - ^ $rbp: .cfa 0 - ^ $rsi: .cfa 0 - ^ .ra: .cfa 8 - ^
STACK CFI INIT 53bac 157 .cfa: $rsp 64 + $r14: .cfa 16 - ^ $rbx: .cfa 0 - ^ $rbp: .cfa 0 - ^ $rsi: .cfa 0 - ^ $rdi: .cfa 0 - ^ .ra: .cfa 8 - ^
STACK CFI INIT 53d10 182 .cfa: $rsp 112 + $rbp: .cfa 16 - ^ $r14: .cfa 24 - ^ $r15: .cfa 32 - ^ $rbx: .cfa 0 - ^ $rsi: .cfa 0 - ^ $rdi: .cfa 0 - ^ .ra: .cfa 8 - ^
STACK CFI INIT 53ea0 29 .cfa: $rsp 48 + $rbx: .cfa 16 - ^ .ra: .cfa 8 - ^
STACK CFI INIT 53ed0 1ad .cfa: $rsp 96 + $rbp: .cfa 16 - ^ $rbx: .cfa 0 - ^ $rsi: .cfa 0 - ^ $rdi: .cfa 0 - ^ $r14: .cfa 0 - ^ .ra: .cfa 8 - ^
STACK CFI INIT 54090 e4 .cfa: $rsp 96 + $rbp: .cfa 16 - ^ $rbx: .cfa 0 - ^ $rsi: .cfa 0 - ^ $rdi: .cfa 0 - ^ .ra: .cfa 8 - ^
STACK CFI INIT 54180 17a .cfa: $rsp 112 + $rbp: .cfa 16 - ^ $r14: .cfa 24 - ^ $r15: .cfa 32 - ^ $rbx: .cfa 0 - ^ $rsi: .cfa 0 - ^ $rdi: .cfa 0 - ^ .ra: .cfa 8 - ^
STACK CFI INIT 54300 8f .cfa: $rsp 80 + $rbx: .cfa 16 - ^ .ra: .cfa 8 - ^
STACK CFI INIT 543a0 18d .cfa: $rsp 112 + $rbp: .cfa 16 - ^ $r14: .cfa 24 - ^ $r15: .cfa 32 - ^ $rbx: .cfa 0 - ^ $rsi: .cfa 0 - ^ $rdi: .cfa 0 - ^ .ra: .cfa 8 - ^
STACK CFI INIT 54540 120 .cfa: $rsp 112 + $rdi: .cfa 16 - ^ $r14: .cfa 24 - ^ $r15: .cfa 32 - ^ $rbx: .cfa 0 - ^ $rbp: .cfa 0 - ^ $rsi: .cfa 0 - ^ .ra: .cfa 8 - ^
STACK CFI INIT 54668 225 .cfa: $rsp 128 + $r12: .cfa 16 - ^ $r14: .cfa 24 - ^ $r15: .cfa 32 - ^ $rbx: .cfa 0 - ^ $rbp: .cfa 0 - ^ $rsi: .cfa 0 - ^ $rdi: .cfa 0 - ^ .ra: .cfa 8 - ^
STACK CFI INIT 548a0 69 .cfa: $rsp 96 + $rbx: .cfa 16 - ^ .ra: .cfa 8 - ^
STACK CFI INIT 54910 3c .cfa: $rsp 80 + .ra: .cfa 8 - ^
STACK CFI INIT 549e0 50 .cfa: $rsp 64 + $rbx: .cfa 16 - ^ .ra: .cfa 8 - ^
STACK CFI INIT 54af0 15c .cfa: $rsp 8 + $rbx: .cfa 0 - ^ $rdi: .cfa 0 - ^ .ra: .cfa 8 - ^
STACK CFI INIT 54c60 91 .cfa: $rsp 8 + $rbx: .cfa 0 - ^ $rdi: .cfa 0 - ^ .ra: .cfa 8 - ^
STACK CFI INIT 54d60 122 .cfa: $rsp 8 + $rbx: .cfa 0 - ^ .ra: .cfa 8 - ^
STACK CFI INIT 54fc0 20d .cfa: $rsp 64 + $rdi: .cfa 16 - ^ $r12: .cfa 24 - ^ $r13: .cfa 32 - ^ $r14: .cfa 40 - ^ $r15: .cfa 48 - ^ $rbx: .cfa 0 - ^ $rbp: .cfa 0 - ^ $rsi: .cfa 0 - ^ .ra: .cfa 8 - ^
STACK CFI INIT 551d4 d7 .cfa: $rsp 8 + $rbx: .cfa 0 - ^ .ra: .cfa 8 - ^
STACK CFI INIT 55300 67a .cfa: $rsp 176 + $rbp: .cfa 16 - ^ $rbx: .cfa 24 - ^ $rsi: .cfa 32 - ^ $rdi: .cfa 40 - ^ $r12: .cfa 48 - ^ $r13: .cfa 56 - ^ $r14: .cfa 64 - ^ $r15: .cfa 72 - ^ .ra: .cfa 8 - ^
STACK CFI INIT 55980 30 .cfa: $rsp 48 + $rbx: .cfa 16 - ^ .ra: .cfa 8 - ^
STACK CFI INIT 559c0 25b .cfa: $rsp 144 + $rbp: .cfa 16 - ^ $rbx: .cfa 24 - ^ $rsi: .cfa 32 - ^ $rdi: .cfa 40 - ^ $r13: .cfa 48 - ^ $r14: .cfa 56 - ^ $r15: .cfa 64 - ^ .ra: .cfa 8 - ^
STACK CFI INIT 55c70 fe .cfa: $rsp 144 + $rdi: .cfa 16 - ^ $rbx: .cfa 0 - ^ $rsi: .cfa 0 - ^ .ra: .cfa 8 - ^
STACK CFI INIT 55d74 dc .cfa: $rsp 64 + $rbp: .cfa 16 - ^ $rsi: .cfa 24 - ^ $rdi: .cfa 32 - ^ $rbx: .cfa 0 - ^ .ra: .cfa 8 - ^
STACK CFI INIT 55e58 1c7 .cfa: $rsp 160 + $rdi: .cfa 16 - ^ $r12: .cfa 24 - ^ $r13: .cfa 32 - ^ $r14: .cfa 40 - ^ $r15: .cfa 48 - ^ $rbx: .cfa 0 - ^ $rbp: .cfa 0 - ^ $rsi: .cfa 0 - ^ .ra: .cfa 8 - ^
STACK CFI INIT 56028 1cb .cfa: $rsp 144 + $rdi: .cfa 16 - ^ $r12: .cfa 24 - ^ $r13: .cfa 32 - ^ $r14: .cfa 40 - ^ $r15: .cfa 48 - ^ $rbx: .cfa 0 - ^ $rbp: .cfa 0 - ^ $rsi: .cfa 0 - ^ .ra: .cfa 8 - ^
STACK CFI INIT 561fc 16a .cfa: $rsp 112 + $rsi: .cfa 16 - ^ $rdi: .cfa 24 - ^ $r13: .cfa 32 - ^ $r14: .cfa 40 - ^ $r15: .cfa 48 - ^ $rbx: .cfa 0 - ^ $rbp: .cfa 0 - ^ .ra: .cfa 8 - ^
STACK CFI INIT 5636c 16a .cfa: $rsp 112 + $rsi: .cfa 16 - ^ $rdi: .cfa 24 - ^ $r13: .cfa 32 - ^ $r14: .cfa 40 - ^ $r15: .cfa 48 - ^ $rbx: .cfa 0 - ^ $rbp: .cfa 0 - ^ .ra: .cfa 8 - ^
STACK CFI INIT 564dc 49f .cfa: $rsp 304 + $rdi: .cfa 16 - ^ $r12: .cfa 24 - ^ $r13: .cfa 32 - ^ $r14: .cfa 40 - ^ $r15: .cfa 48 - ^ $rbx: .cfa 0 - ^ $rsi: .cfa 0 - ^ .ra: .cfa 8 - ^
STACK CFI INIT 5697b 65 .cfa: $rsp 80 + $rbp: .cfa 16 - ^ .ra: .cfa 8 - ^
STACK CFI INIT 569e8 3d0 .cfa: $rsp 352 + $rbp: .cfa 16 - ^ $rbx: .cfa 24 - ^ $rsi: .cfa 32 - ^ $rdi: .cfa 40 - ^ $r12: .cfa 48 - ^ $r13: .cfa 56 - ^ $r14: .cfa 64 - ^ $r15: .cfa 72 - ^ .ra: .cfa 8 - ^
STACK CFI INIT 56dc0 a5 .cfa: $rsp 48 + $rdi: .cfa 16 - ^ $rbx: .cfa 0 - ^ $rsi: .cfa 0 - ^ .ra: .cfa 8 - ^
STACK CFI INIT 56e70 79 .cfa: $rsp 144 + $rdi: .cfa 16 - ^ $rbx: .cfa 0 - ^ .ra: .cfa 8 - ^
STACK CFI INIT 56fb4 5a .cfa: $rsp 48 + .ra: .cfa 8 - ^
STACK CFI INIT 57014 8d .cfa: $rsp 48 + .ra: .cfa 8 - ^
STACK CFI INIT 570a8 112 .cfa: $rsp 144 + $rbp: .cfa 16 - ^ $r14: .cfa 24 - ^ $r15: .cfa 32 - ^ $rbx: .cfa 0 - ^ $rsi: .cfa 0 - ^ $rdi: .cfa 0 - ^ .ra: .cfa 8 - ^
STACK CFI INIT 571c0 60 .cfa: $rsp 48 + $rdi: .cfa 16 - ^ $rbx: .cfa 0 - ^ .ra: .cfa 8 - ^
STACK CFI INIT 57228 5b .cfa: $rsp 48 + $rdi: .cfa 16 - ^ $rbx: .cfa 0 - ^ $rsi: .cfa 0 - ^ .ra: .cfa 8 - ^
STACK CFI INIT 5728c 36 .cfa: $rsp 48 + $rbx: .cfa 16 - ^ .ra: .cfa 8 - ^
STACK CFI INIT 572c8 52 .cfa: $rsp 48 + .ra: .cfa 8 - ^
STACK CFI INIT 57320 144 .cfa: $rsp 64 + $r14: .cfa 16 - ^ $rbx: .cfa 0 - ^ $rbp: .cfa 0 - ^ $rsi: .cfa 0 - ^ $rdi: .cfa 0 - ^ .ra: .cfa 8 - ^
STACK CFI INIT 574a0 49 .cfa: $rsp 112 + $rbx: .cfa 16 - ^ .ra: .cfa 8 - ^
STACK CFI INIT 575b0 3b3 .cfa: $rsp 368 + $rbp: .cfa 16 - ^ $rbx: .cfa 24 - ^ $rsi: .cfa 32 - ^ $rdi: .cfa 40 - ^ $r12: .cfa 48 - ^ $r13: .cfa 56 - ^ $r14: .cfa 64 - ^ $r15: .cfa 72 - ^ .ra: .cfa 8 - ^
STACK CFI INIT 57970 49 .cfa: $rsp 112 + $rbx: .cfa 16 - ^ .ra: .cfa 8 - ^
STACK CFI INIT 579d0 98 .cfa: $rsp 112 + $rbx: .cfa 16 - ^ $rsi: .cfa 24 - ^ $rdi: .cfa 32 - ^ .ra: .cfa 8 - ^
STACK CFI INIT 57a90 49 .cfa: $rsp 112 + $rbx: .cfa 16 - ^ .ra: .cfa 8 - ^
STACK CFI INIT 57b00 83 .cfa: $rsp 144 + $rbx: .cfa 16 - ^ .ra: .cfa 8 - ^
STACK CFI INIT 57c70 4b .cfa: $rsp 112 + $rbx: .cfa 16 - ^ .ra: .cfa 8 - ^
STACK CFI INIT 57ee0 2a .cfa: $rsp 48 + $rbx: .cfa 16 - ^ .ra: .cfa 8 - ^
STACK CFI INIT 57f20 47 .cfa: $rsp 112 + $rbx: .cfa 16 - ^ .ra: .cfa 8 - ^
STACK CFI INIT 57ff0 31 .cfa: $rsp 48 + .ra: .cfa 8 - ^
STACK CFI INIT 58030 2a .cfa: $rsp 64 + $rbx: .cfa 16 - ^ .ra: .cfa 8 - ^
STACK CFI INIT 58100 49 .cfa: $rsp 112 + $rbx: .cfa 16 - ^ .ra: .cfa 8 - ^
STACK CFI INIT 581c0 32 .cfa: $rsp 48 + .ra: .cfa 8 - ^
STACK CFI INIT 58200 83 .cfa: $rsp 144 + $rbx: .cfa 16 - ^ .ra: .cfa 8 - ^
STACK CFI INIT 58320 47 .cfa: $rsp 112 + $rbx: .cfa 16 - ^ .ra: .cfa 8 - ^
STACK CFI INIT 583c0 31 .cfa: $rsp 48 + .ra: .cfa 8 - ^
STACK CFI INIT 58480 49 .cfa: $rsp 112 + $rbx: .cfa 16 - ^ .ra: .cfa 8 - ^
STACK CFI INIT 584f0 32 .cfa: $rsp 48 + .ra: .cfa 8 - ^
STACK CFI INIT 58530 142 .cfa: $rsp 128 + $rbx: .cfa 16 - ^ .ra: .cfa 8 - ^
STACK CFI INIT 58710 4b .cfa: $rsp 112 + $rbx: .cfa 16 - ^ .ra: .cfa 8 - ^
STACK CFI INIT 58810 85 .cfa: $rsp 144 + $rbx: .cfa 16 - ^ .ra: .cfa 8 - ^
STACK CFI INIT 58940 4b .cfa: $rsp 112 + $rbx: .cfa 16 - ^ .ra: .cfa 8 - ^
STACK CFI INIT 58a90 2a .cfa: $rsp 48 + $rbx: .cfa 16 - ^ .ra: .cfa 8 - ^
STACK CFI INIT 58ad0 47 .cfa: $rsp 112 + $rbx: .cfa 16 - ^ .ra: .cfa 8 - ^
STACK CFI INIT 58bb0 31 .cfa: $rsp 48 + .ra: .cfa 8 - ^
STACK CFI INIT 58bf0 2a .cfa: $rsp 64 + $rbx: .cfa 16 - ^ .ra: .cfa 8 - ^
STACK CFI INIT 58c20 34 .cfa: $rsp 48 + $rbx: .cfa 16 - ^ .ra: .cfa 8 - ^
STACK CFI INIT 58c70 49 .cfa: $rsp 112 + $rbx: .cfa 16 - ^ .ra: .cfa 8 - ^
STACK CFI INIT 58d50 32 .cfa: $rsp 48 + .ra: .cfa 8 - ^
STACK CFI INIT 58d90 34 .cfa: $rsp 64 + $rbx: .cfa 16 - ^ .ra: .cfa 8 - ^
STACK CFI INIT 58e00 47 .cfa: $rsp 112 + $rbx: .cfa 16 - ^ .ra: .cfa 8 - ^
STACK CFI INIT 58ee0 37 .cfa: $rsp 48 + $rbx: .cfa 16 - ^ .ra: .cfa 8 - ^
STACK CFI INIT 58f20 81 .cfa: $rsp 144 + $rbx: .cfa 16 - ^ .ra: .cfa 8 - ^
STACK CFI INIT 58fe0 49 .cfa: $rsp 112 + $rbx: .cfa 16 - ^ .ra: .cfa 8 - ^
STACK CFI INIT 590a0 38 .cfa: $rsp 48 + $rbx: .cfa 16 - ^ .ra: .cfa 8 - ^
STACK CFI INIT 590e0 75 .cfa: $rsp 48 + $rdi: .cfa 16 - ^ $rbx: .cfa 0 - ^ $rsi: .cfa 0 - ^ .ra: .cfa 8 - ^
STACK CFI INIT 5915c 10a .cfa: $rsp 64 + $rdi: .cfa 16 - ^ $r12: .cfa 24 - ^ $r14: .cfa 32 - ^ $rbx: .cfa 0 - ^ $rbp: .cfa 0 - ^ $rsi: .cfa 0 - ^ .ra: .cfa 8 - ^
STACK CFI INIT 5926c 75 .cfa: $rsp 48 + $rdi: .cfa 16 - ^ $rbx: .cfa 0 - ^ $rbp: .cfa 0 - ^ $rsi: .cfa 0 - ^ .ra: .cfa 8 - ^
STACK CFI INIT 592f0 66 .cfa: $rsp 64 + $rbx: .cfa 16 - ^ .ra: .cfa 8 - ^
STACK CFI INIT 59360 18b .cfa: $rsp 48 + $r14: .cfa 16 - ^ $rbx: .cfa 0 - ^ $rbp: .cfa 0 - ^ $rsi: .cfa 0 - ^ $rdi: .cfa 0 - ^ .ra: .cfa 8 - ^
STACK CFI INIT 59500 13b .cfa: $rsp 112 + $rbp: .cfa 16 - ^ $rsi: .cfa 24 - ^ $rdi: .cfa 32 - ^ $r12: .cfa 40 - ^ $r13: .cfa 48 - ^ $r14: .cfa 56 - ^ $r15: .cfa 64 - ^ $rbx: .cfa 0 - ^ .ra: .cfa 8 - ^
STACK CFI INIT 59644 228 .cfa: $rsp 128 + $rbp: .cfa 16 - ^ $rsi: .cfa 24 - ^ $rdi: .cfa 32 - ^ $r12: .cfa 40 - ^ $r13: .cfa 48 - ^ $r14: .cfa 56 - ^ $r15: .cfa 64 - ^ $rbx: .cfa 0 - ^ .ra: .cfa 8 - ^
STACK CFI INIT 59880 ee .cfa: $rsp 64 + $rsi: .cfa 16 - ^ $rdi: .cfa 24 - ^ $r14: .cfa 32 - ^ $rbx: .cfa 0 - ^ $rbp: .cfa 0 - ^ .ra: .cfa 8 - ^
STACK CFI INIT 59980 46 .cfa: $rsp 48 + $rbx: .cfa 16 - ^ .ra: .cfa 8 - ^
STACK CFI INIT 599f0 bb .cfa: $rsp 48 + $rdi: .cfa 16 - ^ $rbx: .cfa 0 - ^ .ra: .cfa 8 - ^
STACK CFI INIT 59ac0 26a .cfa: $rsp 192 + $rbp: .cfa 16 - ^ $rsi: .cfa 24 - ^ $rdi: .cfa 32 - ^ $r12: .cfa 40 - ^ $r13: .cfa 48 - ^ $r14: .cfa 56 - ^ $r15: .cfa 64 - ^ $rbx: .cfa 0 - ^ .ra: .cfa 8 - ^
STACK CFI INIT 59dd0 23 .cfa: $rsp 48 + $rbx: .cfa 16 - ^ .ra: .cfa 8 - ^
STACK CFI INIT 59e00 29 .cfa: $rsp 48 + $rbx: .cfa 16 - ^ .ra: .cfa 8 - ^
STACK CFI INIT 59e30 84 .cfa: $rsp 48 + $rdi: .cfa 16 - ^ $rbx: .cfa 0 - ^ .ra: .cfa 8 - ^
STACK CFI INIT 59ed4 87 .cfa: $rsp 64 + $r14: .cfa 16 - ^ $rbx: .cfa 0 - ^ $rbp: .cfa 0 - ^ $rsi: .cfa 0 - ^ $rdi: .cfa 0 - ^ .ra: .cfa 8 - ^
STACK CFI INIT 59f70 33 .cfa: $rsp 48 + $rbx: .cfa 16 - ^ .ra: .cfa 8 - ^
STACK CFI INIT 59fc8 cf .cfa: $rsp 64 + $rdi: .cfa 16 - ^ $r14: .cfa 24 - ^ $r15: .cfa 32 - ^ $rbx: .cfa 0 - ^ $rbp: .cfa 0 - ^ $rsi: .cfa 0 - ^ .ra: .cfa 8 - ^
STACK CFI INIT 5a0a0 4e .cfa: $rsp 64 + .ra: .cfa 8 - ^
STACK CFI INIT 5a100 2e .cfa: $rsp 48 + .ra: .cfa 8 - ^
STACK CFI INIT 5a160 73 .cfa: $rsp 80 + .ra: .cfa 8 - ^
STACK CFI INIT 5a200 77 .cfa: $rsp 48 + .ra: .cfa 8 - ^
STACK CFI INIT 5a2a0 56 .cfa: $rsp 48 + $rdi: .cfa 16 - ^ $rbx: .cfa 0 - ^ .ra: .cfa 8 - ^
STACK CFI INIT 5a310 76 .cfa: $rsp 80 + $rdi: .cfa 16 - ^ $rbx: .cfa 0 - ^ $rbp: .cfa 0 - ^ $rsi: .cfa 0 - ^ .ra: .cfa 8 - ^
STACK CFI INIT 5a3d0 2f .cfa: $rsp 48 + .ra: .cfa 8 - ^
STACK CFI INIT 5a410 290 .cfa: $rsp 128 + $rbx: .cfa 16 - ^ $rsi: .cfa 24 - ^ $rdi: .cfa 32 - ^ $r14: .cfa 40 - ^ $r15: .cfa 48 - ^ .ra: .cfa 8 - ^
STACK CFI INIT 5a6b0 242 .cfa: $rsp 96 + $rbp: .cfa 16 - ^ $rsi: .cfa 24 - ^ $rdi: .cfa 32 - ^ $rbx: .cfa 0 - ^ .ra: .cfa 8 - ^
STACK CFI INIT 5a960 23 .cfa: $rsp 48 + $rbx: .cfa 16 - ^ .ra: .cfa 8 - ^
STACK CFI INIT 5a990 2eb .cfa: $rsp 784 + $rbp: .cfa 16 - ^ $r14: .cfa 24 - ^ $r15: .cfa 32 - ^ $rbx: .cfa 0 - ^ $rsi: .cfa 0 - ^ $rdi: .cfa 0 - ^ .ra: .cfa 8 - ^
STACK CFI INIT 5aca0 98 .cfa: $rsp 96 + $rdi: .cfa 16 - ^ $rbx: .cfa 0 - ^ .ra: .cfa 8 - ^
STACK CFI INIT 5ad40 47 .cfa: $rsp 48 + $rdi: .cfa 16 - ^ $rbx: .cfa 0 - ^ $rsi: .cfa 0 - ^ .ra: .cfa 8 - ^
STACK CFI INIT 5ad90 57 .cfa: $rsp 48 + $rdi: .cfa 16 - ^ $rbx: .cfa 0 - ^ $rbp: .cfa 0 - ^ $rsi: .cfa 0 - ^ .ra: .cfa 8 - ^
STACK CFI INIT 5adf0 35 .cfa: $rsp 48 + $rdi: .cfa 16 - ^ $rbx: .cfa 0 - ^ .ra: .cfa 8 - ^
STACK CFI INIT 5ae2c cb .cfa: $rsp 48 + $rdi: .cfa 16 - ^ $rbx: .cfa 0 - ^ .ra: .cfa 8 - ^
STACK CFI INIT 5af00 2cf .cfa: $rsp 64 + $rdi: .cfa 16 - ^ $r14: .cfa 24 - ^ $r15: .cfa 32 - ^ $rbx: .cfa 0 - ^ $rbp: .cfa 0 - ^ $rsi: .cfa 0 - ^ .ra: .cfa 8 - ^
STACK CFI INIT 5b1d8 97 .cfa: $rsp 112 + $rdi: .cfa 16 - ^ $rbx: .cfa 0 - ^ .ra: .cfa 8 - ^
STACK CFI INIT 5b310 ce .cfa: $rsp 144 + $rbp: .cfa 16 - ^ $rbx: .cfa 0 - ^ .ra: .cfa 8 - ^
STACK CFI INIT 5b3e4 6e .cfa: $rsp 112 + $rbx: .cfa 16 - ^ .ra: .cfa 8 - ^
STACK CFI INIT 5b458 74 .cfa: $rsp 48 + .ra: .cfa 8 - ^
STACK CFI INIT 5b538 89 .cfa: $rsp 80 + .ra: .cfa 8 - ^
STACK CFI INIT 5b5c8 b9 .cfa: $rsp 112 + $rdi: .cfa 16 - ^ $rbx: .cfa 0 - ^ .ra: .cfa 8 - ^
STACK CFI INIT 5b688 53 .cfa: $rsp 48 + $rbx: .cfa 16 - ^ .ra: .cfa 8 - ^
STACK CFI INIT 5b6e4 85 .cfa: $rsp 112 + $rdi: .cfa 16 - ^ $rbx: .cfa 0 - ^ .ra: .cfa 8 - ^
STACK CFI INIT 5b770 8e .cfa: $rsp 112 + $rdi: .cfa 16 - ^ $rbx: .cfa 0 - ^ .ra: .cfa 8 - ^
STACK CFI INIT 5b804 5f .cfa: $rsp 48 + $rdi: .cfa 16 - ^ $rbx: .cfa 0 - ^ $rsi: .cfa 0 - ^ .ra: .cfa 8 - ^
STACK CFI INIT 5b86c a2 .cfa: $rsp 48 + $rbx: .cfa 16 - ^ .ra: .cfa 8 - ^
STACK CFI INIT 5b914 9d .cfa: $rsp 48 + $rdi: .cfa 16 - ^ $rbx: .cfa 0 - ^ .ra: .cfa 8 - ^
STACK CFI INIT 5b9b8 24 .cfa: $rsp 48 + $rbx: .cfa 16 - ^ .ra: .cfa 8 - ^
STACK CFI INIT 5b9f0 191 .cfa: $rsp 64 + $rdi: .cfa 16 - ^ $r14: .cfa 24 - ^ $r15: .cfa 32 - ^ $rbx: .cfa 0 - ^ $rbp: .cfa 0 - ^ $rsi: .cfa 0 - ^ .ra: .cfa 8 - ^
STACK CFI INIT 5bb90 30 .cfa: $rsp 48 + $rbx: .cfa 16 - ^ .ra: .cfa 8 - ^
STACK CFI INIT 5bbd0 548 .cfa: $rsp 160 + $rbp: .cfa 16 - ^ $rdi: .cfa 24 - ^ $r13: .cfa 32 - ^ $r14: .cfa 40 - ^ $r15: .cfa 48 - ^ $rbx: .cfa 0 - ^ $rsi: .cfa 0 - ^ .ra: .cfa 8 - ^
STACK CFI INIT 5c178 253 .cfa: $rsp 112 + $rbp: .cfa 16 - ^ $rdi: .cfa 24 - ^ $r12: .cfa 32 - ^ $r14: .cfa 40 - ^ $r15: .cfa 48 - ^ $rbx: .cfa 0 - ^ $rsi: .cfa 0 - ^ .ra: .cfa 8 - ^
STACK CFI INIT 5c40c 1c0 .cfa: $rsp 80 + $rbp: .cfa 16 - ^ $rbx: .cfa 24 - ^ $rsi: .cfa 32 - ^ $rdi: .cfa 40 - ^ $r14: .cfa 48 - ^ .ra: .cfa 8 - ^
STACK CFI INIT 5c5e0 1eb .cfa: $rsp 96 + $rsi: .cfa 16 - ^ $rdi: .cfa 24 - ^ $r12: .cfa 32 - ^ $r14: .cfa 40 - ^ $r15: .cfa 48 - ^ $rbx: .cfa 0 - ^ $rbp: .cfa 0 - ^ .ra: .cfa 8 - ^
STACK CFI INIT 5c7e0 2a0 .cfa: $rsp 112 + $rdi: .cfa 16 - ^ $r12: .cfa 24 - ^ $r13: .cfa 32 - ^ $r14: .cfa 40 - ^ $r15: .cfa 48 - ^ $rbx: .cfa 0 - ^ $rbp: .cfa 0 - ^ $rsi: .cfa 0 - ^ .ra: .cfa 8 - ^
STACK CFI INIT 5ca90 8f .cfa: $rsp 48 + $r14: .cfa 16 - ^ $rbx: .cfa 0 - ^ $rbp: .cfa 0 - ^ $rsi: .cfa 0 - ^ $rdi: .cfa 0 - ^ .ra: .cfa 8 - ^
STACK CFI INIT 5cb30 8c .cfa: $rsp 64 + $rdi: .cfa 16 - ^ $rbx: .cfa 0 - ^ $rsi: .cfa 0 - ^ .ra: .cfa 8 - ^
STACK CFI INIT 5cbd0 fb .cfa: $rsp 64 + $r12: .cfa 16 - ^ $r14: .cfa 24 - ^ $r15: .cfa 32 - ^ $rbx: .cfa 0 - ^ $rbp: .cfa 0 - ^ $rsi: .cfa 0 - ^ $rdi: .cfa 0 - ^ .ra: .cfa 8 - ^
STACK CFI INIT 5cce0 9e .cfa: $rsp 80 + $rdi: .cfa 16 - ^ $rbx: .cfa 0 - ^ $rsi: .cfa 0 - ^ .ra: .cfa 8 - ^
STACK CFI INIT 5cdd0 5c .cfa: $rsp 48 + $rdi: .cfa 16 - ^ $rbx: .cfa 0 - ^ $rsi: .cfa 0 - ^ .ra: .cfa 8 - ^
STACK CFI INIT 5ce40 42 .cfa: $rsp 48 + $rbx: .cfa 16 - ^ .ra: .cfa 8 - ^
STACK CFI INIT 5ce90 6b .cfa: $rsp 48 + .ra: .cfa 8 - ^
STACK CFI INIT 5cf04 84 .cfa: $rsp 64 + $rdi: .cfa 16 - ^ $rbx: .cfa 0 - ^ $rsi: .cfa 0 - ^ .ra: .cfa 8 - ^
STACK CFI INIT 5cfb0 37 .cfa: $rsp 48 + .ra: .cfa 8 - ^
STACK CFI INIT 5cff0 c8 .cfa: $rsp 48 + $rdi: .cfa 16 - ^ $rbx: .cfa 0 - ^ $rsi: .cfa 0 - ^ .ra: .cfa 8 - ^
STACK CFI INIT 5d0c0 69 .cfa: $rsp 48 + $rdi: .cfa 16 - ^ $rbx: .cfa 0 - ^ .ra: .cfa 8 - ^
STACK CFI INIT 5d130 1ba .cfa: $rsp 80 + $rdi: .cfa 16 - ^ $r12: .cfa 24 - ^ $r13: .cfa 32 - ^ $r14: .cfa 40 - ^ $r15: .cfa 48 - ^ $rbx: .cfa 0 - ^ $rbp: .cfa 0 - ^ $rsi: .cfa 0 - ^ .ra: .cfa 8 - ^
STACK CFI INIT 5d2f0 12f .cfa: $rsp 80 + $rbp: .cfa 16 - ^ $rsi: .cfa 24 - ^ $rdi: .cfa 32 - ^ $r14: .cfa 40 - ^ $r15: .cfa 48 - ^ $rbx: .cfa 0 - ^ .ra: .cfa 8 - ^
STACK CFI INIT 5d428 83 .cfa: $rsp 48 + $rdi: .cfa 16 - ^ $rbx: .cfa 0 - ^ .ra: .cfa 8 - ^
STACK CFI INIT 5d524 7b .cfa: $rsp 304 + $rdi: .cfa 16 - ^ $rbx: .cfa 0 - ^ .ra: .cfa 8 - ^
STACK CFI INIT 5d5a8 a9 .cfa: $rsp 80 + $rdi: .cfa 16 - ^ $rbx: .cfa 0 - ^ .ra: .cfa 8 - ^
STACK CFI INIT 5d658 26 .cfa: $rsp 48 + .ra: .cfa 8 - ^
STACK CFI INIT 5d690 675 .cfa: $rsp 160 + $rbp: .cfa 16 - ^ $rsi: .cfa 24 - ^ $rdi: .cfa 32 - ^ $r12: .cfa 40 - ^ $r13: .cfa 48 - ^ $r14: .cfa 56 - ^ $r15: .cfa 64 - ^ $rbx: .cfa 0 - ^ .ra: .cfa 8 - ^
STACK CFI INIT 5dd10 426 .cfa: $rsp 128 + $rbp: .cfa 16 - ^ $r12: .cfa 24 - ^ $r13: .cfa 32 - ^ $r14: .cfa 40 - ^ $r15: .cfa 48 - ^ $rbx: .cfa 0 - ^ $rsi: .cfa 0 - ^ $rdi: .cfa 0 - ^ .ra: .cfa 8 - ^
STACK CFI INIT 5e140 c8 .cfa: $rsp 96 + $r12: .cfa 16 - ^ $r14: .cfa 24 - ^ $r15: .cfa 32 - ^ $rbx: .cfa 0 - ^ $rbp: .cfa 0 - ^ $rsi: .cfa 0 - ^ $rdi: .cfa 0 - ^ .ra: .cfa 8 - ^
STACK CFI INIT 5e210 10d .cfa: $rsp 128 + $rdi: .cfa 16 - ^ $rbx: .cfa 0 - ^ $rsi: .cfa 0 - ^ .ra: .cfa 8 - ^
STACK CFI INIT 5e330 9f .cfa: $rsp 64 + $rdi: .cfa 16 - ^ $rbx: .cfa 0 - ^ $rbp: .cfa 0 - ^ $rsi: .cfa 0 - ^ .ra: .cfa 8 - ^
STACK CFI INIT 5e3e0 9f .cfa: $rsp 64 + $rdi: .cfa 16 - ^ $rbx: .cfa 0 - ^ $rbp: .cfa 0 - ^ $rsi: .cfa 0 - ^ .ra: .cfa 8 - ^
STACK CFI INIT 5e490 d1 .cfa: $rsp 48 + .ra: .cfa 8 - ^
STACK CFI INIT 5e5c0 7b .cfa: $rsp 48 + $rdi: .cfa 16 - ^ $rbx: .cfa 0 - ^ $rbp: .cfa 0 - ^ $rsi: .cfa 0 - ^ .ra: .cfa 8 - ^
STACK CFI INIT 5e650 123 .cfa: $rsp 96 + $rdi: .cfa 16 - ^ $r12: .cfa 24 - ^ $r13: .cfa 32 - ^ $r14: .cfa 40 - ^ $r15: .cfa 48 - ^ $rbx: .cfa 0 - ^ $rbp: .cfa 0 - ^ $rsi: .cfa 0 - ^ .ra: .cfa 8 - ^
STACK CFI INIT 5e780 39 .cfa: $rsp 48 + $rdi: .cfa 16 - ^ $rbx: .cfa 0 - ^ .ra: .cfa 8 - ^
STACK CFI INIT 5e7c0 12d .cfa: $rsp 80 + $r12: .cfa 16 - ^ $r14: .cfa 24 - ^ $r15: .cfa 32 - ^ $rbx: .cfa 0 - ^ $rbp: .cfa 0 - ^ $rsi: .cfa 0 - ^ $rdi: .cfa 0 - ^ .ra: .cfa 8 - ^
STACK CFI INIT 5e900 31 .cfa: $rsp 48 + $rbx: .cfa 16 - ^ .ra: .cfa 8 - ^
STACK CFI INIT 5e940 28 .cfa: $rsp 48 + .ra: .cfa 8 - ^
STACK CFI INIT 5e970 1b2 .cfa: $rsp 48 + $r14: .cfa 16 - ^ $rbx: .cfa 0 - ^ $rbp: .cfa 0 - ^ $rsi: .cfa 0 - ^ $rdi: .cfa 0 - ^ .ra: .cfa 8 - ^
STACK CFI INIT 5eb30 9a .cfa: $rsp 48 + $rdi: .cfa 16 - ^ $rbx: .cfa 0 - ^ .ra: .cfa 8 - ^
STACK CFI INIT 5ebd0 b0 .cfa: $rsp 80 + $rdi: .cfa 16 - ^ $rbx: .cfa 0 - ^ $rsi: .cfa 0 - ^ .ra: .cfa 8 - ^
STACK CFI INIT 5ed90 ad .cfa: $rsp 80 + $r12: .cfa 16 - ^ $r14: .cfa 24 - ^ $r15: .cfa 32 - ^ $rbx: .cfa 0 - ^ $rbp: .cfa 0 - ^ $rsi: .cfa 0 - ^ $rdi: .cfa 0 - ^ .ra: .cfa 8 - ^
STACK CFI INIT 5ee50 688 .cfa: $rsp 240 + $rbp: .cfa 16 - ^ $r12: .cfa 24 - ^ $r13: .cfa 32 - ^ $r14: .cfa 40 - ^ $r15: .cfa 48 - ^ $rbx: .cfa 0 - ^ $rsi: .cfa 0 - ^ $rdi: .cfa 0 - ^ .ra: .cfa 8 - ^
STACK CFI INIT 5f4e0 42f .cfa: $rsp 208 + $rbp: .cfa 16 - ^ $r12: .cfa 24 - ^ $r13: .cfa 32 - ^ $r14: .cfa 40 - ^ $r15: .cfa 48 - ^ $rbx: .cfa 0 - ^ $rsi: .cfa 0 - ^ $rdi: .cfa 0 - ^ .ra: .cfa 8 - ^
STACK CFI INIT 5f920 53 .cfa: $rsp 64 + $rdi: .cfa 16 - ^ $rbx: .cfa 0 - ^ .ra: .cfa 8 - ^
STACK CFI INIT 5f980 24b .cfa: $rsp 176 + $rbp: .cfa 16 - ^ $rsi: .cfa 24 - ^ $rdi: .cfa 32 - ^ $r14: .cfa 40 - ^ $r15: .cfa 48 - ^ $rbx: .cfa 0 - ^ .ra: .cfa 8 - ^
STACK CFI INIT 5fbe0 bd .cfa: $rsp 96 + $r12: .cfa 16 - ^ $r14: .cfa 24 - ^ $r15: .cfa 32 - ^ $rbx: .cfa 0 - ^ $rbp: .cfa 0 - ^ $rsi: .cfa 0 - ^ $rdi: .cfa 0 - ^ .ra: .cfa 8 - ^
STACK CFI INIT 5fcb0 1dc .cfa: $rsp 208 + $rbp: .cfa 16 - ^ $rsi: .cfa 24 - ^ $rdi: .cfa 32 - ^ $r14: .cfa 40 - ^ $r15: .cfa 48 - ^ $rbx: .cfa 0 - ^ .ra: .cfa 8 - ^
STACK CFI INIT 5fe94 1a9 .cfa: $rsp 64 + $rdi: .cfa 16 - ^ $rbx: .cfa 0 - ^ $rsi: .cfa 0 - ^ .ra: .cfa 8 - ^
STACK CFI INIT 60050 168 .cfa: $rsp 96 + $r12: .cfa 16 - ^ $r14: .cfa 24 - ^ $r15: .cfa 32 - ^ $rbx: .cfa 0 - ^ $rbp: .cfa 0 - ^ $rsi: .cfa 0 - ^ $rdi: .cfa 0 - ^ .ra: .cfa 8 - ^
STACK CFI INIT 601c0 791 .cfa: $rsp 176 + $rbp: .cfa 16 - ^ $rsi: .cfa 24 - ^ $rdi: .cfa 32 - ^ $r12: .cfa 40 - ^ $r13: .cfa 48 - ^ $r14: .cfa 56 - ^ $r15: .cfa 64 - ^ $rbx: .cfa 0 - ^ .ra: .cfa 8 - ^
STACK CFI INIT 60960 3c .cfa: $rsp 48 + $rdi: .cfa 16 - ^ $rbx: .cfa 0 - ^ .ra: .cfa 8 - ^
STACK CFI INIT 609b0 4c .cfa: $rsp 48 + $rdi: .cfa 16 - ^ $rbx: .cfa 0 - ^ $rsi: .cfa 0 - ^ .ra: .cfa 8 - ^
STACK CFI INIT 60a10 4a .cfa: $rsp 48 + $rdi: .cfa 16 - ^ $rbx: .cfa 0 - ^ $rsi: .cfa 0 - ^ .ra: .cfa 8 - ^
STACK CFI INIT 60a60 4c .cfa: $rsp 48 + $rdi: .cfa 16 - ^ $rbx: .cfa 0 - ^ $rsi: .cfa 0 - ^ .ra: .cfa 8 - ^
STACK CFI INIT 60ac0 3c .cfa: $rsp 48 + $rdi: .cfa 16 - ^ $rbx: .cfa 0 - ^ .ra: .cfa 8 - ^
STACK CFI INIT 60b10 4c .cfa: $rsp 48 + $rdi: .cfa 16 - ^ $rbx: .cfa 0 - ^ $rsi: .cfa 0 - ^ .ra: .cfa 8 - ^
STACK CFI INIT 60b70 4a .cfa: $rsp 48 + $rdi: .cfa 16 - ^ $rbx: .cfa 0 - ^ $rsi: .cfa 0 - ^ .ra: .cfa 8 - ^
STACK CFI INIT 60bc0 4c .cfa: $rsp 48 + $rdi: .cfa 16 - ^ $rbx: .cfa 0 - ^ $rsi: .cfa 0 - ^ .ra: .cfa 8 - ^
STACK CFI INIT 60c20 3c .cfa: $rsp 48 + $rdi: .cfa 16 - ^ $rbx: .cfa 0 - ^ .ra: .cfa 8 - ^
STACK CFI INIT 60c70 4c .cfa: $rsp 48 + $rdi: .cfa 16 - ^ $rbx: .cfa 0 - ^ $rsi: .cfa 0 - ^ .ra: .cfa 8 - ^
STACK CFI INIT 60cd0 4a .cfa: $rsp 48 + $rdi: .cfa 16 - ^ $rbx: .cfa 0 - ^ $rsi: .cfa 0 - ^ .ra: .cfa 8 - ^
STACK CFI INIT 60d20 4c .cfa: $rsp 48 + $rdi: .cfa 16 - ^ $rbx: .cfa 0 - ^ $rsi: .cfa 0 - ^ .ra: .cfa 8 - ^
STACK CFI INIT 60d80 54 .cfa: $rsp 128 + $rbp: .cfa 16 - ^ .ra: .cfa 8 - ^
STACK CFI INIT 60de0 2c .cfa: $rsp 48 + $rbx: .cfa 16 - ^ .ra: .cfa 8 - ^
STACK CFI INIT 60e20 3f .cfa: $rsp 48 + $rdi: .cfa 16 - ^ $rbx: .cfa 0 - ^ .ra: .cfa 8 - ^
STACK CFI INIT 60e70 26 .cfa: $rsp 80 + .ra: .cfa 8 - ^
STACK CFI INIT 60ea0 7d .cfa: $rsp 80 + $rdi: .cfa 16 - ^ $rbx: .cfa 0 - ^ $rbp: .cfa 0 - ^ $rsi: .cfa 0 - ^ .ra: .cfa 8 - ^
STACK CFI INIT 60f30 32 .cfa: $rsp 96 + .ra: .cfa 8 - ^
STACK CFI INIT 60f70 77 .cfa: $rsp 96 + $rdi: .cfa 16 - ^ $rbx: .cfa 0 - ^ $rbp: .cfa 0 - ^ $rsi: .cfa 0 - ^ .ra: .cfa 8 - ^
STACK CFI INIT 60ff0 6b .cfa: $rsp 64 + $rdi: .cfa 16 - ^ $rbx: .cfa 0 - ^ $rbp: .cfa 0 - ^ $rsi: .cfa 0 - ^ .ra: .cfa 8 - ^
STACK CFI INIT 61070 37 .cfa: $rsp 48 + $rdi: .cfa 16 - ^ $rbx: .cfa 0 - ^ .ra: .cfa 8 - ^
STACK CFI INIT 610b0 3c .cfa: $rsp 48 + $rdi: .cfa 16 - ^ $rbx: .cfa 0 - ^ .ra: .cfa 8 - ^
STACK CFI INIT 61100 4c .cfa: $rsp 48 + $rdi: .cfa 16 - ^ $rbx: .cfa 0 - ^ $rsi: .cfa 0 - ^ .ra: .cfa 8 - ^
STACK CFI INIT 61160 4a .cfa: $rsp 48 + $rdi: .cfa 16 - ^ $rbx: .cfa 0 - ^ $rsi: .cfa 0 - ^ .ra: .cfa 8 - ^
STACK CFI INIT 611b0 4c .cfa: $rsp 48 + $rdi: .cfa 16 - ^ $rbx: .cfa 0 - ^ $rsi: .cfa 0 - ^ .ra: .cfa 8 - ^
STACK CFI INIT 61210 7e .cfa: $rsp 48 + $rdi: .cfa 16 - ^ $rbx: .cfa 0 - ^ $rsi: .cfa 0 - ^ .ra: .cfa 8 - ^
STACK CFI INIT 612a0 132 .cfa: $rsp 96 + $rdi: .cfa 16 - ^ $r12: .cfa 24 - ^ $r13: .cfa 32 - ^ $r14: .cfa 40 - ^ $r15: .cfa 48 - ^ $rbx: .cfa 0 - ^ $rbp: .cfa 0 - ^ $rsi: .cfa 0 - ^ .ra: .cfa 8 - ^
STACK CFI INIT 613e0 172 .cfa: $rsp 112 + $rbp: .cfa 16 - ^ $rsi: .cfa 24 - ^ $rdi: .cfa 32 - ^ $r12: .cfa 40 - ^ $r13: .cfa 48 - ^ $r14: .cfa 56 - ^ $r15: .cfa 64 - ^ $rbx: .cfa 0 - ^ .ra: .cfa 8 - ^
STACK CFI INIT 61590 3b .cfa: $rsp 48 + .ra: .cfa 8 - ^
STACK CFI INIT 615f0 5e .cfa: $rsp 48 + $rdi: .cfa 16 - ^ $rbx: .cfa 0 - ^ .ra: .cfa 8 - ^
STACK CFI INIT 61660 53 .cfa: $rsp 48 + $rdi: .cfa 16 - ^ $rbx: .cfa 0 - ^ .ra: .cfa 8 - ^
STACK CFI INIT 616bc 2f .cfa: $rsp 48 + $rbx: .cfa 16 - ^ .ra: .cfa 8 - ^
STACK CFI INIT 616f4 25 .cfa: $rsp 48 + $rbx: .cfa 16 - ^ .ra: .cfa 8 - ^
STACK CFI INIT 61750 33e .cfa: $rsp 32 + $rdi: .cfa 16 - ^ $r14: .cfa 24 - ^ $r15: .cfa 32 - ^ $rbx: .cfa 0 - ^ $rsi: .cfa 0 - ^ .ra: .cfa 8 - ^
STACK CFI INIT 61aa0 57 .cfa: $rsp 48 + $rbx: .cfa 16 - ^ .ra: .cfa 8 - ^
STACK CFI INIT 61b70 54 .cfa: $rsp 112 + $rbx: .cfa 16 - ^ .ra: .cfa 8 - ^
STACK CFI INIT 61c90 8a .cfa: $rsp 160 + $rbx: .cfa 16 - ^ .ra: .cfa 8 - ^
STACK CFI INIT 61da0 79 .cfa: $rsp 48 + $rbx: .cfa 16 - ^ .ra: .cfa 8 - ^
STACK CFI INIT 61e20 7a .cfa: $rsp 48 + $rbx: .cfa 16 - ^ .ra: .cfa 8 - ^
STACK CFI INIT 61ea0 7c .cfa: $rsp 48 + $rbx: .cfa 16 - ^ .ra: .cfa 8 - ^
STACK CFI INIT 61f30 8a .cfa: $rsp 48 + $rbx: .cfa 16 - ^ .ra: .cfa 8 - ^
STACK CFI INIT 61fc0 3c .cfa: $rsp 48 + $rbx: .cfa 16 - ^ .ra: .cfa 8 - ^
STACK CFI INIT 62010 6e .cfa: $rsp 48 + $rbx: .cfa 16 - ^ .ra: .cfa 8 - ^
STACK CFI INIT 62090 6f .cfa: $rsp 48 + $rbx: .cfa 16 - ^ .ra: .cfa 8 - ^
STACK CFI INIT 62110 79 .cfa: $rsp 48 + $rbx: .cfa 16 - ^ .ra: .cfa 8 - ^
STACK CFI INIT 62190 27 .cfa: $rsp 8 + $rdi: .cfa 0 - ^ .ra: .cfa 8 - ^
STACK CFI INIT 621c0 e6 .cfa: $rsp 48 + $rdi: .cfa 16 - ^ $rbx: .cfa 0 - ^ $rsi: .cfa 0 - ^ .ra: .cfa 8 - ^
STACK CFI INIT 622dc 7e .cfa: $rsp 48 + $rdi: .cfa 16 - ^ $rbx: .cfa 0 - ^ .ra: .cfa 8 - ^
STACK CFI INIT 623e0 9d .cfa: $rsp 80 + $r12: .cfa 16 - ^ $r14: .cfa 24 - ^ $r15: .cfa 32 - ^ $rbx: .cfa 0 - ^ $rbp: .cfa 0 - ^ $rsi: .cfa 0 - ^ $rdi: .cfa 0 - ^ .ra: .cfa 8 - ^
STACK CFI INIT 62490 106 .cfa: $rsp 80 + $r13: .cfa 16 - ^ $r14: .cfa 24 - ^ $r15: .cfa 32 - ^ $rbx: .cfa 0 - ^ $rbp: .cfa 0 - ^ $rsi: .cfa 0 - ^ $rdi: .cfa 0 - ^ .ra: .cfa 8 - ^
STACK CFI INIT 625a0 1f3 .cfa: $rsp 96 + $rdi: .cfa 16 - ^ $r12: .cfa 24 - ^ $r13: .cfa 32 - ^ $r14: .cfa 40 - ^ $r15: .cfa 48 - ^ $rbx: .cfa 0 - ^ $rbp: .cfa 0 - ^ $rsi: .cfa 0 - ^ .ra: .cfa 8 - ^
STACK CFI INIT 627a0 1f1 .cfa: $rsp 96 + $rdi: .cfa 16 - ^ $r12: .cfa 24 - ^ $r13: .cfa 32 - ^ $r14: .cfa 40 - ^ $r15: .cfa 48 - ^ $rbx: .cfa 0 - ^ $rbp: .cfa 0 - ^ $rsi: .cfa 0 - ^ .ra: .cfa 8 - ^
STACK CFI INIT 62998 112 .cfa: $rsp 48 + $rdi: .cfa 16 - ^ $rbx: .cfa 0 - ^ .ra: .cfa 8 - ^
STACK CFI INIT 62ab0 12a .cfa: $rsp 64 + $rdi: .cfa 16 - ^ $rbx: .cfa 0 - ^ .ra: .cfa 8 - ^
STACK CFI INIT 62be0 3c5 .cfa: $rsp 80 + $rdi: .cfa 16 - ^ $r12: .cfa 24 - ^ $r13: .cfa 32 - ^ $r14: .cfa 40 - ^ $r15: .cfa 48 - ^ $rbx: .cfa 0 - ^ $rbp: .cfa 0 - ^ $rsi: .cfa 0 - ^ .ra: .cfa 8 - ^
STACK CFI INIT 62fac 31a .cfa: $rsp 256 + $rbx: .cfa 16 - ^ $rbp: .cfa 24 - ^ $rsi: .cfa 32 - ^ $rdi: .cfa 40 - ^ $r12: .cfa 48 - ^ $r13: .cfa 56 - ^ $r14: .cfa 64 - ^ $r15: .cfa 72 - ^ .ra: .cfa 8 - ^
STACK CFI INIT 632cc f9 .cfa: $rsp 48 + $r14: .cfa 16 - ^ $rbx: .cfa 0 - ^ $rbp: .cfa 0 - ^ $rsi: .cfa 0 - ^ $rdi: .cfa 0 - ^ .ra: .cfa 8 - ^
STACK CFI INIT 633cc 377 .cfa: $rsp 272 + $rbx: .cfa 16 - ^ $rbp: .cfa 24 - ^ $rsi: .cfa 32 - ^ $rdi: .cfa 40 - ^ $r12: .cfa 48 - ^ $r13: .cfa 56 - ^ $r14: .cfa 64 - ^ $r15: .cfa 72 - ^ .ra: .cfa 8 - ^
STACK CFI INIT 63774 50 .cfa: $rsp 64 + $rbx: .cfa 16 - ^ .ra: .cfa 8 - ^
STACK CFI INIT 637cc 304 .cfa: $rsp 240 + $rbx: .cfa 16 - ^ $rbp: .cfa 24 - ^ $rdi: .cfa 32 - ^ $r12: .cfa 40 - ^ $r13: .cfa 48 - ^ $r14: .cfa 56 - ^ $r15: .cfa 64 - ^ .ra: .cfa 8 - ^
STACK CFI INIT 63b98 324 .cfa: $rsp 112 + $rsi: .cfa 16 - ^ $rdi: .cfa 24 - ^ $r12: .cfa 32 - ^ $r13: .cfa 40 - ^ $r15: .cfa 48 - ^ $rbx: .cfa 0 - ^ $rbp: .cfa 0 - ^ .ra: .cfa 8 - ^
STACK CFI INIT 63ef8 12f .cfa: $rsp 48 + $rdi: .cfa 16 - ^ $rbx: .cfa 0 - ^ $rbp: .cfa 0 - ^ $rsi: .cfa 0 - ^ .ra: .cfa 8 - ^
STACK CFI INIT 64030 632 .cfa: $rsp 256 + $rbp: .cfa 16 - ^ $rbx: .cfa 24 - ^ $rsi: .cfa 32 - ^ $rdi: .cfa 40 - ^ $r12: .cfa 48 - ^ $r13: .cfa 56 - ^ $r14: .cfa 64 - ^ $r15: .cfa 72 - ^ .ra: .cfa 8 - ^
STACK CFI INIT 64668 686 .cfa: $rsp 80 + $rdi: .cfa 16 - ^ $r12: .cfa 24 - ^ $r13: .cfa 32 - ^ $r14: .cfa 40 - ^ $r15: .cfa 48 - ^ $rbx: .cfa 0 - ^ $rbp: .cfa 0 - ^ $rsi: .cfa 0 - ^ .ra: .cfa 8 - ^
STACK CFI INIT 64cf4 13d .cfa: $rsp 144 + $r14: .cfa 16 - ^ $rbx: .cfa 0 - ^ $rsi: .cfa 0 - ^ $rdi: .cfa 0 - ^ .ra: .cfa 8 - ^
STACK CFI INIT 64e40 8c2 .cfa: $rsp 304 + $rbp: .cfa 16 - ^ $rbx: .cfa 24 - ^ $rsi: .cfa 32 - ^ $rdi: .cfa 40 - ^ $r12: .cfa 48 - ^ $r13: .cfa 56 - ^ $r14: .cfa 64 - ^ $r15: .cfa 72 - ^ .ra: .cfa 8 - ^
STACK CFI INIT 65870 3c .cfa: $rsp 48 + $rbx: .cfa 16 - ^ .ra: .cfa 8 - ^
STACK CFI INIT 65a94 e2 .cfa: $rsp 96 + $rdi: .cfa 16 - ^ $rbx: .cfa 0 - ^ $rsi: .cfa 0 - ^ .ra: .cfa 8 - ^
STACK CFI INIT 65b7c 195 .cfa: $rsp 176 + $rbp: .cfa 16 - ^ $rsi: .cfa 24 - ^ $rdi: .cfa 32 - ^ $r12: .cfa 40 - ^ $r13: .cfa 48 - ^ $r14: .cfa 56 - ^ $r15: .cfa 64 - ^ $rbx: .cfa 0 - ^ .ra: .cfa 8 - ^
STACK CFI INIT 65d18 49 .cfa: $rsp 48 + $rbx: .cfa 16 - ^ .ra: .cfa 8 - ^
STACK CFI INIT 65d68 e4 .cfa: $rsp 304 + $rdi: .cfa 16 - ^ $rbx: .cfa 0 - ^ $rsi: .cfa 0 - ^ .ra: .cfa 8 - ^
STACK CFI INIT 65e54 bc .cfa: $rsp 704 + $rdi: .cfa 16 - ^ $rbx: .cfa 0 - ^ .ra: .cfa 8 - ^
STACK CFI INIT 65f18 f4 .cfa: $rsp 96 + $r14: .cfa 16 - ^ $rbx: .cfa 0 - ^ $rbp: .cfa 0 - ^ $rsi: .cfa 0 - ^ $rdi: .cfa 0 - ^ .ra: .cfa 8 - ^
STACK CFI INIT 66014 ceb .cfa: $rsp 240 + $rbx: .cfa 16 - ^ $rbp: .cfa 24 - ^ $rsi: .cfa 32 - ^ $rdi: .cfa 40 - ^ $r12: .cfa 48 - ^ $r13: .cfa 56 - ^ $r14: .cfa 64 - ^ $r15: .cfa 72 - ^ .ra: .cfa 8 - ^
STACK CFI INIT 66d08 a7 .cfa: $rsp 8 + $rbx: .cfa 0 - ^ $rsi: .cfa 0 - ^ $rdi: .cfa 0 - ^ .ra: .cfa 8 - ^
STACK CFI INIT 66db8 110 .cfa: $rsp 48 + $r14: .cfa 16 - ^ $rbx: .cfa 0 - ^ $rbp: .cfa 0 - ^ $rsi: .cfa 0 - ^ $rdi: .cfa 0 - ^ .ra: .cfa 8 - ^
STACK CFI INIT 67070 e0 .cfa: $rsp 432 + $rbp: .cfa 16 - ^ $rsi: .cfa 24 - ^ $rdi: .cfa 32 - ^ $r14: .cfa 40 - ^ $r15: .cfa 48 - ^ $rbx: .cfa 0 - ^ .ra: .cfa 8 - ^
STACK CFI INIT 67160 10d .cfa: $rsp 176 + $rbp: .cfa 16 - ^ $rsi: .cfa 24 - ^ $rdi: .cfa 32 - ^ $r14: .cfa 40 - ^ $r15: .cfa 48 - ^ $rbx: .cfa 0 - ^ .ra: .cfa 8 - ^
STACK CFI INIT 67280 79 .cfa: $rsp 64 + $rdi: .cfa 16 - ^ $rbx: .cfa 0 - ^ $rbp: .cfa 0 - ^ $rsi: .cfa 0 - ^ .ra: .cfa 8 - ^
STACK CFI INIT 67300 1fc8 .cfa: $rsp 3008 + $rbp: .cfa 16 - ^ $rbx: .cfa 24 - ^ $rsi: .cfa 32 - ^ $rdi: .cfa 40 - ^ $r12: .cfa 48 - ^ $r13: .cfa 56 - ^ $r14: .cfa 64 - ^ $r15: .cfa 72 - ^ .ra: .cfa 8 - ^
STACK CFI INIT 692d0 103 .cfa: $rsp 176 + $rbp: .cfa 16 - ^ $rsi: .cfa 24 - ^ $rdi: .cfa 32 - ^ $r14: .cfa 40 - ^ $r15: .cfa 48 - ^ $rbx: .cfa 0 - ^ .ra: .cfa 8 - ^
STACK CFI INIT 693e0 ea .cfa: $rsp 176 + $rbp: .cfa 16 - ^ $rsi: .cfa 24 - ^ $rdi: .cfa 32 - ^ $r14: .cfa 40 - ^ $r15: .cfa 48 - ^ $rbx: .cfa 0 - ^ .ra: .cfa 8 - ^
STACK CFI INIT 694d0 be .cfa: $rsp 64 + $r14: .cfa 16 - ^ $rbx: .cfa 0 - ^ $rbp: .cfa 0 - ^ $rsi: .cfa 0 - ^ $rdi: .cfa 0 - ^ .ra: .cfa 8 - ^
STACK CFI INIT 695a0 27b .cfa: $rsp 128 + $rdi: .cfa 16 - ^ $r12: .cfa 24 - ^ $r13: .cfa 32 - ^ $r14: .cfa 40 - ^ $r15: .cfa 48 - ^ $rbx: .cfa 0 - ^ $rbp: .cfa 0 - ^ $rsi: .cfa 0 - ^ .ra: .cfa 8 - ^
STACK CFI INIT 69830 eb .cfa: $rsp 64 + $r14: .cfa 16 - ^ $rbx: .cfa 0 - ^ $rbp: .cfa 0 - ^ $rsi: .cfa 0 - ^ $rdi: .cfa 0 - ^ .ra: .cfa 8 - ^
STACK CFI INIT 69924 7c .cfa: $rsp 8 + $rbx: .cfa 0 - ^ .ra: .cfa 8 - ^
STACK CFI INIT 699d0 ad .cfa: $rsp 48 + $rdi: .cfa 16 - ^ $rbx: .cfa 0 - ^ $rbp: .cfa 0 - ^ $rsi: .cfa 0 - ^ .ra: .cfa 8 - ^
STACK CFI INIT 69a84 24 .cfa: $rsp 48 + $rbx: .cfa 16 - ^ .ra: .cfa 8 - ^
STACK CFI INIT 69ab0 43 .cfa: $rsp 48 + $rbx: .cfa 16 - ^ .ra: .cfa 8 - ^
STACK CFI INIT 69afc 17b .cfa: $rsp 112 + $rbp: .cfa 16 - ^ $rbx: .cfa 24 - ^ $rsi: .cfa 32 - ^ $rdi: .cfa 40 - ^ $r12: .cfa 48 - ^ $r14: .cfa 56 - ^ $r15: .cfa 64 - ^ .ra: .cfa 8 - ^
STACK CFI INIT 69c80 193 .cfa: $rsp 96 + $rbp: .cfa 16 - ^ $r14: .cfa 24 - ^ $r15: .cfa 32 - ^ $rbx: .cfa 0 - ^ $rsi: .cfa 0 - ^ $rdi: .cfa 0 - ^ .ra: .cfa 8 - ^
STACK CFI INIT 69e20 58 .cfa: $rsp 48 + $rdi: .cfa 16 - ^ $rbx: .cfa 0 - ^ $rsi: .cfa 0 - ^ .ra: .cfa 8 - ^
STACK CFI INIT 69e80 4d .cfa: $rsp 48 + $rdi: .cfa 16 - ^ $rbx: .cfa 0 - ^ .ra: .cfa 8 - ^
STACK CFI INIT 69efc 1af .cfa: $rsp 112 + $rbp: .cfa 16 - ^ $rdi: .cfa 24 - ^ $r12: .cfa 32 - ^ $r14: .cfa 40 - ^ $r15: .cfa 48 - ^ $rbx: .cfa 0 - ^ $rsi: .cfa 0 - ^ .ra: .cfa 8 - ^
STACK CFI INIT 6a0b4 d3 .cfa: $rsp 48 + $r14: .cfa 16 - ^ $rbx: .cfa 0 - ^ $rsi: .cfa 0 - ^ $rdi: .cfa 0 - ^ .ra: .cfa 8 - ^
STACK CFI INIT 6a190 2e .cfa: $rsp 48 + $rbx: .cfa 16 - ^ .ra: .cfa 8 - ^
STACK CFI INIT 6a1d0 45 .cfa: $rsp 48 + $rbx: .cfa 16 - ^ .ra: .cfa 8 - ^
STACK CFI INIT 6a21c 46a .cfa: $rsp 1520 + $rbp: .cfa 16 - ^ $rsi: .cfa 24 - ^ $rdi: .cfa 32 - ^ $r12: .cfa 40 - ^ $r13: .cfa 48 - ^ $r14: .cfa 56 - ^ $r15: .cfa 64 - ^ $rbx: .cfa 0 - ^ .ra: .cfa 8 - ^
STACK CFI INIT 6a68c 1a7 .cfa: $rsp 96 + $rbp: .cfa 16 - ^ $rsi: .cfa 24 - ^ $rdi: .cfa 32 - ^ $r14: .cfa 40 - ^ $r15: .cfa 48 - ^ $rbx: .cfa 0 - ^ .ra: .cfa 8 - ^
STACK CFI INIT 6a840 159 .cfa: $rsp 64 + $rdi: .cfa 16 - ^ $rbx: .cfa 0 - ^ $rbp: .cfa 0 - ^ $rsi: .cfa 0 - ^ .ra: .cfa 8 - ^
STACK CFI INIT 6a9cc 86 .cfa: $rsp 8 + $rbx: .cfa 0 - ^ .ra: .cfa 8 - ^
STACK CFI INIT 6aa58 171 .cfa: $rsp 176 + $rbp: .cfa 16 - ^ $rsi: .cfa 24 - ^ $rdi: .cfa 32 - ^ $rbx: .cfa 0 - ^ .ra: .cfa 8 - ^
STACK CFI INIT 6abd0 105 .cfa: $rsp 96 + $rbp: .cfa 16 - ^ $rbx: .cfa 24 - ^ $rsi: .cfa 32 - ^ $rdi: .cfa 40 - ^ .ra: .cfa 8 - ^
STACK CFI INIT 6ace0 ac .cfa: $rsp 48 + .ra: .cfa 8 - ^
STACK CFI INIT 6ae30 29 .cfa: $rsp 48 + $rbx: .cfa 16 - ^ .ra: .cfa 8 - ^
STACK CFI INIT 6ae60 51 .cfa: $rsp 48 + $rdi: .cfa 16 - ^ $rbx: .cfa 0 - ^ .ra: .cfa 8 - ^
STACK CFI INIT 6aed0 13e .cfa: $rsp 80 + $rsi: .cfa 16 - ^ $rdi: .cfa 24 - ^ $r14: .cfa 32 - ^ $rbx: .cfa 0 - ^ $rbp: .cfa 0 - ^ .ra: .cfa 8 - ^
STACK CFI INIT 6b020 13e .cfa: $rsp 80 + $rsi: .cfa 16 - ^ $rdi: .cfa 24 - ^ $r14: .cfa 32 - ^ $rbx: .cfa 0 - ^ $rbp: .cfa 0 - ^ .ra: .cfa 8 - ^
STACK CFI INIT 6b164 af .cfa: $rsp 80 + $rbp: .cfa 16 - ^ $rsi: .cfa 24 - ^ $rdi: .cfa 32 - ^ $rbx: .cfa 0 - ^ .ra: .cfa 8 - ^
STACK CFI INIT 6b21c 58 .cfa: $rsp 48 + $rdi: .cfa 16 - ^ $rbx: .cfa 0 - ^ $rbp: .cfa 0 - ^ $rsi: .cfa 0 - ^ .ra: .cfa 8 - ^
STACK CFI INIT 6b27c 34 .cfa: $rsp 48 + $rdi: .cfa 16 - ^ $rbx: .cfa 0 - ^ .ra: .cfa 8 - ^
STACK CFI INIT 6b2b0 1a .cfa: $rsp 48 + $rbp: .cfa 16 - ^ .ra: .cfa 8 - ^
STACK CFI INIT 6b310 1c2 .cfa: $rsp 64 + $rsi: .cfa 16 - ^ $rdi: .cfa 24 - ^ $r14: .cfa 32 - ^ $rbx: .cfa 0 - ^ $rbp: .cfa 0 - ^ .ra: .cfa 8 - ^
STACK CFI INIT 6b4d8 16d .cfa: $rsp 80 + $rbp: .cfa 16 - ^ $rsi: .cfa 24 - ^ $rdi: .cfa 32 - ^ $rbx: .cfa 0 - ^ .ra: .cfa 8 - ^
STACK CFI INIT 6b64c 57c .cfa: $rsp 688 + $rbp: .cfa 16 - ^ $rsi: .cfa 24 - ^ $rdi: .cfa 32 - ^ $r12: .cfa 40 - ^ $r13: .cfa 48 - ^ $r14: .cfa 56 - ^ $r15: .cfa 64 - ^ $rbx: .cfa 0 - ^ .ra: .cfa 8 - ^
STACK CFI INIT 6bbd0 188 .cfa: $rsp 96 + $r14: .cfa 16 - ^ $rbx: .cfa 0 - ^ $rsi: .cfa 0 - ^ $rdi: .cfa 0 - ^ .ra: .cfa 8 - ^
STACK CFI INIT 6bd58 27 .cfa: $rsp 48 + $rbp: .cfa 16 - ^ .ra: .cfa 8 - ^
STACK CFI INIT 6bd88 17 .cfa: $rsp 64 + .ra: .cfa 8 - ^
STACK CFI INIT 6bda8 1f .cfa: $rsp 64 + .ra: .cfa 8 - ^
STACK CFI INIT 6bdd0 121 .cfa: $rsp 48 + $rbx: .cfa 16 - ^ .ra: .cfa 8 - ^
STACK CFI INIT 6bef1 27 .cfa: $rsp 48 + $rbp: .cfa 16 - ^ .ra: .cfa 8 - ^
STACK CFI INIT 6bf20 78 .cfa: $rsp 48 + $rbx: .cfa 16 - ^ .ra: .cfa 8 - ^
STACK CFI INIT 6bfc0 4e .cfa: $rsp 48 + $rdi: .cfa 16 - ^ $rbx: .cfa 0 - ^ .ra: .cfa 8 - ^
STACK CFI INIT 6c014 7f .cfa: $rsp 48 + $rdi: .cfa 16 - ^ $rbx: .cfa 0 - ^ .ra: .cfa 8 - ^
STACK CFI INIT 6c0a0 32 .cfa: $rsp 48 + $rbx: .cfa 16 - ^ .ra: .cfa 8 - ^
STACK CFI INIT 6c0e0 3a .cfa: $rsp 80 + .ra: .cfa 8 - ^
STACK CFI INIT 6c120 2a .cfa: $rsp 64 + .ra: .cfa 8 - ^
STACK CFI INIT 6c170 67 .cfa: $rsp 96 + .ra: .cfa 8 - ^
STACK CFI INIT 6c1e0 435 .cfa: $rsp 400 + $rbp: .cfa 16 - ^ $rsi: .cfa 24 - ^ $rdi: .cfa 32 - ^ $r12: .cfa 40 - ^ $r13: .cfa 48 - ^ $r14: .cfa 56 - ^ $r15: .cfa 64 - ^ $rbx: .cfa 0 - ^ .ra: .cfa 8 - ^
STACK CFI INIT 6c61c 1b4 .cfa: $rsp 160 + $rsi: .cfa 16 - ^ $rdi: .cfa 24 - ^ $r14: .cfa 32 - ^ $rbx: .cfa 0 - ^ $rbp: .cfa 0 - ^ .ra: .cfa 8 - ^
STACK CFI INIT 6c7d8 137 .cfa: $rsp 160 + $rbx: .cfa 16 - ^ $rsi: .cfa 24 - ^ $rdi: .cfa 32 - ^ .ra: .cfa 8 - ^
STACK CFI INIT 6c918 3c0 .cfa: $rsp 272 + $rbp: .cfa 16 - ^ $rbx: .cfa 24 - ^ $rsi: .cfa 32 - ^ $rdi: .cfa 40 - ^ $r12: .cfa 48 - ^ $r13: .cfa 56 - ^ $r14: .cfa 64 - ^ $r15: .cfa 72 - ^ .ra: .cfa 8 - ^
STACK CFI INIT 6cd10 c4 .cfa: $rsp 48 + .ra: .cfa 8 - ^
STACK CFI INIT 6ce10 2d .cfa: $rsp 48 + $rbx: .cfa 16 - ^ .ra: .cfa 8 - ^
STACK CFI INIT 6ce50 10b .cfa: $rsp 144 + $rdi: .cfa 16 - ^ $rbx: .cfa 0 - ^ $rsi: .cfa 0 - ^ .ra: .cfa 8 - ^
STACK CFI INIT 6cf90 f3 .cfa: $rsp 144 + $rdi: .cfa 16 - ^ $rbx: .cfa 0 - ^ $rsi: .cfa 0 - ^ .ra: .cfa 8 - ^
STACK CFI INIT 6d090 41 .cfa: $rsp 48 + $rdi: .cfa 16 - ^ $rbx: .cfa 0 - ^ .ra: .cfa 8 - ^
STACK CFI INIT 6d0d8 66 .cfa: $rsp 48 + $rbx: .cfa 16 - ^ .ra: .cfa 8 - ^
STACK CFI INIT 6d150 32 .cfa: $rsp 48 + $rbx: .cfa 16 - ^ .ra: .cfa 8 - ^
STACK CFI INIT 6d190 205 .cfa: $rsp 192 + $rbp: .cfa 16 - ^ $rsi: .cfa 24 - ^ $rdi: .cfa 32 - ^ $r14: .cfa 40 - ^ $r15: .cfa 48 - ^ $rbx: .cfa 0 - ^ .ra: .cfa 8 - ^
STACK CFI INIT 6d3d0 a5 .cfa: $rsp 48 + .ra: .cfa 8 - ^
STACK CFI INIT 6d4b0 63 .cfa: $rsp 48 + $rdi: .cfa 16 - ^ $rbx: .cfa 0 - ^ .ra: .cfa 8 - ^
STACK CFI INIT 6d520 c4 .cfa: $rsp 144 + $rdi: .cfa 16 - ^ $rbx: .cfa 0 - ^ .ra: .cfa 8 - ^
STACK CFI INIT 6d5f0 ed .cfa: $rsp 144 + $rdi: .cfa 16 - ^ $rbx: .cfa 0 - ^ .ra: .cfa 8 - ^
STACK CFI INIT 6d6e4 78 .cfa: $rsp 48 + $rdi: .cfa 16 - ^ $rbx: .cfa 0 - ^ .ra: .cfa 8 - ^
STACK CFI INIT 6d770 141 .cfa: $rsp 144 + $rdi: .cfa 16 - ^ $rbx: .cfa 0 - ^ $rbp: .cfa 0 - ^ $rsi: .cfa 0 - ^ .ra: .cfa 8 - ^
STACK CFI INIT 6d8b8 30 .cfa: $rsp 48 + $rbx: .cfa 16 - ^ .ra: .cfa 8 - ^
STACK CFI INIT 6d8f0 91 .cfa: $rsp 48 + $rdi: .cfa 16 - ^ $rbx: .cfa 0 - ^ $rbp: .cfa 0 - ^ $rsi: .cfa 0 - ^ .ra: .cfa 8 - ^
STACK CFI INIT 6d988 8d .cfa: $rsp 48 + $rdi: .cfa 16 - ^ $rbx: .cfa 0 - ^ $rsi: .cfa 0 - ^ .ra: .cfa 8 - ^
STACK CFI INIT 6da1c 2f .cfa: $rsp 48 + $rbx: .cfa 16 - ^ .ra: .cfa 8 - ^
STACK CFI INIT 6da54 4f .cfa: $rsp 48 + $rbx: .cfa 16 - ^ .ra: .cfa 8 - ^
STACK CFI INIT 6daac e6 .cfa: $rsp 64 + $r12: .cfa 16 - ^ $r14: .cfa 24 - ^ $r15: .cfa 32 - ^ $rbx: .cfa 0 - ^ $rbp: .cfa 0 - ^ $rsi: .cfa 0 - ^ $rdi: .cfa 0 - ^ .ra: .cfa 8 - ^
STACK CFI INIT 6db98 2d .cfa: $rsp 112 + $rbx: .cfa 16 - ^ $rbp: .cfa 24 - ^ $r15: .cfa 32 - ^ .ra: .cfa 8 - ^
STACK CFI INIT 6dbc5 151 .cfa: $rsp 112 + $rsi: .cfa 0 - ^ $rdi: .cfa 0 - ^ $r12: .cfa 0 - ^ $r13: .cfa 0 - ^ $r14: .cfa 0 - ^ $rbx: .cfa 16 - ^ $rbp: .cfa 24 - ^ $r15: .cfa 32 - ^ .ra: .cfa 8 - ^
STACK CFI INIT 6dd16 9 .cfa: $rsp 112 + $rbx: .cfa 16 - ^ $rbp: .cfa 24 - ^ $r15: .cfa 32 - ^ .ra: .cfa 8 - ^
STACK CFI INIT 6dd1f 49 .cfa: $rsp 112 + $rsi: .cfa 0 - ^ $rdi: .cfa 0 - ^ $r12: .cfa 0 - ^ $r13: .cfa 0 - ^ $r14: .cfa 0 - ^ $rbx: .cfa 16 - ^ $rbp: .cfa 24 - ^ $r15: .cfa 32 - ^ .ra: .cfa 8 - ^
STACK CFI INIT 6dd70 41 .cfa: $rsp 64 + .ra: .cfa 8 - ^
STACK CFI INIT 6ddc0 47 .cfa: $rsp 64 + .ra: .cfa 8 - ^
STACK CFI INIT 6de10 47 .cfa: $rsp 64 + .ra: .cfa 8 - ^
STACK CFI INIT 6de60 52 .cfa: $rsp 80 + .ra: .cfa 8 - ^
STACK CFI INIT 6dec0 47 .cfa: $rsp 64 + .ra: .cfa 8 - ^
STACK CFI INIT 6df10 16e .cfa: $rsp 192 + $rbp: .cfa 16 - ^ $rbx: .cfa 24 - ^ $rsi: .cfa 32 - ^ $rdi: .cfa 40 - ^ $r14: .cfa 48 - ^ $r15: .cfa 56 - ^ .ra: .cfa 8 - ^
STACK CFI INIT 6e090 46 .cfa: $rsp 80 + .ra: .cfa 8 - ^
STACK CFI INIT 6e0dc 255 .cfa: $rsp 176 + $rbp: .cfa 16 - ^ $r14: .cfa 24 - ^ $r15: .cfa 32 - ^ $rbx: .cfa 0 - ^ $rsi: .cfa 0 - ^ $rdi: .cfa 0 - ^ .ra: .cfa 8 - ^
STACK CFI INIT 6e340 2a3 .cfa: $rsp 208 + $rbp: .cfa 16 - ^ $rsi: .cfa 24 - ^ $rdi: .cfa 32 - ^ $r12: .cfa 40 - ^ $r13: .cfa 48 - ^ $r14: .cfa 56 - ^ $r15: .cfa 64 - ^ $rbx: .cfa 0 - ^ .ra: .cfa 8 - ^
STACK CFI INIT 6e5f0 32 .cfa: $rsp 80 + .ra: .cfa 8 - ^
STACK CFI INIT 6e630 2f .cfa: $rsp 80 + .ra: .cfa 8 - ^
STACK CFI INIT 6e670 374 .cfa: $rsp 240 + $rbp: .cfa 16 - ^ $rbx: .cfa 24 - ^ $rsi: .cfa 32 - ^ $rdi: .cfa 40 - ^ $r13: .cfa 48 - ^ $r14: .cfa 56 - ^ $r15: .cfa 64 - ^ .ra: .cfa 8 - ^
STACK CFI INIT 6e9f0 50 .cfa: $rsp 80 + .ra: .cfa 8 - ^
STACK CFI INIT 6ea50 1b9 .cfa: $rsp 176 + $rbp: .cfa 16 - ^ $rdi: .cfa 24 - ^ $r14: .cfa 32 - ^ $rbx: .cfa 0 - ^ $rsi: .cfa 0 - ^ .ra: .cfa 8 - ^
STACK CFI INIT 6ec10 185 .cfa: $rsp 176 + $rbp: .cfa 16 - ^ $rsi: .cfa 24 - ^ $rdi: .cfa 32 - ^ $rbx: .cfa 0 - ^ .ra: .cfa 8 - ^
STACK CFI INIT 6eda0 50 .cfa: $rsp 80 + .ra: .cfa 8 - ^
STACK CFI INIT 6ee00 165 .cfa: $rsp 176 + $rbp: .cfa 16 - ^ $rsi: .cfa 24 - ^ $rdi: .cfa 32 - ^ $rbx: .cfa 0 - ^ .ra: .cfa 8 - ^
STACK CFI INIT 6ef70 281 .cfa: $rsp 208 + $rbp: .cfa 16 - ^ $rdi: .cfa 24 - ^ $r12: .cfa 32 - ^ $r14: .cfa 40 - ^ $r15: .cfa 48 - ^ $rbx: .cfa 0 - ^ $rsi: .cfa 0 - ^ .ra: .cfa 8 - ^
STACK CFI INIT 6f200 5e .cfa: $rsp 96 + .ra: .cfa 8 - ^
STACK CFI INIT 6f270 137 .cfa: $rsp 144 + $rdi: .cfa 16 - ^ $rbx: .cfa 0 - ^ $rsi: .cfa 0 - ^ .ra: .cfa 8 - ^
STACK CFI INIT 6f3b0 165 .cfa: $rsp 176 + $rbp: .cfa 16 - ^ $rsi: .cfa 24 - ^ $rdi: .cfa 32 - ^ $rbx: .cfa 0 - ^ .ra: .cfa 8 - ^
STACK CFI INIT 6f520 1a8 .cfa: $rsp 176 + $rsi: .cfa 16 - ^ $rdi: .cfa 24 - ^ $r14: .cfa 32 - ^ $rbx: .cfa 0 - ^ .ra: .cfa 8 - ^
STACK CFI INIT 6f6d0 107 .cfa: $rsp 144 + $rdi: .cfa 16 - ^ $rbx: .cfa 0 - ^ $rsi: .cfa 0 - ^ .ra: .cfa 8 - ^
STACK CFI INIT 6f7e0 146 .cfa: $rsp 160 + $rbx: .cfa 16 - ^ $rsi: .cfa 24 - ^ $rdi: .cfa 32 - ^ .ra: .cfa 8 - ^
STACK CFI INIT 6f930 149 .cfa: $rsp 160 + $rbx: .cfa 16 - ^ $rsi: .cfa 24 - ^ $rdi: .cfa 32 - ^ .ra: .cfa 8 - ^
STACK CFI INIT 6fa80 50 .cfa: $rsp 80 + .ra: .cfa 8 - ^
STACK CFI INIT 6fae0 1b9 .cfa: $rsp 176 + $rbp: .cfa 16 - ^ $rdi: .cfa 24 - ^ $r14: .cfa 32 - ^ $rbx: .cfa 0 - ^ $rsi: .cfa 0 - ^ .ra: .cfa 8 - ^
STACK CFI INIT 6fca0 16d .cfa: $rsp 176 + $rbx: .cfa 16 - ^ $rsi: .cfa 24 - ^ $rdi: .cfa 32 - ^ .ra: .cfa 8 - ^
STACK CFI INIT 6fe14 17e .cfa: $rsp 144 + $rdi: .cfa 16 - ^ $rbx: .cfa 0 - ^ $rbp: .cfa 0 - ^ $rsi: .cfa 0 - ^ .ra: .cfa 8 - ^
STACK CFI INIT 6ffa0 182 .cfa: $rsp 112 + $rbp: .cfa 16 - ^ $rsi: .cfa 24 - ^ $rdi: .cfa 32 - ^ $r12: .cfa 40 - ^ $r13: .cfa 48 - ^ $r14: .cfa 56 - ^ $r15: .cfa 64 - ^ $rbx: .cfa 0 - ^ .ra: .cfa 8 - ^
STACK CFI INIT 70130 11c .cfa: $rsp 80 + $rdi: .cfa 16 - ^ $r14: .cfa 24 - ^ $r15: .cfa 32 - ^ $rbx: .cfa 0 - ^ $rbp: .cfa 0 - ^ $rsi: .cfa 0 - ^ .ra: .cfa 8 - ^
STACK CFI INIT 70270 ce .cfa: $rsp 48 + .ra: .cfa 8 - ^
STACK CFI INIT 70360 63 .cfa: $rsp 48 + $rdi: .cfa 16 - ^ $rbx: .cfa 0 - ^ .ra: .cfa 8 - ^
STACK CFI INIT 70400 64 .cfa: $rsp 48 + $rdi: .cfa 16 - ^ $rbx: .cfa 0 - ^ $rsi: .cfa 0 - ^ .ra: .cfa 8 - ^
STACK CFI INIT 7046c 194 .cfa: $rsp 96 + $rsi: .cfa 16 - ^ $rdi: .cfa 24 - ^ $r14: .cfa 32 - ^ $rbx: .cfa 0 - ^ $rbp: .cfa 0 - ^ .ra: .cfa 8 - ^
STACK CFI INIT 70610 242 .cfa: $rsp 112 + $rbp: .cfa 16 - ^ $rsi: .cfa 24 - ^ $rdi: .cfa 32 - ^ $r12: .cfa 40 - ^ $r13: .cfa 48 - ^ $r14: .cfa 56 - ^ $r15: .cfa 64 - ^ $rbx: .cfa 0 - ^ .ra: .cfa 8 - ^
STACK CFI INIT 70860 160 .cfa: $rsp 64 + $rdi: .cfa 16 - ^ $rbx: .cfa 0 - ^ $rbp: .cfa 0 - ^ $rsi: .cfa 0 - ^ .ra: .cfa 8 - ^
STACK CFI INIT 709c8 e4 .cfa: $rsp 64 + $rdi: .cfa 16 - ^ $rbx: .cfa 0 - ^ $rbp: .cfa 0 - ^ $rsi: .cfa 0 - ^ .ra: .cfa 8 - ^
STACK CFI INIT 70ab4 85 .cfa: $rsp 64 + $rdi: .cfa 16 - ^ $rbx: .cfa 0 - ^ $rsi: .cfa 0 - ^ .ra: .cfa 8 - ^
STACK CFI INIT 70bc0 4c .cfa: $rsp 48 + $rdi: .cfa 16 - ^ $rbx: .cfa 0 - ^ .ra: .cfa 8 - ^
STACK CFI INIT 70c14 7c .cfa: $rsp 48 + $rdi: .cfa 16 - ^ $rbx: .cfa 0 - ^ .ra: .cfa 8 - ^
STACK CFI INIT 70ca0 32 .cfa: $rsp 48 + $rbx: .cfa 16 - ^ .ra: .cfa 8 - ^
STACK CFI INIT 70cd8 10a .cfa: $rsp 144 + $rdi: .cfa 16 - ^ $rbx: .cfa 0 - ^ $rsi: .cfa 0 - ^ .ra: .cfa 8 - ^
STACK CFI INIT 70df0 33c .cfa: $rsp 208 + $rbp: .cfa 16 - ^ $rsi: .cfa 24 - ^ $rdi: .cfa 32 - ^ $r12: .cfa 40 - ^ $r13: .cfa 48 - ^ $r14: .cfa 56 - ^ $r15: .cfa 64 - ^ $rbx: .cfa 0 - ^ .ra: .cfa 8 - ^
STACK CFI INIT 71140 41 .cfa: $rsp 64 + .ra: .cfa 8 - ^
STACK CFI INIT 71190 46 .cfa: $rsp 80 + .ra: .cfa 8 - ^
STACK CFI INIT 711e0 32 .cfa: $rsp 80 + .ra: .cfa 8 - ^
STACK CFI INIT 71220 2f .cfa: $rsp 80 + .ra: .cfa 8 - ^
STACK CFI INIT 71260 3a6 .cfa: $rsp 256 + $rbp: .cfa 16 - ^ $rsi: .cfa 24 - ^ $rdi: .cfa 32 - ^ $r12: .cfa 40 - ^ $r13: .cfa 48 - ^ $r14: .cfa 56 - ^ $r15: .cfa 64 - ^ $rbx: .cfa 0 - ^ .ra: .cfa 8 - ^
STACK CFI INIT 71610 13e .cfa: $rsp 144 + $r14: .cfa 16 - ^ $rbx: .cfa 0 - ^ $rsi: .cfa 0 - ^ $rdi: .cfa 0 - ^ .ra: .cfa 8 - ^
STACK CFI INIT 71760 196 .cfa: $rsp 192 + $rbp: .cfa 16 - ^ $rsi: .cfa 24 - ^ $rdi: .cfa 32 - ^ $r14: .cfa 40 - ^ $r15: .cfa 48 - ^ $rbx: .cfa 0 - ^ .ra: .cfa 8 - ^
STACK CFI INIT 71900 107 .cfa: $rsp 144 + $rdi: .cfa 16 - ^ $rbx: .cfa 0 - ^ $rsi: .cfa 0 - ^ .ra: .cfa 8 - ^
STACK CFI INIT 71a10 137 .cfa: $rsp 160 + $rbp: .cfa 16 - ^ $rsi: .cfa 24 - ^ $rdi: .cfa 32 - ^ $rbx: .cfa 0 - ^ .ra: .cfa 8 - ^
STACK CFI INIT 71b50 21 .cfa: $rsp 48 + .ra: .cfa 8 - ^
STACK CFI INIT 71b80 13a .cfa: $rsp 144 + $rdi: .cfa 16 - ^ $rbx: .cfa 0 - ^ $rbp: .cfa 0 - ^ $rsi: .cfa 0 - ^ .ra: .cfa 8 - ^
STACK CFI INIT 71cc0 168 .cfa: $rsp 176 + $rbp: .cfa 16 - ^ $rsi: .cfa 24 - ^ $rdi: .cfa 32 - ^ $rbx: .cfa 0 - ^ .ra: .cfa 8 - ^
STACK CFI INIT 71e30 215 .cfa: $rsp 192 + $rbp: .cfa 16 - ^ $rdi: .cfa 24 - ^ $r12: .cfa 32 - ^ $r14: .cfa 40 - ^ $r15: .cfa 48 - ^ $rbx: .cfa 0 - ^ $rsi: .cfa 0 - ^ .ra: .cfa 8 - ^
STACK CFI INIT 72080 d7 .cfa: $rsp 48 + .ra: .cfa 8 - ^
STACK CFI INIT 72160 177 .cfa: $rsp 96 + $rbp: .cfa 16 - ^ $rsi: .cfa 24 - ^ $rdi: .cfa 32 - ^ $r12: .cfa 40 - ^ $r14: .cfa 48 - ^ $rbx: .cfa 0 - ^ .ra: .cfa 8 - ^
STACK CFI INIT 72310 63 .cfa: $rsp 48 + $rdi: .cfa 16 - ^ $rbx: .cfa 0 - ^ .ra: .cfa 8 - ^
STACK CFI INIT 72380 1e .cfa: $rsp 48 + .ra: .cfa 8 - ^
STACK CFI INIT 723a4 13f .cfa: $rsp 144 + $rdi: .cfa 16 - ^ $rbx: .cfa 0 - ^ $rsi: .cfa 0 - ^ .ra: .cfa 8 - ^
STACK CFI INIT 724ec e9 .cfa: $rsp 64 + $rdi: .cfa 16 - ^ $rbx: .cfa 0 - ^ .ra: .cfa 8 - ^
STACK CFI INIT 725e0 2d9 .cfa: $rsp 208 + $rbp: .cfa 16 - ^ $rsi: .cfa 24 - ^ $rdi: .cfa 32 - ^ $r12: .cfa 40 - ^ $r13: .cfa 48 - ^ $r14: .cfa 56 - ^ $r15: .cfa 64 - ^ $rbx: .cfa 0 - ^ .ra: .cfa 8 - ^
STACK CFI INIT 728c0 1d6 .cfa: $rsp 192 + $rbp: .cfa 16 - ^ $rdi: .cfa 24 - ^ $r13: .cfa 32 - ^ $r14: .cfa 40 - ^ $r15: .cfa 48 - ^ $rbx: .cfa 0 - ^ $rsi: .cfa 0 - ^ .ra: .cfa 8 - ^
STACK CFI INIT 72aa0 4c .cfa: $rsp 48 + $rdi: .cfa 16 - ^ $rbx: .cfa 0 - ^ .ra: .cfa 8 - ^
STACK CFI INIT 72af4 6a .cfa: $rsp 48 + $rbx: .cfa 16 - ^ .ra: .cfa 8 - ^
STACK CFI INIT 72b80 97 .cfa: $rsp 48 + .ra: .cfa 8 - ^
STACK CFI INIT 72c30 63 .cfa: $rsp 48 + $rdi: .cfa 16 - ^ $rbx: .cfa 0 - ^ .ra: .cfa 8 - ^
STACK CFI INIT 72c9c 13f .cfa: $rsp 144 + $rdi: .cfa 16 - ^ $rbx: .cfa 0 - ^ $rsi: .cfa 0 - ^ .ra: .cfa 8 - ^
STACK CFI INIT 72de4 66 .cfa: $rsp 48 + $rbx: .cfa 16 - ^ .ra: .cfa 8 - ^
STACK CFI INIT 72e50 124 .cfa: $rsp 144 + $rdi: .cfa 16 - ^ $rbx: .cfa 0 - ^ $rsi: .cfa 0 - ^ .ra: .cfa 8 - ^
STACK CFI INIT 72f90 a5 .cfa: $rsp 48 + .ra: .cfa 8 - ^
STACK CFI INIT 73050 63 .cfa: $rsp 48 + $rdi: .cfa 16 - ^ $rbx: .cfa 0 - ^ .ra: .cfa 8 - ^
STACK CFI INIT 730c0 4d .cfa: $rsp 48 + $rdi: .cfa 16 - ^ $rbx: .cfa 0 - ^ .ra: .cfa 8 - ^
STACK CFI INIT 7313c 8e .cfa: $rsp 48 + $rdi: .cfa 16 - ^ $rbx: .cfa 0 - ^ $rsi: .cfa 0 - ^ .ra: .cfa 8 - ^
STACK CFI INIT 731d0 45 .cfa: $rsp 48 + $rbx: .cfa 16 - ^ .ra: .cfa 8 - ^
STACK CFI INIT 7321c 42 .cfa: $rsp 64 + $rbx: .cfa 16 - ^ .ra: .cfa 8 - ^
STACK CFI INIT 73270 ec .cfa: $rsp 64 + $rdi: .cfa 16 - ^ $rbx: .cfa 0 - ^ $rsi: .cfa 0 - ^ .ra: .cfa 8 - ^
STACK CFI INIT 73400 46 .cfa: $rsp 48 + $rdi: .cfa 16 - ^ $rbx: .cfa 0 - ^ .ra: .cfa 8 - ^
STACK CFI INIT 7344c 49b .cfa: $rsp 352 + $rbp: .cfa 16 - ^ $rsi: .cfa 24 - ^ $rdi: .cfa 32 - ^ $r12: .cfa 40 - ^ $r13: .cfa 48 - ^ $r14: .cfa 56 - ^ $r15: .cfa 64 - ^ $rbx: .cfa 0 - ^ .ra: .cfa 8 - ^
STACK CFI INIT 738f0 116 .cfa: $rsp 112 + $rbp: .cfa 16 - ^ $rsi: .cfa 24 - ^ $rdi: .cfa 32 - ^ $r14: .cfa 40 - ^ $r15: .cfa 48 - ^ $rbx: .cfa 0 - ^ .ra: .cfa 8 - ^
STACK CFI INIT 73a0c 79 .cfa: $rsp 64 + $rdi: .cfa 16 - ^ $rbx: .cfa 0 - ^ .ra: .cfa 8 - ^
STACK CFI INIT 73a8c 54d .cfa: $rsp 336 + $rbp: .cfa 16 - ^ $rsi: .cfa 24 - ^ $rdi: .cfa 32 - ^ $r12: .cfa 40 - ^ $r13: .cfa 48 - ^ $r14: .cfa 56 - ^ $r15: .cfa 64 - ^ $rbx: .cfa 0 - ^ .ra: .cfa 8 - ^
STACK CFI INIT 73fe0 50 .cfa: $rsp 48 + $rdi: .cfa 16 - ^ $rbx: .cfa 0 - ^ .ra: .cfa 8 - ^
STACK CFI INIT 74038 70 .cfa: $rsp 48 + $rdi: .cfa 16 - ^ $rbx: .cfa 0 - ^ .ra: .cfa 8 - ^
STACK CFI INIT 740b0 8e .cfa: $rsp 48 + $rdi: .cfa 16 - ^ $rbx: .cfa 0 - ^ $rsi: .cfa 0 - ^ .ra: .cfa 8 - ^
STACK CFI INIT 74144 20f .cfa: $rsp 112 + $rbp: .cfa 16 - ^ $rsi: .cfa 24 - ^ $rdi: .cfa 32 - ^ $r14: .cfa 40 - ^ $r15: .cfa 48 - ^ $rbx: .cfa 0 - ^ .ra: .cfa 8 - ^
STACK CFI INIT 7435c a0 .cfa: $rsp 64 + $rdi: .cfa 16 - ^ $rbx: .cfa 0 - ^ $rsi: .cfa 0 - ^ .ra: .cfa 8 - ^
STACK CFI INIT 74410 101 .cfa: $rsp 64 + $rdi: .cfa 16 - ^ $rbx: .cfa 0 - ^ $rsi: .cfa 0 - ^ .ra: .cfa 8 - ^
STACK CFI INIT 74550 46 .cfa: $rsp 48 + $rdi: .cfa 16 - ^ $rbx: .cfa 0 - ^ .ra: .cfa 8 - ^
STACK CFI INIT 745a0 5f .cfa: $rsp 48 + $rdi: .cfa 16 - ^ $rbx: .cfa 0 - ^ .ra: .cfa 8 - ^
STACK CFI INIT 74608 87 .cfa: $rsp 48 + $rdi: .cfa 16 - ^ $rbx: .cfa 0 - ^ $rsi: .cfa 0 - ^ .ra: .cfa 8 - ^
STACK CFI INIT 74698 ff .cfa: $rsp 112 + $rdi: .cfa 16 - ^ $rbx: .cfa 0 - ^ .ra: .cfa 8 - ^
STACK CFI INIT 747a0 bc .cfa: $rsp 64 + $rdi: .cfa 16 - ^ $rbx: .cfa 0 - ^ .ra: .cfa 8 - ^
STACK CFI INIT 74864 111 .cfa: $rsp 128 + $rdi: .cfa 16 - ^ $rbx: .cfa 0 - ^ $rsi: .cfa 0 - ^ .ra: .cfa 8 - ^
STACK CFI INIT 7497c 29c .cfa: $rsp 128 + $rbp: .cfa 16 - ^ $rbx: .cfa 24 - ^ $rsi: .cfa 32 - ^ $rdi: .cfa 40 - ^ $r15: .cfa 48 - ^ .ra: .cfa 8 - ^
STACK CFI INIT 74c20 1dd .cfa: $rsp 160 + $rbp: .cfa 16 - ^ $rbx: .cfa 24 - ^ $rsi: .cfa 32 - ^ $rdi: .cfa 40 - ^ $r14: .cfa 48 - ^ $r15: .cfa 56 - ^ .ra: .cfa 8 - ^
STACK CFI INIT 74e04 2b3 .cfa: $rsp 176 + $rbp: .cfa 16 - ^ $rbx: .cfa 24 - ^ $rsi: .cfa 32 - ^ $rdi: .cfa 40 - ^ $r12: .cfa 48 - ^ $r14: .cfa 56 - ^ $r15: .cfa 64 - ^ .ra: .cfa 8 - ^
STACK CFI INIT 750c0 152 .cfa: $rsp 144 + $rbp: .cfa 16 - ^ $rdi: .cfa 24 - ^ $r14: .cfa 32 - ^ $rbx: .cfa 0 - ^ $rsi: .cfa 0 - ^ .ra: .cfa 8 - ^
STACK CFI INIT 75218 137 .cfa: $rsp 112 + $rbp: .cfa 16 - ^ $rbx: .cfa 24 - ^ $rsi: .cfa 32 - ^ $rdi: .cfa 40 - ^ .ra: .cfa 8 - ^
STACK CFI INIT 75358 fe .cfa: $rsp 96 + $rbp: .cfa 16 - ^ $rbx: .cfa 24 - ^ $rdi: .cfa 32 - ^ .ra: .cfa 8 - ^
STACK CFI INIT 7545c 152 .cfa: $rsp 144 + $rbp: .cfa 16 - ^ $rdi: .cfa 24 - ^ $r14: .cfa 32 - ^ $rbx: .cfa 0 - ^ $rsi: .cfa 0 - ^ .ra: .cfa 8 - ^
STACK CFI INIT 755b4 bd .cfa: $rsp 64 + $rbx: .cfa 16 - ^ .ra: .cfa 8 - ^
STACK CFI INIT 75678 219 .cfa: $rsp 128 + $rbp: .cfa 16 - ^ $rbx: .cfa 24 - ^ $rsi: .cfa 32 - ^ $rdi: .cfa 40 - ^ $r12: .cfa 48 - ^ $r14: .cfa 56 - ^ .ra: .cfa 8 - ^
STACK CFI INIT 75898 197 .cfa: $rsp 144 + $rbp: .cfa 16 - ^ $rdi: .cfa 24 - ^ $r14: .cfa 32 - ^ $rbx: .cfa 0 - ^ $rsi: .cfa 0 - ^ .ra: .cfa 8 - ^
STACK CFI INIT 75a38 d3 .cfa: $rsp 64 + $rdi: .cfa 16 - ^ $rbx: .cfa 0 - ^ .ra: .cfa 8 - ^
STACK CFI INIT 75b14 b5 .cfa: $rsp 64 + $rbx: .cfa 16 - ^ .ra: .cfa 8 - ^
STACK CFI INIT 75bd0 fb .cfa: $rsp 80 + $rbx: .cfa 16 - ^ $rdi: .cfa 24 - ^ .ra: .cfa 8 - ^
STACK CFI INIT 75cd4 90 .cfa: $rsp 48 + $rdi: .cfa 16 - ^ $rbx: .cfa 0 - ^ .ra: .cfa 8 - ^
STACK CFI INIT 75d6c 6f .cfa: $rsp 64 + $rbx: .cfa 16 - ^ .ra: .cfa 8 - ^
STACK CFI INIT 75de4 77 .cfa: $rsp 64 + $rbx: .cfa 16 - ^ .ra: .cfa 8 - ^
STACK CFI INIT 75e64 152 .cfa: $rsp 144 + $rbp: .cfa 16 - ^ $rdi: .cfa 24 - ^ $r14: .cfa 32 - ^ $rbx: .cfa 0 - ^ $rsi: .cfa 0 - ^ .ra: .cfa 8 - ^
STACK CFI INIT 75fbc 137 .cfa: $rsp 112 + $rbp: .cfa 16 - ^ $rbx: .cfa 24 - ^ $rsi: .cfa 32 - ^ $rdi: .cfa 40 - ^ .ra: .cfa 8 - ^
STACK CFI INIT 760fc c0 .cfa: $rsp 64 + $rbx: .cfa 16 - ^ .ra: .cfa 8 - ^
STACK CFI INIT 761d0 24f .cfa: $rsp 64 + $rdi: .cfa 16 - ^ $rbx: .cfa 0 - ^ $rsi: .cfa 0 - ^ .ra: .cfa 8 - ^
STACK CFI INIT 76490 46 .cfa: $rsp 48 + $rdi: .cfa 16 - ^ $rbx: .cfa 0 - ^ .ra: .cfa 8 - ^
STACK CFI INIT 764e0 5f .cfa: $rsp 48 + $rdi: .cfa 16 - ^ $rbx: .cfa 0 - ^ .ra: .cfa 8 - ^
STACK CFI INIT 76548 8b .cfa: $rsp 48 + $rdi: .cfa 16 - ^ $rbx: .cfa 0 - ^ $rsi: .cfa 0 - ^ .ra: .cfa 8 - ^
STACK CFI INIT 765dc 290 .cfa: $rsp 160 + $rbp: .cfa 16 - ^ $rbx: .cfa 24 - ^ $rsi: .cfa 32 - ^ $rdi: .cfa 40 - ^ $r12: .cfa 48 - ^ $r13: .cfa 56 - ^ $r14: .cfa 64 - ^ $r15: .cfa 72 - ^ .ra: .cfa 8 - ^
STACK CFI INIT 76874 fb .cfa: $rsp 80 + $rdi: .cfa 16 - ^ $rbx: .cfa 0 - ^ $rsi: .cfa 0 - ^ .ra: .cfa 8 - ^
STACK CFI INIT 76978 113 .cfa: $rsp 128 + $rdi: .cfa 16 - ^ $rbx: .cfa 0 - ^ $rbp: .cfa 0 - ^ $rsi: .cfa 0 - ^ .ra: .cfa 8 - ^
STACK CFI INIT 76a94 2fd .cfa: $rsp 192 + $rbp: .cfa 16 - ^ $rbx: .cfa 24 - ^ $rsi: .cfa 32 - ^ $rdi: .cfa 40 - ^ $r12: .cfa 48 - ^ $r13: .cfa 56 - ^ $r14: .cfa 64 - ^ $r15: .cfa 72 - ^ .ra: .cfa 8 - ^
STACK CFI INIT 76d98 92 .cfa: $rsp 48 + $rdi: .cfa 16 - ^ $rbx: .cfa 0 - ^ $rsi: .cfa 0 - ^ .ra: .cfa 8 - ^
STACK CFI INIT 76e30 a8 .cfa: $rsp 64 + $rdi: .cfa 16 - ^ $rbx: .cfa 0 - ^ $rsi: .cfa 0 - ^ .ra: .cfa 8 - ^
STACK CFI INIT 76ee0 95 .cfa: $rsp 48 + $rdi: .cfa 16 - ^ $rbx: .cfa 0 - ^ $rsi: .cfa 0 - ^ .ra: .cfa 8 - ^
STACK CFI INIT 76f7c ca .cfa: $rsp 80 + $rbx: .cfa 16 - ^ $rsi: .cfa 24 - ^ $rdi: .cfa 32 - ^ .ra: .cfa 8 - ^
STACK CFI INIT 7704c 4a .cfa: $rsp 64 + $rbx: .cfa 16 - ^ .ra: .cfa 8 - ^
STACK CFI INIT 7709c f6 .cfa: $rsp 112 + $rdi: .cfa 16 - ^ $rbx: .cfa 0 - ^ $rsi: .cfa 0 - ^ .ra: .cfa 8 - ^
STACK CFI INIT 77198 c2 .cfa: $rsp 80 + $rbx: .cfa 16 - ^ $rdi: .cfa 24 - ^ .ra: .cfa 8 - ^
STACK CFI INIT 77260 181 .cfa: $rsp 64 + $rdi: .cfa 16 - ^ $rbx: .cfa 0 - ^ $rsi: .cfa 0 - ^ .ra: .cfa 8 - ^
STACK CFI INIT 77444 114 .cfa: $rsp 112 + $rbp: .cfa 16 - ^ $rbx: .cfa 24 - ^ $rdi: .cfa 32 - ^ $r14: .cfa 40 - ^ .ra: .cfa 8 - ^
STACK CFI INIT 77560 46 .cfa: $rsp 48 + $rdi: .cfa 16 - ^ $rbx: .cfa 0 - ^ .ra: .cfa 8 - ^
STACK CFI INIT 775ac 92 .cfa: $rsp 64 + $rdi: .cfa 16 - ^ $rbx: .cfa 0 - ^ .ra: .cfa 8 - ^
STACK CFI INIT 77644 243 .cfa: $rsp 144 + $rbp: .cfa 16 - ^ $rbx: .cfa 24 - ^ $rsi: .cfa 32 - ^ $rdi: .cfa 40 - ^ $r14: .cfa 48 - ^ .ra: .cfa 8 - ^
STACK CFI INIT 77890 113 .cfa: $rsp 112 + $rbp: .cfa 16 - ^ $rbx: .cfa 24 - ^ $rsi: .cfa 32 - ^ $rdi: .cfa 40 - ^ $r14: .cfa 48 - ^ .ra: .cfa 8 - ^
STACK CFI INIT 779b0 50 .cfa: $rsp 48 + $rdi: .cfa 16 - ^ $rbx: .cfa 0 - ^ .ra: .cfa 8 - ^
STACK CFI INIT 77a08 78 .cfa: $rsp 48 + $rdi: .cfa 16 - ^ $rbx: .cfa 0 - ^ .ra: .cfa 8 - ^
STACK CFI INIT 77a90 c7 .cfa: $rsp 64 + $rdi: .cfa 16 - ^ $rbx: .cfa 0 - ^ $rsi: .cfa 0 - ^ .ra: .cfa 8 - ^
STACK CFI INIT 77b90 46 .cfa: $rsp 48 + $rdi: .cfa 16 - ^ $rbx: .cfa 0 - ^ .ra: .cfa 8 - ^
STACK CFI INIT 77be0 50 .cfa: $rsp 48 + $rdi: .cfa 16 - ^ $rbx: .cfa 0 - ^ .ra: .cfa 8 - ^
STACK CFI INIT 77c38 70 .cfa: $rsp 48 + $rdi: .cfa 16 - ^ $rbx: .cfa 0 - ^ .ra: .cfa 8 - ^
STACK CFI INIT 77cb0 f4 .cfa: $rsp 96 + $rdi: .cfa 16 - ^ $rbx: .cfa 0 - ^ $rsi: .cfa 0 - ^ .ra: .cfa 8 - ^
STACK CFI INIT 77db0 9f .cfa: $rsp 64 + $rdi: .cfa 16 - ^ $rbx: .cfa 0 - ^ $rsi: .cfa 0 - ^ .ra: .cfa 8 - ^
STACK CFI INIT 77e90 46 .cfa: $rsp 48 + $rdi: .cfa 16 - ^ $rbx: .cfa 0 - ^ .ra: .cfa 8 - ^
STACK CFI INIT 77ef4 21a .cfa: $rsp 208 + $rbp: .cfa 16 - ^ $rbx: .cfa 24 - ^ $rsi: .cfa 32 - ^ $rdi: .cfa 40 - ^ $r14: .cfa 48 - ^ .ra: .cfa 8 - ^
STACK CFI INIT 78114 329 .cfa: $rsp 144 + $rbp: .cfa 16 - ^ $rbx: .cfa 24 - ^ $rsi: .cfa 32 - ^ $rdi: .cfa 40 - ^ $r12: .cfa 48 - ^ $r14: .cfa 56 - ^ $r15: .cfa 64 - ^ .ra: .cfa 8 - ^
STACK CFI INIT 78450 34 .cfa: $rsp 48 + $rdi: .cfa 16 - ^ $rbx: .cfa 0 - ^ .ra: .cfa 8 - ^
STACK CFI INIT 7848c 87 .cfa: $rsp 48 + $rdi: .cfa 16 - ^ $rbx: .cfa 0 - ^ .ra: .cfa 8 - ^
STACK CFI INIT 78520 6a .cfa: $rsp 48 + $rdi: .cfa 16 - ^ $rbx: .cfa 0 - ^ .ra: .cfa 8 - ^
STACK CFI INIT 78590 53 .cfa: $rsp 48 + $rdi: .cfa 16 - ^ $rbx: .cfa 0 - ^ .ra: .cfa 8 - ^
STACK CFI INIT 78620 1e .cfa: $rsp 48 + .ra: .cfa 8 - ^
STACK CFI INIT 78650 1c2 .cfa: $rsp 64 + $rsi: .cfa 16 - ^ $rdi: .cfa 24 - ^ $r14: .cfa 32 - ^ $rbx: .cfa 0 - ^ $rbp: .cfa 0 - ^ .ra: .cfa 8 - ^
STACK CFI INIT 78820 39 .cfa: $rsp 48 + $rbx: .cfa 16 - ^ .ra: .cfa 8 - ^
STACK CFI INIT 78860 4a .cfa: $rsp 48 + .ra: .cfa 8 - ^
STACK CFI INIT 788b0 1c .cfa: $rsp 48 + .ra: .cfa 8 - ^
STACK CFI INIT 788e0 2a .cfa: $rsp 48 + .ra: .cfa 8 - ^
STACK CFI INIT 78910 2a .cfa: $rsp 48 + .ra: .cfa 8 - ^
STACK CFI INIT 78940 2a .cfa: $rsp 48 + .ra: .cfa 8 - ^
STACK CFI INIT 78970 2a .cfa: $rsp 48 + .ra: .cfa 8 - ^
STACK CFI INIT 789a0 2a .cfa: $rsp 48 + .ra: .cfa 8 - ^
STACK CFI INIT 789d0 2a .cfa: $rsp 48 + .ra: .cfa 8 - ^
STACK CFI INIT 78a00 2a .cfa: $rsp 48 + .ra: .cfa 8 - ^
STACK CFI INIT 78a30 2a .cfa: $rsp 48 + .ra: .cfa 8 - ^
STACK CFI INIT 78a60 2a .cfa: $rsp 48 + .ra: .cfa 8 - ^
STACK CFI INIT 78a90 2a .cfa: $rsp 48 + .ra: .cfa 8 - ^
STACK CFI INIT 78ac0 2a .cfa: $rsp 48 + .ra: .cfa 8 - ^
STACK CFI INIT 78af0 2a .cfa: $rsp 48 + .ra: .cfa 8 - ^
STACK CFI INIT 78b20 2a .cfa: $rsp 48 + .ra: .cfa 8 - ^
STACK CFI INIT 78b50 2a .cfa: $rsp 48 + .ra: .cfa 8 - ^
STACK CFI INIT 78b80 2a .cfa: $rsp 48 + .ra: .cfa 8 - ^
STACK CFI INIT 78bb0 2a .cfa: $rsp 48 + .ra: .cfa 8 - ^
STACK CFI INIT 78be0 2a .cfa: $rsp 48 + .ra: .cfa 8 - ^
STACK CFI INIT 78c10 2a .cfa: $rsp 48 + .ra: .cfa 8 - ^
STACK CFI INIT 78c40 2a .cfa: $rsp 48 + .ra: .cfa 8 - ^
STACK CFI INIT 78c70 2a .cfa: $rsp 48 + .ra: .cfa 8 - ^
STACK CFI INIT 78ca0 2a .cfa: $rsp 48 + .ra: .cfa 8 - ^
STACK CFI INIT 78cd0 2a .cfa: $rsp 48 + .ra: .cfa 8 - ^
STACK CFI INIT 78d00 2a .cfa: $rsp 48 + .ra: .cfa 8 - ^
STACK CFI INIT 78d30 2a .cfa: $rsp 48 + .ra: .cfa 8 - ^
STACK CFI INIT 78d60 2a .cfa: $rsp 48 + .ra: .cfa 8 - ^
STACK CFI INIT 78d90 2a .cfa: $rsp 48 + .ra: .cfa 8 - ^
STACK CFI INIT 78dc0 2a .cfa: $rsp 48 + .ra: .cfa 8 - ^
STACK CFI INIT 78df0 2a .cfa: $rsp 48 + .ra: .cfa 8 - ^
STACK CFI INIT 78e20 2a .cfa: $rsp 48 + .ra: .cfa 8 - ^
STACK CFI INIT 78e50 2a .cfa: $rsp 48 + .ra: .cfa 8 - ^
STACK CFI INIT 78e80 2a .cfa: $rsp 48 + .ra: .cfa 8 - ^
STACK CFI INIT 78eb0 2a .cfa: $rsp 48 + .ra: .cfa 8 - ^
STACK CFI INIT 78ee0 2a .cfa: $rsp 48 + .ra: .cfa 8 - ^
STACK CFI INIT 78f10 2a .cfa: $rsp 48 + .ra: .cfa 8 - ^
STACK CFI INIT 78f40 2a .cfa: $rsp 48 + .ra: .cfa 8 - ^
STACK CFI INIT 78f70 2a .cfa: $rsp 48 + .ra: .cfa 8 - ^
STACK CFI INIT 78fa0 2a .cfa: $rsp 48 + .ra: .cfa 8 - ^
STACK CFI INIT 78fd0 2a .cfa: $rsp 48 + .ra: .cfa 8 - ^
STACK CFI INIT 79000 2a .cfa: $rsp 48 + .ra: .cfa 8 - ^
STACK CFI INIT 79030 2a .cfa: $rsp 48 + .ra: .cfa 8 - ^
STACK CFI INIT 79060 2a .cfa: $rsp 48 + .ra: .cfa 8 - ^
STACK CFI INIT 79090 2a .cfa: $rsp 48 + .ra: .cfa 8 - ^
STACK CFI INIT 790c0 2a .cfa: $rsp 48 + .ra: .cfa 8 - ^
STACK CFI INIT 790f0 2a .cfa: $rsp 48 + .ra: .cfa 8 - ^
STACK CFI INIT 79120 2a .cfa: $rsp 48 + .ra: .cfa 8 - ^
STACK CFI INIT 79150 2a .cfa: $rsp 48 + .ra: .cfa 8 - ^
STACK CFI INIT 79180 2a .cfa: $rsp 48 + .ra: .cfa 8 - ^
STACK CFI INIT 791b0 2a .cfa: $rsp 48 + .ra: .cfa 8 - ^
STACK CFI INIT 791e0 2a .cfa: $rsp 48 + .ra: .cfa 8 - ^
STACK CFI INIT 79210 2a .cfa: $rsp 48 + .ra: .cfa 8 - ^
STACK CFI INIT 79240 2a .cfa: $rsp 48 + .ra: .cfa 8 - ^
STACK CFI INIT 79270 2a .cfa: $rsp 48 + .ra: .cfa 8 - ^
STACK CFI INIT 792a0 2a .cfa: $rsp 48 + .ra: .cfa 8 - ^
STACK CFI INIT 792d0 2a .cfa: $rsp 48 + .ra: .cfa 8 - ^
STACK CFI INIT 79300 2a .cfa: $rsp 48 + .ra: .cfa 8 - ^
STACK CFI INIT 79330 2a .cfa: $rsp 48 + .ra: .cfa 8 - ^
STACK CFI INIT 79360 2a .cfa: $rsp 48 + .ra: .cfa 8 - ^
STACK CFI INIT 79390 2a .cfa: $rsp 48 + .ra: .cfa 8 - ^
STACK CFI INIT 793c0 2a .cfa: $rsp 48 + .ra: .cfa 8 - ^
STACK CFI INIT 793f0 2a .cfa: $rsp 48 + .ra: .cfa 8 - ^
STACK CFI INIT 79420 2a .cfa: $rsp 48 + .ra: .cfa 8 - ^
STACK CFI INIT 79450 2a .cfa: $rsp 48 + .ra: .cfa 8 - ^
STACK CFI INIT 79480 2a .cfa: $rsp 48 + .ra: .cfa 8 - ^
STACK CFI INIT 794b0 2a .cfa: $rsp 48 + .ra: .cfa 8 - ^
STACK CFI INIT 794e0 2a .cfa: $rsp 48 + .ra: .cfa 8 - ^
STACK CFI INIT 79510 2a .cfa: $rsp 48 + .ra: .cfa 8 - ^
STACK CFI INIT 79540 2a .cfa: $rsp 48 + .ra: .cfa 8 - ^
STACK CFI INIT 79570 2a .cfa: $rsp 48 + .ra: .cfa 8 - ^
STACK CFI INIT 795a0 2a .cfa: $rsp 48 + .ra: .cfa 8 - ^
STACK CFI INIT 795d0 2a .cfa: $rsp 48 + .ra: .cfa 8 - ^
STACK CFI INIT 79600 2a .cfa: $rsp 48 + .ra: .cfa 8 - ^
STACK CFI INIT 79630 2a .cfa: $rsp 48 + .ra: .cfa 8 - ^
STACK CFI INIT 79660 2a .cfa: $rsp 48 + .ra: .cfa 8 - ^
STACK CFI INIT 79690 2a .cfa: $rsp 48 + .ra: .cfa 8 - ^
STACK CFI INIT 796c0 2a .cfa: $rsp 48 + .ra: .cfa 8 - ^
STACK CFI INIT 796f0 2a .cfa: $rsp 48 + .ra: .cfa 8 - ^
STACK CFI INIT 79720 2a .cfa: $rsp 48 + .ra: .cfa 8 - ^
STACK CFI INIT 79750 2a .cfa: $rsp 48 + .ra: .cfa 8 - ^
STACK CFI INIT 79780 2a .cfa: $rsp 48 + .ra: .cfa 8 - ^
STACK CFI INIT 797b0 2a .cfa: $rsp 48 + .ra: .cfa 8 - ^
STACK CFI INIT 797e0 2a .cfa: $rsp 48 + .ra: .cfa 8 - ^
STACK CFI INIT 79810 2a .cfa: $rsp 48 + .ra: .cfa 8 - ^
STACK CFI INIT 79840 2a .cfa: $rsp 48 + .ra: .cfa 8 - ^
STACK CFI INIT 79870 2a .cfa: $rsp 48 + .ra: .cfa 8 - ^
STACK CFI INIT 798a0 2a .cfa: $rsp 48 + .ra: .cfa 8 - ^
STACK CFI INIT 798d0 2a .cfa: $rsp 48 + .ra: .cfa 8 - ^
STACK CFI INIT 79900 2a .cfa: $rsp 48 + .ra: .cfa 8 - ^
STACK CFI INIT 79930 2a .cfa: $rsp 48 + .ra: .cfa 8 - ^
STACK CFI INIT 79960 2a .cfa: $rsp 48 + .ra: .cfa 8 - ^
STACK CFI INIT 79990 2a .cfa: $rsp 48 + .ra: .cfa 8 - ^
STACK CFI INIT 799c0 2a .cfa: $rsp 48 + .ra: .cfa 8 - ^
STACK CFI INIT 799f0 2a .cfa: $rsp 48 + .ra: .cfa 8 - ^
STACK CFI INIT 79a20 2a .cfa: $rsp 48 + .ra: .cfa 8 - ^
STACK CFI INIT 79a50 2a .cfa: $rsp 48 + .ra: .cfa 8 - ^
STACK CFI INIT 79a80 2a .cfa: $rsp 48 + .ra: .cfa 8 - ^
STACK CFI INIT 79ab0 2a .cfa: $rsp 48 + .ra: .cfa 8 - ^
STACK CFI INIT 79ae0 2a .cfa: $rsp 48 + .ra: .cfa 8 - ^
STACK CFI INIT 79b10 2a .cfa: $rsp 48 + .ra: .cfa 8 - ^
STACK CFI INIT 79b40 2a .cfa: $rsp 48 + .ra: .cfa 8 - ^
STACK CFI INIT 79b70 2a .cfa: $rsp 48 + .ra: .cfa 8 - ^
STACK CFI INIT 79ba0 2a .cfa: $rsp 48 + .ra: .cfa 8 - ^
STACK CFI INIT 79bd0 2a .cfa: $rsp 48 + .ra: .cfa 8 - ^
STACK CFI INIT 79c00 2a .cfa: $rsp 48 + .ra: .cfa 8 - ^
STACK CFI INIT 79c30 2a .cfa: $rsp 48 + .ra: .cfa 8 - ^
STACK CFI INIT 79c60 2a .cfa: $rsp 48 + .ra: .cfa 8 - ^
STACK CFI INIT 79c90 2a .cfa: $rsp 48 + .ra: .cfa 8 - ^
STACK CFI INIT 79cc0 2a .cfa: $rsp 48 + .ra: .cfa 8 - ^
STACK CFI INIT 79cf0 2a .cfa: $rsp 48 + .ra: .cfa 8 - ^
STACK CFI INIT 79d20 2a .cfa: $rsp 48 + .ra: .cfa 8 - ^
STACK CFI INIT 79d50 2a .cfa: $rsp 48 + .ra: .cfa 8 - ^
STACK CFI INIT 79d80 2a .cfa: $rsp 48 + .ra: .cfa 8 - ^
STACK CFI INIT 79db0 2a .cfa: $rsp 48 + .ra: .cfa 8 - ^
STACK CFI INIT 79de0 2a .cfa: $rsp 48 + .ra: .cfa 8 - ^
STACK CFI INIT 79e10 2a .cfa: $rsp 48 + .ra: .cfa 8 - ^
STACK CFI INIT 79e40 2a .cfa: $rsp 48 + .ra: .cfa 8 - ^
STACK CFI INIT 79e70 2a .cfa: $rsp 48 + .ra: .cfa 8 - ^
STACK CFI INIT 79ea0 2a .cfa: $rsp 48 + .ra: .cfa 8 - ^
STACK CFI INIT 79ed0 2a .cfa: $rsp 48 + .ra: .cfa 8 - ^
STACK CFI INIT 79f00 2a .cfa: $rsp 48 + .ra: .cfa 8 - ^
STACK CFI INIT 79f30 2a .cfa: $rsp 48 + .ra: .cfa 8 - ^
STACK CFI INIT 79f60 2a .cfa: $rsp 48 + .ra: .cfa 8 - ^
STACK CFI INIT 79f90 2a .cfa: $rsp 48 + .ra: .cfa 8 - ^
STACK CFI INIT 79fc0 2a .cfa: $rsp 48 + .ra: .cfa 8 - ^
STACK CFI INIT 79ff0 2a .cfa: $rsp 48 + .ra: .cfa 8 - ^
STACK CFI INIT 7a020 2a .cfa: $rsp 48 + .ra: .cfa 8 - ^
STACK CFI INIT 7a050 2a .cfa: $rsp 48 + .ra: .cfa 8 - ^
STACK CFI INIT 7a080 2a .cfa: $rsp 48 + .ra: .cfa 8 - ^
STACK CFI INIT 7a0b0 2a .cfa: $rsp 48 + .ra: .cfa 8 - ^
STACK CFI INIT 7a0e0 2a .cfa: $rsp 48 + .ra: .cfa 8 - ^
STACK CFI INIT 7a110 2a .cfa: $rsp 48 + .ra: .cfa 8 - ^
STACK CFI INIT 7a140 2a .cfa: $rsp 48 + .ra: .cfa 8 - ^
STACK CFI INIT 7a170 2a .cfa: $rsp 48 + .ra: .cfa 8 - ^
STACK CFI INIT 7a1a0 2a .cfa: $rsp 48 + .ra: .cfa 8 - ^
STACK CFI INIT 7a1d0 2a .cfa: $rsp 48 + .ra: .cfa 8 - ^
STACK CFI INIT 7a200 2a .cfa: $rsp 48 + .ra: .cfa 8 - ^
STACK CFI INIT 7a230 2a .cfa: $rsp 48 + .ra: .cfa 8 - ^
STACK CFI INIT 7a260 2a .cfa: $rsp 48 + .ra: .cfa 8 - ^
STACK CFI INIT 7a290 2a .cfa: $rsp 48 + .ra: .cfa 8 - ^
STACK CFI INIT 7a2c0 2a .cfa: $rsp 48 + .ra: .cfa 8 - ^
STACK CFI INIT 7a2f0 2a .cfa: $rsp 48 + .ra: .cfa 8 - ^
STACK CFI INIT 7a320 2a .cfa: $rsp 48 + .ra: .cfa 8 - ^
STACK CFI INIT 7a350 2a .cfa: $rsp 48 + .ra: .cfa 8 - ^
STACK CFI INIT 7a380 2a .cfa: $rsp 48 + .ra: .cfa 8 - ^
STACK CFI INIT 7a3b0 2a .cfa: $rsp 48 + .ra: .cfa 8 - ^
STACK CFI INIT 7a3e0 2a .cfa: $rsp 48 + .ra: .cfa 8 - ^
STACK CFI INIT 7a410 2a .cfa: $rsp 48 + .ra: .cfa 8 - ^
STACK CFI INIT 7a440 2a .cfa: $rsp 48 + .ra: .cfa 8 - ^
STACK CFI INIT 7a470 2a .cfa: $rsp 48 + .ra: .cfa 8 - ^
STACK CFI INIT 7a4a0 2a .cfa: $rsp 48 + .ra: .cfa 8 - ^
STACK CFI INIT 7a4d0 2a .cfa: $rsp 48 + .ra: .cfa 8 - ^
STACK CFI INIT 7a500 2a .cfa: $rsp 48 + .ra: .cfa 8 - ^
STACK CFI INIT 7a530 2a .cfa: $rsp 48 + .ra: .cfa 8 - ^
STACK CFI INIT 7a560 2a .cfa: $rsp 48 + .ra: .cfa 8 - ^
STACK CFI INIT 7a590 2a .cfa: $rsp 48 + .ra: .cfa 8 - ^
STACK CFI INIT 7a5c0 2a .cfa: $rsp 48 + .ra: .cfa 8 - ^
STACK CFI INIT 7a5f0 2a .cfa: $rsp 48 + .ra: .cfa 8 - ^
STACK CFI INIT 7a620 2a .cfa: $rsp 48 + .ra: .cfa 8 - ^
STACK CFI INIT 7a650 2a .cfa: $rsp 48 + .ra: .cfa 8 - ^
STACK CFI INIT 7a680 2a .cfa: $rsp 48 + .ra: .cfa 8 - ^
STACK CFI INIT 7a6b0 2a .cfa: $rsp 48 + .ra: .cfa 8 - ^
STACK CFI INIT 7a6e0 2a .cfa: $rsp 48 + .ra: .cfa 8 - ^
STACK CFI INIT 7a710 2a .cfa: $rsp 48 + .ra: .cfa 8 - ^
STACK CFI INIT 7a740 2a .cfa: $rsp 48 + .ra: .cfa 8 - ^
STACK CFI INIT 7a770 2a .cfa: $rsp 48 + .ra: .cfa 8 - ^
STACK CFI INIT 7a7a0 2a .cfa: $rsp 48 + .ra: .cfa 8 - ^
STACK CFI INIT 7a7d0 2a .cfa: $rsp 48 + .ra: .cfa 8 - ^
STACK CFI INIT 7a800 2a .cfa: $rsp 48 + .ra: .cfa 8 - ^
STACK CFI INIT 7a830 2a .cfa: $rsp 48 + .ra: .cfa 8 - ^
STACK CFI INIT 7a860 2a .cfa: $rsp 48 + .ra: .cfa 8 - ^
STACK CFI INIT 7a890 2a .cfa: $rsp 48 + .ra: .cfa 8 - ^
STACK CFI INIT 7a8c0 2a .cfa: $rsp 48 + .ra: .cfa 8 - ^
STACK CFI INIT 7a8f0 2a .cfa: $rsp 48 + .ra: .cfa 8 - ^
STACK CFI INIT 7a920 2a .cfa: $rsp 48 + .ra: .cfa 8 - ^
STACK CFI INIT 7a950 2a .cfa: $rsp 48 + .ra: .cfa 8 - ^
STACK CFI INIT 7a980 2a .cfa: $rsp 48 + .ra: .cfa 8 - ^
STACK CFI INIT 7a9b0 2a .cfa: $rsp 48 + .ra: .cfa 8 - ^
STACK CFI INIT 7a9e0 2a .cfa: $rsp 48 + .ra: .cfa 8 - ^
STACK CFI INIT 7aa10 2a .cfa: $rsp 48 + .ra: .cfa 8 - ^
STACK CFI INIT 7aa40 2a .cfa: $rsp 48 + .ra: .cfa 8 - ^
STACK CFI INIT 7aa70 2a .cfa: $rsp 48 + .ra: .cfa 8 - ^
STACK CFI INIT 7aaa0 2a .cfa: $rsp 48 + .ra: .cfa 8 - ^
STACK CFI INIT 7aad0 2a .cfa: $rsp 48 + .ra: .cfa 8 - ^
STACK CFI INIT 7ab00 2a .cfa: $rsp 48 + .ra: .cfa 8 - ^
STACK CFI INIT 7ab30 2a .cfa: $rsp 48 + .ra: .cfa 8 - ^
STACK CFI INIT 7ab60 2a .cfa: $rsp 48 + .ra: .cfa 8 - ^
STACK CFI INIT 7ab90 2a .cfa: $rsp 48 + .ra: .cfa 8 - ^
STACK CFI INIT 7abc0 2a .cfa: $rsp 48 + .ra: .cfa 8 - ^
STACK CFI INIT 7abf0 2a .cfa: $rsp 48 + .ra: .cfa 8 - ^
STACK CFI INIT 7ac20 2a .cfa: $rsp 48 + .ra: .cfa 8 - ^
STACK CFI INIT 7ac50 2a .cfa: $rsp 48 + .ra: .cfa 8 - ^
STACK CFI INIT 7ac80 2a .cfa: $rsp 48 + .ra: .cfa 8 - ^
STACK CFI INIT 7acb0 2a .cfa: $rsp 48 + .ra: .cfa 8 - ^
STACK CFI INIT 7ace0 2a .cfa: $rsp 48 + .ra: .cfa 8 - ^
STACK CFI INIT 7ad10 2a .cfa: $rsp 48 + .ra: .cfa 8 - ^
STACK CFI INIT 7ad40 2a .cfa: $rsp 48 + .ra: .cfa 8 - ^
STACK CFI INIT 7ad70 2a .cfa: $rsp 48 + .ra: .cfa 8 - ^
STACK CFI INIT 7ada0 2a .cfa: $rsp 48 + .ra: .cfa 8 - ^
STACK CFI INIT 7add0 2a .cfa: $rsp 48 + .ra: .cfa 8 - ^
STACK CFI INIT 7ae00 2a .cfa: $rsp 48 + .ra: .cfa 8 - ^
STACK CFI INIT 7ae30 2a .cfa: $rsp 48 + .ra: .cfa 8 - ^
STACK CFI INIT 7ae60 2a .cfa: $rsp 48 + .ra: .cfa 8 - ^
STACK CFI INIT 7ae90 2a .cfa: $rsp 48 + .ra: .cfa 8 - ^
STACK CFI INIT 7aec0 2a .cfa: $rsp 48 + .ra: .cfa 8 - ^
STACK CFI INIT 7aef0 2a .cfa: $rsp 48 + .ra: .cfa 8 - ^
STACK CFI INIT 7af20 2a .cfa: $rsp 48 + .ra: .cfa 8 - ^
STACK CFI INIT 7af50 2a .cfa: $rsp 48 + .ra: .cfa 8 - ^
STACK CFI INIT 7af80 2a .cfa: $rsp 48 + .ra: .cfa 8 - ^
STACK CFI INIT 7afb0 2a .cfa: $rsp 48 + .ra: .cfa 8 - ^
STACK CFI INIT 7afe0 2a .cfa: $rsp 48 + .ra: .cfa 8 - ^
STACK CFI INIT 7b010 2a .cfa: $rsp 48 + .ra: .cfa 8 - ^
STACK CFI INIT 7b040 2a .cfa: $rsp 48 + .ra: .cfa 8 - ^
STACK CFI INIT 7b070 2a .cfa: $rsp 48 + .ra: .cfa 8 - ^
STACK CFI INIT 7b0a0 2a .cfa: $rsp 48 + .ra: .cfa 8 - ^
STACK CFI INIT 7b0d0 2a .cfa: $rsp 48 + .ra: .cfa 8 - ^
STACK CFI INIT 7b100 2a .cfa: $rsp 48 + .ra: .cfa 8 - ^
STACK CFI INIT 7b130 2a .cfa: $rsp 48 + .ra: .cfa 8 - ^
STACK CFI INIT 7b160 2a .cfa: $rsp 48 + .ra: .cfa 8 - ^
STACK CFI INIT 7b190 2a .cfa: $rsp 48 + .ra: .cfa 8 - ^
STACK CFI INIT 7b1c0 2a .cfa: $rsp 48 + .ra: .cfa 8 - ^
STACK CFI INIT 7b1f0 2a .cfa: $rsp 48 + .ra: .cfa 8 - ^
STACK CFI INIT 7b220 2a .cfa: $rsp 48 + .ra: .cfa 8 - ^
STACK CFI INIT 7b250 2a .cfa: $rsp 48 + .ra: .cfa 8 - ^
STACK CFI INIT 7b280 2a .cfa: $rsp 48 + .ra: .cfa 8 - ^
STACK CFI INIT 7b2b0 2a .cfa: $rsp 48 + .ra: .cfa 8 - ^
STACK CFI INIT 7b2e0 2a .cfa: $rsp 48 + .ra: .cfa 8 - ^
STACK CFI INIT 7b310 2a .cfa: $rsp 48 + .ra: .cfa 8 - ^
STACK CFI INIT 7b340 2a .cfa: $rsp 48 + .ra: .cfa 8 - ^
STACK CFI INIT 7b370 2a .cfa: $rsp 48 + .ra: .cfa 8 - ^
STACK CFI INIT 7b3a0 2a .cfa: $rsp 48 + .ra: .cfa 8 - ^
STACK CFI INIT 7b3d0 2a .cfa: $rsp 48 + .ra: .cfa 8 - ^
STACK CFI INIT 7b400 2a .cfa: $rsp 48 + .ra: .cfa 8 - ^
STACK CFI INIT 7b430 2a .cfa: $rsp 48 + .ra: .cfa 8 - ^
STACK CFI INIT 7b460 2a .cfa: $rsp 48 + .ra: .cfa 8 - ^
STACK CFI INIT 7b490 2a .cfa: $rsp 48 + .ra: .cfa 8 - ^
STACK CFI INIT 7b4c0 2a .cfa: $rsp 48 + .ra: .cfa 8 - ^
STACK CFI INIT 7b4f0 2a .cfa: $rsp 48 + .ra: .cfa 8 - ^
STACK CFI INIT 7b520 2a .cfa: $rsp 48 + .ra: .cfa 8 - ^
STACK CFI INIT 7b550 2a .cfa: $rsp 48 + .ra: .cfa 8 - ^
STACK CFI INIT 7b580 2a .cfa: $rsp 48 + .ra: .cfa 8 - ^
STACK CFI INIT 7b5b0 2a .cfa: $rsp 48 + .ra: .cfa 8 - ^
STACK CFI INIT 7b5e0 2a .cfa: $rsp 48 + .ra: .cfa 8 - ^
STACK CFI INIT 7b610 2a .cfa: $rsp 48 + .ra: .cfa 8 - ^
STACK CFI INIT 7b640 2a .cfa: $rsp 48 + .ra: .cfa 8 - ^
STACK CFI INIT 7b670 2a .cfa: $rsp 48 + .ra: .cfa 8 - ^
STACK CFI INIT 7b6a0 2a .cfa: $rsp 48 + .ra: .cfa 8 - ^
STACK CFI INIT 7b6d0 2a .cfa: $rsp 48 + .ra: .cfa 8 - ^
STACK CFI INIT 7b700 2a .cfa: $rsp 48 + .ra: .cfa 8 - ^
STACK CFI INIT 7b730 2a .cfa: $rsp 48 + .ra: .cfa 8 - ^
STACK CFI INIT 7b760 2a .cfa: $rsp 48 + .ra: .cfa 8 - ^
STACK CFI INIT 7b790 2a .cfa: $rsp 48 + .ra: .cfa 8 - ^
STACK CFI INIT 7b7c0 2a .cfa: $rsp 48 + .ra: .cfa 8 - ^
STACK CFI INIT 7b7f0 2a .cfa: $rsp 48 + .ra: .cfa 8 - ^
STACK CFI INIT 7b820 2a .cfa: $rsp 48 + .ra: .cfa 8 - ^
STACK CFI INIT 7b850 2a .cfa: $rsp 48 + .ra: .cfa 8 - ^
STACK CFI INIT 7b880 2a .cfa: $rsp 48 + .ra: .cfa 8 - ^
STACK CFI INIT 7b8b0 2a .cfa: $rsp 48 + .ra: .cfa 8 - ^
STACK CFI INIT 7b8e0 2a .cfa: $rsp 48 + .ra: .cfa 8 - ^
STACK CFI INIT 7b910 2a .cfa: $rsp 48 + .ra: .cfa 8 - ^
STACK CFI INIT 7b940 2a .cfa: $rsp 48 + .ra: .cfa 8 - ^
STACK CFI INIT 7b970 2a .cfa: $rsp 48 + .ra: .cfa 8 - ^
STACK CFI INIT 7b9a0 2a .cfa: $rsp 48 + .ra: .cfa 8 - ^
STACK CFI INIT 7b9d0 2a .cfa: $rsp 48 + .ra: .cfa 8 - ^
STACK CFI INIT 7ba00 2a .cfa: $rsp 48 + .ra: .cfa 8 - ^
STACK CFI INIT 7ba30 2a .cfa: $rsp 48 + .ra: .cfa 8 - ^
STACK CFI INIT 7ba60 2a .cfa: $rsp 48 + .ra: .cfa 8 - ^
STACK CFI INIT 7ba90 2a .cfa: $rsp 48 + .ra: .cfa 8 - ^
STACK CFI INIT 7bac0 2a .cfa: $rsp 48 + .ra: .cfa 8 - ^
STACK CFI INIT 7baf0 2a .cfa: $rsp 48 + .ra: .cfa 8 - ^
STACK CFI INIT 7bb20 2a .cfa: $rsp 48 + .ra: .cfa 8 - ^
STACK CFI INIT 7bb50 2a .cfa: $rsp 48 + .ra: .cfa 8 - ^
STACK CFI INIT 7bb80 2a .cfa: $rsp 48 + .ra: .cfa 8 - ^
STACK CFI INIT 7bbb0 2a .cfa: $rsp 48 + .ra: .cfa 8 - ^
STACK CFI INIT 7bbe0 2a .cfa: $rsp 48 + .ra: .cfa 8 - ^
STACK CFI INIT 7bc10 2a .cfa: $rsp 48 + .ra: .cfa 8 - ^
STACK CFI INIT 7bc40 2a .cfa: $rsp 48 + .ra: .cfa 8 - ^
STACK CFI INIT 7bc70 2a .cfa: $rsp 48 + .ra: .cfa 8 - ^
STACK CFI INIT 7bca0 2a .cfa: $rsp 48 + .ra: .cfa 8 - ^
STACK CFI INIT 7bcd0 2a .cfa: $rsp 48 + .ra: .cfa 8 - ^
STACK CFI INIT 7bd00 2a .cfa: $rsp 48 + .ra: .cfa 8 - ^
STACK CFI INIT 7bd30 2a .cfa: $rsp 48 + .ra: .cfa 8 - ^
STACK CFI INIT 7bd60 2a .cfa: $rsp 48 + .ra: .cfa 8 - ^
STACK CFI INIT 7bd90 2a .cfa: $rsp 48 + .ra: .cfa 8 - ^
STACK CFI INIT 7bdc0 2a .cfa: $rsp 48 + .ra: .cfa 8 - ^
STACK CFI INIT 7bdf0 2a .cfa: $rsp 48 + .ra: .cfa 8 - ^
STACK CFI INIT 7be20 2a .cfa: $rsp 48 + .ra: .cfa 8 - ^
STACK CFI INIT 7be50 2a .cfa: $rsp 48 + .ra: .cfa 8 - ^
STACK CFI INIT 7be80 2a .cfa: $rsp 48 + .ra: .cfa 8 - ^
STACK CFI INIT 7beb0 2a .cfa: $rsp 48 + .ra: .cfa 8 - ^
STACK CFI INIT 7bee0 2a .cfa: $rsp 48 + .ra: .cfa 8 - ^
STACK CFI INIT 7bf10 2a .cfa: $rsp 48 + .ra: .cfa 8 - ^
STACK CFI INIT 7bf40 2a .cfa: $rsp 48 + .ra: .cfa 8 - ^
STACK CFI INIT 7bf70 2a .cfa: $rsp 48 + .ra: .cfa 8 - ^
STACK CFI INIT 7bfa0 2a .cfa: $rsp 48 + .ra: .cfa 8 - ^
STACK CFI INIT 7bfd0 2a .cfa: $rsp 48 + .ra: .cfa 8 - ^
STACK CFI INIT 7c000 2a .cfa: $rsp 48 + .ra: .cfa 8 - ^
STACK CFI INIT 7c030 2a .cfa: $rsp 48 + .ra: .cfa 8 - ^
STACK CFI INIT 7c060 2a .cfa: $rsp 48 + .ra: .cfa 8 - ^
STACK CFI INIT 7c090 2a .cfa: $rsp 48 + .ra: .cfa 8 - ^
STACK CFI INIT 7c0c0 2a .cfa: $rsp 48 + .ra: .cfa 8 - ^
STACK CFI INIT 7c0f0 2a .cfa: $rsp 48 + .ra: .cfa 8 - ^
STACK CFI INIT 7c120 2a .cfa: $rsp 48 + .ra: .cfa 8 - ^
STACK CFI INIT 7c150 2a .cfa: $rsp 48 + .ra: .cfa 8 - ^
STACK CFI INIT 7c180 2a .cfa: $rsp 48 + .ra: .cfa 8 - ^
STACK CFI INIT 7c1b0 2a .cfa: $rsp 48 + .ra: .cfa 8 - ^
STACK CFI INIT 7c1e0 2a .cfa: $rsp 48 + .ra: .cfa 8 - ^
STACK CFI INIT 7c210 2a .cfa: $rsp 48 + .ra: .cfa 8 - ^
STACK CFI INIT 7c240 2a .cfa: $rsp 48 + .ra: .cfa 8 - ^
STACK CFI INIT 7c270 2a .cfa: $rsp 48 + .ra: .cfa 8 - ^
STACK CFI INIT 7c2a0 2a .cfa: $rsp 48 + .ra: .cfa 8 - ^
STACK CFI INIT 7c2d0 2a .cfa: $rsp 48 + .ra: .cfa 8 - ^
STACK CFI INIT 7c300 2a .cfa: $rsp 48 + .ra: .cfa 8 - ^
STACK CFI INIT 7c330 2a .cfa: $rsp 48 + .ra: .cfa 8 - ^
STACK CFI INIT 7c360 2a .cfa: $rsp 48 + .ra: .cfa 8 - ^
STACK CFI INIT 7c390 2a .cfa: $rsp 48 + .ra: .cfa 8 - ^
STACK CFI INIT 7c3c0 2a .cfa: $rsp 48 + .ra: .cfa 8 - ^
STACK CFI INIT 7c3f0 2a .cfa: $rsp 48 + .ra: .cfa 8 - ^
STACK CFI INIT 7c420 2a .cfa: $rsp 48 + .ra: .cfa 8 - ^
STACK CFI INIT 7c450 2a .cfa: $rsp 48 + .ra: .cfa 8 - ^
STACK CFI INIT 7c480 2a .cfa: $rsp 48 + .ra: .cfa 8 - ^
STACK CFI INIT 7c4b0 2a .cfa: $rsp 48 + .ra: .cfa 8 - ^
STACK CFI INIT 7c4e0 2a .cfa: $rsp 48 + .ra: .cfa 8 - ^
STACK CFI INIT 7c510 2a .cfa: $rsp 48 + .ra: .cfa 8 - ^
STACK CFI INIT 7c540 2a .cfa: $rsp 48 + .ra: .cfa 8 - ^
STACK CFI INIT 7c570 2a .cfa: $rsp 48 + .ra: .cfa 8 - ^
STACK CFI INIT 7c5a0 2a .cfa: $rsp 48 + .ra: .cfa 8 - ^
STACK CFI INIT 7c5d0 2a .cfa: $rsp 48 + .ra: .cfa 8 - ^
STACK CFI INIT 7c600 2a .cfa: $rsp 48 + .ra: .cfa 8 - ^
STACK CFI INIT 7c630 2a .cfa: $rsp 48 + .ra: .cfa 8 - ^
STACK CFI INIT 7c660 2a .cfa: $rsp 48 + .ra: .cfa 8 - ^
STACK CFI INIT 7c690 2a .cfa: $rsp 48 + .ra: .cfa 8 - ^
STACK CFI INIT 7c6c0 2a .cfa: $rsp 48 + .ra: .cfa 8 - ^
STACK CFI INIT 7c6f0 2a .cfa: $rsp 48 + .ra: .cfa 8 - ^
STACK CFI INIT 7c720 2a .cfa: $rsp 48 + .ra: .cfa 8 - ^
STACK CFI INIT 7c750 2a .cfa: $rsp 48 + .ra: .cfa 8 - ^
STACK CFI INIT 7c780 2a .cfa: $rsp 48 + .ra: .cfa 8 - ^
STACK CFI INIT 7c7b0 2a .cfa: $rsp 48 + .ra: .cfa 8 - ^
STACK CFI INIT 7c7e0 2a .cfa: $rsp 48 + .ra: .cfa 8 - ^
STACK CFI INIT 7c810 2a .cfa: $rsp 48 + .ra: .cfa 8 - ^
STACK CFI INIT 7c840 2a .cfa: $rsp 48 + .ra: .cfa 8 - ^
STACK CFI INIT 7c870 2a .cfa: $rsp 48 + .ra: .cfa 8 - ^
STACK CFI INIT 7c8a0 2a .cfa: $rsp 48 + .ra: .cfa 8 - ^
STACK CFI INIT 7c8d0 2a .cfa: $rsp 48 + .ra: .cfa 8 - ^
STACK CFI INIT 7c900 2a .cfa: $rsp 48 + .ra: .cfa 8 - ^
STACK CFI INIT 7c930 2a .cfa: $rsp 48 + .ra: .cfa 8 - ^
STACK CFI INIT 7c960 2a .cfa: $rsp 48 + .ra: .cfa 8 - ^
STACK CFI INIT 7c990 2a .cfa: $rsp 48 + .ra: .cfa 8 - ^
STACK CFI INIT 7c9c0 2a .cfa: $rsp 48 + .ra: .cfa 8 - ^
STACK CFI INIT 7c9f0 2a .cfa: $rsp 48 + .ra: .cfa 8 - ^
STACK CFI INIT 7ca20 2a .cfa: $rsp 48 + .ra: .cfa 8 - ^
STACK CFI INIT 7ca50 2a .cfa: $rsp 48 + .ra: .cfa 8 - ^
STACK CFI INIT 7ca80 2a .cfa: $rsp 48 + .ra: .cfa 8 - ^
STACK CFI INIT 7cab0 2a .cfa: $rsp 48 + .ra: .cfa 8 - ^
STACK CFI INIT 7cae0 2a .cfa: $rsp 48 + .ra: .cfa 8 - ^
STACK CFI INIT 7cb10 2a .cfa: $rsp 48 + .ra: .cfa 8 - ^
STACK CFI INIT 7cb40 2a .cfa: $rsp 48 + .ra: .cfa 8 - ^
STACK CFI INIT 7cb70 2a .cfa: $rsp 48 + .ra: .cfa 8 - ^
STACK CFI INIT 7cba0 2a .cfa: $rsp 48 + .ra: .cfa 8 - ^
STACK CFI INIT 7cbd0 2a .cfa: $rsp 48 + .ra: .cfa 8 - ^
STACK CFI INIT 7cc00 2a .cfa: $rsp 48 + .ra: .cfa 8 - ^
STACK CFI INIT 7cc30 2a .cfa: $rsp 48 + .ra: .cfa 8 - ^
STACK CFI INIT 7cc60 2a .cfa: $rsp 48 + .ra: .cfa 8 - ^
STACK CFI INIT 7cc90 2a .cfa: $rsp 48 + .ra: .cfa 8 - ^
STACK CFI INIT 7ccc0 2a .cfa: $rsp 48 + .ra: .cfa 8 - ^
STACK CFI INIT 7ccf0 2a .cfa: $rsp 48 + .ra: .cfa 8 - ^
STACK CFI INIT 7cd20 2a .cfa: $rsp 48 + .ra: .cfa 8 - ^
STACK CFI INIT 7cd50 2a .cfa: $rsp 48 + .ra: .cfa 8 - ^
STACK CFI INIT 7cd80 2a .cfa: $rsp 48 + .ra: .cfa 8 - ^
STACK CFI INIT 7cdb0 2a .cfa: $rsp 48 + .ra: .cfa 8 - ^
STACK CFI INIT 7cde0 2a .cfa: $rsp 48 + .ra: .cfa 8 - ^
STACK CFI INIT 7ce10 2a .cfa: $rsp 48 + .ra: .cfa 8 - ^
STACK CFI INIT 7ce40 2a .cfa: $rsp 48 + .ra: .cfa 8 - ^
STACK CFI INIT 7ce70 2a .cfa: $rsp 48 + .ra: .cfa 8 - ^
STACK CFI INIT 7cea0 2a .cfa: $rsp 48 + .ra: .cfa 8 - ^
STACK CFI INIT 7ced0 2a .cfa: $rsp 48 + .ra: .cfa 8 - ^
STACK CFI INIT 7cf00 2a .cfa: $rsp 48 + .ra: .cfa 8 - ^
STACK CFI INIT 7cf30 2a .cfa: $rsp 48 + .ra: .cfa 8 - ^
STACK CFI INIT 7cf60 2a .cfa: $rsp 48 + .ra: .cfa 8 - ^
STACK CFI INIT 7cf90 2a .cfa: $rsp 48 + .ra: .cfa 8 - ^
STACK CFI INIT 7cfc0 2a .cfa: $rsp 48 + .ra: .cfa 8 - ^
STACK CFI INIT 7cff0 2a .cfa: $rsp 48 + .ra: .cfa 8 - ^
STACK CFI INIT 7d020 2a .cfa: $rsp 48 + .ra: .cfa 8 - ^
STACK CFI INIT 7d050 2a .cfa: $rsp 48 + .ra: .cfa 8 - ^
STACK CFI INIT 7d080 2a .cfa: $rsp 48 + .ra: .cfa 8 - ^
STACK CFI INIT 7d0b0 2a .cfa: $rsp 48 + .ra: .cfa 8 - ^
STACK CFI INIT 7d0e0 2a .cfa: $rsp 48 + .ra: .cfa 8 - ^
STACK CFI INIT 7d110 2a .cfa: $rsp 48 + .ra: .cfa 8 - ^
STACK CFI INIT 7d140 2a .cfa: $rsp 48 + .ra: .cfa 8 - ^
STACK CFI INIT 7d170 2a .cfa: $rsp 48 + .ra: .cfa 8 - ^
STACK CFI INIT 7d1a0 2a .cfa: $rsp 48 + .ra: .cfa 8 - ^
STACK CFI INIT 7d1d0 2a .cfa: $rsp 48 + .ra: .cfa 8 - ^
STACK CFI INIT 7d200 2a .cfa: $rsp 48 + .ra: .cfa 8 - ^
STACK CFI INIT 7d230 2a .cfa: $rsp 48 + .ra: .cfa 8 - ^
STACK CFI INIT 7d260 2a .cfa: $rsp 48 + .ra: .cfa 8 - ^
STACK CFI INIT 7d290 2a .cfa: $rsp 48 + .ra: .cfa 8 - ^
STACK CFI INIT 7d2c0 2a .cfa: $rsp 48 + .ra: .cfa 8 - ^
STACK CFI INIT 7d2f0 2a .cfa: $rsp 48 + .ra: .cfa 8 - ^
STACK CFI INIT 7d320 2a .cfa: $rsp 48 + .ra: .cfa 8 - ^
STACK CFI INIT 7d350 2a .cfa: $rsp 48 + .ra: .cfa 8 - ^
STACK CFI INIT 7d380 2a .cfa: $rsp 48 + .ra: .cfa 8 - ^
STACK CFI INIT 7d3b0 2a .cfa: $rsp 48 + .ra: .cfa 8 - ^
STACK CFI INIT 7d3e0 2a .cfa: $rsp 48 + .ra: .cfa 8 - ^
STACK CFI INIT 7d410 2a .cfa: $rsp 48 + .ra: .cfa 8 - ^
STACK CFI INIT 7d440 2a .cfa: $rsp 48 + .ra: .cfa 8 - ^
STACK CFI INIT 7d470 2a .cfa: $rsp 48 + .ra: .cfa 8 - ^
STACK CFI INIT 7d4a0 2a .cfa: $rsp 48 + .ra: .cfa 8 - ^
STACK CFI INIT 7d4d0 2a .cfa: $rsp 48 + .ra: .cfa 8 - ^
STACK CFI INIT 7d500 2a .cfa: $rsp 48 + .ra: .cfa 8 - ^
STACK CFI INIT 7d530 2a .cfa: $rsp 48 + .ra: .cfa 8 - ^
STACK CFI INIT 7d560 2a .cfa: $rsp 48 + .ra: .cfa 8 - ^
STACK CFI INIT 7d590 2a .cfa: $rsp 48 + .ra: .cfa 8 - ^
STACK CFI INIT 7d5c0 2a .cfa: $rsp 48 + .ra: .cfa 8 - ^
STACK CFI INIT 7d5f0 2a .cfa: $rsp 48 + .ra: .cfa 8 - ^
STACK CFI INIT 7d620 2a .cfa: $rsp 48 + .ra: .cfa 8 - ^
STACK CFI INIT 7d650 2a .cfa: $rsp 48 + .ra: .cfa 8 - ^
STACK CFI INIT 7d680 2a .cfa: $rsp 48 + .ra: .cfa 8 - ^
STACK CFI INIT 7d6b0 2a .cfa: $rsp 48 + .ra: .cfa 8 - ^
STACK CFI INIT 7d6e0 2a .cfa: $rsp 48 + .ra: .cfa 8 - ^
STACK CFI INIT 7d710 2a .cfa: $rsp 48 + .ra: .cfa 8 - ^
STACK CFI INIT 7d740 2a .cfa: $rsp 48 + .ra: .cfa 8 - ^
STACK CFI INIT 7d770 2a .cfa: $rsp 48 + .ra: .cfa 8 - ^
STACK CFI INIT 7d7a0 2a .cfa: $rsp 48 + .ra: .cfa 8 - ^
STACK CFI INIT 7d7d0 2a .cfa: $rsp 48 + .ra: .cfa 8 - ^
STACK CFI INIT 7d800 2a .cfa: $rsp 48 + .ra: .cfa 8 - ^
STACK CFI INIT 7d830 2a .cfa: $rsp 48 + .ra: .cfa 8 - ^
STACK CFI INIT 7d860 2a .cfa: $rsp 48 + .ra: .cfa 8 - ^
STACK CFI INIT 7d890 2a .cfa: $rsp 48 + .ra: .cfa 8 - ^
STACK CFI INIT 7d8c0 2a .cfa: $rsp 48 + .ra: .cfa 8 - ^
STACK CFI INIT 7d8f0 2a .cfa: $rsp 48 + .ra: .cfa 8 - ^
STACK CFI INIT 7d920 2a .cfa: $rsp 48 + .ra: .cfa 8 - ^
STACK CFI INIT 7d950 2a .cfa: $rsp 48 + .ra: .cfa 8 - ^
STACK CFI INIT 7d980 2a .cfa: $rsp 48 + .ra: .cfa 8 - ^
STACK CFI INIT 7d9b0 2a .cfa: $rsp 48 + .ra: .cfa 8 - ^
STACK CFI INIT 7d9e0 2a .cfa: $rsp 48 + .ra: .cfa 8 - ^
STACK CFI INIT 7da10 2a .cfa: $rsp 48 + .ra: .cfa 8 - ^
STACK CFI INIT 7da40 2a .cfa: $rsp 48 + .ra: .cfa 8 - ^
STACK CFI INIT 7da70 2a .cfa: $rsp 48 + .ra: .cfa 8 - ^
STACK CFI INIT 7daa0 2a .cfa: $rsp 48 + .ra: .cfa 8 - ^
STACK CFI INIT 7dad0 2a .cfa: $rsp 48 + .ra: .cfa 8 - ^
STACK CFI INIT 7db00 2a .cfa: $rsp 48 + .ra: .cfa 8 - ^
STACK CFI INIT 7db30 2a .cfa: $rsp 48 + .ra: .cfa 8 - ^
STACK CFI INIT 7db60 2a .cfa: $rsp 48 + .ra: .cfa 8 - ^
STACK CFI INIT 7db90 2a .cfa: $rsp 48 + .ra: .cfa 8 - ^
STACK CFI INIT 7dbc0 2a .cfa: $rsp 48 + .ra: .cfa 8 - ^
STACK CFI INIT 7dbf0 2a .cfa: $rsp 48 + .ra: .cfa 8 - ^
STACK CFI INIT 7dc20 2a .cfa: $rsp 48 + .ra: .cfa 8 - ^
STACK CFI INIT 7dc50 2a .cfa: $rsp 48 + .ra: .cfa 8 - ^
STACK CFI INIT 7dc80 2a .cfa: $rsp 48 + .ra: .cfa 8 - ^
STACK CFI INIT 7dcb0 2a .cfa: $rsp 48 + .ra: .cfa 8 - ^
STACK CFI INIT 7dce0 2a .cfa: $rsp 48 + .ra: .cfa 8 - ^
STACK CFI INIT 7dd10 2a .cfa: $rsp 48 + .ra: .cfa 8 - ^
STACK CFI INIT 7dd40 2a .cfa: $rsp 48 + .ra: .cfa 8 - ^
STACK CFI INIT 7dd70 2a .cfa: $rsp 48 + .ra: .cfa 8 - ^
STACK CFI INIT 7dda0 2a .cfa: $rsp 48 + .ra: .cfa 8 - ^
STACK CFI INIT 7ddd0 2a .cfa: $rsp 48 + .ra: .cfa 8 - ^
STACK CFI INIT 7de00 2a .cfa: $rsp 48 + .ra: .cfa 8 - ^
STACK CFI INIT 7de30 2a .cfa: $rsp 48 + .ra: .cfa 8 - ^
STACK CFI INIT 7de60 2a .cfa: $rsp 48 + .ra: .cfa 8 - ^
STACK CFI INIT 7de90 2a .cfa: $rsp 48 + .ra: .cfa 8 - ^
STACK CFI INIT 7dec0 2a .cfa: $rsp 48 + .ra: .cfa 8 - ^
STACK CFI INIT 7def0 2a .cfa: $rsp 48 + .ra: .cfa 8 - ^
STACK CFI INIT 7df20 2a .cfa: $rsp 48 + .ra: .cfa 8 - ^
STACK CFI INIT 7df50 2a .cfa: $rsp 48 + .ra: .cfa 8 - ^
STACK CFI INIT 7df80 2a .cfa: $rsp 48 + .ra: .cfa 8 - ^
STACK CFI INIT 7dfb0 2a .cfa: $rsp 48 + .ra: .cfa 8 - ^
STACK CFI INIT 7dfe0 2a .cfa: $rsp 48 + .ra: .cfa 8 - ^
STACK CFI INIT 7e010 2a .cfa: $rsp 48 + .ra: .cfa 8 - ^
STACK CFI INIT 7e040 2a .cfa: $rsp 48 + .ra: .cfa 8 - ^
STACK CFI INIT 7e070 2a .cfa: $rsp 48 + .ra: .cfa 8 - ^
STACK CFI INIT 7e0a0 2a .cfa: $rsp 48 + .ra: .cfa 8 - ^
STACK CFI INIT 7e0d0 2a .cfa: $rsp 48 + .ra: .cfa 8 - ^
STACK CFI INIT 7e100 2a .cfa: $rsp 48 + .ra: .cfa 8 - ^
STACK CFI INIT 7e130 2a .cfa: $rsp 48 + .ra: .cfa 8 - ^
STACK CFI INIT 7e160 2a .cfa: $rsp 48 + .ra: .cfa 8 - ^
STACK CFI INIT 7e190 2a .cfa: $rsp 48 + .ra: .cfa 8 - ^
STACK CFI INIT 7e1c0 2a .cfa: $rsp 48 + .ra: .cfa 8 - ^
STACK CFI INIT 7e1f0 2a .cfa: $rsp 48 + .ra: .cfa 8 - ^
STACK CFI INIT 7e220 2a .cfa: $rsp 48 + .ra: .cfa 8 - ^
STACK CFI INIT 7e250 2a .cfa: $rsp 48 + .ra: .cfa 8 - ^
STACK CFI INIT 7e280 2a .cfa: $rsp 48 + .ra: .cfa 8 - ^
STACK CFI INIT 7e2b0 2a .cfa: $rsp 48 + .ra: .cfa 8 - ^
STACK CFI INIT 7e2e0 2a .cfa: $rsp 48 + .ra: .cfa 8 - ^
STACK CFI INIT 7e310 2a .cfa: $rsp 48 + .ra: .cfa 8 - ^
STACK CFI INIT 7e340 2a .cfa: $rsp 48 + .ra: .cfa 8 - ^
STACK CFI INIT 7e370 2a .cfa: $rsp 48 + .ra: .cfa 8 - ^
STACK CFI INIT 7e3a0 2a .cfa: $rsp 48 + .ra: .cfa 8 - ^
STACK CFI INIT 7e3d0 2a .cfa: $rsp 48 + .ra: .cfa 8 - ^
STACK CFI INIT 7e400 2a .cfa: $rsp 48 + .ra: .cfa 8 - ^
STACK CFI INIT 7e430 2a .cfa: $rsp 48 + .ra: .cfa 8 - ^
STACK CFI INIT 7e460 2a .cfa: $rsp 48 + .ra: .cfa 8 - ^
STACK CFI INIT 7e490 2a .cfa: $rsp 48 + .ra: .cfa 8 - ^
STACK CFI INIT 7e4c0 2a .cfa: $rsp 48 + .ra: .cfa 8 - ^
STACK CFI INIT 7e4f0 2a .cfa: $rsp 48 + .ra: .cfa 8 - ^
STACK CFI INIT 7e520 2a .cfa: $rsp 48 + .ra: .cfa 8 - ^
STACK CFI INIT 7e550 2a .cfa: $rsp 48 + .ra: .cfa 8 - ^
STACK CFI INIT 7e580 2a .cfa: $rsp 48 + .ra: .cfa 8 - ^
STACK CFI INIT 7e5b0 2a .cfa: $rsp 48 + .ra: .cfa 8 - ^
STACK CFI INIT 7e5e0 2a .cfa: $rsp 48 + .ra: .cfa 8 - ^
STACK CFI INIT 7e610 2a .cfa: $rsp 48 + .ra: .cfa 8 - ^
STACK CFI INIT 7e640 2a .cfa: $rsp 48 + .ra: .cfa 8 - ^
STACK CFI INIT 7e670 2a .cfa: $rsp 48 + .ra: .cfa 8 - ^
STACK CFI INIT 7e6a0 2a .cfa: $rsp 48 + .ra: .cfa 8 - ^
STACK CFI INIT 7e6d0 2a .cfa: $rsp 48 + .ra: .cfa 8 - ^
STACK CFI INIT 7e700 2a .cfa: $rsp 48 + .ra: .cfa 8 - ^
STACK CFI INIT 7e730 2a .cfa: $rsp 48 + .ra: .cfa 8 - ^
STACK CFI INIT 7e760 2a .cfa: $rsp 48 + .ra: .cfa 8 - ^
STACK CFI INIT 7e790 2a .cfa: $rsp 48 + .ra: .cfa 8 - ^
STACK CFI INIT 7e7c0 2a .cfa: $rsp 48 + .ra: .cfa 8 - ^
STACK CFI INIT 7e7f0 2a .cfa: $rsp 48 + .ra: .cfa 8 - ^
STACK CFI INIT 7e820 2a .cfa: $rsp 48 + .ra: .cfa 8 - ^
STACK CFI INIT 7e850 2a .cfa: $rsp 48 + .ra: .cfa 8 - ^
STACK CFI INIT 7e880 2a .cfa: $rsp 48 + .ra: .cfa 8 - ^
STACK CFI INIT 7e8b0 2a .cfa: $rsp 48 + .ra: .cfa 8 - ^
STACK CFI INIT 7e8e0 2a .cfa: $rsp 48 + .ra: .cfa 8 - ^
STACK CFI INIT 7e910 2a .cfa: $rsp 48 + .ra: .cfa 8 - ^
STACK CFI INIT 7e940 2a .cfa: $rsp 48 + .ra: .cfa 8 - ^
STACK CFI INIT 7e970 2a .cfa: $rsp 48 + .ra: .cfa 8 - ^
STACK CFI INIT 7e9a0 2a .cfa: $rsp 48 + .ra: .cfa 8 - ^
STACK CFI INIT 7e9d0 2a .cfa: $rsp 48 + .ra: .cfa 8 - ^
STACK CFI INIT 7ea00 2a .cfa: $rsp 48 + .ra: .cfa 8 - ^
STACK CFI INIT 7ea30 2a .cfa: $rsp 48 + .ra: .cfa 8 - ^
STACK CFI INIT 7ea60 2a .cfa: $rsp 48 + .ra: .cfa 8 - ^
STACK CFI INIT 7ea90 2a .cfa: $rsp 48 + .ra: .cfa 8 - ^
STACK CFI INIT 7eac0 2a .cfa: $rsp 48 + .ra: .cfa 8 - ^
STACK CFI INIT 7eaf0 2a .cfa: $rsp 48 + .ra: .cfa 8 - ^
STACK CFI INIT 7eb20 2a .cfa: $rsp 48 + .ra: .cfa 8 - ^
STACK CFI INIT 7eb50 2a .cfa: $rsp 48 + .ra: .cfa 8 - ^
STACK CFI INIT 7eb80 2a .cfa: $rsp 48 + .ra: .cfa 8 - ^
STACK CFI INIT 7ebb0 2a .cfa: $rsp 48 + .ra: .cfa 8 - ^
STACK CFI INIT 7ebe0 2a .cfa: $rsp 48 + .ra: .cfa 8 - ^
STACK CFI INIT 7ec10 2a .cfa: $rsp 48 + .ra: .cfa 8 - ^
STACK CFI INIT 7ec40 2a .cfa: $rsp 48 + .ra: .cfa 8 - ^
STACK CFI INIT 7ec70 2a .cfa: $rsp 48 + .ra: .cfa 8 - ^
STACK CFI INIT 7eca0 2a .cfa: $rsp 48 + .ra: .cfa 8 - ^
STACK CFI INIT 7ecd0 2a .cfa: $rsp 48 + .ra: .cfa 8 - ^
STACK CFI INIT 7ed00 2a .cfa: $rsp 48 + .ra: .cfa 8 - ^
STACK CFI INIT 7ed30 2a .cfa: $rsp 48 + .ra: .cfa 8 - ^
STACK CFI INIT 7ed60 2a .cfa: $rsp 48 + .ra: .cfa 8 - ^
STACK CFI INIT 7ed90 2a .cfa: $rsp 48 + .ra: .cfa 8 - ^
STACK CFI INIT 7edc0 2a .cfa: $rsp 48 + .ra: .cfa 8 - ^
STACK CFI INIT 7edf0 2a .cfa: $rsp 48 + .ra: .cfa 8 - ^
STACK CFI INIT 7ee20 2a .cfa: $rsp 48 + .ra: .cfa 8 - ^
STACK CFI INIT 7ee50 2a .cfa: $rsp 48 + .ra: .cfa 8 - ^
STACK CFI INIT 7ee80 2a .cfa: $rsp 48 + .ra: .cfa 8 - ^
STACK CFI INIT 7eeb0 2a .cfa: $rsp 48 + .ra: .cfa 8 - ^
STACK CFI INIT 7eee0 2a .cfa: $rsp 48 + .ra: .cfa 8 - ^
STACK CFI INIT 7ef10 2a .cfa: $rsp 48 + .ra: .cfa 8 - ^
STACK CFI INIT 7ef40 2a .cfa: $rsp 48 + .ra: .cfa 8 - ^
STACK CFI INIT 7ef70 2a .cfa: $rsp 48 + .ra: .cfa 8 - ^
STACK CFI INIT 7efa0 2a .cfa: $rsp 48 + .ra: .cfa 8 - ^
STACK CFI INIT 7efd0 2a .cfa: $rsp 48 + .ra: .cfa 8 - ^
STACK CFI INIT 7f000 2a .cfa: $rsp 48 + .ra: .cfa 8 - ^
STACK CFI INIT 7f030 2a .cfa: $rsp 48 + .ra: .cfa 8 - ^
STACK CFI INIT 7f060 2a .cfa: $rsp 48 + .ra: .cfa 8 - ^
STACK CFI INIT 7f090 2a .cfa: $rsp 48 + .ra: .cfa 8 - ^
STACK CFI INIT 7f0c0 2a .cfa: $rsp 48 + .ra: .cfa 8 - ^
STACK CFI INIT 7f0f0 2a .cfa: $rsp 48 + .ra: .cfa 8 - ^
STACK CFI INIT 7f120 2a .cfa: $rsp 48 + .ra: .cfa 8 - ^
STACK CFI INIT 7f150 2a .cfa: $rsp 48 + .ra: .cfa 8 - ^
STACK CFI INIT 7f180 2a .cfa: $rsp 48 + .ra: .cfa 8 - ^
STACK CFI INIT 7f1b0 2a .cfa: $rsp 48 + .ra: .cfa 8 - ^
STACK CFI INIT 7f1e0 2a .cfa: $rsp 48 + .ra: .cfa 8 - ^
STACK CFI INIT 7f210 2a .cfa: $rsp 48 + .ra: .cfa 8 - ^
STACK CFI INIT 7f240 2a .cfa: $rsp 48 + .ra: .cfa 8 - ^
STACK CFI INIT 7f270 2a .cfa: $rsp 48 + .ra: .cfa 8 - ^
STACK CFI INIT 7f2a0 2a .cfa: $rsp 48 + .ra: .cfa 8 - ^
STACK CFI INIT 7f2d0 2a .cfa: $rsp 48 + .ra: .cfa 8 - ^
STACK CFI INIT 7f300 2a .cfa: $rsp 48 + .ra: .cfa 8 - ^
STACK CFI INIT 7f330 2a .cfa: $rsp 48 + .ra: .cfa 8 - ^
STACK CFI INIT 7f360 2a .cfa: $rsp 48 + .ra: .cfa 8 - ^
STACK CFI INIT 7f390 2a .cfa: $rsp 48 + .ra: .cfa 8 - ^
STACK CFI INIT 7f3c0 2a .cfa: $rsp 48 + .ra: .cfa 8 - ^
STACK CFI INIT 7f3f0 2a .cfa: $rsp 48 + .ra: .cfa 8 - ^
STACK CFI INIT 7f420 2a .cfa: $rsp 48 + .ra: .cfa 8 - ^
STACK CFI INIT 7f450 2a .cfa: $rsp 48 + .ra: .cfa 8 - ^
STACK CFI INIT 7f480 2a .cfa: $rsp 48 + .ra: .cfa 8 - ^
STACK CFI INIT 7f4b0 2a .cfa: $rsp 48 + .ra: .cfa 8 - ^
STACK CFI INIT 7f4e0 2a .cfa: $rsp 48 + .ra: .cfa 8 - ^
STACK CFI INIT 7f510 2a .cfa: $rsp 48 + .ra: .cfa 8 - ^
STACK CFI INIT 7f540 2a .cfa: $rsp 48 + .ra: .cfa 8 - ^
STACK CFI INIT 7f570 2a .cfa: $rsp 48 + .ra: .cfa 8 - ^
STACK CFI INIT 7f5a0 2a .cfa: $rsp 48 + .ra: .cfa 8 - ^
STACK CFI INIT 7f5d0 2a .cfa: $rsp 48 + .ra: .cfa 8 - ^
STACK CFI INIT 7f600 2a .cfa: $rsp 48 + .ra: .cfa 8 - ^
STACK CFI INIT 7f630 2a .cfa: $rsp 48 + .ra: .cfa 8 - ^
STACK CFI INIT 7f660 2a .cfa: $rsp 48 + .ra: .cfa 8 - ^
STACK CFI INIT 7f690 2a .cfa: $rsp 48 + .ra: .cfa 8 - ^
STACK CFI INIT 7f6c0 2a .cfa: $rsp 48 + .ra: .cfa 8 - ^
STACK CFI INIT 7f6f0 2a .cfa: $rsp 48 + .ra: .cfa 8 - ^
STACK CFI INIT 7f720 2a .cfa: $rsp 48 + .ra: .cfa 8 - ^
STACK CFI INIT 7f750 2a .cfa: $rsp 48 + .ra: .cfa 8 - ^
STACK CFI INIT 7f780 2a .cfa: $rsp 48 + .ra: .cfa 8 - ^
STACK CFI INIT 7f7b0 2a .cfa: $rsp 48 + .ra: .cfa 8 - ^
STACK CFI INIT 7f7e0 2a .cfa: $rsp 48 + .ra: .cfa 8 - ^
STACK CFI INIT 7f810 2a .cfa: $rsp 48 + .ra: .cfa 8 - ^
STACK CFI INIT 7f840 2a .cfa: $rsp 48 + .ra: .cfa 8 - ^
STACK CFI INIT 7f870 2a .cfa: $rsp 48 + .ra: .cfa 8 - ^
STACK CFI INIT 7f8a0 2a .cfa: $rsp 48 + .ra: .cfa 8 - ^
STACK CFI INIT 7f8d0 2a .cfa: $rsp 48 + .ra: .cfa 8 - ^
STACK CFI INIT 7f900 2a .cfa: $rsp 48 + .ra: .cfa 8 - ^
STACK CFI INIT 7f930 2a .cfa: $rsp 48 + .ra: .cfa 8 - ^
STACK CFI INIT 7f960 2a .cfa: $rsp 48 + .ra: .cfa 8 - ^
STACK CFI INIT 7f990 2a .cfa: $rsp 48 + .ra: .cfa 8 - ^
STACK CFI INIT 7f9c0 2a .cfa: $rsp 48 + .ra: .cfa 8 - ^
STACK CFI INIT 7f9f0 2a .cfa: $rsp 48 + .ra: .cfa 8 - ^
STACK CFI INIT 7fa20 2a .cfa: $rsp 48 + .ra: .cfa 8 - ^
STACK CFI INIT 7fa50 2a .cfa: $rsp 48 + .ra: .cfa 8 - ^
STACK CFI INIT 7fa80 2a .cfa: $rsp 48 + .ra: .cfa 8 - ^
STACK CFI INIT 7fab0 2a .cfa: $rsp 48 + .ra: .cfa 8 - ^
STACK CFI INIT 7fae0 2a .cfa: $rsp 48 + .ra: .cfa 8 - ^
STACK CFI INIT 7fb10 2a .cfa: $rsp 48 + .ra: .cfa 8 - ^
STACK CFI INIT 7fb40 2a .cfa: $rsp 48 + .ra: .cfa 8 - ^
STACK CFI INIT 7fb70 2a .cfa: $rsp 48 + .ra: .cfa 8 - ^
STACK CFI INIT 7fba0 2a .cfa: $rsp 48 + .ra: .cfa 8 - ^
STACK CFI INIT 7fbd0 2a .cfa: $rsp 48 + .ra: .cfa 8 - ^
STACK CFI INIT 7fc00 2a .cfa: $rsp 48 + .ra: .cfa 8 - ^
STACK CFI INIT 7fc30 2a .cfa: $rsp 48 + .ra: .cfa 8 - ^
STACK CFI INIT 7fc60 2a .cfa: $rsp 48 + .ra: .cfa 8 - ^
STACK CFI INIT 7fc90 2a .cfa: $rsp 48 + .ra: .cfa 8 - ^
STACK CFI INIT 7fcc0 2a .cfa: $rsp 48 + .ra: .cfa 8 - ^
STACK CFI INIT 7fcf0 2a .cfa: $rsp 48 + .ra: .cfa 8 - ^
STACK CFI INIT 7fd20 2a .cfa: $rsp 48 + .ra: .cfa 8 - ^
STACK CFI INIT 7fd50 2a .cfa: $rsp 48 + .ra: .cfa 8 - ^
STACK CFI INIT 7fd80 2a .cfa: $rsp 48 + .ra: .cfa 8 - ^
STACK CFI INIT 7fdb0 2a .cfa: $rsp 48 + .ra: .cfa 8 - ^
STACK CFI INIT 7fde0 2a .cfa: $rsp 48 + .ra: .cfa 8 - ^
STACK CFI INIT 7fe10 2a .cfa: $rsp 48 + .ra: .cfa 8 - ^
STACK CFI INIT 7fe40 2a .cfa: $rsp 48 + .ra: .cfa 8 - ^
STACK CFI INIT 7fe70 2a .cfa: $rsp 48 + .ra: .cfa 8 - ^
STACK CFI INIT 7fea0 2a .cfa: $rsp 48 + .ra: .cfa 8 - ^
STACK CFI INIT 7fed0 2a .cfa: $rsp 48 + .ra: .cfa 8 - ^
STACK CFI INIT 7ff00 2a .cfa: $rsp 48 + .ra: .cfa 8 - ^
STACK CFI INIT 7ff30 2a .cfa: $rsp 48 + .ra: .cfa 8 - ^
STACK CFI INIT 7ff60 2a .cfa: $rsp 48 + .ra: .cfa 8 - ^
STACK CFI INIT 7ff90 2a .cfa: $rsp 48 + .ra: .cfa 8 - ^
STACK CFI INIT 7ffc0 2a .cfa: $rsp 48 + .ra: .cfa 8 - ^
STACK CFI INIT 7fff0 2a .cfa: $rsp 48 + .ra: .cfa 8 - ^
STACK CFI INIT 80020 2a .cfa: $rsp 48 + .ra: .cfa 8 - ^
STACK CFI INIT 80050 2a .cfa: $rsp 48 + .ra: .cfa 8 - ^
STACK CFI INIT 80080 2a .cfa: $rsp 48 + .ra: .cfa 8 - ^
STACK CFI INIT 800b0 2a .cfa: $rsp 48 + .ra: .cfa 8 - ^
STACK CFI INIT 800e0 2a .cfa: $rsp 48 + .ra: .cfa 8 - ^
STACK CFI INIT 80110 2a .cfa: $rsp 48 + .ra: .cfa 8 - ^
STACK CFI INIT 80140 2a .cfa: $rsp 48 + .ra: .cfa 8 - ^
STACK CFI INIT 80170 2a .cfa: $rsp 48 + .ra: .cfa 8 - ^
STACK CFI INIT 801a0 2a .cfa: $rsp 48 + .ra: .cfa 8 - ^
STACK CFI INIT 801d0 2a .cfa: $rsp 48 + .ra: .cfa 8 - ^
STACK CFI INIT 80200 2a .cfa: $rsp 48 + .ra: .cfa 8 - ^
STACK CFI INIT 80230 2a .cfa: $rsp 48 + .ra: .cfa 8 - ^
STACK CFI INIT 80260 2a .cfa: $rsp 48 + .ra: .cfa 8 - ^
STACK CFI INIT 80290 2a .cfa: $rsp 48 + .ra: .cfa 8 - ^
STACK CFI INIT 802c0 2a .cfa: $rsp 48 + .ra: .cfa 8 - ^
STACK CFI INIT 802f0 2a .cfa: $rsp 48 + .ra: .cfa 8 - ^
STACK CFI INIT 80320 2a .cfa: $rsp 48 + .ra: .cfa 8 - ^
STACK CFI INIT 80350 2a .cfa: $rsp 48 + .ra: .cfa 8 - ^
STACK CFI INIT 80380 2a .cfa: $rsp 48 + .ra: .cfa 8 - ^
STACK CFI INIT 803b0 2a .cfa: $rsp 48 + .ra: .cfa 8 - ^
STACK CFI INIT 803e0 2a .cfa: $rsp 48 + .ra: .cfa 8 - ^
STACK CFI INIT 80410 2a .cfa: $rsp 48 + .ra: .cfa 8 - ^
STACK CFI INIT 80440 2a .cfa: $rsp 48 + .ra: .cfa 8 - ^
STACK CFI INIT 80470 2a .cfa: $rsp 48 + .ra: .cfa 8 - ^
STACK CFI INIT 804a0 2a .cfa: $rsp 48 + .ra: .cfa 8 - ^
STACK CFI INIT 804d0 2a .cfa: $rsp 48 + .ra: .cfa 8 - ^
STACK CFI INIT 80500 2a .cfa: $rsp 48 + .ra: .cfa 8 - ^
STACK CFI INIT 80530 2a .cfa: $rsp 48 + .ra: .cfa 8 - ^
STACK CFI INIT 80560 2a .cfa: $rsp 48 + .ra: .cfa 8 - ^
STACK CFI INIT 80590 2a .cfa: $rsp 48 + .ra: .cfa 8 - ^
STACK CFI INIT 805c0 2a .cfa: $rsp 48 + .ra: .cfa 8 - ^
STACK CFI INIT 805f0 2a .cfa: $rsp 48 + .ra: .cfa 8 - ^
STACK CFI INIT 80620 2a .cfa: $rsp 48 + .ra: .cfa 8 - ^
STACK CFI INIT 80650 2a .cfa: $rsp 48 + .ra: .cfa 8 - ^
STACK CFI INIT 80680 2a .cfa: $rsp 48 + .ra: .cfa 8 - ^
STACK CFI INIT 806b0 2a .cfa: $rsp 48 + .ra: .cfa 8 - ^
STACK CFI INIT 806e0 2a .cfa: $rsp 48 + .ra: .cfa 8 - ^
STACK CFI INIT 80710 2a .cfa: $rsp 48 + .ra: .cfa 8 - ^
STACK CFI INIT 80740 2a .cfa: $rsp 48 + .ra: .cfa 8 - ^
STACK CFI INIT 80770 2a .cfa: $rsp 48 + .ra: .cfa 8 - ^
STACK CFI INIT 807a0 2a .cfa: $rsp 48 + .ra: .cfa 8 - ^
STACK CFI INIT 807d0 2a .cfa: $rsp 48 + .ra: .cfa 8 - ^
STACK CFI INIT 80800 2a .cfa: $rsp 48 + .ra: .cfa 8 - ^
STACK CFI INIT 80830 2a .cfa: $rsp 48 + .ra: .cfa 8 - ^
STACK CFI INIT 80860 2a .cfa: $rsp 48 + .ra: .cfa 8 - ^
STACK CFI INIT 80890 2a .cfa: $rsp 48 + .ra: .cfa 8 - ^
STACK CFI INIT 808c0 2a .cfa: $rsp 48 + .ra: .cfa 8 - ^
STACK CFI INIT 808f0 2a .cfa: $rsp 48 + .ra: .cfa 8 - ^
STACK CFI INIT 80920 2a .cfa: $rsp 48 + .ra: .cfa 8 - ^
STACK CFI INIT 80950 2a .cfa: $rsp 48 + .ra: .cfa 8 - ^
STACK CFI INIT 80980 2a .cfa: $rsp 48 + .ra: .cfa 8 - ^
STACK CFI INIT 809b0 2a .cfa: $rsp 48 + .ra: .cfa 8 - ^
STACK CFI INIT 809e0 2a .cfa: $rsp 48 + .ra: .cfa 8 - ^
STACK CFI INIT 80a10 2a .cfa: $rsp 48 + .ra: .cfa 8 - ^
STACK CFI INIT 80a40 2a .cfa: $rsp 48 + .ra: .cfa 8 - ^
STACK CFI INIT 80a70 2a .cfa: $rsp 48 + .ra: .cfa 8 - ^
STACK CFI INIT 80aa0 2a .cfa: $rsp 48 + .ra: .cfa 8 - ^
STACK CFI INIT 80ad0 2a .cfa: $rsp 48 + .ra: .cfa 8 - ^
STACK CFI INIT 80b00 2a .cfa: $rsp 48 + .ra: .cfa 8 - ^
STACK CFI INIT 80b30 2a .cfa: $rsp 48 + .ra: .cfa 8 - ^
STACK CFI INIT 80b60 2a .cfa: $rsp 48 + .ra: .cfa 8 - ^
STACK CFI INIT 80b90 2a .cfa: $rsp 48 + .ra: .cfa 8 - ^
STACK CFI INIT 80bc0 2a .cfa: $rsp 48 + .ra: .cfa 8 - ^
STACK CFI INIT 80bf0 2a .cfa: $rsp 48 + .ra: .cfa 8 - ^
STACK CFI INIT 80c20 2a .cfa: $rsp 48 + .ra: .cfa 8 - ^
STACK CFI INIT 80c50 2a .cfa: $rsp 48 + .ra: .cfa 8 - ^
STACK CFI INIT 80c80 2a .cfa: $rsp 48 + .ra: .cfa 8 - ^
STACK CFI INIT 80cb0 2a .cfa: $rsp 48 + .ra: .cfa 8 - ^
STACK CFI INIT 80ce0 2a .cfa: $rsp 48 + .ra: .cfa 8 - ^
STACK CFI INIT 80d10 2a .cfa: $rsp 48 + .ra: .cfa 8 - ^
STACK CFI INIT 80d40 2a .cfa: $rsp 48 + .ra: .cfa 8 - ^
STACK CFI INIT 80d70 2a .cfa: $rsp 48 + .ra: .cfa 8 - ^
STACK CFI INIT 80da0 2a .cfa: $rsp 48 + .ra: .cfa 8 - ^
STACK CFI INIT 80dd0 2a .cfa: $rsp 48 + .ra: .cfa 8 - ^
STACK CFI INIT 80e00 2a .cfa: $rsp 48 + .ra: .cfa 8 - ^
STACK CFI INIT 80e30 2a .cfa: $rsp 48 + .ra: .cfa 8 - ^
STACK CFI INIT 80e60 2a .cfa: $rsp 48 + .ra: .cfa 8 - ^
STACK CFI INIT 80e90 2a .cfa: $rsp 48 + .ra: .cfa 8 - ^
STACK CFI INIT 80ec0 2a .cfa: $rsp 48 + .ra: .cfa 8 - ^
STACK CFI INIT 80ef0 2a .cfa: $rsp 48 + .ra: .cfa 8 - ^
STACK CFI INIT 80f20 2a .cfa: $rsp 48 + .ra: .cfa 8 - ^
STACK CFI INIT 80f50 2a .cfa: $rsp 48 + .ra: .cfa 8 - ^
STACK CFI INIT 80f80 2a .cfa: $rsp 48 + .ra: .cfa 8 - ^
STACK CFI INIT 80fb0 2a .cfa: $rsp 48 + .ra: .cfa 8 - ^
STACK CFI INIT 80fe0 2a .cfa: $rsp 48 + .ra: .cfa 8 - ^
STACK CFI INIT 81010 2a .cfa: $rsp 48 + .ra: .cfa 8 - ^
STACK CFI INIT 81040 2a .cfa: $rsp 48 + .ra: .cfa 8 - ^
STACK CFI INIT 81070 2a .cfa: $rsp 48 + .ra: .cfa 8 - ^
STACK CFI INIT 810a0 2a .cfa: $rsp 48 + .ra: .cfa 8 - ^
STACK CFI INIT 810d0 2a .cfa: $rsp 48 + .ra: .cfa 8 - ^
STACK CFI INIT 81100 2a .cfa: $rsp 48 + .ra: .cfa 8 - ^
STACK CFI INIT 81130 2a .cfa: $rsp 48 + .ra: .cfa 8 - ^
STACK CFI INIT 81160 2a .cfa: $rsp 48 + .ra: .cfa 8 - ^
STACK CFI INIT 81190 2a .cfa: $rsp 48 + .ra: .cfa 8 - ^
STACK CFI INIT 811c0 2a .cfa: $rsp 48 + .ra: .cfa 8 - ^
STACK CFI INIT 811f0 2a .cfa: $rsp 48 + .ra: .cfa 8 - ^
STACK CFI INIT 81220 2a .cfa: $rsp 48 + .ra: .cfa 8 - ^
STACK CFI INIT 81250 2a .cfa: $rsp 48 + .ra: .cfa 8 - ^
STACK CFI INIT 81280 2a .cfa: $rsp 48 + .ra: .cfa 8 - ^
STACK CFI INIT 812b0 2a .cfa: $rsp 48 + .ra: .cfa 8 - ^
STACK CFI INIT 812e0 2a .cfa: $rsp 48 + .ra: .cfa 8 - ^
STACK CFI INIT 81310 2a .cfa: $rsp 48 + .ra: .cfa 8 - ^
STACK CFI INIT 81340 2a .cfa: $rsp 48 + .ra: .cfa 8 - ^
STACK CFI INIT 81370 2a .cfa: $rsp 48 + .ra: .cfa 8 - ^
STACK CFI INIT 813a0 2a .cfa: $rsp 48 + .ra: .cfa 8 - ^
STACK CFI INIT 813d0 2a .cfa: $rsp 48 + .ra: .cfa 8 - ^
STACK CFI INIT 81400 2a .cfa: $rsp 48 + .ra: .cfa 8 - ^
STACK CFI INIT 81430 2a .cfa: $rsp 48 + .ra: .cfa 8 - ^
STACK CFI INIT 81460 2a .cfa: $rsp 48 + .ra: .cfa 8 - ^
STACK CFI INIT 81490 2a .cfa: $rsp 48 + .ra: .cfa 8 - ^
STACK CFI INIT 814c0 2a .cfa: $rsp 48 + .ra: .cfa 8 - ^
STACK CFI INIT 814f0 2a .cfa: $rsp 48 + .ra: .cfa 8 - ^
STACK CFI INIT 81520 2a .cfa: $rsp 48 + .ra: .cfa 8 - ^
STACK CFI INIT 81550 2a .cfa: $rsp 48 + .ra: .cfa 8 - ^
STACK CFI INIT 81580 2a .cfa: $rsp 48 + .ra: .cfa 8 - ^
STACK CFI INIT 815b0 2a .cfa: $rsp 48 + .ra: .cfa 8 - ^
STACK CFI INIT 815e0 2a .cfa: $rsp 48 + .ra: .cfa 8 - ^
STACK CFI INIT 81610 2a .cfa: $rsp 48 + .ra: .cfa 8 - ^
STACK CFI INIT 81640 2a .cfa: $rsp 48 + .ra: .cfa 8 - ^
STACK CFI INIT 81670 2a .cfa: $rsp 48 + .ra: .cfa 8 - ^
STACK CFI INIT 816a0 2a .cfa: $rsp 48 + .ra: .cfa 8 - ^
STACK CFI INIT 816d0 2a .cfa: $rsp 48 + .ra: .cfa 8 - ^
STACK CFI INIT 81700 2a .cfa: $rsp 48 + .ra: .cfa 8 - ^
STACK CFI INIT 81730 2a .cfa: $rsp 48 + .ra: .cfa 8 - ^
STACK CFI INIT 81760 2a .cfa: $rsp 48 + .ra: .cfa 8 - ^
STACK CFI INIT 81790 2a .cfa: $rsp 48 + .ra: .cfa 8 - ^
STACK CFI INIT 817c0 2a .cfa: $rsp 48 + .ra: .cfa 8 - ^
STACK CFI INIT 817f0 2a .cfa: $rsp 48 + .ra: .cfa 8 - ^
STACK CFI INIT 81820 2a .cfa: $rsp 48 + .ra: .cfa 8 - ^
STACK CFI INIT 81850 2a .cfa: $rsp 48 + .ra: .cfa 8 - ^
STACK CFI INIT 81880 2a .cfa: $rsp 48 + .ra: .cfa 8 - ^
STACK CFI INIT 818b0 2a .cfa: $rsp 48 + .ra: .cfa 8 - ^
STACK CFI INIT 818e0 2a .cfa: $rsp 48 + .ra: .cfa 8 - ^
STACK CFI INIT 81910 2a .cfa: $rsp 48 + .ra: .cfa 8 - ^
STACK CFI INIT 81940 2a .cfa: $rsp 48 + .ra: .cfa 8 - ^
STACK CFI INIT 81970 2a .cfa: $rsp 48 + .ra: .cfa 8 - ^
STACK CFI INIT 819a0 2a .cfa: $rsp 48 + .ra: .cfa 8 - ^
STACK CFI INIT 819d0 2a .cfa: $rsp 48 + .ra: .cfa 8 - ^
STACK CFI INIT 81a00 2a .cfa: $rsp 48 + .ra: .cfa 8 - ^
STACK CFI INIT 81a30 2a .cfa: $rsp 48 + .ra: .cfa 8 - ^
STACK CFI INIT 81a60 2a .cfa: $rsp 48 + .ra: .cfa 8 - ^
STACK CFI INIT 81a90 2a .cfa: $rsp 48 + .ra: .cfa 8 - ^
STACK CFI INIT 81ac0 2a .cfa: $rsp 48 + .ra: .cfa 8 - ^
STACK CFI INIT 81af0 2a .cfa: $rsp 48 + .ra: .cfa 8 - ^
STACK CFI INIT 81b20 2a .cfa: $rsp 48 + .ra: .cfa 8 - ^
STACK CFI INIT 81b50 2a .cfa: $rsp 48 + .ra: .cfa 8 - ^
STACK CFI INIT 81b80 2a .cfa: $rsp 48 + .ra: .cfa 8 - ^
STACK CFI INIT 81bb0 2a .cfa: $rsp 48 + .ra: .cfa 8 - ^
STACK CFI INIT 81be0 2a .cfa: $rsp 48 + .ra: .cfa 8 - ^
STACK CFI INIT 81c10 2a .cfa: $rsp 48 + .ra: .cfa 8 - ^
STACK CFI INIT 81c40 2a .cfa: $rsp 48 + .ra: .cfa 8 - ^
STACK CFI INIT 81c70 2a .cfa: $rsp 48 + .ra: .cfa 8 - ^
STACK CFI INIT 81ca0 2a .cfa: $rsp 48 + .ra: .cfa 8 - ^
STACK CFI INIT 81cd0 2a .cfa: $rsp 48 + .ra: .cfa 8 - ^
STACK CFI INIT 81d00 2a .cfa: $rsp 48 + .ra: .cfa 8 - ^
STACK CFI INIT 81d30 2a .cfa: $rsp 48 + .ra: .cfa 8 - ^
STACK CFI INIT 81d60 2a .cfa: $rsp 48 + .ra: .cfa 8 - ^
STACK CFI INIT 81d90 2a .cfa: $rsp 48 + .ra: .cfa 8 - ^
STACK CFI INIT 81dc0 2a .cfa: $rsp 48 + .ra: .cfa 8 - ^
STACK CFI INIT 81df0 2a .cfa: $rsp 48 + .ra: .cfa 8 - ^
STACK CFI INIT 81e20 2a .cfa: $rsp 48 + .ra: .cfa 8 - ^
STACK CFI INIT 81e50 2a .cfa: $rsp 48 + .ra: .cfa 8 - ^
STACK CFI INIT 81e80 2a .cfa: $rsp 48 + .ra: .cfa 8 - ^
STACK CFI INIT 81eb0 2a .cfa: $rsp 48 + .ra: .cfa 8 - ^
STACK CFI INIT 81ee0 2a .cfa: $rsp 48 + .ra: .cfa 8 - ^
STACK CFI INIT 81f10 2a .cfa: $rsp 48 + .ra: .cfa 8 - ^
STACK CFI INIT 81f40 2a .cfa: $rsp 48 + .ra: .cfa 8 - ^
STACK CFI INIT 81f70 2a .cfa: $rsp 48 + .ra: .cfa 8 - ^
STACK CFI INIT 81fa0 2a .cfa: $rsp 48 + .ra: .cfa 8 - ^
STACK CFI INIT 81fd0 2a .cfa: $rsp 48 + .ra: .cfa 8 - ^
STACK CFI INIT 82000 2a .cfa: $rsp 48 + .ra: .cfa 8 - ^
STACK CFI INIT 82030 2a .cfa: $rsp 48 + .ra: .cfa 8 - ^
STACK CFI INIT 82060 2a .cfa: $rsp 48 + .ra: .cfa 8 - ^
STACK CFI INIT 82090 2a .cfa: $rsp 48 + .ra: .cfa 8 - ^
STACK CFI INIT 820c0 2a .cfa: $rsp 48 + .ra: .cfa 8 - ^
STACK CFI INIT 820f0 2a .cfa: $rsp 48 + .ra: .cfa 8 - ^
STACK CFI INIT 82120 2a .cfa: $rsp 48 + .ra: .cfa 8 - ^
STACK CFI INIT 82150 2a .cfa: $rsp 48 + .ra: .cfa 8 - ^
STACK CFI INIT 82180 2a .cfa: $rsp 48 + .ra: .cfa 8 - ^
STACK CFI INIT 821b0 2a .cfa: $rsp 48 + .ra: .cfa 8 - ^
STACK CFI INIT 821e0 2a .cfa: $rsp 48 + .ra: .cfa 8 - ^
STACK CFI INIT 82210 2a .cfa: $rsp 48 + .ra: .cfa 8 - ^
STACK CFI INIT 82240 2a .cfa: $rsp 48 + .ra: .cfa 8 - ^
STACK CFI INIT 82270 2a .cfa: $rsp 48 + .ra: .cfa 8 - ^
STACK CFI INIT 822a0 2a .cfa: $rsp 48 + .ra: .cfa 8 - ^
STACK CFI INIT 822d0 2a .cfa: $rsp 48 + .ra: .cfa 8 - ^
STACK CFI INIT 82300 2a .cfa: $rsp 48 + .ra: .cfa 8 - ^
STACK CFI INIT 82330 2a .cfa: $rsp 48 + .ra: .cfa 8 - ^
STACK CFI INIT 82360 2a .cfa: $rsp 48 + .ra: .cfa 8 - ^
STACK CFI INIT 82390 2a .cfa: $rsp 48 + .ra: .cfa 8 - ^
STACK CFI INIT 823c0 2a .cfa: $rsp 48 + .ra: .cfa 8 - ^
STACK CFI INIT 823f0 2a .cfa: $rsp 48 + .ra: .cfa 8 - ^
STACK CFI INIT 82420 2a .cfa: $rsp 48 + .ra: .cfa 8 - ^
STACK CFI INIT 82450 2a .cfa: $rsp 48 + .ra: .cfa 8 - ^
STACK CFI INIT 82480 2a .cfa: $rsp 48 + .ra: .cfa 8 - ^
STACK CFI INIT 824b0 2a .cfa: $rsp 48 + .ra: .cfa 8 - ^
STACK CFI INIT 824e0 2a .cfa: $rsp 48 + .ra: .cfa 8 - ^
STACK CFI INIT 82510 2a .cfa: $rsp 48 + .ra: .cfa 8 - ^
STACK CFI INIT 82540 2a .cfa: $rsp 48 + .ra: .cfa 8 - ^
STACK CFI INIT 82570 2a .cfa: $rsp 48 + .ra: .cfa 8 - ^
STACK CFI INIT 825a0 2a .cfa: $rsp 48 + .ra: .cfa 8 - ^
STACK CFI INIT 825d0 2a .cfa: $rsp 48 + .ra: .cfa 8 - ^
STACK CFI INIT 82600 2a .cfa: $rsp 48 + .ra: .cfa 8 - ^
STACK CFI INIT 82630 2a .cfa: $rsp 48 + .ra: .cfa 8 - ^
STACK CFI INIT 82660 2a .cfa: $rsp 48 + .ra: .cfa 8 - ^
STACK CFI INIT 82690 2a .cfa: $rsp 48 + .ra: .cfa 8 - ^
STACK CFI INIT 826c0 2a .cfa: $rsp 48 + .ra: .cfa 8 - ^
STACK CFI INIT 826f0 2a .cfa: $rsp 48 + .ra: .cfa 8 - ^
STACK CFI INIT 82720 2a .cfa: $rsp 48 + .ra: .cfa 8 - ^
STACK CFI INIT 82750 2a .cfa: $rsp 48 + .ra: .cfa 8 - ^
STACK CFI INIT 82780 2a .cfa: $rsp 48 + .ra: .cfa 8 - ^
STACK CFI INIT 827b0 2a .cfa: $rsp 48 + .ra: .cfa 8 - ^
STACK CFI INIT 827e0 2a .cfa: $rsp 48 + .ra: .cfa 8 - ^
STACK CFI INIT 82810 2a .cfa: $rsp 48 + .ra: .cfa 8 - ^
STACK CFI INIT 82840 2a .cfa: $rsp 48 + .ra: .cfa 8 - ^
STACK CFI INIT 82870 2a .cfa: $rsp 48 + .ra: .cfa 8 - ^
STACK CFI INIT 828a0 2a .cfa: $rsp 48 + .ra: .cfa 8 - ^
STACK CFI INIT 828d0 2a .cfa: $rsp 48 + .ra: .cfa 8 - ^
STACK CFI INIT 82900 2a .cfa: $rsp 48 + .ra: .cfa 8 - ^
STACK CFI INIT 82930 2a .cfa: $rsp 48 + .ra: .cfa 8 - ^
STACK CFI INIT 82960 2a .cfa: $rsp 48 + .ra: .cfa 8 - ^
STACK CFI INIT 82990 2a .cfa: $rsp 48 + .ra: .cfa 8 - ^
STACK CFI INIT 829c0 2a .cfa: $rsp 48 + .ra: .cfa 8 - ^
STACK CFI INIT 829f0 2a .cfa: $rsp 48 + .ra: .cfa 8 - ^
STACK CFI INIT 82a20 2a .cfa: $rsp 48 + .ra: .cfa 8 - ^
STACK CFI INIT 82a50 2a .cfa: $rsp 48 + .ra: .cfa 8 - ^
STACK CFI INIT 82a80 2a .cfa: $rsp 48 + .ra: .cfa 8 - ^
STACK CFI INIT 82ab0 2a .cfa: $rsp 48 + .ra: .cfa 8 - ^
STACK CFI INIT 82ae0 2a .cfa: $rsp 48 + .ra: .cfa 8 - ^
STACK CFI INIT 82b10 2a .cfa: $rsp 48 + .ra: .cfa 8 - ^
STACK CFI INIT 82b40 2a .cfa: $rsp 48 + .ra: .cfa 8 - ^
STACK CFI INIT 82b70 2a .cfa: $rsp 48 + .ra: .cfa 8 - ^
STACK CFI INIT 82ba0 2a .cfa: $rsp 48 + .ra: .cfa 8 - ^
STACK CFI INIT 82bd0 2a .cfa: $rsp 48 + .ra: .cfa 8 - ^
STACK CFI INIT 82c00 2a .cfa: $rsp 48 + .ra: .cfa 8 - ^
STACK CFI INIT 82c30 2a .cfa: $rsp 48 + .ra: .cfa 8 - ^
STACK CFI INIT 82c60 2a .cfa: $rsp 48 + .ra: .cfa 8 - ^
STACK CFI INIT 82c90 2a .cfa: $rsp 48 + .ra: .cfa 8 - ^
STACK CFI INIT 82cc0 2a .cfa: $rsp 48 + .ra: .cfa 8 - ^
STACK CFI INIT 82cf0 2a .cfa: $rsp 48 + .ra: .cfa 8 - ^
STACK CFI INIT 82d20 2a .cfa: $rsp 48 + .ra: .cfa 8 - ^
STACK CFI INIT 82d50 2a .cfa: $rsp 48 + .ra: .cfa 8 - ^
STACK CFI INIT 82d80 2a .cfa: $rsp 48 + .ra: .cfa 8 - ^
STACK CFI INIT 82db0 2a .cfa: $rsp 48 + .ra: .cfa 8 - ^
STACK CFI INIT 82de0 2a .cfa: $rsp 48 + .ra: .cfa 8 - ^
STACK CFI INIT 82e10 2a .cfa: $rsp 48 + .ra: .cfa 8 - ^
STACK CFI INIT 82e40 2a .cfa: $rsp 48 + .ra: .cfa 8 - ^
STACK CFI INIT 82e70 2a .cfa: $rsp 48 + .ra: .cfa 8 - ^
STACK CFI INIT 82ea0 2a .cfa: $rsp 48 + .ra: .cfa 8 - ^
STACK CFI INIT 82ed0 2a .cfa: $rsp 48 + .ra: .cfa 8 - ^
STACK CFI INIT 82f00 2a .cfa: $rsp 48 + .ra: .cfa 8 - ^
STACK CFI INIT 82f30 2a .cfa: $rsp 48 + .ra: .cfa 8 - ^
STACK CFI INIT 82f60 2a .cfa: $rsp 48 + .ra: .cfa 8 - ^
STACK CFI INIT 82f90 2a .cfa: $rsp 48 + .ra: .cfa 8 - ^
STACK CFI INIT 82fc0 2a .cfa: $rsp 48 + .ra: .cfa 8 - ^
STACK CFI INIT 82ff0 2a .cfa: $rsp 48 + .ra: .cfa 8 - ^
STACK CFI INIT 83020 2a .cfa: $rsp 48 + .ra: .cfa 8 - ^
STACK CFI INIT 83050 2a .cfa: $rsp 48 + .ra: .cfa 8 - ^
STACK CFI INIT 83080 2a .cfa: $rsp 48 + .ra: .cfa 8 - ^
STACK CFI INIT 830b0 2a .cfa: $rsp 48 + .ra: .cfa 8 - ^
STACK CFI INIT 830e0 2a .cfa: $rsp 48 + .ra: .cfa 8 - ^
STACK CFI INIT 83110 2a .cfa: $rsp 48 + .ra: .cfa 8 - ^
STACK CFI INIT 83140 2a .cfa: $rsp 48 + .ra: .cfa 8 - ^
STACK CFI INIT 83170 2a .cfa: $rsp 48 + .ra: .cfa 8 - ^
STACK CFI INIT 831a0 2a .cfa: $rsp 48 + .ra: .cfa 8 - ^
STACK CFI INIT 831d0 2a .cfa: $rsp 48 + .ra: .cfa 8 - ^
STACK CFI INIT 83200 2a .cfa: $rsp 48 + .ra: .cfa 8 - ^
STACK CFI INIT 83230 2a .cfa: $rsp 48 + .ra: .cfa 8 - ^
STACK CFI INIT 83260 2a .cfa: $rsp 48 + .ra: .cfa 8 - ^
STACK CFI INIT 83290 2a .cfa: $rsp 48 + .ra: .cfa 8 - ^
STACK CFI INIT 832c0 2a .cfa: $rsp 48 + .ra: .cfa 8 - ^
STACK CFI INIT 832f0 2a .cfa: $rsp 48 + .ra: .cfa 8 - ^
STACK CFI INIT 83320 2a .cfa: $rsp 48 + .ra: .cfa 8 - ^
STACK CFI INIT 83350 2a .cfa: $rsp 48 + .ra: .cfa 8 - ^
STACK CFI INIT 83380 2a .cfa: $rsp 48 + .ra: .cfa 8 - ^
STACK CFI INIT 833b0 2a .cfa: $rsp 48 + .ra: .cfa 8 - ^
STACK CFI INIT 833e0 2a .cfa: $rsp 48 + .ra: .cfa 8 - ^
STACK CFI INIT 83410 2a .cfa: $rsp 48 + .ra: .cfa 8 - ^
STACK CFI INIT 83440 2a .cfa: $rsp 48 + .ra: .cfa 8 - ^
STACK CFI INIT 83470 2a .cfa: $rsp 48 + .ra: .cfa 8 - ^
STACK CFI INIT 834a0 2a .cfa: $rsp 48 + .ra: .cfa 8 - ^
STACK CFI INIT 834d0 2a .cfa: $rsp 48 + .ra: .cfa 8 - ^
STACK CFI INIT 83500 2a .cfa: $rsp 48 + .ra: .cfa 8 - ^
STACK CFI INIT 83530 2a .cfa: $rsp 48 + .ra: .cfa 8 - ^
STACK CFI INIT 83560 2a .cfa: $rsp 48 + .ra: .cfa 8 - ^
STACK CFI INIT 83590 2a .cfa: $rsp 48 + .ra: .cfa 8 - ^
STACK CFI INIT 835c0 2a .cfa: $rsp 48 + .ra: .cfa 8 - ^
STACK CFI INIT 835f0 2a .cfa: $rsp 48 + .ra: .cfa 8 - ^
STACK CFI INIT 83620 2a .cfa: $rsp 48 + .ra: .cfa 8 - ^
STACK CFI INIT 83650 2a .cfa: $rsp 48 + .ra: .cfa 8 - ^
STACK CFI INIT 83680 2a .cfa: $rsp 48 + .ra: .cfa 8 - ^
STACK CFI INIT 836b0 2a .cfa: $rsp 48 + .ra: .cfa 8 - ^
STACK CFI INIT 836e0 2a .cfa: $rsp 48 + .ra: .cfa 8 - ^
STACK CFI INIT 83710 2a .cfa: $rsp 48 + .ra: .cfa 8 - ^
STACK CFI INIT 83740 2a .cfa: $rsp 48 + .ra: .cfa 8 - ^
STACK CFI INIT 83770 2a .cfa: $rsp 48 + .ra: .cfa 8 - ^
STACK CFI INIT 837a0 2a .cfa: $rsp 48 + .ra: .cfa 8 - ^
STACK CFI INIT 837d0 2a .cfa: $rsp 48 + .ra: .cfa 8 - ^
STACK CFI INIT 83800 2a .cfa: $rsp 48 + .ra: .cfa 8 - ^
STACK CFI INIT 83830 2a .cfa: $rsp 48 + .ra: .cfa 8 - ^
STACK CFI INIT 83860 2a .cfa: $rsp 48 + .ra: .cfa 8 - ^
STACK CFI INIT 83890 2a .cfa: $rsp 48 + .ra: .cfa 8 - ^
STACK CFI INIT 838c0 2a .cfa: $rsp 48 + .ra: .cfa 8 - ^
STACK CFI INIT 838f0 2a .cfa: $rsp 48 + .ra: .cfa 8 - ^
STACK CFI INIT 83920 2a .cfa: $rsp 48 + .ra: .cfa 8 - ^
STACK CFI INIT 83950 2a .cfa: $rsp 48 + .ra: .cfa 8 - ^
STACK CFI INIT 83980 2a .cfa: $rsp 48 + .ra: .cfa 8 - ^
STACK CFI INIT 839b0 2a .cfa: $rsp 48 + .ra: .cfa 8 - ^
STACK CFI INIT 839e0 2a .cfa: $rsp 48 + .ra: .cfa 8 - ^
STACK CFI INIT 83a10 2a .cfa: $rsp 48 + .ra: .cfa 8 - ^
STACK CFI INIT 83a40 2a .cfa: $rsp 48 + .ra: .cfa 8 - ^
STACK CFI INIT 83a70 2a .cfa: $rsp 48 + .ra: .cfa 8 - ^
STACK CFI INIT 83aa0 2a .cfa: $rsp 48 + .ra: .cfa 8 - ^
STACK CFI INIT 83ad0 2a .cfa: $rsp 48 + .ra: .cfa 8 - ^
STACK CFI INIT 83b00 2a .cfa: $rsp 48 + .ra: .cfa 8 - ^
STACK CFI INIT 83b30 2a .cfa: $rsp 48 + .ra: .cfa 8 - ^
STACK CFI INIT 83b60 2a .cfa: $rsp 48 + .ra: .cfa 8 - ^
STACK CFI INIT 83b90 2a .cfa: $rsp 48 + .ra: .cfa 8 - ^
STACK CFI INIT 83bc0 2a .cfa: $rsp 48 + .ra: .cfa 8 - ^
STACK CFI INIT 83bf0 2a .cfa: $rsp 48 + .ra: .cfa 8 - ^
STACK CFI INIT 83c20 2a .cfa: $rsp 48 + .ra: .cfa 8 - ^
STACK CFI INIT 83c50 2a .cfa: $rsp 48 + .ra: .cfa 8 - ^
STACK CFI INIT 83c80 2a .cfa: $rsp 48 + .ra: .cfa 8 - ^
STACK CFI INIT 83cb0 2a .cfa: $rsp 48 + .ra: .cfa 8 - ^
STACK CFI INIT 83ce0 2a .cfa: $rsp 48 + .ra: .cfa 8 - ^
STACK CFI INIT 83d10 2a .cfa: $rsp 48 + .ra: .cfa 8 - ^
STACK CFI INIT 83d40 2a .cfa: $rsp 48 + .ra: .cfa 8 - ^
STACK CFI INIT 83d70 2a .cfa: $rsp 48 + .ra: .cfa 8 - ^
STACK CFI INIT 83da0 2a .cfa: $rsp 48 + .ra: .cfa 8 - ^
STACK CFI INIT 83dd0 2a .cfa: $rsp 48 + .ra: .cfa 8 - ^
STACK CFI INIT 83e00 2a .cfa: $rsp 48 + .ra: .cfa 8 - ^
STACK CFI INIT 83e30 2a .cfa: $rsp 48 + .ra: .cfa 8 - ^
STACK CFI INIT 83e60 2a .cfa: $rsp 48 + .ra: .cfa 8 - ^
STACK CFI INIT 83e90 2a .cfa: $rsp 48 + .ra: .cfa 8 - ^
STACK CFI INIT 83ec0 2a .cfa: $rsp 48 + .ra: .cfa 8 - ^
STACK CFI INIT 83ef0 2a .cfa: $rsp 48 + .ra: .cfa 8 - ^
STACK CFI INIT 83f20 2a .cfa: $rsp 48 + .ra: .cfa 8 - ^
STACK CFI INIT 83f50 2a .cfa: $rsp 48 + .ra: .cfa 8 - ^
STACK CFI INIT 83f80 2a .cfa: $rsp 48 + .ra: .cfa 8 - ^
STACK CFI INIT 83fb0 2a .cfa: $rsp 48 + .ra: .cfa 8 - ^
STACK CFI INIT 83fe0 2a .cfa: $rsp 48 + .ra: .cfa 8 - ^
STACK CFI INIT 84010 2a .cfa: $rsp 48 + .ra: .cfa 8 - ^
STACK CFI INIT 84040 2a .cfa: $rsp 48 + .ra: .cfa 8 - ^
STACK CFI INIT 84070 2a .cfa: $rsp 48 + .ra: .cfa 8 - ^
STACK CFI INIT 840a0 2a .cfa: $rsp 48 + .ra: .cfa 8 - ^
STACK CFI INIT 840d0 2a .cfa: $rsp 48 + .ra: .cfa 8 - ^
STACK CFI INIT 84100 2a .cfa: $rsp 48 + .ra: .cfa 8 - ^
STACK CFI INIT 84130 2a .cfa: $rsp 48 + .ra: .cfa 8 - ^
STACK CFI INIT 84160 2a .cfa: $rsp 48 + .ra: .cfa 8 - ^
STACK CFI INIT 84190 2a .cfa: $rsp 48 + .ra: .cfa 8 - ^
STACK CFI INIT 841c0 2a .cfa: $rsp 48 + .ra: .cfa 8 - ^
STACK CFI INIT 841f0 2a .cfa: $rsp 48 + .ra: .cfa 8 - ^
STACK CFI INIT 84220 2a .cfa: $rsp 48 + .ra: .cfa 8 - ^
STACK CFI INIT 84250 2a .cfa: $rsp 48 + .ra: .cfa 8 - ^
STACK CFI INIT 84280 2a .cfa: $rsp 48 + .ra: .cfa 8 - ^
STACK CFI INIT 842b0 2a .cfa: $rsp 48 + .ra: .cfa 8 - ^
STACK CFI INIT 842e0 2a .cfa: $rsp 48 + .ra: .cfa 8 - ^
STACK CFI INIT 84310 2a .cfa: $rsp 48 + .ra: .cfa 8 - ^
STACK CFI INIT 84340 2a .cfa: $rsp 48 + .ra: .cfa 8 - ^
STACK CFI INIT 84370 2a .cfa: $rsp 48 + .ra: .cfa 8 - ^
STACK CFI INIT 843a0 2a .cfa: $rsp 48 + .ra: .cfa 8 - ^
STACK CFI INIT 843d0 2a .cfa: $rsp 48 + .ra: .cfa 8 - ^
STACK CFI INIT 84400 2a .cfa: $rsp 48 + .ra: .cfa 8 - ^
STACK CFI INIT 84430 2a .cfa: $rsp 48 + .ra: .cfa 8 - ^
STACK CFI INIT 84460 2a .cfa: $rsp 48 + .ra: .cfa 8 - ^
STACK CFI INIT 84490 2a .cfa: $rsp 48 + .ra: .cfa 8 - ^
STACK CFI INIT 844c0 2a .cfa: $rsp 48 + .ra: .cfa 8 - ^
STACK CFI INIT 844f0 2a .cfa: $rsp 48 + .ra: .cfa 8 - ^
STACK CFI INIT 84520 2a .cfa: $rsp 48 + .ra: .cfa 8 - ^
STACK CFI INIT 84550 2a .cfa: $rsp 48 + .ra: .cfa 8 - ^
STACK CFI INIT 84580 2a .cfa: $rsp 48 + .ra: .cfa 8 - ^
STACK CFI INIT 845b0 2a .cfa: $rsp 48 + .ra: .cfa 8 - ^
STACK CFI INIT 845e0 2a .cfa: $rsp 48 + .ra: .cfa 8 - ^
STACK CFI INIT 84610 2a .cfa: $rsp 48 + .ra: .cfa 8 - ^
STACK CFI INIT 84640 2a .cfa: $rsp 48 + .ra: .cfa 8 - ^
STACK CFI INIT 84670 2a .cfa: $rsp 48 + .ra: .cfa 8 - ^
STACK CFI INIT 846a0 2a .cfa: $rsp 48 + .ra: .cfa 8 - ^
STACK CFI INIT 846d0 2a .cfa: $rsp 48 + .ra: .cfa 8 - ^
STACK CFI INIT 84700 2a .cfa: $rsp 48 + .ra: .cfa 8 - ^
STACK CFI INIT 84730 2a .cfa: $rsp 48 + .ra: .cfa 8 - ^
STACK CFI INIT 84760 2a .cfa: $rsp 48 + .ra: .cfa 8 - ^
STACK CFI INIT 84790 2a .cfa: $rsp 48 + .ra: .cfa 8 - ^
STACK CFI INIT 847c0 2a .cfa: $rsp 48 + .ra: .cfa 8 - ^
STACK CFI INIT 847f0 2a .cfa: $rsp 48 + .ra: .cfa 8 - ^
STACK CFI INIT 84820 2a .cfa: $rsp 48 + .ra: .cfa 8 - ^
STACK CFI INIT 84870 32 .cfa: $rsp 80 + .ra: .cfa 8 - ^
STACK CFI INIT 848b0 26 .cfa: $rsp 64 + .ra: .cfa 8 - ^
STACK CFI INIT 84900 5f .cfa: $rsp 96 + .ra: .cfa 8 - ^
STACK CFI INIT 849a8 1d1 .cfa: $rsp 96 + $rbp: .cfa 16 - ^ $rsi: .cfa 24 - ^ $rdi: .cfa 32 - ^ $r14: .cfa 40 - ^ $r15: .cfa 48 - ^ $rbx: .cfa 0 - ^ .ra: .cfa 8 - ^
STACK CFI INIT 84b80 b5 .cfa: $rsp 80 + $rbp: .cfa 16 - ^ $rsi: .cfa 24 - ^ $rdi: .cfa 32 - ^ $rbx: .cfa 0 - ^ .ra: .cfa 8 - ^
STACK CFI INIT 84c3c 1a5 .cfa: $rsp 96 + $rbp: .cfa 16 - ^ $rdi: .cfa 24 - ^ $r14: .cfa 32 - ^ $rbx: .cfa 0 - ^ $rsi: .cfa 0 - ^ .ra: .cfa 8 - ^
STACK CFI INIT 84de8 6a .cfa: $rsp 64 + $rdi: .cfa 16 - ^ $rbx: .cfa 0 - ^ .ra: .cfa 8 - ^
STACK CFI INIT 84e58 af .cfa: $rsp 64 + $rdi: .cfa 16 - ^ $rbx: .cfa 0 - ^ $rsi: .cfa 0 - ^ .ra: .cfa 8 - ^
STACK CFI INIT 84f10 c7 .cfa: $rsp 64 + $r14: .cfa 16 - ^ $rbx: .cfa 0 - ^ $rbp: .cfa 0 - ^ $rsi: .cfa 0 - ^ $rdi: .cfa 0 - ^ .ra: .cfa 8 - ^
STACK CFI INIT 84fe0 1f1 .cfa: $rsp 144 + $rbp: .cfa 16 - ^ $rbx: .cfa 0 - ^ $rdi: .cfa 0 - ^ .ra: .cfa 8 - ^
STACK CFI INIT 851d8 1fb .cfa: $rsp 128 + $rbp: .cfa 16 - ^ $rsi: .cfa 24 - ^ $rdi: .cfa 32 - ^ $r12: .cfa 40 - ^ $r13: .cfa 48 - ^ $r14: .cfa 56 - ^ $r15: .cfa 64 - ^ $rbx: .cfa 0 - ^ .ra: .cfa 8 - ^
STACK CFI INIT 853dc 1ac .cfa: $rsp 128 + $rbp: .cfa 16 - ^ $rbx: .cfa 24 - ^ $rsi: .cfa 32 - ^ $rdi: .cfa 40 - ^ $r12: .cfa 48 - ^ $r14: .cfa 56 - ^ $r15: .cfa 64 - ^ .ra: .cfa 8 - ^
STACK CFI INIT 85590 1c3 .cfa: $rsp 96 + $rdi: .cfa 16 - ^ $r12: .cfa 24 - ^ $r13: .cfa 32 - ^ $r14: .cfa 40 - ^ $r15: .cfa 48 - ^ $rbx: .cfa 0 - ^ $rbp: .cfa 0 - ^ $rsi: .cfa 0 - ^ .ra: .cfa 8 - ^
STACK CFI INIT 8575c ee .cfa: $rsp 64 + $rdi: .cfa 16 - ^ $rbx: .cfa 0 - ^ $rbp: .cfa 0 - ^ $rsi: .cfa 0 - ^ .ra: .cfa 8 - ^
STACK CFI INIT 85850 312 .cfa: $rsp 160 + $rbp: .cfa 16 - ^ $rbx: .cfa 24 - ^ $rsi: .cfa 32 - ^ $rdi: .cfa 40 - ^ $r12: .cfa 48 - ^ $r13: .cfa 56 - ^ $r14: .cfa 64 - ^ $r15: .cfa 72 - ^ .ra: .cfa 8 - ^
STACK CFI INIT 85b68 24f .cfa: $rsp 112 + $rsi: .cfa 16 - ^ $rdi: .cfa 24 - ^ $r12: .cfa 32 - ^ $r14: .cfa 40 - ^ $r15: .cfa 48 - ^ $rbx: .cfa 0 - ^ $rbp: .cfa 0 - ^ .ra: .cfa 8 - ^
STACK CFI INIT 85dc0 1de .cfa: $rsp 112 + $rbp: .cfa 16 - ^ $rdi: .cfa 24 - ^ $r12: .cfa 32 - ^ $r14: .cfa 40 - ^ $r15: .cfa 48 - ^ $rbx: .cfa 0 - ^ $rsi: .cfa 0 - ^ .ra: .cfa 8 - ^
STACK CFI INIT 85fa4 137 .cfa: $rsp 80 + $rdi: .cfa 16 - ^ $rbx: .cfa 0 - ^ $rbp: .cfa 0 - ^ $rsi: .cfa 0 - ^ .ra: .cfa 8 - ^
STACK CFI INIT 860e4 2a6 .cfa: $rsp 192 + $rbp: .cfa 16 - ^ $rdi: .cfa 24 - ^ $r12: .cfa 32 - ^ $r14: .cfa 40 - ^ $r15: .cfa 48 - ^ $rbx: .cfa 0 - ^ $rsi: .cfa 0 - ^ .ra: .cfa 8 - ^
STACK CFI INIT 86390 458 .cfa: $rsp 96 + $rbp: .cfa 16 - ^ $r12: .cfa 24 - ^ $r13: .cfa 32 - ^ $r14: .cfa 40 - ^ $r15: .cfa 48 - ^ $rbx: .cfa 0 - ^ $rsi: .cfa 0 - ^ $rdi: .cfa 0 - ^ .ra: .cfa 8 - ^
STACK CFI INIT 867f0 264 .cfa: $rsp 80 + $rbp: .cfa 16 - ^ $rbx: .cfa 24 - ^ $rdi: .cfa 32 - ^ .ra: .cfa 8 - ^
STACK CFI INIT 86a5c 519 .cfa: $rsp 192 + $rbp: .cfa 16 - ^ $rsi: .cfa 24 - ^ $rdi: .cfa 32 - ^ $r14: .cfa 40 - ^ $r15: .cfa 48 - ^ $rbx: .cfa 0 - ^ .ra: .cfa 8 - ^
STACK CFI INIT 86f7c 30c .cfa: $rsp 80 + $rdi: .cfa 16 - ^ $r14: .cfa 24 - ^ $r15: .cfa 32 - ^ $rbx: .cfa 0 - ^ $rbp: .cfa 0 - ^ $rsi: .cfa 0 - ^ .ra: .cfa 8 - ^
STACK CFI INIT 873c0 8f .cfa: $rsp 64 + $rdi: .cfa 16 - ^ $rbx: .cfa 0 - ^ $rbp: .cfa 0 - ^ $rsi: .cfa 0 - ^ .ra: .cfa 8 - ^
STACK CFI INIT 87458 25 .cfa: $rsp 48 + $rbx: .cfa 16 - ^ .ra: .cfa 8 - ^
STACK CFI INIT 87484 7d .cfa: $rsp 80 + $rbp: .cfa 16 - ^ $rsi: .cfa 24 - ^ $rdi: .cfa 32 - ^ $rbx: .cfa 0 - ^ .ra: .cfa 8 - ^
STACK CFI INIT 87508 9d .cfa: $rsp 48 + $rdi: .cfa 16 - ^ $rbx: .cfa 0 - ^ $rsi: .cfa 0 - ^ .ra: .cfa 8 - ^
STACK CFI INIT 875b0 aa .cfa: $rsp 48 + $rdi: .cfa 16 - ^ $rbx: .cfa 0 - ^ .ra: .cfa 8 - ^
STACK CFI INIT 876c0 6c .cfa: $rsp 48 + $rdi: .cfa 16 - ^ $rbx: .cfa 0 - ^ $rbp: .cfa 0 - ^ $rsi: .cfa 0 - ^ .ra: .cfa 8 - ^
STACK CFI INIT 87740 44 .cfa: $rsp 48 + $rdi: .cfa 16 - ^ $rbx: .cfa 0 - ^ .ra: .cfa 8 - ^
STACK CFI INIT 87790 6c .cfa: $rsp 48 + $rdi: .cfa 16 - ^ $rbx: .cfa 0 - ^ .ra: .cfa 8 - ^
STACK CFI INIT 87810 86 .cfa: $rsp 48 + $rdi: .cfa 16 - ^ $rbx: .cfa 0 - ^ $rbp: .cfa 0 - ^ $rsi: .cfa 0 - ^ .ra: .cfa 8 - ^
STACK CFI INIT 87940 b4 .cfa: $rsp 48 + $r14: .cfa 16 - ^ $rbx: .cfa 0 - ^ $rbp: .cfa 0 - ^ $rsi: .cfa 0 - ^ $rdi: .cfa 0 - ^ .ra: .cfa 8 - ^
STACK CFI INIT 879fc 1bc .cfa: $rsp 112 + $rbp: .cfa 16 - ^ $rbx: .cfa 24 - ^ $rsi: .cfa 32 - ^ $rdi: .cfa 40 - ^ $r12: .cfa 48 - ^ $r14: .cfa 56 - ^ $r15: .cfa 64 - ^ .ra: .cfa 8 - ^
STACK CFI INIT 87bc0 4e .cfa: $rsp 64 + $rbx: .cfa 16 - ^ .ra: .cfa 8 - ^
STACK CFI INIT 87c0e 25 .cfa: $rsp 48 + $rbp: .cfa 16 - ^ .ra: .cfa 8 - ^
STACK CFI INIT 87c3c 169 .cfa: $rsp 48 + $rbx: .cfa 16 - ^ .ra: .cfa 8 - ^
STACK CFI INIT 87dac 24f .cfa: $rsp 96 + $r14: .cfa 16 - ^ $rbx: .cfa 0 - ^ $rsi: .cfa 0 - ^ $rdi: .cfa 0 - ^ .ra: .cfa 8 - ^
STACK CFI INIT 87ffb 28 .cfa: $rsp 64 + $rbp: .cfa 16 - ^ .ra: .cfa 8 - ^
STACK CFI INIT 8802c 13e .cfa: $rsp 80 + $rdi: .cfa 16 - ^ $rbx: .cfa 0 - ^ $rsi: .cfa 0 - ^ .ra: .cfa 8 - ^
STACK CFI INIT 8816a 25 .cfa: $rsp 64 + $rbp: .cfa 16 - ^ .ra: .cfa 8 - ^
STACK CFI INIT 88198 13e .cfa: $rsp 80 + $rdi: .cfa 16 - ^ $rbx: .cfa 0 - ^ $rsi: .cfa 0 - ^ .ra: .cfa 8 - ^
STACK CFI INIT 882d6 25 .cfa: $rsp 64 + $rbp: .cfa 16 - ^ .ra: .cfa 8 - ^
STACK CFI INIT 88304 9d .cfa: $rsp 64 + $rdi: .cfa 16 - ^ $rbx: .cfa 0 - ^ $rsi: .cfa 0 - ^ .ra: .cfa 8 - ^
STACK CFI INIT 883a8 3f .cfa: $rsp 48 + $rbx: .cfa 16 - ^ .ra: .cfa 8 - ^
STACK CFI INIT 883f0 35 .cfa: $rsp 48 + $rbx: .cfa 16 - ^ .ra: .cfa 8 - ^
STACK CFI INIT 8842c 22 .cfa: $rsp 48 + $rbx: .cfa 16 - ^ .ra: .cfa 8 - ^
STACK CFI INIT 88470 42 .cfa: $rsp 48 + $rdi: .cfa 16 - ^ $rbx: .cfa 0 - ^ .ra: .cfa 8 - ^
STACK CFI INIT 884b8 22 .cfa: $rsp 48 + .ra: .cfa 8 - ^
STACK CFI INIT 884e0 115 .cfa: $rsp 96 + $rbx: .cfa 16 - ^ .ra: .cfa 8 - ^
STACK CFI INIT 88601 1d .cfa: $rsp 48 + $rbp: .cfa 16 - ^ .ra: .cfa 8 - ^
STACK CFI INIT 8862a 1b .cfa: $rsp 48 + $rbp: .cfa 16 - ^ .ra: .cfa 8 - ^
STACK CFI INIT 8864c 115 .cfa: $rsp 96 + $rbx: .cfa 16 - ^ .ra: .cfa 8 - ^
STACK CFI INIT 8876d 1d .cfa: $rsp 48 + $rbp: .cfa 16 - ^ .ra: .cfa 8 - ^
STACK CFI INIT 88796 1b .cfa: $rsp 48 + $rbp: .cfa 16 - ^ .ra: .cfa 8 - ^
STACK CFI INIT 887b8 61 .cfa: $rsp 64 + .ra: .cfa 8 - ^
STACK CFI INIT 88819 25 .cfa: $rsp 48 + $rbp: .cfa 16 - ^ .ra: .cfa 8 - ^
STACK CFI INIT 88844 3c .cfa: $rsp 64 + $rbx: .cfa 16 - ^ .ra: .cfa 8 - ^
STACK CFI INIT 88880 25 .cfa: $rsp 48 + $rbp: .cfa 16 - ^ .ra: .cfa 8 - ^
STACK CFI INIT 888ac 53 .cfa: $rsp 48 + $rdi: .cfa 16 - ^ $rbx: .cfa 0 - ^ $rsi: .cfa 0 - ^ .ra: .cfa 8 - ^
STACK CFI INIT 88908 2cc .cfa: $rsp 48 + $rdi: .cfa 16 - ^ $rbx: .cfa 0 - ^ $rsi: .cfa 0 - ^ .ra: .cfa 8 - ^
STACK CFI INIT 88ca4 47 .cfa: $rsp 80 + .ra: .cfa 8 - ^
STACK CFI INIT 88cf4 c9 .cfa: $rsp 64 + $r15: .cfa 16 - ^ $rbx: .cfa 0 - ^ $rdi: .cfa 0 - ^ $r14: .cfa 0 - ^ .ra: .cfa 8 - ^
STACK CFI INIT 88dc4 6f .cfa: $rsp 48 + $rdi: .cfa 16 - ^ $rbx: .cfa 0 - ^ .ra: .cfa 8 - ^
STACK CFI INIT 88ea8 4b .cfa: $rsp 64 + $rbx: .cfa 16 - ^ .ra: .cfa 8 - ^
STACK CFI INIT 88efc 7f .cfa: $rsp 48 + $rbx: .cfa 16 - ^ .ra: .cfa 8 - ^
STACK CFI INIT 88f84 b1 .cfa: $rsp 96 + $rbp: .cfa 16 - ^ $rsi: .cfa 24 - ^ $rdi: .cfa 32 - ^ $rbx: .cfa 0 - ^ .ra: .cfa 8 - ^
STACK CFI INIT 8903c 219 .cfa: $rsp 128 + $rbp: .cfa 16 - ^ $rsi: .cfa 24 - ^ $rdi: .cfa 32 - ^ $r12: .cfa 40 - ^ $r13: .cfa 48 - ^ $r14: .cfa 56 - ^ $r15: .cfa 64 - ^ $rbx: .cfa 0 - ^ .ra: .cfa 8 - ^
STACK CFI INIT 8925c 13b .cfa: $rsp 80 + $r14: .cfa 16 - ^ $rbx: .cfa 0 - ^ $rsi: .cfa 0 - ^ $rdi: .cfa 0 - ^ .ra: .cfa 8 - ^
STACK CFI INIT 893a0 de .cfa: $rsp 48 + $r14: .cfa 16 - ^ $rbx: .cfa 0 - ^ $rsi: .cfa 0 - ^ $rdi: .cfa 0 - ^ .ra: .cfa 8 - ^
STACK CFI INIT 89484 42 .cfa: $rsp 48 + .ra: .cfa 8 - ^
STACK CFI INIT 894f0 5f .cfa: $rsp 48 + .ra: .cfa 8 - ^
STACK CFI INIT 89580 2b .cfa: $rsp 48 + .ra: .cfa 8 - ^
STACK CFI INIT 895b4 65 .cfa: $rsp 48 + $rdi: .cfa 16 - ^ $rbx: .cfa 0 - ^ .ra: .cfa 8 - ^
STACK CFI INIT 89620 7a .cfa: $rsp 64 + $rdi: .cfa 16 - ^ $rbx: .cfa 0 - ^ $rbp: .cfa 0 - ^ $rsi: .cfa 0 - ^ .ra: .cfa 8 - ^
STACK CFI INIT 896a0 86 .cfa: $rsp 48 + .ra: .cfa 8 - ^
STACK CFI INIT 897b0 d2 .cfa: $rsp 48 + $rdi: .cfa 16 - ^ $rbx: .cfa 0 - ^ $rsi: .cfa 0 - ^ .ra: .cfa 8 - ^
STACK CFI INIT 89890 20 .cfa: $rsp 48 + $rbx: .cfa 16 - ^ .ra: .cfa 8 - ^
STACK CFI INIT 898b8 55 .cfa: $rsp 48 + .ra: .cfa 8 - ^
STACK CFI INIT 89914 51 .cfa: $rsp 64 + $rdi: .cfa 16 - ^ $rbx: .cfa 0 - ^ $rsi: .cfa 0 - ^ .ra: .cfa 8 - ^
STACK CFI INIT 89970 b7 .cfa: $rsp 48 + $r14: .cfa 16 - ^ $rbx: .cfa 0 - ^ $rsi: .cfa 0 - ^ $rdi: .cfa 0 - ^ .ra: .cfa 8 - ^
STACK CFI INIT 89a30 27 .cfa: $rsp 48 + $rbx: .cfa 16 - ^ .ra: .cfa 8 - ^
STACK CFI INIT 89a60 2f .cfa: $rsp 48 + $rbx: .cfa 16 - ^ .ra: .cfa 8 - ^
STACK CFI INIT 89aa0 2b .cfa: $rsp 48 + $rbx: .cfa 16 - ^ .ra: .cfa 8 - ^
STACK CFI INIT 89ae0 27 .cfa: $rsp 48 + $rbx: .cfa 16 - ^ .ra: .cfa 8 - ^
STACK CFI INIT 89b10 2e .cfa: $rsp 48 + $rbx: .cfa 16 - ^ .ra: .cfa 8 - ^
STACK CFI INIT 89b50 2a .cfa: $rsp 48 + $rbx: .cfa 16 - ^ .ra: .cfa 8 - ^
STACK CFI INIT 89b80 35 .cfa: $rsp 48 + $rbx: .cfa 16 - ^ .ra: .cfa 8 - ^
STACK CFI INIT 89bc0 52 .cfa: $rsp 80 + $rdi: .cfa 16 - ^ $rbx: .cfa 0 - ^ .ra: .cfa 8 - ^
STACK CFI INIT 89c20 44 .cfa: $rsp 64 + $rdi: .cfa 16 - ^ $rbx: .cfa 0 - ^ .ra: .cfa 8 - ^
STACK CFI INIT 89c70 2e .cfa: $rsp 48 + $rbx: .cfa 16 - ^ .ra: .cfa 8 - ^
STACK CFI INIT 89cb0 32 .cfa: $rsp 64 + $rbx: .cfa 16 - ^ .ra: .cfa 8 - ^
STACK CFI INIT 89cf0 69 .cfa: $rsp 112 + $rbx: .cfa 16 - ^ .ra: .cfa 8 - ^
STACK CFI INIT 89d60 55 .cfa: $rsp 64 + $rdi: .cfa 16 - ^ $rbx: .cfa 0 - ^ .ra: .cfa 8 - ^
STACK CFI INIT 89dc0 5d .cfa: $rsp 96 + $rbx: .cfa 16 - ^ .ra: .cfa 8 - ^
STACK CFI INIT 89e30 71 .cfa: $rsp 80 + $rdi: .cfa 16 - ^ $rbx: .cfa 0 - ^ .ra: .cfa 8 - ^
STACK CFI INIT 89eb0 47 .cfa: $rsp 64 + $rdi: .cfa 16 - ^ $rbx: .cfa 0 - ^ .ra: .cfa 8 - ^
STACK CFI INIT 89f00 31 .cfa: $rsp 48 + $rbx: .cfa 16 - ^ .ra: .cfa 8 - ^
STACK CFI INIT 89f40 6e .cfa: $rsp 80 + $rdi: .cfa 16 - ^ $rbx: .cfa 0 - ^ .ra: .cfa 8 - ^
STACK CFI INIT 89fc0 78 .cfa: $rsp 80 + $rdi: .cfa 16 - ^ $rbx: .cfa 0 - ^ .ra: .cfa 8 - ^
STACK CFI INIT 8a040 29 .cfa: $rsp 48 + $rbx: .cfa 16 - ^ .ra: .cfa 8 - ^
STACK CFI INIT 8a070 3a .cfa: $rsp 64 + $rbx: .cfa 16 - ^ .ra: .cfa 8 - ^
STACK CFI INIT 8a0b0 26 .cfa: $rsp 48 + $rbx: .cfa 16 - ^ .ra: .cfa 8 - ^
STACK CFI INIT 8a0e0 29 .cfa: $rsp 48 + $rbx: .cfa 16 - ^ .ra: .cfa 8 - ^
STACK CFI INIT 8a110 6e .cfa: $rsp 80 + $rdi: .cfa 16 - ^ $rbx: .cfa 0 - ^ .ra: .cfa 8 - ^
STACK CFI INIT 8a190 2e .cfa: $rsp 48 + $rbx: .cfa 16 - ^ .ra: .cfa 8 - ^
STACK CFI INIT 8a1d0 85 .cfa: $rsp 80 + $rdi: .cfa 16 - ^ $rbx: .cfa 0 - ^ $rbp: .cfa 0 - ^ $rsi: .cfa 0 - ^ .ra: .cfa 8 - ^
STACK CFI INIT 8a260 78 .cfa: $rsp 80 + $rdi: .cfa 16 - ^ $rbx: .cfa 0 - ^ .ra: .cfa 8 - ^
STACK CFI INIT 8a2e0 26 .cfa: $rsp 48 + $rbx: .cfa 16 - ^ .ra: .cfa 8 - ^
STACK CFI INIT 8a310 36 .cfa: $rsp 48 + $rdi: .cfa 16 - ^ $rbx: .cfa 0 - ^ .ra: .cfa 8 - ^
STACK CFI INIT 8a350 88 .cfa: $rsp 64 + $r14: .cfa 16 - ^ $rbx: .cfa 0 - ^ $rbp: .cfa 0 - ^ $rsi: .cfa 0 - ^ $rdi: .cfa 0 - ^ .ra: .cfa 8 - ^
STACK CFI INIT 8a3e0 16a .cfa: $rsp 80 + $rdi: .cfa 16 - ^ $r12: .cfa 24 - ^ $r13: .cfa 32 - ^ $r14: .cfa 40 - ^ $r15: .cfa 48 - ^ $rbx: .cfa 0 - ^ $rbp: .cfa 0 - ^ $rsi: .cfa 0 - ^ .ra: .cfa 8 - ^
STACK CFI INIT 8a550 e4 .cfa: $rsp 48 + $r15: .cfa 16 - ^ $rbx: .cfa 0 - ^ $rsi: .cfa 0 - ^ $rdi: .cfa 0 - ^ $r14: .cfa 0 - ^ .ra: .cfa 8 - ^
STACK CFI INIT 8a63c 13a .cfa: $rsp 64 + $rdi: .cfa 16 - ^ $r14: .cfa 24 - ^ $r15: .cfa 32 - ^ $rbx: .cfa 0 - ^ $rbp: .cfa 0 - ^ $rsi: .cfa 0 - ^ .ra: .cfa 8 - ^
STACK CFI INIT 8a7f0 28 .cfa: $rsp 64 + .ra: .cfa 8 - ^
STACK CFI INIT 8a870 28 .cfa: $rsp 64 + .ra: .cfa 8 - ^
STACK CFI INIT 8a920 1a8 .cfa: $rsp 1184 + $rbp: .cfa 16 - ^ $rbx: .cfa 24 - ^ $rsi: .cfa 32 - ^ $rdi: .cfa 40 - ^ $r12: .cfa 48 - ^ $r13: .cfa 56 - ^ $r14: .cfa 64 - ^ $r15: .cfa 72 - ^ .ra: .cfa 8 - ^
STACK CFI INIT 8aad0 11e .cfa: $rsp 144 + $rdi: .cfa 16 - ^ $r12: .cfa 24 - ^ $r13: .cfa 32 - ^ $r14: .cfa 40 - ^ $r15: .cfa 48 - ^ $rbx: .cfa 0 - ^ $rbp: .cfa 0 - ^ $rsi: .cfa 0 - ^ .ra: .cfa 8 - ^
STACK CFI INIT 8ac00 59 .cfa: $rsp 64 + $rbx: .cfa 16 - ^ .ra: .cfa 8 - ^
STACK CFI INIT 8ac60 59 .cfa: $rsp 64 + $rbx: .cfa 16 - ^ .ra: .cfa 8 - ^
STACK CFI INIT 8acc0 48 .cfa: $rsp 64 + $rbx: .cfa 16 - ^ .ra: .cfa 8 - ^
STACK CFI INIT 8ad10 28 .cfa: $rsp 64 + .ra: .cfa 8 - ^
STACK CFI INIT 8ad40 2d .cfa: $rsp 64 + .ra: .cfa 8 - ^
STACK CFI INIT 8ad80 be .cfa: $rsp 176 + $rdi: .cfa 16 - ^ $rbx: .cfa 0 - ^ $rsi: .cfa 0 - ^ .ra: .cfa 8 - ^
STACK CFI INIT 8ae50 50 .cfa: $rsp 64 + .ra: .cfa 8 - ^
STACK CFI INIT 8aeb0 115 .cfa: $rsp 176 + $rbp: .cfa 16 - ^ $rbx: .cfa 0 - ^ $rsi: .cfa 0 - ^ $rdi: .cfa 0 - ^ .ra: .cfa 8 - ^
STACK CFI INIT 8afcc 13c .cfa: $rsp 112 + $rbp: .cfa 16 - ^ $r12: .cfa 24 - ^ $r13: .cfa 32 - ^ $r14: .cfa 40 - ^ $r15: .cfa 48 - ^ $rbx: .cfa 0 - ^ $rsi: .cfa 0 - ^ $rdi: .cfa 0 - ^ .ra: .cfa 8 - ^
STACK CFI INIT 8b110 ca .cfa: $rsp 96 + $rdi: .cfa 16 - ^ $rbx: .cfa 0 - ^ $rbp: .cfa 0 - ^ $rsi: .cfa 0 - ^ .ra: .cfa 8 - ^
STACK CFI INIT 8b1e0 44 .cfa: $rsp 64 + .ra: .cfa 8 - ^
STACK CFI INIT 8b230 88 .cfa: $rsp 64 + $rdi: .cfa 16 - ^ $rbx: .cfa 0 - ^ $rsi: .cfa 0 - ^ .ra: .cfa 8 - ^
STACK CFI INIT 8b2c0 ca .cfa: $rsp 96 + $rdi: .cfa 16 - ^ $rbx: .cfa 0 - ^ $rbp: .cfa 0 - ^ $rsi: .cfa 0 - ^ .ra: .cfa 8 - ^
STACK CFI INIT 8b390 da .cfa: $rsp 112 + $rbp: .cfa 16 - ^ $rsi: .cfa 24 - ^ $rdi: .cfa 32 - ^ $rbx: .cfa 0 - ^ .ra: .cfa 8 - ^
STACK CFI INIT 8b470 42 .cfa: $rsp 96 + .ra: .cfa 8 - ^
STACK CFI INIT 8b4b8 8f .cfa: $rsp 48 + $r14: .cfa 16 - ^ $rbx: .cfa 0 - ^ $rsi: .cfa 0 - ^ $rdi: .cfa 0 - ^ .ra: .cfa 8 - ^
STACK CFI INIT 8b550 48 .cfa: $rsp 80 + .ra: .cfa 8 - ^
STACK CFI INIT 8b5a0 3d .cfa: $rsp 96 + .ra: .cfa 8 - ^
STACK CFI INIT 8b5e4 98 .cfa: $rsp 48 + $r14: .cfa 16 - ^ $rbx: .cfa 0 - ^ $rsi: .cfa 0 - ^ $rdi: .cfa 0 - ^ .ra: .cfa 8 - ^
STACK CFI INIT 8b690 42 .cfa: $rsp 96 + .ra: .cfa 8 - ^
STACK CFI INIT 8b6d8 9a .cfa: $rsp 48 + $r14: .cfa 16 - ^ $rbx: .cfa 0 - ^ $rsi: .cfa 0 - ^ $rdi: .cfa 0 - ^ .ra: .cfa 8 - ^
STACK CFI INIT 8b780 ca .cfa: $rsp 96 + $rdi: .cfa 16 - ^ $rbx: .cfa 0 - ^ $rbp: .cfa 0 - ^ $rsi: .cfa 0 - ^ .ra: .cfa 8 - ^
STACK CFI INIT 8b850 3d .cfa: $rsp 64 + .ra: .cfa 8 - ^
STACK CFI INIT 8b8a0 c2 .cfa: $rsp 96 + $rdi: .cfa 16 - ^ $rbx: .cfa 0 - ^ $rsi: .cfa 0 - ^ .ra: .cfa 8 - ^
STACK CFI INIT 8b970 ec .cfa: $rsp 128 + $rbp: .cfa 16 - ^ $rsi: .cfa 24 - ^ $rdi: .cfa 32 - ^ $rbx: .cfa 0 - ^ .ra: .cfa 8 - ^
STACK CFI INIT 8ba70 3d .cfa: $rsp 96 + .ra: .cfa 8 - ^
STACK CFI INIT 8bab4 88 .cfa: $rsp 48 + $r14: .cfa 16 - ^ $rbx: .cfa 0 - ^ $rsi: .cfa 0 - ^ $rdi: .cfa 0 - ^ .ra: .cfa 8 - ^
STACK CFI INIT 8bb50 32 .cfa: $rsp 48 + .ra: .cfa 8 - ^
STACK CFI INIT 8bb90 a0 .cfa: $rsp 80 + $rdi: .cfa 16 - ^ $rbx: .cfa 0 - ^ $rsi: .cfa 0 - ^ .ra: .cfa 8 - ^
STACK CFI INIT 8bc40 36 .cfa: $rsp 48 + $rbx: .cfa 16 - ^ .ra: .cfa 8 - ^
STACK CFI INIT 8bc7c 136 .cfa: $rsp 48 + $r14: .cfa 16 - ^ $rbx: .cfa 0 - ^ $rbp: .cfa 0 - ^ $rsi: .cfa 0 - ^ $rdi: .cfa 0 - ^ .ra: .cfa 8 - ^
STACK CFI INIT 8bdc0 61 .cfa: $rsp 64 + $rbp: .cfa 16 - ^ $rsi: .cfa 24 - ^ $r15: .cfa 32 - ^ $rbx: .cfa 0 - ^ .ra: .cfa 8 - ^
STACK CFI INIT 8be21 251 .cfa: $rsp 64 + $rdi: .cfa 0 - ^ $r14: .cfa 0 - ^ $rbp: .cfa 16 - ^ $rsi: .cfa 24 - ^ $r15: .cfa 32 - ^ $rbx: .cfa 0 - ^ .ra: .cfa 8 - ^
STACK CFI INIT 8c072 18 .cfa: $rsp 64 + $rdi: .cfa 0 - ^ $r14: .cfa 0 - ^ $rbp: .cfa 16 - ^ $rsi: .cfa 24 - ^ $r15: .cfa 32 - ^ $rbx: .cfa 0 - ^ .ra: .cfa 8 - ^
STACK CFI INIT 8c090 52 .cfa: $rsp 48 + $rdi: .cfa 16 - ^ $rbx: .cfa 0 - ^ .ra: .cfa 8 - ^
STACK CFI INIT 8c110 a4 .cfa: $rsp 48 + $rdi: .cfa 16 - ^ $rbx: .cfa 0 - ^ $rbp: .cfa 0 - ^ $rsi: .cfa 0 - ^ .ra: .cfa 8 - ^
STACK CFI INIT 8c1b4 1da .cfa: $rsp 48 + $rdi: .cfa 16 - ^ $rbx: .cfa 0 - ^ $rbp: .cfa 0 - ^ $rsi: .cfa 0 - ^ .ra: .cfa 8 - ^
