MODULE Linux x86_64 20AD60B0B4C68177552708AA192E77390 basic.minidebuginfo
INFO CODE_ID B060AD20C6B47781552708AA192E7739FAC7C84A
INFO GENERATOR mozilla/dump_syms XYZ
PUBLIC 1000 0 _init
PUBLIC 1020 0 <.plt ELF section in basic.minidebuginfo>
PUBLIC 1030 0 <.plt.got ELF section in basic.minidebuginfo>
PUBLIC 1040 0 _start
PUBLIC 1070 0 deregister_tm_clones
PUBLIC 10a0 0 register_tm_clones
PUBLIC 10e0 0 __do_global_dtors_aux
PUBLIC 1120 0 frame_dummy
PUBLIC 1125 0 inline_1(int)
PUBLIC 114b 0 inline_2(int)
PUBLIC 1177 0 inline_3(int)
PUBLIC 11aa 0 inline_4(int)
PUBLIC 11e4 0 foo(int)
PUBLIC 12bd 0 main
PUBLIC 12e0 0 __libc_csu_init
PUBLIC 1340 0 __libc_csu_fini
PUBLIC 1344 0 _fini
STACK CFI INIT 1040 2b .cfa: $rsp 8 +
STACK CFI INIT 1020 10 .cfa: $rsp 16 + .ra: .cfa -8 + ^
STACK CFI 1026 .cfa: $rsp 24 +
STACK CFI INIT 1030 8 .cfa: $rsp 8 + .ra: .cfa -8 + ^
STACK CFI INIT 1125 26 .cfa: $rsp 8 + .ra: .cfa -8 + ^
STACK CFI 1126 .cfa: $rsp 16 + $rbp: .cfa -16 + ^
STACK CFI 1129 .cfa: $rbp 16 +
STACK CFI 114a .cfa: $rsp 8 +
STACK CFI INIT 114b 2c .cfa: $rsp 8 + .ra: .cfa -8 + ^
STACK CFI 114c .cfa: $rsp 16 + $rbp: .cfa -16 + ^
STACK CFI 114f .cfa: $rbp 16 +
STACK CFI 1176 .cfa: $rsp 8 +
STACK CFI INIT 1177 33 .cfa: $rsp 8 + .ra: .cfa -8 + ^
STACK CFI 1178 .cfa: $rsp 16 + $rbp: .cfa -16 + ^
STACK CFI 117b .cfa: $rbp 16 +
STACK CFI 11a9 .cfa: $rsp 8 +
STACK CFI INIT 11aa 3a .cfa: $rsp 8 + .ra: .cfa -8 + ^
STACK CFI 11ab .cfa: $rsp 16 + $rbp: .cfa -16 + ^
STACK CFI 11ae .cfa: $rbp 16 +
STACK CFI 11e3 .cfa: $rsp 8 +
STACK CFI INIT 11e4 d9 .cfa: $rsp 8 + .ra: .cfa -8 + ^
STACK CFI 11e5 .cfa: $rsp 16 + $rbp: .cfa -16 + ^
STACK CFI 11e8 .cfa: $rbp 16 +
STACK CFI 12bc .cfa: $rsp 8 +
STACK CFI INIT 12bd 1c .cfa: $rsp 8 + .ra: .cfa -8 + ^
STACK CFI 12be .cfa: $rsp 16 + $rbp: .cfa -16 + ^
STACK CFI 12c1 .cfa: $rbp 16 +
STACK CFI 12d8 .cfa: $rsp 8 +
STACK CFI INIT 12e0 5d .cfa: $rsp 8 + .ra: .cfa -8 + ^
STACK CFI 12e2 .cfa: $rsp 16 + $r15: .cfa -16 + ^
STACK CFI 12eb .cfa: $rsp 24 + $r14: .cfa -24 + ^
STACK CFI 12f0 .cfa: $rsp 32 + $r13: .cfa -32 + ^
STACK CFI 12f5 .cfa: $rsp 40 + $r12: .cfa -40 + ^
STACK CFI 12f9 .cfa: $rsp 48 + $rbp: .cfa -48 + ^
STACK CFI 1301 .cfa: $rsp 56 + $rbx: .cfa -56 + ^
STACK CFI 1308 .cfa: $rsp 64 +
STACK CFI 1332 .cfa: $rsp 56 +
STACK CFI 1333 .cfa: $rsp 48 +
STACK CFI 1334 .cfa: $rsp 40 +
STACK CFI 1336 .cfa: $rsp 32 +
STACK CFI 1338 .cfa: $rsp 24 +
STACK CFI 133a .cfa: $rsp 16 +
STACK CFI 133c .cfa: $rsp 8 +
STACK CFI INIT 1340 1 .cfa: $rsp 8 + .ra: .cfa -8 + ^
