MODULE windows x86_64 F46ED6342FCA4338B793768413AB51243 basic64.pdb
INFO CODE_ID 5D9C5ECA8C000 basic64.dll
FUNC 6b70 11 0 test1(int *)
FUNC 6b90 a 0 test2(int,unsigned int)
FUNC 6ba0 17 0 test3(int,unsigned int,short)
FUNC 6bc0 1c 0 test4(int,unsigned int,unsigned short,double *)
FUNC 6be0 2b 0 test5(int *,unsigned int,unsigned short,double const *,std::basic_string<char,std::char_traits<char>,std::allocator<char> >)
FUNC 6c10 17 0 test6(double const * const,std::basic_string<char,std::char_traits<char>,std::allocator<char> > const &,std::basic_string<char,std::char_traits<char>,std::allocator<char> > &&)
FUNC 6c30 9 0 test7(void (*)(int,unsigned int,unsigned short,double *))
FUNC 6c40 9 0 test8(int (*)(void (*)(int,unsigned int,unsigned short,double *)))
FUNC 6c50 9 0 test9(int (*)(int (*)(void (*)(int,unsigned int,unsigned short,double *))))
FUNC 6c60 9 0 test10(char * &)
FUNC 6c70 1e 0 test_array(char * const,int (* const)[34],std::basic_string<char,std::char_traits<char>,std::allocator<char> > (* const)[34][56],double * (* const)[34][56][78])
FUNC 6ce0 28 0 std::basic_string<char,std::char_traits<char>,std::allocator<char> >::~basic_string
FUNC 6d20 b 0 A::A()
FUNC 6d30 16 0 A::A(A &&)
FUNC 6d50 7 0 A::~A()
FUNC 6d60 11 0 A::meth1(int)
FUNC 6d80 13 0 A::meth1(double)
FUNC 6da0 17 0 A::meth1(short,signed char)
FUNC 6dc0 11 0 A::meth2(int)
FUNC 6de0 17 0 A::meth2(double)
FUNC 6e00 c 0 A::meth2(short,signed char)
FUNC 6e10 1a 0 A::meth4(A *,A::B &&)
FUNC 6e30 f2 0 std::basic_string<char,std::char_traits<char>,std::allocator<char> >::_Tidy_deallocate()
FUNC 6f60 19 0 std::_String_alloc<std::_String_base_types<char,std::allocator<char> > >::~_String_alloc
FUNC 6f80 21 0 std::_String_alloc<std::_String_base_types<char,std::allocator<char> > >::_Orphan_all()
FUNC 6fb0 19 0 std::_String_alloc<std::_String_base_types<char,std::allocator<char> > >::_Get_data()
FUNC 6fd0 1d 0 std::_String_val<std::_Simple_types<char> >::_Large_string_engaged()
FUNC 7000 19 0 std::_String_alloc<std::_String_base_types<char,std::allocator<char> > >::_Getal()
FUNC 7020 12 0 std::_Default_allocator_traits<std::allocator<char> >::destroy<char *>
FUNC 7040 b 0 std::addressof<char *>
FUNC 7050 39 0 std::allocator<char>::deallocate(char * const,unsigned __int64)
FUNC 70a0 1f 0 std::char_traits<char>::assign(char &,char const &)
FUNC 70d0 7 0 std::_Container_base0::_Orphan_all()
FUNC 70e0 b 0 std::_Compressed_pair<std::allocator<char>,std::_String_val<std::_Simple_types<char> >,1>::_Get_second()
FUNC 70f0 e 0 std::_Compressed_pair<std::allocator<char>,std::_String_val<std::_Simple_types<char> >,1>::_Get_first()
FUNC 7110 5d 0 std::_Deallocate<16,0>(void *,unsigned __int64)
FUNC 7190 93 0 std::_Adjust_manually_vector_aligned(void * &,unsigned __int64 &)
FUNC 7250 19 0 std::_Compressed_pair<std::allocator<char>,std::_String_val<std::_Simple_types<char> >,1>::~_Compressed_pair
FUNC 7270 19 0 std::_String_val<std::_Simple_types<char> >::~_String_val
FUNC 7290 7 0 std::_String_val<std::_Simple_types<char> >::_Bxty::~_Bxty()
FUNC 99d0 21 0 _security_check_cookie
FUNC 9a00 5 0 operator delete(void *,unsigned __int64)
FUNC 9a08 50 0 dllmain_crt_dispatch
FUNC 9a6c 119 0 dllmain_crt_process_attach
FUNC 9bcc 8e 0 dllmain_crt_process_detach
FUNC 9c80 133 0 dllmain_dispatch
FUNC 9e00 19 0 dllmain_raw
FUNC 9e20 5 0 CRT_INIT
FUNC 9e28 3d 0 DllMainCRTStartup
FUNC 9e74 34 0 _raise_securityfailure
FUNC 9eb8 d1 0 _report_gsfailure
FUNC 9fc0 13 0 _report_rangecheckfailure
FUNC 9fd8 9b 0 _report_securityfailure
FUNC a09c 10e 0 _report_securityfailureEx
FUNC a1f0 6d 0 capture_current_context
FUNC a278 71 0 capture_previous_context
FUNC a308 5 0 operator delete(void *)
FUNC a310 6b 0 __get_entropy
FUNC a398 ac 0 _security_init_cookie
FUNC a470 6 0 DllMain
FUNC a478 e 0 __scrt_initialize_type_info()
FUNC a48c c 0 __scrt_uninitialize_type_info()
FUNC a49c 8 0 _local_stdio_printf_options
FUNC a4a8 8 0 _local_stdio_scanf_options
FUNC a4b4 1b 0 _scrt_initialize_default_local_stdio_options
FUNC a4d8 16 0 __crt_fast_decode_pointer<void (__cdecl**)(void)>
FUNC a4f4 1e 0 __crt_fast_encode_pointer<void (__cdecl**)(void)>
FUNC a51c 9 0 __crt_rotate_pointer_value(unsigned __int64,int)
FUNC a528 14 0 __scrt_narrow_argv_policy::configure_argv()
FUNC a544 49 0 find_pe_section
FUNC a5a0 5 0 __scrt_narrow_environment_policy::initialize_environment()
FUNC a5a8 2f 0 is_potentially_valid_image_base
FUNC a5e4 a 0 NtCurrentTeb
FUNC a5f0 39 0 _scrt_acquire_startup_lock
FUNC a638 34 0 _scrt_dllmain_after_initialize_c
FUNC a67c 15 0 _scrt_dllmain_before_initialize_c
FUNC a698 28 0 _scrt_dllmain_crt_thread_attach
FUNC a6cc 15 0 _scrt_dllmain_crt_thread_detach
FUNC a6e8 60 0 _scrt_dllmain_exception_filter
FUNC a760 30 0 _scrt_dllmain_uninitialize_c
FUNC a79c 14 0 _scrt_dllmain_uninitialize_critical
FUNC a7b8 49 0 _scrt_initialize_crt
FUNC a814 d8 0 _scrt_initialize_onexit_tables
FUNC a924 99 0 _scrt_is_nonwritable_in_current_image
FUNC a9e4 24 0 _scrt_release_startup_lock
FUNC aa14 2b 0 _scrt_uninitialize_crt
FUNC aa4c 4f 0 onexit
FUNC aab0 36 0 at_quick_exit
FUNC aaf4 17 0 atexit
FUNC ab10 8 0 _scrt_get_dyn_tls_init_callback
FUNC ab1c 8 0 _crt_debugger_hook
FUNC ab28 14a 0 _scrt_fastfail
FUNC acc4 3a 0 _scrt_get_show_window_mode
FUNC ad0c 5 0 _scrt_initialize_mta
FUNC ad14 3 0 _scrt_initialize_winrt
FUNC ad18 52 0 _scrt_is_managed_app
FUNC ad80 e 0 _scrt_set_unhandled_exception_filter
FUNC ad94 3 0 _scrt_stub_for_initialize_mta
FUNC ad98 38 0 _scrt_unhandled_exception_filter
FUNC ade0 3c 0 RTC_Initialize
FUNC ae2c 3c 0 RTC_Terminate
FUNC ae78 3 0 guard_check_icall_nop
FUNC ae7c 4 0 ReadNoFence64
FUNC ae80 4 0 ReadPointerNoFence
FUNC ae84 17 0 guard_icall_checks_enforced
FUNC aea0 3 0 guard_rf_checks_enforced
FUNC aea4 1b9 0 _isa_available_init
FUNC b0cc 6 0 get_startup_argv_mode
FUNC b0d4 c 0 _scrt_is_ucrt_dll_in_use
PUBLIC b0f0 0 RtlCaptureContext
PUBLIC b0f6 0 RtlLookupFunctionEntry
PUBLIC b0fc 0 RtlVirtualUnwind
PUBLIC b102 0 UnhandledExceptionFilter
PUBLIC b108 0 SetUnhandledExceptionFilter
PUBLIC b10e 0 GetCurrentProcess
PUBLIC b114 0 TerminateProcess
PUBLIC b11a 0 IsProcessorFeaturePresent
PUBLIC b120 0 QueryPerformanceCounter
PUBLIC b126 0 GetCurrentProcessId
PUBLIC b12c 0 GetCurrentThreadId
PUBLIC b132 0 GetSystemTimeAsFileTime
PUBLIC b138 0 InitializeSListHead
PUBLIC b13e 0 IsDebuggerPresent
PUBLIC b144 0 GetStartupInfoW
PUBLIC b14a 0 GetModuleHandleW
FUNC b150 20b 0 _C_specific_handler
FUNC b3e0 5 0 <lambda_02a71323d951a238fa4826e9f186893b>::<lambda_invoker_cdecl>
FUNC b3e8 5 0 <lambda_ab747d7d039e86ead2ea2c584b0f6318>::<lambda_invoker_cdecl>
FUNC b3f0 8 0 __crt_internal_free_policy::operator()<char>(char const * const)
FUNC b3fc 8 0 __crt_internal_free_policy::operator()<void>(void const * const)
FUNC b408 9 0 __crt_interlocked_compare_exchange_pointer<char const ,char *,std::nullptr_t>
FUNC b414 4 0 __crt_interlocked_read_pointer<char const >(char const * const volatile *)
FUNC b418 7 0 __crt_unique_heap_ptr<char,__crt_internal_free_policy>::__crt_unique_heap_ptr<char,__crt_internal_free_policy>(char * const)
FUNC b420 7 0 __crt_unique_heap_ptr<void,__crt_internal_free_policy>::__crt_unique_heap_ptr<void,__crt_internal_free_policy>(void * const)
FUNC b428 1b 0 __crt_unique_heap_ptr<char,__crt_internal_free_policy>::~__crt_unique_heap_ptr<char,__crt_internal_free_policy>()
FUNC b44c 1b 0 __crt_unique_heap_ptr<void,__crt_internal_free_policy>::~__crt_unique_heap_ptr<void,__crt_internal_free_policy>()
FUNC b470 8 0 <lambda_02a71323d951a238fa4826e9f186893b>::operator void (__cdecl*)(void * const)
FUNC b47c 8 0 <lambda_ab747d7d039e86ead2ea2c584b0f6318>::operator void * (__cdecl*)(unsigned __int64)
FUNC b488 8 0 __crt_unique_heap_ptr<char,__crt_internal_free_policy>::operator bool()
FUNC b494 8 0 __crt_unique_heap_ptr<void,__crt_internal_free_policy>::operator bool()
FUNC b4a0 8 0 <lambda_02a71323d951a238fa4826e9f186893b>::operator()
FUNC b4ac 8 0 <lambda_ab747d7d039e86ead2ea2c584b0f6318>::operator()
FUNC b4b8 4 0 __crt_interlocked_read_64(__int64 const volatile *)
FUNC b4bc 8 0 __crt_unique_heap_ptr<void,__crt_internal_free_policy>::detach()
FUNC b4c8 4 0 __crt_unique_heap_ptr<char,__crt_internal_free_policy>::get()
FUNC b4cc 4 0 __crt_unique_heap_ptr<void,__crt_internal_free_policy>::get()
FUNC b4d0 8 0 __crt_unique_heap_ptr<char,__crt_internal_free_policy>::is_valid()
FUNC b4dc 8 0 __crt_unique_heap_ptr<void,__crt_internal_free_policy>::is_valid()
FUNC b4e8 1b 0 __crt_unique_heap_ptr<char,__crt_internal_free_policy>::release()
FUNC b50c 1b 0 __crt_unique_heap_ptr<void,__crt_internal_free_policy>::release()
FUNC b530 27 0 _std_type_info_compare
FUNC b560 2a 0 _std_type_info_destroy_list
FUNC b594 3b 0 _std_type_info_hash
FUNC b5e0 11c 0 _std_type_info_name
FUNC b744 32 0 _vcrt_initialize
FUNC b784 14 0 _vcrt_thread_attach
FUNC b7a0 12 0 _vcrt_thread_detach
FUNC b7b8 20 0 _vcrt_uninitialize
FUNC b7e0 10 0 _vcrt_uninitialize_critical
FUNC b7f4 3 0 init_memcpy_functions
FUNC b810 10 0 memset_repmovs
FUNC b830 190 0 memset
FUNC ba40 18 0 NLG_Notify
FUNC ba60 1 0 _NLG_Dispatch2
FUNC ba70 1 0 _NLG_Return2
FUNC ba84 5 0 __except_get_jumpbuf_sp
FUNC ba8c 37 0 _except_validate_context_record
FUNC bad0 3f 0 _except_validate_jump_buffer
FUNC bb20 5b 0 _except_validate_jump_buffer_common
FUNC bb94 71 0 _DestructExceptionObject
FUNC bc24 3 0 _CallMemberFunction0(void * const,void * const)
FUNC bc28 5 0 type_info::raw_name()
FUNC bc30 2f 0 IsExceptionObjectToBeDestroyed
FUNC bc6c 8 0 SetWinRTOutOfMemoryExceptionCallback
FUNC bc78 23 0 _AdjustPointer
FUNC bca4 4a 0 _FrameUnwindFilter
FUNC bd00 5b 0 _GetPlatformExceptionInfo
FUNC bd74 12 0 _current_exception
FUNC bd8c 12 0 _current_exception_context
FUNC bda4 12 0 _processing_throw
FUNC bdbc a 0 _std_terminate
FUNC bdc8 a5 0 is_exception_typeof
FUNC be98 8 0 _HeapManager::Block::Block()
FUNC bea4 cc 0 DName::DName(char const * &,char)
FUNC bfa4 10 0 DName::DName(DName const &)
FUNC bfb8 31 0 DName::DName(char)
FUNC bff8 84 0 DName::DName(DName *)
FUNC c0a0 40 0 DName::DName(char const *)
FUNC c0f0 2d 0 DName::DName(DNameStatus)
FUNC c128 c 0 DName::DName()
FUNC c138 a6 0 DName::DName(__int64)
FUNC c208 88 0 DName::DName(unsigned __int64)
FUNC c2b4 e 0 DNameNode::DNameNode()
FUNC c2c8 7 0 Replicator::Replicator()
FUNC c2d0 a 0 `UnDecorator::getDecoratedName'::`2'::TrackRecursion::TrackRecursion
FUNC c2dc 50 0 UnDecorator::UnDecorator(char const *,char * (*)(long),unsigned long)
FUNC c340 11 0 charNode::charNode(char)
FUNC c358 26 0 pDNameNode::pDNameNode(DName *)
FUNC c388 1a 0 pairNode::pairNode(DNameNode const *,DNameNode const *)
FUNC c3a8 88 0 pcharNode::pcharNode(char const *,int)
FUNC c454 7 0 `UnDecorator::getDecoratedName'::`2'::TrackRecursion::~TrackRecursion
FUNC c45c f 0 operator new(unsigned __int64,_HeapManager &,int)
FUNC c470 10 0 DName::operator=(DName const &)
FUNC c484 31 0 DName::operator=(char)
FUNC c4c4 7e 0 DName::operator=(DName *)
FUNC c564 36 0 DName::operator=(char const *)
FUNC c5a8 1f 0 DName::operator=(DNameStatus)
FUNC c5d0 40 0 Replicator::operator[](int)
FUNC c620 36 0 operator+(char,DName const &)
FUNC c664 36 0 operator+(char const *,DName const &)
FUNC c6a8 49 0 operator+(DNameStatus,DName const &)
FUNC c704 29 0 DName::operator+(DName const &)
FUNC c738 29 0 DName::operator+(char)
FUNC c76c 29 0 DName::operator+(DName *)
FUNC c7a0 29 0 DName::operator+(char const *)
FUNC c7d4 29 0 DName::operator+(DNameStatus)
FUNC c808 44 0 DName::operator+=(DName const &)
FUNC c860 7d 0 DName::operator+=(char)
FUNC c8fc 95 0 DName::operator+=(DName *)
FUNC c9b8 8a 0 DName::operator+=(char const *)
FUNC ca64 6b 0 DName::operator+=(DNameStatus)
FUNC caec 67 0 Replicator::operator+=(DName const &)
FUNC cb6c 14 0 DName::operator|=(DName const &)
FUNC cb88 16 0 _HeapManager::Constructor(void * (*)(unsigned __int64),void (*)(void *))
FUNC cba4 42 0 _HeapManager::Destructor()
FUNC cbf8 20 0 UnDecorator::UScore(Tokens)
FUNC cc20 63 0 DName::append(DNameNode const *)
FUNC cc9c db3 0 UnDecorator::composeDeclaration(DName const &)
FUNC ddbc f 0 UnDecorator::doAccessSpecifiers()
FUNC ddd0 f 0 UnDecorator::doAllocationLanguage()
FUNC dde4 f 0 UnDecorator::doAllocationModel()
FUNC ddf8 f 0 UnDecorator::doEcsu()
FUNC de0c f 0 UnDecorator::doEllipsis()
FUNC de20 f 0 UnDecorator::doFunctionReturns()
FUNC de34 e 0 UnDecorator::doMSKeywords()
FUNC de48 f 0 UnDecorator::doMemberTypes()
FUNC de5c c 0 UnDecorator::doNameOnly()
FUNC de6c c 0 UnDecorator::doNoIdentCharCheck()
FUNC de7c a6 0 DName::doPchar(char const *,int)
FUNC df4c f 0 UnDecorator::doPtr64()
FUNC df60 f 0 UnDecorator::doRestrictionSpec()
FUNC df74 12 0 UnDecorator::doThisTypes()
FUNC df8c f 0 UnDecorator::doThrowTypes()
FUNC dfa0 c 0 UnDecorator::doTypeOnly()
FUNC dfb0 c 0 UnDecorator::doUnderScore()
FUNC dfc0 12b 0 UnDecorator::getArgumentList()
FUNC e138 f3 0 UnDecorator::getArgumentTypes()
FUNC e268 253 0 UnDecorator::getArrayType(DName const &)
FUNC e550 c8 0 UnDecorator::getBasedType()
FUNC e64c 468 0 UnDecorator::getBasicDataType(DName const &)
FUNC ebd0 11d 0 UnDecorator::getCHPEName(char *,int)
FUNC ed34 19 0 UnDecorator::getCallIndex()
FUNC ed54 13e 0 UnDecorator::getCallingConvention()
FUNC eee4 7b8 0 UnDecorator::getDataIndirectType(DName const &,char const *,DName const &,int)
FUNC f88c 3e 0 UnDecorator::getDataIndirectType()
FUNC f8dc e6 0 UnDecorator::getDataType(DName *)
FUNC f9fc 2a8 0 UnDecorator::getDecoratedName()
FUNC fd50 179 0 UnDecorator::getDimension(bool)
FUNC ff28 4c 0 UnDecorator::getDispatchTarget()
FUNC ff88 19 0 UnDecorator::getDisplacement()
FUNC ffa8 160 0 UnDecorator::getECSUDataType()
FUNC 10160 17 0 UnDecorator::getECSUName()
FUNC 1017c fc 0 UnDecorator::getEnumType()
FUNC 102b8 214 0 UnDecorator::getExtendedDataIndirectType(char const * &,bool &,int)
FUNC 10554 c6 0 UnDecorator::getExternalDataType(DName const &)
FUNC 1064c 556 0 UnDecorator::getFunctionIndirectType(DName const &)
FUNC 10cf8 19 0 UnDecorator::getGuardNumber()
FUNC 10d18 19 0 DName::getLastChar()
FUNC 10d38 c 0 DNameStatusNode::getLastChar()
FUNC 10d48 4 0 charNode::getLastChar()
FUNC 10d4c 29 0 pDNameNode::getLastChar()
FUNC 10d80 35 0 pairNode::getLastChar()
FUNC 10dc4 14 0 pcharNode::getLastChar()
FUNC 10de0 71 0 UnDecorator::getLexicalFrame()
FUNC 10e70 a9 0 _HeapManager::getMemory(unsigned __int64,int)
FUNC 10f44 45 0 UnDecorator::getNoexcept()
FUNC 10f9c 73 0 UnDecorator::getNumberOfDimensions()
FUNC 1102c 76d 0 UnDecorator::getOperatorName(bool,bool *)
FUNC 11974 1e 0 UnDecorator::getPointerType(DName const &,DName const &)
FUNC 1199c 1e 0 UnDecorator::getPointerTypeArray(DName const &,DName const &)
FUNC 119c4 24d 0 UnDecorator::getPrimaryDataType(DName const &)
FUNC 11ca4 162 0 UnDecorator::getPtrRefDataType(DName const &,int)
FUNC 11e60 136 0 UnDecorator::getPtrRefType(DName const &,DName const &,char const *)
FUNC 11fe4 17 0 UnDecorator::getReferenceType(DName const &,DName const &,char const *)
FUNC 12000 13d 0 UnDecorator::getRestrictionSpec()
FUNC 1218c 34 0 UnDecorator::getReturnType(DName *)
FUNC 121d0 478 0 UnDecorator::getScope()
FUNC 12768 103 0 UnDecorator::getScopedName()
FUNC 128ac 94 0 UnDecorator::getSignedDimension()
FUNC 12968 3e 0 UnDecorator::getStorageConvention()
FUNC 129b8 1a 0 DName::getString(char *,char *)
FUNC 129d8 94 0 DName::getString(char *,int)
FUNC 12a94 46 0 DNameStatusNode::getString(char *,char *)
FUNC 12aec 11 0 charNode::getString(char *,char *)
FUNC 12b04 2d 0 pDNameNode::getString(char *,char *)
FUNC 12b3c 4b 0 pairNode::getString(char *,char *)
FUNC 12b9c 36 0 pcharNode::getString(char *,char *)
FUNC 12be0 d0 0 UnDecorator::getStringEncoding(char const *,int)
FUNC 12ce4 2d 0 getStringHelper(char *,char const *,char const *,int)
FUNC 12d1c 4c 0 UnDecorator::getSymbolName()
FUNC 12d7c 31a 0 UnDecorator::getTemplateArgumentList()
FUNC 1315c 3a0 0 UnDecorator::getTemplateConstant()
FUNC 135e4 1fa 0 UnDecorator::getTemplateName(bool)
FUNC 1385c 42 0 UnDecorator::getThisType()
FUNC 138b0 23 0 UnDecorator::getThrowTypes()
FUNC 138dc 35e 0 UnDecorator::getTypeEncoding()
FUNC 13d14 109 0 UnDecorator::getUndecoratedName(char *,int)
FUNC 13e60 58 0 UnDecorator::getVCallThunkType()
FUNC 13ed0 17 0 UnDecorator::getVbTableType(DName const &)
FUNC 13eec 5f 0 UnDecorator::getVdispMapType(DName const &)
FUNC 13f64 1fd 0 UnDecorator::getVfTableType(DName const &)
FUNC 141e0 2d9 0 UnDecorator::getZName(bool,bool)
FUNC 14570 c 0 UnDecorator::haveTemplateParameters()
FUNC 14580 a 0 DName::isArray()
FUNC 1458c a 0 DName::isComArray()
FUNC 14598 9 0 DName::isEmpty()
FUNC 145a4 9 0 Replicator::isFull()
FUNC 145b0 a 0 DName::isNoTE()
FUNC 145bc a 0 DName::isPinPtr()
FUNC 145c8 a 0 DName::isPtrRef()
FUNC 145d4 16 0 DName::isUDC()
FUNC 145f0 16 0 DName::isUDTThunk()
FUNC 1460c a 0 DName::isVCallThunk()
FUNC 14618 a 0 DName::isValid()
FUNC 14624 18 0 DName::length()
FUNC 14644 4 0 DNameStatusNode::length()
FUNC 14648 6 0 charNode::length()
FUNC 14650 28 0 pDNameNode::length()
FUNC 14684 53 0 pairNode::length()
FUNC 146ec 4 0 pcharNode::length()
FUNC 146f0 1f 0 DNameStatusNode::make(DNameStatus)
FUNC 14718 f5 0 UnDecorator::parseDecoratedName()
FUNC 1484c 6 0 DName::setIsArray()
FUNC 14854 6 0 DName::setIsComArray()
FUNC 1485c 6 0 DName::setIsNoTE()
FUNC 14864 6 0 DName::setIsPinPtr()
FUNC 1486c c 0 DName::setIsUDC()
FUNC 1487c 6 0 DName::setIsVCallThunk()
FUNC 14884 9 0 DName::setPtrRef()
FUNC 14890 5 0 DName::status()
FUNC 14898 1a 0 und_memcpy
FUNC 148b8 11 0 und_strlen
FUNC 148d0 2c 0 und_strncmp
FUNC 14908 27 0 _unDName
FUNC 14938 132 0 _unDNameEx
FUNC 14ab8 62 0 vsprintf_s_l
FUNC 14b34 52 0 sprintf_s
FUNC 14b9c 106 0 unDNameGenerateCHPE
FUNC 14ce4 8 0 __crt_internal_free_policy::operator()<__vcrt_ptd>(__vcrt_ptd const * const)
FUNC 14cf0 7 0 __crt_unique_heap_ptr<__vcrt_ptd,__crt_internal_free_policy>::__crt_unique_heap_ptr<__vcrt_ptd,__crt_internal_free_policy>(__vcrt_ptd * const)
FUNC 14cf8 1a 0 `anonymous namespace'::scoped_get_last_error_reset::scoped_get_last_error_reset
FUNC 14d18 1b 0 __crt_unique_heap_ptr<__vcrt_ptd,__crt_internal_free_policy>::~__crt_unique_heap_ptr<__vcrt_ptd,__crt_internal_free_policy>()
FUNC 14d3c 9 0 `anonymous namespace'::scoped_get_last_error_reset::~scoped_get_last_error_reset
FUNC 14d48 8 0 __crt_unique_heap_ptr<__vcrt_ptd,__crt_internal_free_policy>::operator bool()
FUNC 14d54 8 0 __crt_unique_heap_ptr<__vcrt_ptd,__crt_internal_free_policy>::detach()
FUNC 14d60 4 0 __crt_unique_heap_ptr<__vcrt_ptd,__crt_internal_free_policy>::get()
FUNC 14d64 8 0 __crt_unique_heap_ptr<__vcrt_ptd,__crt_internal_free_policy>::is_valid()
FUNC 14d70 1b 0 __crt_unique_heap_ptr<__vcrt_ptd,__crt_internal_free_policy>::release()
FUNC 14d94 34 0 store_and_initialize_ptd
FUNC 14dd8 1f 0 _vcrt_freefls
FUNC 14e00 4d 0 _vcrt_freeptd
FUNC 14e60 19 0 _vcrt_getptd
FUNC 14e80 cb 0 _vcrt_getptd_noexit
FUNC 14f80 4d 0 _vcrt_getptd_noinit
FUNC 14fe0 51 0 _vcrt_initialize_ptd
FUNC 15048 22 0 _vcrt_uninitialize_ptd
FUNC 15074 46 0 _vcrt_initialize_locks
FUNC 150cc 19 0 _vcrt_lock
FUNC 150ec 37 0 _vcrt_uninitialize_locks
FUNC 15130 19 0 _vcrt_unlock
FUNC 15150 8 0 __crt_fast_encoded_nullptr_t::operator<void> void *
FUNC 1515c 16 0 __crt_fast_decode_pointer<void *>
FUNC 15178 1e 0 __crt_fast_encode_pointer<void *>
FUNC 151a0 7 0 __crt_interlocked_exchange_pointer<HINSTANCE__,HINSTANCE__ *>
FUNC 151a8 7 0 __crt_interlocked_exchange_pointer<HINSTANCE__,void *>
FUNC 151b0 7 0 __crt_interlocked_exchange_pointer<void,void *>
FUNC 151b8 4 0 __crt_interlocked_read_pointer<HINSTANCE__>(HINSTANCE__ * const volatile *)
FUNC 151bc 4 0 __crt_interlocked_read_pointer<void>(void * const volatile *)
FUNC 151c0 5 0 __crt_fast_encode_pointer(std::nullptr_t)
FUNC 151c8 5 0 invalid_function_sentinel
FUNC 151d0 1c 0 try_get_FlsAlloc
FUNC 151f4 1f 0 try_get_FlsFree
FUNC 1521c 1f 0 try_get_FlsGetValue
FUNC 15244 1f 0 try_get_FlsSetValue
FUNC 1526c 1f 0 try_get_InitializeCriticalSectionEx
FUNC 15294 119 0 try_get_first_available_module
FUNC 153f4 1d6 0 try_get_function
FUNC 15640 fe 0 try_get_module
FUNC 15780 137 0 try_get_proc_address_from_first_available_module
FUNC 15904 73 0 try_load_library_from_system_directory
FUNC 15994 45 0 _vcrt_FlsAlloc
FUNC 159ec 46 0 _vcrt_FlsFree
FUNC 15a44 46 0 _vcrt_FlsGetValue
FUNC 15a9c 51 0 _vcrt_FlsSetValue
FUNC 15b04 61 0 _vcrt_InitializeCriticalSectionEx
FUNC 15b80 2f 0 _vcrt_initialize_winapi_thunks
FUNC 15bbc 3e 0 _vcrt_uninitialize_winapi_thunks
FUNC 15c0c 8 0 __crt_fast_encoded_nullptr_t::operator<void > void (*)(void)()
FUNC 15c18 1e 0 __crt_fast_encode_pointer<void (*)(void)>(void (*const)(void))
FUNC 15c40 f 0 _vcrt_initialize_pure_virtual_call_handler
FUNC 15c54 16 0 __crt_fast_decode_pointer<void (*)(void)>(void (*const)(void))
FUNC 15c70 7 0 __crt_interlocked_exchange_pointer<void ,void (*)(void)>(void (*const volatile *)(void),void (*const)(void))
FUNC 15c78 4 0 __crt_interlocked_read_pointer<void >(void (*const volatile *)(void))
FUNC 15c7c 1a 0 get_purecall_handler
FUNC 15c9c 2e 0 purecall
FUNC 15cd8 37 0 set_purecall_handler
FUNC 15d1c 14 0 std::pair<__FrameHandler3::TryBlockMap::iterator,__FrameHandler3::TryBlockMap::iterator>::pair<__FrameHandler3::TryBlockMap::iterator,__FrameHandler3::TryBlockMap::iterator><__FrameHandler3::TryBlockMap::iterator &,__FrameHandler3::TryBlockMap::iterator &,0>
FUNC 15d38 14 0 std::pair<__FrameHandler4::TryBlockMap::iterator,__FrameHandler4::TryBlockMap::iterator>::pair<__FrameHandler4::TryBlockMap::iterator,__FrameHandler4::TryBlockMap::iterator><__FrameHandler4::TryBlockMap::iterator &,__FrameHandler4::TryBlockMap::iterator &,0>
FUNC 15d54 95 0 SehTransFilter<__FrameHandler3>
FUNC 15e10 95 0 SehTransFilter<__FrameHandler4>
FUNC 15ecc 51 0 _CallSETranslator<__FrameHandler3>(EHExceptionRecord *,unsigned __int64 *,_CONTEXT *,_xDISPATCHER_CONTEXT *,_s_FuncInfo const *,unsigned long,unsigned __int64 *)
FUNC 15f34 51 0 _CallSETranslator<__FrameHandler4>(EHExceptionRecord *,unsigned __int64 *,_CONTEXT *,_xDISPATCHER_CONTEXT *,FuncInfo4 *,unsigned long,unsigned __int64 *)
FUNC 15f9c 4 0 std::forward<__FrameHandler3::TryBlockMap::iterator &>
FUNC 15fa0 4 0 std::forward<__FrameHandler4::TryBlockMap::iterator &>
FUNC 15fa4 13 0 FuncInfo4::FuncInfo4()
FUNC 15fbc b 0 __FrameHandler3::TryBlockMap::iterator::iterator(__FrameHandler3::TryBlockMap &,unsigned int)
FUNC 15fcc b 0 __FrameHandler4::TryBlockMap::iterator::iterator(__FrameHandler4::TryBlockMap &,unsigned int)
FUNC 15fdc a 0 __FrameHandler4::TryBlockMap::iterator::operator=(__FrameHandler4::TryBlockMap::iterator const &)
FUNC 15fe8 a 0 __FrameHandler4::TryBlockMap::iterator::operator!=(__FrameHandler4::TryBlockMap::iterator const &)
FUNC 15ff4 8 0 __FrameHandler4::TryBlockMap::iterator::operator*()
FUNC 16000 a8 0 __FrameHandler4::TryBlockMap::iterator::operator++()
FUNC 160d4 56 0 __FrameHandler3::CatchTryBlock(_s_FuncInfo const *,int)
FUNC 16140 94 0 DecompFuncInfo(unsigned char *,FuncInfo4 &)
FUNC 161fc 9e 0 __FrameHandler4::TryBlockMap::DecompTryBlock()
FUNC 162c4 2a 0 __FrameHandler3::ExecutionInCatch(_xDISPATCHER_CONTEXT *,_s_FuncInfo const *)
FUNC 162f8 a 0 __FrameHandler4::ExecutionInCatch(_xDISPATCHER_CONTEXT *,FuncInfo4 *)
FUNC 16304 64 0 __FrameHandler3::FrameUnwindToEmptyState(unsigned __int64 *,_xDISPATCHER_CONTEXT *,_s_FuncInfo const *)
FUNC 16384 35 0 __FrameHandler4::FrameUnwindToEmptyState(unsigned __int64 *,_xDISPATCHER_CONTEXT *,FuncInfo4 *)
FUNC 163c8 c9 0 __FrameHandler3::GetEstablisherFrame(unsigned __int64 *,_xDISPATCHER_CONTEXT *,_s_FuncInfo const *,unsigned __int64 *)
FUNC 164c4 24 0 __FrameHandler4::GetEstablisherFrame(unsigned __int64 *,_xDISPATCHER_CONTEXT *,FuncInfo4 *,unsigned __int64 *)
FUNC 164f4 159 0 __FrameHandler3::GetRangeOfTrysToCheck(__FrameHandler3::TryBlockMap &,int,int)
FUNC 166a4 d3 0 __FrameHandler4::GetRangeOfTrysToCheck(__FrameHandler4::TryBlockMap &,int,int)
FUNC 167ac d 0 ReadInt(unsigned char * *)
FUNC 167bc 30 0 ReadUnsigned(unsigned char * *)
FUNC 167f8 121 0 __FrameHandler3::UnwindNestedFrames(unsigned __int64 *,EHExceptionRecord *,_CONTEXT *,unsigned __int64 *,void *,_s_FuncInfo const *,int,int,_s_HandlerType const *,_xDISPATCHER_CONTEXT *,unsigned char)
FUNC 16964 170 0 __FrameHandler4::UnwindNestedFrames(unsigned __int64 *,EHExceptionRecord *,_CONTEXT *,unsigned __int64 *,void *,FuncInfo4 *,int,int,HandlerType4 *,_xDISPATCHER_CONTEXT *,unsigned char)
FUNC 16b30 10 0 __FuncToImageRelOffset(_xDISPATCHER_CONTEXT *,unsigned int)
FUNC 16b44 b 0 __FrameHandler4::TryBlockMap::begin()
FUNC 16b54 c 0 __FrameHandler4::TryBlockMap::end()
FUNC 16b64 4 0 __FrameHandler3::TryBlockMap::getFuncInfo()
FUNC 16b68 5 0 __FrameHandler3::TryBlockMap::getpDC()
FUNC 16b70 4 0 __FrameHandler4::TryBlockMap::iterator::incrementToSentinel()
FUNC 16b74 175 0 __FrameHandler4::TryBlockMap::setBuffer(__FrameHandler4::TryBlockMap::iterator)
FUNC 16d48 3a 0 CreateFrameInfo
FUNC 16d90 53 0 FindAndUnlinkFrame
FUNC 16df8 12 0 GetImageBase
FUNC 16e10 12 0 GetThrowImageBase
FUNC 16e28 18 0 SetImageBase
FUNC 16e48 18 0 SetThrowImageBase
FUNC 16e68 5 0 _CxxFrameHandler
FUNC 16e70 5 0 _CxxFrameHandler2
FUNC 16e78 7d 0 _CxxFrameHandler3
FUNC 16f14 a1 0 _CxxFrameHandler4
FUNC 16ff0 13 0 memcpy_repmovs
FUNC 17010 435 0 memcpy
FUNC 17560 27 0 __FrameHandler3::GetCurrentState(unsigned __int64 *,_xDISPATCHER_CONTEXT *,_s_FuncInfo const *)
FUNC 17590 29 0 __FrameHandler3::GetUnwindTryBlock(unsigned __int64 *,_xDISPATCHER_CONTEXT *,_s_FuncInfo const *)
FUNC 175c4 c 0 __FrameHandler3::SetState(unsigned __int64 *,_s_FuncInfo const *,int)
FUNC 175d4 3b 0 __FrameHandler3::SetUnwindTryBlock(unsigned __int64 *,_xDISPATCHER_CONTEXT *,_s_FuncInfo const *,int)
FUNC 17620 8 0 __FrameHandler3::StateFromControlPc(_s_FuncInfo const *,_xDISPATCHER_CONTEXT *)
FUNC 1762c 8 0 __FrameHandler4::StateFromControlPc(FuncInfo4 *,_xDISPATCHER_CONTEXT *)
FUNC 17638 66 0 __FrameHandler3::StateFromIp(_s_FuncInfo const *,_xDISPATCHER_CONTEXT *,unsigned __int64)
FUNC 176b8 ed 0 __FrameHandler4::StateFromIp(FuncInfo4 *,_xDISPATCHER_CONTEXT *,unsigned __int64)
FUNC 177e0 4 0 adjustIp
FUNC 177e4 1fd 0 BuildCatchObjectHelperInternal<_s_HandlerType const >
FUNC 17a60 201 0 BuildCatchObjectHelperInternal<HandlerType4>
FUNC 17ce4 c0 0 BuildCatchObjectInternal<_s_HandlerType const >
FUNC 17dd4 c1 0 BuildCatchObjectInternal<HandlerType4>
FUNC 17ec8 cd 0 CatchIt<__FrameHandler3>
FUNC 17fc8 cd 0 CatchIt<__FrameHandler4>
FUNC 180c8 461 0 FindHandler<__FrameHandler3>
FUNC 18644 400 0 FindHandler<__FrameHandler4>
FUNC 18b44 22e 0 FindHandlerForForeignException<__FrameHandler3>
FUNC 18e00 237 0 FindHandlerForForeignException<__FrameHandler4>
FUNC 190c4 141 0 TypeMatchHelper<_s_HandlerType const >(_s_HandlerType const *,_s_CatchableType const *,_s_ThrowInfo const *)
FUNC 19258 146 0 TypeMatchHelper<HandlerType4>(HandlerType4 *,_s_CatchableType const *,_s_ThrowInfo const *)
FUNC 193f0 246 0 __InternalCxxFrameHandler<__FrameHandler3>(EHExceptionRecord *,unsigned __int64 *,_CONTEXT *,_xDISPATCHER_CONTEXT *,_s_FuncInfo const *,int,unsigned __int64 *,unsigned char)
FUNC 196c8 29f 0 __InternalCxxFrameHandler<__FrameHandler4>(EHExceptionRecord *,unsigned __int64 *,_CONTEXT *,_xDISPATCHER_CONTEXT *,FuncInfo4 *,int,unsigned __int64 *,unsigned char)
FUNC 19a10 15 0 __FrameHandler3::HandlerMap::HandlerMap(_s_TryBlockMapEntry const *,_xDISPATCHER_CONTEXT *)
FUNC 19a2c 6b 0 __FrameHandler4::HandlerMap::HandlerMap(TryBlockMapEntry4 *,_xDISPATCHER_CONTEXT *)
FUNC 19ab4 14 0 HandlerType4::HandlerType4()
FUNC 19ad0 b 0 __FrameHandler3::TryBlockMap::TryBlockMap(_s_FuncInfo const *,_xDISPATCHER_CONTEXT *)
FUNC 19ae0 eb 0 __FrameHandler4::TryBlockMap::TryBlockMap(FuncInfo4 *,_xDISPATCHER_CONTEXT *)
FUNC 19c08 38 0 UWMap::UWMap(unsigned char *)
FUNC 19c50 3f 0 std::bad_exception::bad_exception(std::bad_exception const &)
FUNC 19ca0 1e 0 std::bad_exception::bad_exception()
FUNC 19cc8 35 0 std::exception::exception(std::exception const &)
FUNC 19d0c 17 0 std::exception::exception(char const * const,int)
FUNC 19d28 b 0 __FrameHandler3::HandlerMap::iterator::iterator(__FrameHandler3::HandlerMap &,unsigned int)
FUNC 19d38 b 0 __FrameHandler4::HandlerMap::iterator::iterator(__FrameHandler4::HandlerMap &,unsigned int)
FUNC 19d48 b 0 UWMap::iterator::iterator(UWMap &,unsigned char *)
FUNC 19d58 13 0 std::bad_exception::~bad_exception()
FUNC 19d70 13 0 std::exception::~exception()
FUNC 19d88 c 0 UWMap::iterator::operator=(UWMap::iterator const &)
FUNC 19d98 a 0 __FrameHandler3::HandlerMap::iterator::operator==(__FrameHandler3::HandlerMap::iterator const &)
FUNC 19da4 a 0 __FrameHandler4::HandlerMap::iterator::operator==(__FrameHandler4::HandlerMap::iterator const &)
FUNC 19db0 1b 0 type_info::operator==(type_info const &)
FUNC 19dd4 a 0 __FrameHandler3::HandlerMap::iterator::operator!=(__FrameHandler3::HandlerMap::iterator const &)
FUNC 19de0 a 0 __FrameHandler4::HandlerMap::iterator::operator!=(__FrameHandler4::HandlerMap::iterator const &)
FUNC 19dec 13 0 __FrameHandler3::HandlerMap::iterator::operator*()
FUNC 19e04 8 0 __FrameHandler4::HandlerMap::iterator::operator*()
FUNC 19e10 1e 0 __FrameHandler3::TryBlockMap::iterator::operator*()
FUNC 19e38 3c 0 UWMap::iterator::operator*()
FUNC 19e84 7 0 __FrameHandler3::HandlerMap::iterator::operator++()
FUNC 19e8c 1d 0 __FrameHandler4::HandlerMap::iterator::operator++()
FUNC 19eb0 7 0 __FrameHandler3::TryBlockMap::iterator::operator++()
FUNC 19eb8 4d 0 UWMap::iterator::operator++()
FUNC 19f18 9 0 UWMap::iterator::operator-(UWMap::iterator const &)
FUNC 19f24 a 0 __FrameHandler3::TryBlockMap::iterator::operator<(__FrameHandler3::TryBlockMap::iterator const &)
FUNC 19f30 a 0 __FrameHandler4::TryBlockMap::iterator::operator<(__FrameHandler4::TryBlockMap::iterator const &)
FUNC 19f3c c 0 UWMap::iterator::operator>(UWMap::iterator const &)
FUNC 19f4c c 0 UWMap::iterator::operator>=(UWMap::iterator const &)
FUNC 19f5c 42 0 std::bad_exception::`scalar deleting destructor'(unsigned int)
FUNC 19fb0 42 0 std::exception::`scalar deleting destructor'(unsigned int)
FUNC 1a004 5 0 __FrameHandler3::BuildCatchObject(EHExceptionRecord *,void *,_s_HandlerType const *,_s_CatchableType const *)
FUNC 1a00c 5 0 __FrameHandler4::BuildCatchObject(EHExceptionRecord *,void *,HandlerType4 *,_s_CatchableType const *)
FUNC 1a014 5 0 __FrameHandler3::BuildCatchObjectHelper(EHExceptionRecord *,void *,_s_HandlerType const *,_s_CatchableType const *)
FUNC 1a01c 5 0 __FrameHandler4::BuildCatchObjectHelper(EHExceptionRecord *,void *,HandlerType4 *,_s_CatchableType const *)
FUNC 1a024 1ea 0 __FrameHandler3::CxxCallCatchBlock(_EXCEPTION_RECORD *)
FUNC 1a288 240 0 __FrameHandler4::CxxCallCatchBlock(_EXCEPTION_RECORD *)
FUNC 1a558 147 0 __FrameHandler4::HandlerMap::DecompHandler()
FUNC 1a6f0 87 0 ExFilterRethrow
FUNC 1a798 193 0 __FrameHandler3::FrameUnwindToState(unsigned __int64 *,_xDISPATCHER_CONTEXT *,_s_FuncInfo const *,int)
FUNC 1a990 2d9 0 __FrameHandler4::FrameUnwindToState(unsigned __int64 *,_xDISPATCHER_CONTEXT *,FuncInfo4 *,int)
FUNC 1ad20 96 0 __FrameHandler3::GetHandlerSearchState(unsigned __int64 *,_xDISPATCHER_CONTEXT *,_s_FuncInfo const *)
FUNC 1addc 37 0 __FrameHandler4::GetHandlerSearchState(unsigned __int64 *,_xDISPATCHER_CONTEXT *,FuncInfo4 *)
FUNC 1ae20 4 0 __FrameHandler3::GetMaxState(_xDISPATCHER_CONTEXT *,_s_FuncInfo const *)
FUNC 1ae24 38 0 __FrameHandler4::GetMaxState(_xDISPATCHER_CONTEXT *,FuncInfo4 *)
FUNC 1ae6c d6 0 IsInExceptionSpec
FUNC 1af78 91 0 Is_bad_exception_allowed
FUNC 1b030 99 0 UWMap::ReadEntry()
FUNC 1b0f0 5 0 __FrameHandler3::TypeMatch(_s_HandlerType const *,_s_CatchableType const *,_s_ThrowInfo const *)
FUNC 1b0f8 5 0 __FrameHandler4::TypeMatch(HandlerType4 *,_s_CatchableType const *,_s_ThrowInfo const *)
FUNC 1b100 2e 0 UWMap::WalkBack()
FUNC 1b13c 9 0 _CallMemberFunction1(void * const,void * const,void * const)
FUNC 1b148 f 0 _CallMemberFunction2(void * const,void * const,void * const,int)
FUNC 1b15c 7 0 _ValidateExecute(__int64 (*)(void))
FUNC 1b164 7 0 _ValidateRead(void const *,unsigned int)
FUNC 1b16c 7 0 _ValidateWrite(void *,unsigned int)
FUNC 1b174 14 0 __RethrowException
FUNC 1b190 b 0 __FrameHandler3::HandlerMap::begin()
FUNC 1b1a0 b 0 __FrameHandler4::HandlerMap::begin()
FUNC 1b1b0 f 0 UWMap::begin()
FUNC 1b1c4 c 0 __FrameHandler3::HandlerMap::end()
FUNC 1b1d4 c 0 __FrameHandler4::HandlerMap::end()
FUNC 1b1e4 28 0 __FrameHandler3::getESTypes(_s_FuncInfo const *)
FUNC 1b218 3 0 __FrameHandler4::getESTypes(FuncInfo4 *)
FUNC 1b21c 13 0 __FrameHandler3::HandlerMap::getLastEntry()
FUNC 1b234 4e 0 __FrameHandler4::HandlerMap::getLastEntry()
FUNC 1b298 8 0 __FrameHandler3::getMagicNum(_s_FuncInfo const *)
FUNC 1b2a4 6 0 __FrameHandler4::getMagicNum(FuncInfo4 *)
FUNC 1b2ac 7 0 __FrameHandler3::TryBlockMap::getNumTryBlocks()
FUNC 1b2b4 3 0 __FrameHandler4::TryBlockMap::getNumTryBlocks()
FUNC 1b2b8 12 0 UWMap::getOffsetIter(__int64)
FUNC 1b2d0 a1 0 UWMap::getStartStop(int,int,UWMap::iterator &,UWMap::iterator &)
FUNC 1b39c 86 0 UWMap::getStateIter(int)
FUNC 1b444 6 0 __FrameHandler3::isEHs(_s_FuncInfo const *)
FUNC 1b44c 8 0 __FrameHandler4::isEHs(FuncInfo4 *)
FUNC 1b458 9 0 __FrameHandler3::isNoExcept(_s_FuncInfo const *)
FUNC 1b464 8 0 __FrameHandler4::isNoExcept(FuncInfo4 *)
FUNC 1b470 11 0 HandlerType4::reset()
FUNC 1b488 d 0 __FrameHandler4::HandlerMap::resetBuffer()
FUNC 1b498 39 0 __FrameHandler4::HandlerMap::setBuffer(unsigned int)
FUNC 1b4e0 12 0 std::exception::what()
FUNC 1b4f8 5 0 _BuildCatchObject
FUNC 1b500 5 0 _BuildCatchObjectHelper
FUNC 1b508 5 0 _TypeMatch
FUNC 1b510 7 0 _vcrt_EncodePointer
FUNC 1b530 40 0 CallSettingFrame
FUNC 1b580 47 0 CallSettingFrameEncoded
FUNC 1b5f0 8 0 __crt_public_free_policy::operator()<char>(char const * const)
FUNC 1b5fc 7 0 __crt_unique_heap_ptr<char,__crt_public_free_policy>::__crt_unique_heap_ptr<char,__crt_public_free_policy>(char * const)
FUNC 1b604 1b 0 __crt_unique_heap_ptr<char,__crt_public_free_policy>::~__crt_unique_heap_ptr<char,__crt_public_free_policy>()
FUNC 1b628 8 0 __crt_unique_heap_ptr<char,__crt_public_free_policy>::operator bool()
FUNC 1b634 8 0 __crt_unique_heap_ptr<char,__crt_public_free_policy>::detach()
FUNC 1b640 4 0 __crt_unique_heap_ptr<char,__crt_public_free_policy>::get()
FUNC 1b644 8 0 __crt_unique_heap_ptr<char,__crt_public_free_policy>::is_valid()
FUNC 1b650 1b 0 __crt_unique_heap_ptr<char,__crt_public_free_policy>::release()
FUNC 1b674 8d 0 _std_exception_copy
FUNC 1b724 25 0 _std_exception_destroy
FUNC 1b754 bf 0 CxxThrowException
FUNC 1b844 16 0 __crt_fast_decode_pointer<void (__cdecl*)(wchar_t const *,wchar_t const *,wchar_t const *,unsigned int,unsigned __int64)>
FUNC 1b860 1e 0 __crt_fast_encode_pointer<void (__cdecl*)(wchar_t const *,wchar_t const *,wchar_t const *,unsigned int,unsigned __int64)>
FUNC 1b888 7 0 __crt_state_management::dual_state_global<void (__cdecl*)(wchar_t const *,wchar_t const *,wchar_t const *,unsigned int,unsigned __int64)>::initialize_from_array<void (__cdecl*[1])(wchar_t const *,wchar_t const *,wchar_t const *,unsigned int,unsigned __int64)>
FUNC 1b890 6d 0 capture_current_context
FUNC 1b918 4 0 __crt_state_management::dual_state_global<void (__cdecl*)(wchar_t const *,wchar_t const *,wchar_t const *,unsigned int,unsigned __int64)>::dangerous_get_state_array
FUNC 1b91c 3 0 __crt_state_management::get_current_state_index()
FUNC 1b920 4 0 __crt_state_management::dual_state_global<void (__cdecl*)(wchar_t const *,wchar_t const *,wchar_t const *,unsigned int,unsigned __int64)>::value
FUNC 1b924 15b 0 _acrt_call_reportfault
FUNC 1bad8 8 0 _acrt_initialize_invalid_parameter_handler
FUNC 1bae4 17 0 get_invalid_parameter_handler
FUNC 1bb00 1a 0 get_thread_local_invalid_parameter_handler
FUNC 1bb20 ae 0 invalid_parameter
FUNC 1bbfc 1e 0 invalid_parameter_noinfo
FUNC 1bc24 2f 0 invalid_parameter_noinfo_noreturn
FUNC 1bc60 47 0 invoke_watson
FUNC 1bcb8 34 0 set_invalid_parameter_handler
FUNC 1bcfc 25 0 set_thread_local_invalid_parameter_handler
FUNC 1bd2c 64 0 initterm
FUNC 1bdac 3d 0 initterm_e
FUNC 1bdf8 11 0 free
FUNC 1be10 1d 0 xcptlookup
FUNC 1be34 13 0 seh_filter_dll
FUNC 1be4c 182 0 seh_filter_exe
FUNC 1c030 8 0 __crt_fast_encoded_nullptr_t::operator<void __cdecl(void *,unsigned long,void *)> void (__cdecl*)(void *,unsigned long,void *)
FUNC 1c03c 38 0 __crt_seh_guarded_call<void>::operator()<<lambda_d80eeec6fff315bfe5c115232f3240e3>,<lambda_6e4b09c48022b2350581041d5f6b0c4c> &,<lambda_2358e3775559c9db80273638284d5e45> >
FUNC 1c084 26 0 __acrt_lock_and_call<<lambda_6e4b09c48022b2350581041d5f6b0c4c> >
FUNC 1c0b4 16 0 __crt_fast_decode_pointer<void (__cdecl*)(void *,unsigned long,void *)>
FUNC 1c0d0 1e 0 __crt_fast_encode_pointer<void (__cdecl*)(void *,unsigned long,void *)>
FUNC 1c0f8 7 0 __crt_get_proc_address<void (*)(unsigned int)>(HINSTANCE__ * const,char const * const)
FUNC 1c100 3 0 __crt_interlocked_read<long>(long const volatile *)
FUNC 1c104 8 0 <lambda_2358e3775559c9db80273638284d5e45>::<lambda_2358e3775559c9db80273638284d5e45>
FUNC 1c110 f 0 <lambda_6e4b09c48022b2350581041d5f6b0c4c>::<lambda_6e4b09c48022b2350581041d5f6b0c4c>
FUNC 1c124 8 0 <lambda_d80eeec6fff315bfe5c115232f3240e3>::<lambda_d80eeec6fff315bfe5c115232f3240e3>
FUNC 1c130 7 0 __crt_unique_handle_t<__crt_hmodule_traits>::__crt_unique_handle_t<__crt_hmodule_traits>(HINSTANCE__ * const)
FUNC 1c138 21 0 __crt_unique_handle_t<__crt_hmodule_traits>::~__crt_unique_handle_t<__crt_hmodule_traits>()
FUNC 1c164 7 0 <lambda_2358e3775559c9db80273638284d5e45>::operator()
FUNC 1c16c c1 0 <lambda_6e4b09c48022b2350581041d5f6b0c4c>::operator()
FUNC 1c260 7 0 <lambda_d80eeec6fff315bfe5c115232f3240e3>::operator()
FUNC 1c268 6 0 __acrt_select_exit_lock()
FUNC 1c270 3 0 __crt_interlocked_read_32(int const volatile *)
FUNC 1c274 c 0 atexit_exception_filter
FUNC 1c284 21 0 __crt_unique_handle_t<__crt_hmodule_traits>::close()
FUNC 1c2b0 14 0 __crt_hmodule_traits::close(HINSTANCE__ *)
FUNC 1c2cc bc 0 common_exit
FUNC 1c3b8 4a 0 exit_or_terminate_process
FUNC 1c414 4 0 __crt_unique_handle_t<__crt_hmodule_traits>::get()
FUNC 1c418 4 0 __crt_unique_handle_t<__crt_hmodule_traits>::get_address_of()
FUNC 1c41c 3 0 __crt_hmodule_traits::get_invalid_value()
FUNC 1c420 52 0 is_managed_app
FUNC 1c488 30 0 should_call_terminate_process
FUNC 1c4c4 5b 0 try_cor_exit_process
FUNC 1c538 c 0 Exit
FUNC 1c548 8 0 _acrt_initialize_thread_local_exit_callback
FUNC 1c554 10 0 c_exit
FUNC 1c568 d 0 cexit
FUNC 1c578 c 0 exit
FUNC 1c588 7 0 is_c_termination_complete
FUNC 1c590 3c 0 register_thread_local_exe_atexit_callback
FUNC 1c5dc a 0 exit
FUNC 1c5e8 c 0 quick_exit
FUNC 1c5f8 8 0 __crt_internal_free_policy::operator()<unsigned char>(unsigned char const * const)
FUNC 1c604 8 0 __crt_internal_free_policy::operator()<char *>
FUNC 1c610 8 0 __crt_internal_free_policy::operator()<wchar_t *>
FUNC 1c61c 175 0 common_configure_argv<char>
FUNC 1c7f0 171 0 common_configure_argv<wchar_t>
FUNC 1c9c0 b 0 __crt_char_traits<char>::get_module_file_name<std::nullptr_t,char (&)[261],int>
FUNC 1c9d0 d 0 __crt_char_traits<wchar_t>::get_module_file_name<std::nullptr_t,wchar_t (&)[261],int>
FUNC 1c9e0 1c3 0 parse_command_line<char>
FUNC 1cc14 1a2 0 parse_command_line<wchar_t>
FUNC 1ce20 b 0 __crt_char_traits<char>::set_program_name<char *>
FUNC 1ce30 b 0 __crt_char_traits<wchar_t>::set_program_name<wchar_t *>
FUNC 1ce40 7 0 <lambda_a36aafc41185bea294aaaa3896c79ecc>::<lambda_a36aafc41185bea294aaaa3896c79ecc>
FUNC 1ce48 7 0 <lambda_df1553121bfa390f1154bd84936f2730>::<lambda_df1553121bfa390f1154bd84936f2730>
FUNC 1ce50 7 0 __crt_unique_heap_ptr<unsigned char,__crt_internal_free_policy>::__crt_unique_heap_ptr<unsigned char,__crt_internal_free_policy>(unsigned char * const)
FUNC 1ce58 7 0 __crt_unique_heap_ptr<char *,__crt_internal_free_policy>::__crt_unique_heap_ptr<char *,__crt_internal_free_policy>
FUNC 1ce60 7 0 __crt_unique_heap_ptr<wchar_t *,__crt_internal_free_policy>::__crt_unique_heap_ptr<wchar_t *,__crt_internal_free_policy>
FUNC 1ce68 1b 0 __crt_unique_heap_ptr<unsigned char,__crt_internal_free_policy>::~__crt_unique_heap_ptr<unsigned char,__crt_internal_free_policy>()
FUNC 1ce8c 1b 0 __crt_unique_heap_ptr<char *,__crt_internal_free_policy>::~__crt_unique_heap_ptr<char *,__crt_internal_free_policy>
FUNC 1ceb0 1b 0 __crt_unique_heap_ptr<wchar_t *,__crt_internal_free_policy>::~__crt_unique_heap_ptr<wchar_t *,__crt_internal_free_policy>
FUNC 1ced4 8 0 __crt_unique_heap_ptr<unsigned char,__crt_internal_free_policy>::operator bool()
FUNC 1cee0 1b 0 <lambda_a36aafc41185bea294aaaa3896c79ecc>::operator()
FUNC 1cf04 1b 0 <lambda_df1553121bfa390f1154bd84936f2730>::operator()
FUNC 1cf28 8 0 __crt_unique_heap_ptr<unsigned char,__crt_internal_free_policy>::detach()
FUNC 1cf34 8 0 __crt_unique_heap_ptr<char *,__crt_internal_free_policy>::detach
FUNC 1cf40 8 0 __crt_unique_heap_ptr<wchar_t *,__crt_internal_free_policy>::detach
FUNC 1cf4c 5 0 do_locale_initialization
FUNC 1cf54 3 0 do_locale_initialization
FUNC 1cf58 5 0 expand_argv_wildcards
FUNC 1cf60 5 0 expand_argv_wildcards
FUNC 1cf68 4 0 __crt_unique_heap_ptr<unsigned char,__crt_internal_free_policy>::get()
FUNC 1cf6c 4 0 __crt_unique_heap_ptr<char *,__crt_internal_free_policy>::get
FUNC 1cf70 4 0 __crt_unique_heap_ptr<wchar_t *,__crt_internal_free_policy>::get
FUNC 1cf74 4 0 __crt_unique_heap_ptr<char *,__crt_internal_free_policy>::get_address_of
FUNC 1cf78 4 0 __crt_unique_heap_ptr<wchar_t *,__crt_internal_free_policy>::get_address_of
FUNC 1cf7c 8 0 get_argv
FUNC 1cf88 8 0 get_argv
FUNC 1cf94 8 0 get_command_line
FUNC 1cfa0 8 0 get_command_line
FUNC 1cfac 8 0 __crt_unique_heap_ptr<unsigned char,__crt_internal_free_policy>::is_valid()
FUNC 1cfb8 1b 0 __crt_unique_heap_ptr<unsigned char,__crt_internal_free_policy>::release()
FUNC 1cfdc 1b 0 __crt_unique_heap_ptr<char *,__crt_internal_free_policy>::release
FUNC 1d000 1b 0 __crt_unique_heap_ptr<wchar_t *,__crt_internal_free_policy>::release
FUNC 1d024 16 0 should_copy_another_character
FUNC 1d040 3 0 should_copy_another_character
FUNC 1d044 5d 0 _acrt_allocate_buffer_for_argv
FUNC 1d0b8 186 0 configure_narrow_argv
FUNC 1d2a0 182 0 configure_wide_argv
FUNC 1d484 8 0 set_pgmptr
FUNC 1d490 8 0 set_wpgmptr
FUNC 1d49c 8 0 __crt_internal_free_policy::operator()<wchar_t>(wchar_t const * const)
FUNC 1d4a8 4e 0 common_get_initial_environment<char>
FUNC 1d50c 4e 0 common_get_initial_environment<wchar_t>
FUNC 1d570 3b 0 common_get_or_create_environment_nolock<char>
FUNC 1d5bc 3b 0 common_get_or_create_environment_nolock<wchar_t>
FUNC 1d608 6c 0 common_initialize_environment_nolock<char>
FUNC 1d690 67 0 common_initialize_environment_nolock<wchar_t>
FUNC 1d710 32 0 count_variables_in_environment_block<char>
FUNC 1d750 3c 0 count_variables_in_environment_block<wchar_t>
FUNC 1d79c 106 0 create_environment<char>
FUNC 1d8e4 113 0 create_environment<wchar_t>
FUNC 1da3c 41 0 free_environment<char>
FUNC 1da90 41 0 free_environment<wchar_t>
FUNC 1dae4 5 0 __crt_char_traits<char>::get_environment_from_os<>()
FUNC 1daec 5 0 __crt_char_traits<wchar_t>::get_environment_from_os<>()
FUNC 1daf4 d1 0 initialize_environment_by_cloning_nolock<char>
FUNC 1dbfc b1 0 initialize_environment_by_cloning_nolock<wchar_t>
FUNC 1dcdc a 0 __crt_char_traits<char>::set_variable_in_environment_nolock<char *,int>
FUNC 1dce8 a 0 __crt_char_traits<wchar_t>::set_variable_in_environment_nolock<wchar_t *,int>
FUNC 1dcf4 e 0 __crt_char_traits<char>::tcscpy_s<char *,unsigned __int64 const &,char * &>
FUNC 1dd08 e 0 __crt_char_traits<wchar_t>::tcscpy_s<wchar_t *,unsigned __int64 const &,wchar_t * &>
FUNC 1dd1c 11 0 __crt_char_traits<char>::tcslen<char * &>
FUNC 1dd34 12 0 __crt_char_traits<wchar_t>::tcslen<wchar_t * &>
FUNC 1dd4c 43 0 __crt_state_management::dual_state_global<char * *>::uninitialize<void (__cdecl&)(char * * &)>
FUNC 1dda0 43 0 __crt_state_management::dual_state_global<wchar_t * *>::uninitialize<void (__cdecl&)(wchar_t * * &)>
FUNC 1ddf4 1a 0 uninitialize_environment_internal<char>
FUNC 1de14 1a 0 uninitialize_environment_internal<wchar_t>
FUNC 1de34 7 0 __crt_unique_heap_ptr<wchar_t,__crt_internal_free_policy>::__crt_unique_heap_ptr<wchar_t,__crt_internal_free_policy>(wchar_t * const)
FUNC 1de3c 1b 0 __crt_unique_heap_ptr<wchar_t,__crt_internal_free_policy>::~__crt_unique_heap_ptr<wchar_t,__crt_internal_free_policy>()
FUNC 1de60 8 0 __crt_unique_heap_ptr<char *,__crt_internal_free_policy>::operator bool
FUNC 1de6c 8 0 __crt_unique_heap_ptr<wchar_t *,__crt_internal_free_policy>::operator bool
FUNC 1de78 8 0 __crt_unique_heap_ptr<wchar_t,__crt_internal_free_policy>::operator bool()
FUNC 1de84 24 0 __crt_compute_required_transform_buffer_count(unsigned int,char const * const)
FUNC 1deb4 2e 0 __crt_compute_required_transform_buffer_count(unsigned int,wchar_t const * const)
FUNC 1def0 23 0 __crt_transform_string(unsigned int,char const * const,wchar_t * const,unsigned __int64)
FUNC 1df1c 2e 0 __crt_transform_string(unsigned int,wchar_t const * const,char * const,unsigned __int64)
FUNC 1df58 8 0 __crt_unique_heap_ptr<char,__crt_internal_free_policy>::detach()
FUNC 1df64 8 0 __crt_unique_heap_ptr<wchar_t,__crt_internal_free_policy>::detach()
FUNC 1df70 4 0 __crt_unique_heap_ptr<wchar_t,__crt_internal_free_policy>::get()
FUNC 1df74 8 0 get_dual_state_environment_nolock
FUNC 1df80 8 0 get_dual_state_environment_nolock
FUNC 1df8c 8 0 get_environment_nolock
FUNC 1df98 8 0 get_environment_nolock
FUNC 1dfa4 8 0 get_initial_environment
FUNC 1dfb0 8 0 get_initial_environment
FUNC 1dfbc 27 0 __crt_state_management::dual_state_global<char * *>::initialize
FUNC 1dfec 27 0 __crt_state_management::dual_state_global<wchar_t * *>::initialize
FUNC 1e01c 8 0 __crt_unique_heap_ptr<char *,__crt_internal_free_policy>::is_valid
FUNC 1e028 8 0 __crt_unique_heap_ptr<wchar_t *,__crt_internal_free_policy>::is_valid
FUNC 1e034 8 0 __crt_unique_heap_ptr<wchar_t,__crt_internal_free_policy>::is_valid()
FUNC 1e040 5 0 pre_initialize
FUNC 1e048 3 0 pre_initialize
FUNC 1e04c 1b 0 __crt_unique_heap_ptr<wchar_t,__crt_internal_free_policy>::release()
FUNC 1e070 4 0 __crt_state_management::dual_state_global<char * *>::value
FUNC 1e074 4 0 __crt_state_management::dual_state_global<wchar_t * *>::value
FUNC 1e078 3b 0 _dcrt_get_or_create_narrow_environment_nolock
FUNC 1e0c4 3b 0 _dcrt_get_or_create_wide_environment_nolock
FUNC 1e110 38 0 _dcrt_uninitialize_environments_nolock
FUNC 1e158 8 0 _p__environ
FUNC 1e164 8 0 _p__wenviron
FUNC 1e170 4e 0 get_initial_narrow_environment
FUNC 1e1d4 4e 0 get_initial_wide_environment
FUNC 1e238 5 0 initialize_narrow_environment
FUNC 1e240 5 0 initialize_wide_environment
FUNC 1e248 31 0 invoke_watson_if_error
FUNC 1e288 8 0 __crt_fast_encoded_nullptr_t::operator<void (__cdecl*)(void)> void (__cdecl**)(void)
FUNC 1e294 8 0 __crt_internal_free_policy::operator()<void (*)(void)>(void (*const * const)(void))
FUNC 1e2a0 3b 0 __crt_seh_guarded_call<int>::operator()<<lambda_638799b9deba96c50f710eeac98168cd>,<lambda_22ebabd17bc4fa466a2aca6d8deb888d> &,<lambda_a6f7d7db0129f75315ebf26d50c089f1> >
FUNC 1e2ec 3b 0 __crt_seh_guarded_call<int>::operator()<<lambda_7777bce6b2f8c936911f934f8298dc43>,<lambda_f03950bc5685219e0bcd2087efbe011e> &,<lambda_3883c3dff614d5e0c5f61bb1ac94921c> >
FUNC 1e338 26 0 __acrt_lock_and_call<<lambda_22ebabd17bc4fa466a2aca6d8deb888d> >
FUNC 1e368 26 0 __acrt_lock_and_call<<lambda_f03950bc5685219e0bcd2087efbe011e> >
FUNC 1e398 1e 0 __crt_fast_encode_pointer<int (*)(void)>(int (*const)(void))
FUNC 1e3c0 b 0 <lambda_22ebabd17bc4fa466a2aca6d8deb888d>::<lambda_22ebabd17bc4fa466a2aca6d8deb888d>
FUNC 1e3d0 8 0 <lambda_3883c3dff614d5e0c5f61bb1ac94921c>::<lambda_3883c3dff614d5e0c5f61bb1ac94921c>
FUNC 1e3dc 8 0 <lambda_638799b9deba96c50f710eeac98168cd>::<lambda_638799b9deba96c50f710eeac98168cd>
FUNC 1e3e8 8 0 <lambda_7777bce6b2f8c936911f934f8298dc43>::<lambda_7777bce6b2f8c936911f934f8298dc43>
FUNC 1e3f4 8 0 <lambda_a6f7d7db0129f75315ebf26d50c089f1>::<lambda_a6f7d7db0129f75315ebf26d50c089f1>
FUNC 1e400 7 0 <lambda_f03950bc5685219e0bcd2087efbe011e>::<lambda_f03950bc5685219e0bcd2087efbe011e>
FUNC 1e408 7 0 __crt_unique_heap_ptr<void (*)(void),__crt_internal_free_policy>::__crt_unique_heap_ptr<void (*)(void),__crt_internal_free_policy>(void (** const)(void))
FUNC 1e410 1b 0 __crt_unique_heap_ptr<void (*)(void),__crt_internal_free_policy>::~__crt_unique_heap_ptr<void (*)(void),__crt_internal_free_policy>()
FUNC 1e434 3 0 __crt_state_management::scoped_global_state_reset::~scoped_global_state_reset()
FUNC 1e438 1b0 0 <lambda_22ebabd17bc4fa466a2aca6d8deb888d>::operator()
FUNC 1e654 7 0 <lambda_3883c3dff614d5e0c5f61bb1ac94921c>::operator()
FUNC 1e65c 7 0 <lambda_638799b9deba96c50f710eeac98168cd>::operator()
FUNC 1e664 7 0 <lambda_7777bce6b2f8c936911f934f8298dc43>::operator()
FUNC 1e66c 7 0 <lambda_a6f7d7db0129f75315ebf26d50c089f1>::operator()
FUNC 1e674 116 0 <lambda_f03950bc5685219e0bcd2087efbe011e>::operator()
FUNC 1e7d0 8 0 __crt_unique_heap_ptr<void (*)(void),__crt_internal_free_policy>::detach()
FUNC 1e7dc 1b 0 __crt_unique_heap_ptr<void (*)(void),__crt_internal_free_policy>::release()
FUNC 1e800 f 0 crt_at_quick_exit
FUNC 1e814 f 0 crt_atexit
FUNC 1e828 3a 0 execute_onexit_table
FUNC 1e870 27 0 initialize_onexit_table
FUNC 1e8a0 48 0 register_onexit_function
FUNC 1e8fc 11 0 initialize_global_variables
FUNC 1e914 23 0 initialize_c
FUNC 1e940 3 0 uninitialize_c
FUNC 1e944 3 0 initialize_environment
FUNC 1e948 10 0 uninitialize_environment
FUNC 1e95c 3 0 initialize_global_state_isolation
FUNC 1e960 3 0 uninitialize_global_state_isolation
FUNC 1e964 3d 0 initialize_pointers
FUNC 1e9b0 7 0 uninitialize_vcruntime
FUNC 1e9b8 40 0 uninitialize_allocated_memory
FUNC 1ea08 5b 0 uninitialize_allocated_io_buffers
FUNC 1ea7c 3 0 report_memory_leaks
FUNC 1ea80 6f 0 __crt_state_management::dual_state_global<__crt_multibyte_data *>::uninitialize<<lambda_af42a3ee9806e9a7305d451646e05244> >
FUNC 1eb0c 3e 0 <lambda_af42a3ee9806e9a7305d451646e05244>::operator()
FUNC 1eb5c c 0 __acrt_stdio_is_initialized()
FUNC 1eb6c 27 0 __crt_state_management::dual_state_global<__crt_locale_data *>::initialize
FUNC 1eb9c 13 0 _acrt_initialize
FUNC 1ebb4 14 0 _acrt_thread_attach
FUNC 1ebd0 10 0 _acrt_thread_detach
FUNC 1ebe4 35 0 _acrt_uninitialize
FUNC 1ec28 10 0 _acrt_uninitialize_critical
FUNC 1ec3c 12 0 get_terminate_or_default
FUNC 1ec54 22 0 get_terminate
FUNC 1ec80 2c 0 set_terminate
FUNC 1ecb8 20 0 terminate
FUNC 1ece0 5 0 malloc
FUNC 1ece8 62 0 common_tcscpy_s<char>
FUNC 1ed64 5f 0 strcpy_s
FUNC 1eddc 81 0 __crt_stdio_output::format_validation_base<char,__crt_stdio_output::stream_output_adapter<char> >::format_validation_base<char,__crt_stdio_output::stream_output_adapter<char> ><__crt_stdio_output::stream_output_adapter<char> const &,unsigned __int64 const &,char const * const &,__crt_locale_pointers * const &,char * const &>
FUNC 1ee80 9e 0 __crt_stdio_output::positional_parameter_base<char,__crt_stdio_output::stream_output_adapter<char> >::positional_parameter_base<char,__crt_stdio_output::stream_output_adapter<char> ><__crt_stdio_output::stream_output_adapter<char> const &,unsigned __int64 const &,char const * const &,__crt_locale_pointers * const &,char * const &>
FUNC 1ef48 81 0 __crt_stdio_output::standard_base<char,__crt_stdio_output::stream_output_adapter<char> >::standard_base<char,__crt_stdio_output::stream_output_adapter<char> ><__crt_stdio_output::stream_output_adapter<char> const &,unsigned __int64 const &,char const * const &,__crt_locale_pointers * const &,char * const &>
FUNC 1efec 85 0 __crt_stdio_output::format_validation_base<wchar_t,__crt_stdio_output::stream_output_adapter<wchar_t> >::format_validation_base<wchar_t,__crt_stdio_output::stream_output_adapter<wchar_t> ><__crt_stdio_output::stream_output_adapter<wchar_t> const &,unsigned __int64 const &,wchar_t const * const &,__crt_locale_pointers * const &,char * const &>
FUNC 1f094 a2 0 __crt_stdio_output::positional_parameter_base<wchar_t,__crt_stdio_output::stream_output_adapter<wchar_t> >::positional_parameter_base<wchar_t,__crt_stdio_output::stream_output_adapter<wchar_t> ><__crt_stdio_output::stream_output_adapter<wchar_t> const &,unsigned __int64 const &,wchar_t const * const &,__crt_locale_pointers * const &,char * const &>
FUNC 1f160 85 0 __crt_stdio_output::standard_base<wchar_t,__crt_stdio_output::stream_output_adapter<wchar_t> >::standard_base<wchar_t,__crt_stdio_output::stream_output_adapter<wchar_t> ><__crt_stdio_output::stream_output_adapter<wchar_t> const &,unsigned __int64 const &,wchar_t const * const &,__crt_locale_pointers * const &,char * const &>
FUNC 1f208 81 0 __crt_stdio_output::format_validation_base<char,__crt_stdio_output::string_output_adapter<char> >::format_validation_base<char,__crt_stdio_output::string_output_adapter<char> ><__crt_stdio_output::string_output_adapter<char> const &,unsigned __int64 const &,char const * const &,__crt_locale_pointers * const &,char * const &>
FUNC 1f2ac 9e 0 __crt_stdio_output::positional_parameter_base<char,__crt_stdio_output::string_output_adapter<char> >::positional_parameter_base<char,__crt_stdio_output::string_output_adapter<char> ><__crt_stdio_output::string_output_adapter<char> const &,unsigned __int64 const &,char const * const &,__crt_locale_pointers * const &,char * const &>
FUNC 1f374 81 0 __crt_stdio_output::standard_base<char,__crt_stdio_output::string_output_adapter<char> >::standard_base<char,__crt_stdio_output::string_output_adapter<char> ><__crt_stdio_output::string_output_adapter<char> const &,unsigned __int64 const &,char const * const &,__crt_locale_pointers * const &,char * const &>
FUNC 1f418 85 0 __crt_stdio_output::format_validation_base<wchar_t,__crt_stdio_output::string_output_adapter<wchar_t> >::format_validation_base<wchar_t,__crt_stdio_output::string_output_adapter<wchar_t> ><__crt_stdio_output::string_output_adapter<wchar_t> const &,unsigned __int64 const &,wchar_t const * const &,__crt_locale_pointers * const &,char * const &>
FUNC 1f4c0 a2 0 __crt_stdio_output::positional_parameter_base<wchar_t,__crt_stdio_output::string_output_adapter<wchar_t> >::positional_parameter_base<wchar_t,__crt_stdio_output::string_output_adapter<wchar_t> ><__crt_stdio_output::string_output_adapter<wchar_t> const &,unsigned __int64 const &,wchar_t const * const &,__crt_locale_pointers * const &,char * const &>
FUNC 1f58c 85 0 __crt_stdio_output::standard_base<wchar_t,__crt_stdio_output::string_output_adapter<wchar_t> >::standard_base<wchar_t,__crt_stdio_output::string_output_adapter<wchar_t> ><__crt_stdio_output::string_output_adapter<wchar_t> const &,unsigned __int64 const &,wchar_t const * const &,__crt_locale_pointers * const &,char * const &>
FUNC 1f634 3d 0 __crt_seh_guarded_call<int>::operator()<<lambda_63c71d947f2ce890aa4aac7392f1cbed>,<lambda_e3269ba96939e7713c73908c0d757d25> &,<lambda_3776af017df72547960a8ac98bb265e7> >
FUNC 1f680 3d 0 __crt_seh_guarded_call<int>::operator()<<lambda_676bd5779251ec186b530f0a904b4b35>,<lambda_b579ea784fd840951dfbcbdaebf709fd> &,<lambda_10027885da78ada7fb00668d7e2e96b5> >
FUNC 1f6cc 3d 0 __crt_seh_guarded_call<int>::operator()<<lambda_8be82e0ce9ca3860586e20edfb7a650e>,<lambda_673ffc0dc9412a0afcf2088e0e1b9bdc> &,<lambda_c997b1ad71a4c19edf3d1d12a5864641> >
FUNC 1f718 3d 0 __crt_seh_guarded_call<int>::operator()<<lambda_d1b8e9147f7260ae436300a3cb83e6d4>,<lambda_e638437c4db75b75056fab6aaf7e4f15> &,<lambda_8c9f37a989ed2ac074735e5b535e306a> >
FUNC 1f764 3d 0 __crt_seh_guarded_call<int>::operator()<<lambda_e746820a99d01fe878d2dbd7f1018dff>,<lambda_a993425e72f5bd8b40f5859286f153c4> &,<lambda_4dad5d88921143c78c186dc2683775b0> >
FUNC 1f7b0 3d 0 __crt_seh_guarded_call<int>::operator()<<lambda_fe5404e9642edbb7c8ae71e1dcfa4018>,<lambda_36eeb330e99a4f0bf8a7da86d0894cb9> &,<lambda_2fa474834de80dc12f7a3c6eddd7a366> >
FUNC 1f7fc 28 0 __acrt_lock_stream_and_call<<lambda_36eeb330e99a4f0bf8a7da86d0894cb9> >
FUNC 1f830 28 0 __acrt_lock_stream_and_call<<lambda_673ffc0dc9412a0afcf2088e0e1b9bdc> >
FUNC 1f864 28 0 __acrt_lock_stream_and_call<<lambda_a993425e72f5bd8b40f5859286f153c4> >
FUNC 1f898 28 0 __acrt_lock_stream_and_call<<lambda_b579ea784fd840951dfbcbdaebf709fd> >
FUNC 1f8cc 28 0 __acrt_lock_stream_and_call<<lambda_e3269ba96939e7713c73908c0d757d25> >
FUNC 1f900 28 0 __acrt_lock_stream_and_call<<lambda_e638437c4db75b75056fab6aaf7e4f15> >
FUNC 1f934 85 0 common_vfprintf<__crt_stdio_output::format_validation_base,char>
FUNC 1f9dc 85 0 common_vfprintf<__crt_stdio_output::format_validation_base,wchar_t>
FUNC 1fa84 85 0 common_vfprintf<__crt_stdio_output::positional_parameter_base,char>
FUNC 1fb2c 85 0 common_vfprintf<__crt_stdio_output::positional_parameter_base,wchar_t>
FUNC 1fbd4 85 0 common_vfprintf<__crt_stdio_output::standard_base,char>
FUNC 1fc7c 85 0 common_vfprintf<__crt_stdio_output::standard_base,wchar_t>
FUNC 1fd24 114 0 common_vsnprintf_s<char>
FUNC 1fe80 117 0 common_vsnprintf_s<wchar_t>
FUNC 1ffdc 1cb 0 common_vsprintf<__crt_stdio_output::format_validation_base,char>
FUNC 2021c 1d2 0 common_vsprintf<__crt_stdio_output::format_validation_base,wchar_t>
FUNC 20464 1e7 0 common_vsprintf<__crt_stdio_output::positional_parameter_base,char>
FUNC 206c4 1ee 0 common_vsprintf<__crt_stdio_output::positional_parameter_base,wchar_t>
FUNC 20930 1cb 0 common_vsprintf<__crt_stdio_output::standard_base,char>
FUNC 20b70 1d2 0 common_vsprintf<__crt_stdio_output::standard_base,wchar_t>
FUNC 20db8 63 0 common_vsprintf_s<char>
FUNC 20e34 6e 0 common_vsprintf_s<wchar_t>
FUNC 20ec0 1b 0 __crt_stdio_output::formatting_buffer::count<char>()
FUNC 20ee4 1c 0 __crt_stdio_output::formatting_buffer::count<wchar_t>()
FUNC 20f08 f 0 __crt_stdio_output::formatting_buffer::data<char>()
FUNC 20f1c f 0 __crt_stdio_output::formatting_buffer::data<wchar_t>()
FUNC 20f30 a6 0 __crt_stdio_output::formatting_buffer::ensure_buffer_is_big_enough<char>(unsigned __int64)
FUNC 21000 a9 0 __crt_stdio_output::formatting_buffer::ensure_buffer_is_big_enough<wchar_t>(unsigned __int64)
FUNC 210d4 bc 0 __crt_stdio_output::positional_parameter_base<char,__crt_stdio_output::stream_output_adapter<char> >::extract_argument_from_va_list<signed char,__int64>(__int64 &)
FUNC 211c0 bc 0 __crt_stdio_output::positional_parameter_base<char,__crt_stdio_output::string_output_adapter<char> >::extract_argument_from_va_list<signed char,__int64>(__int64 &)
FUNC 212ac be 0 __crt_stdio_output::positional_parameter_base<wchar_t,__crt_stdio_output::stream_output_adapter<wchar_t> >::extract_argument_from_va_list<signed char,__int64>(__int64 &)
FUNC 2139c be 0 __crt_stdio_output::positional_parameter_base<wchar_t,__crt_stdio_output::string_output_adapter<wchar_t> >::extract_argument_from_va_list<signed char,__int64>(__int64 &)
FUNC 2148c 14 0 __crt_stdio_output::standard_base<char,__crt_stdio_output::stream_output_adapter<char> >::extract_argument_from_va_list<signed char,__int64>(__int64 &)
FUNC 214a8 14 0 __crt_stdio_output::standard_base<char,__crt_stdio_output::string_output_adapter<char> >::extract_argument_from_va_list<signed char,__int64>(__int64 &)
FUNC 214c4 14 0 __crt_stdio_output::standard_base<wchar_t,__crt_stdio_output::stream_output_adapter<wchar_t> >::extract_argument_from_va_list<signed char,__int64>(__int64 &)
FUNC 214e0 14 0 __crt_stdio_output::standard_base<wchar_t,__crt_stdio_output::string_output_adapter<wchar_t> >::extract_argument_from_va_list<signed char,__int64>(__int64 &)
FUNC 214fc bb 0 __crt_stdio_output::positional_parameter_base<char,__crt_stdio_output::stream_output_adapter<char> >::extract_argument_from_va_list<unsigned char,__int64>(__int64 &)
FUNC 215e8 bb 0 __crt_stdio_output::positional_parameter_base<char,__crt_stdio_output::string_output_adapter<char> >::extract_argument_from_va_list<unsigned char,__int64>(__int64 &)
FUNC 216d4 bd 0 __crt_stdio_output::positional_parameter_base<wchar_t,__crt_stdio_output::stream_output_adapter<wchar_t> >::extract_argument_from_va_list<unsigned char,__int64>(__int64 &)
FUNC 217c0 bd 0 __crt_stdio_output::positional_parameter_base<wchar_t,__crt_stdio_output::string_output_adapter<wchar_t> >::extract_argument_from_va_list<unsigned char,__int64>(__int64 &)
FUNC 218ac 13 0 __crt_stdio_output::standard_base<char,__crt_stdio_output::stream_output_adapter<char> >::extract_argument_from_va_list<unsigned char,__int64>(__int64 &)
FUNC 218c4 13 0 __crt_stdio_output::standard_base<char,__crt_stdio_output::string_output_adapter<char> >::extract_argument_from_va_list<unsigned char,__int64>(__int64 &)
FUNC 218dc 13 0 __crt_stdio_output::standard_base<wchar_t,__crt_stdio_output::stream_output_adapter<wchar_t> >::extract_argument_from_va_list<unsigned char,__int64>(__int64 &)
FUNC 218f4 13 0 __crt_stdio_output::standard_base<wchar_t,__crt_stdio_output::string_output_adapter<wchar_t> >::extract_argument_from_va_list<unsigned char,__int64>(__int64 &)
FUNC 2190c bc 0 __crt_stdio_output::positional_parameter_base<char,__crt_stdio_output::stream_output_adapter<char> >::extract_argument_from_va_list<short,__int64>(__int64 &)
FUNC 219f8 bc 0 __crt_stdio_output::positional_parameter_base<char,__crt_stdio_output::string_output_adapter<char> >::extract_argument_from_va_list<short,__int64>(__int64 &)
FUNC 21ae4 be 0 __crt_stdio_output::positional_parameter_base<wchar_t,__crt_stdio_output::stream_output_adapter<wchar_t> >::extract_argument_from_va_list<short,__int64>(__int64 &)
FUNC 21bd4 be 0 __crt_stdio_output::positional_parameter_base<wchar_t,__crt_stdio_output::string_output_adapter<wchar_t> >::extract_argument_from_va_list<short,__int64>(__int64 &)
FUNC 21cc4 14 0 __crt_stdio_output::standard_base<char,__crt_stdio_output::stream_output_adapter<char> >::extract_argument_from_va_list<short,__int64>(__int64 &)
FUNC 21ce0 14 0 __crt_stdio_output::standard_base<char,__crt_stdio_output::string_output_adapter<char> >::extract_argument_from_va_list<short,__int64>(__int64 &)
FUNC 21cfc 14 0 __crt_stdio_output::standard_base<wchar_t,__crt_stdio_output::stream_output_adapter<wchar_t> >::extract_argument_from_va_list<short,__int64>(__int64 &)
FUNC 21d18 14 0 __crt_stdio_output::standard_base<wchar_t,__crt_stdio_output::string_output_adapter<wchar_t> >::extract_argument_from_va_list<short,__int64>(__int64 &)
FUNC 21d34 b8 0 __crt_stdio_output::positional_parameter_base<char,__crt_stdio_output::stream_output_adapter<char> >::extract_argument_from_va_list<unsigned short,char>(char &)
FUNC 21e1c b8 0 __crt_stdio_output::positional_parameter_base<char,__crt_stdio_output::string_output_adapter<char> >::extract_argument_from_va_list<unsigned short,char>(char &)
FUNC 21f04 11 0 __crt_stdio_output::standard_base<char,__crt_stdio_output::stream_output_adapter<char> >::extract_argument_from_va_list<unsigned short,char>(char &)
FUNC 21f1c 11 0 __crt_stdio_output::standard_base<char,__crt_stdio_output::string_output_adapter<char> >::extract_argument_from_va_list<unsigned short,char>(char &)
FUNC 21f34 bb 0 __crt_stdio_output::positional_parameter_base<char,__crt_stdio_output::stream_output_adapter<char> >::extract_argument_from_va_list<unsigned short,__int64>(__int64 &)
FUNC 22020 bb 0 __crt_stdio_output::positional_parameter_base<char,__crt_stdio_output::string_output_adapter<char> >::extract_argument_from_va_list<unsigned short,__int64>(__int64 &)
FUNC 2210c bd 0 __crt_stdio_output::positional_parameter_base<wchar_t,__crt_stdio_output::stream_output_adapter<wchar_t> >::extract_argument_from_va_list<unsigned short,__int64>(__int64 &)
FUNC 221f8 bd 0 __crt_stdio_output::positional_parameter_base<wchar_t,__crt_stdio_output::string_output_adapter<wchar_t> >::extract_argument_from_va_list<unsigned short,__int64>(__int64 &)
FUNC 222e4 13 0 __crt_stdio_output::standard_base<char,__crt_stdio_output::stream_output_adapter<char> >::extract_argument_from_va_list<unsigned short,__int64>(__int64 &)
FUNC 222fc 13 0 __crt_stdio_output::standard_base<char,__crt_stdio_output::string_output_adapter<char> >::extract_argument_from_va_list<unsigned short,__int64>(__int64 &)
FUNC 22314 13 0 __crt_stdio_output::standard_base<wchar_t,__crt_stdio_output::stream_output_adapter<wchar_t> >::extract_argument_from_va_list<unsigned short,__int64>(__int64 &)
FUNC 2232c 13 0 __crt_stdio_output::standard_base<wchar_t,__crt_stdio_output::string_output_adapter<wchar_t> >::extract_argument_from_va_list<unsigned short,__int64>(__int64 &)
FUNC 22344 ba 0 __crt_stdio_output::positional_parameter_base<char,__crt_stdio_output::stream_output_adapter<char> >::extract_argument_from_va_list<int,__int64>(__int64 &)
FUNC 2242c ba 0 __crt_stdio_output::positional_parameter_base<char,__crt_stdio_output::string_output_adapter<char> >::extract_argument_from_va_list<int,__int64>(__int64 &)
FUNC 22514 bc 0 __crt_stdio_output::positional_parameter_base<wchar_t,__crt_stdio_output::stream_output_adapter<wchar_t> >::extract_argument_from_va_list<int,__int64>(__int64 &)
FUNC 22600 bc 0 __crt_stdio_output::positional_parameter_base<wchar_t,__crt_stdio_output::string_output_adapter<wchar_t> >::extract_argument_from_va_list<int,__int64>(__int64 &)
FUNC 226ec 13 0 __crt_stdio_output::standard_base<char,__crt_stdio_output::stream_output_adapter<char> >::extract_argument_from_va_list<int,__int64>(__int64 &)
FUNC 22704 13 0 __crt_stdio_output::standard_base<char,__crt_stdio_output::string_output_adapter<char> >::extract_argument_from_va_list<int,__int64>(__int64 &)
FUNC 2271c 13 0 __crt_stdio_output::standard_base<wchar_t,__crt_stdio_output::stream_output_adapter<wchar_t> >::extract_argument_from_va_list<int,__int64>(__int64 &)
FUNC 22734 13 0 __crt_stdio_output::standard_base<wchar_t,__crt_stdio_output::string_output_adapter<wchar_t> >::extract_argument_from_va_list<int,__int64>(__int64 &)
FUNC 2274c b9 0 __crt_stdio_output::positional_parameter_base<char,__crt_stdio_output::stream_output_adapter<char> >::extract_argument_from_va_list<unsigned int,__int64>(__int64 &)
FUNC 22834 b9 0 __crt_stdio_output::positional_parameter_base<char,__crt_stdio_output::string_output_adapter<char> >::extract_argument_from_va_list<unsigned int,__int64>(__int64 &)
FUNC 2291c bb 0 __crt_stdio_output::positional_parameter_base<wchar_t,__crt_stdio_output::stream_output_adapter<wchar_t> >::extract_argument_from_va_list<unsigned int,__int64>(__int64 &)
FUNC 22a08 bb 0 __crt_stdio_output::positional_parameter_base<wchar_t,__crt_stdio_output::string_output_adapter<wchar_t> >::extract_argument_from_va_list<unsigned int,__int64>(__int64 &)
FUNC 22af4 12 0 __crt_stdio_output::standard_base<char,__crt_stdio_output::stream_output_adapter<char> >::extract_argument_from_va_list<unsigned int,__int64>(__int64 &)
FUNC 22b0c 12 0 __crt_stdio_output::standard_base<char,__crt_stdio_output::string_output_adapter<char> >::extract_argument_from_va_list<unsigned int,__int64>(__int64 &)
FUNC 22b24 12 0 __crt_stdio_output::standard_base<wchar_t,__crt_stdio_output::stream_output_adapter<wchar_t> >::extract_argument_from_va_list<unsigned int,__int64>(__int64 &)
FUNC 22b3c 12 0 __crt_stdio_output::standard_base<wchar_t,__crt_stdio_output::string_output_adapter<wchar_t> >::extract_argument_from_va_list<unsigned int,__int64>(__int64 &)
FUNC 22b54 ba 0 __crt_stdio_output::positional_parameter_base<char,__crt_stdio_output::stream_output_adapter<char> >::extract_argument_from_va_list<char *,char *>
FUNC 22c3c ba 0 __crt_stdio_output::positional_parameter_base<char,__crt_stdio_output::string_output_adapter<char> >::extract_argument_from_va_list<char *,char *>
FUNC 22d24 bc 0 __crt_stdio_output::positional_parameter_base<wchar_t,__crt_stdio_output::stream_output_adapter<wchar_t> >::extract_argument_from_va_list<char *,char *>
FUNC 22e10 bc 0 __crt_stdio_output::positional_parameter_base<wchar_t,__crt_stdio_output::string_output_adapter<wchar_t> >::extract_argument_from_va_list<char *,char *>
FUNC 22efc 13 0 __crt_stdio_output::standard_base<char,__crt_stdio_output::stream_output_adapter<char> >::extract_argument_from_va_list<char *,char *>
FUNC 22f14 13 0 __crt_stdio_output::standard_base<char,__crt_stdio_output::string_output_adapter<char> >::extract_argument_from_va_list<char *,char *>
FUNC 22f2c 13 0 __crt_stdio_output::standard_base<wchar_t,__crt_stdio_output::stream_output_adapter<wchar_t> >::extract_argument_from_va_list<char *,char *>
FUNC 22f44 13 0 __crt_stdio_output::standard_base<wchar_t,__crt_stdio_output::string_output_adapter<wchar_t> >::extract_argument_from_va_list<char *,char *>
FUNC 22f5c 13 0 __crt_stdio_output::standard_base<char,__crt_stdio_output::stream_output_adapter<char> >::extract_argument_from_va_list<`__crt_stdio_output::output_processor<char,__crt_stdio_output::stream_output_adapter<char>,__crt_stdio_output::format_validation_base<char,__crt_stdio_output::stream_output_adapter<char> > >::type_case_Z'::`2'::ansi_string *,`__crt_stdio_output::output_processor<char,__crt_stdio_output::stream_output_adapter<char>,__crt_stdio_output::format_validation_base<char,__crt_stdio_output::stream_output_adapter<char> > >::type_case_Z'::`2'::ansi_string *>
FUNC 22f74 ba 0 __crt_stdio_output::positional_parameter_base<char,__crt_stdio_output::stream_output_adapter<char> >::extract_argument_from_va_list<`__crt_stdio_output::output_processor<char,__crt_stdio_output::stream_output_adapter<char>,__crt_stdio_output::positional_parameter_base<char,__crt_stdio_output::stream_output_adapter<char> > >::type_case_Z'::`2'::ansi_string *,`__crt_stdio_output::output_processor<char,__crt_stdio_output::stream_output_adapter<char>,__crt_stdio_output::positional_parameter_base<char,__crt_stdio_output::stream_output_adapter<char> > >::type_case_Z'::`2'::ansi_string *>
FUNC 2305c 13 0 __crt_stdio_output::standard_base<char,__crt_stdio_output::stream_output_adapter<char> >::extract_argument_from_va_list<`__crt_stdio_output::output_processor<char,__crt_stdio_output::stream_output_adapter<char>,__crt_stdio_output::positional_parameter_base<char,__crt_stdio_output::stream_output_adapter<char> > >::type_case_Z'::`2'::ansi_string *,`__crt_stdio_output::output_processor<char,__crt_stdio_output::stream_output_adapter<char>,__crt_stdio_output::positional_parameter_base<char,__crt_stdio_output::stream_output_adapter<char> > >::type_case_Z'::`2'::ansi_string *>
FUNC 23074 13 0 __crt_stdio_output::standard_base<char,__crt_stdio_output::stream_output_adapter<char> >::extract_argument_from_va_list<`__crt_stdio_output::output_processor<char,__crt_stdio_output::stream_output_adapter<char>,__crt_stdio_output::standard_base<char,__crt_stdio_output::stream_output_adapter<char> > >::type_case_Z'::`2'::ansi_string *,`__crt_stdio_output::output_processor<char,__crt_stdio_output::stream_output_adapter<char>,__crt_stdio_output::standard_base<char,__crt_stdio_output::stream_output_adapter<char> > >::type_case_Z'::`2'::ansi_string *>
FUNC 2308c 13 0 __crt_stdio_output::standard_base<char,__crt_stdio_output::string_output_adapter<char> >::extract_argument_from_va_list<`__crt_stdio_output::output_processor<char,__crt_stdio_output::string_output_adapter<char>,__crt_stdio_output::format_validation_base<char,__crt_stdio_output::string_output_adapter<char> > >::type_case_Z'::`2'::ansi_string *,`__crt_stdio_output::output_processor<char,__crt_stdio_output::string_output_adapter<char>,__crt_stdio_output::format_validation_base<char,__crt_stdio_output::string_output_adapter<char> > >::type_case_Z'::`2'::ansi_string *>
FUNC 230a4 ba 0 __crt_stdio_output::positional_parameter_base<char,__crt_stdio_output::string_output_adapter<char> >::extract_argument_from_va_list<`__crt_stdio_output::output_processor<char,__crt_stdio_output::string_output_adapter<char>,__crt_stdio_output::positional_parameter_base<char,__crt_stdio_output::string_output_adapter<char> > >::type_case_Z'::`2'::ansi_string *,`__crt_stdio_output::output_processor<char,__crt_stdio_output::string_output_adapter<char>,__crt_stdio_output::positional_parameter_base<char,__crt_stdio_output::string_output_adapter<char> > >::type_case_Z'::`2'::ansi_string *>
FUNC 2318c 13 0 __crt_stdio_output::standard_base<char,__crt_stdio_output::string_output_adapter<char> >::extract_argument_from_va_list<`__crt_stdio_output::output_processor<char,__crt_stdio_output::string_output_adapter<char>,__crt_stdio_output::positional_parameter_base<char,__crt_stdio_output::string_output_adapter<char> > >::type_case_Z'::`2'::ansi_string *,`__crt_stdio_output::output_processor<char,__crt_stdio_output::string_output_adapter<char>,__crt_stdio_output::positional_parameter_base<char,__crt_stdio_output::string_output_adapter<char> > >::type_case_Z'::`2'::ansi_string *>
FUNC 231a4 13 0 __crt_stdio_output::standard_base<char,__crt_stdio_output::string_output_adapter<char> >::extract_argument_from_va_list<`__crt_stdio_output::output_processor<char,__crt_stdio_output::string_output_adapter<char>,__crt_stdio_output::standard_base<char,__crt_stdio_output::string_output_adapter<char> > >::type_case_Z'::`2'::ansi_string *,`__crt_stdio_output::output_processor<char,__crt_stdio_output::string_output_adapter<char>,__crt_stdio_output::standard_base<char,__crt_stdio_output::string_output_adapter<char> > >::type_case_Z'::`2'::ansi_string *>
FUNC 231bc 13 0 __crt_stdio_output::standard_base<wchar_t,__crt_stdio_output::stream_output_adapter<wchar_t> >::extract_argument_from_va_list<`__crt_stdio_output::output_processor<wchar_t,__crt_stdio_output::stream_output_adapter<wchar_t>,__crt_stdio_output::format_validation_base<wchar_t,__crt_stdio_output::stream_output_adapter<wchar_t> > >::type_case_Z'::`2'::ansi_string *,`__crt_stdio_output::output_processor<wchar_t,__crt_stdio_output::stream_output_adapter<wchar_t>,__crt_stdio_output::format_validation_base<wchar_t,__crt_stdio_output::stream_output_adapter<wchar_t> > >::type_case_Z'::`2'::ansi_string *>
FUNC 231d4 bc 0 __crt_stdio_output::positional_parameter_base<wchar_t,__crt_stdio_output::stream_output_adapter<wchar_t> >::extract_argument_from_va_list<`__crt_stdio_output::output_processor<wchar_t,__crt_stdio_output::stream_output_adapter<wchar_t>,__crt_stdio_output::positional_parameter_base<wchar_t,__crt_stdio_output::stream_output_adapter<wchar_t> > >::type_case_Z'::`2'::ansi_string *,`__crt_stdio_output::output_processor<wchar_t,__crt_stdio_output::stream_output_adapter<wchar_t>,__crt_stdio_output::positional_parameter_base<wchar_t,__crt_stdio_output::stream_output_adapter<wchar_t> > >::type_case_Z'::`2'::ansi_string *>
FUNC 232c0 13 0 __crt_stdio_output::standard_base<wchar_t,__crt_stdio_output::stream_output_adapter<wchar_t> >::extract_argument_from_va_list<`__crt_stdio_output::output_processor<wchar_t,__crt_stdio_output::stream_output_adapter<wchar_t>,__crt_stdio_output::positional_parameter_base<wchar_t,__crt_stdio_output::stream_output_adapter<wchar_t> > >::type_case_Z'::`2'::ansi_string *,`__crt_stdio_output::output_processor<wchar_t,__crt_stdio_output::stream_output_adapter<wchar_t>,__crt_stdio_output::positional_parameter_base<wchar_t,__crt_stdio_output::stream_output_adapter<wchar_t> > >::type_case_Z'::`2'::ansi_string *>
FUNC 232d8 13 0 __crt_stdio_output::standard_base<wchar_t,__crt_stdio_output::stream_output_adapter<wchar_t> >::extract_argument_from_va_list<`__crt_stdio_output::output_processor<wchar_t,__crt_stdio_output::stream_output_adapter<wchar_t>,__crt_stdio_output::standard_base<wchar_t,__crt_stdio_output::stream_output_adapter<wchar_t> > >::type_case_Z'::`2'::ansi_string *,`__crt_stdio_output::output_processor<wchar_t,__crt_stdio_output::stream_output_adapter<wchar_t>,__crt_stdio_output::standard_base<wchar_t,__crt_stdio_output::stream_output_adapter<wchar_t> > >::type_case_Z'::`2'::ansi_string *>
FUNC 232f0 13 0 __crt_stdio_output::standard_base<wchar_t,__crt_stdio_output::string_output_adapter<wchar_t> >::extract_argument_from_va_list<`__crt_stdio_output::output_processor<wchar_t,__crt_stdio_output::string_output_adapter<wchar_t>,__crt_stdio_output::format_validation_base<wchar_t,__crt_stdio_output::string_output_adapter<wchar_t> > >::type_case_Z'::`2'::ansi_string *,`__crt_stdio_output::output_processor<wchar_t,__crt_stdio_output::string_output_adapter<wchar_t>,__crt_stdio_output::format_validation_base<wchar_t,__crt_stdio_output::string_output_adapter<wchar_t> > >::type_case_Z'::`2'::ansi_string *>
FUNC 23308 bc 0 __crt_stdio_output::positional_parameter_base<wchar_t,__crt_stdio_output::string_output_adapter<wchar_t> >::extract_argument_from_va_list<`__crt_stdio_output::output_processor<wchar_t,__crt_stdio_output::string_output_adapter<wchar_t>,__crt_stdio_output::positional_parameter_base<wchar_t,__crt_stdio_output::string_output_adapter<wchar_t> > >::type_case_Z'::`2'::ansi_string *,`__crt_stdio_output::output_processor<wchar_t,__crt_stdio_output::string_output_adapter<wchar_t>,__crt_stdio_output::positional_parameter_base<wchar_t,__crt_stdio_output::string_output_adapter<wchar_t> > >::type_case_Z'::`2'::ansi_string *>
FUNC 233f4 13 0 __crt_stdio_output::standard_base<wchar_t,__crt_stdio_output::string_output_adapter<wchar_t> >::extract_argument_from_va_list<`__crt_stdio_output::output_processor<wchar_t,__crt_stdio_output::string_output_adapter<wchar_t>,__crt_stdio_output::positional_parameter_base<wchar_t,__crt_stdio_output::string_output_adapter<wchar_t> > >::type_case_Z'::`2'::ansi_string *,`__crt_stdio_output::output_processor<wchar_t,__crt_stdio_output::string_output_adapter<wchar_t>,__crt_stdio_output::positional_parameter_base<wchar_t,__crt_stdio_output::string_output_adapter<wchar_t> > >::type_case_Z'::`2'::ansi_string *>
FUNC 2340c 13 0 __crt_stdio_output::standard_base<wchar_t,__crt_stdio_output::string_output_adapter<wchar_t> >::extract_argument_from_va_list<`__crt_stdio_output::output_processor<wchar_t,__crt_stdio_output::string_output_adapter<wchar_t>,__crt_stdio_output::standard_base<wchar_t,__crt_stdio_output::string_output_adapter<wchar_t> > >::type_case_Z'::`2'::ansi_string *,`__crt_stdio_output::output_processor<wchar_t,__crt_stdio_output::string_output_adapter<wchar_t>,__crt_stdio_output::standard_base<wchar_t,__crt_stdio_output::string_output_adapter<wchar_t> > >::type_case_Z'::`2'::ansi_string *>
FUNC 23424 ba 0 __crt_stdio_output::positional_parameter_base<char,__crt_stdio_output::stream_output_adapter<char> >::extract_argument_from_va_list<void *,void *>
FUNC 2350c ba 0 __crt_stdio_output::positional_parameter_base<char,__crt_stdio_output::string_output_adapter<char> >::extract_argument_from_va_list<void *,void *>
FUNC 235f4 bc 0 __crt_stdio_output::positional_parameter_base<wchar_t,__crt_stdio_output::stream_output_adapter<wchar_t> >::extract_argument_from_va_list<void *,void *>
FUNC 236e0 bc 0 __crt_stdio_output::positional_parameter_base<wchar_t,__crt_stdio_output::string_output_adapter<wchar_t> >::extract_argument_from_va_list<void *,void *>
FUNC 237cc 13 0 __crt_stdio_output::standard_base<char,__crt_stdio_output::stream_output_adapter<char> >::extract_argument_from_va_list<void *,void *>
FUNC 237e4 13 0 __crt_stdio_output::standard_base<char,__crt_stdio_output::string_output_adapter<char> >::extract_argument_from_va_list<void *,void *>
FUNC 237fc 13 0 __crt_stdio_output::standard_base<wchar_t,__crt_stdio_output::stream_output_adapter<wchar_t> >::extract_argument_from_va_list<void *,void *>
FUNC 23814 13 0 __crt_stdio_output::standard_base<wchar_t,__crt_stdio_output::string_output_adapter<wchar_t> >::extract_argument_from_va_list<void *,void *>
FUNC 2382c ba 0 __crt_stdio_output::positional_parameter_base<char,__crt_stdio_output::stream_output_adapter<char> >::extract_argument_from_va_list<_CRT_DOUBLE,_CRT_DOUBLE>(_CRT_DOUBLE &)
FUNC 23914 ba 0 __crt_stdio_output::positional_parameter_base<char,__crt_stdio_output::string_output_adapter<char> >::extract_argument_from_va_list<_CRT_DOUBLE,_CRT_DOUBLE>(_CRT_DOUBLE &)
FUNC 239fc bc 0 __crt_stdio_output::positional_parameter_base<wchar_t,__crt_stdio_output::stream_output_adapter<wchar_t> >::extract_argument_from_va_list<_CRT_DOUBLE,_CRT_DOUBLE>(_CRT_DOUBLE &)
FUNC 23ae8 bc 0 __crt_stdio_output::positional_parameter_base<wchar_t,__crt_stdio_output::string_output_adapter<wchar_t> >::extract_argument_from_va_list<_CRT_DOUBLE,_CRT_DOUBLE>(_CRT_DOUBLE &)
FUNC 23bd4 15 0 __crt_stdio_output::standard_base<char,__crt_stdio_output::stream_output_adapter<char> >::extract_argument_from_va_list<_CRT_DOUBLE,_CRT_DOUBLE>(_CRT_DOUBLE &)
FUNC 23bf0 15 0 __crt_stdio_output::standard_base<char,__crt_stdio_output::string_output_adapter<char> >::extract_argument_from_va_list<_CRT_DOUBLE,_CRT_DOUBLE>(_CRT_DOUBLE &)
FUNC 23c0c 15 0 __crt_stdio_output::standard_base<wchar_t,__crt_stdio_output::stream_output_adapter<wchar_t> >::extract_argument_from_va_list<_CRT_DOUBLE,_CRT_DOUBLE>(_CRT_DOUBLE &)
FUNC 23c28 15 0 __crt_stdio_output::standard_base<wchar_t,__crt_stdio_output::string_output_adapter<wchar_t> >::extract_argument_from_va_list<_CRT_DOUBLE,_CRT_DOUBLE>(_CRT_DOUBLE &)
FUNC 23c44 ba 0 __crt_stdio_output::positional_parameter_base<char,__crt_stdio_output::stream_output_adapter<char> >::extract_argument_from_va_list<__int64,__int64>(__int64 &)
FUNC 23d2c ba 0 __crt_stdio_output::positional_parameter_base<char,__crt_stdio_output::string_output_adapter<char> >::extract_argument_from_va_list<__int64,__int64>(__int64 &)
FUNC 23e14 bc 0 __crt_stdio_output::positional_parameter_base<wchar_t,__crt_stdio_output::stream_output_adapter<wchar_t> >::extract_argument_from_va_list<__int64,__int64>(__int64 &)
FUNC 23f00 bc 0 __crt_stdio_output::positional_parameter_base<wchar_t,__crt_stdio_output::string_output_adapter<wchar_t> >::extract_argument_from_va_list<__int64,__int64>(__int64 &)
FUNC 23fec 13 0 __crt_stdio_output::standard_base<char,__crt_stdio_output::stream_output_adapter<char> >::extract_argument_from_va_list<__int64,__int64>(__int64 &)
FUNC 24004 13 0 __crt_stdio_output::standard_base<char,__crt_stdio_output::string_output_adapter<char> >::extract_argument_from_va_list<__int64,__int64>(__int64 &)
FUNC 2401c 13 0 __crt_stdio_output::standard_base<wchar_t,__crt_stdio_output::stream_output_adapter<wchar_t> >::extract_argument_from_va_list<__int64,__int64>(__int64 &)
FUNC 24034 13 0 __crt_stdio_output::standard_base<wchar_t,__crt_stdio_output::string_output_adapter<wchar_t> >::extract_argument_from_va_list<__int64,__int64>(__int64 &)
FUNC 2404c ba 0 __crt_stdio_output::positional_parameter_base<char,__crt_stdio_output::stream_output_adapter<char> >::extract_argument_from_va_list<unsigned __int64,__int64>(__int64 &)
FUNC 24134 ba 0 __crt_stdio_output::positional_parameter_base<char,__crt_stdio_output::string_output_adapter<char> >::extract_argument_from_va_list<unsigned __int64,__int64>(__int64 &)
FUNC 2421c bc 0 __crt_stdio_output::positional_parameter_base<wchar_t,__crt_stdio_output::stream_output_adapter<wchar_t> >::extract_argument_from_va_list<unsigned __int64,__int64>(__int64 &)
FUNC 24308 bc 0 __crt_stdio_output::positional_parameter_base<wchar_t,__crt_stdio_output::string_output_adapter<wchar_t> >::extract_argument_from_va_list<unsigned __int64,__int64>(__int64 &)
FUNC 243f4 13 0 __crt_stdio_output::standard_base<char,__crt_stdio_output::stream_output_adapter<char> >::extract_argument_from_va_list<unsigned __int64,__int64>(__int64 &)
FUNC 2440c 13 0 __crt_stdio_output::standard_base<char,__crt_stdio_output::string_output_adapter<char> >::extract_argument_from_va_list<unsigned __int64,__int64>(__int64 &)
FUNC 24424 13 0 __crt_stdio_output::standard_base<wchar_t,__crt_stdio_output::stream_output_adapter<wchar_t> >::extract_argument_from_va_list<unsigned __int64,__int64>(__int64 &)
FUNC 2443c 13 0 __crt_stdio_output::standard_base<wchar_t,__crt_stdio_output::string_output_adapter<wchar_t> >::extract_argument_from_va_list<unsigned __int64,__int64>(__int64 &)
FUNC 24454 bc 0 __crt_stdio_output::positional_parameter_base<char,__crt_stdio_output::stream_output_adapter<char> >::extract_argument_from_va_list<wchar_t,wchar_t>(wchar_t &)
FUNC 24540 bc 0 __crt_stdio_output::positional_parameter_base<char,__crt_stdio_output::string_output_adapter<char> >::extract_argument_from_va_list<wchar_t,wchar_t>(wchar_t &)
FUNC 2462c be 0 __crt_stdio_output::positional_parameter_base<wchar_t,__crt_stdio_output::stream_output_adapter<wchar_t> >::extract_argument_from_va_list<wchar_t,wchar_t>(wchar_t &)
FUNC 2471c be 0 __crt_stdio_output::positional_parameter_base<wchar_t,__crt_stdio_output::string_output_adapter<wchar_t> >::extract_argument_from_va_list<wchar_t,wchar_t>(wchar_t &)
FUNC 2480c 13 0 __crt_stdio_output::standard_base<char,__crt_stdio_output::stream_output_adapter<char> >::extract_argument_from_va_list<wchar_t,wchar_t>(wchar_t &)
FUNC 24824 13 0 __crt_stdio_output::standard_base<char,__crt_stdio_output::string_output_adapter<char> >::extract_argument_from_va_list<wchar_t,wchar_t>(wchar_t &)
FUNC 2483c 13 0 __crt_stdio_output::standard_base<wchar_t,__crt_stdio_output::stream_output_adapter<wchar_t> >::extract_argument_from_va_list<wchar_t,wchar_t>(wchar_t &)
FUNC 24854 13 0 __crt_stdio_output::standard_base<wchar_t,__crt_stdio_output::string_output_adapter<wchar_t> >::extract_argument_from_va_list<wchar_t,wchar_t>(wchar_t &)
FUNC 2486c 6 0 __crt_stdio_output::positional_parameter_base<char,__crt_stdio_output::stream_output_adapter<char> >::get_parameter_type<char>(char *)
FUNC 24874 6 0 __crt_stdio_output::positional_parameter_base<char,__crt_stdio_output::string_output_adapter<char> >::get_parameter_type<char>(char *)
FUNC 2487c 6 0 __crt_stdio_output::positional_parameter_base<wchar_t,__crt_stdio_output::stream_output_adapter<wchar_t> >::get_parameter_type<char>(char *)
FUNC 24884 6 0 __crt_stdio_output::positional_parameter_base<wchar_t,__crt_stdio_output::string_output_adapter<wchar_t> >::get_parameter_type<char>(char *)
FUNC 2488c 6 0 __crt_stdio_output::positional_parameter_base<char,__crt_stdio_output::stream_output_adapter<char> >::get_parameter_type<`__crt_stdio_output::output_processor<char,__crt_stdio_output::stream_output_adapter<char>,__crt_stdio_output::positional_parameter_base<char,__crt_stdio_output::stream_output_adapter<char> > >::type_case_Z'::`2'::ansi_string>
FUNC 24894 6 0 __crt_stdio_output::positional_parameter_base<char,__crt_stdio_output::string_output_adapter<char> >::get_parameter_type<`__crt_stdio_output::output_processor<char,__crt_stdio_output::string_output_adapter<char>,__crt_stdio_output::positional_parameter_base<char,__crt_stdio_output::string_output_adapter<char> > >::type_case_Z'::`2'::ansi_string>
FUNC 2489c 6 0 __crt_stdio_output::positional_parameter_base<wchar_t,__crt_stdio_output::stream_output_adapter<wchar_t> >::get_parameter_type<`__crt_stdio_output::output_processor<wchar_t,__crt_stdio_output::stream_output_adapter<wchar_t>,__crt_stdio_output::positional_parameter_base<wchar_t,__crt_stdio_output::stream_output_adapter<wchar_t> > >::type_case_Z'::`2'::ansi_string>
FUNC 248a4 6 0 __crt_stdio_output::positional_parameter_base<wchar_t,__crt_stdio_output::string_output_adapter<wchar_t> >::get_parameter_type<`__crt_stdio_output::output_processor<wchar_t,__crt_stdio_output::string_output_adapter<wchar_t>,__crt_stdio_output::positional_parameter_base<wchar_t,__crt_stdio_output::string_output_adapter<wchar_t> > >::type_case_Z'::`2'::ansi_string>
FUNC 248ac 6 0 __crt_stdio_output::positional_parameter_base<char,__crt_stdio_output::stream_output_adapter<char> >::get_parameter_type<void>(void *)
FUNC 248b4 6 0 __crt_stdio_output::positional_parameter_base<char,__crt_stdio_output::string_output_adapter<char> >::get_parameter_type<void>(void *)
FUNC 248bc 6 0 __crt_stdio_output::positional_parameter_base<wchar_t,__crt_stdio_output::stream_output_adapter<wchar_t> >::get_parameter_type<void>(void *)
FUNC 248c4 6 0 __crt_stdio_output::positional_parameter_base<wchar_t,__crt_stdio_output::string_output_adapter<wchar_t> >::get_parameter_type<void>(void *)
FUNC 248cc a 0 __crt_stdio_output::positional_parameter_base<char,__crt_stdio_output::stream_output_adapter<char> >::is_character_specifier<char>(char)
FUNC 248d8 a 0 __crt_stdio_output::positional_parameter_base<char,__crt_stdio_output::string_output_adapter<char> >::is_character_specifier<char>(char)
FUNC 248e4 10 0 __crt_stdio_output::positional_parameter_base<wchar_t,__crt_stdio_output::stream_output_adapter<wchar_t> >::is_character_specifier<wchar_t>(wchar_t)
FUNC 248f8 10 0 __crt_stdio_output::positional_parameter_base<wchar_t,__crt_stdio_output::string_output_adapter<wchar_t> >::is_character_specifier<wchar_t>(wchar_t)
FUNC 2490c 26 0 __crt_stdio_output::positional_parameter_base<char,__crt_stdio_output::stream_output_adapter<char> >::is_integral_specifier<char>(char)
FUNC 2493c 26 0 __crt_stdio_output::positional_parameter_base<char,__crt_stdio_output::string_output_adapter<char> >::is_integral_specifier<char>(char)
FUNC 2496c 28 0 __crt_stdio_output::positional_parameter_base<wchar_t,__crt_stdio_output::stream_output_adapter<wchar_t> >::is_integral_specifier<wchar_t>(wchar_t)
FUNC 249a0 28 0 __crt_stdio_output::positional_parameter_base<wchar_t,__crt_stdio_output::string_output_adapter<wchar_t> >::is_integral_specifier<wchar_t>(wchar_t)
FUNC 249d4 7 0 __crt_stdio_output::positional_parameter_base<char,__crt_stdio_output::stream_output_adapter<char> >::is_pointer_specifier<char>(char)
FUNC 249dc 7 0 __crt_stdio_output::positional_parameter_base<char,__crt_stdio_output::string_output_adapter<char> >::is_pointer_specifier<char>(char)
FUNC 249e4 8 0 __crt_stdio_output::positional_parameter_base<wchar_t,__crt_stdio_output::stream_output_adapter<wchar_t> >::is_pointer_specifier<wchar_t>(wchar_t)
FUNC 249f0 8 0 __crt_stdio_output::positional_parameter_base<wchar_t,__crt_stdio_output::string_output_adapter<wchar_t> >::is_pointer_specifier<wchar_t>(wchar_t)
FUNC 249fc a 0 __crt_stdio_output::positional_parameter_base<char,__crt_stdio_output::stream_output_adapter<char> >::is_string_specifier<char>(char)
FUNC 24a08 a 0 __crt_stdio_output::positional_parameter_base<char,__crt_stdio_output::string_output_adapter<char> >::is_string_specifier<char>(char)
FUNC 24a14 10 0 __crt_stdio_output::positional_parameter_base<wchar_t,__crt_stdio_output::stream_output_adapter<wchar_t> >::is_string_specifier<wchar_t>(wchar_t)
FUNC 24a28 10 0 __crt_stdio_output::positional_parameter_base<wchar_t,__crt_stdio_output::string_output_adapter<wchar_t> >::is_string_specifier<wchar_t>(wchar_t)
FUNC 24a3c 28 0 __crt_stdio_output::is_wide_character_specifier<char>(unsigned __int64,char,__crt_stdio_output::length_modifier)
FUNC 24a70 3e 0 __crt_stdio_output::is_wide_character_specifier<wchar_t>(unsigned __int64,wchar_t,__crt_stdio_output::length_modifier)
FUNC 24ac0 3 0 __crt_stdio_output::peek_va_arg<signed char>(char *)
FUNC 24ac4 3 0 __crt_stdio_output::peek_va_arg<unsigned char>(char *)
FUNC 24ac8 4 0 __crt_stdio_output::peek_va_arg<short>(char *)
FUNC 24acc 4 0 __crt_stdio_output::peek_va_arg<unsigned short>(char *)
FUNC 24ad0 3 0 __crt_stdio_output::peek_va_arg<int>(char *)
FUNC 24ad4 3 0 __crt_stdio_output::peek_va_arg<unsigned int>(char *)
FUNC 24ad8 4 0 __crt_stdio_output::peek_va_arg<char *>
FUNC 24adc 4 0 __crt_stdio_output::peek_va_arg<`__crt_stdio_output::output_processor<char,__crt_stdio_output::stream_output_adapter<char>,__crt_stdio_output::positional_parameter_base<char,__crt_stdio_output::stream_output_adapter<char> > >::type_case_Z'::`2'::ansi_string *>
FUNC 24ae0 4 0 __crt_stdio_output::peek_va_arg<`__crt_stdio_output::output_processor<char,__crt_stdio_output::string_output_adapter<char>,__crt_stdio_output::positional_parameter_base<char,__crt_stdio_output::string_output_adapter<char> > >::type_case_Z'::`2'::ansi_string *>
FUNC 24ae4 4 0 __crt_stdio_output::peek_va_arg<`__crt_stdio_output::output_processor<wchar_t,__crt_stdio_output::stream_output_adapter<wchar_t>,__crt_stdio_output::positional_parameter_base<wchar_t,__crt_stdio_output::stream_output_adapter<wchar_t> > >::type_case_Z'::`2'::ansi_string *>
FUNC 24ae8 4 0 __crt_stdio_output::peek_va_arg<`__crt_stdio_output::output_processor<wchar_t,__crt_stdio_output::string_output_adapter<wchar_t>,__crt_stdio_output::positional_parameter_base<wchar_t,__crt_stdio_output::string_output_adapter<wchar_t> > >::type_case_Z'::`2'::ansi_string *>
FUNC 24aec 4 0 __crt_stdio_output::peek_va_arg<void *>
FUNC 24af0 4 0 __crt_stdio_output::peek_va_arg<_CRT_DOUBLE>(char *)
FUNC 24af4 4 0 __crt_stdio_output::peek_va_arg<__int64>(char *)
FUNC 24af8 4 0 __crt_stdio_output::peek_va_arg<unsigned __int64>(char *)
FUNC 24afc 4 0 __crt_stdio_output::peek_va_arg<wchar_t>(char *)
FUNC 24b00 b 0 __crt_char_traits<char>::puttc_nolock<char const &,_iobuf *>
FUNC 24b10 b 0 __crt_char_traits<wchar_t>::puttc_nolock<wchar_t const &,_iobuf *>
FUNC 24b20 b 0 __crt_stdio_output::read_va_arg<signed char>(char * &)
FUNC 24b30 b 0 __crt_stdio_output::read_va_arg<unsigned char>(char * &)
FUNC 24b40 c 0 __crt_stdio_output::read_va_arg<short>(char * &)
FUNC 24b50 c 0 __crt_stdio_output::read_va_arg<unsigned short>(char * &)
FUNC 24b60 b 0 __crt_stdio_output::read_va_arg<int>(char * &)
FUNC 24b70 b 0 __crt_stdio_output::read_va_arg<unsigned int>(char * &)
FUNC 24b80 c 0 __crt_stdio_output::read_va_arg<char *>
FUNC 24b90 c 0 __crt_stdio_output::read_va_arg<`__crt_stdio_output::output_processor<char,__crt_stdio_output::stream_output_adapter<char>,__crt_stdio_output::format_validation_base<char,__crt_stdio_output::stream_output_adapter<char> > >::type_case_Z'::`2'::ansi_string *>
FUNC 24ba0 c 0 __crt_stdio_output::read_va_arg<`__crt_stdio_output::output_processor<char,__crt_stdio_output::stream_output_adapter<char>,__crt_stdio_output::positional_parameter_base<char,__crt_stdio_output::stream_output_adapter<char> > >::type_case_Z'::`2'::ansi_string *>
FUNC 24bb0 c 0 __crt_stdio_output::read_va_arg<`__crt_stdio_output::output_processor<char,__crt_stdio_output::stream_output_adapter<char>,__crt_stdio_output::standard_base<char,__crt_stdio_output::stream_output_adapter<char> > >::type_case_Z'::`2'::ansi_string *>
FUNC 24bc0 c 0 __crt_stdio_output::read_va_arg<`__crt_stdio_output::output_processor<char,__crt_stdio_output::string_output_adapter<char>,__crt_stdio_output::format_validation_base<char,__crt_stdio_output::string_output_adapter<char> > >::type_case_Z'::`2'::ansi_string *>
FUNC 24bd0 c 0 __crt_stdio_output::read_va_arg<`__crt_stdio_output::output_processor<char,__crt_stdio_output::string_output_adapter<char>,__crt_stdio_output::positional_parameter_base<char,__crt_stdio_output::string_output_adapter<char> > >::type_case_Z'::`2'::ansi_string *>
FUNC 24be0 c 0 __crt_stdio_output::read_va_arg<`__crt_stdio_output::output_processor<char,__crt_stdio_output::string_output_adapter<char>,__crt_stdio_output::standard_base<char,__crt_stdio_output::string_output_adapter<char> > >::type_case_Z'::`2'::ansi_string *>
FUNC 24bf0 c 0 __crt_stdio_output::read_va_arg<`__crt_stdio_output::output_processor<wchar_t,__crt_stdio_output::stream_output_adapter<wchar_t>,__crt_stdio_output::format_validation_base<wchar_t,__crt_stdio_output::stream_output_adapter<wchar_t> > >::type_case_Z'::`2'::ansi_string *>
FUNC 24c00 c 0 __crt_stdio_output::read_va_arg<`__crt_stdio_output::output_processor<wchar_t,__crt_stdio_output::stream_output_adapter<wchar_t>,__crt_stdio_output::positional_parameter_base<wchar_t,__crt_stdio_output::stream_output_adapter<wchar_t> > >::type_case_Z'::`2'::ansi_string *>
FUNC 24c10 c 0 __crt_stdio_output::read_va_arg<`__crt_stdio_output::output_processor<wchar_t,__crt_stdio_output::stream_output_adapter<wchar_t>,__crt_stdio_output::standard_base<wchar_t,__crt_stdio_output::stream_output_adapter<wchar_t> > >::type_case_Z'::`2'::ansi_string *>
FUNC 24c20 c 0 __crt_stdio_output::read_va_arg<`__crt_stdio_output::output_processor<wchar_t,__crt_stdio_output::string_output_adapter<wchar_t>,__crt_stdio_output::format_validation_base<wchar_t,__crt_stdio_output::string_output_adapter<wchar_t> > >::type_case_Z'::`2'::ansi_string *>
FUNC 24c30 c 0 __crt_stdio_output::read_va_arg<`__crt_stdio_output::output_processor<wchar_t,__crt_stdio_output::string_output_adapter<wchar_t>,__crt_stdio_output::positional_parameter_base<wchar_t,__crt_stdio_output::string_output_adapter<wchar_t> > >::type_case_Z'::`2'::ansi_string *>
FUNC 24c40 c 0 __crt_stdio_output::read_va_arg<`__crt_stdio_output::output_processor<wchar_t,__crt_stdio_output::string_output_adapter<wchar_t>,__crt_stdio_output::standard_base<wchar_t,__crt_stdio_output::string_output_adapter<wchar_t> > >::type_case_Z'::`2'::ansi_string *>
FUNC 24c50 c 0 __crt_stdio_output::read_va_arg<void *>
FUNC 24c60 c 0 __crt_stdio_output::read_va_arg<_CRT_DOUBLE>(char * &)
FUNC 24c70 c 0 __crt_stdio_output::read_va_arg<__int64>(char * &)
FUNC 24c80 c 0 __crt_stdio_output::read_va_arg<unsigned __int64>(char * &)
FUNC 24c90 c 0 __crt_stdio_output::read_va_arg<wchar_t>(char * &)
FUNC 24ca0 1b 0 __crt_stdio_output::formatting_buffer::scratch_count<char>()
FUNC 24cc4 22 0 __crt_stdio_output::formatting_buffer::scratch_data<char>()
FUNC 24cf0 e 0 __crt_char_traits<char>::tcstol<char const * &,char * *,int>
FUNC 24d04 e 0 __crt_char_traits<wchar_t>::tcstol<wchar_t const * &,wchar_t * *,int>
FUNC 24d18 e 0 __crt_char_traits<char>::tcstol<char const *,char * *,int>
FUNC 24d2c e 0 __crt_char_traits<wchar_t>::tcstol<wchar_t const *,wchar_t * *,int>
FUNC 24d40 87 0 __crt_stdio_output::output_processor<char,__crt_stdio_output::stream_output_adapter<char>,__crt_stdio_output::format_validation_base<char,__crt_stdio_output::stream_output_adapter<char> > >::type_case_integer_parse_into_buffer<unsigned int>(unsigned int,unsigned int,bool)
FUNC 24de8 87 0 __crt_stdio_output::output_processor<char,__crt_stdio_output::stream_output_adapter<char>,__crt_stdio_output::positional_parameter_base<char,__crt_stdio_output::stream_output_adapter<char> > >::type_case_integer_parse_into_buffer<unsigned int>(unsigned int,unsigned int,bool)
FUNC 24e90 87 0 __crt_stdio_output::output_processor<char,__crt_stdio_output::stream_output_adapter<char>,__crt_stdio_output::standard_base<char,__crt_stdio_output::stream_output_adapter<char> > >::type_case_integer_parse_into_buffer<unsigned int>(unsigned int,unsigned int,bool)
FUNC 24f38 87 0 __crt_stdio_output::output_processor<char,__crt_stdio_output::string_output_adapter<char>,__crt_stdio_output::format_validation_base<char,__crt_stdio_output::string_output_adapter<char> > >::type_case_integer_parse_into_buffer<unsigned int>(unsigned int,unsigned int,bool)
FUNC 24fe0 87 0 __crt_stdio_output::output_processor<char,__crt_stdio_output::string_output_adapter<char>,__crt_stdio_output::positional_parameter_base<char,__crt_stdio_output::string_output_adapter<char> > >::type_case_integer_parse_into_buffer<unsigned int>(unsigned int,unsigned int,bool)
FUNC 25088 87 0 __crt_stdio_output::output_processor<char,__crt_stdio_output::string_output_adapter<char>,__crt_stdio_output::standard_base<char,__crt_stdio_output::string_output_adapter<char> > >::type_case_integer_parse_into_buffer<unsigned int>(unsigned int,unsigned int,bool)
FUNC 25130 a3 0 __crt_stdio_output::output_processor<wchar_t,__crt_stdio_output::stream_output_adapter<wchar_t>,__crt_stdio_output::format_validation_base<wchar_t,__crt_stdio_output::stream_output_adapter<wchar_t> > >::type_case_integer_parse_into_buffer<unsigned int>(unsigned int,unsigned int,bool)
FUNC 251fc a3 0 __crt_stdio_output::output_processor<wchar_t,__crt_stdio_output::stream_output_adapter<wchar_t>,__crt_stdio_output::positional_parameter_base<wchar_t,__crt_stdio_output::stream_output_adapter<wchar_t> > >::type_case_integer_parse_into_buffer<unsigned int>(unsigned int,unsigned int,bool)
FUNC 252c8 a3 0 __crt_stdio_output::output_processor<wchar_t,__crt_stdio_output::stream_output_adapter<wchar_t>,__crt_stdio_output::standard_base<wchar_t,__crt_stdio_output::stream_output_adapter<wchar_t> > >::type_case_integer_parse_into_buffer<unsigned int>(unsigned int,unsigned int,bool)
FUNC 25394 a3 0 __crt_stdio_output::output_processor<wchar_t,__crt_stdio_output::string_output_adapter<wchar_t>,__crt_stdio_output::format_validation_base<wchar_t,__crt_stdio_output::string_output_adapter<wchar_t> > >::type_case_integer_parse_into_buffer<unsigned int>(unsigned int,unsigned int,bool)
FUNC 25460 a3 0 __crt_stdio_output::output_processor<wchar_t,__crt_stdio_output::string_output_adapter<wchar_t>,__crt_stdio_output::positional_parameter_base<wchar_t,__crt_stdio_output::string_output_adapter<wchar_t> > >::type_case_integer_parse_into_buffer<unsigned int>(unsigned int,unsigned int,bool)
FUNC 2552c a3 0 __crt_stdio_output::output_processor<wchar_t,__crt_stdio_output::string_output_adapter<wchar_t>,__crt_stdio_output::standard_base<wchar_t,__crt_stdio_output::string_output_adapter<wchar_t> > >::type_case_integer_parse_into_buffer<unsigned int>(unsigned int,unsigned int,bool)
FUNC 255f8 8d 0 __crt_stdio_output::output_processor<char,__crt_stdio_output::stream_output_adapter<char>,__crt_stdio_output::format_validation_base<char,__crt_stdio_output::stream_output_adapter<char> > >::type_case_integer_parse_into_buffer<unsigned __int64>(unsigned __int64,unsigned int,bool)
FUNC 256a8 8d 0 __crt_stdio_output::output_processor<char,__crt_stdio_output::stream_output_adapter<char>,__crt_stdio_output::positional_parameter_base<char,__crt_stdio_output::stream_output_adapter<char> > >::type_case_integer_parse_into_buffer<unsigned __int64>(unsigned __int64,unsigned int,bool)
FUNC 25758 8d 0 __crt_stdio_output::output_processor<char,__crt_stdio_output::stream_output_adapter<char>,__crt_stdio_output::standard_base<char,__crt_stdio_output::stream_output_adapter<char> > >::type_case_integer_parse_into_buffer<unsigned __int64>(unsigned __int64,unsigned int,bool)
FUNC 25808 8d 0 __crt_stdio_output::output_processor<char,__crt_stdio_output::string_output_adapter<char>,__crt_stdio_output::format_validation_base<char,__crt_stdio_output::string_output_adapter<char> > >::type_case_integer_parse_into_buffer<unsigned __int64>(unsigned __int64,unsigned int,bool)
FUNC 258b8 8d 0 __crt_stdio_output::output_processor<char,__crt_stdio_output::string_output_adapter<char>,__crt_stdio_output::positional_parameter_base<char,__crt_stdio_output::string_output_adapter<char> > >::type_case_integer_parse_into_buffer<unsigned __int64>(unsigned __int64,unsigned int,bool)
FUNC 25968 8d 0 __crt_stdio_output::output_processor<char,__crt_stdio_output::string_output_adapter<char>,__crt_stdio_output::standard_base<char,__crt_stdio_output::string_output_adapter<char> > >::type_case_integer_parse_into_buffer<unsigned __int64>(unsigned __int64,unsigned int,bool)
FUNC 25a18 a4 0 __crt_stdio_output::output_processor<wchar_t,__crt_stdio_output::stream_output_adapter<wchar_t>,__crt_stdio_output::format_validation_base<wchar_t,__crt_stdio_output::stream_output_adapter<wchar_t> > >::type_case_integer_parse_into_buffer<unsigned __int64>(unsigned __int64,unsigned int,bool)
FUNC 25ae8 a4 0 __crt_stdio_output::output_processor<wchar_t,__crt_stdio_output::stream_output_adapter<wchar_t>,__crt_stdio_output::positional_parameter_base<wchar_t,__crt_stdio_output::stream_output_adapter<wchar_t> > >::type_case_integer_parse_into_buffer<unsigned __int64>(unsigned __int64,unsigned int,bool)
FUNC 25bb8 a4 0 __crt_stdio_output::output_processor<wchar_t,__crt_stdio_output::stream_output_adapter<wchar_t>,__crt_stdio_output::standard_base<wchar_t,__crt_stdio_output::stream_output_adapter<wchar_t> > >::type_case_integer_parse_into_buffer<unsigned __int64>(unsigned __int64,unsigned int,bool)
FUNC 25c88 a4 0 __crt_stdio_output::output_processor<wchar_t,__crt_stdio_output::string_output_adapter<wchar_t>,__crt_stdio_output::format_validation_base<wchar_t,__crt_stdio_output::string_output_adapter<wchar_t> > >::type_case_integer_parse_into_buffer<unsigned __int64>(unsigned __int64,unsigned int,bool)
FUNC 25d58 a4 0 __crt_stdio_output::output_processor<wchar_t,__crt_stdio_output::string_output_adapter<wchar_t>,__crt_stdio_output::positional_parameter_base<wchar_t,__crt_stdio_output::string_output_adapter<wchar_t> > >::type_case_integer_parse_into_buffer<unsigned __int64>(unsigned __int64,unsigned int,bool)
FUNC 25e28 a4 0 __crt_stdio_output::output_processor<wchar_t,__crt_stdio_output::string_output_adapter<wchar_t>,__crt_stdio_output::standard_base<wchar_t,__crt_stdio_output::string_output_adapter<wchar_t> > >::type_case_integer_parse_into_buffer<unsigned __int64>(unsigned __int64,unsigned int,bool)
FUNC 25ef8 8b 0 __crt_stdio_output::write_multiple_characters<__crt_stdio_output::stream_output_adapter<char>,char>(__crt_stdio_output::stream_output_adapter<char> const &,char,int,int * const)
FUNC 25fa8 91 0 __crt_stdio_output::write_multiple_characters<__crt_stdio_output::stream_output_adapter<wchar_t>,char>(__crt_stdio_output::stream_output_adapter<wchar_t> const &,char,int,int * const)
FUNC 26060 75 0 __crt_stdio_output::write_multiple_characters<__crt_stdio_output::string_output_adapter<char>,char>(__crt_stdio_output::string_output_adapter<char> const &,char,int,int * const)
FUNC 260f4 7a 0 __crt_stdio_output::write_multiple_characters<__crt_stdio_output::string_output_adapter<wchar_t>,char>(__crt_stdio_output::string_output_adapter<wchar_t> const &,char,int,int * const)
FUNC 2618c a 0 <lambda_10027885da78ada7fb00668d7e2e96b5>::<lambda_10027885da78ada7fb00668d7e2e96b5>
FUNC 26198 a 0 <lambda_2fa474834de80dc12f7a3c6eddd7a366>::<lambda_2fa474834de80dc12f7a3c6eddd7a366>
FUNC 261a4 21 0 <lambda_36eeb330e99a4f0bf8a7da86d0894cb9>::<lambda_36eeb330e99a4f0bf8a7da86d0894cb9>
FUNC 261d0 a 0 <lambda_3776af017df72547960a8ac98bb265e7>::<lambda_3776af017df72547960a8ac98bb265e7>
FUNC 261dc a 0 <lambda_4dad5d88921143c78c186dc2683775b0>::<lambda_4dad5d88921143c78c186dc2683775b0>
FUNC 261e8 a 0 <lambda_63c71d947f2ce890aa4aac7392f1cbed>::<lambda_63c71d947f2ce890aa4aac7392f1cbed>
FUNC 261f4 21 0 <lambda_673ffc0dc9412a0afcf2088e0e1b9bdc>::<lambda_673ffc0dc9412a0afcf2088e0e1b9bdc>
FUNC 26220 a 0 <lambda_676bd5779251ec186b530f0a904b4b35>::<lambda_676bd5779251ec186b530f0a904b4b35>
FUNC 2622c a 0 <lambda_8be82e0ce9ca3860586e20edfb7a650e>::<lambda_8be82e0ce9ca3860586e20edfb7a650e>
FUNC 26238 a 0 <lambda_8c9f37a989ed2ac074735e5b535e306a>::<lambda_8c9f37a989ed2ac074735e5b535e306a>
FUNC 26244 21 0 <lambda_a993425e72f5bd8b40f5859286f153c4>::<lambda_a993425e72f5bd8b40f5859286f153c4>
FUNC 26270 21 0 <lambda_b579ea784fd840951dfbcbdaebf709fd>::<lambda_b579ea784fd840951dfbcbdaebf709fd>
FUNC 2629c a 0 <lambda_c997b1ad71a4c19edf3d1d12a5864641>::<lambda_c997b1ad71a4c19edf3d1d12a5864641>
FUNC 262a8 a 0 <lambda_d1b8e9147f7260ae436300a3cb83e6d4>::<lambda_d1b8e9147f7260ae436300a3cb83e6d4>
FUNC 262b4 21 0 <lambda_e3269ba96939e7713c73908c0d757d25>::<lambda_e3269ba96939e7713c73908c0d757d25>
FUNC 262e0 21 0 <lambda_e638437c4db75b75056fab6aaf7e4f15>::<lambda_e638437c4db75b75056fab6aaf7e4f15>
FUNC 2630c a 0 <lambda_e746820a99d01fe878d2dbd7f1018dff>::<lambda_e746820a99d01fe878d2dbd7f1018dff>
FUNC 26318 a 0 <lambda_fe5404e9642edbb7c8ae71e1dcfa4018>::<lambda_fe5404e9642edbb7c8ae71e1dcfa4018>
FUNC 26324 3c 0 __crt_stdio_output::common_data<char>::common_data<char>()
FUNC 26370 3f 0 __crt_stdio_output::common_data<wchar_t>::common_data<wchar_t>()
FUNC 263c0 5f 0 __crt_stdio_output::output_adapter_data<char,__crt_stdio_output::stream_output_adapter<char> >::output_adapter_data<char,__crt_stdio_output::stream_output_adapter<char> >(__crt_stdio_output::stream_output_adapter<char> const &,unsigned __int64,char const * const,__crt_locale_pointers * const,char * const)
FUNC 26438 5f 0 __crt_stdio_output::output_adapter_data<char,__crt_stdio_output::string_output_adapter<char> >::output_adapter_data<char,__crt_stdio_output::string_output_adapter<char> >(__crt_stdio_output::string_output_adapter<char> const &,unsigned __int64,char const * const,__crt_locale_pointers * const,char * const)
FUNC 264b0 62 0 __crt_stdio_output::output_adapter_data<wchar_t,__crt_stdio_output::stream_output_adapter<wchar_t> >::output_adapter_data<wchar_t,__crt_stdio_output::stream_output_adapter<wchar_t> >(__crt_stdio_output::stream_output_adapter<wchar_t> const &,unsigned __int64,wchar_t const * const,__crt_locale_pointers * const,char * const)
FUNC 2652c 62 0 __crt_stdio_output::output_adapter_data<wchar_t,__crt_stdio_output::string_output_adapter<wchar_t> >::output_adapter_data<wchar_t,__crt_stdio_output::string_output_adapter<wchar_t> >(__crt_stdio_output::string_output_adapter<wchar_t> const &,unsigned __int64,wchar_t const * const,__crt_locale_pointers * const,char * const)
FUNC 265a8 6b 0 __crt_stdio_output::output_processor<char,__crt_stdio_output::stream_output_adapter<char>,__crt_stdio_output::format_validation_base<char,__crt_stdio_output::stream_output_adapter<char> > >::output_processor<char,__crt_stdio_output::stream_output_adapter<char>,__crt_stdio_output::format_validation_base<char,__crt_stdio_output::stream_output_adapter<char> > >(__crt_stdio_output::stream_output_adapter<char> const &,unsigned __int64,char const * const,__crt_locale_pointers * const,char * const)
FUNC 26630 88 0 __crt_stdio_output::output_processor<char,__crt_stdio_output::stream_output_adapter<char>,__crt_stdio_output::positional_parameter_base<char,__crt_stdio_output::stream_output_adapter<char> > >::output_processor<char,__crt_stdio_output::stream_output_adapter<char>,__crt_stdio_output::positional_parameter_base<char,__crt_stdio_output::stream_output_adapter<char> > >(__crt_stdio_output::stream_output_adapter<char> const &,unsigned __int64,char const * const,__crt_locale_pointers * const,char * const)
FUNC 266dc 6b 0 __crt_stdio_output::output_processor<char,__crt_stdio_output::stream_output_adapter<char>,__crt_stdio_output::standard_base<char,__crt_stdio_output::stream_output_adapter<char> > >::output_processor<char,__crt_stdio_output::stream_output_adapter<char>,__crt_stdio_output::standard_base<char,__crt_stdio_output::stream_output_adapter<char> > >(__crt_stdio_output::stream_output_adapter<char> const &,unsigned __int64,char const * const,__crt_locale_pointers * const,char * const)
FUNC 26764 6b 0 __crt_stdio_output::output_processor<char,__crt_stdio_output::string_output_adapter<char>,__crt_stdio_output::format_validation_base<char,__crt_stdio_output::string_output_adapter<char> > >::output_processor<char,__crt_stdio_output::string_output_adapter<char>,__crt_stdio_output::format_validation_base<char,__crt_stdio_output::string_output_adapter<char> > >(__crt_stdio_output::string_output_adapter<char> const &,unsigned __int64,char const * const,__crt_locale_pointers * const,char * const)
FUNC 267ec 88 0 __crt_stdio_output::output_processor<char,__crt_stdio_output::string_output_adapter<char>,__crt_stdio_output::positional_parameter_base<char,__crt_stdio_output::string_output_adapter<char> > >::output_processor<char,__crt_stdio_output::string_output_adapter<char>,__crt_stdio_output::positional_parameter_base<char,__crt_stdio_output::string_output_adapter<char> > >(__crt_stdio_output::string_output_adapter<char> const &,unsigned __int64,char const * const,__crt_locale_pointers * const,char * const)
FUNC 26898 6b 0 __crt_stdio_output::output_processor<char,__crt_stdio_output::string_output_adapter<char>,__crt_stdio_output::standard_base<char,__crt_stdio_output::string_output_adapter<char> > >::output_processor<char,__crt_stdio_output::string_output_adapter<char>,__crt_stdio_output::standard_base<char,__crt_stdio_output::string_output_adapter<char> > >(__crt_stdio_output::string_output_adapter<char> const &,unsigned __int64,char const * const,__crt_locale_pointers * const,char * const)
FUNC 26920 6f 0 __crt_stdio_output::output_processor<wchar_t,__crt_stdio_output::stream_output_adapter<wchar_t>,__crt_stdio_output::format_validation_base<wchar_t,__crt_stdio_output::stream_output_adapter<wchar_t> > >::output_processor<wchar_t,__crt_stdio_output::stream_output_adapter<wchar_t>,__crt_stdio_output::format_validation_base<wchar_t,__crt_stdio_output::stream_output_adapter<wchar_t> > >(__crt_stdio_output::stream_output_adapter<wchar_t> const &,unsigned __int64,wchar_t const * const,__crt_locale_pointers * const,char * const)
FUNC 269ac 8c 0 __crt_stdio_output::output_processor<wchar_t,__crt_stdio_output::stream_output_adapter<wchar_t>,__crt_stdio_output::positional_parameter_base<wchar_t,__crt_stdio_output::stream_output_adapter<wchar_t> > >::output_processor<wchar_t,__crt_stdio_output::stream_output_adapter<wchar_t>,__crt_stdio_output::positional_parameter_base<wchar_t,__crt_stdio_output::stream_output_adapter<wchar_t> > >(__crt_stdio_output::stream_output_adapter<wchar_t> const &,unsigned __int64,wchar_t const * const,__crt_locale_pointers * const,char * const)
FUNC 26a5c 6f 0 __crt_stdio_output::output_processor<wchar_t,__crt_stdio_output::stream_output_adapter<wchar_t>,__crt_stdio_output::standard_base<wchar_t,__crt_stdio_output::stream_output_adapter<wchar_t> > >::output_processor<wchar_t,__crt_stdio_output::stream_output_adapter<wchar_t>,__crt_stdio_output::standard_base<wchar_t,__crt_stdio_output::stream_output_adapter<wchar_t> > >(__crt_stdio_output::stream_output_adapter<wchar_t> const &,unsigned __int64,wchar_t const * const,__crt_locale_pointers * const,char * const)
FUNC 26ae8 6f 0 __crt_stdio_output::output_processor<wchar_t,__crt_stdio_output::string_output_adapter<wchar_t>,__crt_stdio_output::format_validation_base<wchar_t,__crt_stdio_output::string_output_adapter<wchar_t> > >::output_processor<wchar_t,__crt_stdio_output::string_output_adapter<wchar_t>,__crt_stdio_output::format_validation_base<wchar_t,__crt_stdio_output::string_output_adapter<wchar_t> > >(__crt_stdio_output::string_output_adapter<wchar_t> const &,unsigned __int64,wchar_t const * const,__crt_locale_pointers * const,char * const)
FUNC 26b74 8c 0 __crt_stdio_output::output_processor<wchar_t,__crt_stdio_output::string_output_adapter<wchar_t>,__crt_stdio_output::positional_parameter_base<wchar_t,__crt_stdio_output::string_output_adapter<wchar_t> > >::output_processor<wchar_t,__crt_stdio_output::string_output_adapter<wchar_t>,__crt_stdio_output::positional_parameter_base<wchar_t,__crt_stdio_output::string_output_adapter<wchar_t> > >(__crt_stdio_output::string_output_adapter<wchar_t> const &,unsigned __int64,wchar_t const * const,__crt_locale_pointers * const,char * const)
FUNC 26c24 6f 0 __crt_stdio_output::output_processor<wchar_t,__crt_stdio_output::string_output_adapter<wchar_t>,__crt_stdio_output::standard_base<wchar_t,__crt_stdio_output::string_output_adapter<wchar_t> > >::output_processor<wchar_t,__crt_stdio_output::string_output_adapter<wchar_t>,__crt_stdio_output::standard_base<wchar_t,__crt_stdio_output::string_output_adapter<wchar_t> > >(__crt_stdio_output::string_output_adapter<wchar_t> const &,unsigned __int64,wchar_t const * const,__crt_locale_pointers * const,char * const)
FUNC 26cb0 7 0 __crt_stdio_output::stream_output_adapter<char>::stream_output_adapter<char>(_iobuf * const)
FUNC 26cb8 7 0 __crt_stdio_output::stream_output_adapter<wchar_t>::stream_output_adapter<wchar_t>(_iobuf * const)
FUNC 26cc0 7 0 __crt_stdio_output::string_output_adapter<char>::string_output_adapter<char>(__crt_stdio_output::string_output_adapter_context<char> * const)
FUNC 26cc8 7 0 __crt_stdio_output::string_output_adapter<wchar_t>::string_output_adapter<wchar_t>(__crt_stdio_output::string_output_adapter_context<wchar_t> * const)
FUNC 26cd0 9b 0 _LocaleUpdate::_LocaleUpdate(__crt_locale_pointers * const)
FUNC 26d94 20 0 __acrt_stdio_temporary_buffering_guard::__acrt_stdio_temporary_buffering_guard(_iobuf * const)
FUNC 26dbc 8 0 __crt_deferred_errno_cache::__crt_deferred_errno_cache()
FUNC 26dc8 f 0 __crt_errno_guard::__crt_errno_guard(int * const)
FUNC 26ddc 7 0 __crt_stdio_stream::__crt_stdio_stream(_iobuf * const)
FUNC 26de4 14 0 __crt_stdio_output::formatting_buffer::formatting_buffer()
FUNC 26e00 23 0 __crt_stdio_output::common_data<char>::~common_data<char>()
FUNC 26e2c 23 0 __crt_stdio_output::common_data<wchar_t>::~common_data<wchar_t>()
FUNC 26e58 23 0 __crt_stdio_output::format_validation_base<char,__crt_stdio_output::stream_output_adapter<char> >::~format_validation_base<char,__crt_stdio_output::stream_output_adapter<char> >()
FUNC 26e84 23 0 __crt_stdio_output::format_validation_base<char,__crt_stdio_output::string_output_adapter<char> >::~format_validation_base<char,__crt_stdio_output::string_output_adapter<char> >()
FUNC 26eb0 23 0 __crt_stdio_output::format_validation_base<wchar_t,__crt_stdio_output::stream_output_adapter<wchar_t> >::~format_validation_base<wchar_t,__crt_stdio_output::stream_output_adapter<wchar_t> >()
FUNC 26edc 23 0 __crt_stdio_output::format_validation_base<wchar_t,__crt_stdio_output::string_output_adapter<wchar_t> >::~format_validation_base<wchar_t,__crt_stdio_output::string_output_adapter<wchar_t> >()
FUNC 26f08 23 0 __crt_stdio_output::output_adapter_data<char,__crt_stdio_output::stream_output_adapter<char> >::~output_adapter_data<char,__crt_stdio_output::stream_output_adapter<char> >()
FUNC 26f34 23 0 __crt_stdio_output::output_adapter_data<char,__crt_stdio_output::string_output_adapter<char> >::~output_adapter_data<char,__crt_stdio_output::string_output_adapter<char> >()
FUNC 26f60 23 0 __crt_stdio_output::output_adapter_data<wchar_t,__crt_stdio_output::stream_output_adapter<wchar_t> >::~output_adapter_data<wchar_t,__crt_stdio_output::stream_output_adapter<wchar_t> >()
FUNC 26f8c 23 0 __crt_stdio_output::output_adapter_data<wchar_t,__crt_stdio_output::string_output_adapter<wchar_t> >::~output_adapter_data<wchar_t,__crt_stdio_output::string_output_adapter<wchar_t> >()
FUNC 26fb8 23 0 __crt_stdio_output::output_processor<char,__crt_stdio_output::stream_output_adapter<char>,__crt_stdio_output::format_validation_base<char,__crt_stdio_output::stream_output_adapter<char> > >::~output_processor<char,__crt_stdio_output::stream_output_adapter<char>,__crt_stdio_output::format_validation_base<char,__crt_stdio_output::stream_output_adapter<char> > >()
FUNC 26fe4 23 0 __crt_stdio_output::output_processor<char,__crt_stdio_output::stream_output_adapter<char>,__crt_stdio_output::positional_parameter_base<char,__crt_stdio_output::stream_output_adapter<char> > >::~output_processor<char,__crt_stdio_output::stream_output_adapter<char>,__crt_stdio_output::positional_parameter_base<char,__crt_stdio_output::stream_output_adapter<char> > >()
FUNC 27010 23 0 __crt_stdio_output::output_processor<char,__crt_stdio_output::stream_output_adapter<char>,__crt_stdio_output::standard_base<char,__crt_stdio_output::stream_output_adapter<char> > >::~output_processor<char,__crt_stdio_output::stream_output_adapter<char>,__crt_stdio_output::standard_base<char,__crt_stdio_output::stream_output_adapter<char> > >()
FUNC 2703c 23 0 __crt_stdio_output::output_processor<char,__crt_stdio_output::string_output_adapter<char>,__crt_stdio_output::format_validation_base<char,__crt_stdio_output::string_output_adapter<char> > >::~output_processor<char,__crt_stdio_output::string_output_adapter<char>,__crt_stdio_output::format_validation_base<char,__crt_stdio_output::string_output_adapter<char> > >()
FUNC 27068 23 0 __crt_stdio_output::output_processor<char,__crt_stdio_output::string_output_adapter<char>,__crt_stdio_output::positional_parameter_base<char,__crt_stdio_output::string_output_adapter<char> > >::~output_processor<char,__crt_stdio_output::string_output_adapter<char>,__crt_stdio_output::positional_parameter_base<char,__crt_stdio_output::string_output_adapter<char> > >()
FUNC 27094 23 0 __crt_stdio_output::output_processor<char,__crt_stdio_output::string_output_adapter<char>,__crt_stdio_output::standard_base<char,__crt_stdio_output::string_output_adapter<char> > >::~output_processor<char,__crt_stdio_output::string_output_adapter<char>,__crt_stdio_output::standard_base<char,__crt_stdio_output::string_output_adapter<char> > >()
FUNC 270c0 23 0 __crt_stdio_output::output_processor<wchar_t,__crt_stdio_output::stream_output_adapter<wchar_t>,__crt_stdio_output::format_validation_base<wchar_t,__crt_stdio_output::stream_output_adapter<wchar_t> > >::~output_processor<wchar_t,__crt_stdio_output::stream_output_adapter<wchar_t>,__crt_stdio_output::format_validation_base<wchar_t,__crt_stdio_output::stream_output_adapter<wchar_t> > >()
FUNC 270ec 23 0 __crt_stdio_output::output_processor<wchar_t,__crt_stdio_output::stream_output_adapter<wchar_t>,__crt_stdio_output::positional_parameter_base<wchar_t,__crt_stdio_output::stream_output_adapter<wchar_t> > >::~output_processor<wchar_t,__crt_stdio_output::stream_output_adapter<wchar_t>,__crt_stdio_output::positional_parameter_base<wchar_t,__crt_stdio_output::stream_output_adapter<wchar_t> > >()
FUNC 27118 23 0 __crt_stdio_output::output_processor<wchar_t,__crt_stdio_output::stream_output_adapter<wchar_t>,__crt_stdio_output::standard_base<wchar_t,__crt_stdio_output::stream_output_adapter<wchar_t> > >::~output_processor<wchar_t,__crt_stdio_output::stream_output_adapter<wchar_t>,__crt_stdio_output::standard_base<wchar_t,__crt_stdio_output::stream_output_adapter<wchar_t> > >()
FUNC 27144 23 0 __crt_stdio_output::output_processor<wchar_t,__crt_stdio_output::string_output_adapter<wchar_t>,__crt_stdio_output::format_validation_base<wchar_t,__crt_stdio_output::string_output_adapter<wchar_t> > >::~output_processor<wchar_t,__crt_stdio_output::string_output_adapter<wchar_t>,__crt_stdio_output::format_validation_base<wchar_t,__crt_stdio_output::string_output_adapter<wchar_t> > >()
FUNC 27170 23 0 __crt_stdio_output::output_processor<wchar_t,__crt_stdio_output::string_output_adapter<wchar_t>,__crt_stdio_output::positional_parameter_base<wchar_t,__crt_stdio_output::string_output_adapter<wchar_t> > >::~output_processor<wchar_t,__crt_stdio_output::string_output_adapter<wchar_t>,__crt_stdio_output::positional_parameter_base<wchar_t,__crt_stdio_output::string_output_adapter<wchar_t> > >()
FUNC 2719c 23 0 __crt_stdio_output::output_processor<wchar_t,__crt_stdio_output::string_output_adapter<wchar_t>,__crt_stdio_output::standard_base<wchar_t,__crt_stdio_output::string_output_adapter<wchar_t> > >::~output_processor<wchar_t,__crt_stdio_output::string_output_adapter<wchar_t>,__crt_stdio_output::standard_base<wchar_t,__crt_stdio_output::string_output_adapter<wchar_t> > >()
FUNC 271c8 23 0 __crt_stdio_output::positional_parameter_base<char,__crt_stdio_output::stream_output_adapter<char> >::~positional_parameter_base<char,__crt_stdio_output::stream_output_adapter<char> >()
FUNC 271f4 23 0 __crt_stdio_output::positional_parameter_base<char,__crt_stdio_output::string_output_adapter<char> >::~positional_parameter_base<char,__crt_stdio_output::string_output_adapter<char> >()
FUNC 27220 23 0 __crt_stdio_output::positional_parameter_base<wchar_t,__crt_stdio_output::stream_output_adapter<wchar_t> >::~positional_parameter_base<wchar_t,__crt_stdio_output::stream_output_adapter<wchar_t> >()
FUNC 2724c 23 0 __crt_stdio_output::positional_parameter_base<wchar_t,__crt_stdio_output::string_output_adapter<wchar_t> >::~positional_parameter_base<wchar_t,__crt_stdio_output::string_output_adapter<wchar_t> >()
FUNC 27278 23 0 __crt_stdio_output::standard_base<char,__crt_stdio_output::stream_output_adapter<char> >::~standard_base<char,__crt_stdio_output::stream_output_adapter<char> >()
FUNC 272a4 23 0 __crt_stdio_output::standard_base<char,__crt_stdio_output::string_output_adapter<char> >::~standard_base<char,__crt_stdio_output::string_output_adapter<char> >()
FUNC 272d0 23 0 __crt_stdio_output::standard_base<wchar_t,__crt_stdio_output::stream_output_adapter<wchar_t> >::~standard_base<wchar_t,__crt_stdio_output::stream_output_adapter<wchar_t> >()
FUNC 272fc 23 0 __crt_stdio_output::standard_base<wchar_t,__crt_stdio_output::string_output_adapter<wchar_t> >::~standard_base<wchar_t,__crt_stdio_output::string_output_adapter<wchar_t> >()
FUNC 27328 11 0 _LocaleUpdate::~_LocaleUpdate()
FUNC 27340 b 0 __acrt_stdio_temporary_buffering_guard::~__acrt_stdio_temporary_buffering_guard()
FUNC 27350 12 0 __crt_errno_guard::~__crt_errno_guard()
FUNC 27368 23 0 __crt_stdio_output::formatting_buffer::~formatting_buffer()
FUNC 27394 34 0 __crt_unique_heap_ptr<char,__crt_internal_free_policy>::operator=(__crt_unique_heap_ptr<char,__crt_internal_free_policy> &&)
FUNC 273d8 4 0 __crt_stdio_stream::operator->()
FUNC 273dc 8 0 <lambda_10027885da78ada7fb00668d7e2e96b5>::operator()
FUNC 273e8 8 0 <lambda_2fa474834de80dc12f7a3c6eddd7a366>::operator()
FUNC 273f4 12d 0 <lambda_36eeb330e99a4f0bf8a7da86d0894cb9>::operator()
FUNC 2756c 8 0 <lambda_3776af017df72547960a8ac98bb265e7>::operator()
FUNC 27578 8 0 <lambda_4dad5d88921143c78c186dc2683775b0>::operator()
FUNC 27584 8 0 <lambda_63c71d947f2ce890aa4aac7392f1cbed>::operator()
FUNC 27590 14e 0 <lambda_673ffc0dc9412a0afcf2088e0e1b9bdc>::operator()
FUNC 27734 8 0 <lambda_676bd5779251ec186b530f0a904b4b35>::operator()
FUNC 27740 8 0 <lambda_8be82e0ce9ca3860586e20edfb7a650e>::operator()
FUNC 2774c 8 0 <lambda_8c9f37a989ed2ac074735e5b535e306a>::operator()
FUNC 27758 14a 0 <lambda_a993425e72f5bd8b40f5859286f153c4>::operator()
FUNC 278f4 131 0 <lambda_b579ea784fd840951dfbcbdaebf709fd>::operator()
FUNC 27a74 8 0 <lambda_c997b1ad71a4c19edf3d1d12a5864641>::operator()
FUNC 27a80 8 0 <lambda_d1b8e9147f7260ae436300a3cb83e6d4>::operator()
FUNC 27a8c 131 0 <lambda_e3269ba96939e7713c73908c0d757d25>::operator()
FUNC 27c0c 12d 0 <lambda_e638437c4db75b75056fab6aaf7e4f15>::operator()
FUNC 27d84 8 0 <lambda_e746820a99d01fe878d2dbd7f1018dff>::operator()
FUNC 27d90 8 0 <lambda_fe5404e9642edbb7c8ae71e1dcfa4018>::operator()
FUNC 27d9c 5 0 _LocaleUpdate::GetLocaleT()
FUNC 27da4 c 0 __crt_stdio_output::output_processor<char,__crt_stdio_output::stream_output_adapter<char>,__crt_stdio_output::format_validation_base<char,__crt_stdio_output::stream_output_adapter<char> > >::adjust_hexit(int,bool)
FUNC 27db4 c 0 __crt_stdio_output::output_processor<char,__crt_stdio_output::stream_output_adapter<char>,__crt_stdio_output::positional_parameter_base<char,__crt_stdio_output::stream_output_adapter<char> > >::adjust_hexit(int,bool)
FUNC 27dc4 c 0 __crt_stdio_output::output_processor<char,__crt_stdio_output::stream_output_adapter<char>,__crt_stdio_output::standard_base<char,__crt_stdio_output::stream_output_adapter<char> > >::adjust_hexit(int,bool)
FUNC 27dd4 c 0 __crt_stdio_output::output_processor<char,__crt_stdio_output::string_output_adapter<char>,__crt_stdio_output::format_validation_base<char,__crt_stdio_output::string_output_adapter<char> > >::adjust_hexit(int,bool)
FUNC 27de4 c 0 __crt_stdio_output::output_processor<char,__crt_stdio_output::string_output_adapter<char>,__crt_stdio_output::positional_parameter_base<char,__crt_stdio_output::string_output_adapter<char> > >::adjust_hexit(int,bool)
FUNC 27df4 c 0 __crt_stdio_output::output_processor<char,__crt_stdio_output::string_output_adapter<char>,__crt_stdio_output::standard_base<char,__crt_stdio_output::string_output_adapter<char> > >::adjust_hexit(int,bool)
FUNC 27e04 c 0 __crt_stdio_output::output_processor<wchar_t,__crt_stdio_output::stream_output_adapter<wchar_t>,__crt_stdio_output::format_validation_base<wchar_t,__crt_stdio_output::stream_output_adapter<wchar_t> > >::adjust_hexit(int,bool)
FUNC 27e14 c 0 __crt_stdio_output::output_processor<wchar_t,__crt_stdio_output::stream_output_adapter<wchar_t>,__crt_stdio_output::positional_parameter_base<wchar_t,__crt_stdio_output::stream_output_adapter<wchar_t> > >::adjust_hexit(int,bool)
FUNC 27e24 c 0 __crt_stdio_output::output_processor<wchar_t,__crt_stdio_output::stream_output_adapter<wchar_t>,__crt_stdio_output::standard_base<wchar_t,__crt_stdio_output::stream_output_adapter<wchar_t> > >::adjust_hexit(int,bool)
FUNC 27e34 c 0 __crt_stdio_output::output_processor<wchar_t,__crt_stdio_output::string_output_adapter<wchar_t>,__crt_stdio_output::format_validation_base<wchar_t,__crt_stdio_output::string_output_adapter<wchar_t> > >::adjust_hexit(int,bool)
FUNC 27e44 c 0 __crt_stdio_output::output_processor<wchar_t,__crt_stdio_output::string_output_adapter<wchar_t>,__crt_stdio_output::positional_parameter_base<wchar_t,__crt_stdio_output::string_output_adapter<wchar_t> > >::adjust_hexit(int,bool)
FUNC 27e54 c 0 __crt_stdio_output::output_processor<wchar_t,__crt_stdio_output::string_output_adapter<wchar_t>,__crt_stdio_output::standard_base<wchar_t,__crt_stdio_output::string_output_adapter<wchar_t> > >::adjust_hexit(int,bool)
FUNC 27e64 50 0 __crt_stdio_output::positional_parameter_base<char,__crt_stdio_output::stream_output_adapter<char> >::advance_to_next_pass()
FUNC 27ec8 50 0 __crt_stdio_output::positional_parameter_base<char,__crt_stdio_output::string_output_adapter<char> >::advance_to_next_pass()
FUNC 27f2c 50 0 __crt_stdio_output::positional_parameter_base<wchar_t,__crt_stdio_output::stream_output_adapter<wchar_t> >::advance_to_next_pass()
FUNC 27f90 50 0 __crt_stdio_output::positional_parameter_base<wchar_t,__crt_stdio_output::string_output_adapter<wchar_t> >::advance_to_next_pass()
FUNC 27ff4 11 0 __crt_stdio_output::standard_base<char,__crt_stdio_output::stream_output_adapter<char> >::advance_to_next_pass()
FUNC 2800c 11 0 __crt_stdio_output::standard_base<char,__crt_stdio_output::string_output_adapter<char> >::advance_to_next_pass()
FUNC 28024 11 0 __crt_stdio_output::standard_base<wchar_t,__crt_stdio_output::stream_output_adapter<wchar_t> >::advance_to_next_pass()
FUNC 2803c 11 0 __crt_stdio_output::standard_base<wchar_t,__crt_stdio_output::string_output_adapter<wchar_t> >::advance_to_next_pass()
FUNC 28054 69 0 __crt_stdio_output::crop_zeroes(char *,__crt_locale_pointers * const)
FUNC 280d8 31 0 __crt_stdio_output::output_processor<char,__crt_stdio_output::stream_output_adapter<char>,__crt_stdio_output::format_validation_base<char,__crt_stdio_output::stream_output_adapter<char> > >::find_next_state(char,__crt_stdio_output::state)
FUNC 28118 31 0 __crt_stdio_output::output_processor<char,__crt_stdio_output::stream_output_adapter<char>,__crt_stdio_output::positional_parameter_base<char,__crt_stdio_output::stream_output_adapter<char> > >::find_next_state(char,__crt_stdio_output::state)
FUNC 28158 2f 0 __crt_stdio_output::output_processor<char,__crt_stdio_output::stream_output_adapter<char>,__crt_stdio_output::standard_base<char,__crt_stdio_output::stream_output_adapter<char> > >::find_next_state(char,__crt_stdio_output::state)
FUNC 28194 31 0 __crt_stdio_output::output_processor<char,__crt_stdio_output::string_output_adapter<char>,__crt_stdio_output::format_validation_base<char,__crt_stdio_output::string_output_adapter<char> > >::find_next_state(char,__crt_stdio_output::state)
FUNC 281d4 31 0 __crt_stdio_output::output_processor<char,__crt_stdio_output::string_output_adapter<char>,__crt_stdio_output::positional_parameter_base<char,__crt_stdio_output::string_output_adapter<char> > >::find_next_state(char,__crt_stdio_output::state)
FUNC 28214 2f 0 __crt_stdio_output::output_processor<char,__crt_stdio_output::string_output_adapter<char>,__crt_stdio_output::standard_base<char,__crt_stdio_output::string_output_adapter<char> > >::find_next_state(char,__crt_stdio_output::state)
FUNC 28250 32 0 __crt_stdio_output::output_processor<wchar_t,__crt_stdio_output::stream_output_adapter<wchar_t>,__crt_stdio_output::format_validation_base<wchar_t,__crt_stdio_output::stream_output_adapter<wchar_t> > >::find_next_state(wchar_t,__crt_stdio_output::state)
FUNC 28290 32 0 __crt_stdio_output::output_processor<wchar_t,__crt_stdio_output::stream_output_adapter<wchar_t>,__crt_stdio_output::positional_parameter_base<wchar_t,__crt_stdio_output::stream_output_adapter<wchar_t> > >::find_next_state(wchar_t,__crt_stdio_output::state)
FUNC 282d0 30 0 __crt_stdio_output::output_processor<wchar_t,__crt_stdio_output::stream_output_adapter<wchar_t>,__crt_stdio_output::standard_base<wchar_t,__crt_stdio_output::stream_output_adapter<wchar_t> > >::find_next_state(wchar_t,__crt_stdio_output::state)
FUNC 2830c 32 0 __crt_stdio_output::output_processor<wchar_t,__crt_stdio_output::string_output_adapter<wchar_t>,__crt_stdio_output::format_validation_base<wchar_t,__crt_stdio_output::string_output_adapter<wchar_t> > >::find_next_state(wchar_t,__crt_stdio_output::state)
FUNC 2834c 32 0 __crt_stdio_output::output_processor<wchar_t,__crt_stdio_output::string_output_adapter<wchar_t>,__crt_stdio_output::positional_parameter_base<wchar_t,__crt_stdio_output::string_output_adapter<wchar_t> > >::find_next_state(wchar_t,__crt_stdio_output::state)
FUNC 2838c 30 0 __crt_stdio_output::output_processor<wchar_t,__crt_stdio_output::string_output_adapter<wchar_t>,__crt_stdio_output::standard_base<wchar_t,__crt_stdio_output::string_output_adapter<wchar_t> > >::find_next_state(wchar_t,__crt_stdio_output::state)
FUNC 283c8 68 0 __crt_stdio_output::force_decimal_point(char *,__crt_locale_pointers * const)
FUNC 2844c 1f 0 __crt_deferred_errno_cache::get()
FUNC 28474 7 0 __crt_stdio_stream::get_flags()
FUNC 2847c 6 0 __crt_stdio_output::positional_parameter_base<char,__crt_stdio_output::stream_output_adapter<char> >::get_parameter_type(short)
FUNC 28484 6 0 __crt_stdio_output::positional_parameter_base<char,__crt_stdio_output::stream_output_adapter<char> >::get_parameter_type(unsigned short)
FUNC 2848c 6 0 __crt_stdio_output::positional_parameter_base<char,__crt_stdio_output::stream_output_adapter<char> >::get_parameter_type(int)
FUNC 28494 6 0 __crt_stdio_output::positional_parameter_base<char,__crt_stdio_output::stream_output_adapter<char> >::get_parameter_type(unsigned int)
FUNC 2849c 6 0 __crt_stdio_output::positional_parameter_base<char,__crt_stdio_output::stream_output_adapter<char> >::get_parameter_type(_CRT_DOUBLE)
FUNC 284a4 6 0 __crt_stdio_output::positional_parameter_base<char,__crt_stdio_output::stream_output_adapter<char> >::get_parameter_type(__int64)
FUNC 284ac 6 0 __crt_stdio_output::positional_parameter_base<char,__crt_stdio_output::stream_output_adapter<char> >::get_parameter_type(unsigned __int64)
FUNC 284b4 6 0 __crt_stdio_output::positional_parameter_base<char,__crt_stdio_output::stream_output_adapter<char> >::get_parameter_type(wchar_t)
FUNC 284bc 6 0 __crt_stdio_output::positional_parameter_base<char,__crt_stdio_output::string_output_adapter<char> >::get_parameter_type(short)
FUNC 284c4 6 0 __crt_stdio_output::positional_parameter_base<char,__crt_stdio_output::string_output_adapter<char> >::get_parameter_type(unsigned short)
FUNC 284cc 6 0 __crt_stdio_output::positional_parameter_base<char,__crt_stdio_output::string_output_adapter<char> >::get_parameter_type(int)
FUNC 284d4 6 0 __crt_stdio_output::positional_parameter_base<char,__crt_stdio_output::string_output_adapter<char> >::get_parameter_type(unsigned int)
FUNC 284dc 6 0 __crt_stdio_output::positional_parameter_base<char,__crt_stdio_output::string_output_adapter<char> >::get_parameter_type(_CRT_DOUBLE)
FUNC 284e4 6 0 __crt_stdio_output::positional_parameter_base<char,__crt_stdio_output::string_output_adapter<char> >::get_parameter_type(__int64)
FUNC 284ec 6 0 __crt_stdio_output::positional_parameter_base<char,__crt_stdio_output::string_output_adapter<char> >::get_parameter_type(unsigned __int64)
FUNC 284f4 6 0 __crt_stdio_output::positional_parameter_base<char,__crt_stdio_output::string_output_adapter<char> >::get_parameter_type(wchar_t)
FUNC 284fc 6 0 __crt_stdio_output::positional_parameter_base<wchar_t,__crt_stdio_output::stream_output_adapter<wchar_t> >::get_parameter_type(short)
FUNC 28504 6 0 __crt_stdio_output::positional_parameter_base<wchar_t,__crt_stdio_output::stream_output_adapter<wchar_t> >::get_parameter_type(unsigned short)
FUNC 2850c 6 0 __crt_stdio_output::positional_parameter_base<wchar_t,__crt_stdio_output::stream_output_adapter<wchar_t> >::get_parameter_type(int)
FUNC 28514 6 0 __crt_stdio_output::positional_parameter_base<wchar_t,__crt_stdio_output::stream_output_adapter<wchar_t> >::get_parameter_type(unsigned int)
FUNC 2851c 6 0 __crt_stdio_output::positional_parameter_base<wchar_t,__crt_stdio_output::stream_output_adapter<wchar_t> >::get_parameter_type(_CRT_DOUBLE)
FUNC 28524 6 0 __crt_stdio_output::positional_parameter_base<wchar_t,__crt_stdio_output::stream_output_adapter<wchar_t> >::get_parameter_type(__int64)
FUNC 2852c 6 0 __crt_stdio_output::positional_parameter_base<wchar_t,__crt_stdio_output::stream_output_adapter<wchar_t> >::get_parameter_type(unsigned __int64)
FUNC 28534 6 0 __crt_stdio_output::positional_parameter_base<wchar_t,__crt_stdio_output::stream_output_adapter<wchar_t> >::get_parameter_type(wchar_t)
FUNC 2853c 6 0 __crt_stdio_output::positional_parameter_base<wchar_t,__crt_stdio_output::string_output_adapter<wchar_t> >::get_parameter_type(short)
FUNC 28544 6 0 __crt_stdio_output::positional_parameter_base<wchar_t,__crt_stdio_output::string_output_adapter<wchar_t> >::get_parameter_type(unsigned short)
FUNC 2854c 6 0 __crt_stdio_output::positional_parameter_base<wchar_t,__crt_stdio_output::string_output_adapter<wchar_t> >::get_parameter_type(int)
FUNC 28554 6 0 __crt_stdio_output::positional_parameter_base<wchar_t,__crt_stdio_output::string_output_adapter<wchar_t> >::get_parameter_type(unsigned int)
FUNC 2855c 6 0 __crt_stdio_output::positional_parameter_base<wchar_t,__crt_stdio_output::string_output_adapter<wchar_t> >::get_parameter_type(_CRT_DOUBLE)
FUNC 28564 6 0 __crt_stdio_output::positional_parameter_base<wchar_t,__crt_stdio_output::string_output_adapter<wchar_t> >::get_parameter_type(__int64)
FUNC 2856c 6 0 __crt_stdio_output::positional_parameter_base<wchar_t,__crt_stdio_output::string_output_adapter<wchar_t> >::get_parameter_type(unsigned __int64)
FUNC 28574 6 0 __crt_stdio_output::positional_parameter_base<wchar_t,__crt_stdio_output::string_output_adapter<wchar_t> >::get_parameter_type(wchar_t)
FUNC 2857c 7 0 __crt_stdio_output::output_processor<char,__crt_stdio_output::stream_output_adapter<char>,__crt_stdio_output::format_validation_base<char,__crt_stdio_output::stream_output_adapter<char> > >::has_flag(unsigned int)
FUNC 28584 7 0 __crt_stdio_output::output_processor<char,__crt_stdio_output::stream_output_adapter<char>,__crt_stdio_output::positional_parameter_base<char,__crt_stdio_output::stream_output_adapter<char> > >::has_flag(unsigned int)
FUNC 2858c 7 0 __crt_stdio_output::output_processor<char,__crt_stdio_output::stream_output_adapter<char>,__crt_stdio_output::standard_base<char,__crt_stdio_output::stream_output_adapter<char> > >::has_flag(unsigned int)
FUNC 28594 7 0 __crt_stdio_output::output_processor<char,__crt_stdio_output::string_output_adapter<char>,__crt_stdio_output::format_validation_base<char,__crt_stdio_output::string_output_adapter<char> > >::has_flag(unsigned int)
FUNC 2859c 7 0 __crt_stdio_output::output_processor<char,__crt_stdio_output::string_output_adapter<char>,__crt_stdio_output::positional_parameter_base<char,__crt_stdio_output::string_output_adapter<char> > >::has_flag(unsigned int)
FUNC 285a4 7 0 __crt_stdio_output::output_processor<char,__crt_stdio_output::string_output_adapter<char>,__crt_stdio_output::standard_base<char,__crt_stdio_output::string_output_adapter<char> > >::has_flag(unsigned int)
FUNC 285ac 7 0 __crt_stdio_output::output_processor<wchar_t,__crt_stdio_output::stream_output_adapter<wchar_t>,__crt_stdio_output::format_validation_base<wchar_t,__crt_stdio_output::stream_output_adapter<wchar_t> > >::has_flag(unsigned int)
FUNC 285b4 7 0 __crt_stdio_output::output_processor<wchar_t,__crt_stdio_output::stream_output_adapter<wchar_t>,__crt_stdio_output::positional_parameter_base<wchar_t,__crt_stdio_output::stream_output_adapter<wchar_t> > >::has_flag(unsigned int)
FUNC 285bc 7 0 __crt_stdio_output::output_processor<wchar_t,__crt_stdio_output::stream_output_adapter<wchar_t>,__crt_stdio_output::standard_base<wchar_t,__crt_stdio_output::stream_output_adapter<wchar_t> > >::has_flag(unsigned int)
FUNC 285c4 7 0 __crt_stdio_output::output_processor<wchar_t,__crt_stdio_output::string_output_adapter<wchar_t>,__crt_stdio_output::format_validation_base<wchar_t,__crt_stdio_output::string_output_adapter<wchar_t> > >::has_flag(unsigned int)
FUNC 285cc 7 0 __crt_stdio_output::output_processor<wchar_t,__crt_stdio_output::string_output_adapter<wchar_t>,__crt_stdio_output::positional_parameter_base<wchar_t,__crt_stdio_output::string_output_adapter<wchar_t> > >::has_flag(unsigned int)
FUNC 285d4 7 0 __crt_stdio_output::output_processor<wchar_t,__crt_stdio_output::string_output_adapter<wchar_t>,__crt_stdio_output::standard_base<wchar_t,__crt_stdio_output::string_output_adapter<wchar_t> > >::has_flag(unsigned int)
FUNC 285dc 230 0 __crt_stdio_output::positional_parameter_base<char,__crt_stdio_output::stream_output_adapter<char> >::is_positional_parameter_reappearance_consistent(__crt_stdio_output::positional_parameter_base<char,__crt_stdio_output::stream_output_adapter<char> >::parameter_data const &,__crt_stdio_output::positional_parameter_base<char,__crt_stdio_output::stream_output_adapter<char> >::parameter_type,char,__crt_stdio_output::length_modifier)
FUNC 28898 230 0 __crt_stdio_output::positional_parameter_base<char,__crt_stdio_output::string_output_adapter<char> >::is_positional_parameter_reappearance_consistent(__crt_stdio_output::positional_parameter_base<char,__crt_stdio_output::string_output_adapter<char> >::parameter_data const &,__crt_stdio_output::positional_parameter_base<char,__crt_stdio_output::string_output_adapter<char> >::parameter_type,char,__crt_stdio_output::length_modifier)
FUNC 28b54 200 0 __crt_stdio_output::positional_parameter_base<wchar_t,__crt_stdio_output::stream_output_adapter<wchar_t> >::is_positional_parameter_reappearance_consistent(__crt_stdio_output::positional_parameter_base<wchar_t,__crt_stdio_output::stream_output_adapter<wchar_t> >::parameter_data const &,__crt_stdio_output::positional_parameter_base<wchar_t,__crt_stdio_output::stream_output_adapter<wchar_t> >::parameter_type,wchar_t,__crt_stdio_output::length_modifier)
FUNC 28dd4 200 0 __crt_stdio_output::positional_parameter_base<wchar_t,__crt_stdio_output::string_output_adapter<wchar_t> >::is_positional_parameter_reappearance_consistent(__crt_stdio_output::positional_parameter_base<wchar_t,__crt_stdio_output::string_output_adapter<wchar_t> >::parameter_data const &,__crt_stdio_output::positional_parameter_base<wchar_t,__crt_stdio_output::string_output_adapter<wchar_t> >::parameter_type,wchar_t,__crt_stdio_output::length_modifier)
FUNC 29054 c 0 __crt_stdio_stream::is_string_backed()
FUNC 29064 8 0 __crt_stdio_output::output_processor<char,__crt_stdio_output::stream_output_adapter<char>,__crt_stdio_output::format_validation_base<char,__crt_stdio_output::stream_output_adapter<char> > >::narrow_null_string()
FUNC 29070 8 0 __crt_stdio_output::output_processor<char,__crt_stdio_output::stream_output_adapter<char>,__crt_stdio_output::positional_parameter_base<char,__crt_stdio_output::stream_output_adapter<char> > >::narrow_null_string()
FUNC 2907c 8 0 __crt_stdio_output::output_processor<char,__crt_stdio_output::stream_output_adapter<char>,__crt_stdio_output::standard_base<char,__crt_stdio_output::stream_output_adapter<char> > >::narrow_null_string()
FUNC 29088 8 0 __crt_stdio_output::output_processor<char,__crt_stdio_output::string_output_adapter<char>,__crt_stdio_output::format_validation_base<char,__crt_stdio_output::string_output_adapter<char> > >::narrow_null_string()
FUNC 29094 8 0 __crt_stdio_output::output_processor<char,__crt_stdio_output::string_output_adapter<char>,__crt_stdio_output::positional_parameter_base<char,__crt_stdio_output::string_output_adapter<char> > >::narrow_null_string()
FUNC 290a0 8 0 __crt_stdio_output::output_processor<char,__crt_stdio_output::string_output_adapter<char>,__crt_stdio_output::standard_base<char,__crt_stdio_output::string_output_adapter<char> > >::narrow_null_string()
FUNC 290ac 8 0 __crt_stdio_output::output_processor<wchar_t,__crt_stdio_output::stream_output_adapter<wchar_t>,__crt_stdio_output::format_validation_base<wchar_t,__crt_stdio_output::stream_output_adapter<wchar_t> > >::narrow_null_string()
FUNC 290b8 8 0 __crt_stdio_output::output_processor<wchar_t,__crt_stdio_output::stream_output_adapter<wchar_t>,__crt_stdio_output::positional_parameter_base<wchar_t,__crt_stdio_output::stream_output_adapter<wchar_t> > >::narrow_null_string()
FUNC 290c4 8 0 __crt_stdio_output::output_processor<wchar_t,__crt_stdio_output::stream_output_adapter<wchar_t>,__crt_stdio_output::standard_base<wchar_t,__crt_stdio_output::stream_output_adapter<wchar_t> > >::narrow_null_string()
FUNC 290d0 8 0 __crt_stdio_output::output_processor<wchar_t,__crt_stdio_output::string_output_adapter<wchar_t>,__crt_stdio_output::format_validation_base<wchar_t,__crt_stdio_output::string_output_adapter<wchar_t> > >::narrow_null_string()
FUNC 290dc 8 0 __crt_stdio_output::output_processor<wchar_t,__crt_stdio_output::string_output_adapter<wchar_t>,__crt_stdio_output::positional_parameter_base<wchar_t,__crt_stdio_output::string_output_adapter<wchar_t> > >::narrow_null_string()
FUNC 290e8 8 0 __crt_stdio_output::output_processor<wchar_t,__crt_stdio_output::string_output_adapter<wchar_t>,__crt_stdio_output::standard_base<wchar_t,__crt_stdio_output::string_output_adapter<wchar_t> > >::narrow_null_string()
FUNC 290f4 a1 0 __crt_stdio_output::output_processor<char,__crt_stdio_output::stream_output_adapter<char>,__crt_stdio_output::format_validation_base<char,__crt_stdio_output::stream_output_adapter<char> > >::parse_int_from_format_string(int * const)
FUNC 291c0 a1 0 __crt_stdio_output::output_processor<char,__crt_stdio_output::stream_output_adapter<char>,__crt_stdio_output::positional_parameter_base<char,__crt_stdio_output::stream_output_adapter<char> > >::parse_int_from_format_string(int * const)
FUNC 2928c a1 0 __crt_stdio_output::output_processor<char,__crt_stdio_output::stream_output_adapter<char>,__crt_stdio_output::standard_base<char,__crt_stdio_output::stream_output_adapter<char> > >::parse_int_from_format_string(int * const)
FUNC 29358 a1 0 __crt_stdio_output::output_processor<char,__crt_stdio_output::string_output_adapter<char>,__crt_stdio_output::format_validation_base<char,__crt_stdio_output::string_output_adapter<char> > >::parse_int_from_format_string(int * const)
FUNC 29424 a1 0 __crt_stdio_output::output_processor<char,__crt_stdio_output::string_output_adapter<char>,__crt_stdio_output::positional_parameter_base<char,__crt_stdio_output::string_output_adapter<char> > >::parse_int_from_format_string(int * const)
FUNC 294f0 a1 0 __crt_stdio_output::output_processor<char,__crt_stdio_output::string_output_adapter<char>,__crt_stdio_output::standard_base<char,__crt_stdio_output::string_output_adapter<char> > >::parse_int_from_format_string(int * const)
FUNC 295bc a3 0 __crt_stdio_output::output_processor<wchar_t,__crt_stdio_output::stream_output_adapter<wchar_t>,__crt_stdio_output::format_validation_base<wchar_t,__crt_stdio_output::stream_output_adapter<wchar_t> > >::parse_int_from_format_string(int * const)
FUNC 29688 a3 0 __crt_stdio_output::output_processor<wchar_t,__crt_stdio_output::stream_output_adapter<wchar_t>,__crt_stdio_output::positional_parameter_base<wchar_t,__crt_stdio_output::stream_output_adapter<wchar_t> > >::parse_int_from_format_string(int * const)
FUNC 29754 a3 0 __crt_stdio_output::output_processor<wchar_t,__crt_stdio_output::stream_output_adapter<wchar_t>,__crt_stdio_output::standard_base<wchar_t,__crt_stdio_output::stream_output_adapter<wchar_t> > >::parse_int_from_format_string(int * const)
FUNC 29820 a3 0 __crt_stdio_output::output_processor<wchar_t,__crt_stdio_output::string_output_adapter<wchar_t>,__crt_stdio_output::format_validation_base<wchar_t,__crt_stdio_output::string_output_adapter<wchar_t> > >::parse_int_from_format_string(int * const)
FUNC 298ec a3 0 __crt_stdio_output::output_processor<wchar_t,__crt_stdio_output::string_output_adapter<wchar_t>,__crt_stdio_output::positional_parameter_base<wchar_t,__crt_stdio_output::string_output_adapter<wchar_t> > >::parse_int_from_format_string(int * const)
FUNC 299b8 a3 0 __crt_stdio_output::output_processor<wchar_t,__crt_stdio_output::string_output_adapter<wchar_t>,__crt_stdio_output::standard_base<wchar_t,__crt_stdio_output::string_output_adapter<wchar_t> > >::parse_int_from_format_string(int * const)
FUNC 29a84 227 0 __crt_stdio_output::output_processor<char,__crt_stdio_output::stream_output_adapter<char>,__crt_stdio_output::format_validation_base<char,__crt_stdio_output::stream_output_adapter<char> > >::process()
FUNC 29d34 2a6 0 __crt_stdio_output::output_processor<char,__crt_stdio_output::stream_output_adapter<char>,__crt_stdio_output::positional_parameter_base<char,__crt_stdio_output::stream_output_adapter<char> > >::process()
FUNC 2a084 216 0 __crt_stdio_output::output_processor<char,__crt_stdio_output::stream_output_adapter<char>,__crt_stdio_output::standard_base<char,__crt_stdio_output::stream_output_adapter<char> > >::process()
FUNC 2a320 218 0 __crt_stdio_output::output_processor<char,__crt_stdio_output::string_output_adapter<char>,__crt_stdio_output::format_validation_base<char,__crt_stdio_output::string_output_adapter<char> > >::process()
FUNC 2a5c0 295 0 __crt_stdio_output::output_processor<char,__crt_stdio_output::string_output_adapter<char>,__crt_stdio_output::positional_parameter_base<char,__crt_stdio_output::string_output_adapter<char> > >::process()
FUNC 2a8fc 20a 0 __crt_stdio_output::output_processor<char,__crt_stdio_output::string_output_adapter<char>,__crt_stdio_output::standard_base<char,__crt_stdio_output::string_output_adapter<char> > >::process()
FUNC 2ab88 277 0 __crt_stdio_output::output_processor<wchar_t,__crt_stdio_output::stream_output_adapter<wchar_t>,__crt_stdio_output::format_validation_base<wchar_t,__crt_stdio_output::stream_output_adapter<wchar_t> > >::process()
FUNC 2ae9c 2b2 0 __crt_stdio_output::output_processor<wchar_t,__crt_stdio_output::stream_output_adapter<wchar_t>,__crt_stdio_output::positional_parameter_base<wchar_t,__crt_stdio_output::stream_output_adapter<wchar_t> > >::process()
FUNC 2b1fc 26a 0 __crt_stdio_output::output_processor<wchar_t,__crt_stdio_output::stream_output_adapter<wchar_t>,__crt_stdio_output::standard_base<wchar_t,__crt_stdio_output::stream_output_adapter<wchar_t> > >::process()
FUNC 2b500 288 0 __crt_stdio_output::output_processor<wchar_t,__crt_stdio_output::string_output_adapter<wchar_t>,__crt_stdio_output::format_validation_base<wchar_t,__crt_stdio_output::string_output_adapter<wchar_t> > >::process()
FUNC 2b82c 2b2 0 __crt_stdio_output::output_processor<wchar_t,__crt_stdio_output::string_output_adapter<wchar_t>,__crt_stdio_output::positional_parameter_base<wchar_t,__crt_stdio_output::string_output_adapter<wchar_t> > >::process()
FUNC 2bb8c 27b 0 __crt_stdio_output::output_processor<wchar_t,__crt_stdio_output::string_output_adapter<wchar_t>,__crt_stdio_output::standard_base<wchar_t,__crt_stdio_output::string_output_adapter<wchar_t> > >::process()
FUNC 2bea8 4 0 __crt_stdio_stream::public_stream()
FUNC 2beac 4 0 __crt_stdio_output::output_processor<char,__crt_stdio_output::stream_output_adapter<char>,__crt_stdio_output::format_validation_base<char,__crt_stdio_output::stream_output_adapter<char> > >::set_flag(unsigned int)
FUNC 2beb0 4 0 __crt_stdio_output::output_processor<char,__crt_stdio_output::stream_output_adapter<char>,__crt_stdio_output::positional_parameter_base<char,__crt_stdio_output::stream_output_adapter<char> > >::set_flag(unsigned int)
FUNC 2beb4 4 0 __crt_stdio_output::output_processor<char,__crt_stdio_output::stream_output_adapter<char>,__crt_stdio_output::standard_base<char,__crt_stdio_output::stream_output_adapter<char> > >::set_flag(unsigned int)
FUNC 2beb8 4 0 __crt_stdio_output::output_processor<char,__crt_stdio_output::string_output_adapter<char>,__crt_stdio_output::format_validation_base<char,__crt_stdio_output::string_output_adapter<char> > >::set_flag(unsigned int)
FUNC 2bebc 4 0 __crt_stdio_output::output_processor<char,__crt_stdio_output::string_output_adapter<char>,__crt_stdio_output::positional_parameter_base<char,__crt_stdio_output::string_output_adapter<char> > >::set_flag(unsigned int)
FUNC 2bec0 4 0 __crt_stdio_output::output_processor<char,__crt_stdio_output::string_output_adapter<char>,__crt_stdio_output::standard_base<char,__crt_stdio_output::string_output_adapter<char> > >::set_flag(unsigned int)
FUNC 2bec4 4 0 __crt_stdio_output::output_processor<wchar_t,__crt_stdio_output::stream_output_adapter<wchar_t>,__crt_stdio_output::format_validation_base<wchar_t,__crt_stdio_output::stream_output_adapter<wchar_t> > >::set_flag(unsigned int)
FUNC 2bec8 4 0 __crt_stdio_output::output_processor<wchar_t,__crt_stdio_output::stream_output_adapter<wchar_t>,__crt_stdio_output::positional_parameter_base<wchar_t,__crt_stdio_output::stream_output_adapter<wchar_t> > >::set_flag(unsigned int)
FUNC 2becc 4 0 __crt_stdio_output::output_processor<wchar_t,__crt_stdio_output::stream_output_adapter<wchar_t>,__crt_stdio_output::standard_base<wchar_t,__crt_stdio_output::stream_output_adapter<wchar_t> > >::set_flag(unsigned int)
FUNC 2bed0 4 0 __crt_stdio_output::output_processor<wchar_t,__crt_stdio_output::string_output_adapter<wchar_t>,__crt_stdio_output::format_validation_base<wchar_t,__crt_stdio_output::string_output_adapter<wchar_t> > >::set_flag(unsigned int)
FUNC 2bed4 4 0 __crt_stdio_output::output_processor<wchar_t,__crt_stdio_output::string_output_adapter<wchar_t>,__crt_stdio_output::positional_parameter_base<wchar_t,__crt_stdio_output::string_output_adapter<wchar_t> > >::set_flag(unsigned int)
FUNC 2bed8 4 0 __crt_stdio_output::output_processor<wchar_t,__crt_stdio_output::string_output_adapter<wchar_t>,__crt_stdio_output::standard_base<wchar_t,__crt_stdio_output::string_output_adapter<wchar_t> > >::set_flag(unsigned int)
FUNC 2bedc 18 0 __crt_stdio_output::positional_parameter_base<char,__crt_stdio_output::stream_output_adapter<char> >::should_format()
FUNC 2befc 18 0 __crt_stdio_output::positional_parameter_base<char,__crt_stdio_output::string_output_adapter<char> >::should_format()
FUNC 2bf1c 18 0 __crt_stdio_output::positional_parameter_base<wchar_t,__crt_stdio_output::stream_output_adapter<wchar_t> >::should_format()
FUNC 2bf3c 18 0 __crt_stdio_output::positional_parameter_base<wchar_t,__crt_stdio_output::string_output_adapter<wchar_t> >::should_format()
FUNC 2bf5c 3 0 __crt_stdio_output::standard_base<char,__crt_stdio_output::stream_output_adapter<char> >::should_format()
FUNC 2bf60 3 0 __crt_stdio_output::standard_base<char,__crt_stdio_output::string_output_adapter<char> >::should_format()
FUNC 2bf64 3 0 __crt_stdio_output::standard_base<wchar_t,__crt_stdio_output::stream_output_adapter<wchar_t> >::should_format()
FUNC 2bf68 3 0 __crt_stdio_output::standard_base<wchar_t,__crt_stdio_output::string_output_adapter<wchar_t> >::should_format()
FUNC 2bf6c 28 0 __crt_stdio_output::positional_parameter_base<char,__crt_stdio_output::stream_output_adapter<char> >::should_skip_normal_state_processing()
FUNC 2bfa0 28 0 __crt_stdio_output::positional_parameter_base<char,__crt_stdio_output::string_output_adapter<char> >::should_skip_normal_state_processing()
FUNC 2bfd4 28 0 __crt_stdio_output::positional_parameter_base<wchar_t,__crt_stdio_output::stream_output_adapter<wchar_t> >::should_skip_normal_state_processing()
FUNC 2c008 28 0 __crt_stdio_output::positional_parameter_base<wchar_t,__crt_stdio_output::string_output_adapter<wchar_t> >::should_skip_normal_state_processing()
FUNC 2c03c 3 0 __crt_stdio_output::standard_base<char,__crt_stdio_output::stream_output_adapter<char> >::should_skip_normal_state_processing()
FUNC 2c040 3 0 __crt_stdio_output::standard_base<char,__crt_stdio_output::string_output_adapter<char> >::should_skip_normal_state_processing()
FUNC 2c044 3 0 __crt_stdio_output::standard_base<wchar_t,__crt_stdio_output::stream_output_adapter<wchar_t> >::should_skip_normal_state_processing()
FUNC 2c048 3 0 __crt_stdio_output::standard_base<wchar_t,__crt_stdio_output::string_output_adapter<wchar_t> >::should_skip_normal_state_processing()
FUNC 2c04c 19 0 __crt_stdio_output::positional_parameter_base<char,__crt_stdio_output::stream_output_adapter<char> >::should_skip_type_state_output()
FUNC 2c06c 19 0 __crt_stdio_output::positional_parameter_base<char,__crt_stdio_output::string_output_adapter<char> >::should_skip_type_state_output()
FUNC 2c08c 19 0 __crt_stdio_output::positional_parameter_base<wchar_t,__crt_stdio_output::stream_output_adapter<wchar_t> >::should_skip_type_state_output()
FUNC 2c0ac 19 0 __crt_stdio_output::positional_parameter_base<wchar_t,__crt_stdio_output::string_output_adapter<wchar_t> >::should_skip_type_state_output()
FUNC 2c0cc 3 0 __crt_stdio_output::standard_base<char,__crt_stdio_output::stream_output_adapter<char> >::should_skip_type_state_output()
FUNC 2c0d0 3 0 __crt_stdio_output::standard_base<char,__crt_stdio_output::string_output_adapter<char> >::should_skip_type_state_output()
FUNC 2c0d4 3 0 __crt_stdio_output::standard_base<wchar_t,__crt_stdio_output::stream_output_adapter<wchar_t> >::should_skip_type_state_output()
FUNC 2c0d8 3 0 __crt_stdio_output::standard_base<wchar_t,__crt_stdio_output::string_output_adapter<wchar_t> >::should_skip_type_state_output()
FUNC 2c0dc 7 0 __crt_stdio_output::output_processor<char,__crt_stdio_output::stream_output_adapter<char>,__crt_stdio_output::format_validation_base<char,__crt_stdio_output::stream_output_adapter<char> > >::state_case_dot()
FUNC 2c0e4 7 0 __crt_stdio_output::output_processor<char,__crt_stdio_output::stream_output_adapter<char>,__crt_stdio_output::positional_parameter_base<char,__crt_stdio_output::stream_output_adapter<char> > >::state_case_dot()
FUNC 2c0ec 7 0 __crt_stdio_output::output_processor<char,__crt_stdio_output::stream_output_adapter<char>,__crt_stdio_output::standard_base<char,__crt_stdio_output::stream_output_adapter<char> > >::state_case_dot()
FUNC 2c0f4 7 0 __crt_stdio_output::output_processor<char,__crt_stdio_output::string_output_adapter<char>,__crt_stdio_output::format_validation_base<char,__crt_stdio_output::string_output_adapter<char> > >::state_case_dot()
FUNC 2c0fc 7 0 __crt_stdio_output::output_processor<char,__crt_stdio_output::string_output_adapter<char>,__crt_stdio_output::positional_parameter_base<char,__crt_stdio_output::string_output_adapter<char> > >::state_case_dot()
FUNC 2c104 7 0 __crt_stdio_output::output_processor<char,__crt_stdio_output::string_output_adapter<char>,__crt_stdio_output::standard_base<char,__crt_stdio_output::string_output_adapter<char> > >::state_case_dot()
FUNC 2c10c 7 0 __crt_stdio_output::output_processor<wchar_t,__crt_stdio_output::stream_output_adapter<wchar_t>,__crt_stdio_output::format_validation_base<wchar_t,__crt_stdio_output::stream_output_adapter<wchar_t> > >::state_case_dot()
FUNC 2c114 7 0 __crt_stdio_output::output_processor<wchar_t,__crt_stdio_output::stream_output_adapter<wchar_t>,__crt_stdio_output::positional_parameter_base<wchar_t,__crt_stdio_output::stream_output_adapter<wchar_t> > >::state_case_dot()
FUNC 2c11c 7 0 __crt_stdio_output::output_processor<wchar_t,__crt_stdio_output::stream_output_adapter<wchar_t>,__crt_stdio_output::standard_base<wchar_t,__crt_stdio_output::stream_output_adapter<wchar_t> > >::state_case_dot()
FUNC 2c124 7 0 __crt_stdio_output::output_processor<wchar_t,__crt_stdio_output::string_output_adapter<wchar_t>,__crt_stdio_output::format_validation_base<wchar_t,__crt_stdio_output::string_output_adapter<wchar_t> > >::state_case_dot()
FUNC 2c12c 7 0 __crt_stdio_output::output_processor<wchar_t,__crt_stdio_output::string_output_adapter<wchar_t>,__crt_stdio_output::positional_parameter_base<wchar_t,__crt_stdio_output::string_output_adapter<wchar_t> > >::state_case_dot()
FUNC 2c134 7 0 __crt_stdio_output::output_processor<wchar_t,__crt_stdio_output::string_output_adapter<wchar_t>,__crt_stdio_output::standard_base<wchar_t,__crt_stdio_output::string_output_adapter<wchar_t> > >::state_case_dot()
FUNC 2c13c 36 0 __crt_stdio_output::output_processor<char,__crt_stdio_output::stream_output_adapter<char>,__crt_stdio_output::format_validation_base<char,__crt_stdio_output::stream_output_adapter<char> > >::state_case_flag()
FUNC 2c180 36 0 __crt_stdio_output::output_processor<char,__crt_stdio_output::stream_output_adapter<char>,__crt_stdio_output::positional_parameter_base<char,__crt_stdio_output::stream_output_adapter<char> > >::state_case_flag()
FUNC 2c1c4 36 0 __crt_stdio_output::output_processor<char,__crt_stdio_output::stream_output_adapter<char>,__crt_stdio_output::standard_base<char,__crt_stdio_output::stream_output_adapter<char> > >::state_case_flag()
FUNC 2c208 36 0 __crt_stdio_output::output_processor<char,__crt_stdio_output::string_output_adapter<char>,__crt_stdio_output::format_validation_base<char,__crt_stdio_output::string_output_adapter<char> > >::state_case_flag()
FUNC 2c24c 36 0 __crt_stdio_output::output_processor<char,__crt_stdio_output::string_output_adapter<char>,__crt_stdio_output::positional_parameter_base<char,__crt_stdio_output::string_output_adapter<char> > >::state_case_flag()
FUNC 2c290 36 0 __crt_stdio_output::output_processor<char,__crt_stdio_output::string_output_adapter<char>,__crt_stdio_output::standard_base<char,__crt_stdio_output::string_output_adapter<char> > >::state_case_flag()
FUNC 2c2d4 44 0 __crt_stdio_output::output_processor<wchar_t,__crt_stdio_output::stream_output_adapter<wchar_t>,__crt_stdio_output::format_validation_base<wchar_t,__crt_stdio_output::stream_output_adapter<wchar_t> > >::state_case_flag()
FUNC 2c32c 44 0 __crt_stdio_output::output_processor<wchar_t,__crt_stdio_output::stream_output_adapter<wchar_t>,__crt_stdio_output::positional_parameter_base<wchar_t,__crt_stdio_output::stream_output_adapter<wchar_t> > >::state_case_flag()
FUNC 2c384 44 0 __crt_stdio_output::output_processor<wchar_t,__crt_stdio_output::stream_output_adapter<wchar_t>,__crt_stdio_output::standard_base<wchar_t,__crt_stdio_output::stream_output_adapter<wchar_t> > >::state_case_flag()
FUNC 2c3dc 44 0 __crt_stdio_output::output_processor<wchar_t,__crt_stdio_output::string_output_adapter<wchar_t>,__crt_stdio_output::format_validation_base<wchar_t,__crt_stdio_output::string_output_adapter<wchar_t> > >::state_case_flag()
FUNC 2c434 44 0 __crt_stdio_output::output_processor<wchar_t,__crt_stdio_output::string_output_adapter<wchar_t>,__crt_stdio_output::positional_parameter_base<wchar_t,__crt_stdio_output::string_output_adapter<wchar_t> > >::state_case_flag()
FUNC 2c48c 44 0 __crt_stdio_output::output_processor<wchar_t,__crt_stdio_output::string_output_adapter<wchar_t>,__crt_stdio_output::standard_base<wchar_t,__crt_stdio_output::string_output_adapter<wchar_t> > >::state_case_flag()
FUNC 2c4e4 70 0 __crt_stdio_output::output_processor<char,__crt_stdio_output::stream_output_adapter<char>,__crt_stdio_output::format_validation_base<char,__crt_stdio_output::stream_output_adapter<char> > >::state_case_normal()
FUNC 2c570 94 0 __crt_stdio_output::output_processor<char,__crt_stdio_output::stream_output_adapter<char>,__crt_stdio_output::positional_parameter_base<char,__crt_stdio_output::stream_output_adapter<char> > >::state_case_normal()
FUNC 2c62c 70 0 __crt_stdio_output::output_processor<char,__crt_stdio_output::stream_output_adapter<char>,__crt_stdio_output::standard_base<char,__crt_stdio_output::stream_output_adapter<char> > >::state_case_normal()
FUNC 2c6b8 74 0 __crt_stdio_output::output_processor<char,__crt_stdio_output::string_output_adapter<char>,__crt_stdio_output::format_validation_base<char,__crt_stdio_output::string_output_adapter<char> > >::state_case_normal()
FUNC 2c74c 98 0 __crt_stdio_output::output_processor<char,__crt_stdio_output::string_output_adapter<char>,__crt_stdio_output::positional_parameter_base<char,__crt_stdio_output::string_output_adapter<char> > >::state_case_normal()
FUNC 2c80c 74 0 __crt_stdio_output::output_processor<char,__crt_stdio_output::string_output_adapter<char>,__crt_stdio_output::standard_base<char,__crt_stdio_output::string_output_adapter<char> > >::state_case_normal()
FUNC 2c8a0 58 0 __crt_stdio_output::output_processor<wchar_t,__crt_stdio_output::stream_output_adapter<wchar_t>,__crt_stdio_output::format_validation_base<wchar_t,__crt_stdio_output::stream_output_adapter<wchar_t> > >::state_case_normal()
FUNC 2c910 7c 0 __crt_stdio_output::output_processor<wchar_t,__crt_stdio_output::stream_output_adapter<wchar_t>,__crt_stdio_output::positional_parameter_base<wchar_t,__crt_stdio_output::stream_output_adapter<wchar_t> > >::state_case_normal()
FUNC 2c9ac 58 0 __crt_stdio_output::output_processor<wchar_t,__crt_stdio_output::stream_output_adapter<wchar_t>,__crt_stdio_output::standard_base<wchar_t,__crt_stdio_output::stream_output_adapter<wchar_t> > >::state_case_normal()
FUNC 2ca1c 54 0 __crt_stdio_output::output_processor<wchar_t,__crt_stdio_output::string_output_adapter<wchar_t>,__crt_stdio_output::format_validation_base<wchar_t,__crt_stdio_output::string_output_adapter<wchar_t> > >::state_case_normal()
FUNC 2ca88 78 0 __crt_stdio_output::output_processor<wchar_t,__crt_stdio_output::string_output_adapter<wchar_t>,__crt_stdio_output::positional_parameter_base<wchar_t,__crt_stdio_output::string_output_adapter<wchar_t> > >::state_case_normal()
FUNC 2cb20 54 0 __crt_stdio_output::output_processor<wchar_t,__crt_stdio_output::string_output_adapter<wchar_t>,__crt_stdio_output::standard_base<wchar_t,__crt_stdio_output::string_output_adapter<wchar_t> > >::state_case_normal()
FUNC 2cb8c 5c 0 __crt_stdio_output::output_processor<char,__crt_stdio_output::stream_output_adapter<char>,__crt_stdio_output::format_validation_base<char,__crt_stdio_output::stream_output_adapter<char> > >::state_case_normal_common()
FUNC 2cc00 5c 0 __crt_stdio_output::output_processor<char,__crt_stdio_output::stream_output_adapter<char>,__crt_stdio_output::positional_parameter_base<char,__crt_stdio_output::stream_output_adapter<char> > >::state_case_normal_common()
FUNC 2cc74 5c 0 __crt_stdio_output::output_processor<char,__crt_stdio_output::stream_output_adapter<char>,__crt_stdio_output::standard_base<char,__crt_stdio_output::stream_output_adapter<char> > >::state_case_normal_common()
FUNC 2cce8 60 0 __crt_stdio_output::output_processor<char,__crt_stdio_output::string_output_adapter<char>,__crt_stdio_output::format_validation_base<char,__crt_stdio_output::string_output_adapter<char> > >::state_case_normal_common()
FUNC 2cd60 60 0 __crt_stdio_output::output_processor<char,__crt_stdio_output::string_output_adapter<char>,__crt_stdio_output::positional_parameter_base<char,__crt_stdio_output::string_output_adapter<char> > >::state_case_normal_common()
FUNC 2cdd8 60 0 __crt_stdio_output::output_processor<char,__crt_stdio_output::string_output_adapter<char>,__crt_stdio_output::standard_base<char,__crt_stdio_output::string_output_adapter<char> > >::state_case_normal_common()
FUNC 2ce50 58 0 __crt_stdio_output::output_processor<wchar_t,__crt_stdio_output::stream_output_adapter<wchar_t>,__crt_stdio_output::format_validation_base<wchar_t,__crt_stdio_output::stream_output_adapter<wchar_t> > >::state_case_normal_common()
FUNC 2cec0 58 0 __crt_stdio_output::output_processor<wchar_t,__crt_stdio_output::stream_output_adapter<wchar_t>,__crt_stdio_output::positional_parameter_base<wchar_t,__crt_stdio_output::stream_output_adapter<wchar_t> > >::state_case_normal_common()
FUNC 2cf30 58 0 __crt_stdio_output::output_processor<wchar_t,__crt_stdio_output::stream_output_adapter<wchar_t>,__crt_stdio_output::standard_base<wchar_t,__crt_stdio_output::stream_output_adapter<wchar_t> > >::state_case_normal_common()
FUNC 2cfa0 54 0 __crt_stdio_output::output_processor<wchar_t,__crt_stdio_output::string_output_adapter<wchar_t>,__crt_stdio_output::format_validation_base<wchar_t,__crt_stdio_output::string_output_adapter<wchar_t> > >::state_case_normal_common()
FUNC 2d00c 54 0 __crt_stdio_output::output_processor<wchar_t,__crt_stdio_output::string_output_adapter<wchar_t>,__crt_stdio_output::positional_parameter_base<wchar_t,__crt_stdio_output::string_output_adapter<wchar_t> > >::state_case_normal_common()
FUNC 2d078 54 0 __crt_stdio_output::output_processor<wchar_t,__crt_stdio_output::string_output_adapter<wchar_t>,__crt_stdio_output::standard_base<wchar_t,__crt_stdio_output::string_output_adapter<wchar_t> > >::state_case_normal_common()
FUNC 2d0e4 a2 0 __crt_stdio_output::output_processor<char,__crt_stdio_output::stream_output_adapter<char>,__crt_stdio_output::format_validation_base<char,__crt_stdio_output::stream_output_adapter<char> > >::state_case_normal_tchar(char)
FUNC 2d1b0 a2 0 __crt_stdio_output::output_processor<char,__crt_stdio_output::stream_output_adapter<char>,__crt_stdio_output::positional_parameter_base<char,__crt_stdio_output::stream_output_adapter<char> > >::state_case_normal_tchar(char)
FUNC 2d27c a2 0 __crt_stdio_output::output_processor<char,__crt_stdio_output::stream_output_adapter<char>,__crt_stdio_output::standard_base<char,__crt_stdio_output::stream_output_adapter<char> > >::state_case_normal_tchar(char)
FUNC 2d348 a8 0 __crt_stdio_output::output_processor<char,__crt_stdio_output::string_output_adapter<char>,__crt_stdio_output::format_validation_base<char,__crt_stdio_output::string_output_adapter<char> > >::state_case_normal_tchar(char)
FUNC 2d41c a8 0 __crt_stdio_output::output_processor<char,__crt_stdio_output::string_output_adapter<char>,__crt_stdio_output::positional_parameter_base<char,__crt_stdio_output::string_output_adapter<char> > >::state_case_normal_tchar(char)
FUNC 2d4f0 a8 0 __crt_stdio_output::output_processor<char,__crt_stdio_output::string_output_adapter<char>,__crt_stdio_output::standard_base<char,__crt_stdio_output::string_output_adapter<char> > >::state_case_normal_tchar(char)
FUNC 2d5c4 7 0 __crt_stdio_output::output_processor<wchar_t,__crt_stdio_output::stream_output_adapter<wchar_t>,__crt_stdio_output::format_validation_base<wchar_t,__crt_stdio_output::stream_output_adapter<wchar_t> > >::state_case_normal_tchar(wchar_t)
FUNC 2d5cc 7 0 __crt_stdio_output::output_processor<wchar_t,__crt_stdio_output::stream_output_adapter<wchar_t>,__crt_stdio_output::positional_parameter_base<wchar_t,__crt_stdio_output::stream_output_adapter<wchar_t> > >::state_case_normal_tchar(wchar_t)
FUNC 2d5d4 7 0 __crt_stdio_output::output_processor<wchar_t,__crt_stdio_output::stream_output_adapter<wchar_t>,__crt_stdio_output::standard_base<wchar_t,__crt_stdio_output::stream_output_adapter<wchar_t> > >::state_case_normal_tchar(wchar_t)
FUNC 2d5dc 7 0 __crt_stdio_output::output_processor<wchar_t,__crt_stdio_output::string_output_adapter<wchar_t>,__crt_stdio_output::format_validation_base<wchar_t,__crt_stdio_output::string_output_adapter<wchar_t> > >::state_case_normal_tchar(wchar_t)
FUNC 2d5e4 7 0 __crt_stdio_output::output_processor<wchar_t,__crt_stdio_output::string_output_adapter<wchar_t>,__crt_stdio_output::positional_parameter_base<wchar_t,__crt_stdio_output::string_output_adapter<wchar_t> > >::state_case_normal_tchar(wchar_t)
FUNC 2d5ec 7 0 __crt_stdio_output::output_processor<wchar_t,__crt_stdio_output::string_output_adapter<wchar_t>,__crt_stdio_output::standard_base<wchar_t,__crt_stdio_output::string_output_adapter<wchar_t> > >::state_case_normal_tchar(wchar_t)
FUNC 2d5f4 16 0 __crt_stdio_output::output_processor<char,__crt_stdio_output::stream_output_adapter<char>,__crt_stdio_output::format_validation_base<char,__crt_stdio_output::stream_output_adapter<char> > >::state_case_percent()
FUNC 2d610 16 0 __crt_stdio_output::output_processor<char,__crt_stdio_output::stream_output_adapter<char>,__crt_stdio_output::positional_parameter_base<char,__crt_stdio_output::stream_output_adapter<char> > >::state_case_percent()
FUNC 2d62c 16 0 __crt_stdio_output::output_processor<char,__crt_stdio_output::stream_output_adapter<char>,__crt_stdio_output::standard_base<char,__crt_stdio_output::stream_output_adapter<char> > >::state_case_percent()
FUNC 2d648 16 0 __crt_stdio_output::output_processor<char,__crt_stdio_output::string_output_adapter<char>,__crt_stdio_output::format_validation_base<char,__crt_stdio_output::string_output_adapter<char> > >::state_case_percent()
FUNC 2d664 16 0 __crt_stdio_output::output_processor<char,__crt_stdio_output::string_output_adapter<char>,__crt_stdio_output::positional_parameter_base<char,__crt_stdio_output::string_output_adapter<char> > >::state_case_percent()
FUNC 2d680 16 0 __crt_stdio_output::output_processor<char,__crt_stdio_output::string_output_adapter<char>,__crt_stdio_output::standard_base<char,__crt_stdio_output::string_output_adapter<char> > >::state_case_percent()
FUNC 2d69c 16 0 __crt_stdio_output::output_processor<wchar_t,__crt_stdio_output::stream_output_adapter<wchar_t>,__crt_stdio_output::format_validation_base<wchar_t,__crt_stdio_output::stream_output_adapter<wchar_t> > >::state_case_percent()
FUNC 2d6b8 16 0 __crt_stdio_output::output_processor<wchar_t,__crt_stdio_output::stream_output_adapter<wchar_t>,__crt_stdio_output::positional_parameter_base<wchar_t,__crt_stdio_output::stream_output_adapter<wchar_t> > >::state_case_percent()
FUNC 2d6d4 16 0 __crt_stdio_output::output_processor<wchar_t,__crt_stdio_output::stream_output_adapter<wchar_t>,__crt_stdio_output::standard_base<wchar_t,__crt_stdio_output::stream_output_adapter<wchar_t> > >::state_case_percent()
FUNC 2d6f0 16 0 __crt_stdio_output::output_processor<wchar_t,__crt_stdio_output::string_output_adapter<wchar_t>,__crt_stdio_output::format_validation_base<wchar_t,__crt_stdio_output::string_output_adapter<wchar_t> > >::state_case_percent()
FUNC 2d70c 16 0 __crt_stdio_output::output_processor<wchar_t,__crt_stdio_output::string_output_adapter<wchar_t>,__crt_stdio_output::positional_parameter_base<wchar_t,__crt_stdio_output::string_output_adapter<wchar_t> > >::state_case_percent()
FUNC 2d728 16 0 __crt_stdio_output::output_processor<wchar_t,__crt_stdio_output::string_output_adapter<wchar_t>,__crt_stdio_output::standard_base<wchar_t,__crt_stdio_output::string_output_adapter<wchar_t> > >::state_case_percent()
FUNC 2d744 27 0 __crt_stdio_output::output_processor<char,__crt_stdio_output::stream_output_adapter<char>,__crt_stdio_output::format_validation_base<char,__crt_stdio_output::stream_output_adapter<char> > >::state_case_precision()
FUNC 2d774 4a 0 __crt_stdio_output::output_processor<char,__crt_stdio_output::stream_output_adapter<char>,__crt_stdio_output::positional_parameter_base<char,__crt_stdio_output::stream_output_adapter<char> > >::state_case_precision()
FUNC 2d7d0 27 0 __crt_stdio_output::output_processor<char,__crt_stdio_output::stream_output_adapter<char>,__crt_stdio_output::standard_base<char,__crt_stdio_output::stream_output_adapter<char> > >::state_case_precision()
FUNC 2d800 27 0 __crt_stdio_output::output_processor<char,__crt_stdio_output::string_output_adapter<char>,__crt_stdio_output::format_validation_base<char,__crt_stdio_output::string_output_adapter<char> > >::state_case_precision()
FUNC 2d830 4a 0 __crt_stdio_output::output_processor<char,__crt_stdio_output::string_output_adapter<char>,__crt_stdio_output::positional_parameter_base<char,__crt_stdio_output::string_output_adapter<char> > >::state_case_precision()
FUNC 2d88c 27 0 __crt_stdio_output::output_processor<char,__crt_stdio_output::string_output_adapter<char>,__crt_stdio_output::standard_base<char,__crt_stdio_output::string_output_adapter<char> > >::state_case_precision()
FUNC 2d8bc 28 0 __crt_stdio_output::output_processor<wchar_t,__crt_stdio_output::stream_output_adapter<wchar_t>,__crt_stdio_output::format_validation_base<wchar_t,__crt_stdio_output::stream_output_adapter<wchar_t> > >::state_case_precision()
FUNC 2d8f0 4b 0 __crt_stdio_output::output_processor<wchar_t,__crt_stdio_output::stream_output_adapter<wchar_t>,__crt_stdio_output::positional_parameter_base<wchar_t,__crt_stdio_output::stream_output_adapter<wchar_t> > >::state_case_precision()
FUNC 2d950 28 0 __crt_stdio_output::output_processor<wchar_t,__crt_stdio_output::stream_output_adapter<wchar_t>,__crt_stdio_output::standard_base<wchar_t,__crt_stdio_output::stream_output_adapter<wchar_t> > >::state_case_precision()
FUNC 2d984 28 0 __crt_stdio_output::output_processor<wchar_t,__crt_stdio_output::string_output_adapter<wchar_t>,__crt_stdio_output::format_validation_base<wchar_t,__crt_stdio_output::string_output_adapter<wchar_t> > >::state_case_precision()
FUNC 2d9b8 4b 0 __crt_stdio_output::output_processor<wchar_t,__crt_stdio_output::string_output_adapter<wchar_t>,__crt_stdio_output::positional_parameter_base<wchar_t,__crt_stdio_output::string_output_adapter<wchar_t> > >::state_case_precision()
FUNC 2da18 28 0 __crt_stdio_output::output_processor<wchar_t,__crt_stdio_output::string_output_adapter<wchar_t>,__crt_stdio_output::standard_base<wchar_t,__crt_stdio_output::string_output_adapter<wchar_t> > >::state_case_precision()
FUNC 2da4c 171 0 __crt_stdio_output::output_processor<char,__crt_stdio_output::stream_output_adapter<char>,__crt_stdio_output::format_validation_base<char,__crt_stdio_output::stream_output_adapter<char> > >::state_case_size()
FUNC 2dc1c 171 0 __crt_stdio_output::output_processor<char,__crt_stdio_output::stream_output_adapter<char>,__crt_stdio_output::positional_parameter_base<char,__crt_stdio_output::stream_output_adapter<char> > >::state_case_size()
FUNC 2ddec 171 0 __crt_stdio_output::output_processor<char,__crt_stdio_output::stream_output_adapter<char>,__crt_stdio_output::standard_base<char,__crt_stdio_output::stream_output_adapter<char> > >::state_case_size()
FUNC 2dfbc 171 0 __crt_stdio_output::output_processor<char,__crt_stdio_output::string_output_adapter<char>,__crt_stdio_output::format_validation_base<char,__crt_stdio_output::string_output_adapter<char> > >::state_case_size()
FUNC 2e18c 171 0 __crt_stdio_output::output_processor<char,__crt_stdio_output::string_output_adapter<char>,__crt_stdio_output::positional_parameter_base<char,__crt_stdio_output::string_output_adapter<char> > >::state_case_size()
FUNC 2e35c 171 0 __crt_stdio_output::output_processor<char,__crt_stdio_output::string_output_adapter<char>,__crt_stdio_output::standard_base<char,__crt_stdio_output::string_output_adapter<char> > >::state_case_size()
FUNC 2e52c 196 0 __crt_stdio_output::output_processor<wchar_t,__crt_stdio_output::stream_output_adapter<wchar_t>,__crt_stdio_output::format_validation_base<wchar_t,__crt_stdio_output::stream_output_adapter<wchar_t> > >::state_case_size()
FUNC 2e728 196 0 __crt_stdio_output::output_processor<wchar_t,__crt_stdio_output::stream_output_adapter<wchar_t>,__crt_stdio_output::positional_parameter_base<wchar_t,__crt_stdio_output::stream_output_adapter<wchar_t> > >::state_case_size()
FUNC 2e924 196 0 __crt_stdio_output::output_processor<wchar_t,__crt_stdio_output::stream_output_adapter<wchar_t>,__crt_stdio_output::standard_base<wchar_t,__crt_stdio_output::stream_output_adapter<wchar_t> > >::state_case_size()
FUNC 2eb20 196 0 __crt_stdio_output::output_processor<wchar_t,__crt_stdio_output::string_output_adapter<wchar_t>,__crt_stdio_output::format_validation_base<wchar_t,__crt_stdio_output::string_output_adapter<wchar_t> > >::state_case_size()
FUNC 2ed1c 196 0 __crt_stdio_output::output_processor<wchar_t,__crt_stdio_output::string_output_adapter<wchar_t>,__crt_stdio_output::positional_parameter_base<wchar_t,__crt_stdio_output::string_output_adapter<wchar_t> > >::state_case_size()
FUNC 2ef18 196 0 __crt_stdio_output::output_processor<wchar_t,__crt_stdio_output::string_output_adapter<wchar_t>,__crt_stdio_output::standard_base<wchar_t,__crt_stdio_output::string_output_adapter<wchar_t> > >::state_case_size()
FUNC 2f114 284 0 __crt_stdio_output::output_processor<char,__crt_stdio_output::stream_output_adapter<char>,__crt_stdio_output::format_validation_base<char,__crt_stdio_output::stream_output_adapter<char> > >::state_case_type()
FUNC 2f43c 29a 0 __crt_stdio_output::output_processor<char,__crt_stdio_output::stream_output_adapter<char>,__crt_stdio_output::positional_parameter_base<char,__crt_stdio_output::stream_output_adapter<char> > >::state_case_type()
FUNC 2f77c 284 0 __crt_stdio_output::output_processor<char,__crt_stdio_output::stream_output_adapter<char>,__crt_stdio_output::standard_base<char,__crt_stdio_output::stream_output_adapter<char> > >::state_case_type()
FUNC 2faa4 266 0 __crt_stdio_output::output_processor<char,__crt_stdio_output::string_output_adapter<char>,__crt_stdio_output::format_validation_base<char,__crt_stdio_output::string_output_adapter<char> > >::state_case_type()
FUNC 2fda4 27c 0 __crt_stdio_output::output_processor<char,__crt_stdio_output::string_output_adapter<char>,__crt_stdio_output::positional_parameter_base<char,__crt_stdio_output::string_output_adapter<char> > >::state_case_type()
FUNC 300c0 266 0 __crt_stdio_output::output_processor<char,__crt_stdio_output::string_output_adapter<char>,__crt_stdio_output::standard_base<char,__crt_stdio_output::string_output_adapter<char> > >::state_case_type()
FUNC 303c0 2dd 0 __crt_stdio_output::output_processor<wchar_t,__crt_stdio_output::stream_output_adapter<wchar_t>,__crt_stdio_output::format_validation_base<wchar_t,__crt_stdio_output::stream_output_adapter<wchar_t> > >::state_case_type()
FUNC 30754 2f3 0 __crt_stdio_output::output_processor<wchar_t,__crt_stdio_output::stream_output_adapter<wchar_t>,__crt_stdio_output::positional_parameter_base<wchar_t,__crt_stdio_output::stream_output_adapter<wchar_t> > >::state_case_type()
FUNC 30b04 2dd 0 __crt_stdio_output::output_processor<wchar_t,__crt_stdio_output::stream_output_adapter<wchar_t>,__crt_stdio_output::standard_base<wchar_t,__crt_stdio_output::stream_output_adapter<wchar_t> > >::state_case_type()
FUNC 30e98 2ca 0 __crt_stdio_output::output_processor<wchar_t,__crt_stdio_output::string_output_adapter<wchar_t>,__crt_stdio_output::format_validation_base<wchar_t,__crt_stdio_output::string_output_adapter<wchar_t> > >::state_case_type()
FUNC 31214 2e0 0 __crt_stdio_output::output_processor<wchar_t,__crt_stdio_output::string_output_adapter<wchar_t>,__crt_stdio_output::positional_parameter_base<wchar_t,__crt_stdio_output::string_output_adapter<wchar_t> > >::state_case_type()
FUNC 315ac 2ca 0 __crt_stdio_output::output_processor<wchar_t,__crt_stdio_output::string_output_adapter<wchar_t>,__crt_stdio_output::standard_base<wchar_t,__crt_stdio_output::string_output_adapter<wchar_t> > >::state_case_type()
FUNC 31928 31 0 __crt_stdio_output::output_processor<char,__crt_stdio_output::stream_output_adapter<char>,__crt_stdio_output::format_validation_base<char,__crt_stdio_output::stream_output_adapter<char> > >::state_case_width()
FUNC 31968 50 0 __crt_stdio_output::output_processor<char,__crt_stdio_output::stream_output_adapter<char>,__crt_stdio_output::positional_parameter_base<char,__crt_stdio_output::stream_output_adapter<char> > >::state_case_width()
FUNC 319cc 31 0 __crt_stdio_output::output_processor<char,__crt_stdio_output::stream_output_adapter<char>,__crt_stdio_output::standard_base<char,__crt_stdio_output::stream_output_adapter<char> > >::state_case_width()
FUNC 31a0c 31 0 __crt_stdio_output::output_processor<char,__crt_stdio_output::string_output_adapter<char>,__crt_stdio_output::format_validation_base<char,__crt_stdio_output::string_output_adapter<char> > >::state_case_width()
FUNC 31a4c 50 0 __crt_stdio_output::output_processor<char,__crt_stdio_output::string_output_adapter<char>,__crt_stdio_output::positional_parameter_base<char,__crt_stdio_output::string_output_adapter<char> > >::state_case_width()
FUNC 31ab0 31 0 __crt_stdio_output::output_processor<char,__crt_stdio_output::string_output_adapter<char>,__crt_stdio_output::standard_base<char,__crt_stdio_output::string_output_adapter<char> > >::state_case_width()
FUNC 31af0 32 0 __crt_stdio_output::output_processor<wchar_t,__crt_stdio_output::stream_output_adapter<wchar_t>,__crt_stdio_output::format_validation_base<wchar_t,__crt_stdio_output::stream_output_adapter<wchar_t> > >::state_case_width()
FUNC 31b30 51 0 __crt_stdio_output::output_processor<wchar_t,__crt_stdio_output::stream_output_adapter<wchar_t>,__crt_stdio_output::positional_parameter_base<wchar_t,__crt_stdio_output::stream_output_adapter<wchar_t> > >::state_case_width()
FUNC 31b98 32 0 __crt_stdio_output::output_processor<wchar_t,__crt_stdio_output::stream_output_adapter<wchar_t>,__crt_stdio_output::standard_base<wchar_t,__crt_stdio_output::stream_output_adapter<wchar_t> > >::state_case_width()
FUNC 31bd8 32 0 __crt_stdio_output::output_processor<wchar_t,__crt_stdio_output::string_output_adapter<wchar_t>,__crt_stdio_output::format_validation_base<wchar_t,__crt_stdio_output::string_output_adapter<wchar_t> > >::state_case_width()
FUNC 31c18 51 0 __crt_stdio_output::output_processor<wchar_t,__crt_stdio_output::string_output_adapter<wchar_t>,__crt_stdio_output::positional_parameter_base<wchar_t,__crt_stdio_output::string_output_adapter<wchar_t> > >::state_case_width()
FUNC 31c80 32 0 __crt_stdio_output::output_processor<wchar_t,__crt_stdio_output::string_output_adapter<wchar_t>,__crt_stdio_output::standard_base<wchar_t,__crt_stdio_output::string_output_adapter<wchar_t> > >::state_case_width()
FUNC 31cc0 6 0 __crt_stdio_output::format_validation_base<char,__crt_stdio_output::stream_output_adapter<char> >::state_count()
FUNC 31cc8 6 0 __crt_stdio_output::format_validation_base<char,__crt_stdio_output::string_output_adapter<char> >::state_count()
FUNC 31cd0 6 0 __crt_stdio_output::format_validation_base<wchar_t,__crt_stdio_output::stream_output_adapter<wchar_t> >::state_count()
FUNC 31cd8 6 0 __crt_stdio_output::format_validation_base<wchar_t,__crt_stdio_output::string_output_adapter<wchar_t> >::state_count()
FUNC 31ce0 6 0 __crt_stdio_output::standard_base<char,__crt_stdio_output::stream_output_adapter<char> >::state_count()
FUNC 31ce8 6 0 __crt_stdio_output::standard_base<char,__crt_stdio_output::string_output_adapter<char> >::state_count()
FUNC 31cf0 6 0 __crt_stdio_output::standard_base<wchar_t,__crt_stdio_output::stream_output_adapter<wchar_t> >::state_count()
FUNC 31cf8 6 0 __crt_stdio_output::standard_base<wchar_t,__crt_stdio_output::string_output_adapter<wchar_t> >::state_count()
FUNC 31d00 8 0 __crt_stdio_output::format_validation_base<char,__crt_stdio_output::stream_output_adapter<char> >::state_transition_table()
FUNC 31d0c 8 0 __crt_stdio_output::format_validation_base<char,__crt_stdio_output::string_output_adapter<char> >::state_transition_table()
FUNC 31d18 8 0 __crt_stdio_output::format_validation_base<wchar_t,__crt_stdio_output::stream_output_adapter<wchar_t> >::state_transition_table()
FUNC 31d24 8 0 __crt_stdio_output::format_validation_base<wchar_t,__crt_stdio_output::string_output_adapter<wchar_t> >::state_transition_table()
FUNC 31d30 8 0 __crt_stdio_output::standard_base<char,__crt_stdio_output::stream_output_adapter<char> >::state_transition_table()
FUNC 31d3c 8 0 __crt_stdio_output::standard_base<char,__crt_stdio_output::string_output_adapter<char> >::state_transition_table()
FUNC 31d48 8 0 __crt_stdio_output::standard_base<wchar_t,__crt_stdio_output::stream_output_adapter<wchar_t> >::state_transition_table()
FUNC 31d54 8 0 __crt_stdio_output::standard_base<wchar_t,__crt_stdio_output::string_output_adapter<wchar_t> >::state_transition_table()
FUNC 31d60 5 0 __crt_stdio_output::common_data<char>::tchar_string(char)
FUNC 31d68 5 0 __crt_stdio_output::common_data<char>::tchar_string()
FUNC 31d70 5 0 __crt_stdio_output::common_data<wchar_t>::tchar_string()
FUNC 31d78 5 0 __crt_stdio_output::common_data<wchar_t>::tchar_string(wchar_t)
FUNC 31d80 47 0 __crt_stdio_output::to_integer_size(__crt_stdio_output::length_modifier)
FUNC 31dd8 d 0 __crt_stdio_output::output_processor<char,__crt_stdio_output::stream_output_adapter<char>,__crt_stdio_output::format_validation_base<char,__crt_stdio_output::stream_output_adapter<char> > >::type_case_X()
FUNC 31de8 d 0 __crt_stdio_output::output_processor<char,__crt_stdio_output::stream_output_adapter<char>,__crt_stdio_output::positional_parameter_base<char,__crt_stdio_output::stream_output_adapter<char> > >::type_case_X()
FUNC 31df8 d 0 __crt_stdio_output::output_processor<char,__crt_stdio_output::stream_output_adapter<char>,__crt_stdio_output::standard_base<char,__crt_stdio_output::stream_output_adapter<char> > >::type_case_X()
FUNC 31e08 d 0 __crt_stdio_output::output_processor<char,__crt_stdio_output::string_output_adapter<char>,__crt_stdio_output::format_validation_base<char,__crt_stdio_output::string_output_adapter<char> > >::type_case_X()
FUNC 31e18 d 0 __crt_stdio_output::output_processor<char,__crt_stdio_output::string_output_adapter<char>,__crt_stdio_output::positional_parameter_base<char,__crt_stdio_output::string_output_adapter<char> > >::type_case_X()
FUNC 31e28 d 0 __crt_stdio_output::output_processor<char,__crt_stdio_output::string_output_adapter<char>,__crt_stdio_output::standard_base<char,__crt_stdio_output::string_output_adapter<char> > >::type_case_X()
FUNC 31e38 d 0 __crt_stdio_output::output_processor<wchar_t,__crt_stdio_output::stream_output_adapter<wchar_t>,__crt_stdio_output::format_validation_base<wchar_t,__crt_stdio_output::stream_output_adapter<wchar_t> > >::type_case_X()
FUNC 31e48 d 0 __crt_stdio_output::output_processor<wchar_t,__crt_stdio_output::stream_output_adapter<wchar_t>,__crt_stdio_output::positional_parameter_base<wchar_t,__crt_stdio_output::stream_output_adapter<wchar_t> > >::type_case_X()
FUNC 31e58 d 0 __crt_stdio_output::output_processor<wchar_t,__crt_stdio_output::stream_output_adapter<wchar_t>,__crt_stdio_output::standard_base<wchar_t,__crt_stdio_output::stream_output_adapter<wchar_t> > >::type_case_X()
FUNC 31e68 d 0 __crt_stdio_output::output_processor<wchar_t,__crt_stdio_output::string_output_adapter<wchar_t>,__crt_stdio_output::format_validation_base<wchar_t,__crt_stdio_output::string_output_adapter<wchar_t> > >::type_case_X()
FUNC 31e78 d 0 __crt_stdio_output::output_processor<wchar_t,__crt_stdio_output::string_output_adapter<wchar_t>,__crt_stdio_output::positional_parameter_base<wchar_t,__crt_stdio_output::string_output_adapter<wchar_t> > >::type_case_X()
FUNC 31e88 d 0 __crt_stdio_output::output_processor<wchar_t,__crt_stdio_output::string_output_adapter<wchar_t>,__crt_stdio_output::standard_base<wchar_t,__crt_stdio_output::string_output_adapter<wchar_t> > >::type_case_X()
FUNC 31e98 73 0 __crt_stdio_output::output_processor<char,__crt_stdio_output::stream_output_adapter<char>,__crt_stdio_output::format_validation_base<char,__crt_stdio_output::stream_output_adapter<char> > >::type_case_Z()
FUNC 31f28 158 0 __crt_stdio_output::output_processor<char,__crt_stdio_output::stream_output_adapter<char>,__crt_stdio_output::positional_parameter_base<char,__crt_stdio_output::stream_output_adapter<char> > >::type_case_Z()
FUNC 320d8 73 0 __crt_stdio_output::output_processor<char,__crt_stdio_output::stream_output_adapter<char>,__crt_stdio_output::standard_base<char,__crt_stdio_output::stream_output_adapter<char> > >::type_case_Z()
FUNC 32168 73 0 __crt_stdio_output::output_processor<char,__crt_stdio_output::string_output_adapter<char>,__crt_stdio_output::format_validation_base<char,__crt_stdio_output::string_output_adapter<char> > >::type_case_Z()
FUNC 321f8 158 0 __crt_stdio_output::output_processor<char,__crt_stdio_output::string_output_adapter<char>,__crt_stdio_output::positional_parameter_base<char,__crt_stdio_output::string_output_adapter<char> > >::type_case_Z()
FUNC 323a8 73 0 __crt_stdio_output::output_processor<char,__crt_stdio_output::string_output_adapter<char>,__crt_stdio_output::standard_base<char,__crt_stdio_output::string_output_adapter<char> > >::type_case_Z()
FUNC 32438 79 0 __crt_stdio_output::output_processor<wchar_t,__crt_stdio_output::stream_output_adapter<wchar_t>,__crt_stdio_output::format_validation_base<wchar_t,__crt_stdio_output::stream_output_adapter<wchar_t> > >::type_case_Z()
FUNC 324d0 13e 0 __crt_stdio_output::output_processor<wchar_t,__crt_stdio_output::stream_output_adapter<wchar_t>,__crt_stdio_output::positional_parameter_base<wchar_t,__crt_stdio_output::stream_output_adapter<wchar_t> > >::type_case_Z()
FUNC 32660 79 0 __crt_stdio_output::output_processor<wchar_t,__crt_stdio_output::stream_output_adapter<wchar_t>,__crt_stdio_output::standard_base<wchar_t,__crt_stdio_output::stream_output_adapter<wchar_t> > >::type_case_Z()
FUNC 326f8 79 0 __crt_stdio_output::output_processor<wchar_t,__crt_stdio_output::string_output_adapter<wchar_t>,__crt_stdio_output::format_validation_base<wchar_t,__crt_stdio_output::string_output_adapter<wchar_t> > >::type_case_Z()
FUNC 32790 13e 0 __crt_stdio_output::output_processor<wchar_t,__crt_stdio_output::string_output_adapter<wchar_t>,__crt_stdio_output::positional_parameter_base<wchar_t,__crt_stdio_output::string_output_adapter<wchar_t> > >::type_case_Z()
FUNC 32920 79 0 __crt_stdio_output::output_processor<wchar_t,__crt_stdio_output::string_output_adapter<wchar_t>,__crt_stdio_output::standard_base<wchar_t,__crt_stdio_output::string_output_adapter<wchar_t> > >::type_case_Z()
FUNC 329b8 215 0 __crt_stdio_output::output_processor<char,__crt_stdio_output::stream_output_adapter<char>,__crt_stdio_output::format_validation_base<char,__crt_stdio_output::stream_output_adapter<char> > >::type_case_a()
FUNC 32c54 252 0 __crt_stdio_output::output_processor<char,__crt_stdio_output::stream_output_adapter<char>,__crt_stdio_output::positional_parameter_base<char,__crt_stdio_output::stream_output_adapter<char> > >::type_case_a()
FUNC 32f3c 215 0 __crt_stdio_output::output_processor<char,__crt_stdio_output::stream_output_adapter<char>,__crt_stdio_output::standard_base<char,__crt_stdio_output::stream_output_adapter<char> > >::type_case_a()
FUNC 331d8 215 0 __crt_stdio_output::output_processor<char,__crt_stdio_output::string_output_adapter<char>,__crt_stdio_output::format_validation_base<char,__crt_stdio_output::string_output_adapter<char> > >::type_case_a()
FUNC 33474 252 0 __crt_stdio_output::output_processor<char,__crt_stdio_output::string_output_adapter<char>,__crt_stdio_output::positional_parameter_base<char,__crt_stdio_output::string_output_adapter<char> > >::type_case_a()
FUNC 3375c 215 0 __crt_stdio_output::output_processor<char,__crt_stdio_output::string_output_adapter<char>,__crt_stdio_output::standard_base<char,__crt_stdio_output::string_output_adapter<char> > >::type_case_a()
FUNC 339f8 239 0 __crt_stdio_output::output_processor<wchar_t,__crt_stdio_output::stream_output_adapter<wchar_t>,__crt_stdio_output::format_validation_base<wchar_t,__crt_stdio_output::stream_output_adapter<wchar_t> > >::type_case_a()
FUNC 33cc0 276 0 __crt_stdio_output::output_processor<wchar_t,__crt_stdio_output::stream_output_adapter<wchar_t>,__crt_stdio_output::positional_parameter_base<wchar_t,__crt_stdio_output::stream_output_adapter<wchar_t> > >::type_case_a()
FUNC 33fd4 239 0 __crt_stdio_output::output_processor<wchar_t,__crt_stdio_output::stream_output_adapter<wchar_t>,__crt_stdio_output::standard_base<wchar_t,__crt_stdio_output::stream_output_adapter<wchar_t> > >::type_case_a()
FUNC 3429c 239 0 __crt_stdio_output::output_processor<wchar_t,__crt_stdio_output::string_output_adapter<wchar_t>,__crt_stdio_output::format_validation_base<wchar_t,__crt_stdio_output::string_output_adapter<wchar_t> > >::type_case_a()
FUNC 34564 276 0 __crt_stdio_output::output_processor<wchar_t,__crt_stdio_output::string_output_adapter<wchar_t>,__crt_stdio_output::positional_parameter_base<wchar_t,__crt_stdio_output::string_output_adapter<wchar_t> > >::type_case_a()
FUNC 34878 239 0 __crt_stdio_output::output_processor<wchar_t,__crt_stdio_output::string_output_adapter<wchar_t>,__crt_stdio_output::standard_base<wchar_t,__crt_stdio_output::string_output_adapter<wchar_t> > >::type_case_a()
FUNC 34b40 7 0 __crt_stdio_output::output_processor<char,__crt_stdio_output::stream_output_adapter<char>,__crt_stdio_output::format_validation_base<char,__crt_stdio_output::stream_output_adapter<char> > >::type_case_c()
FUNC 34b48 7 0 __crt_stdio_output::output_processor<char,__crt_stdio_output::stream_output_adapter<char>,__crt_stdio_output::positional_parameter_base<char,__crt_stdio_output::stream_output_adapter<char> > >::type_case_c()
FUNC 34b50 7 0 __crt_stdio_output::output_processor<char,__crt_stdio_output::stream_output_adapter<char>,__crt_stdio_output::standard_base<char,__crt_stdio_output::stream_output_adapter<char> > >::type_case_c()
FUNC 34b58 7 0 __crt_stdio_output::output_processor<char,__crt_stdio_output::string_output_adapter<char>,__crt_stdio_output::format_validation_base<char,__crt_stdio_output::string_output_adapter<char> > >::type_case_c()
FUNC 34b60 7 0 __crt_stdio_output::output_processor<char,__crt_stdio_output::string_output_adapter<char>,__crt_stdio_output::positional_parameter_base<char,__crt_stdio_output::string_output_adapter<char> > >::type_case_c()
FUNC 34b68 7 0 __crt_stdio_output::output_processor<char,__crt_stdio_output::string_output_adapter<char>,__crt_stdio_output::standard_base<char,__crt_stdio_output::string_output_adapter<char> > >::type_case_c()
FUNC 34b70 7 0 __crt_stdio_output::output_processor<wchar_t,__crt_stdio_output::stream_output_adapter<wchar_t>,__crt_stdio_output::format_validation_base<wchar_t,__crt_stdio_output::stream_output_adapter<wchar_t> > >::type_case_c()
FUNC 34b78 7 0 __crt_stdio_output::output_processor<wchar_t,__crt_stdio_output::stream_output_adapter<wchar_t>,__crt_stdio_output::positional_parameter_base<wchar_t,__crt_stdio_output::stream_output_adapter<wchar_t> > >::type_case_c()
FUNC 34b80 7 0 __crt_stdio_output::output_processor<wchar_t,__crt_stdio_output::stream_output_adapter<wchar_t>,__crt_stdio_output::standard_base<wchar_t,__crt_stdio_output::stream_output_adapter<wchar_t> > >::type_case_c()
FUNC 34b88 7 0 __crt_stdio_output::output_processor<wchar_t,__crt_stdio_output::string_output_adapter<wchar_t>,__crt_stdio_output::format_validation_base<wchar_t,__crt_stdio_output::string_output_adapter<wchar_t> > >::type_case_c()
FUNC 34b90 7 0 __crt_stdio_output::output_processor<wchar_t,__crt_stdio_output::string_output_adapter<wchar_t>,__crt_stdio_output::positional_parameter_base<wchar_t,__crt_stdio_output::string_output_adapter<wchar_t> > >::type_case_c()
FUNC 34b98 7 0 __crt_stdio_output::output_processor<wchar_t,__crt_stdio_output::string_output_adapter<wchar_t>,__crt_stdio_output::standard_base<wchar_t,__crt_stdio_output::string_output_adapter<wchar_t> > >::type_case_c()
FUNC 34ba0 bc 0 __crt_stdio_output::output_processor<char,__crt_stdio_output::stream_output_adapter<char>,__crt_stdio_output::format_validation_base<char,__crt_stdio_output::stream_output_adapter<char> > >::type_case_c_tchar(char)
FUNC 34c8c ff 0 __crt_stdio_output::output_processor<char,__crt_stdio_output::stream_output_adapter<char>,__crt_stdio_output::positional_parameter_base<char,__crt_stdio_output::stream_output_adapter<char> > >::type_case_c_tchar(char)
FUNC 34dcc bc 0 __crt_stdio_output::output_processor<char,__crt_stdio_output::stream_output_adapter<char>,__crt_stdio_output::standard_base<char,__crt_stdio_output::stream_output_adapter<char> > >::type_case_c_tchar(char)
FUNC 34eb8 bc 0 __crt_stdio_output::output_processor<char,__crt_stdio_output::string_output_adapter<char>,__crt_stdio_output::format_validation_base<char,__crt_stdio_output::string_output_adapter<char> > >::type_case_c_tchar(char)
FUNC 34fa4 ff 0 __crt_stdio_output::output_processor<char,__crt_stdio_output::string_output_adapter<char>,__crt_stdio_output::positional_parameter_base<char,__crt_stdio_output::string_output_adapter<char> > >::type_case_c_tchar(char)
FUNC 350e4 bc 0 __crt_stdio_output::output_processor<char,__crt_stdio_output::string_output_adapter<char>,__crt_stdio_output::standard_base<char,__crt_stdio_output::string_output_adapter<char> > >::type_case_c_tchar(char)
FUNC 351d0 a6 0 __crt_stdio_output::output_processor<wchar_t,__crt_stdio_output::stream_output_adapter<wchar_t>,__crt_stdio_output::format_validation_base<wchar_t,__crt_stdio_output::stream_output_adapter<wchar_t> > >::type_case_c_tchar(wchar_t)
FUNC 352a0 cc 0 __crt_stdio_output::output_processor<wchar_t,__crt_stdio_output::stream_output_adapter<wchar_t>,__crt_stdio_output::positional_parameter_base<wchar_t,__crt_stdio_output::stream_output_adapter<wchar_t> > >::type_case_c_tchar(wchar_t)
FUNC 353a0 a6 0 __crt_stdio_output::output_processor<wchar_t,__crt_stdio_output::stream_output_adapter<wchar_t>,__crt_stdio_output::standard_base<wchar_t,__crt_stdio_output::stream_output_adapter<wchar_t> > >::type_case_c_tchar(wchar_t)
FUNC 35470 a6 0 __crt_stdio_output::output_processor<wchar_t,__crt_stdio_output::string_output_adapter<wchar_t>,__crt_stdio_output::format_validation_base<wchar_t,__crt_stdio_output::string_output_adapter<wchar_t> > >::type_case_c_tchar(wchar_t)
FUNC 35540 cc 0 __crt_stdio_output::output_processor<wchar_t,__crt_stdio_output::string_output_adapter<wchar_t>,__crt_stdio_output::positional_parameter_base<wchar_t,__crt_stdio_output::string_output_adapter<wchar_t> > >::type_case_c_tchar(wchar_t)
FUNC 35640 a6 0 __crt_stdio_output::output_processor<wchar_t,__crt_stdio_output::string_output_adapter<wchar_t>,__crt_stdio_output::standard_base<wchar_t,__crt_stdio_output::string_output_adapter<wchar_t> > >::type_case_c_tchar(wchar_t)
FUNC 35710 10 0 __crt_stdio_output::output_processor<char,__crt_stdio_output::stream_output_adapter<char>,__crt_stdio_output::format_validation_base<char,__crt_stdio_output::stream_output_adapter<char> > >::type_case_d()
FUNC 35724 10 0 __crt_stdio_output::output_processor<char,__crt_stdio_output::stream_output_adapter<char>,__crt_stdio_output::positional_parameter_base<char,__crt_stdio_output::stream_output_adapter<char> > >::type_case_d()
FUNC 35738 10 0 __crt_stdio_output::output_processor<char,__crt_stdio_output::stream_output_adapter<char>,__crt_stdio_output::standard_base<char,__crt_stdio_output::stream_output_adapter<char> > >::type_case_d()
FUNC 3574c 10 0 __crt_stdio_output::output_processor<char,__crt_stdio_output::string_output_adapter<char>,__crt_stdio_output::format_validation_base<char,__crt_stdio_output::string_output_adapter<char> > >::type_case_d()
FUNC 35760 10 0 __crt_stdio_output::output_processor<char,__crt_stdio_output::string_output_adapter<char>,__crt_stdio_output::positional_parameter_base<char,__crt_stdio_output::string_output_adapter<char> > >::type_case_d()
FUNC 35774 10 0 __crt_stdio_output::output_processor<char,__crt_stdio_output::string_output_adapter<char>,__crt_stdio_output::standard_base<char,__crt_stdio_output::string_output_adapter<char> > >::type_case_d()
FUNC 35788 10 0 __crt_stdio_output::output_processor<wchar_t,__crt_stdio_output::stream_output_adapter<wchar_t>,__crt_stdio_output::format_validation_base<wchar_t,__crt_stdio_output::stream_output_adapter<wchar_t> > >::type_case_d()
FUNC 3579c 10 0 __crt_stdio_output::output_processor<wchar_t,__crt_stdio_output::stream_output_adapter<wchar_t>,__crt_stdio_output::positional_parameter_base<wchar_t,__crt_stdio_output::stream_output_adapter<wchar_t> > >::type_case_d()
FUNC 357b0 10 0 __crt_stdio_output::output_processor<wchar_t,__crt_stdio_output::stream_output_adapter<wchar_t>,__crt_stdio_output::standard_base<wchar_t,__crt_stdio_output::stream_output_adapter<wchar_t> > >::type_case_d()
FUNC 357c4 10 0 __crt_stdio_output::output_processor<wchar_t,__crt_stdio_output::string_output_adapter<wchar_t>,__crt_stdio_output::format_validation_base<wchar_t,__crt_stdio_output::string_output_adapter<wchar_t> > >::type_case_d()
FUNC 357d8 10 0 __crt_stdio_output::output_processor<wchar_t,__crt_stdio_output::string_output_adapter<wchar_t>,__crt_stdio_output::positional_parameter_base<wchar_t,__crt_stdio_output::string_output_adapter<wchar_t> > >::type_case_d()
FUNC 357ec 10 0 __crt_stdio_output::output_processor<wchar_t,__crt_stdio_output::string_output_adapter<wchar_t>,__crt_stdio_output::standard_base<wchar_t,__crt_stdio_output::string_output_adapter<wchar_t> > >::type_case_d()
FUNC 35800 1c5 0 __crt_stdio_output::output_processor<char,__crt_stdio_output::stream_output_adapter<char>,__crt_stdio_output::format_validation_base<char,__crt_stdio_output::stream_output_adapter<char> > >::type_case_integer(unsigned int,bool)
FUNC 35a38 202 0 __crt_stdio_output::output_processor<char,__crt_stdio_output::stream_output_adapter<char>,__crt_stdio_output::positional_parameter_base<char,__crt_stdio_output::stream_output_adapter<char> > >::type_case_integer(unsigned int,bool)
FUNC 35cbc 1c5 0 __crt_stdio_output::output_processor<char,__crt_stdio_output::stream_output_adapter<char>,__crt_stdio_output::standard_base<char,__crt_stdio_output::stream_output_adapter<char> > >::type_case_integer(unsigned int,bool)
FUNC 35ef4 1c5 0 __crt_stdio_output::output_processor<char,__crt_stdio_output::string_output_adapter<char>,__crt_stdio_output::format_validation_base<char,__crt_stdio_output::string_output_adapter<char> > >::type_case_integer(unsigned int,bool)
FUNC 3612c 202 0 __crt_stdio_output::output_processor<char,__crt_stdio_output::string_output_adapter<char>,__crt_stdio_output::positional_parameter_base<char,__crt_stdio_output::string_output_adapter<char> > >::type_case_integer(unsigned int,bool)
FUNC 363b0 1c5 0 __crt_stdio_output::output_processor<char,__crt_stdio_output::string_output_adapter<char>,__crt_stdio_output::standard_base<char,__crt_stdio_output::string_output_adapter<char> > >::type_case_integer(unsigned int,bool)
FUNC 365e8 1cb 0 __crt_stdio_output::output_processor<wchar_t,__crt_stdio_output::stream_output_adapter<wchar_t>,__crt_stdio_output::format_validation_base<wchar_t,__crt_stdio_output::stream_output_adapter<wchar_t> > >::type_case_integer(unsigned int,bool)
FUNC 36828 208 0 __crt_stdio_output::output_processor<wchar_t,__crt_stdio_output::stream_output_adapter<wchar_t>,__crt_stdio_output::positional_parameter_base<wchar_t,__crt_stdio_output::stream_output_adapter<wchar_t> > >::type_case_integer(unsigned int,bool)
FUNC 36ab4 1cb 0 __crt_stdio_output::output_processor<wchar_t,__crt_stdio_output::stream_output_adapter<wchar_t>,__crt_stdio_output::standard_base<wchar_t,__crt_stdio_output::stream_output_adapter<wchar_t> > >::type_case_integer(unsigned int,bool)
FUNC 36cf4 1cb 0 __crt_stdio_output::output_processor<wchar_t,__crt_stdio_output::string_output_adapter<wchar_t>,__crt_stdio_output::format_validation_base<wchar_t,__crt_stdio_output::string_output_adapter<wchar_t> > >::type_case_integer(unsigned int,bool)
FUNC 36f34 208 0 __crt_stdio_output::output_processor<wchar_t,__crt_stdio_output::string_output_adapter<wchar_t>,__crt_stdio_output::positional_parameter_base<wchar_t,__crt_stdio_output::string_output_adapter<wchar_t> > >::type_case_integer(unsigned int,bool)
FUNC 371c0 1cb 0 __crt_stdio_output::output_processor<wchar_t,__crt_stdio_output::string_output_adapter<wchar_t>,__crt_stdio_output::standard_base<wchar_t,__crt_stdio_output::string_output_adapter<wchar_t> > >::type_case_integer(unsigned int,bool)
FUNC 37400 db 0 __crt_stdio_output::output_processor<char,__crt_stdio_output::stream_output_adapter<char>,__crt_stdio_output::format_validation_base<char,__crt_stdio_output::stream_output_adapter<char> > >::type_case_n()
FUNC 37514 104 0 __crt_stdio_output::output_processor<char,__crt_stdio_output::stream_output_adapter<char>,__crt_stdio_output::positional_parameter_base<char,__crt_stdio_output::stream_output_adapter<char> > >::type_case_n()
FUNC 3765c db 0 __crt_stdio_output::output_processor<char,__crt_stdio_output::stream_output_adapter<char>,__crt_stdio_output::standard_base<char,__crt_stdio_output::stream_output_adapter<char> > >::type_case_n()
FUNC 37770 db 0 __crt_stdio_output::output_processor<char,__crt_stdio_output::string_output_adapter<char>,__crt_stdio_output::format_validation_base<char,__crt_stdio_output::string_output_adapter<char> > >::type_case_n()
FUNC 37884 104 0 __crt_stdio_output::output_processor<char,__crt_stdio_output::string_output_adapter<char>,__crt_stdio_output::positional_parameter_base<char,__crt_stdio_output::string_output_adapter<char> > >::type_case_n()
FUNC 379cc db 0 __crt_stdio_output::output_processor<char,__crt_stdio_output::string_output_adapter<char>,__crt_stdio_output::standard_base<char,__crt_stdio_output::string_output_adapter<char> > >::type_case_n()
FUNC 37ae0 db 0 __crt_stdio_output::output_processor<wchar_t,__crt_stdio_output::stream_output_adapter<wchar_t>,__crt_stdio_output::format_validation_base<wchar_t,__crt_stdio_output::stream_output_adapter<wchar_t> > >::type_case_n()
FUNC 37bf4 104 0 __crt_stdio_output::output_processor<wchar_t,__crt_stdio_output::stream_output_adapter<wchar_t>,__crt_stdio_output::positional_parameter_base<wchar_t,__crt_stdio_output::stream_output_adapter<wchar_t> > >::type_case_n()
FUNC 37d3c db 0 __crt_stdio_output::output_processor<wchar_t,__crt_stdio_output::stream_output_adapter<wchar_t>,__crt_stdio_output::standard_base<wchar_t,__crt_stdio_output::stream_output_adapter<wchar_t> > >::type_case_n()
FUNC 37e50 db 0 __crt_stdio_output::output_processor<wchar_t,__crt_stdio_output::string_output_adapter<wchar_t>,__crt_stdio_output::format_validation_base<wchar_t,__crt_stdio_output::string_output_adapter<wchar_t> > >::type_case_n()
FUNC 37f64 104 0 __crt_stdio_output::output_processor<wchar_t,__crt_stdio_output::string_output_adapter<wchar_t>,__crt_stdio_output::positional_parameter_base<wchar_t,__crt_stdio_output::string_output_adapter<wchar_t> > >::type_case_n()
FUNC 380ac db 0 __crt_stdio_output::output_processor<wchar_t,__crt_stdio_output::string_output_adapter<wchar_t>,__crt_stdio_output::standard_base<wchar_t,__crt_stdio_output::string_output_adapter<wchar_t> > >::type_case_n()
FUNC 381c0 1f 0 __crt_stdio_output::output_processor<char,__crt_stdio_output::stream_output_adapter<char>,__crt_stdio_output::format_validation_base<char,__crt_stdio_output::stream_output_adapter<char> > >::type_case_o()
FUNC 381e8 1f 0 __crt_stdio_output::output_processor<char,__crt_stdio_output::stream_output_adapter<char>,__crt_stdio_output::positional_parameter_base<char,__crt_stdio_output::stream_output_adapter<char> > >::type_case_o()
FUNC 38210 1f 0 __crt_stdio_output::output_processor<char,__crt_stdio_output::stream_output_adapter<char>,__crt_stdio_output::standard_base<char,__crt_stdio_output::stream_output_adapter<char> > >::type_case_o()
FUNC 38238 1f 0 __crt_stdio_output::output_processor<char,__crt_stdio_output::string_output_adapter<char>,__crt_stdio_output::format_validation_base<char,__crt_stdio_output::string_output_adapter<char> > >::type_case_o()
FUNC 38260 1f 0 __crt_stdio_output::output_processor<char,__crt_stdio_output::string_output_adapter<char>,__crt_stdio_output::positional_parameter_base<char,__crt_stdio_output::string_output_adapter<char> > >::type_case_o()
FUNC 38288 1f 0 __crt_stdio_output::output_processor<char,__crt_stdio_output::string_output_adapter<char>,__crt_stdio_output::standard_base<char,__crt_stdio_output::string_output_adapter<char> > >::type_case_o()
FUNC 382b0 1f 0 __crt_stdio_output::output_processor<wchar_t,__crt_stdio_output::stream_output_adapter<wchar_t>,__crt_stdio_output::format_validation_base<wchar_t,__crt_stdio_output::stream_output_adapter<wchar_t> > >::type_case_o()
FUNC 382d8 1f 0 __crt_stdio_output::output_processor<wchar_t,__crt_stdio_output::stream_output_adapter<wchar_t>,__crt_stdio_output::positional_parameter_base<wchar_t,__crt_stdio_output::stream_output_adapter<wchar_t> > >::type_case_o()
FUNC 38300 1f 0 __crt_stdio_output::output_processor<wchar_t,__crt_stdio_output::stream_output_adapter<wchar_t>,__crt_stdio_output::standard_base<wchar_t,__crt_stdio_output::stream_output_adapter<wchar_t> > >::type_case_o()
FUNC 38328 1f 0 __crt_stdio_output::output_processor<wchar_t,__crt_stdio_output::string_output_adapter<wchar_t>,__crt_stdio_output::format_validation_base<wchar_t,__crt_stdio_output::string_output_adapter<wchar_t> > >::type_case_o()
FUNC 38350 1f 0 __crt_stdio_output::output_processor<wchar_t,__crt_stdio_output::string_output_adapter<wchar_t>,__crt_stdio_output::positional_parameter_base<wchar_t,__crt_stdio_output::string_output_adapter<wchar_t> > >::type_case_o()
FUNC 38378 1f 0 __crt_stdio_output::output_processor<wchar_t,__crt_stdio_output::string_output_adapter<wchar_t>,__crt_stdio_output::standard_base<wchar_t,__crt_stdio_output::string_output_adapter<wchar_t> > >::type_case_o()
FUNC 383a0 17 0 __crt_stdio_output::output_processor<char,__crt_stdio_output::stream_output_adapter<char>,__crt_stdio_output::format_validation_base<char,__crt_stdio_output::stream_output_adapter<char> > >::type_case_p()
FUNC 383bc 17 0 __crt_stdio_output::output_processor<char,__crt_stdio_output::stream_output_adapter<char>,__crt_stdio_output::positional_parameter_base<char,__crt_stdio_output::stream_output_adapter<char> > >::type_case_p()
FUNC 383d8 17 0 __crt_stdio_output::output_processor<char,__crt_stdio_output::stream_output_adapter<char>,__crt_stdio_output::standard_base<char,__crt_stdio_output::stream_output_adapter<char> > >::type_case_p()
FUNC 383f4 17 0 __crt_stdio_output::output_processor<char,__crt_stdio_output::string_output_adapter<char>,__crt_stdio_output::format_validation_base<char,__crt_stdio_output::string_output_adapter<char> > >::type_case_p()
FUNC 38410 17 0 __crt_stdio_output::output_processor<char,__crt_stdio_output::string_output_adapter<char>,__crt_stdio_output::positional_parameter_base<char,__crt_stdio_output::string_output_adapter<char> > >::type_case_p()
FUNC 3842c 17 0 __crt_stdio_output::output_processor<char,__crt_stdio_output::string_output_adapter<char>,__crt_stdio_output::standard_base<char,__crt_stdio_output::string_output_adapter<char> > >::type_case_p()
FUNC 38448 17 0 __crt_stdio_output::output_processor<wchar_t,__crt_stdio_output::stream_output_adapter<wchar_t>,__crt_stdio_output::format_validation_base<wchar_t,__crt_stdio_output::stream_output_adapter<wchar_t> > >::type_case_p()
FUNC 38464 17 0 __crt_stdio_output::output_processor<wchar_t,__crt_stdio_output::stream_output_adapter<wchar_t>,__crt_stdio_output::positional_parameter_base<wchar_t,__crt_stdio_output::stream_output_adapter<wchar_t> > >::type_case_p()
FUNC 38480 17 0 __crt_stdio_output::output_processor<wchar_t,__crt_stdio_output::stream_output_adapter<wchar_t>,__crt_stdio_output::standard_base<wchar_t,__crt_stdio_output::stream_output_adapter<wchar_t> > >::type_case_p()
FUNC 3849c 17 0 __crt_stdio_output::output_processor<wchar_t,__crt_stdio_output::string_output_adapter<wchar_t>,__crt_stdio_output::format_validation_base<wchar_t,__crt_stdio_output::string_output_adapter<wchar_t> > >::type_case_p()
FUNC 384b8 17 0 __crt_stdio_output::output_processor<wchar_t,__crt_stdio_output::string_output_adapter<wchar_t>,__crt_stdio_output::positional_parameter_base<wchar_t,__crt_stdio_output::string_output_adapter<wchar_t> > >::type_case_p()
FUNC 384d4 17 0 __crt_stdio_output::output_processor<wchar_t,__crt_stdio_output::string_output_adapter<wchar_t>,__crt_stdio_output::standard_base<wchar_t,__crt_stdio_output::string_output_adapter<wchar_t> > >::type_case_p()
FUNC 384f0 96 0 __crt_stdio_output::output_processor<char,__crt_stdio_output::stream_output_adapter<char>,__crt_stdio_output::format_validation_base<char,__crt_stdio_output::stream_output_adapter<char> > >::type_case_s()
FUNC 385ac b5 0 __crt_stdio_output::output_processor<char,__crt_stdio_output::stream_output_adapter<char>,__crt_stdio_output::positional_parameter_base<char,__crt_stdio_output::stream_output_adapter<char> > >::type_case_s()
FUNC 38690 96 0 __crt_stdio_output::output_processor<char,__crt_stdio_output::stream_output_adapter<char>,__crt_stdio_output::standard_base<char,__crt_stdio_output::stream_output_adapter<char> > >::type_case_s()
FUNC 3874c 96 0 __crt_stdio_output::output_processor<char,__crt_stdio_output::string_output_adapter<char>,__crt_stdio_output::format_validation_base<char,__crt_stdio_output::string_output_adapter<char> > >::type_case_s()
FUNC 38808 b5 0 __crt_stdio_output::output_processor<char,__crt_stdio_output::string_output_adapter<char>,__crt_stdio_output::positional_parameter_base<char,__crt_stdio_output::string_output_adapter<char> > >::type_case_s()
FUNC 388ec 96 0 __crt_stdio_output::output_processor<char,__crt_stdio_output::string_output_adapter<char>,__crt_stdio_output::standard_base<char,__crt_stdio_output::string_output_adapter<char> > >::type_case_s()
FUNC 389a8 c7 0 __crt_stdio_output::output_processor<wchar_t,__crt_stdio_output::stream_output_adapter<wchar_t>,__crt_stdio_output::format_validation_base<wchar_t,__crt_stdio_output::stream_output_adapter<wchar_t> > >::type_case_s()
FUNC 38aa0 e9 0 __crt_stdio_output::output_processor<wchar_t,__crt_stdio_output::stream_output_adapter<wchar_t>,__crt_stdio_output::positional_parameter_base<wchar_t,__crt_stdio_output::stream_output_adapter<wchar_t> > >::type_case_s()
FUNC 38bc4 c7 0 __crt_stdio_output::output_processor<wchar_t,__crt_stdio_output::stream_output_adapter<wchar_t>,__crt_stdio_output::standard_base<wchar_t,__crt_stdio_output::stream_output_adapter<wchar_t> > >::type_case_s()
FUNC 38cbc c7 0 __crt_stdio_output::output_processor<wchar_t,__crt_stdio_output::string_output_adapter<wchar_t>,__crt_stdio_output::format_validation_base<wchar_t,__crt_stdio_output::string_output_adapter<wchar_t> > >::type_case_s()
FUNC 38db4 e9 0 __crt_stdio_output::output_processor<wchar_t,__crt_stdio_output::string_output_adapter<wchar_t>,__crt_stdio_output::positional_parameter_base<wchar_t,__crt_stdio_output::string_output_adapter<wchar_t> > >::type_case_s()
FUNC 38ed8 c7 0 __crt_stdio_output::output_processor<wchar_t,__crt_stdio_output::string_output_adapter<wchar_t>,__crt_stdio_output::standard_base<wchar_t,__crt_stdio_output::string_output_adapter<wchar_t> > >::type_case_s()
FUNC 38fd0 c 0 __crt_stdio_output::output_processor<char,__crt_stdio_output::stream_output_adapter<char>,__crt_stdio_output::format_validation_base<char,__crt_stdio_output::stream_output_adapter<char> > >::type_case_s_compute_narrow_string_length(int,char)
FUNC 38fe0 c 0 __crt_stdio_output::output_processor<char,__crt_stdio_output::stream_output_adapter<char>,__crt_stdio_output::positional_parameter_base<char,__crt_stdio_output::stream_output_adapter<char> > >::type_case_s_compute_narrow_string_length(int,char)
FUNC 38ff0 c 0 __crt_stdio_output::output_processor<char,__crt_stdio_output::stream_output_adapter<char>,__crt_stdio_output::standard_base<char,__crt_stdio_output::stream_output_adapter<char> > >::type_case_s_compute_narrow_string_length(int,char)
FUNC 39000 c 0 __crt_stdio_output::output_processor<char,__crt_stdio_output::string_output_adapter<char>,__crt_stdio_output::format_validation_base<char,__crt_stdio_output::string_output_adapter<char> > >::type_case_s_compute_narrow_string_length(int,char)
FUNC 39010 c 0 __crt_stdio_output::output_processor<char,__crt_stdio_output::string_output_adapter<char>,__crt_stdio_output::positional_parameter_base<char,__crt_stdio_output::string_output_adapter<char> > >::type_case_s_compute_narrow_string_length(int,char)
FUNC 39020 c 0 __crt_stdio_output::output_processor<char,__crt_stdio_output::string_output_adapter<char>,__crt_stdio_output::standard_base<char,__crt_stdio_output::string_output_adapter<char> > >::type_case_s_compute_narrow_string_length(int,char)
FUNC 39030 53 0 __crt_stdio_output::output_processor<wchar_t,__crt_stdio_output::stream_output_adapter<wchar_t>,__crt_stdio_output::format_validation_base<wchar_t,__crt_stdio_output::stream_output_adapter<wchar_t> > >::type_case_s_compute_narrow_string_length(int,wchar_t)
FUNC 39098 53 0 __crt_stdio_output::output_processor<wchar_t,__crt_stdio_output::stream_output_adapter<wchar_t>,__crt_stdio_output::positional_parameter_base<wchar_t,__crt_stdio_output::stream_output_adapter<wchar_t> > >::type_case_s_compute_narrow_string_length(int,wchar_t)
FUNC 39100 53 0 __crt_stdio_output::output_processor<wchar_t,__crt_stdio_output::stream_output_adapter<wchar_t>,__crt_stdio_output::standard_base<wchar_t,__crt_stdio_output::stream_output_adapter<wchar_t> > >::type_case_s_compute_narrow_string_length(int,wchar_t)
FUNC 39168 53 0 __crt_stdio_output::output_processor<wchar_t,__crt_stdio_output::string_output_adapter<wchar_t>,__crt_stdio_output::format_validation_base<wchar_t,__crt_stdio_output::string_output_adapter<wchar_t> > >::type_case_s_compute_narrow_string_length(int,wchar_t)
FUNC 391d0 53 0 __crt_stdio_output::output_processor<wchar_t,__crt_stdio_output::string_output_adapter<wchar_t>,__crt_stdio_output::positional_parameter_base<wchar_t,__crt_stdio_output::string_output_adapter<wchar_t> > >::type_case_s_compute_narrow_string_length(int,wchar_t)
FUNC 39238 53 0 __crt_stdio_output::output_processor<wchar_t,__crt_stdio_output::string_output_adapter<wchar_t>,__crt_stdio_output::standard_base<wchar_t,__crt_stdio_output::string_output_adapter<wchar_t> > >::type_case_s_compute_narrow_string_length(int,wchar_t)
FUNC 392a0 c 0 __crt_stdio_output::output_processor<char,__crt_stdio_output::stream_output_adapter<char>,__crt_stdio_output::format_validation_base<char,__crt_stdio_output::stream_output_adapter<char> > >::type_case_u()
FUNC 392b0 c 0 __crt_stdio_output::output_processor<char,__crt_stdio_output::stream_output_adapter<char>,__crt_stdio_output::positional_parameter_base<char,__crt_stdio_output::stream_output_adapter<char> > >::type_case_u()
FUNC 392c0 c 0 __crt_stdio_output::output_processor<char,__crt_stdio_output::stream_output_adapter<char>,__crt_stdio_output::standard_base<char,__crt_stdio_output::stream_output_adapter<char> > >::type_case_u()
FUNC 392d0 c 0 __crt_stdio_output::output_processor<char,__crt_stdio_output::string_output_adapter<char>,__crt_stdio_output::format_validation_base<char,__crt_stdio_output::string_output_adapter<char> > >::type_case_u()
FUNC 392e0 c 0 __crt_stdio_output::output_processor<char,__crt_stdio_output::string_output_adapter<char>,__crt_stdio_output::positional_parameter_base<char,__crt_stdio_output::string_output_adapter<char> > >::type_case_u()
FUNC 392f0 c 0 __crt_stdio_output::output_processor<char,__crt_stdio_output::string_output_adapter<char>,__crt_stdio_output::standard_base<char,__crt_stdio_output::string_output_adapter<char> > >::type_case_u()
FUNC 39300 c 0 __crt_stdio_output::output_processor<wchar_t,__crt_stdio_output::stream_output_adapter<wchar_t>,__crt_stdio_output::format_validation_base<wchar_t,__crt_stdio_output::stream_output_adapter<wchar_t> > >::type_case_u()
FUNC 39310 c 0 __crt_stdio_output::output_processor<wchar_t,__crt_stdio_output::stream_output_adapter<wchar_t>,__crt_stdio_output::positional_parameter_base<wchar_t,__crt_stdio_output::stream_output_adapter<wchar_t> > >::type_case_u()
FUNC 39320 c 0 __crt_stdio_output::output_processor<wchar_t,__crt_stdio_output::stream_output_adapter<wchar_t>,__crt_stdio_output::standard_base<wchar_t,__crt_stdio_output::stream_output_adapter<wchar_t> > >::type_case_u()
FUNC 39330 c 0 __crt_stdio_output::output_processor<wchar_t,__crt_stdio_output::string_output_adapter<wchar_t>,__crt_stdio_output::format_validation_base<wchar_t,__crt_stdio_output::string_output_adapter<wchar_t> > >::type_case_u()
FUNC 39340 c 0 __crt_stdio_output::output_processor<wchar_t,__crt_stdio_output::string_output_adapter<wchar_t>,__crt_stdio_output::positional_parameter_base<wchar_t,__crt_stdio_output::string_output_adapter<wchar_t> > >::type_case_u()
FUNC 39350 c 0 __crt_stdio_output::output_processor<wchar_t,__crt_stdio_output::string_output_adapter<wchar_t>,__crt_stdio_output::standard_base<wchar_t,__crt_stdio_output::string_output_adapter<wchar_t> > >::type_case_u()
FUNC 39360 c 0 __crt_stdio_output::output_processor<char,__crt_stdio_output::stream_output_adapter<char>,__crt_stdio_output::format_validation_base<char,__crt_stdio_output::stream_output_adapter<char> > >::type_case_x()
FUNC 39370 c 0 __crt_stdio_output::output_processor<char,__crt_stdio_output::stream_output_adapter<char>,__crt_stdio_output::positional_parameter_base<char,__crt_stdio_output::stream_output_adapter<char> > >::type_case_x()
FUNC 39380 c 0 __crt_stdio_output::output_processor<char,__crt_stdio_output::stream_output_adapter<char>,__crt_stdio_output::standard_base<char,__crt_stdio_output::stream_output_adapter<char> > >::type_case_x()
FUNC 39390 c 0 __crt_stdio_output::output_processor<char,__crt_stdio_output::string_output_adapter<char>,__crt_stdio_output::format_validation_base<char,__crt_stdio_output::string_output_adapter<char> > >::type_case_x()
FUNC 393a0 c 0 __crt_stdio_output::output_processor<char,__crt_stdio_output::string_output_adapter<char>,__crt_stdio_output::positional_parameter_base<char,__crt_stdio_output::string_output_adapter<char> > >::type_case_x()
FUNC 393b0 c 0 __crt_stdio_output::output_processor<char,__crt_stdio_output::string_output_adapter<char>,__crt_stdio_output::standard_base<char,__crt_stdio_output::string_output_adapter<char> > >::type_case_x()
FUNC 393c0 c 0 __crt_stdio_output::output_processor<wchar_t,__crt_stdio_output::stream_output_adapter<wchar_t>,__crt_stdio_output::format_validation_base<wchar_t,__crt_stdio_output::stream_output_adapter<wchar_t> > >::type_case_x()
FUNC 393d0 c 0 __crt_stdio_output::output_processor<wchar_t,__crt_stdio_output::stream_output_adapter<wchar_t>,__crt_stdio_output::positional_parameter_base<wchar_t,__crt_stdio_output::stream_output_adapter<wchar_t> > >::type_case_x()
FUNC 393e0 c 0 __crt_stdio_output::output_processor<wchar_t,__crt_stdio_output::stream_output_adapter<wchar_t>,__crt_stdio_output::standard_base<wchar_t,__crt_stdio_output::stream_output_adapter<wchar_t> > >::type_case_x()
FUNC 393f0 c 0 __crt_stdio_output::output_processor<wchar_t,__crt_stdio_output::string_output_adapter<wchar_t>,__crt_stdio_output::format_validation_base<wchar_t,__crt_stdio_output::string_output_adapter<wchar_t> > >::type_case_x()
FUNC 39400 c 0 __crt_stdio_output::output_processor<wchar_t,__crt_stdio_output::string_output_adapter<wchar_t>,__crt_stdio_output::positional_parameter_base<wchar_t,__crt_stdio_output::string_output_adapter<wchar_t> > >::type_case_x()
FUNC 39410 c 0 __crt_stdio_output::output_processor<wchar_t,__crt_stdio_output::string_output_adapter<wchar_t>,__crt_stdio_output::standard_base<wchar_t,__crt_stdio_output::string_output_adapter<wchar_t> > >::type_case_x()
FUNC 39420 6 0 __crt_stdio_output::output_processor<char,__crt_stdio_output::stream_output_adapter<char>,__crt_stdio_output::format_validation_base<char,__crt_stdio_output::stream_output_adapter<char> > >::unset_flag(unsigned int)
FUNC 39428 6 0 __crt_stdio_output::output_processor<char,__crt_stdio_output::stream_output_adapter<char>,__crt_stdio_output::positional_parameter_base<char,__crt_stdio_output::stream_output_adapter<char> > >::unset_flag(unsigned int)
FUNC 39430 6 0 __crt_stdio_output::output_processor<char,__crt_stdio_output::stream_output_adapter<char>,__crt_stdio_output::standard_base<char,__crt_stdio_output::stream_output_adapter<char> > >::unset_flag(unsigned int)
FUNC 39438 6 0 __crt_stdio_output::output_processor<char,__crt_stdio_output::string_output_adapter<char>,__crt_stdio_output::format_validation_base<char,__crt_stdio_output::string_output_adapter<char> > >::unset_flag(unsigned int)
FUNC 39440 6 0 __crt_stdio_output::output_processor<char,__crt_stdio_output::string_output_adapter<char>,__crt_stdio_output::positional_parameter_base<char,__crt_stdio_output::string_output_adapter<char> > >::unset_flag(unsigned int)
FUNC 39448 6 0 __crt_stdio_output::output_processor<char,__crt_stdio_output::string_output_adapter<char>,__crt_stdio_output::standard_base<char,__crt_stdio_output::string_output_adapter<char> > >::unset_flag(unsigned int)
FUNC 39450 6 0 __crt_stdio_output::output_processor<wchar_t,__crt_stdio_output::stream_output_adapter<wchar_t>,__crt_stdio_output::format_validation_base<wchar_t,__crt_stdio_output::stream_output_adapter<wchar_t> > >::unset_flag(unsigned int)
FUNC 39458 6 0 __crt_stdio_output::output_processor<wchar_t,__crt_stdio_output::stream_output_adapter<wchar_t>,__crt_stdio_output::positional_parameter_base<wchar_t,__crt_stdio_output::stream_output_adapter<wchar_t> > >::unset_flag(unsigned int)
FUNC 39460 6 0 __crt_stdio_output::output_processor<wchar_t,__crt_stdio_output::stream_output_adapter<wchar_t>,__crt_stdio_output::standard_base<wchar_t,__crt_stdio_output::stream_output_adapter<wchar_t> > >::unset_flag(unsigned int)
FUNC 39468 6 0 __crt_stdio_output::output_processor<wchar_t,__crt_stdio_output::string_output_adapter<wchar_t>,__crt_stdio_output::format_validation_base<wchar_t,__crt_stdio_output::string_output_adapter<wchar_t> > >::unset_flag(unsigned int)
FUNC 39470 6 0 __crt_stdio_output::output_processor<wchar_t,__crt_stdio_output::string_output_adapter<wchar_t>,__crt_stdio_output::positional_parameter_base<wchar_t,__crt_stdio_output::string_output_adapter<wchar_t> > >::unset_flag(unsigned int)
FUNC 39478 6 0 __crt_stdio_output::output_processor<wchar_t,__crt_stdio_output::string_output_adapter<wchar_t>,__crt_stdio_output::standard_base<wchar_t,__crt_stdio_output::string_output_adapter<wchar_t> > >::unset_flag(unsigned int)
FUNC 39480 115 0 __crt_stdio_output::positional_parameter_base<char,__crt_stdio_output::stream_output_adapter<char> >::update_field_width()
FUNC 395dc 115 0 __crt_stdio_output::positional_parameter_base<char,__crt_stdio_output::string_output_adapter<char> >::update_field_width()
FUNC 39738 118 0 __crt_stdio_output::positional_parameter_base<wchar_t,__crt_stdio_output::stream_output_adapter<wchar_t> >::update_field_width()
FUNC 39898 118 0 __crt_stdio_output::positional_parameter_base<wchar_t,__crt_stdio_output::string_output_adapter<wchar_t> >::update_field_width()
FUNC 399f8 12 0 __crt_stdio_output::standard_base<char,__crt_stdio_output::stream_output_adapter<char> >::update_field_width()
FUNC 39a10 12 0 __crt_stdio_output::standard_base<char,__crt_stdio_output::string_output_adapter<char> >::update_field_width()
FUNC 39a28 12 0 __crt_stdio_output::standard_base<wchar_t,__crt_stdio_output::stream_output_adapter<wchar_t> >::update_field_width()
FUNC 39a40 12 0 __crt_stdio_output::standard_base<wchar_t,__crt_stdio_output::string_output_adapter<wchar_t> >::update_field_width()
FUNC 39a58 115 0 __crt_stdio_output::positional_parameter_base<char,__crt_stdio_output::stream_output_adapter<char> >::update_precision()
FUNC 39bb4 115 0 __crt_stdio_output::positional_parameter_base<char,__crt_stdio_output::string_output_adapter<char> >::update_precision()
FUNC 39d10 118 0 __crt_stdio_output::positional_parameter_base<wchar_t,__crt_stdio_output::stream_output_adapter<wchar_t> >::update_precision()
FUNC 39e70 118 0 __crt_stdio_output::positional_parameter_base<wchar_t,__crt_stdio_output::string_output_adapter<wchar_t> >::update_precision()
FUNC 39fd0 12 0 __crt_stdio_output::standard_base<char,__crt_stdio_output::stream_output_adapter<char> >::update_precision()
FUNC 39fe8 12 0 __crt_stdio_output::standard_base<char,__crt_stdio_output::string_output_adapter<char> >::update_precision()
FUNC 3a000 12 0 __crt_stdio_output::standard_base<wchar_t,__crt_stdio_output::stream_output_adapter<wchar_t> >::update_precision()
FUNC 3a018 12 0 __crt_stdio_output::standard_base<wchar_t,__crt_stdio_output::string_output_adapter<wchar_t> >::update_precision()
FUNC 3a030 8 0 __crt_stdio_stream::valid()
FUNC 3a03c 2c 0 __crt_stdio_output::stream_output_adapter<char>::validate()
FUNC 3a074 25 0 __crt_stdio_output::stream_output_adapter<wchar_t>::validate()
FUNC 3a0a4 25 0 __crt_stdio_output::string_output_adapter<char>::validate()
FUNC 3a0d4 25 0 __crt_stdio_output::string_output_adapter<wchar_t>::validate()
FUNC 3a104 3f 0 __crt_stdio_output::positional_parameter_base<char,__crt_stdio_output::stream_output_adapter<char> >::validate_and_store_parameter_data(__crt_stdio_output::positional_parameter_base<char,__crt_stdio_output::stream_output_adapter<char> >::parameter_data &,__crt_stdio_output::positional_parameter_base<char,__crt_stdio_output::stream_output_adapter<char> >::parameter_type,char,__crt_stdio_output::length_modifier)
FUNC 3a154 3f 0 __crt_stdio_output::positional_parameter_base<char,__crt_stdio_output::string_output_adapter<char> >::validate_and_store_parameter_data(__crt_stdio_output::positional_parameter_base<char,__crt_stdio_output::string_output_adapter<char> >::parameter_data &,__crt_stdio_output::positional_parameter_base<char,__crt_stdio_output::string_output_adapter<char> >::parameter_type,char,__crt_stdio_output::length_modifier)
FUNC 3a1a4 40 0 __crt_stdio_output::positional_parameter_base<wchar_t,__crt_stdio_output::stream_output_adapter<wchar_t> >::validate_and_store_parameter_data(__crt_stdio_output::positional_parameter_base<wchar_t,__crt_stdio_output::stream_output_adapter<wchar_t> >::parameter_data &,__crt_stdio_output::positional_parameter_base<wchar_t,__crt_stdio_output::stream_output_adapter<wchar_t> >::parameter_type,wchar_t,__crt_stdio_output::length_modifier)
FUNC 3a1f4 40 0 __crt_stdio_output::positional_parameter_base<wchar_t,__crt_stdio_output::string_output_adapter<wchar_t> >::validate_and_store_parameter_data(__crt_stdio_output::positional_parameter_base<wchar_t,__crt_stdio_output::string_output_adapter<wchar_t> >::parameter_data &,__crt_stdio_output::positional_parameter_base<wchar_t,__crt_stdio_output::string_output_adapter<wchar_t> >::parameter_type,wchar_t,__crt_stdio_output::length_modifier)
FUNC 3a244 10b 0 __crt_stdio_output::positional_parameter_base<char,__crt_stdio_output::stream_output_adapter<char> >::validate_and_update_state_at_beginning_of_format_character()
FUNC 3a394 10b 0 __crt_stdio_output::positional_parameter_base<char,__crt_stdio_output::string_output_adapter<char> >::validate_and_update_state_at_beginning_of_format_character()
FUNC 3a4e4 114 0 __crt_stdio_output::positional_parameter_base<wchar_t,__crt_stdio_output::stream_output_adapter<wchar_t> >::validate_and_update_state_at_beginning_of_format_character()
FUNC 3a640 114 0 __crt_stdio_output::positional_parameter_base<wchar_t,__crt_stdio_output::string_output_adapter<wchar_t> >::validate_and_update_state_at_beginning_of_format_character()
FUNC 3a79c 3 0 __crt_stdio_output::standard_base<char,__crt_stdio_output::stream_output_adapter<char> >::validate_and_update_state_at_beginning_of_format_character()
FUNC 3a7a0 3 0 __crt_stdio_output::standard_base<char,__crt_stdio_output::string_output_adapter<char> >::validate_and_update_state_at_beginning_of_format_character()
FUNC 3a7a4 3 0 __crt_stdio_output::standard_base<wchar_t,__crt_stdio_output::stream_output_adapter<wchar_t> >::validate_and_update_state_at_beginning_of_format_character()
FUNC 3a7a8 3 0 __crt_stdio_output::standard_base<wchar_t,__crt_stdio_output::string_output_adapter<wchar_t> >::validate_and_update_state_at_beginning_of_format_character()
FUNC 3a7ac 2b 0 __crt_stdio_output::format_validation_base<char,__crt_stdio_output::stream_output_adapter<char> >::validate_and_update_state_at_end_of_format_string()
FUNC 3a7e4 2b 0 __crt_stdio_output::format_validation_base<char,__crt_stdio_output::string_output_adapter<char> >::validate_and_update_state_at_end_of_format_string()
FUNC 3a81c 2b 0 __crt_stdio_output::format_validation_base<wchar_t,__crt_stdio_output::stream_output_adapter<wchar_t> >::validate_and_update_state_at_end_of_format_string()
FUNC 3a854 2b 0 __crt_stdio_output::format_validation_base<wchar_t,__crt_stdio_output::string_output_adapter<wchar_t> >::validate_and_update_state_at_end_of_format_string()
FUNC 3a88c 9b 0 __crt_stdio_output::positional_parameter_base<char,__crt_stdio_output::stream_output_adapter<char> >::validate_and_update_state_at_end_of_format_string()
FUNC 3a950 9b 0 __crt_stdio_output::positional_parameter_base<char,__crt_stdio_output::string_output_adapter<char> >::validate_and_update_state_at_end_of_format_string()
FUNC 3aa14 9b 0 __crt_stdio_output::positional_parameter_base<wchar_t,__crt_stdio_output::stream_output_adapter<wchar_t> >::validate_and_update_state_at_end_of_format_string()
FUNC 3aad8 9b 0 __crt_stdio_output::positional_parameter_base<wchar_t,__crt_stdio_output::string_output_adapter<wchar_t> >::validate_and_update_state_at_end_of_format_string()
FUNC 3ab9c 3 0 __crt_stdio_output::standard_base<char,__crt_stdio_output::stream_output_adapter<char> >::validate_and_update_state_at_end_of_format_string()
FUNC 3aba0 3 0 __crt_stdio_output::standard_base<char,__crt_stdio_output::string_output_adapter<char> >::validate_and_update_state_at_end_of_format_string()
FUNC 3aba4 3 0 __crt_stdio_output::standard_base<wchar_t,__crt_stdio_output::stream_output_adapter<wchar_t> >::validate_and_update_state_at_end_of_format_string()
FUNC 3aba8 3 0 __crt_stdio_output::standard_base<wchar_t,__crt_stdio_output::string_output_adapter<wchar_t> >::validate_and_update_state_at_end_of_format_string()
FUNC 3abac 9b 0 __crt_stdio_output::positional_parameter_base<char,__crt_stdio_output::stream_output_adapter<char> >::validate_state_for_type_case_a()
FUNC 3ac70 9b 0 __crt_stdio_output::positional_parameter_base<char,__crt_stdio_output::string_output_adapter<char> >::validate_state_for_type_case_a()
FUNC 3ad34 9d 0 __crt_stdio_output::positional_parameter_base<wchar_t,__crt_stdio_output::stream_output_adapter<wchar_t> >::validate_state_for_type_case_a()
FUNC 3adf8 9d 0 __crt_stdio_output::positional_parameter_base<wchar_t,__crt_stdio_output::string_output_adapter<wchar_t> >::validate_state_for_type_case_a()
FUNC 3aebc 3 0 __crt_stdio_output::standard_base<char,__crt_stdio_output::stream_output_adapter<char> >::validate_state_for_type_case_a()
FUNC 3aec0 3 0 __crt_stdio_output::standard_base<char,__crt_stdio_output::string_output_adapter<char> >::validate_state_for_type_case_a()
FUNC 3aec4 3 0 __crt_stdio_output::standard_base<wchar_t,__crt_stdio_output::stream_output_adapter<wchar_t> >::validate_state_for_type_case_a()
FUNC 3aec8 3 0 __crt_stdio_output::standard_base<wchar_t,__crt_stdio_output::string_output_adapter<wchar_t> >::validate_state_for_type_case_a()
FUNC 3aecc 9a 0 __acrt_stdio_char_traits<char>::validate_stream_is_ansi_if_required(_iobuf * const)
FUNC 3af8c 3 0 __acrt_stdio_char_traits<wchar_t>::validate_stream_is_ansi_if_required(_iobuf * const)
FUNC 3af90 8 0 __crt_stdio_output::output_processor<char,__crt_stdio_output::stream_output_adapter<char>,__crt_stdio_output::format_validation_base<char,__crt_stdio_output::stream_output_adapter<char> > >::wide_null_string()
FUNC 3af9c 8 0 __crt_stdio_output::output_processor<char,__crt_stdio_output::stream_output_adapter<char>,__crt_stdio_output::positional_parameter_base<char,__crt_stdio_output::stream_output_adapter<char> > >::wide_null_string()
FUNC 3afa8 8 0 __crt_stdio_output::output_processor<char,__crt_stdio_output::stream_output_adapter<char>,__crt_stdio_output::standard_base<char,__crt_stdio_output::stream_output_adapter<char> > >::wide_null_string()
FUNC 3afb4 8 0 __crt_stdio_output::output_processor<char,__crt_stdio_output::string_output_adapter<char>,__crt_stdio_output::format_validation_base<char,__crt_stdio_output::string_output_adapter<char> > >::wide_null_string()
FUNC 3afc0 8 0 __crt_stdio_output::output_processor<char,__crt_stdio_output::string_output_adapter<char>,__crt_stdio_output::positional_parameter_base<char,__crt_stdio_output::string_output_adapter<char> > >::wide_null_string()
FUNC 3afcc 8 0 __crt_stdio_output::output_processor<char,__crt_stdio_output::string_output_adapter<char>,__crt_stdio_output::standard_base<char,__crt_stdio_output::string_output_adapter<char> > >::wide_null_string()
FUNC 3afd8 8 0 __crt_stdio_output::output_processor<wchar_t,__crt_stdio_output::stream_output_adapter<wchar_t>,__crt_stdio_output::format_validation_base<wchar_t,__crt_stdio_output::stream_output_adapter<wchar_t> > >::wide_null_string()
FUNC 3afe4 8 0 __crt_stdio_output::output_processor<wchar_t,__crt_stdio_output::stream_output_adapter<wchar_t>,__crt_stdio_output::positional_parameter_base<wchar_t,__crt_stdio_output::stream_output_adapter<wchar_t> > >::wide_null_string()
FUNC 3aff0 8 0 __crt_stdio_output::output_processor<wchar_t,__crt_stdio_output::stream_output_adapter<wchar_t>,__crt_stdio_output::standard_base<wchar_t,__crt_stdio_output::stream_output_adapter<wchar_t> > >::wide_null_string()
FUNC 3affc 8 0 __crt_stdio_output::output_processor<wchar_t,__crt_stdio_output::string_output_adapter<wchar_t>,__crt_stdio_output::format_validation_base<wchar_t,__crt_stdio_output::string_output_adapter<wchar_t> > >::wide_null_string()
FUNC 3b008 8 0 __crt_stdio_output::output_processor<wchar_t,__crt_stdio_output::string_output_adapter<wchar_t>,__crt_stdio_output::positional_parameter_base<wchar_t,__crt_stdio_output::string_output_adapter<wchar_t> > >::wide_null_string()
FUNC 3b014 8 0 __crt_stdio_output::output_processor<wchar_t,__crt_stdio_output::string_output_adapter<wchar_t>,__crt_stdio_output::standard_base<wchar_t,__crt_stdio_output::string_output_adapter<wchar_t> > >::wide_null_string()
FUNC 3b020 48 0 __crt_stdio_output::output_adapter_common<char,__crt_stdio_output::stream_output_adapter<char> >::write_character(char,int * const)
FUNC 3b07c 4b 0 __crt_stdio_output::output_adapter_common<wchar_t,__crt_stdio_output::stream_output_adapter<wchar_t> >::write_character(wchar_t,int * const)
FUNC 3b0dc 45 0 __crt_stdio_output::string_output_adapter<char>::write_character(char,int * const)
FUNC 3b134 48 0 __crt_stdio_output::string_output_adapter<wchar_t>::write_character(wchar_t,int * const)
FUNC 3b190 40 0 __crt_stdio_output::stream_output_adapter<char>::write_character_without_count_update(char)
FUNC 3b1e0 43 0 __crt_stdio_output::stream_output_adapter<wchar_t>::write_character_without_count_update(wchar_t)
FUNC 3b234 121 0 __crt_stdio_output::output_processor<char,__crt_stdio_output::stream_output_adapter<char>,__crt_stdio_output::format_validation_base<char,__crt_stdio_output::stream_output_adapter<char> > >::write_stored_string_tchar(char)
FUNC 3b3a0 121 0 __crt_stdio_output::output_processor<char,__crt_stdio_output::stream_output_adapter<char>,__crt_stdio_output::positional_parameter_base<char,__crt_stdio_output::stream_output_adapter<char> > >::write_stored_string_tchar(char)
FUNC 3b50c 121 0 __crt_stdio_output::output_processor<char,__crt_stdio_output::stream_output_adapter<char>,__crt_stdio_output::standard_base<char,__crt_stdio_output::stream_output_adapter<char> > >::write_stored_string_tchar(char)
FUNC 3b678 d5 0 __crt_stdio_output::output_processor<char,__crt_stdio_output::string_output_adapter<char>,__crt_stdio_output::format_validation_base<char,__crt_stdio_output::string_output_adapter<char> > >::write_stored_string_tchar(char)
FUNC 3b784 d5 0 __crt_stdio_output::output_processor<char,__crt_stdio_output::string_output_adapter<char>,__crt_stdio_output::positional_parameter_base<char,__crt_stdio_output::string_output_adapter<char> > >::write_stored_string_tchar(char)
FUNC 3b890 d5 0 __crt_stdio_output::output_processor<char,__crt_stdio_output::string_output_adapter<char>,__crt_stdio_output::standard_base<char,__crt_stdio_output::string_output_adapter<char> > >::write_stored_string_tchar(char)
FUNC 3b99c 106 0 __crt_stdio_output::output_processor<wchar_t,__crt_stdio_output::stream_output_adapter<wchar_t>,__crt_stdio_output::format_validation_base<wchar_t,__crt_stdio_output::stream_output_adapter<wchar_t> > >::write_stored_string_tchar(wchar_t)
FUNC 3bae4 106 0 __crt_stdio_output::output_processor<wchar_t,__crt_stdio_output::stream_output_adapter<wchar_t>,__crt_stdio_output::positional_parameter_base<wchar_t,__crt_stdio_output::stream_output_adapter<wchar_t> > >::write_stored_string_tchar(wchar_t)
FUNC 3bc2c 106 0 __crt_stdio_output::output_processor<wchar_t,__crt_stdio_output::stream_output_adapter<wchar_t>,__crt_stdio_output::standard_base<wchar_t,__crt_stdio_output::stream_output_adapter<wchar_t> > >::write_stored_string_tchar(wchar_t)
FUNC 3bd74 eb 0 __crt_stdio_output::output_processor<wchar_t,__crt_stdio_output::string_output_adapter<wchar_t>,__crt_stdio_output::format_validation_base<wchar_t,__crt_stdio_output::string_output_adapter<wchar_t> > >::write_stored_string_tchar(wchar_t)
FUNC 3be9c eb 0 __crt_stdio_output::output_processor<wchar_t,__crt_stdio_output::string_output_adapter<wchar_t>,__crt_stdio_output::positional_parameter_base<wchar_t,__crt_stdio_output::string_output_adapter<wchar_t> > >::write_stored_string_tchar(wchar_t)
FUNC 3bfc4 eb 0 __crt_stdio_output::output_processor<wchar_t,__crt_stdio_output::string_output_adapter<wchar_t>,__crt_stdio_output::standard_base<wchar_t,__crt_stdio_output::string_output_adapter<wchar_t> > >::write_stored_string_tchar(wchar_t)
FUNC 3c0ec 24 0 __crt_stdio_output::stream_output_adapter<char>::write_string(char const * const,int,int * const,__crt_deferred_errno_cache &)
FUNC 3c11c 24 0 __crt_stdio_output::stream_output_adapter<wchar_t>::write_string(wchar_t const * const,int,int * const,__crt_deferred_errno_cache &)
FUNC 3c14c a3 0 __crt_stdio_output::string_output_adapter<char>::write_string(char const * const,int,int * const,__crt_deferred_errno_cache &)
FUNC 3c218 a5 0 __crt_stdio_output::string_output_adapter<wchar_t>::write_string(wchar_t const * const,int,int * const,__crt_deferred_errno_cache &)
FUNC 3c2e8 f5 0 __crt_stdio_output::output_adapter_common<char,__crt_stdio_output::stream_output_adapter<char> >::write_string_impl(char const * const,int,int * const,__crt_deferred_errno_cache &)
FUNC 3c41c 103 0 __crt_stdio_output::output_adapter_common<wchar_t,__crt_stdio_output::stream_output_adapter<wchar_t> >::write_string_impl(wchar_t const * const,int,int * const,__crt_deferred_errno_cache &)
FUNC 3c560 21 0 _acrt_isleadbyte_l_noupdate
FUNC 3c58c b 0 _acrt_locale_changed
FUNC 3c59c 18 0 _acrt_locale_get_ctype_array_value
FUNC 3c5bc 8b 0 _stdio_common_vfprintf
FUNC 3c66c 8b 0 _stdio_common_vfprintf_p
FUNC 3c71c 8b 0 _stdio_common_vfprintf_s
FUNC 3c7cc 8b 0 _stdio_common_vfwprintf
FUNC 3c87c 8b 0 _stdio_common_vfwprintf_p
FUNC 3c92c 8b 0 _stdio_common_vfwprintf_s
FUNC 3c9dc 134 0 _stdio_common_vsnprintf_s
FUNC 3cb60 143 0 _stdio_common_vsnwprintf_s
FUNC 3ccf4 5 0 _stdio_common_vsprintf
FUNC 3ccfc 5 0 _stdio_common_vsprintf_p
FUNC 3cd04 63 0 _stdio_common_vsprintf_s
FUNC 3cd80 5 0 _stdio_common_vswprintf
FUNC 3cd88 5 0 _stdio_common_vswprintf_p
FUNC 3cd90 6e 0 _stdio_common_vswprintf_s
FUNC 3ce1c 13 0 ctype_fast_check_internal
FUNC 3ce34 14 0 isdigit_fast_internal
FUNC 3ce50 11 0 tolower_fast_internal
FUNC 3ce68 24 0 __crt_strtox::is_overflow_condition<unsigned long>(unsigned int,unsigned long)
FUNC 3ce98 30 0 __crt_strtox::is_overflow_condition<unsigned __int64>(unsigned int,unsigned __int64)
FUNC 3ced4 13 0 __crt_strtox::make_c_string_character_source<char,std::nullptr_t>(char const * const,std::nullptr_t)
FUNC 3ceec 13 0 __crt_strtox::make_c_string_character_source<wchar_t,std::nullptr_t>(wchar_t const * const,std::nullptr_t)
FUNC 3cf04 305 0 __crt_strtox::parse_integer<unsigned long,__crt_strtox::c_string_character_source<char> >(__crt_locale_pointers * const,__crt_strtox::c_string_character_source<char>,int,bool)
FUNC 3d2cc 6a8 0 __crt_strtox::parse_integer<unsigned long,__crt_strtox::c_string_character_source<wchar_t> >(__crt_locale_pointers * const,__crt_strtox::c_string_character_source<wchar_t>,int,bool)
FUNC 3db20 2f0 0 __crt_strtox::parse_integer<unsigned __int64,__crt_strtox::c_string_character_source<char> >(__crt_locale_pointers * const,__crt_strtox::c_string_character_source<char>,int,bool)
FUNC 3decc 758 0 __crt_strtox::parse_integer<unsigned __int64,__crt_strtox::c_string_character_source<wchar_t> >(__crt_locale_pointers * const,__crt_strtox::c_string_character_source<wchar_t>,int,bool)
FUNC 3e7fc 2e 0 __crt_strtox::parse_integer_from_string<long,char,std::nullptr_t>(char const * const,std::nullptr_t,int,__crt_locale_pointers * const)
FUNC 3e838 2e 0 __crt_strtox::parse_integer_from_string<long,wchar_t,std::nullptr_t>(wchar_t const * const,std::nullptr_t,int,__crt_locale_pointers * const)
FUNC 3e874 2e 0 __crt_strtox::parse_integer_from_string<__int64,char,std::nullptr_t>(char const * const,std::nullptr_t,int,__crt_locale_pointers * const)
FUNC 3e8b0 2e 0 __crt_strtox::parse_integer_from_string<__int64,wchar_t,std::nullptr_t>(wchar_t const * const,std::nullptr_t,int,__crt_locale_pointers * const)
FUNC 3e8ec 13 0 __crt_strtox::c_string_character_source<char>::c_string_character_source<char>(char const * const,char const * * const)
FUNC 3e904 13 0 __crt_strtox::c_string_character_source<wchar_t>::c_string_character_source<wchar_t>(wchar_t const * const,wchar_t const * * const)
FUNC 3e91c 10 0 __crt_strtox::c_string_character_source<char>::~c_string_character_source<char>()
FUNC 3e930 10 0 __crt_strtox::c_string_character_source<wchar_t>::~c_string_character_source<wchar_t>()
FUNC 3e944 c 0 __crt_strtox::c_string_character_source<char>::get()
FUNC 3e954 e 0 __crt_strtox::c_string_character_source<wchar_t>::get()
FUNC 3e968 1e 0 __crt_strtox::is_space(char,__crt_locale_pointers * const)
FUNC 3e990 18 0 __crt_strtox::is_space(wchar_t,__crt_locale_pointers *)
FUNC 3e9b0 6 0 __crt_strtox::maximum_signed_value(unsigned long)
FUNC 3e9b8 b 0 __crt_strtox::maximum_signed_value(unsigned __int64)
FUNC 3e9c8 6 0 __crt_strtox::minimum_signed_value(unsigned long)
FUNC 3e9d0 b 0 __crt_strtox::minimum_signed_value(unsigned __int64)
FUNC 3e9e0 2e 0 __crt_strtox::parse_digit(char)
FUNC 3ea1c 1d0 0 __crt_strtox::parse_digit(wchar_t)
FUNC 3ec60 6 0 __crt_strtox::c_string_character_source<char>::restore_state(char const * const)
FUNC 3ec68 6 0 __crt_strtox::c_string_character_source<wchar_t>::restore_state(wchar_t const * const)
FUNC 3ec70 4 0 __crt_strtox::c_string_character_source<char>::save_state()
FUNC 3ec74 4 0 __crt_strtox::c_string_character_source<wchar_t>::save_state()
FUNC 3ec78 2a 0 __crt_strtox::c_string_character_source<char>::unget(char)
FUNC 3ecac 2d 0 __crt_strtox::c_string_character_source<wchar_t>::unget(wchar_t)
FUNC 3ece4 25 0 __crt_strtox::c_string_character_source<char>::validate()
FUNC 3ed14 25 0 __crt_strtox::c_string_character_source<wchar_t>::validate()
FUNC 3ed44 1a0 0 __crt_strtox::wide_character_to_digit(wchar_t)
FUNC 3ef4c 4 0 _acrt_get_locale_data_prefix
FUNC 3ef50 19 0 _ascii_iswalpha
FUNC 3ef70 e 0 _ascii_toupper
FUNC 3ef84 d 0 _ascii_towupper
FUNC 3ef94 29 0 atoi64
FUNC 3efc8 2d 0 atoi64_l
FUNC 3f000 2d 0 atoi_l
FUNC 3f038 2d 0 atol_l
FUNC 3f070 2d 0 atoll_l
FUNC 3f0a8 61 0 chvalidchk_l
FUNC 3f124 76 0 ischartype_l
FUNC 3f1b8 29 0 wtoi
FUNC 3f1ec 29 0 wtoi64
FUNC 3f220 2d 0 wtoi64_l
FUNC 3f258 2d 0 wtoi_l
FUNC 3f290 29 0 wtol
FUNC 3f2c4 2d 0 wtol_l
FUNC 3f2fc 29 0 wtoll
FUNC 3f330 2d 0 wtoll_l
FUNC 3f368 29 0 atoi
FUNC 3f39c 29 0 atol
FUNC 3f3d0 29 0 atoll
FUNC 3f420 7d 0 strncmp
FUNC 3f4c0 1c 0 set_abort_behavior
FUNC 3f4e4 56 0 abort
FUNC 3f550 5 0 calloc
FUNC 3f558 2c 0 wcsncmp
FUNC 3f590 8 0 __crt_internal_free_policy::operator()<__acrt_ptd>(__acrt_ptd const * const)
FUNC 3f59c 3f 0 __crt_seh_guarded_call<void>::operator()<<lambda_0ae27a3a962d80f24befdcbee591983d>,<lambda_8d0ee55de4b1038c4002e0adecdf1839> &,<lambda_dc504788e8f1664fe9b84e20bfb512f2> >
FUNC 3f5ec 3d 0 __crt_seh_guarded_call<void>::operator()<<lambda_2d41944a1d46af3157314b8a01080d33>,<lambda_8f455de75cd7d7f24b4096f044d8b9e6> &,<lambda_aa500f224e6afead328df44964fe2772> >
FUNC 3f638 45 0 __crt_seh_guarded_call<void>::operator()<<lambda_aa87e3671a710a21b5dc78c0bdf72e11>,<lambda_92619d2358a28f41a33ba319515a20b9> &,<lambda_6992ecaafeb10aed2b74cb1fae11a551> >
FUNC 3f690 5f 0 __crt_seh_guarded_call<void>::operator()<<lambda_f2e299630e499de9f9a165e60fcd3db5>,<lambda_2ae9d31cdba2644fcbeaf08da7c24588> &,<lambda_40d01ff24d0e7b3814fdbdcee8eab3c7> >
FUNC 3f708 26 0 __acrt_lock_and_call<<lambda_2ae9d31cdba2644fcbeaf08da7c24588> >
FUNC 3f738 26 0 __acrt_lock_and_call<<lambda_8d0ee55de4b1038c4002e0adecdf1839> >
FUNC 3f768 26 0 __acrt_lock_and_call<<lambda_8f455de75cd7d7f24b4096f044d8b9e6> >
FUNC 3f798 26 0 __acrt_lock_and_call<<lambda_92619d2358a28f41a33ba319515a20b9> >
FUNC 3f7c8 8 0 <lambda_0ae27a3a962d80f24befdcbee591983d>::<lambda_0ae27a3a962d80f24befdcbee591983d>
FUNC 3f7d4 7 0 <lambda_2ae9d31cdba2644fcbeaf08da7c24588>::<lambda_2ae9d31cdba2644fcbeaf08da7c24588>
FUNC 3f7dc 8 0 <lambda_2d41944a1d46af3157314b8a01080d33>::<lambda_2d41944a1d46af3157314b8a01080d33>
FUNC 3f7e8 8 0 <lambda_40d01ff24d0e7b3814fdbdcee8eab3c7>::<lambda_40d01ff24d0e7b3814fdbdcee8eab3c7>
FUNC 3f7f4 8 0 <lambda_6992ecaafeb10aed2b74cb1fae11a551>::<lambda_6992ecaafeb10aed2b74cb1fae11a551>
FUNC 3f800 7 0 <lambda_8d0ee55de4b1038c4002e0adecdf1839>::<lambda_8d0ee55de4b1038c4002e0adecdf1839>
FUNC 3f808 7 0 <lambda_8f455de75cd7d7f24b4096f044d8b9e6>::<lambda_8f455de75cd7d7f24b4096f044d8b9e6>
FUNC 3f810 b 0 <lambda_92619d2358a28f41a33ba319515a20b9>::<lambda_92619d2358a28f41a33ba319515a20b9>
FUNC 3f820 8 0 <lambda_aa500f224e6afead328df44964fe2772>::<lambda_aa500f224e6afead328df44964fe2772>
FUNC 3f82c 8 0 <lambda_aa87e3671a710a21b5dc78c0bdf72e11>::<lambda_aa87e3671a710a21b5dc78c0bdf72e11>
FUNC 3f838 8 0 <lambda_dc504788e8f1664fe9b84e20bfb512f2>::<lambda_dc504788e8f1664fe9b84e20bfb512f2>
FUNC 3f844 8 0 <lambda_f2e299630e499de9f9a165e60fcd3db5>::<lambda_f2e299630e499de9f9a165e60fcd3db5>
FUNC 3f850 7 0 __crt_unique_heap_ptr<__acrt_ptd,__crt_internal_free_policy>::__crt_unique_heap_ptr<__acrt_ptd,__crt_internal_free_policy>(__acrt_ptd * const)
FUNC 3f858 1a 0 __crt_scoped_get_last_error_reset::__crt_scoped_get_last_error_reset()
FUNC 3f878 1b 0 __crt_unique_heap_ptr<__acrt_ptd,__crt_internal_free_policy>::~__crt_unique_heap_ptr<__acrt_ptd,__crt_internal_free_policy>()
FUNC 3f89c 9 0 __crt_scoped_get_last_error_reset::~__crt_scoped_get_last_error_reset()
FUNC 3f8a8 8 0 __crt_unique_heap_ptr<__acrt_ptd,__crt_internal_free_policy>::operator bool()
FUNC 3f8b4 7 0 <lambda_0ae27a3a962d80f24befdcbee591983d>::operator()
FUNC 3f8bc 38 0 <lambda_2ae9d31cdba2644fcbeaf08da7c24588>::operator()
FUNC 3f904 7 0 <lambda_2d41944a1d46af3157314b8a01080d33>::operator()
FUNC 3f90c 7 0 <lambda_40d01ff24d0e7b3814fdbdcee8eab3c7>::operator()
FUNC 3f914 7 0 <lambda_6992ecaafeb10aed2b74cb1fae11a551>::operator()
FUNC 3f91c 11 0 <lambda_8d0ee55de4b1038c4002e0adecdf1839>::operator()
FUNC 3f934 d 0 <lambda_8f455de75cd7d7f24b4096f044d8b9e6>::operator()
FUNC 3f944 15 0 <lambda_92619d2358a28f41a33ba319515a20b9>::operator()
FUNC 3f960 7 0 <lambda_aa500f224e6afead328df44964fe2772>::operator()
FUNC 3f968 7 0 <lambda_aa87e3671a710a21b5dc78c0bdf72e11>::operator()
FUNC 3f970 7 0 <lambda_dc504788e8f1664fe9b84e20bfb512f2>::operator()
FUNC 3f978 7 0 <lambda_f2e299630e499de9f9a165e60fcd3db5>::operator()
FUNC 3f980 c5 0 construct_ptd
FUNC 3fa78 cd 0 construct_ptd_array
FUNC 3fb78 4 0 __crt_state_management::dual_state_global<__crt_locale_data *>::dangerous_get_state_array
FUNC 3fb7c 20 0 destroy_fls
FUNC 3fba4 f5 0 destroy_ptd
FUNC 3fcd8 f5 0 destroy_ptd_array
FUNC 3fe0c 8 0 __crt_unique_heap_ptr<__acrt_ptd,__crt_internal_free_policy>::detach()
FUNC 3fe18 4 0 __crt_unique_heap_ptr<__acrt_ptd,__crt_internal_free_policy>::get()
FUNC 3fe1c 3 0 __crt_state_management::get_current_state_index(__crt_scoped_get_last_error_reset const &)
FUNC 3fe20 9f 0 internal_get_ptd_head
FUNC 3fee8 c8 0 internal_getptd_noexit
FUNC 3ffe4 8 0 __crt_unique_heap_ptr<__acrt_ptd,__crt_internal_free_policy>::is_valid()
FUNC 3fff0 1b 0 __crt_unique_heap_ptr<__acrt_ptd,__crt_internal_free_policy>::release()
FUNC 40014 67 0 replace_current_thread_locale_nolock
FUNC 40094 20 0 try_get_ptd_head
FUNC 400bc 4 0 __crt_state_management::dual_state_global<__crt_locale_data *>::value
FUNC 400c0 41 0 _acrt_freeptd
FUNC 40114 d4 0 _acrt_getptd
FUNC 40220 a7 0 _acrt_getptd_head
FUNC 402f0 cc 0 _acrt_getptd_noexit
FUNC 403f0 39 0 _acrt_initialize_ptd
FUNC 40438 22 0 _acrt_uninitialize_ptd
FUNC 40464 7 0 _threadhandle
FUNC 4046c 7 0 _threadid
FUNC 40474 8 0 select_heap
FUNC 40480 3d 0 free_base
FUNC 404cc 48 0 _acrt_initialize_locks
FUNC 40528 19 0 _acrt_lock
FUNC 40548 37 0 _acrt_uninitialize_locks
FUNC 4058c 19 0 _acrt_unlock
FUNC 405ac 1b 0 lock_locales
FUNC 405d0 e 0 unlock_locales
FUNC 405e4 4c 0 get_cached_win_policy<`__acrt_get_begin_thread_init_policy'::`2'::begin_thread_init_policy_properties>
FUNC 40644 4c 0 get_cached_win_policy<`__acrt_get_developer_information_policy'::`2'::developer_information_policy_properties>
FUNC 406a4 69 0 get_cached_win_policy<`__acrt_get_windowing_model_policy'::`2'::windowing_model_policy_properties>
FUNC 40728 38 0 get_win_policy<`__acrt_get_process_end_policy'::`2'::process_end_policy_properties>
FUNC 40770 5 0 `__acrt_get_begin_thread_init_policy'::`2'::begin_thread_init_policy_properties::appmodel_get_policy
FUNC 40778 5 0 `__acrt_get_developer_information_policy'::`2'::developer_information_policy_properties::appmodel_get_policy
FUNC 40780 5 0 `__acrt_get_process_end_policy'::`2'::process_end_policy_properties::appmodel_get_policy
FUNC 40788 5 0 `__acrt_get_windowing_model_policy'::`2'::windowing_model_policy_properties::appmodel_get_policy
FUNC 40790 b 0 `__acrt_get_begin_thread_init_policy'::`2'::begin_thread_init_policy_properties::appmodel_policy_to_policy_type
FUNC 407a0 b 0 `__acrt_get_developer_information_policy'::`2'::developer_information_policy_properties::appmodel_policy_to_policy_type
FUNC 407b0 9 0 `__acrt_get_process_end_policy'::`2'::process_end_policy_properties::appmodel_policy_to_policy_type
FUNC 407bc 27 0 `__acrt_get_windowing_model_policy'::`2'::windowing_model_policy_properties::appmodel_policy_to_policy_type
FUNC 407ec 51 0 _acrt_get_begin_thread_init_policy
FUNC 40854 51 0 _acrt_get_developer_information_policy
FUNC 408bc 3c 0 _acrt_get_process_end_policy
FUNC 40908 6c 0 _acrt_get_windowing_model_policy
FUNC 40990 45 0 _acrt_errno_from_os_error
FUNC 409e8 4e 0 _acrt_errno_map_os_error
FUNC 40a4c 20 0 _doserrno
FUNC 40a74 20 0 errno
FUNC 40a9c 3b 0 get_doserrno
FUNC 40ae8 3b 0 get_errno
FUNC 40b34 3a 0 set_doserrno
FUNC 40b7c 3a 0 set_errno
FUNC 40bc4 75 0 calloc_base
FUNC 40c58 12 0 <lambda_861af8918f661c876f88da8747958ced>::<lambda_invoker_cdecl>
FUNC 40c70 12 0 <lambda_a1ce4c8ae42411fd470c77163914f50e>::<lambda_invoker_cdecl>
FUNC 40c88 179 0 __acrt_convert_wcs_mbs_cp<char,wchar_t,<lambda_7c9dea7b4ca7285d2cdb541a38da6275>,__crt_win32_buffer_internal_dynamic_resizing>
FUNC 40e60 18b 0 __acrt_convert_wcs_mbs_cp<wchar_t,char,<lambda_d8593a27d1aa8c02be35c86a17d324c4>,__crt_win32_buffer_internal_dynamic_resizing>
FUNC 41050 176 0 __acrt_mbs_to_wcs_cp<__crt_win32_buffer_internal_dynamic_resizing>(char const * const,__crt_win32_buffer<wchar_t,__crt_win32_buffer_internal_dynamic_resizing> &,unsigned int)
FUNC 41224 18a 0 __acrt_wcs_to_mbs_cp<__crt_win32_buffer_internal_dynamic_resizing>(wchar_t const * const,__crt_win32_buffer<char,__crt_win32_buffer_internal_dynamic_resizing> &,unsigned int)
FUNC 41410 209 0 common_expand_argv_wildcards<char>
FUNC 4169c 3ca 0 common_expand_argv_wildcards<wchar_t>
FUNC 41b58 187 0 copy_and_add_argument_to_buffer<char>
FUNC 41d40 189 0 copy_and_add_argument_to_buffer<wchar_t>
FUNC 41f2c 30e 0 expand_argument_wildcards<char>
FUNC 42300 19b 0 expand_argument_wildcards<wchar_t>
FUNC 42504 11 0 __crt_char_traits<char>::tcslen<char const * const &>
FUNC 4251c 12 0 __crt_char_traits<wchar_t>::tcslen<wchar_t const * const &>
FUNC 42534 11 0 __crt_char_traits<char>::tcsncpy_s<char * &,unsigned __int64,char * &,unsigned __int64 const &>
FUNC 4254c 11 0 __crt_char_traits<wchar_t>::tcsncpy_s<wchar_t * &,unsigned __int64,wchar_t * &,unsigned __int64 const &>
FUNC 42564 11 0 __crt_char_traits<char>::tcsncpy_s<char *,unsigned __int64 const &,char const * const &,unsigned __int64 const &>
FUNC 4257c 11 0 __crt_char_traits<char>::tcsncpy_s<char *,unsigned __int64,char const * const &,unsigned __int64 const &>
FUNC 42594 11 0 __crt_char_traits<wchar_t>::tcsncpy_s<wchar_t *,unsigned __int64 const &,wchar_t const * const &,unsigned __int64 const &>
FUNC 425ac 11 0 __crt_char_traits<wchar_t>::tcsncpy_s<wchar_t *,unsigned __int64,wchar_t const * const &,unsigned __int64 const &>
FUNC 425c4 8 0 __crt_char_traits<char>::tcspbrk<char * &,char const (&)[3]>
FUNC 425d0 8 0 __crt_char_traits<wchar_t>::tcspbrk<wchar_t * &,wchar_t const (&)[3]>
FUNC 425dc 7 0 __crt_unique_handle_t<__crt_findfile_traits>::__crt_unique_handle_t<__crt_findfile_traits>(void * const)
FUNC 425e4 1c 0 __crt_win32_buffer<char,__crt_win32_buffer_internal_dynamic_resizing>::__crt_win32_buffer<char,__crt_win32_buffer_internal_dynamic_resizing>()
FUNC 42608 1c 0 __crt_win32_buffer<wchar_t,__crt_win32_buffer_internal_dynamic_resizing>::__crt_win32_buffer<wchar_t,__crt_win32_buffer_internal_dynamic_resizing>()
FUNC 4262c 11 0 `anonymous namespace'::argument_list<char>::argument_list<char>
FUNC 42644 11 0 `anonymous namespace'::argument_list<wchar_t>::argument_list<wchar_t>
FUNC 4265c 22 0 __crt_unique_handle_t<__crt_findfile_traits>::~__crt_unique_handle_t<__crt_findfile_traits>()
FUNC 42688 22 0 __crt_win32_buffer<char,__crt_win32_buffer_internal_dynamic_resizing>::~__crt_win32_buffer<char,__crt_win32_buffer_internal_dynamic_resizing>()
FUNC 426b4 22 0 __crt_win32_buffer<wchar_t,__crt_win32_buffer_internal_dynamic_resizing>::~__crt_win32_buffer<wchar_t,__crt_win32_buffer_internal_dynamic_resizing>()
FUNC 426e0 3d 0 `anonymous namespace'::argument_list<char>::~argument_list<char>
FUNC 4272c 3d 0 `anonymous namespace'::argument_list<wchar_t>::~argument_list<wchar_t>
FUNC 42778 8 0 <lambda_861af8918f661c876f88da8747958ced>::operator int (__cdecl*)(void const *,void const *)
FUNC 42784 8 0 <lambda_a1ce4c8ae42411fd470c77163914f50e>::operator int (__cdecl*)(void const *,void const *)
FUNC 42790 25 0 <lambda_7c9dea7b4ca7285d2cdb541a38da6275>::operator()
FUNC 427c0 12 0 <lambda_861af8918f661c876f88da8747958ced>::operator()
FUNC 427d8 12 0 <lambda_a1ce4c8ae42411fd470c77163914f50e>::operator()
FUNC 427f0 23 0 <lambda_cc44a96f04e0393500626269309609b4>::operator()
FUNC 4281c 22 0 <lambda_cfae5a0e6efa98e0d1aa03c4cec8f74e>::operator()
FUNC 42848 2f 0 <lambda_d8593a27d1aa8c02be35c86a17d324c4>::operator()
FUNC 42884 49 0 __acrt_get_utf8_acp_compatibility_codepage()
FUNC 428e0 22 0 __crt_win32_buffer<char,__crt_win32_buffer_internal_dynamic_resizing>::_deallocate()
FUNC 4290c 22 0 __crt_win32_buffer<wchar_t,__crt_win32_buffer_internal_dynamic_resizing>::_deallocate()
FUNC 42938 5b 0 __crt_win32_buffer<char,__crt_win32_buffer_internal_dynamic_resizing>::allocate(unsigned __int64)
FUNC 429ac 5c 0 __crt_win32_buffer<wchar_t,__crt_win32_buffer_internal_dynamic_resizing>::allocate(unsigned __int64)
FUNC 42a20 24 0 __crt_win32_buffer_internal_dynamic_resizing::allocate(void * * const,unsigned __int64,__crt_win32_buffer_empty_debug_info const &)
FUNC 42a50 de 0 `anonymous namespace'::argument_list<char>::append
FUNC 42b68 de 0 `anonymous namespace'::argument_list<wchar_t>::append
FUNC 42c80 4 0 `anonymous namespace'::argument_list<char>::begin
FUNC 42c84 4 0 `anonymous namespace'::argument_list<wchar_t>::begin
FUNC 42c88 5 0 __crt_win32_buffer<char,__crt_win32_buffer_internal_dynamic_resizing>::capacity()
FUNC 42c90 5 0 __crt_win32_buffer<wchar_t,__crt_win32_buffer_internal_dynamic_resizing>::capacity()
FUNC 42c98 22 0 __crt_unique_handle_t<__crt_findfile_traits>::close()
FUNC 42cc4 14 0 __crt_findfile_traits::close(void *)
FUNC 42ce0 5 0 __crt_win32_buffer<char,__crt_win32_buffer_internal_dynamic_resizing>::data()
FUNC 42ce8 5 0 __crt_win32_buffer<wchar_t,__crt_win32_buffer_internal_dynamic_resizing>::data()
FUNC 42cf0 5 0 __crt_win32_buffer_internal_dynamic_resizing::deallocate(void * const,__crt_win32_buffer_empty_debug_info const &)
FUNC 42cf8 4 0 __crt_win32_buffer<char,__crt_win32_buffer_internal_dynamic_resizing>::debug_info()
FUNC 42cfc 4 0 __crt_win32_buffer<wchar_t,__crt_win32_buffer_internal_dynamic_resizing>::debug_info()
FUNC 42d00 5 0 `anonymous namespace'::argument_list<char>::end
FUNC 42d08 5 0 `anonymous namespace'::argument_list<wchar_t>::end
FUNC 42d10 c7 0 `anonymous namespace'::argument_list<char>::expand_if_necessary
FUNC 42e08 c7 0 `anonymous namespace'::argument_list<wchar_t>::expand_if_necessary
FUNC 42f00 4 0 __crt_unique_handle_t<__crt_findfile_traits>::get()
FUNC 42f04 9d 0 get_file_name
FUNC 42fc8 4 0 get_file_name
FUNC 42fcc 5 0 __crt_findfile_traits::get_invalid_value()
FUNC 42fd4 4 0 get_wide
FUNC 42fd8 9d 0 get_wide
FUNC 4309c 5 0 previous_character
FUNC 430a4 5 0 previous_character
FUNC 430ac 31 0 __crt_win32_buffer<char,__crt_win32_buffer_internal_dynamic_resizing>::set_to_nullptr()
FUNC 430ec 31 0 __crt_win32_buffer<wchar_t,__crt_win32_buffer_internal_dynamic_resizing>::set_to_nullptr()
FUNC 4312c 5 0 __crt_win32_buffer<char,__crt_win32_buffer_internal_dynamic_resizing>::size(unsigned __int64)
FUNC 43134 5 0 __crt_win32_buffer<wchar_t,__crt_win32_buffer_internal_dynamic_resizing>::size(unsigned __int64)
FUNC 4313c c 0 `anonymous namespace'::argument_list<char>::size
FUNC 4314c c 0 `anonymous namespace'::argument_list<wchar_t>::size
FUNC 4315c 5 0 strpbrk(char * const,char const * const)
FUNC 43164 5 0 wcspbrk(wchar_t *,wchar_t const *)
FUNC 4316c 5 0 _acrt_expand_narrow_argv_wildcards
FUNC 43174 5 0 _acrt_expand_wide_argv_wildcards
FUNC 4317c 119 0 __acrt_convert_wcs_mbs_cp<wchar_t,char,<lambda_f788ae46380686e8b737efdd8c720d07>,__crt_win32_buffer_no_resizing>
FUNC 432dc 111 0 __acrt_wcs_to_mbs_cp<__crt_win32_buffer_no_resizing>(wchar_t const * const,__crt_win32_buffer<char,__crt_win32_buffer_no_resizing> &,unsigned int)
FUNC 43434 1c 0 __crt_win32_buffer<char,__crt_win32_buffer_no_resizing>::__crt_win32_buffer<char,__crt_win32_buffer_no_resizing>(char * const,unsigned __int64)
FUNC 43458 b 0 __crt_win32_buffer<char,__crt_win32_buffer_no_resizing>::~__crt_win32_buffer<char,__crt_win32_buffer_no_resizing>()
FUNC 43468 2f 0 <lambda_f788ae46380686e8b737efdd8c720d07>::operator()
FUNC 434a4 b 0 __crt_win32_buffer<char,__crt_win32_buffer_no_resizing>::_deallocate()
FUNC 434b4 30 0 __crt_win32_buffer<char,__crt_win32_buffer_no_resizing>::allocate(unsigned __int64)
FUNC 434f0 17 0 __crt_win32_buffer_no_resizing::allocate(void * * const,unsigned __int64,__crt_win32_buffer_empty_debug_info const &)
FUNC 4350c 5 0 __crt_win32_buffer<char,__crt_win32_buffer_no_resizing>::capacity()
FUNC 43514 5 0 __crt_win32_buffer<char,__crt_win32_buffer_no_resizing>::data()
FUNC 4351c 3 0 __crt_win32_buffer_no_resizing::deallocate(void * const,__crt_win32_buffer_empty_debug_info const &)
FUNC 43520 4 0 __crt_win32_buffer<char,__crt_win32_buffer_no_resizing>::debug_info()
FUNC 43524 17 0 __crt_win32_buffer<char,__crt_win32_buffer_no_resizing>::set_to_nullptr()
FUNC 43540 5 0 __crt_win32_buffer<char,__crt_win32_buffer_no_resizing>::size(unsigned __int64)
FUNC 43548 5 0 __crt_win32_buffer<char,__crt_win32_buffer_no_resizing>::size()
FUNC 43550 11e 0 _acrt_GetModuleFileNameA
FUNC 436b8 8 0 __crt_internal_free_policy::operator()<__crt_multibyte_data>(__crt_multibyte_data const * const)
FUNC 436c4 1ba 0 __crt_seh_guarded_call<void>::operator()<<lambda_efdfa57d1f175319df784efa44bb7b81>,<lambda_5f0a4c1567f8adc6734073e5d1e1b35c> &,<lambda_2e8a7d3640ea6ccb4c2413664c2db6fd> >
FUNC 438ec 26 0 __acrt_lock_and_call<<lambda_5f0a4c1567f8adc6734073e5d1e1b35c> >
FUNC 4391c 4 0 __crt_state_management::dual_state_global<unsigned char *>::initialize_from_array<unsigned char [1][256]>
FUNC 43920 4 0 __crt_state_management::dual_state_global<unsigned char *>::initialize_from_array<unsigned char [1][257]>
FUNC 43924 8 0 <lambda_2e8a7d3640ea6ccb4c2413664c2db6fd>::<lambda_2e8a7d3640ea6ccb4c2413664c2db6fd>
FUNC 43930 b 0 <lambda_5f0a4c1567f8adc6734073e5d1e1b35c>::<lambda_5f0a4c1567f8adc6734073e5d1e1b35c>
FUNC 43940 8 0 <lambda_efdfa57d1f175319df784efa44bb7b81>::<lambda_efdfa57d1f175319df784efa44bb7b81>
FUNC 4394c 7 0 __crt_unique_heap_ptr<__crt_multibyte_data,__crt_internal_free_policy>::__crt_unique_heap_ptr<__crt_multibyte_data,__crt_internal_free_policy>(__crt_multibyte_data * const)
FUNC 43954 1b 0 __crt_unique_heap_ptr<__crt_multibyte_data,__crt_internal_free_policy>::~__crt_unique_heap_ptr<__crt_multibyte_data,__crt_internal_free_policy>()
FUNC 43978 8 0 __crt_unique_heap_ptr<__crt_multibyte_data,__crt_internal_free_policy>::operator bool()
FUNC 43984 7 0 <lambda_2e8a7d3640ea6ccb4c2413664c2db6fd>::operator()
FUNC 4398c 1a0 0 <lambda_5f0a4c1567f8adc6734073e5d1e1b35c>::operator()
FUNC 43b94 7 0 <lambda_efdfa57d1f175319df784efa44bb7b81>::operator()
FUNC 43b9c 3a 0 CPtoLocaleName
FUNC 43be4 4 0 __crt_state_management::dual_state_global<unsigned char *>::dangerous_get_state_array
FUNC 43be8 4 0 __crt_state_management::dual_state_global<__crt_multibyte_data *>::dangerous_get_state_array
FUNC 43bec 8 0 __crt_unique_heap_ptr<__crt_multibyte_data,__crt_internal_free_policy>::detach()
FUNC 43bf8 4 0 __crt_unique_heap_ptr<__crt_multibyte_data,__crt_internal_free_policy>::get()
FUNC 43bfc 7d 0 getSystemCP
FUNC 43c98 27 0 __crt_state_management::dual_state_global<__crt_multibyte_data *>::initialize
FUNC 43cc8 8 0 __crt_unique_heap_ptr<__crt_multibyte_data,__crt_internal_free_policy>::is_valid()
FUNC 43cd4 1b 0 __crt_unique_heap_ptr<__crt_multibyte_data,__crt_internal_free_policy>::release()
FUNC 43cf8 90 0 setSBCS
FUNC 43dac 1e3 0 setSBUpLow
FUNC 44008 1c2 0 setmbcp_internal
FUNC 4423c b8 0 update_thread_multibyte_data_internal
FUNC 44324 4 0 __crt_state_management::dual_state_global<unsigned char *>::value
FUNC 44328 4 0 __crt_state_management::dual_state_global<__crt_multibyte_data *>::value
FUNC 4432c 60 0 _acrt_initialize_multibyte
FUNC 443a4 1c 0 _acrt_update_thread_multibyte_data
FUNC 443c8 8 0 _p__mbcasemap
FUNC 443d4 8 0 _p__mbctype
FUNC 443e0 3a 0 getmbcp
FUNC 44428 25 0 setmbcp
FUNC 44458 2b9 0 setmbcp_nolock
FUNC 447c0 87 0 memcpy_s
FUNC 44868 75 0 x_ismbbtype_l
FUNC 448fc 15 0 ismbbalnum
FUNC 44918 19 0 ismbbalnum_l
FUNC 44938 15 0 ismbbalpha
FUNC 44954 19 0 ismbbalpha_l
FUNC 44974 1c 0 ismbbblank
FUNC 44998 20 0 ismbbblank_l
FUNC 449c0 15 0 ismbbgraph
FUNC 449dc 19 0 ismbbgraph_l
FUNC 449fc 12 0 ismbbkalnum
FUNC 44a14 16 0 ismbbkalnum_l
FUNC 44a30 7 0 ismbbkana
FUNC 44a38 65 0 ismbbkana_l
FUNC 44ab8 12 0 ismbbkprint
FUNC 44ad0 16 0 ismbbkprint_l
FUNC 44aec 12 0 ismbbkpunct
FUNC 44b04 16 0 ismbbkpunct_l
FUNC 44b20 12 0 ismbblead
FUNC 44b38 16 0 ismbblead_l
FUNC 44b54 15 0 ismbbprint
FUNC 44b70 19 0 ismbbprint_l
FUNC 44b90 13 0 ismbbpunct
FUNC 44ba8 17 0 ismbbpunct_l
FUNC 44bc4 12 0 ismbbtrail
FUNC 44bdc 16 0 ismbbtrail_l
FUNC 44bf8 25 0 _acrt_initialize_command_line
FUNC 44c28 3 0 _acrt_uninitialize_command_line
FUNC 44c2c 8 0 _p___argc
FUNC 44c38 8 0 _p___argv
FUNC 44c44 8 0 _p___wargv
FUNC 44c50 8 0 _p__acmdln
FUNC 44c5c 8 0 _p__pgmptr
FUNC 44c68 8 0 _p__wcmdln
FUNC 44c74 8 0 _p__wpgmptr
FUNC 44c80 36 0 get_pgmptr
FUNC 44cc4 36 0 get_wpgmptr
FUNC 44d08 6c 0 common_tcscpy_s<wchar_t>
FUNC 44d90 65 0 wcscpy_s
FUNC 44e10 55 0 filter_mbtowcs_flags
FUNC 44e7c 5a 0 _acrt_MultiByteToWideChar
FUNC 44eec 44 0 filter_wcstomb_flags
FUNC 44f44 96 0 _acrt_WideCharToMultiByte
FUNC 45000 7 0 __crt_unique_handle_t<`anonymous namespace'::environment_strings_traits>::__crt_unique_handle_t<`anonymous namespace'::environment_strings_traits>
FUNC 45008 21 0 __crt_unique_handle_t<`anonymous namespace'::environment_strings_traits>::~__crt_unique_handle_t<`anonymous namespace'::environment_strings_traits>
FUNC 45034 8 0 __crt_unique_handle_t<`anonymous namespace'::environment_strings_traits>::operator bool
FUNC 45040 21 0 __crt_unique_handle_t<`anonymous namespace'::environment_strings_traits>::close
FUNC 4506c 11 0 `anonymous namespace'::environment_strings_traits::close
FUNC 45084 23 0 find_end_of_double_null_terminated_sequence
FUNC 450b0 4 0 __crt_unique_handle_t<`anonymous namespace'::environment_strings_traits>::get
FUNC 450b4 3 0 `anonymous namespace'::environment_strings_traits::get_invalid_value
FUNC 450b8 8 0 __crt_unique_handle_t<`anonymous namespace'::environment_strings_traits>::is_valid
FUNC 450c4 101 0 _dcrt_get_narrow_environment_from_os
FUNC 45208 9f 0 _dcrt_get_wide_environment_from_os
FUNC 452d0 320 0 common_set_variable_in_environment_nolock<char>
FUNC 456b8 322 0 common_set_variable_in_environment_nolock<wchar_t>
FUNC 45aa4 e5 0 copy_environment<char>
FUNC 45bc4 ef 0 copy_environment<wchar_t>
FUNC 45cf0 25 0 ensure_current_environment_is_not_initial_environment_nolock<char>
FUNC 45d20 25 0 ensure_current_environment_is_not_initial_environment_nolock<wchar_t>
FUNC 45d50 81 0 find_in_environment_nolock<char>
FUNC 45df4 91 0 find_in_environment_nolock<wchar_t>
FUNC 45eac 5 0 __crt_char_traits<char>::get_or_create_environment_nolock<>()
FUNC 45eb4 5 0 __crt_char_traits<wchar_t>::get_or_create_environment_nolock<>()
FUNC 45ebc b 0 __crt_char_traits<char>::set_environment_variable<char * const &,char * const>
FUNC 45ecc d 0 __crt_char_traits<wchar_t>::set_environment_variable<wchar_t * const &,wchar_t * const>
FUNC 45edc b 0 __crt_char_traits<char>::tcschr<char * const &,char>
FUNC 45eec b 0 __crt_char_traits<wchar_t>::tcschr<wchar_t * const &,char>
FUNC 45efc e 0 __crt_char_traits<char>::tcscpy_s<char * &,unsigned __int64 const &,char * &>
FUNC 45f10 e 0 __crt_char_traits<wchar_t>::tcscpy_s<wchar_t * &,unsigned __int64 const &,wchar_t * &>
FUNC 45f24 e 0 __crt_char_traits<char>::tcscpy_s<char * const &,unsigned __int64 const &,char * const &>
FUNC 45f38 e 0 __crt_char_traits<wchar_t>::tcscpy_s<wchar_t * const &,unsigned __int64 const &,wchar_t * const &>
FUNC 45f4c 11 0 __crt_char_traits<char>::tcslen<char * const &>
FUNC 45f64 12 0 __crt_char_traits<wchar_t>::tcslen<wchar_t * const &>
FUNC 45f7c e 0 __crt_char_traits<char>::tcsnicoll<char const * const &,char * &,unsigned __int64 const &>
FUNC 45f90 e 0 __crt_char_traits<wchar_t>::tcsnicoll<wchar_t const * const &,wchar_t * &,unsigned __int64 const &>
FUNC 45fa4 8 0 get_environment
FUNC 45fb0 8 0 get_environment
FUNC 45fbc 8 0 get_initial_environment
FUNC 45fc8 8 0 get_initial_environment
FUNC 45fd4 8 0 get_other_environment
FUNC 45fe0 8 0 get_other_environment
FUNC 45fec 5 0 strchr(char * const,int)
FUNC 45ff4 5 0 wcschr(wchar_t *,wchar_t)
FUNC 45ffc 5 0 _dcrt_set_variable_in_narrow_environment_nolock
FUNC 46004 5 0 _dcrt_set_variable_in_wide_environment_nolock
FUNC 4600c 5 0 recalloc
FUNC 46014 95 0 recalloc_base
FUNC 460d0 28 0 <lambda_795c6bd18aed400428efeb9a5f0e1479>::<lambda_invoker_cdecl>
FUNC 46104 8 0 __crt_fast_encoded_nullptr_t::operator<int __cdecl(wchar_t *,unsigned long,__int64)> int (__cdecl*)(wchar_t *,unsigned long,__int64)
FUNC 46110 79 0 __crt_seh_guarded_call<int>::operator()<<lambda_48fc4a32460bb0512d3b13f8499328be>,<lambda_6c3dac0a4f3f9cefca9bb494422f9b77> &,<lambda_0a2f2c9f9a56eb2b08bfa6ff61d331c5> >
FUNC 461a8 26 0 __acrt_lock_and_call<<lambda_6c3dac0a4f3f9cefca9bb494422f9b77> >
FUNC 461d8 16 0 __crt_fast_decode_pointer<int (__cdecl*)(wchar_t *,unsigned long,__int64)>
FUNC 461f4 1e 0 __crt_fast_encode_pointer<int (__cdecl*)(wchar_t *,unsigned long,__int64)>
FUNC 4621c 8 0 <lambda_0a2f2c9f9a56eb2b08bfa6ff61d331c5>::<lambda_0a2f2c9f9a56eb2b08bfa6ff61d331c5>
FUNC 46228 8 0 <lambda_48fc4a32460bb0512d3b13f8499328be>::<lambda_48fc4a32460bb0512d3b13f8499328be>
FUNC 46234 7 0 <lambda_6c3dac0a4f3f9cefca9bb494422f9b77>::<lambda_6c3dac0a4f3f9cefca9bb494422f9b77>
FUNC 4623c 8 0 <lambda_795c6bd18aed400428efeb9a5f0e1479>::operator int (__cdecl*)(wchar_t *)
FUNC 46248 7 0 <lambda_0a2f2c9f9a56eb2b08bfa6ff61d331c5>::operator()
FUNC 46250 7 0 <lambda_48fc4a32460bb0512d3b13f8499328be>::operator()
FUNC 46258 53 0 <lambda_6c3dac0a4f3f9cefca9bb494422f9b77>::operator()
FUNC 462c0 28 0 <lambda_795c6bd18aed400428efeb9a5f0e1479>::operator()
FUNC 462f4 4d 0 enum_system_locales_ex_nolock
FUNC 46354 5 0 invalid_function_sentinel
FUNC 4635c 1f 0 try_get_AppPolicyGetProcessTerminationMethod
FUNC 46384 1f 0 try_get_AppPolicyGetShowDeveloperDiagnostic
FUNC 463ac 1f 0 try_get_AppPolicyGetThreadInitializationType
FUNC 463d4 1f 0 try_get_AppPolicyGetWindowingModel
FUNC 463fc 1c 0 try_get_AreFileApisANSI
FUNC 46420 1f 0 try_get_CompareStringEx
FUNC 46448 1f 0 try_get_EnumSystemLocalesEx
FUNC 46470 1f 0 try_get_FlsAlloc
FUNC 46498 1f 0 try_get_FlsFree
FUNC 464c0 1f 0 try_get_FlsGetValue
FUNC 464e8 1f 0 try_get_FlsSetValue
FUNC 46510 1f 0 try_get_GetActiveWindow
FUNC 46538 1f 0 try_get_GetDateFormatEx
FUNC 46560 1f 0 try_get_GetEnabledXStateFeatures
FUNC 46588 1f 0 try_get_GetLastActivePopup
FUNC 465b0 1f 0 try_get_GetLocaleInfoEx
FUNC 465d8 1f 0 try_get_GetProcessWindowStation
FUNC 46600 1f 0 try_get_GetSystemTimePreciseAsFileTime
FUNC 46628 1f 0 try_get_GetTimeFormatEx
FUNC 46650 1f 0 try_get_GetUserDefaultLocaleName
FUNC 46678 1f 0 try_get_GetUserObjectInformationW
FUNC 466a0 1f 0 try_get_GetXStateFeaturesMask
FUNC 466c8 1f 0 try_get_InitializeCriticalSectionEx
FUNC 466f0 1f 0 try_get_IsValidLocaleName
FUNC 46718 1f 0 try_get_LCIDToLocaleName
FUNC 46740 1f 0 try_get_LCMapStringEx
FUNC 46768 1f 0 try_get_LocaleNameToLCID
FUNC 46790 1f 0 try_get_LocateXStateFeature
FUNC 467b8 1f 0 try_get_MessageBoxA
FUNC 467e0 1f 0 try_get_MessageBoxW
FUNC 46808 1f 0 try_get_RoInitialize
FUNC 46830 1f 0 try_get_RoUninitialize
FUNC 46858 1f 0 try_get_SetThreadStackGuarantee
FUNC 46880 1f 0 try_get_SystemFunction036
FUNC 468a8 119 0 try_get_first_available_module
FUNC 46a08 1d6 0 try_get_function
FUNC 46c54 fe 0 try_get_module
FUNC 46d94 137 0 try_get_proc_address_from_first_available_module
FUNC 46f18 73 0 try_load_library_from_system_directory
FUNC 46fa8 8 0 GetCurrentThreadEffectiveToken
FUNC 46fb4 4e 0 _acrt_AppPolicyGetProcessTerminationMethodInternal
FUNC 47018 4e 0 _acrt_AppPolicyGetShowDeveloperDiagnosticInternal
FUNC 4707c 4e 0 _acrt_AppPolicyGetThreadInitializationTypeInternal
FUNC 470e0 4e 0 _acrt_AppPolicyGetWindowingModelInternal
FUNC 47144 3a 0 _acrt_AreFileApisANSI
FUNC 4718c dc 0 _acrt_CompareStringEx
FUNC 472a0 95 0 _acrt_EnumSystemLocalesEx
FUNC 4735c 48 0 _acrt_FlsAlloc
FUNC 473b8 46 0 _acrt_FlsFree
FUNC 47410 46 0 _acrt_FlsGetValue
FUNC 47468 51 0 _acrt_FlsSetValue
FUNC 474d0 b6 0 _acrt_GetDateFormatEx
FUNC 475b4 39 0 _acrt_GetEnabledXStateFeatures
FUNC 475fc 82 0 _acrt_GetLocaleInfoEx
FUNC 476a0 48 0 _acrt_GetSystemTimePreciseAsFileTime
FUNC 476fc ab 0 _acrt_GetTimeFormatEx
FUNC 477d4 61 0 _acrt_GetUserDefaultLocaleName
FUNC 47850 51 0 _acrt_GetXStateFeaturesMask
FUNC 478b8 61 0 _acrt_InitializeCriticalSectionEx
FUNC 47934 56 0 _acrt_IsValidLocaleName
FUNC 479a0 70 0 _acrt_LCIDToLocaleName
FUNC 47a2c dc 0 _acrt_LCMapStringEx
FUNC 47b40 50 0 _acrt_LocaleNameToLCID
FUNC 47ba4 5f 0 _acrt_LocateXStateFeature
FUNC 47c1c 71 0 _acrt_MessageBoxA
FUNC 47cac 71 0 _acrt_MessageBoxW
FUNC 47d3c 40 0 _acrt_RoInitialize
FUNC 47d8c 33 0 _acrt_RoUninitialize
FUNC 47dcc 4f 0 _acrt_RtlGenRandom
FUNC 47e30 42 0 _acrt_SetThreadStackGuarantee
FUNC 47e84 6d 0 _acrt_can_show_message_box
FUNC 47f0c 2e 0 _acrt_can_use_vista_locale_apis
FUNC 47f48 2e 0 _acrt_can_use_xstate_apis
FUNC 47f84 15a 0 _acrt_eagerly_load_locale_apis
FUNC 48134 78 0 _acrt_get_parent_window
FUNC 481cc 31 0 _acrt_initialize_winapi_thunks
FUNC 4820c c6 0 _acrt_is_interactive
FUNC 48304 41 0 _acrt_uninitialize_winapi_thunks
FUNC 48358 8 0 _acrt_getheap
FUNC 48364 1c 0 _acrt_initialize_heap
FUNC 48388 b 0 _acrt_uninitialize_heap
FUNC 48398 8 0 get_heap_handle
FUNC 483a4 1b 0 get_std_handle_id
FUNC 483c8 ed 0 initialize_inherited_file_handles_nolock
FUNC 484f0 10c 0 initialize_stdio_handles_nolock
FUNC 48640 3b 0 _acrt_initialize_lowio
FUNC 4868c 40 0 _acrt_uninitialize_lowio
FUNC 486dc 80 0 _acrt_execute_initializers
FUNC 4877c 3c 0 _acrt_execute_uninitializers
FUNC 487c8 8 0 __crt_fast_encoded_nullptr_t::operator<int > int (*)(unsigned __int64)()
FUNC 487d4 16 0 __crt_fast_decode_pointer<int (*)(unsigned __int64)>(int (*const)(unsigned __int64))
FUNC 487f0 1e 0 __crt_fast_encode_pointer<int (*)(unsigned __int64)>(int (*const)(unsigned __int64))
FUNC 48818 c 0 _set_new_handler(int)
FUNC 48828 27 0 __crt_state_management::dual_state_global<int (*)(unsigned __int64)>::initialize(int (*const)(unsigned __int64))
FUNC 48858 4 0 __crt_state_management::dual_state_global<int (*)(unsigned __int64)>::value()
FUNC 4885c 8 0 _acrt_initialize_new_handler
FUNC 48868 2f 0 callnewh
FUNC 488a4 34 0 query_new_handler
FUNC 488e8 59 0 set_new_handler
FUNC 48958 8 0 __crt_fast_encoded_nullptr_t::operator<void > void (*)(int)()
FUNC 48964 45 0 __crt_seh_guarded_call<void (__cdecl*)(int)>::operator()<<lambda_450d765d439847d4c735a33c368b5fc0>,<lambda_44731a7d0e6d81c3e6aa82d741081786> &,<lambda_601a2a7da3b7a96e9554ac7215c4b07c> >
FUNC 489bc 26 0 __acrt_lock_and_call<<lambda_44731a7d0e6d81c3e6aa82d741081786> >
FUNC 489ec 16 0 __crt_fast_decode_pointer<void (*)(int)>(void (*const)(int))
FUNC 48a08 1e 0 __crt_fast_encode_pointer<void (*)(int)>(void (*const)(int))
FUNC 48a30 8 0 <lambda_450d765d439847d4c735a33c368b5fc0>::<lambda_450d765d439847d4c735a33c368b5fc0>
FUNC 48a3c 8 0 <lambda_601a2a7da3b7a96e9554ac7215c4b07c>::<lambda_601a2a7da3b7a96e9554ac7215c4b07c>
FUNC 48a48 17 0 <lambda_44731a7d0e6d81c3e6aa82d741081786>::operator()
FUNC 48a64 7 0 <lambda_450d765d439847d4c735a33c368b5fc0>::operator()
FUNC 48a6c 7 0 <lambda_601a2a7da3b7a96e9554ac7215c4b07c>::operator()
FUNC 48a74 92 0 ctrlevent_capture
FUNC 48b2c 3c 0 get_global_action_nolock
FUNC 48b78 27 0 __crt_state_management::dual_state_global<void (*)(int)>::initialize(void (*const)(int))
FUNC 48ba8 13 0 is_console_signal
FUNC 48bc0 e 0 is_unsupported_signal
FUNC 48bd4 25 0 siglookup
FUNC 48c04 27 0 signal_failed
FUNC 48c34 4 0 __crt_state_management::dual_state_global<void (*)(int)>::value()
FUNC 48c38 2e 0 _acrt_get_sigabrt_handler
FUNC 48c74 1d 0 _acrt_initialize_signal_handlers
FUNC 48c98 12 0 _fpecode
FUNC 48cb0 12 0 _pxcptinfoptrs
FUNC 48cc8 26c 0 raise
FUNC 48fd0 1da 0 signal
FUNC 49220 16 0 __crt_fast_decode_pointer<int (__cdecl*)(_exception *)>
FUNC 4923c 1e 0 __crt_fast_encode_pointer<int (__cdecl*)(_exception *)>
FUNC 49264 27 0 __crt_state_management::dual_state_global<int (__cdecl*)(_exception *)>::initialize
FUNC 49294 4 0 __crt_state_management::dual_state_global<int (__cdecl*)(_exception *)>::value
FUNC 49298 1d 0 _acrt_has_user_matherr
FUNC 492bc 8 0 _acrt_initialize_user_matherr
FUNC 492c8 2e 0 _acrt_invoke_user_matherr
FUNC 49304 25 0 _setusermatherr
FUNC 49334 9a 0 __crt_seh_guarded_call<void>::operator()<<lambda_842d9ff0dc9ef11c61343bbaebe7f885>,<lambda_c5860995281e5c4ce005b3de8f5874ee> &,<lambda_d90129c13df834fdcbf8d2b88dafcf2d> >
FUNC 493f4 e0 0 __crt_seh_guarded_call<void>::operator()<<lambda_886d6c58226a84441f68b9f2b8217b83>,<lambda_ab61a845afdef5b7c387490eaf3616ee> &,<lambda_f7f22ab5edc0698d5f6905b0d3f44752> >
FUNC 4950c 40 0 __crt_seh_guarded_call<int>::operator()<<lambda_c376a267cfb53b6959b3b692ec76b120>,<lambda_9a32fed5bf61b6b509b2d3f6003082a1> &,<lambda_572fbb9fa0ab338edf41edfd4b5fcc8d> >
FUNC 4955c 26 0 __acrt_lock_and_call<<lambda_ab61a845afdef5b7c387490eaf3616ee> >
FUNC 4958c 28 0 __acrt_lock_stream_and_call<<lambda_9a32fed5bf61b6b509b2d3f6003082a1> >
FUNC 495c0 28 0 __acrt_lock_stream_and_call<<lambda_c5860995281e5c4ce005b3de8f5874ee> >
FUNC 495f4 a 0 <lambda_572fbb9fa0ab338edf41edfd4b5fcc8d>::<lambda_572fbb9fa0ab338edf41edfd4b5fcc8d>
FUNC 49600 a 0 <lambda_842d9ff0dc9ef11c61343bbaebe7f885>::<lambda_842d9ff0dc9ef11c61343bbaebe7f885>
FUNC 4960c 8 0 <lambda_886d6c58226a84441f68b9f2b8217b83>::<lambda_886d6c58226a84441f68b9f2b8217b83>
FUNC 49618 7 0 <lambda_9a32fed5bf61b6b509b2d3f6003082a1>::<lambda_9a32fed5bf61b6b509b2d3f6003082a1>
FUNC 49620 f 0 <lambda_ab61a845afdef5b7c387490eaf3616ee>::<lambda_ab61a845afdef5b7c387490eaf3616ee>
FUNC 49634 a 0 <lambda_c376a267cfb53b6959b3b692ec76b120>::<lambda_c376a267cfb53b6959b3b692ec76b120>
FUNC 49640 18 0 <lambda_c5860995281e5c4ce005b3de8f5874ee>::<lambda_c5860995281e5c4ce005b3de8f5874ee>
FUNC 49660 a 0 <lambda_d90129c13df834fdcbf8d2b88dafcf2d>::<lambda_d90129c13df834fdcbf8d2b88dafcf2d>
FUNC 4966c 8 0 <lambda_f7f22ab5edc0698d5f6905b0d3f44752>::<lambda_f7f22ab5edc0698d5f6905b0d3f44752>
FUNC 49678 7 0 __crt_stdio_stream::__crt_stdio_stream(__crt_stdio_stream_data * const)
FUNC 49680 8 0 <lambda_572fbb9fa0ab338edf41edfd4b5fcc8d>::operator()
FUNC 4968c 8 0 <lambda_842d9ff0dc9ef11c61343bbaebe7f885>::operator()
FUNC 49698 7 0 <lambda_886d6c58226a84441f68b9f2b8217b83>::operator()
FUNC 496a0 b 0 <lambda_9a32fed5bf61b6b509b2d3f6003082a1>::operator()
FUNC 496b0 ae 0 <lambda_ab61a845afdef5b7c387490eaf3616ee>::operator()
FUNC 4978c 8 0 <lambda_c376a267cfb53b6959b3b692ec76b120>::operator()
FUNC 49798 78 0 <lambda_c5860995281e5c4ce005b3de8f5874ee>::operator()
FUNC 49830 8 0 <lambda_d90129c13df834fdcbf8d2b88dafcf2d>::operator()
FUNC 4983c 7 0 <lambda_f7f22ab5edc0698d5f6905b0d3f44752>::operator()
FUNC 49844 c 0 __acrt_stdio_reset_buffer(__crt_stdio_stream)
FUNC 49854 5d 0 common_flush_all
FUNC 498c8 31 0 common_flush_all_should_try_to_flush_stream
FUNC 49908 e 0 __crt_stdio_stream::has_all_of(long)
FUNC 4991c 9 0 is_stream_allocated
FUNC 49928 13 0 is_stream_flushable
FUNC 49940 19 0 is_stream_flushable_or_commitable
FUNC 49960 1e 0 __crt_stdio_stream::set_flags(long)
FUNC 49988 25 0 __crt_stdio_stream::unset_flags(long)
FUNC 499b8 7a 0 _acrt_stdio_flush_nolock
FUNC 49a50 4b 0 fflush_nolock
FUNC 49ab0 7 0 flushall
FUNC 49ab8 66 0 fflush
FUNC 49b38 30 0 _p___mb_cur_max
FUNC 49b74 8 0 __crt_internal_free_policy::operator()<__crt_stdio_stream_data *>
FUNC 49b80 7 0 __crt_unique_heap_ptr<__crt_stdio_stream_data *,__crt_internal_free_policy>::__crt_unique_heap_ptr<__crt_stdio_stream_data *,__crt_internal_free_policy>
FUNC 49b88 1b 0 __crt_unique_heap_ptr<__crt_stdio_stream_data *,__crt_internal_free_policy>::~__crt_unique_heap_ptr<__crt_stdio_stream_data *,__crt_internal_free_policy>
FUNC 49bac 8 0 __crt_unique_heap_ptr<__crt_stdio_stream_data *,__crt_internal_free_policy>::detach
FUNC 49bb8 1b 0 __crt_unique_heap_ptr<__crt_stdio_stream_data *,__crt_internal_free_policy>::release
FUNC 49bdc 11f 0 _acrt_initialize_stdio
FUNC 49d44 11 0 _acrt_iob_func
FUNC 49d5c 5b 0 _acrt_uninitialize_stdio
FUNC 49dd0 47 0 get_stream_buffer_pointers
FUNC 49e28 b 0 lock_file
FUNC 49e38 b 0 unlock_file
FUNC 49e48 10 0 __crt_stdio_stream::has_any_buffer()
FUNC 49e5c c 0 __crt_stdio_stream::has_any_of(long)
FUNC 49e6c c 0 __crt_stdio_stream::has_temporary_buffer()
FUNC 49e7c cf 0 _acrt_stdio_begin_temporary_buffering_nolock
FUNC 49f80 39 0 _acrt_stdio_end_temporary_buffering_nolock
FUNC 49fc8 5e 0 malloc_base
FUNC 4a040 13 0 __crt_strtox::make_c_string_character_source<char,char * *>
FUNC 4a058 13 0 __crt_strtox::make_c_string_character_source<wchar_t,wchar_t * *>
FUNC 4a070 2e 0 __crt_strtox::parse_integer_from_string<long,char,char * *>
FUNC 4a0ac 2e 0 __crt_strtox::parse_integer_from_string<long,wchar_t,wchar_t * *>
FUNC 4a0e8 2e 0 __crt_strtox::parse_integer_from_string<unsigned long,char,char * *>
FUNC 4a124 2e 0 __crt_strtox::parse_integer_from_string<unsigned long,wchar_t,wchar_t * *>
FUNC 4a160 2e 0 __crt_strtox::parse_integer_from_string<__int64,char,char * *>
FUNC 4a19c 2e 0 __crt_strtox::parse_integer_from_string<__int64,wchar_t,wchar_t * *>
FUNC 4a1d8 2e 0 __crt_strtox::parse_integer_from_string<unsigned __int64,char,char * *>
FUNC 4a214 2e 0 __crt_strtox::parse_integer_from_string<unsigned __int64,wchar_t,wchar_t * *>
FUNC 4a250 2a 0 strtoi64
FUNC 4a284 2e 0 strtoi64_l
FUNC 4a2c0 2e 0 strtoimax_l
FUNC 4a2fc 2e 0 strtol_l
FUNC 4a338 2e 0 strtoll_l
FUNC 4a374 2a 0 strtoui64
FUNC 4a3a8 2e 0 strtoui64_l
FUNC 4a3e4 2e 0 strtoul_l
FUNC 4a420 2e 0 strtoull_l
FUNC 4a45c 2e 0 strtoumax_l
FUNC 4a498 2a 0 wcstoi64
FUNC 4a4cc 2e 0 wcstoi64_l
FUNC 4a508 2e 0 wcstoimax_l
FUNC 4a544 2e 0 wcstol_l
FUNC 4a580 2e 0 wcstoll_l
FUNC 4a5bc 2a 0 wcstoui64
FUNC 4a5f0 2e 0 wcstoui64_l
FUNC 4a62c 2e 0 wcstoul_l
FUNC 4a668 2e 0 wcstoull_l
FUNC 4a6a4 2e 0 wcstoumax_l
FUNC 4a6e0 2a 0 strtoimax
FUNC 4a714 2a 0 strtol
FUNC 4a748 2a 0 strtoll
FUNC 4a77c 2a 0 strtoul
FUNC 4a7b0 2a 0 strtoull
FUNC 4a7e4 2a 0 strtoumax
FUNC 4a818 2a 0 wcstoimax
FUNC 4a84c 2a 0 wcstol
FUNC 4a880 2a 0 wcstoll
FUNC 4a8b4 2a 0 wcstoul
FUNC 4a8e8 2a 0 wcstoull
FUNC 4a91c 2a 0 wcstoumax
FUNC 4a950 17e 0 mbtowc_l
FUNC 4ab30 8 0 mbtowc
FUNC 4ab3c 72 0 wctomb_l
FUNC 4abcc 19c 0 wctomb_s_l
FUNC 4add0 4d 0 wctomb
FUNC 4ae30 14 0 wctomb_s
FUNC 4ae4c 155 0 common_strnlen<1,unsigned short>
FUNC 4aff8 150 0 common_strnlen<0,unsigned char>
FUNC 4b19c 1c3 0 common_strnlen<0,unsigned short>
FUNC 4b3d0 16 0 common_strnlen_c<1,unsigned short>
FUNC 4b3ec 1d 0 common_strnlen_c<0,unsigned char>
FUNC 4b410 22 0 common_strnlen_c<0,unsigned short>
FUNC 4b43c 96 0 common_strnlen_simd<1,1,unsigned short>
FUNC 4b4f8 96 0 common_strnlen_simd<1,0,unsigned short>
FUNC 4b5b4 88 0 common_strnlen_simd<0,1,unsigned char>
FUNC 4b660 d0 0 common_strnlen_simd<0,1,unsigned short>
FUNC 4b764 85 0 common_strnlen_simd<0,0,unsigned char>
FUNC 4b80c cd 0 common_strnlen_simd<0,0,unsigned short>
FUNC 4b90c 3 0 last_reached<1>
FUNC 4b910 7 0 last_reached<0>
FUNC 4b918 4 0 __crt_simd_cleanup_guard<1>::~__crt_simd_cleanup_guard<1>()
FUNC 4b91c 3 0 __crt_simd_cleanup_guard<0>::~__crt_simd_cleanup_guard<0>()
FUNC 4b920 9 0 __crt_simd_traits<1,unsigned char>::compare_equals(__m256i,__m256i)
FUNC 4b92c 9 0 __crt_simd_traits<1,unsigned short>::compare_equals(__m256i,__m256i)
FUNC 4b938 9 0 __crt_simd_traits<0,unsigned char>::compare_equals(__m128i,__m128i)
FUNC 4b944 9 0 __crt_simd_traits<0,unsigned short>::compare_equals(__m128i,__m128i)
FUNC 4b950 c 0 __crt_simd_pack_traits<1>::compute_byte_mask(__m256i)
FUNC 4b960 9 0 __crt_simd_pack_traits<0>::compute_byte_mask(__m128i)
FUNC 4b96c 5 0 __crt_simd_pack_traits<1>::get_zero_pack()
FUNC 4b974 4 0 __crt_simd_pack_traits<0>::get_zero_pack()
FUNC 4b978 150 0 strnlen
FUNC 4bb1c 129 0 wcslen
FUNC 4bc90 1d6 0 wcsnlen
FUNC 4bedc 31 0 _acrt_update_locale_info
FUNC 4bf1c 31 0 _acrt_update_multibyte_info
FUNC 4bf5c 5b 0 __acrt_fp_classify(double const &)
FUNC 4bfd0 8 0 __acrt_fp_is_negative(double const &)
FUNC 4bfdc 36d 0 fp_format_a
FUNC 4c424 db 0 fp_format_e
FUNC 4c538 1d2 0 fp_format_e_internal
FUNC 4c780 a6 0 fp_format_f
FUNC 4c850 143 0 fp_format_f_internal
FUNC 4c9e4 132 0 fp_format_g
FUNC 4cb64 a5 0 fp_format_nan_or_infinity
FUNC 4cc34 30 0 shift_bytes
FUNC 4cc70 5 0 strrchr(char * const,int)
FUNC 4cc78 304 0 _acrt_fp_format
FUNC 4d040 1c 0 fputwc_binary_nolock
FUNC 4d064 17c 0 fputwc_nolock
FUNC 4d240 23 0 fputwchar
FUNC 4d26c 5 0 putwc_nolock
FUNC 4d274 5e 0 fputwc
FUNC 4d2ec 5 0 putwc
FUNC 4d2f4 5 0 putwchar
FUNC 4d2fc 7 0 __crt_stdio_stream::lowio_handle()
FUNC 4d304 26 0 fileno
FUNC 4d334 16 0 fputc_nolock
FUNC 4d350 21 0 fputchar
FUNC 4d37c 16 0 putc_nolock
FUNC 4d398 124 0 fputc
FUNC 4d508 5 0 putc
FUNC 4d510 5 0 putchar
FUNC 4d518 18 0 get_printf_count_output
FUNC 4d538 27 0 set_printf_count_output
FUNC 4d568 3 0 no_op_initialize
FUNC 4d56c 8 0 __crt_internal_free_policy::operator()<__crt_locale_data>(__crt_locale_data const * const)
FUNC 4d578 8 0 __crt_internal_free_policy::operator()<__crt_locale_pointers>(__crt_locale_pointers const * const)
FUNC 4d584 3e 0 __crt_seh_guarded_call<void>::operator()<<lambda_0a55505eb881d180377eb1fc64ffb544>,<lambda_862e9a3f04921db6ca1ce3faa2bf3edf> &,<lambda_c91f0b5e4ab41df1063aa1a95f49bd71> >
FUNC 4d5d4 13a 0 __crt_seh_guarded_call<void>::operator()<<lambda_1d892b297fdedeee07ed8124eeb2f2fa>,<lambda_ffc046909424fd52df0ac47e64813305> &,<lambda_01a7098693036236037e7cdb9bca3d73> >
FUNC 4d75c 6e 0 __crt_seh_guarded_call<void>::operator()<<lambda_410d79af7f07d98d83a3f525b3859a53>,<lambda_3e16ef9562a7dcce91392c22ab16ea36> &,<lambda_38119f0e861e05405d8a144b9b982f0a> >
FUNC 4d7e8 29 0 __crt_seh_guarded_call<void>::operator()<<lambda_7f2adfce497ff2baa965cd4f576ecfd1>,<lambda_2a444430fde8c29194d880d93eed5e8f> &,<lambda_8dff2cf36a5417162780cd64fa2883ef> &>
FUNC 4d81c 41 0 __crt_seh_guarded_call<void>::operator()<<lambda_a48fd90c2dacdd6561e44078457d03a7>,<lambda_ebab98244f73a74f49db879bf13fa982> &,<lambda_8b3bdacfa7480f205f16cb49964db269> >
FUNC 4d870 26 0 __acrt_lock_and_call<<lambda_3e16ef9562a7dcce91392c22ab16ea36> >
FUNC 4d8a0 26 0 __acrt_lock_and_call<<lambda_862e9a3f04921db6ca1ce3faa2bf3edf> >
FUNC 4d8d0 26 0 __acrt_lock_and_call<<lambda_ebab98244f73a74f49db879bf13fa982> >
FUNC 4d900 26 0 __acrt_lock_and_call<<lambda_ffc046909424fd52df0ac47e64813305> >
FUNC 4d930 15 0 __crt_call_and_cleanup<<lambda_2a444430fde8c29194d880d93eed5e8f>,<lambda_8dff2cf36a5417162780cd64fa2883ef> >
FUNC 4d94c 4e 0 __crt_state_management::dual_state_global<__crt_locale_data *>::uninitialize<<lambda_363eea9039da1e8169e2d060c7fe5cbc> >
FUNC 4d9b0 8 0 <lambda_01a7098693036236037e7cdb9bca3d73>::<lambda_01a7098693036236037e7cdb9bca3d73>
FUNC 4d9bc 8 0 <lambda_0a55505eb881d180377eb1fc64ffb544>::<lambda_0a55505eb881d180377eb1fc64ffb544>
FUNC 4d9c8 8 0 <lambda_1d892b297fdedeee07ed8124eeb2f2fa>::<lambda_1d892b297fdedeee07ed8124eeb2f2fa>
FUNC 4d9d4 21 0 <lambda_2a444430fde8c29194d880d93eed5e8f>::<lambda_2a444430fde8c29194d880d93eed5e8f>
FUNC 4da00 8 0 <lambda_38119f0e861e05405d8a144b9b982f0a>::<lambda_38119f0e861e05405d8a144b9b982f0a>
FUNC 4da0c 8 0 <lambda_410d79af7f07d98d83a3f525b3859a53>::<lambda_410d79af7f07d98d83a3f525b3859a53>
FUNC 4da18 7 0 <lambda_862e9a3f04921db6ca1ce3faa2bf3edf>::<lambda_862e9a3f04921db6ca1ce3faa2bf3edf>
FUNC 4da20 8 0 <lambda_8b3bdacfa7480f205f16cb49964db269>::<lambda_8b3bdacfa7480f205f16cb49964db269>
FUNC 4da2c 7 0 <lambda_8dff2cf36a5417162780cd64fa2883ef>::<lambda_8dff2cf36a5417162780cd64fa2883ef>
FUNC 4da34 8 0 <lambda_a48fd90c2dacdd6561e44078457d03a7>::<lambda_a48fd90c2dacdd6561e44078457d03a7>
FUNC 4da40 8 0 <lambda_c91f0b5e4ab41df1063aa1a95f49bd71>::<lambda_c91f0b5e4ab41df1063aa1a95f49bd71>
FUNC 4da4c 7 0 <lambda_ebab98244f73a74f49db879bf13fa982>::<lambda_ebab98244f73a74f49db879bf13fa982>
FUNC 4da54 21 0 <lambda_ffc046909424fd52df0ac47e64813305>::<lambda_ffc046909424fd52df0ac47e64813305>
FUNC 4da80 7 0 __crt_unique_heap_ptr<__crt_locale_data,__crt_internal_free_policy>::__crt_unique_heap_ptr<__crt_locale_data,__crt_internal_free_policy>(__crt_locale_data * const)
FUNC 4da88 7 0 __crt_unique_heap_ptr<__crt_locale_pointers,__crt_internal_free_policy>::__crt_unique_heap_ptr<__crt_locale_pointers,__crt_internal_free_policy>(__crt_locale_pointers * const)
FUNC 4da90 59 0 _expandlocale_locale_name_cache::_expandlocale_locale_name_cache(wchar_t * const,unsigned __int64,__crt_qualified_locale_data * const)
FUNC 4db00 1b 0 __crt_unique_heap_ptr<__crt_locale_data,__crt_internal_free_policy>::~__crt_unique_heap_ptr<__crt_locale_data,__crt_internal_free_policy>()
FUNC 4db24 1b 0 __crt_unique_heap_ptr<__crt_locale_pointers,__crt_internal_free_policy>::~__crt_unique_heap_ptr<__crt_locale_pointers,__crt_internal_free_policy>()
FUNC 4db48 48 0 _expandlocale_locale_name_cache::~_expandlocale_locale_name_cache()
FUNC 4dba4 8 0 __crt_unique_heap_ptr<__crt_locale_data,__crt_internal_free_policy>::operator bool()
FUNC 4dbb0 8 0 __crt_unique_heap_ptr<__crt_locale_pointers,__crt_internal_free_policy>::operator bool()
FUNC 4dbbc 7 0 <lambda_01a7098693036236037e7cdb9bca3d73>::operator()
FUNC 4dbc4 7 0 <lambda_0a55505eb881d180377eb1fc64ffb544>::operator()
FUNC 4dbcc 7 0 <lambda_1d892b297fdedeee07ed8124eeb2f2fa>::operator()
FUNC 4dbd4 8e 0 <lambda_2a444430fde8c29194d880d93eed5e8f>::operator()
FUNC 4dc88 26 0 <lambda_363eea9039da1e8169e2d060c7fe5cbc>::operator()
FUNC 4dcb8 7 0 <lambda_38119f0e861e05405d8a144b9b982f0a>::operator()
FUNC 4dcc0 2c 0 <lambda_3e16ef9562a7dcce91392c22ab16ea36>::operator()
FUNC 4dcf8 7 0 <lambda_410d79af7f07d98d83a3f525b3859a53>::operator()
FUNC 4dd00 3 0 <lambda_7f2adfce497ff2baa965cd4f576ecfd1>::operator()
FUNC 4dd04 e 0 <lambda_862e9a3f04921db6ca1ce3faa2bf3edf>::operator()
FUNC 4dd18 7 0 <lambda_8b3bdacfa7480f205f16cb49964db269>::operator()
FUNC 4dd20 e 0 <lambda_8dff2cf36a5417162780cd64fa2883ef>::operator()
FUNC 4dd34 7 0 <lambda_a48fd90c2dacdd6561e44078457d03a7>::operator()
FUNC 4dd3c 7 0 <lambda_c91f0b5e4ab41df1063aa1a95f49bd71>::operator()
FUNC 4dd44 e 0 <lambda_ebab98244f73a74f49db879bf13fa982>::operator()
FUNC 4dd58 11d 0 <lambda_ffc046909424fd52df0ac47e64813305>::operator()
FUNC 4debc 77 0 _expandlocale_locale_name_cache::commit_locale_name(wchar_t const * const,unsigned __int64)
FUNC 4df50 3f 0 _expandlocale_locale_name_cache::commit_locale_name_cache_already_updated(wchar_t const * const,unsigned __int64)
FUNC 4dfa0 8 0 __crt_unique_heap_ptr<__crt_locale_data,__crt_internal_free_policy>::detach()
FUNC 4dfac 8 0 __crt_unique_heap_ptr<__crt_locale_pointers,__crt_internal_free_policy>::detach()
FUNC 4dfb8 4 0 __crt_unique_heap_ptr<__crt_locale_data,__crt_internal_free_policy>::get()
FUNC 4dfbc 4 0 __crt_unique_heap_ptr<__crt_locale_pointers,__crt_internal_free_policy>::get()
FUNC 4dfc0 8 0 __crt_unique_heap_ptr<__crt_locale_data,__crt_internal_free_policy>::is_valid()
FUNC 4dfcc 8 0 __crt_unique_heap_ptr<__crt_locale_pointers,__crt_internal_free_policy>::is_valid()
FUNC 4dfd8 1b 0 __crt_unique_heap_ptr<__crt_locale_data,__crt_internal_free_policy>::release()
FUNC 4dffc 1b 0 __crt_unique_heap_ptr<__crt_locale_pointers,__crt_internal_free_policy>::release()
FUNC 4e020 82 0 _acrt_copy_locale_name
FUNC 4e0c4 c 0 _acrt_set_locale_changed
FUNC 4e0d4 2e 0 _acrt_uninitialize_locale
FUNC 4e110 e 0 _ascii_tolower
FUNC 4e124 d 0 _ascii_towlower
FUNC 4e134 a2 0 _lc_lctowcs
FUNC 4e200 166 0 _lc_wcstolc
FUNC 4e3c0 69 0 configthreadlocale
FUNC 4e444 be 0 _copytlocinfo_nolock
FUNC 4e534 76 0 create_locale
FUNC 4e5c8 47f 0 _expandlocale
FUNC 4eb68 a2 0 free_locale
FUNC 4ec34 bb 0 get_current_locale
FUNC 4ed20 148 0 wcreate_locale
FUNC 4eebc 65 0 wcscats
FUNC 4ef3c a1 0 wsetlocale
FUNC 4f008 1ea 0 _wsetlocale_get_all
FUNC 4f26c 296 0 _wsetlocale_nolock
FUNC 4f5a8 352 0 _wsetlocale_set_cat
FUNC 4f9d0 21 0 categorize_delimiter
FUNC 4f9fc 34 0 get_default_code_page
FUNC 4fa40 1ff 0 parse_bcp47
FUNC 4fcc0 47 0 parse_bcp47_code_page
FUNC 4fd18 89 0 parse_bcp47_language
FUNC 4fdc4 10a 0 parse_bcp47_region
FUNC 4ff10 8f 0 parse_bcp47_script
FUNC 4ffc4 72 0 string_is_alpha
FUNC 50054 6f 0 string_is_digit
FUNC 500e0 29 0 sync_legacy_variables_lk
FUNC 50114 2f 0 _pctype_func
FUNC 50150 8 0 _pwctype_func
FUNC 5015c 5 0 iswctype_l
FUNC 50164 6f 0 iswctype
FUNC 501f0 30 0 isctype
FUNC 5022c 108 0 isctype_l
FUNC 50378 18 0 isleadbyte_fast_internal
FUNC 50398 8b 0 _acrt_add_locale_ref
FUNC 50448 176 0 _acrt_free_locale
FUNC 5061c 27 0 _acrt_locale_add_lc_time_reference
FUNC 5064c 36 0 _acrt_locale_free_lc_time_if_unreferenced
FUNC 50690 25 0 _acrt_locale_release_lc_time_reference
FUNC 506c0 a8 0 _acrt_release_locale_ref
FUNC 50794 6c 0 _acrt_update_thread_locale_data
FUNC 5081c 65 0 updatetlocinfoEx_nolock
FUNC 5089c 4 0 __crt_state_management::dual_state_global<long>::value()
FUNC 508a0 7 0 query_new_mode
FUNC 508a8 2b 0 set_new_mode
FUNC 508e0 bc 0 shortsort
FUNC 509d0 29 0 swap
FUNC 50a10 3ad 0 qsort
FUNC 50ea8 db 0 common_tcsncpy_s<wchar_t>
FUNC 50fbc e4 0 wcsncpy_s
FUNC 510dc 34 0 wcspbrk
FUNC 51120 c6 0 common_tcsncpy_s<char>
FUNC 51218 d3 0 strncpy_s
FUNC 51320 9e 0 fallbackMethod
FUNC 513f0 3e0 0 strpbrk
FUNC 518c8 8 0 mbsdec
FUNC 518d4 94 0 mbsdec_l
FUNC 51990 7 0 __crt_scoped_stack_ptr<wchar_t>::__crt_scoped_stack_ptr<wchar_t>(__crt_scoped_stack_ptr_tag<wchar_t>)
FUNC 51998 7 0 __crt_scoped_stack_ptr_tag<wchar_t>::__crt_scoped_stack_ptr_tag<wchar_t>(wchar_t * const)
FUNC 519a0 22 0 __crt_scoped_stack_ptr<wchar_t>::~__crt_scoped_stack_ptr<wchar_t>()
FUNC 519cc 4 0 __crt_scoped_stack_ptr<wchar_t>::get()
FUNC 519d0 e 0 MallocaComputeSize
FUNC 519e4 f 0 MarkAllocaS
FUNC 519f8 18d 0 _acrt_GetStringTypeA
FUNC 51be8 1f 0 freea_crt
FUNC 51c10 8 0 __crt_scoped_stack_ptr<wchar_t>::operator bool()
FUNC 51c1c 315 0 __acrt_LCMapStringA_stat
FUNC 51ff8 96 0 _acrt_LCMapStringA
FUNC 520b4 17 0 initialize_multibyte
FUNC 520d0 4f 0 wcsnicoll
FUNC 52134 f0 0 wcsnicoll_l
FUNC 52260 15 0 strnicoll
FUNC 5227c 100 0 strnicoll_l
FUNC 523bc 179 0 __acrt_convert_wcs_mbs_cp<char,wchar_t,<lambda_7c9dea7b4ca7285d2cdb541a38da6275>,__crt_win32_buffer_internal_dynamic_resizing>
FUNC 52594 25 0 <lambda_7c9dea7b4ca7285d2cdb541a38da6275>::operator()
FUNC 525c4 197 0 _acrt_SetEnvironmentVariableA
FUNC 527c0 5 0 msize
FUNC 527c8 39 0 msize_base
FUNC 52810 7a 0 realloc_base
FUNC 528a8 4b 0 GetTableIndexFromLcid
FUNC 52908 87 0 GetTableIndexFromLocaleName
FUNC 529b0 f4 0 _acrt_DownlevelLCIDToLocaleName
FUNC 52ae4 af 0 _acrt_DownlevelLocaleNameToLCID
FUNC 52bc0 8 0 __crt_internal_free_policy::operator()<__crt_lowio_handle_data>(__crt_lowio_handle_data const * const)
FUNC 52bcc 7 0 __crt_unique_heap_ptr<__crt_lowio_handle_data,__crt_internal_free_policy>::__crt_unique_heap_ptr<__crt_lowio_handle_data,__crt_internal_free_policy>(__crt_lowio_handle_data * const)
FUNC 52bd4 1b 0 __crt_unique_heap_ptr<__crt_lowio_handle_data,__crt_internal_free_policy>::~__crt_unique_heap_ptr<__crt_lowio_handle_data,__crt_internal_free_policy>()
FUNC 52bf8 8 0 __crt_unique_heap_ptr<__crt_lowio_handle_data,__crt_internal_free_policy>::operator bool()
FUNC 52c04 8 0 __crt_unique_heap_ptr<__crt_lowio_handle_data,__crt_internal_free_policy>::detach()
FUNC 52c10 4 0 __crt_unique_heap_ptr<__crt_lowio_handle_data,__crt_internal_free_policy>::get()
FUNC 52c14 8 0 __crt_unique_heap_ptr<__crt_lowio_handle_data,__crt_internal_free_policy>::is_valid()
FUNC 52c20 1b 0 __crt_unique_heap_ptr<__crt_lowio_handle_data,__crt_internal_free_policy>::release()
FUNC 52c44 a5 0 _acrt_lowio_create_handle_array
FUNC 52d14 50 0 _acrt_lowio_destroy_handle_array
FUNC 52d78 a8 0 _acrt_lowio_ensure_fh_exists
FUNC 52e4c 27 0 _acrt_lowio_lock_fh
FUNC 52e7c bf 0 _acrt_lowio_set_os_handle
FUNC 52f6c 27 0 _acrt_lowio_unlock_fh
FUNC 52f9c 13e 0 alloc_osfhnd
FUNC 5312c ba 0 free_osfhnd
FUNC 53214 75 0 get_osfhandle
FUNC 532a8 101 0 open_osfhandle
FUNC 533ec 8c 0 __crt_seh_guarded_call<int>::operator()<<lambda_a37b2b86f63e897a80ea819b0eb08c01>,<lambda_38ce7e780aa69e748d6df282ebc68efe> &,<lambda_99fb1378e971ab6e7edea83e3a7a83a2> >
FUNC 5349c 26 0 __acrt_lowio_lock_fh_and_call<<lambda_38ce7e780aa69e748d6df282ebc68efe> >
FUNC 534cc 7 0 <lambda_38ce7e780aa69e748d6df282ebc68efe>::<lambda_38ce7e780aa69e748d6df282ebc68efe>
FUNC 534d4 8 0 <lambda_99fb1378e971ab6e7edea83e3a7a83a2>::<lambda_99fb1378e971ab6e7edea83e3a7a83a2>
FUNC 534e0 8 0 <lambda_a37b2b86f63e897a80ea819b0eb08c01>::<lambda_a37b2b86f63e897a80ea819b0eb08c01>
FUNC 534ec 69 0 <lambda_38ce7e780aa69e748d6df282ebc68efe>::operator()
FUNC 53570 7 0 <lambda_99fb1378e971ab6e7edea83e3a7a83a2>::operator()
FUNC 53578 7 0 <lambda_a37b2b86f63e897a80ea819b0eb08c01>::operator()
FUNC 53580 91 0 commit
FUNC 53638 6c 0 write_binary_nolock
FUNC 536c0 4d0 0 write_double_translated_ansi_nolock
FUNC 53cc4 95 0 write_double_translated_unicode_nolock
FUNC 53d80 8e 0 write_requires_double_translation_nolock
FUNC 53e34 102 0 write_text_ansi_nolock
FUNC 53f78 119 0 write_text_utf16le_nolock
FUNC 540d8 170 0 write_text_utf8_nolock
FUNC 542a4 e 0 utf8_no_of_trailbytes
FUNC 542b8 eb 0 write
FUNC 543e0 2da 0 write_nolock
FUNC 54770 33 0 localeconv
FUNC 547b0 c 0 __crt_stdio_stream::is_in_use()
FUNC 547c0 b1 0 fcloseall
FUNC 548a0 c 0 __crt_stdio_stream::has_crt_buffer()
FUNC 548b0 40 0 _acrt_stdio_free_buffer_nolock
FUNC 54900 5f 0 isatty
FUNC 54978 2c 0 _iswcsym
FUNC 549b0 2c 0 _iswcsymf
FUNC 549e8 4b 0 isleadbyte_l
FUNC 54a48 a 0 iswalnum_l
FUNC 54a54 a 0 iswalpha_l
FUNC 54a60 16 0 iswblank_l
FUNC 54a7c a 0 iswcntrl_l
FUNC 54a88 2c 0 iswcsym_l
FUNC 54ac0 2c 0 iswcsymf_l
FUNC 54af8 a 0 iswdigit_l
FUNC 54b04 a 0 iswgraph_l
FUNC 54b10 a 0 iswlower_l
FUNC 54b1c a 0 iswprint_l
FUNC 54b28 a 0 iswpunct_l
FUNC 54b34 a 0 iswspace_l
FUNC 54b40 a 0 iswupper_l
FUNC 54b4c a 0 iswxdigit_l
FUNC 54b58 4d 0 isleadbyte
FUNC 54bb8 a 0 iswalnum
FUNC 54bc4 a 0 iswalpha
FUNC 54bd0 e 0 iswascii
FUNC 54be4 16 0 iswblank
FUNC 54c00 a 0 iswcntrl
FUNC 54c0c a 0 iswdigit
FUNC 54c18 a 0 iswgraph
FUNC 54c24 a 0 iswlower
FUNC 54c30 a 0 iswprint
FUNC 54c3c a 0 iswpunct
FUNC 54c48 a 0 iswspace
FUNC 54c54 a 0 iswupper
FUNC 54c60 a 0 iswxdigit
FUNC 54c6c 27 0 <lambda_88e6d024674186fe9d3f7283b675e4c3>::operator()
FUNC 54c9c 39 0 __crt_mbstring::__mbrtowc_utf8(wchar_t *,char const *,unsigned __int64,_Mbstatet *)
FUNC 54ce4 176 0 __crt_mbstring::__mbsrtowcs_utf8(wchar_t *,char const * *,unsigned __int64,_Mbstatet *)
FUNC 54eb8 251 0 _mbrtowc_s_l
FUNC 551a0 15e 0 _mbsrtowcs_helper
FUNC 55358 66 0 btowc
FUNC 553d8 3e 0 mbrlen
FUNC 55428 60 0 mbrtowc
FUNC 554a0 5 0 mbsrtowcs
FUNC 554a8 d1 0 mbsrtowcs_s
FUNC 555b0 8 0 __crt_internal_free_policy::operator()<unsigned short>(unsigned short const * const)
FUNC 555bc 8 0 __crt_internal_free_policy::operator()<long>(long const * const)
FUNC 555c8 7 0 __crt_unique_heap_ptr<unsigned short,__crt_internal_free_policy>::__crt_unique_heap_ptr<unsigned short,__crt_internal_free_policy>(unsigned short * const)
FUNC 555d0 7 0 __crt_unique_heap_ptr<long,__crt_internal_free_policy>::__crt_unique_heap_ptr<long,__crt_internal_free_policy>(long * const)
FUNC 555d8 1b 0 __crt_unique_heap_ptr<unsigned short,__crt_internal_free_policy>::~__crt_unique_heap_ptr<unsigned short,__crt_internal_free_policy>()
FUNC 555fc 1b 0 __crt_unique_heap_ptr<long,__crt_internal_free_policy>::~__crt_unique_heap_ptr<long,__crt_internal_free_policy>()
FUNC 55620 8 0 __crt_unique_heap_ptr<unsigned short,__crt_internal_free_policy>::detach()
FUNC 5562c 8 0 __crt_unique_heap_ptr<long,__crt_internal_free_policy>::detach()
FUNC 55638 1b 0 __crt_unique_heap_ptr<unsigned short,__crt_internal_free_policy>::release()
FUNC 5565c 1b 0 __crt_unique_heap_ptr<long,__crt_internal_free_policy>::release()
FUNC 55680 2f 0 __lc_codepage_func
FUNC 556bc 2f 0 __lc_collate_cp_func
FUNC 556f8 32 0 __lc_locale_name_func
FUNC 55738 2f 0 __mb_cur_max_func
FUNC 55774 10 0 __mb_cur_max_l_func
FUNC 55788 661 0 _acrt_locale_initialize_ctype
FUNC 55f84 b3 0 __crt_mbstring::__c32rtomb_utf8(char *,char32_t,_Mbstatet *)
FUNC 56064 8 0 __crt_mbstring::reset_and_return(unsigned __int64,_Mbstatet *)
FUNC 56070 1c 0 __crt_mbstring::return_illegal_sequence(_Mbstatet *)
FUNC 56094 5 0 c32rtomb
FUNC 5609c e2 0 _acrt_fp_strflt_to_string
FUNC 561b8 114d 0 convert_to_fos_high_precision<double>
FUNC 57760 2f 0 __crt_strtox::big_integer::big_integer(__crt_strtox::big_integer const &)
FUNC 577a0 a 0 __crt_strtox::big_integer::big_integer()
FUNC 577ac 3b 0 `anonymous namespace'::scoped_fp_state_reset::scoped_fp_state_reset
FUNC 577f8 14 0 `anonymous namespace'::scoped_fp_state_reset::~scoped_fp_state_reset
FUNC 57820 2f 0 __crt_strtox::big_integer::operator=(__crt_strtox::big_integer const &)
FUNC 57860 2a 0 __crt_strtox::operator==(__crt_strtox::big_integer const &,__crt_strtox::big_integer const &)
FUNC 578a0 3e 0 __crt_strtox::operator!=(__crt_strtox::big_integer const &,__crt_strtox::big_integer const &)
FUNC 578f0 14 0 __crt_strtox::add_carry(unsigned int &,unsigned int,unsigned int)
FUNC 57910 20 0 __crt_strtox::add_multiply_carry(unsigned int &,unsigned int,unsigned int,unsigned int)
FUNC 57940 13 0 __crt_strtox::bit_scan_reverse(unsigned int)
FUNC 57960 13 0 __crt_strtox::count_sequential_high_zeroes(unsigned int)
FUNC 57980 429 0 __crt_strtox::divide(__crt_strtox::big_integer &,__crt_strtox::big_integer const &)
FUNC 57ec0 7 0 __crt_strtox::is_zero(__crt_strtox::big_integer const &)
FUNC 57ed0 19 0 __crt_strtox::make_big_integer(unsigned __int64)
FUNC 57ef0 67 0 __crt_strtox::make_big_integer_power_of_two(unsigned int)
FUNC 57f70 3a8 0 __crt_strtox::multiply(__crt_strtox::big_integer &,__crt_strtox::big_integer const &)
FUNC 58410 ed 0 __crt_strtox::multiply(__crt_strtox::big_integer &,unsigned int)
FUNC 58540 7 0 __crt_strtox::multiply_64_32(unsigned __int64,unsigned int)
FUNC 58550 5a8 0 __crt_strtox::multiply_by_power_of_ten(__crt_strtox::big_integer &,unsigned int)
FUNC 58c70 49 0 __crt_strtox::multiply_core(unsigned int * const,unsigned int,unsigned int)
FUNC 58cd0 14d 0 __crt_strtox::shift_left(__crt_strtox::big_integer &,unsigned int)
FUNC 58e70 1231 0 _acrt_fltout
FUNC 5a530 87 0 memcpy_s
FUNC 5a5d8 e8 0 common_flush_and_write_nolock<char>
FUNC 5a6fc e9 0 common_flush_and_write_nolock<wchar_t>
FUNC 5a820 e4 0 write_buffer_nolock<char>
FUNC 5a940 e8 0 write_buffer_nolock<wchar_t>
FUNC 5aa64 d 0 __crt_stdio_stream::has_big_buffer()
FUNC 5aa74 79 0 stream_is_at_end_of_file_nolock
FUNC 5ab0c ea 0 _acrt_stdio_flush_and_write_narrow_nolock
FUNC 5ac30 eb 0 _acrt_stdio_flush_and_write_wide_nolock
FUNC 5ad58 8 0 __crt_internal_free_policy::operator()<lconv>(lconv const * const)
FUNC 5ad64 7 0 __crt_unique_heap_ptr<lconv,__crt_internal_free_policy>::__crt_unique_heap_ptr<lconv,__crt_internal_free_policy>(lconv * const)
FUNC 5ad6c 1b 0 __crt_unique_heap_ptr<lconv,__crt_internal_free_policy>::~__crt_unique_heap_ptr<lconv,__crt_internal_free_policy>()
FUNC 5ad90 8 0 __crt_unique_heap_ptr<lconv,__crt_internal_free_policy>::detach()
FUNC 5ad9c 1b 0 __crt_unique_heap_ptr<lconv,__crt_internal_free_policy>::release()
FUNC 5adc0 10a 0 _acrt_locale_free_monetary
FUNC 5af0c 533 0 _acrt_locale_initialize_monetary
FUNC 5b58c 34 0 fix_grouping
FUNC 5b5d0 6c 0 _acrt_locale_free_numeric
FUNC 5b658 2e8 0 _acrt_locale_initialize_numeric
FUNC 5b9fc 34 0 fix_grouping
FUNC 5ba40 8 0 __crt_internal_free_policy::operator()<__crt_lc_time_data>(__crt_lc_time_data const * const)
FUNC 5ba4c a 0 free_crt_array<char,2>
FUNC 5ba58 a 0 free_crt_array<char,7>
FUNC 5ba64 a 0 free_crt_array<char,12>
FUNC 5ba70 a 0 free_crt_array<wchar_t,2>
FUNC 5ba7c a 0 free_crt_array<wchar_t,7>
FUNC 5ba88 a 0 free_crt_array<wchar_t,12>
FUNC 5ba94 7 0 __crt_unique_heap_ptr<__crt_lc_time_data,__crt_internal_free_policy>::__crt_unique_heap_ptr<__crt_lc_time_data,__crt_internal_free_policy>(__crt_lc_time_data * const)
FUNC 5ba9c 1b 0 __crt_unique_heap_ptr<__crt_lc_time_data,__crt_internal_free_policy>::~__crt_unique_heap_ptr<__crt_lc_time_data,__crt_internal_free_policy>()
FUNC 5bac0 8 0 __crt_unique_heap_ptr<__crt_lc_time_data,__crt_internal_free_policy>::operator bool()
FUNC 5bacc 8 0 __crt_unique_heap_ptr<__crt_lc_time_data,__crt_internal_free_policy>::detach()
FUNC 5bad8 58 0 free_crt_array_internal
FUNC 5bb48 4 0 __crt_unique_heap_ptr<__crt_lc_time_data,__crt_internal_free_policy>::get()
FUNC 5bb4c 77 0 get_or_create_lc_time
FUNC 5bbe0 33e 0 initialize_lc_time
FUNC 5bff0 8 0 __crt_unique_heap_ptr<__crt_lc_time_data,__crt_internal_free_policy>::is_valid()
FUNC 5bffc 1b 0 __crt_unique_heap_ptr<__crt_lc_time_data,__crt_internal_free_policy>::release()
FUNC 5c020 108 0 _acrt_locale_free_time
FUNC 5c16c 9c 0 _acrt_locale_initialize_time
FUNC 5c230 86 0 common_tcscat_s<wchar_t>
FUNC 5c2d8 7f 0 wcscat_s
FUNC 5c378 f6 0 common_tcsncat_s<wchar_t>
FUNC 5c4ac fd 0 wcsncat_s
FUNC 5c5e8 3f 0 wcscspn
FUNC 5c638 a5 0 GetLocaleNameFromDefault
FUNC 5c708 cf 0 GetLocaleNameFromLangCountry
FUNC 5c80c 98 0 GetLocaleNameFromLanguage
FUNC 5c8cc 2f 0 GetPrimaryLen
FUNC 5c908 2ea 0 LangCountryEnumProcEx
FUNC 5ccac ea 0 LanguageEnumProcEx
FUNC 5cdd0 c9 0 ProcessCodePage
FUNC 5cecc 63 0 TestDefaultCountry
FUNC 5cf48 77 0 TestDefaultLanguage
FUNC 5cfdc 99 0 TranslateName
FUNC 5d09c 263 0 _acrt_get_qualified_locale
FUNC 5d398 e8 0 CountryEnumProc
FUNC 5d4bc 5f 0 GetLcidFromCountry
FUNC 5d534 21 0 GetLcidFromDefault
FUNC 5d560 cd 0 GetLcidFromLangCountry
FUNC 5d660 96 0 GetLcidFromLanguage
FUNC 5d71c 26 0 GetPrimaryLen
FUNC 5d74c 24a 0 LangCountryEnumProc
FUNC 5da28 108 0 LanguageEnumProc
FUNC 5db74 4e 0 LcidFromHexString
FUNC 5dbd8 ae 0 ProcessCodePage
FUNC 5dcb4 24 0 TestDefaultCountry
FUNC 5dce4 ab 0 TestDefaultLanguage
FUNC 5ddbc 7f 0 TranslateName
FUNC 5de5c 27e 0 _acrt_get_qualified_locale_downlevel
FUNC 5e17c 7 0 _acrt_GetStringTypeW
FUNC 5e184 15 0 _strncnt
FUNC 5e1a0 bd 0 _acrt_CompareStringW
FUNC 5e28c 4b 0 _ascii_wcsnicmp
FUNC 5e2ec 26 0 towlower_fast_internal
FUNC 5e31c 34 0 towlower_internal
FUNC 5e360 46 0 wcsnicmp
FUNC 5e3b8 150 0 wcsnicmp_l
FUNC 5e55c 49 0 _ascii_strnicmp
FUNC 5e5b8 4f 0 strnicmp
FUNC 5e61c ad 0 strnicmp_l
FUNC 5e6f4 35d 0 InternalCompareStringA
FUNC 5eb28 89 0 _acrt_CompareStringA
FUNC 5ebd4 3 0 issue_debug_notification
FUNC 5ebd8 2b 0 should_write_error_to_console
FUNC 5ec10 a7 0 write_string_to_console
FUNC 5ece0 15d 0 _acrt_report_runtime_error
FUNC 5ee94 7 0 query_app_type
FUNC 5ee9c 7 0 set_app_type
FUNC 5eea4 eb 0 common_lseek<long>
FUNC 5efcc ef 0 common_lseek<__int64>
FUNC 5f0f8 f3 0 common_lseek_nolock<long>
FUNC 5f228 99 0 common_lseek_nolock<__int64>
FUNC 5f2e8 9e 0 common_lseek_do_seek_nolock
FUNC 5f3b0 33 0 common_lseek_do_seek_nolock
FUNC 5f3f0 5 0 lseek
FUNC 5f3f8 5 0 lseek_nolock
FUNC 5f400 5 0 lseeki64
FUNC 5f408 5 0 lseeki64_nolock
FUNC 5f410 40 0 __crt_seh_guarded_call<unsigned short>::operator()<<lambda_0384895ae1aa6ccbfe369a30d6ca2ef7>,<lambda_9e0b6ab72a5b3ae37ad997d08b519f50> &,<lambda_7e22f70504d73c22058e5832bde5914f> >
FUNC 5f460 26 0 __acrt_lock_and_call<<lambda_9e0b6ab72a5b3ae37ad997d08b519f50> >
FUNC 5f490 8 0 <lambda_0384895ae1aa6ccbfe369a30d6ca2ef7>::<lambda_0384895ae1aa6ccbfe369a30d6ca2ef7>
FUNC 5f49c 8 0 <lambda_7e22f70504d73c22058e5832bde5914f>::<lambda_7e22f70504d73c22058e5832bde5914f>
FUNC 5f4a8 7 0 <lambda_9e0b6ab72a5b3ae37ad997d08b519f50>::<lambda_9e0b6ab72a5b3ae37ad997d08b519f50>
FUNC 5f4b0 7 0 <lambda_0384895ae1aa6ccbfe369a30d6ca2ef7>::operator()
FUNC 5f4b8 7 0 <lambda_7e22f70504d73c22058e5832bde5914f>::operator()
FUNC 5f4c0 b 0 <lambda_9e0b6ab72a5b3ae37ad997d08b519f50>::operator()
FUNC 5f4d0 3b 0 putwch
FUNC 5f51c 3b 0 putwch_nolock
FUNC 5f568 1bd 0 translate_text_mode_nolock<char>
FUNC 5f794 27b 0 translate_text_mode_nolock<wchar_t>
FUNC 5fab0 22 0 store_lookahead
FUNC 5fadc 43 0 store_lookahead
FUNC 5fb30 19b 0 translate_ansi_or_utf8_nolock
FUNC 5fd34 8f 0 translate_utf16_from_console_nolock
FUNC 5fde8 119 0 read
FUNC 5ff48 456 0 read_nolock
FUNC 604b4 83 0 fclose_nolock
FUNC 60558 62 0 fclose
FUNC 605d4 1dc 0 __crt_mbstring::__mbrtoc32_utf8(char32_t *,char const *,unsigned __int64,_Mbstatet *)
FUNC 60828 5 0 mbrtoc32
FUNC 60830 179 0 InternalGetLocaleInfoA
FUNC 60a08 1c8 0 _acrt_GetLocaleInfoA
FUNC 60c44 20 0 fegetenv
FUNC 60c6c 4c 0 fesetenv
FUNC 60ccc 50 0 feholdexcept
FUNC 60d30 c2 0 ceil
FUNC 60e30 5ab 0 log10
FUNC 61548 66 0 _acrt_stdio_allocate_buffer_nolock
FUNC 615c8 c6 0 common_xtox<unsigned long,char>
FUNC 616c0 d4 0 common_xtox<unsigned long,wchar_t>
FUNC 617cc cb 0 common_xtox<unsigned __int64,char>
FUNC 618cc d9 0 common_xtox<unsigned __int64,wchar_t>
FUNC 619dc 67 0 common_xtox_s<unsigned long,char>
FUNC 61a5c 69 0 common_xtox_s<unsigned long,wchar_t>
FUNC 61ae0 67 0 common_xtox_s<unsigned __int64,char>
FUNC 61b60 69 0 common_xtox_s<unsigned __int64,wchar_t>
FUNC 61be4 31 0 i64toa
FUNC 61c24 21 0 i64toa_s
FUNC 61c50 31 0 i64tow
FUNC 61c90 21 0 i64tow_s
FUNC 61cbc 30 0 itoa
FUNC 61cf8 20 0 itoa_s
FUNC 61d20 30 0 itow
FUNC 61d5c 20 0 itow_s
FUNC 61d84 30 0 ltoa
FUNC 61dc0 20 0 ltoa_s
FUNC 61de8 30 0 ltow
FUNC 61e24 20 0 ltow_s
FUNC 61e4c 23 0 ui64toa
FUNC 61e78 13 0 ui64toa_s
FUNC 61e90 23 0 ui64tow
FUNC 61ebc 13 0 ui64tow_s
FUNC 61ed4 23 0 ultoa
FUNC 61f00 13 0 ultoa_s
FUNC 61f18 23 0 ultow
FUNC 61f44 13 0 ultow_s
FUNC 61f5c 3e 0 _ascii_wcsicmp
FUNC 61fac 46 0 wcsicmp
FUNC 62004 127 0 wcsicmp_l
FUNC 62174 35 0 wcscmp
FUNC 621b8 bb 0 towlower_l
FUNC 622a4 7 0 towlower
FUNC 622ac 40 0 set_error_mode
FUNC 622fc a3 0 common_show_message_box<char>
FUNC 623c8 a4 0 common_show_message_box<wchar_t>
FUNC 62498 11 0 __crt_char_traits<char>::message_box<std::nullptr_t,char const * const &,char const * const &,unsigned long>
FUNC 624b0 11 0 __crt_char_traits<wchar_t>::message_box<std::nullptr_t,wchar_t const * const &,wchar_t const * const &,unsigned long>
FUNC 624c8 11 0 __crt_char_traits<char>::message_box<HWND__ *,char const * const &,char const * const &,unsigned int const &>
FUNC 624e0 11 0 __crt_char_traits<wchar_t>::message_box<HWND__ *,wchar_t const * const &,wchar_t const * const &,unsigned int const &>
FUNC 624f8 8 0 __crt_char_traits<char>::output_debug_string<char const * const &>
FUNC 62504 a 0 __crt_char_traits<wchar_t>::output_debug_string<wchar_t const * const &>
FUNC 62510 a3 0 _acrt_show_narrow_message_box
FUNC 625dc a4 0 _acrt_show_wide_message_box
FUNC 626ac aa 0 console_output_reopen_and_retry<<lambda_61c1b8a38cedca4df5fdc542e6ccae6d> >
FUNC 62780 17 0 <lambda_61c1b8a38cedca4df5fdc542e6ccae6d>::<lambda_61c1b8a38cedca4df5fdc542e6ccae6d>
FUNC 6279c 27 0 <lambda_61c1b8a38cedca4df5fdc542e6ccae6d>::operator()
FUNC 627cc 3b 0 __dcrt_lowio_initialize_console_output
FUNC 62818 52 0 _dcrt_lowio_ensure_console_output_initialized
FUNC 62880 1c 0 _dcrt_terminate_console_output
FUNC 628a4 be 0 _dcrt_write_console
FUNC 62994 71 0 __crt_seh_guarded_call<int>::operator()<<lambda_751a882b2c74d4b022dec766aa51a29a>,<lambda_628dfdc04ba53c8bfc02c9951375f3f5> &,<lambda_f6c7be5f7998530c34de24c7437d6b54> >
FUNC 62a24 26 0 __acrt_lowio_lock_fh_and_call<<lambda_628dfdc04ba53c8bfc02c9951375f3f5> >
FUNC 62a54 7 0 <lambda_628dfdc04ba53c8bfc02c9951375f3f5>::<lambda_628dfdc04ba53c8bfc02c9951375f3f5>
FUNC 62a5c 8 0 <lambda_751a882b2c74d4b022dec766aa51a29a>::<lambda_751a882b2c74d4b022dec766aa51a29a>
FUNC 62a68 8 0 <lambda_f6c7be5f7998530c34de24c7437d6b54>::<lambda_f6c7be5f7998530c34de24c7437d6b54>
FUNC 62a74 49 0 <lambda_628dfdc04ba53c8bfc02c9951375f3f5>::operator()
FUNC 62ad0 7 0 <lambda_751a882b2c74d4b022dec766aa51a29a>::operator()
FUNC 62ad8 7 0 <lambda_f6c7be5f7998530c34de24c7437d6b54>::operator()
FUNC 62ae0 7e 0 close_os_handle_nolock
FUNC 62b80 a1 0 close
FUNC 62c4c bd 0 close_nolock
FUNC 62d38 8 0 __crt_internal_free_policy::operator()<__crt_stdio_stream_data>(__crt_stdio_stream_data const * const)
FUNC 62d44 7 0 __crt_unique_heap_ptr<__crt_stdio_stream_data,__crt_internal_free_policy>::__crt_unique_heap_ptr<__crt_stdio_stream_data,__crt_internal_free_policy>(__crt_stdio_stream_data * const)
FUNC 62d4c 8 0 __crt_stdio_stream::__crt_stdio_stream()
FUNC 62d58 1b 0 __crt_unique_heap_ptr<__crt_stdio_stream_data,__crt_internal_free_policy>::~__crt_unique_heap_ptr<__crt_stdio_stream_data,__crt_internal_free_policy>()
FUNC 62d7c 56 0 __acrt_stdio_allocate_stream()
FUNC 62de8 1c 0 __acrt_stdio_free_stream(__crt_stdio_stream)
FUNC 62e0c 9 0 __crt_stdio_stream::deallocate()
FUNC 62e18 8 0 __crt_unique_heap_ptr<__crt_stdio_stream_data,__crt_internal_free_policy>::detach()
FUNC 62e24 ea 0 find_or_allocate_unused_stream_nolock
FUNC 62f48 8 0 __crt_stdio_stream::lock()
FUNC 62f54 1b 0 __crt_unique_heap_ptr<__crt_stdio_stream_data,__crt_internal_free_policy>::release()
FUNC 62f78 1f 0 __crt_stdio_stream::try_allocate()
FUNC 62fa0 8 0 __crt_stdio_stream::unlock()
FUNC 62fac a 0 __acrt_fenv_shift_bits<__acrt_fenv_abstract_control>(__acrt_fenv_abstract_control,__acrt_fenv_abstract_control,unsigned int)
FUNC 62fb8 a 0 __acrt_fenv_shift_bits<__acrt_fenv_abstract_status>(__acrt_fenv_abstract_status,__acrt_fenv_abstract_status,unsigned int)
FUNC 62fc4 b 0 __acrt_fenv_translate_bit<__acrt_fenv_abstract_control,__acrt_fenv_machine_sse_control>(__acrt_fenv_machine_sse_control,__acrt_fenv_machine_sse_control,__acrt_fenv_abstract_control,__acrt_fenv_abstract_control)
FUNC 62fd4 a 0 __acrt_fenv_translate_bit<__acrt_fenv_abstract_status,__acrt_fenv_machine_sse_status>(__acrt_fenv_machine_sse_status,__acrt_fenv_machine_sse_status,__acrt_fenv_abstract_status,__acrt_fenv_abstract_status)
FUNC 62fe0 c 0 __acrt_fenv_translate_bit<__acrt_fenv_machine_sse_control,__acrt_fenv_abstract_control>(__acrt_fenv_abstract_control,__acrt_fenv_abstract_control,__acrt_fenv_machine_sse_control,__acrt_fenv_machine_sse_control)
FUNC 62ff0 a 0 __acrt_fenv_translate_bit<__acrt_fenv_machine_sse_status,__acrt_fenv_abstract_status>(__acrt_fenv_abstract_status,__acrt_fenv_abstract_status,__acrt_fenv_machine_sse_status,__acrt_fenv_machine_sse_status)
FUNC 62ffc a 0 __acrt_fenv_unshift_bits<__acrt_fenv_abstract_control>(__acrt_fenv_abstract_control,__acrt_fenv_abstract_control,unsigned int)
FUNC 63008 a 0 __acrt_fenv_unshift_bits<__acrt_fenv_abstract_status>(__acrt_fenv_abstract_status,__acrt_fenv_abstract_status,unsigned int)
FUNC 63014 4d 0 to_abstract_status<enum __acrt_fenv_machine_sse_status>
FUNC 63074 58 0 translate_control_exception_mask<enum __acrt_fenv_abstract_control,enum __acrt_fenv_machine_sse_control>
FUNC 630e4 99 0 translate_control_exception_mask<enum __acrt_fenv_machine_sse_control,enum __acrt_fenv_abstract_control>
FUNC 631a4 33 0 translate_control_rounding_control<enum __acrt_fenv_abstract_control,enum __acrt_fenv_machine_sse_control>
FUNC 631e4 32 0 translate_control_rounding_control<enum __acrt_fenv_machine_sse_control,enum __acrt_fenv_abstract_control>
FUNC 63224 4d 0 translate_status<enum __acrt_fenv_abstract_status,enum __acrt_fenv_machine_sse_status>
FUNC 63284 4d 0 translate_status<enum __acrt_fenv_machine_sse_status,enum __acrt_fenv_abstract_status>
FUNC 632e4 5 0 operator&(__acrt_fenv_abstract_control,__acrt_fenv_abstract_control)
FUNC 632ec 5 0 operator&(__acrt_fenv_abstract_status,__acrt_fenv_abstract_status)
FUNC 632f4 7 0 operator&(__acrt_fenv_machine_sse_control,__acrt_fenv_machine_sse_control)
FUNC 632fc 5 0 operator&(__acrt_fenv_machine_sse_status,__acrt_fenv_machine_sse_status)
FUNC 63304 5 0 operator|(__acrt_fenv_abstract_control,__acrt_fenv_abstract_control)
FUNC 6330c 5 0 operator|(__acrt_fenv_abstract_status,__acrt_fenv_abstract_status)
FUNC 63314 7 0 operator|(__acrt_fenv_machine_sse_control,__acrt_fenv_machine_sse_control)
FUNC 6331c 6 0 operator|=(__acrt_fenv_abstract_control &,__acrt_fenv_abstract_control)
FUNC 63324 6 0 operator|=(__acrt_fenv_abstract_status &,__acrt_fenv_abstract_status)
FUNC 6332c 7 0 operator|=(__acrt_fenv_machine_sse_control &,__acrt_fenv_machine_sse_control)
FUNC 63334 6 0 operator|=(__acrt_fenv_machine_sse_status &,__acrt_fenv_machine_sse_status)
FUNC 6333c 13 0 __acrt_fenv_shift_abstract_sse_control(__acrt_fenv_abstract_control)
FUNC 63354 9 0 __acrt_fenv_shift_abstract_sse_status(__acrt_fenv_abstract_status)
FUNC 63360 16 0 __acrt_fenv_unshift_abstract_sse_control(__acrt_fenv_abstract_control)
FUNC 6337c 9 0 __acrt_fenv_unshift_abstract_sse_status(__acrt_fenv_abstract_status)
FUNC 63388 12 0 get_machine_sse_control
FUNC 633a0 d 0 get_machine_sse_status
FUNC 633b0 23 0 set_machine_sse_control
FUNC 633dc 1b 0 set_machine_sse_status
FUNC 63400 df 0 to_abstract_control
FUNC 63518 137 0 to_machine_sse_control
FUNC 6369c 57 0 to_machine_sse_status
FUNC 63708 34 0 translate_control_denormal_control_from_sse
FUNC 6374c 30 0 translate_control_denormal_control_to_sse
FUNC 63788 17 0 _acrt_fenv_expand_round_control
FUNC 637a4 9 0 _acrt_fenv_get_common_round_control
FUNC 637b0 f1 0 _acrt_fenv_get_control
FUNC 638e0 b 0 _acrt_fenv_get_fp_status_word_from_exception_mask
FUNC 638f0 53 0 _acrt_fenv_get_status
FUNC 63958 147 0 _acrt_fenv_set_control
FUNC 63af0 83 0 _acrt_fenv_set_status
FUNC 63b94 c6 0 _abstract_cw
FUNC 63c8c 5b 0 _abstract_sw
FUNC 63d00 6e 0 clearfp
FUNC 63d8c 5 0 control87
FUNC 63d94 9 0 controlfp
FUNC 63da0 a 0 fpreset
FUNC 63dac bf 0 _hw_cw
FUNC 63e9c 34 0 set_controlfp
FUNC 63ee0 62 0 statusfp
FUNC 63f5c 2be 0 common_control87
FUNC 642cc 65 0 _call_matherr
FUNC 6434c ba 0 _exception_enabled
FUNC 64434 127 0 handle_error
FUNC 645a4 133 0 handle_errorf
FUNC 64724 19 0 handle_nan
FUNC 64744 f 0 handle_nanf
FUNC 64760 70 0 _acrt_initialize_fma3
FUNC 647ec 7 0 get_FMA3_enable
FUNC 647f4 17 0 set_FMA3_enable
FUNC 64810 20 0 log10_special
FUNC 64838 20 0 log10f_special
FUNC 64860 20 0 log_special
FUNC 64888 96 0 _log_special_common
FUNC 64944 20 0 logf_special
FUNC 6496c 9c 0 _logf_special_common
FUNC 64a30 87 0 _acrt_LCMapStringW
FUNC 64ad8 9c 0 _acrt_OutputDebugStringA
FUNC 64bb0 10 0 get_fpsr
FUNC 64bc0 a 0 set_fpsr
FUNC 64bca 14 0 fclrf
FUNC 64bde 1f 0 frnd
FUNC 64c14 43 0 errcode
FUNC 64c68 f1 0 except1
FUNC 64d98 106 0 except2
FUNC 64ee0 31 0 _get_fname
FUNC 64f20 267 0 handle_exc
FUNC 65220 5 0 handle_qnan2
FUNC 65228 27 0 raise_exc
FUNC 65258 30d 0 raise_exc_ex
FUNC 65628 2a 0 raise_excf
FUNC 6565c 2e 0 set_errno_from_matherr
FUNC 65698 d4 0 umatherr
FUNC 657a4 1d 0 clrfp
FUNC 657c8 7c 0 ctrlfp
FUNC 65864 1f 0 set_statfp
FUNC 6588c 11 0 statfp
FUNC 658a4 200 0 _mbstowcs_l_helper
FUNC 65b24 5 0 mbstowcs_l
FUNC 65b2c 133 0 mbstowcs_s_l
FUNC 65cac 1a 0 mbstowcs
FUNC 65ccc 1e 0 mbstowcs_s
FUNC 65cf4 4e 0 add_exp
FUNC 65d58 12e 0 decomp
FUNC 65ed4 1d 0 get_exp
FUNC 65ef8 30 0 set_bexp
FUNC 65f34 38 0 set_exp
FUNC 65f7c 74 0 sptype
FUNC 66010 44 0 FindPESection
FUNC 66070 4d 0 IsNonwritableInCurrentImage
FUNC 660d0 2d 0 ValidateImageBase
FUNC 66108 b 0 type_info::~type_info()
FUNC 66118 2b 0 type_info::`scalar deleting destructor'(unsigned int)
FUNC 66150 1d 0 _GSHandlerCheck
FUNC 66174 5b 0 _GSHandlerCheckCommon
FUNC 661e8 85 0 _GSHandlerCheck_SEH
FUNC 662a0 51 0 _chkstk
PUBLIC 66309 0 RtlUnwindEx
PUBLIC 6630f 0 InterlockedPushEntrySList
PUBLIC 66315 0 InterlockedFlushSList
PUBLIC 6631b 0 GetLastError
PUBLIC 66321 0 SetLastError
PUBLIC 66327 0 EnterCriticalSection
PUBLIC 6632d 0 LeaveCriticalSection
PUBLIC 66333 0 DeleteCriticalSection
PUBLIC 66339 0 InitializeCriticalSectionAndSpinCount
PUBLIC 6633f 0 TlsAlloc
PUBLIC 66345 0 TlsGetValue
PUBLIC 6634b 0 TlsSetValue
PUBLIC 66351 0 TlsFree
PUBLIC 66357 0 FreeLibrary
PUBLIC 6635d 0 GetProcAddress
PUBLIC 66363 0 LoadLibraryExW
PUBLIC 66369 0 EncodePointer
PUBLIC 6636f 0 RaiseException
PUBLIC 66375 0 RtlPcToFileHeader
PUBLIC 6637b 0 ExitProcess
PUBLIC 66381 0 GetModuleHandleExW
PUBLIC 66387 0 GetModuleFileNameW
PUBLIC 6638d 0 GetCurrentThread
PUBLIC 66393 0 HeapFree
PUBLIC 66399 0 HeapAlloc
PUBLIC 6639f 0 FindClose
PUBLIC 663a5 0 FindFirstFileExW
PUBLIC 663ab 0 FindNextFileW
PUBLIC 663b1 0 IsValidCodePage
PUBLIC 663b7 0 GetACP
PUBLIC 663bd 0 GetOEMCP
PUBLIC 663c3 0 GetCPInfo
PUBLIC 663c9 0 GetCommandLineA
PUBLIC 663cf 0 GetCommandLineW
PUBLIC 663d5 0 MultiByteToWideChar
PUBLIC 663db 0 WideCharToMultiByte
PUBLIC 663e1 0 GetEnvironmentStringsW
PUBLIC 663e7 0 FreeEnvironmentStringsW
PUBLIC 663ed 0 SetEnvironmentVariableW
PUBLIC 663f3 0 GetDateFormatW
PUBLIC 663f9 0 GetTimeFormatW
PUBLIC 663ff 0 CompareStringW
PUBLIC 66405 0 LCMapStringW
PUBLIC 6640b 0 GetLocaleInfoW
PUBLIC 66411 0 IsValidLocale
PUBLIC 66417 0 GetUserDefaultLCID
PUBLIC 6641d 0 EnumSystemLocalesW
PUBLIC 66423 0 GetProcessHeap
PUBLIC 66429 0 GetStdHandle
PUBLIC 6642f 0 GetFileType
PUBLIC 66435 0 SetConsoleCtrlHandler
PUBLIC 6643b 0 GetStringTypeW
PUBLIC 66441 0 HeapSize
PUBLIC 66447 0 HeapReAlloc
PUBLIC 6644d 0 SetStdHandle
PUBLIC 66453 0 FlushFileBuffers
PUBLIC 66459 0 WriteFile
PUBLIC 6645f 0 GetConsoleCP
PUBLIC 66465 0 GetConsoleMode
PUBLIC 6646b 0 GetFileSizeEx
PUBLIC 66471 0 SetFilePointerEx
PUBLIC 66477 0 ReadFile
PUBLIC 6647d 0 ReadConsoleW
PUBLIC 66483 0 OutputDebugStringW
PUBLIC 66489 0 CreateFileW
PUBLIC 6648f 0 CloseHandle
PUBLIC 66495 0 WriteConsoleW
FUNC 6649c 89 0 strchr
FUNC 66548 91 0 wcschr
FUNC 66600 149 0 strrchr
FUNC 6679c 29 0 local_unwind
FUNC 667e0 c7 0 memcmp
PUBLIC 668dc 0 RtlUnwind
FUNC 68440 2 0 guard_dispatch_icall_nop
FUNC 69450 17 0 `dllmain_crt_process_attach'::`1'::fin$0
FUNC 6946c 1c 0 `dllmain_crt_process_detach'::`1'::fin$0
FUNC 6948f 36 0 `dllmain_dispatch'::`1'::filt$0
FUNC 694d2 18 0 __scrt_is_nonwritable_in_current_image$filt$0
FUNC 694f0 18 0 __DestructExceptionObject$filt$0
FUNC 6950e c 0 `UnDecorator::getDecoratedName'::`1'::dtor$0
FUNC 6951d 16 0 __unDNameEx$fin$0
FUNC 69538 91 0 `_CallSETranslator<__FrameHandler3>'::`1'::filt$0
FUNC 695ed 91 0 `_CallSETranslator<__FrameHandler4>'::`1'::filt$0
FUNC 696a2 25 0 `__FrameHandler3::CxxCallCatchBlock'::`1'::filt$0
FUNC 696c7 78 0 `__FrameHandler3::CxxCallCatchBlock'::`1'::fin$1
FUNC 69766 3e 0 `__FrameHandler4::CxxCallCatchBlock'::`1'::filt$0
FUNC 697a4 94 0 `__FrameHandler4::CxxCallCatchBlock'::`1'::fin$1
FUNC 6986c 16 0 `__FrameHandler3::FrameUnwindToState'::`1'::filt$0
FUNC 69882 23 0 `__FrameHandler3::FrameUnwindToState'::`1'::fin$1
FUNC 698b3 16 0 `__FrameHandler4::FrameUnwindToState'::`1'::filt$0
FUNC 698c9 23 0 `__FrameHandler4::FrameUnwindToState'::`1'::fin$1
FUNC 698fa 1a 0 `__crt_seh_guarded_call<void>::operator()<<lambda_d80eeec6fff315bfe5c115232f3240e3>,<lambda_6e4b09c48022b2350581041d5f6b0c4c> &,<lambda_2358e3775559c9db80273638284d5e45> >'::`1'::fin$0
FUNC 6991a 1b 0 `<lambda_6e4b09c48022b2350581041d5f6b0c4c>::operator()'::`1'::filt$0
FUNC 6993b 1a 0 `__crt_seh_guarded_call<int>::operator()<<lambda_638799b9deba96c50f710eeac98168cd>,<lambda_22ebabd17bc4fa466a2aca6d8deb888d> &,<lambda_a6f7d7db0129f75315ebf26d50c089f1> >'::`1'::fin$0
FUNC 6995b 1a 0 `__crt_seh_guarded_call<int>::operator()<<lambda_7777bce6b2f8c936911f934f8298dc43>,<lambda_f03950bc5685219e0bcd2087efbe011e> &,<lambda_3883c3dff614d5e0c5f61bb1ac94921c> >'::`1'::fin$0
FUNC 6997b 1b 0 `__crt_seh_guarded_call<int>::operator()<<lambda_63c71d947f2ce890aa4aac7392f1cbed>,<lambda_e3269ba96939e7713c73908c0d757d25> &,<lambda_3776af017df72547960a8ac98bb265e7> >'::`1'::fin$0
FUNC 6999c 1b 0 `__crt_seh_guarded_call<int>::operator()<<lambda_676bd5779251ec186b530f0a904b4b35>,<lambda_b579ea784fd840951dfbcbdaebf709fd> &,<lambda_10027885da78ada7fb00668d7e2e96b5> >'::`1'::fin$0
FUNC 699bd 1b 0 `__crt_seh_guarded_call<int>::operator()<<lambda_8be82e0ce9ca3860586e20edfb7a650e>,<lambda_673ffc0dc9412a0afcf2088e0e1b9bdc> &,<lambda_c997b1ad71a4c19edf3d1d12a5864641> >'::`1'::fin$0
FUNC 699de 1b 0 `__crt_seh_guarded_call<int>::operator()<<lambda_d1b8e9147f7260ae436300a3cb83e6d4>,<lambda_e638437c4db75b75056fab6aaf7e4f15> &,<lambda_8c9f37a989ed2ac074735e5b535e306a> >'::`1'::fin$0
FUNC 699ff 1b 0 `__crt_seh_guarded_call<int>::operator()<<lambda_e746820a99d01fe878d2dbd7f1018dff>,<lambda_a993425e72f5bd8b40f5859286f153c4> &,<lambda_4dad5d88921143c78c186dc2683775b0> >'::`1'::fin$0
FUNC 69a20 1b 0 `__crt_seh_guarded_call<int>::operator()<<lambda_fe5404e9642edbb7c8ae71e1dcfa4018>,<lambda_36eeb330e99a4f0bf8a7da86d0894cb9> &,<lambda_2fa474834de80dc12f7a3c6eddd7a366> >'::`1'::fin$0
FUNC 69a41 1a 0 `__crt_seh_guarded_call<void>::operator()<<lambda_0ae27a3a962d80f24befdcbee591983d>,<lambda_8d0ee55de4b1038c4002e0adecdf1839> &,<lambda_dc504788e8f1664fe9b84e20bfb512f2> >'::`1'::fin$0
FUNC 69a61 1a 0 `__crt_seh_guarded_call<void>::operator()<<lambda_2d41944a1d46af3157314b8a01080d33>,<lambda_8f455de75cd7d7f24b4096f044d8b9e6> &,<lambda_aa500f224e6afead328df44964fe2772> >'::`1'::fin$0
FUNC 69a81 1a 0 `__crt_seh_guarded_call<void>::operator()<<lambda_aa87e3671a710a21b5dc78c0bdf72e11>,<lambda_92619d2358a28f41a33ba319515a20b9> &,<lambda_6992ecaafeb10aed2b74cb1fae11a551> >'::`1'::fin$0
FUNC 69aa1 1a 0 `__crt_seh_guarded_call<void>::operator()<<lambda_f2e299630e499de9f9a165e60fcd3db5>,<lambda_2ae9d31cdba2644fcbeaf08da7c24588> &,<lambda_40d01ff24d0e7b3814fdbdcee8eab3c7> >'::`1'::fin$0
FUNC 69ac1 1a 0 `__crt_seh_guarded_call<void>::operator()<<lambda_efdfa57d1f175319df784efa44bb7b81>,<lambda_5f0a4c1567f8adc6734073e5d1e1b35c> &,<lambda_2e8a7d3640ea6ccb4c2413664c2db6fd> >'::`1'::fin$0
FUNC 69ae1 19 0 `update_thread_multibyte_data_internal'::`1'::fin$0
FUNC 69b00 1a 0 `__crt_seh_guarded_call<int>::operator()<<lambda_48fc4a32460bb0512d3b13f8499328be>,<lambda_6c3dac0a4f3f9cefca9bb494422f9b77> &,<lambda_0a2f2c9f9a56eb2b08bfa6ff61d331c5> >'::`1'::fin$0
FUNC 69b20 19 0 __acrt_initialize_lowio$fin$0
FUNC 69b3f 16 0 _query_new_handler$fin$0
FUNC 69b5a 16 0 _set_new_handler$fin$0
FUNC 69b75 1a 0 `__crt_seh_guarded_call<void (__cdecl*)(int)>::operator()<<lambda_450d765d439847d4c735a33c368b5fc0>,<lambda_44731a7d0e6d81c3e6aa82d741081786> &,<lambda_601a2a7da3b7a96e9554ac7215c4b07c> >'::`1'::fin$0
FUNC 69b95 19 0 `ctrlevent_capture'::`1'::fin$0
FUNC 69bb4 21 0 raise$fin$0
FUNC 69bdd 19 0 signal$fin$0
FUNC 69bfc 1b 0 `__crt_seh_guarded_call<void>::operator()<<lambda_842d9ff0dc9ef11c61343bbaebe7f885>,<lambda_c5860995281e5c4ce005b3de8f5874ee> &,<lambda_d90129c13df834fdcbf8d2b88dafcf2d> >'::`1'::fin$0
FUNC 69c1d 1d 0 `__crt_seh_guarded_call<void>::operator()<<lambda_886d6c58226a84441f68b9f2b8217b83>,<lambda_ab61a845afdef5b7c387490eaf3616ee> &,<lambda_f7f22ab5edc0698d5f6905b0d3f44752> >'::`1'::fin$0
FUNC 69c41 1b 0 `__crt_seh_guarded_call<int>::operator()<<lambda_c376a267cfb53b6959b3b692ec76b120>,<lambda_9a32fed5bf61b6b509b2d3f6003082a1> &,<lambda_572fbb9fa0ab338edf41edfd4b5fcc8d> >'::`1'::fin$0
FUNC 69c62 18 0 fputwc$fin$0
FUNC 69c80 1a 0 fputc$fin$0
FUNC 69ca0 1a 0 `__crt_seh_guarded_call<void>::operator()<<lambda_0a55505eb881d180377eb1fc64ffb544>,<lambda_862e9a3f04921db6ca1ce3faa2bf3edf> &,<lambda_c91f0b5e4ab41df1063aa1a95f49bd71> >'::`1'::fin$0
FUNC 69cc0 1a 0 `__crt_seh_guarded_call<void>::operator()<<lambda_1d892b297fdedeee07ed8124eeb2f2fa>,<lambda_ffc046909424fd52df0ac47e64813305> &,<lambda_01a7098693036236037e7cdb9bca3d73> >'::`1'::fin$0
FUNC 69ce0 1a 0 `__crt_seh_guarded_call<void>::operator()<<lambda_410d79af7f07d98d83a3f525b3859a53>,<lambda_3e16ef9562a7dcce91392c22ab16ea36> &,<lambda_38119f0e861e05405d8a144b9b982f0a> >'::`1'::fin$0
FUNC 69d00 21 0 `__crt_seh_guarded_call<void>::operator()<<lambda_7f2adfce497ff2baa965cd4f576ecfd1>,<lambda_2a444430fde8c29194d880d93eed5e8f> &,<lambda_8dff2cf36a5417162780cd64fa2883ef> &>'::`1'::fin$0
FUNC 69d29 1a 0 `__crt_seh_guarded_call<void>::operator()<<lambda_a48fd90c2dacdd6561e44078457d03a7>,<lambda_ebab98244f73a74f49db879bf13fa982> &,<lambda_8b3bdacfa7480f205f16cb49964db269> >'::`1'::fin$0
FUNC 69d49 19 0 _free_locale$fin$1
FUNC 69d62 19 0 _free_locale$fin$0
FUNC 69d87 19 0 __acrt_update_thread_locale_data$fin$0
FUNC 69da6 19 0 __acrt_lowio_ensure_fh_exists$fin$0
FUNC 69dc5 19 0 _alloc_osfhnd$fin$0
FUNC 69de4 41 0 _open_osfhandle$fin$0
FUNC 69e35 1a 0 `__crt_seh_guarded_call<int>::operator()<<lambda_a37b2b86f63e897a80ea819b0eb08c01>,<lambda_38ce7e780aa69e748d6df282ebc68efe> &,<lambda_99fb1378e971ab6e7edea83e3a7a83a2> >'::`1'::fin$0
FUNC 69e55 17 0 _write$fin$0
FUNC 69e71 19 0 _fcloseall$fin$0
FUNC 69e90 17 0 `common_lseek<long>'::`1'::fin$0
FUNC 69eac 17 0 `common_lseek<__int64>'::`1'::fin$0
FUNC 69ec8 1a 0 `__crt_seh_guarded_call<unsigned short>::operator()<<lambda_0384895ae1aa6ccbfe369a30d6ca2ef7>,<lambda_9e0b6ab72a5b3ae37ad997d08b519f50> &,<lambda_7e22f70504d73c22058e5832bde5914f> >'::`1'::fin$0
FUNC 69ee8 17 0 _read$fin$0
FUNC 69f04 18 0 fclose$fin$0
FUNC 69f22 1a 0 `__crt_seh_guarded_call<int>::operator()<<lambda_751a882b2c74d4b022dec766aa51a29a>,<lambda_628dfdc04ba53c8bfc02c9951375f3f5> &,<lambda_f6c7be5f7998530c34de24c7437d6b54> >'::`1'::fin$0
FUNC 69f42 19 0 `__acrt_stdio_allocate_stream'::`1'::fin$0
FUNC 69f61 2c 0 common_control87$filt$0
FUNC 69f98 2c 0 _ctrlfp$filt$0
FUNC 69fd0 20 0 _IsNonwritableInCurrentImage$filt$0
STACK CFI INIT 6b70 11 .cfa: $rsp .ra: .cfa 8 - ^
STACK CFI 6b70 .cfa: $rsp 16 +
STACK CFI INIT 6b90 a .cfa: $rsp .ra: .cfa 8 - ^
STACK CFI 6b90 .cfa: $rsp 16 +
STACK CFI INIT 6ba0 17 .cfa: $rsp .ra: .cfa 8 - ^
STACK CFI 6ba0 .cfa: $rsp 24 +
STACK CFI INIT 6bc0 1c .cfa: $rsp .ra: .cfa 8 - ^
STACK CFI 6bc0 .cfa: $rsp 32 +
STACK CFI INIT 6be0 2b .cfa: $rsp .ra: .cfa 8 - ^
STACK CFI 6be0 .cfa: $rsp 64 +
STACK CFI INIT 6c10 17 .cfa: $rsp .ra: .cfa 8 - ^
STACK CFI 6c10 .cfa: $rsp 32 +
STACK CFI INIT 6c30 9 .cfa: $rsp .ra: .cfa 8 - ^
STACK CFI 6c30 .cfa: $rsp 16 +
STACK CFI INIT 6c40 9 .cfa: $rsp .ra: .cfa 8 - ^
STACK CFI 6c40 .cfa: $rsp 16 +
STACK CFI INIT 6c50 9 .cfa: $rsp .ra: .cfa 8 - ^
STACK CFI 6c50 .cfa: $rsp 16 +
STACK CFI INIT 6c60 9 .cfa: $rsp .ra: .cfa 8 - ^
STACK CFI 6c60 .cfa: $rsp 16 +
STACK CFI INIT 6c70 1e .cfa: $rsp .ra: .cfa 8 - ^
STACK CFI 6c70 .cfa: $rsp 40 +
STACK CFI INIT 6ce0 28 .cfa: $rsp .ra: .cfa 8 - ^
STACK CFI 6ce0 .cfa: $rsp 64 +
STACK CFI INIT 6d20 b .cfa: $rsp .ra: .cfa 8 - ^
STACK CFI 6d20 .cfa: $rsp 16 +
STACK CFI INIT 6d30 16 .cfa: $rsp .ra: .cfa 8 - ^
STACK CFI 6d30 .cfa: $rsp 24 +
STACK CFI INIT 6d50 7 .cfa: $rsp .ra: .cfa 8 - ^
STACK CFI 6d50 .cfa: $rsp 16 +
STACK CFI INIT 6d60 11 .cfa: $rsp .ra: .cfa 8 - ^
STACK CFI 6d60 .cfa: $rsp 24 +
STACK CFI INIT 6d80 13 .cfa: $rsp .ra: .cfa 8 - ^
STACK CFI 6d80 .cfa: $rsp 24 +
STACK CFI INIT 6da0 17 .cfa: $rsp .ra: .cfa 8 - ^
STACK CFI 6da0 .cfa: $rsp 24 +
STACK CFI INIT 6dc0 11 .cfa: $rsp .ra: .cfa 8 - ^
STACK CFI 6dc0 .cfa: $rsp 24 +
STACK CFI INIT 6de0 17 .cfa: $rsp .ra: .cfa 8 - ^
STACK CFI 6de0 .cfa: $rsp 24 +
STACK CFI INIT 6e00 c .cfa: $rsp .ra: .cfa 8 - ^
STACK CFI 6e00 .cfa: $rsp 16 +
STACK CFI INIT 6e10 1a .cfa: $rsp .ra: .cfa 8 - ^
STACK CFI 6e10 .cfa: $rsp 32 +
STACK CFI INIT 6e30 f2 .cfa: $rsp .ra: .cfa 8 - ^
STACK CFI 6e30 .cfa: $rsp 96 +
STACK CFI INIT 6f60 19 .cfa: $rsp .ra: .cfa 8 - ^
STACK CFI 6f60 .cfa: $rsp 48 +
STACK CFI INIT 6f80 21 .cfa: $rsp .ra: .cfa 8 - ^
STACK CFI 6f80 .cfa: $rsp 48 +
STACK CFI INIT 6fb0 19 .cfa: $rsp .ra: .cfa 8 - ^
STACK CFI 6fb0 .cfa: $rsp 48 +
STACK CFI INIT 6fd0 1d .cfa: $rsp .ra: .cfa 8 - ^
STACK CFI 6fd0 .cfa: $rsp 16 +
STACK CFI INIT 7000 19 .cfa: $rsp .ra: .cfa 8 - ^
STACK CFI 7000 .cfa: $rsp 48 +
STACK CFI INIT 7020 12 .cfa: $rsp .ra: .cfa 8 - ^
STACK CFI 7020 .cfa: $rsp 24 +
STACK CFI INIT 7040 b .cfa: $rsp .ra: .cfa 8 - ^
STACK CFI 7040 .cfa: $rsp 16 +
STACK CFI INIT 7050 39 .cfa: $rsp .ra: .cfa 8 - ^
STACK CFI 7050 .cfa: $rsp 80 +
STACK CFI INIT 70a0 1f .cfa: $rsp .ra: .cfa 8 - ^
STACK CFI 70a0 .cfa: $rsp 24 +
STACK CFI INIT 70d0 7 .cfa: $rsp .ra: .cfa 8 - ^
STACK CFI 70d0 .cfa: $rsp 16 +
STACK CFI INIT 70e0 b .cfa: $rsp .ra: .cfa 8 - ^
STACK CFI 70e0 .cfa: $rsp 16 +
STACK CFI INIT 70f0 e .cfa: $rsp .ra: .cfa 8 - ^
STACK CFI 70f0 .cfa: $rsp 16 +
STACK CFI INIT 7110 5d .cfa: $rsp .ra: .cfa 8 - ^
STACK CFI 7110 .cfa: $rsp 64 +
STACK CFI INIT 7190 93 .cfa: $rsp .ra: .cfa 8 - ^
STACK CFI 7190 .cfa: $rsp 96 +
STACK CFI INIT 7250 19 .cfa: $rsp .ra: .cfa 8 - ^
STACK CFI 7250 .cfa: $rsp 48 +
STACK CFI INIT 7270 19 .cfa: $rsp .ra: .cfa 8 - ^
STACK CFI 7270 .cfa: $rsp 48 +
STACK CFI INIT 7290 7 .cfa: $rsp .ra: .cfa 8 - ^
STACK CFI 7290 .cfa: $rsp 16 +
STACK CFI INIT 99d0 21 .cfa: $rsp .ra: .cfa 8 - ^
STACK CFI 99d0 .cfa: $rsp 8 +
STACK CFI INIT 9a08 50 .cfa: $rsp .ra: .cfa 8 - ^
STACK CFI 9a08 .cfa: $rsp 48 +
STACK CFI INIT 9a6c 119 .cfa: $rsp .ra: .cfa 8 - ^
STACK CFI 9a6c .cfa: $rsp 48 +
STACK CFI INIT 9bcc 8e .cfa: $rsp .ra: .cfa 8 - ^
STACK CFI 9bcc .cfa: $rsp 48 +
STACK CFI INIT 9c80 133 .cfa: $rsp .ra: .cfa 8 - ^
STACK CFI 9c80 .cfa: $rsp 96 +
STACK CFI INIT 9e28 3d .cfa: $rsp .ra: .cfa 8 - ^
STACK CFI 9e28 .cfa: $rsp 48 +
STACK CFI INIT 9e74 34 .cfa: $rsp .ra: .cfa 8 - ^
STACK CFI 9e74 .cfa: $rsp 48 +
STACK CFI INIT 9eb8 d1 .cfa: $rsp .ra: .cfa 8 - ^
STACK CFI 9eb8 .cfa: $rsp 64 +
STACK CFI INIT 9fc0 13 .cfa: $rsp .ra: .cfa 8 - ^
STACK CFI 9fc0 .cfa: $rsp 48 +
STACK CFI INIT 9fd8 9b .cfa: $rsp .ra: .cfa 8 - ^
STACK CFI 9fd8 .cfa: $rsp 48 +
STACK CFI INIT a09c 10e .cfa: $rsp .ra: .cfa 8 - ^
STACK CFI a09c .cfa: $rsp 64 +
STACK CFI INIT a1f0 6d .cfa: $rsp .ra: .cfa 8 - ^
STACK CFI a1f0 .cfa: $rsp 80 +
STACK CFI INIT a278 71 .cfa: $rsp .ra: .cfa 8 - ^
STACK CFI a278 .cfa: $rsp 96 +
STACK CFI INIT a310 6b .cfa: $rsp .ra: .cfa 8 - ^
STACK CFI a310 .cfa: $rsp 48 +
STACK CFI INIT a398 ac .cfa: $rsp .ra: .cfa 8 - ^
STACK CFI a398 .cfa: $rsp 48 +
STACK CFI INIT a4b4 1b .cfa: $rsp .ra: .cfa 8 - ^
STACK CFI a4b4 .cfa: $rsp 48 +
STACK CFI INIT a528 14 .cfa: $rsp .ra: .cfa 8 - ^
STACK CFI a528 .cfa: $rsp 48 +
STACK CFI INIT a5f0 39 .cfa: $rsp .ra: .cfa 8 - ^
STACK CFI a5f0 .cfa: $rsp 48 +
STACK CFI INIT a638 34 .cfa: $rsp .ra: .cfa 8 - ^
STACK CFI a638 .cfa: $rsp 48 +
STACK CFI INIT a67c 15 .cfa: $rsp .ra: .cfa 8 - ^
STACK CFI a67c .cfa: $rsp 48 +
STACK CFI INIT a698 28 .cfa: $rsp .ra: .cfa 8 - ^
STACK CFI a698 .cfa: $rsp 48 +
STACK CFI INIT a6cc 15 .cfa: $rsp .ra: .cfa 8 - ^
STACK CFI a6cc .cfa: $rsp 48 +
STACK CFI INIT a6e8 60 .cfa: $rsp .ra: .cfa 8 - ^
STACK CFI a6e8 .cfa: $rsp 48 +
STACK CFI INIT a760 30 .cfa: $rsp .ra: .cfa 8 - ^
STACK CFI a760 .cfa: $rsp 48 +
STACK CFI INIT a79c 14 .cfa: $rsp .ra: .cfa 8 - ^
STACK CFI a79c .cfa: $rsp 48 +
STACK CFI INIT a7b8 49 .cfa: $rsp .ra: .cfa 8 - ^
STACK CFI a7b8 .cfa: $rsp 48 +
STACK CFI INIT a814 d8 .cfa: $rsp .ra: .cfa 8 - ^
STACK CFI a814 .cfa: $rsp 80 +
STACK CFI INIT a924 99 .cfa: $rsp .ra: .cfa 8 - ^
STACK CFI a924 .cfa: $rsp 32 +
STACK CFI INIT a9e4 24 .cfa: $rsp .ra: .cfa 8 - ^
STACK CFI a9e4 .cfa: $rsp 48 +
STACK CFI INIT aa14 2b .cfa: $rsp .ra: .cfa 8 - ^
STACK CFI aa14 .cfa: $rsp 48 +
STACK CFI INIT aa4c 4f .cfa: $rsp .ra: .cfa 8 - ^
STACK CFI aa4c .cfa: $rsp 48 +
STACK CFI INIT aaf4 17 .cfa: $rsp .ra: .cfa 8 - ^
STACK CFI aaf4 .cfa: $rsp 48 +
STACK CFI INIT ab28 14a .cfa: $rsp .ra: .cfa 8 - ^
STACK CFI ab28 .cfa: $rsp 1488 +
STACK CFI INIT acc4 3a .cfa: $rsp .ra: .cfa 8 - ^
STACK CFI acc4 .cfa: $rsp 160 +
STACK CFI INIT ad18 52 .cfa: $rsp .ra: .cfa 8 - ^
STACK CFI ad18 .cfa: $rsp 48 +
STACK CFI INIT ad98 38 .cfa: $rsp .ra: .cfa 8 - ^
STACK CFI ad98 .cfa: $rsp 48 +
STACK CFI INIT ade0 3c .cfa: $rsp .ra: .cfa 8 - ^
STACK CFI ade0 .cfa: $rsp 48 +
STACK CFI INIT ae2c 3c .cfa: $rsp .ra: .cfa 8 - ^
STACK CFI ae2c .cfa: $rsp 48 +
STACK CFI INIT aea4 1b9 .cfa: $rsp .ra: .cfa 8 - ^
STACK CFI aea4 .cfa: $rsp 48 +
STACK CFI INIT b150 20b .cfa: $rsp .ra: .cfa 8 - ^
STACK CFI b150 .cfa: $rsp 112 +
STACK CFI INIT b428 1b .cfa: $rsp .ra: .cfa 8 - ^
STACK CFI b428 .cfa: $rsp 48 +
STACK CFI INIT b44c 1b .cfa: $rsp .ra: .cfa 8 - ^
STACK CFI b44c .cfa: $rsp 48 +
STACK CFI INIT b4e8 1b .cfa: $rsp .ra: .cfa 8 - ^
STACK CFI b4e8 .cfa: $rsp 48 +
STACK CFI INIT b50c 1b .cfa: $rsp .ra: .cfa 8 - ^
STACK CFI b50c .cfa: $rsp 48 +
STACK CFI INIT b560 2a .cfa: $rsp .ra: .cfa 8 - ^
STACK CFI b560 .cfa: $rsp 48 +
STACK CFI INIT b5e0 11c .cfa: $rsp .ra: .cfa 8 - ^
STACK CFI b5e0 .cfa: $rsp 112 +
STACK CFI INIT b744 32 .cfa: $rsp .ra: .cfa 8 - ^
STACK CFI b744 .cfa: $rsp 48 +
STACK CFI INIT b784 14 .cfa: $rsp .ra: .cfa 8 - ^
STACK CFI b784 .cfa: $rsp 48 +
STACK CFI INIT b7a0 12 .cfa: $rsp .ra: .cfa 8 - ^
STACK CFI b7a0 .cfa: $rsp 48 +
STACK CFI INIT b7b8 20 .cfa: $rsp .ra: .cfa 8 - ^
STACK CFI b7b8 .cfa: $rsp 48 +
STACK CFI INIT b7e0 10 .cfa: $rsp .ra: .cfa 8 - ^
STACK CFI b7e0 .cfa: $rsp 48 +
STACK CFI INIT b810 10 .cfa: $rsp .ra: .cfa 8 - ^
STACK CFI b810 .cfa: $rsp 16 +
STACK CFI INIT b830 190 .cfa: $rsp .ra: .cfa 8 - ^
STACK CFI b830 .cfa: $rsp 8 +
STACK CFI INIT ba40 18 .cfa: $rsp .ra: .cfa 8 - ^
STACK CFI ba40 .cfa: $rsp 8 +
STACK CFI INIT ba60 1 .cfa: $rsp .ra: .cfa 8 - ^
STACK CFI ba60 .cfa: $rsp 8 +
STACK CFI INIT ba70 1 .cfa: $rsp .ra: .cfa 8 - ^
STACK CFI ba70 .cfa: $rsp 8 +
STACK CFI INIT bb20 5b .cfa: $rsp .ra: .cfa 8 - ^
STACK CFI bb20 .cfa: $rsp 48 +
STACK CFI INIT bb94 71 .cfa: $rsp .ra: .cfa 8 - ^
STACK CFI bb94 .cfa: $rsp 48 +
STACK CFI INIT bc30 2f .cfa: $rsp .ra: .cfa 8 - ^
STACK CFI bc30 .cfa: $rsp 48 +
STACK CFI INIT bca4 4a .cfa: $rsp .ra: .cfa 8 - ^
STACK CFI bca4 .cfa: $rsp 48 +
STACK CFI INIT bd00 5b .cfa: $rsp .ra: .cfa 8 - ^
STACK CFI bd00 .cfa: $rsp 64 +
STACK CFI INIT bd74 12 .cfa: $rsp .ra: .cfa 8 - ^
STACK CFI bd74 .cfa: $rsp 48 +
STACK CFI INIT bd8c 12 .cfa: $rsp .ra: .cfa 8 - ^
STACK CFI bd8c .cfa: $rsp 48 +
STACK CFI INIT bda4 12 .cfa: $rsp .ra: .cfa 8 - ^
STACK CFI bda4 .cfa: $rsp 48 +
STACK CFI INIT bdbc a .cfa: $rsp .ra: .cfa 8 - ^
STACK CFI bdbc .cfa: $rsp 48 +
STACK CFI INIT bdc8 a5 .cfa: $rsp .ra: .cfa 8 - ^
STACK CFI bdc8 .cfa: $rsp 48 +
STACK CFI INIT bea4 cc .cfa: $rsp .ra: .cfa 8 - ^
STACK CFI bea4 .cfa: $rsp 48 +
STACK CFI INIT bfb8 31 .cfa: $rsp .ra: .cfa 8 - ^
STACK CFI bfb8 .cfa: $rsp 48 +
STACK CFI INIT bff8 84 .cfa: $rsp .ra: .cfa 8 - ^
STACK CFI bff8 .cfa: $rsp 48 +
STACK CFI INIT c0a0 40 .cfa: $rsp .ra: .cfa 8 - ^
STACK CFI c0a0 .cfa: $rsp 48 +
STACK CFI INIT c138 a6 .cfa: $rsp .ra: .cfa 8 - ^
STACK CFI c138 .cfa: $rsp 80 +
STACK CFI INIT c208 88 .cfa: $rsp .ra: .cfa 8 - ^
STACK CFI c208 .cfa: $rsp 80 +
STACK CFI INIT c3a8 88 .cfa: $rsp .ra: .cfa 8 - ^
STACK CFI c3a8 .cfa: $rsp 48 +
STACK CFI INIT c484 31 .cfa: $rsp .ra: .cfa 8 - ^
STACK CFI c484 .cfa: $rsp 48 +
STACK CFI INIT c4c4 7e .cfa: $rsp .ra: .cfa 8 - ^
STACK CFI c4c4 .cfa: $rsp 48 +
STACK CFI INIT c564 36 .cfa: $rsp .ra: .cfa 8 - ^
STACK CFI c564 .cfa: $rsp 48 +
STACK CFI INIT c620 36 .cfa: $rsp .ra: .cfa 8 - ^
STACK CFI c620 .cfa: $rsp 64 +
STACK CFI INIT c664 36 .cfa: $rsp .ra: .cfa 8 - ^
STACK CFI c664 .cfa: $rsp 64 +
STACK CFI INIT c6a8 49 .cfa: $rsp .ra: .cfa 8 - ^
STACK CFI c6a8 .cfa: $rsp 64 +
STACK CFI INIT c704 29 .cfa: $rsp .ra: .cfa 8 - ^
STACK CFI c704 .cfa: $rsp 48 +
STACK CFI INIT c738 29 .cfa: $rsp .ra: .cfa 8 - ^
STACK CFI c738 .cfa: $rsp 48 +
STACK CFI INIT c76c 29 .cfa: $rsp .ra: .cfa 8 - ^
STACK CFI c76c .cfa: $rsp 48 +
STACK CFI INIT c7a0 29 .cfa: $rsp .ra: .cfa 8 - ^
STACK CFI c7a0 .cfa: $rsp 48 +
STACK CFI INIT c7d4 29 .cfa: $rsp .ra: .cfa 8 - ^
STACK CFI c7d4 .cfa: $rsp 48 +
STACK CFI INIT c808 44 .cfa: $rsp .ra: .cfa 8 - ^
STACK CFI c808 .cfa: $rsp 48 +
STACK CFI INIT c860 7d .cfa: $rsp .ra: .cfa 8 - ^
STACK CFI c860 .cfa: $rsp 48 +
STACK CFI INIT c8fc 95 .cfa: $rsp .ra: .cfa 8 - ^
STACK CFI c8fc .cfa: $rsp 48 +
STACK CFI INIT c9b8 8a .cfa: $rsp .ra: .cfa 8 - ^
STACK CFI c9b8 .cfa: $rsp 48 +
STACK CFI INIT ca64 6b .cfa: $rsp .ra: .cfa 8 - ^
STACK CFI ca64 .cfa: $rsp 48 +
STACK CFI INIT caec 67 .cfa: $rsp .ra: .cfa 8 - ^
STACK CFI caec .cfa: $rsp 48 +
STACK CFI INIT cba4 42 .cfa: $rsp .ra: .cfa 8 - ^
STACK CFI cba4 .cfa: $rsp 48 +
STACK CFI INIT cc20 63 .cfa: $rsp .ra: .cfa 8 - ^
STACK CFI cc20 .cfa: $rsp 48 +
STACK CFI INIT cc9c db3 .cfa: $rsp .ra: .cfa 8 - ^
STACK CFI cc9c .cfa: $rsp 352 +
STACK CFI INIT de7c a6 .cfa: $rsp .ra: .cfa 8 - ^
STACK CFI de7c .cfa: $rsp 48 +
STACK CFI INIT dfc0 12b .cfa: $rsp .ra: .cfa 8 - ^
STACK CFI dfc0 .cfa: $rsp 96 +
STACK CFI INIT e138 f3 .cfa: $rsp .ra: .cfa 8 - ^
STACK CFI e138 .cfa: $rsp 64 +
STACK CFI INIT e268 253 .cfa: $rsp .ra: .cfa 8 - ^
STACK CFI e268 .cfa: $rsp 160 +
STACK CFI INIT e550 c8 .cfa: $rsp .ra: .cfa 8 - ^
STACK CFI e550 .cfa: $rsp 80 +
STACK CFI INIT e64c 468 .cfa: $rsp .ra: .cfa 8 - ^
STACK CFI e64c .cfa: $rsp 112 +
STACK CFI INIT ebd0 11d .cfa: $rsp .ra: .cfa 8 - ^
STACK CFI ebd0 .cfa: $rsp 64 +
STACK CFI INIT ed34 19 .cfa: $rsp .ra: .cfa 8 - ^
STACK CFI ed34 .cfa: $rsp 48 +
STACK CFI INIT ed54 13e .cfa: $rsp .ra: .cfa 8 - ^
STACK CFI ed54 .cfa: $rsp 64 +
STACK CFI INIT eee4 7b8 .cfa: $rsp .ra: .cfa 8 - ^
STACK CFI eee4 .cfa: $rsp 288 +
STACK CFI INIT f88c 3e .cfa: $rsp .ra: .cfa 8 - ^
STACK CFI f88c .cfa: $rsp 96 +
STACK CFI INIT f8dc e6 .cfa: $rsp .ra: .cfa 8 - ^
STACK CFI f8dc .cfa: $rsp 112 +
STACK CFI INIT f9fc 2a8 .cfa: $rsp .ra: .cfa 8 - ^
STACK CFI f9fc .cfa: $rsp 144 +
STACK CFI INIT fd50 179 .cfa: $rsp .ra: .cfa 8 - ^
STACK CFI fd50 .cfa: $rsp 112 +
STACK CFI INIT ff88 19 .cfa: $rsp .ra: .cfa 8 - ^
STACK CFI ff88 .cfa: $rsp 48 +
STACK CFI INIT ffa8 160 .cfa: $rsp .ra: .cfa 8 - ^
STACK CFI ffa8 .cfa: $rsp 112 +
STACK CFI INIT 10160 17 .cfa: $rsp .ra: .cfa 8 - ^
STACK CFI 10160 .cfa: $rsp 48 +
STACK CFI INIT 1017c fc .cfa: $rsp .ra: .cfa 8 - ^
STACK CFI 1017c .cfa: $rsp 96 +
STACK CFI INIT 102b8 214 .cfa: $rsp .ra: .cfa 8 - ^
STACK CFI 102b8 .cfa: $rsp 112 +
STACK CFI INIT 10554 c6 .cfa: $rsp .ra: .cfa 8 - ^
STACK CFI 10554 .cfa: $rsp 144 +
STACK CFI INIT 1064c 556 .cfa: $rsp .ra: .cfa 8 - ^
STACK CFI 1064c .cfa: $rsp 208 +
STACK CFI INIT 10cf8 19 .cfa: $rsp .ra: .cfa 8 - ^
STACK CFI 10cf8 .cfa: $rsp 48 +
STACK CFI INIT 10d4c 29 .cfa: $rsp .ra: .cfa 8 - ^
STACK CFI 10d4c .cfa: $rsp 48 +
STACK CFI INIT 10d80 35 .cfa: $rsp .ra: .cfa 8 - ^
STACK CFI 10d80 .cfa: $rsp 48 +
STACK CFI INIT 10de0 71 .cfa: $rsp .ra: .cfa 8 - ^
STACK CFI 10de0 .cfa: $rsp 96 +
STACK CFI INIT 10e70 a9 .cfa: $rsp .ra: .cfa 8 - ^
STACK CFI 10e70 .cfa: $rsp 48 +
STACK CFI INIT 10f44 45 .cfa: $rsp .ra: .cfa 8 - ^
STACK CFI 10f44 .cfa: $rsp 48 +
STACK CFI INIT 1102c 76d .cfa: $rsp .ra: .cfa 8 - ^
STACK CFI 1102c .cfa: $rsp 160 +
STACK CFI INIT 11974 1e .cfa: $rsp .ra: .cfa 8 - ^
STACK CFI 11974 .cfa: $rsp 48 +
STACK CFI INIT 1199c 1e .cfa: $rsp .ra: .cfa 8 - ^
STACK CFI 1199c .cfa: $rsp 48 +
STACK CFI INIT 119c4 24d .cfa: $rsp .ra: .cfa 8 - ^
STACK CFI 119c4 .cfa: $rsp 96 +
STACK CFI INIT 11ca4 162 .cfa: $rsp .ra: .cfa 8 - ^
STACK CFI 11ca4 .cfa: $rsp 96 +
STACK CFI INIT 11e60 136 .cfa: $rsp .ra: .cfa 8 - ^
STACK CFI 11e60 .cfa: $rsp 96 +
STACK CFI INIT 11fe4 17 .cfa: $rsp .ra: .cfa 8 - ^
STACK CFI 11fe4 .cfa: $rsp 48 +
STACK CFI INIT 12000 13d .cfa: $rsp .ra: .cfa 8 - ^
STACK CFI 12000 .cfa: $rsp 64 +
STACK CFI INIT 1218c 34 .cfa: $rsp .ra: .cfa 8 - ^
STACK CFI 1218c .cfa: $rsp 48 +
STACK CFI INIT 121d0 478 .cfa: $rsp .ra: .cfa 8 - ^
STACK CFI 121d0 .cfa: $rsp 544 +
STACK CFI INIT 12768 103 .cfa: $rsp .ra: .cfa 8 - ^
STACK CFI 12768 .cfa: $rsp 96 +
STACK CFI INIT 128ac 94 .cfa: $rsp .ra: .cfa 8 - ^
STACK CFI 128ac .cfa: $rsp 80 +
STACK CFI INIT 12968 3e .cfa: $rsp .ra: .cfa 8 - ^
STACK CFI 12968 .cfa: $rsp 96 +
STACK CFI INIT 129d8 94 .cfa: $rsp .ra: .cfa 8 - ^
STACK CFI 129d8 .cfa: $rsp 48 +
STACK CFI INIT 12b04 2d .cfa: $rsp .ra: .cfa 8 - ^
STACK CFI 12b04 .cfa: $rsp 48 +
STACK CFI INIT 12b3c 4b .cfa: $rsp .ra: .cfa 8 - ^
STACK CFI 12b3c .cfa: $rsp 48 +
STACK CFI INIT 12be0 d0 .cfa: $rsp .ra: .cfa 8 - ^
STACK CFI 12be0 .cfa: $rsp 80 +
STACK CFI INIT 12d1c 4c .cfa: $rsp .ra: .cfa 8 - ^
STACK CFI 12d1c .cfa: $rsp 48 +
STACK CFI INIT 12d7c 31a .cfa: $rsp .ra: .cfa 8 - ^
STACK CFI 12d7c .cfa: $rsp 288 +
STACK CFI INIT 1315c 3a0 .cfa: $rsp .ra: .cfa 8 - ^
STACK CFI 1315c .cfa: $rsp 256 +
STACK CFI INIT 135e4 1fa .cfa: $rsp .ra: .cfa 8 - ^
STACK CFI 135e4 .cfa: $rsp 432 +
STACK CFI INIT 1385c 42 .cfa: $rsp .ra: .cfa 8 - ^
STACK CFI 1385c .cfa: $rsp 96 +
STACK CFI INIT 138dc 35e .cfa: $rsp .ra: .cfa 8 - ^
STACK CFI 138dc .cfa: $rsp 48 +
STACK CFI INIT 13d14 109 .cfa: $rsp .ra: .cfa 8 - ^
STACK CFI 13d14 .cfa: $rsp 80 +
STACK CFI INIT 13e60 58 .cfa: $rsp .ra: .cfa 8 - ^
STACK CFI 13e60 .cfa: $rsp 48 +
STACK CFI INIT 13ed0 17 .cfa: $rsp .ra: .cfa 8 - ^
STACK CFI 13ed0 .cfa: $rsp 48 +
STACK CFI INIT 13eec 5f .cfa: $rsp .ra: .cfa 8 - ^
STACK CFI 13eec .cfa: $rsp 64 +
STACK CFI INIT 13f64 1fd .cfa: $rsp .ra: .cfa 8 - ^
STACK CFI 13f64 .cfa: $rsp 144 +
STACK CFI INIT 141e0 2d9 .cfa: $rsp .ra: .cfa 8 - ^
STACK CFI 141e0 .cfa: $rsp 176 +
STACK CFI INIT 14650 28 .cfa: $rsp .ra: .cfa 8 - ^
STACK CFI 14650 .cfa: $rsp 48 +
STACK CFI INIT 14684 53 .cfa: $rsp .ra: .cfa 8 - ^
STACK CFI 14684 .cfa: $rsp 48 +
STACK CFI INIT 14718 f5 .cfa: $rsp .ra: .cfa 8 - ^
STACK CFI 14718 .cfa: $rsp 96 +
STACK CFI INIT 14908 27 .cfa: $rsp .ra: .cfa 8 - ^
STACK CFI 14908 .cfa: $rsp 80 +
STACK CFI INIT 14938 132 .cfa: $rsp .ra: .cfa 8 - ^
STACK CFI 14938 .cfa: $rsp 224 +
STACK CFI INIT 14ab8 62 .cfa: $rsp .ra: .cfa 8 - ^
STACK CFI 14ab8 .cfa: $rsp 64 +
STACK CFI INIT 14b34 52 .cfa: $rsp .ra: .cfa 8 - ^
STACK CFI 14b34 .cfa: $rsp 96 +
STACK CFI INIT 14b9c 106 .cfa: $rsp .ra: .cfa 8 - ^
STACK CFI 14b9c .cfa: $rsp 224 +
STACK CFI INIT 14cf8 1a .cfa: $rsp .ra: .cfa 8 - ^
STACK CFI 14cf8 .cfa: $rsp 48 +
STACK CFI INIT 14d18 1b .cfa: $rsp .ra: .cfa 8 - ^
STACK CFI 14d18 .cfa: $rsp 48 +
STACK CFI INIT 14d70 1b .cfa: $rsp .ra: .cfa 8 - ^
STACK CFI 14d70 .cfa: $rsp 48 +
STACK CFI INIT 14d94 34 .cfa: $rsp .ra: .cfa 8 - ^
STACK CFI 14d94 .cfa: $rsp 48 +
STACK CFI INIT 14dd8 1f .cfa: $rsp .ra: .cfa 8 - ^
STACK CFI 14dd8 .cfa: $rsp 48 +
STACK CFI INIT 14e00 4d .cfa: $rsp .ra: .cfa 8 - ^
STACK CFI 14e00 .cfa: $rsp 48 +
STACK CFI INIT 14e60 19 .cfa: $rsp .ra: .cfa 8 - ^
STACK CFI 14e60 .cfa: $rsp 48 +
STACK CFI INIT 14e80 cb .cfa: $rsp .ra: .cfa 8 - ^
STACK CFI 14e80 .cfa: $rsp 48 +
STACK CFI INIT 14f80 4d .cfa: $rsp .ra: .cfa 8 - ^
STACK CFI 14f80 .cfa: $rsp 48 +
STACK CFI INIT 14fe0 51 .cfa: $rsp .ra: .cfa 8 - ^
STACK CFI 14fe0 .cfa: $rsp 48 +
STACK CFI INIT 15048 22 .cfa: $rsp .ra: .cfa 8 - ^
STACK CFI 15048 .cfa: $rsp 48 +
STACK CFI INIT 15074 46 .cfa: $rsp .ra: .cfa 8 - ^
STACK CFI 15074 .cfa: $rsp 48 +
STACK CFI INIT 150ec 37 .cfa: $rsp .ra: .cfa 8 - ^
STACK CFI 150ec .cfa: $rsp 48 +
STACK CFI INIT 15294 119 .cfa: $rsp .ra: .cfa 8 - ^
STACK CFI 15294 .cfa: $rsp 64 +
STACK CFI INIT 153f4 1d6 .cfa: $rsp .ra: .cfa 8 - ^
STACK CFI 153f4 .cfa: $rsp 80 +
STACK CFI INIT 15640 fe .cfa: $rsp .ra: .cfa 8 - ^
STACK CFI 15640 .cfa: $rsp 48 +
STACK CFI INIT 15780 137 .cfa: $rsp .ra: .cfa 8 - ^
STACK CFI 15780 .cfa: $rsp 64 +
STACK CFI INIT 15904 73 .cfa: $rsp .ra: .cfa 8 - ^
STACK CFI 15904 .cfa: $rsp 48 +
STACK CFI INIT 15994 45 .cfa: $rsp .ra: .cfa 8 - ^
STACK CFI 15994 .cfa: $rsp 48 +
STACK CFI INIT 159ec 46 .cfa: $rsp .ra: .cfa 8 - ^
STACK CFI 159ec .cfa: $rsp 48 +
STACK CFI INIT 15a44 46 .cfa: $rsp .ra: .cfa 8 - ^
STACK CFI 15a44 .cfa: $rsp 48 +
STACK CFI INIT 15a9c 51 .cfa: $rsp .ra: .cfa 8 - ^
STACK CFI 15a9c .cfa: $rsp 48 +
STACK CFI INIT 15b04 61 .cfa: $rsp .ra: .cfa 8 - ^
STACK CFI 15b04 .cfa: $rsp 48 +
STACK CFI INIT 15b80 2f .cfa: $rsp .ra: .cfa 8 - ^
STACK CFI 15b80 .cfa: $rsp 8 +
STACK CFI INIT 15bbc 3e .cfa: $rsp .ra: .cfa 8 - ^
STACK CFI 15bbc .cfa: $rsp 48 +
STACK CFI INIT 15c9c 2e .cfa: $rsp .ra: .cfa 8 - ^
STACK CFI 15c9c .cfa: $rsp 48 +
STACK CFI INIT 15d54 95 .cfa: $rsp .ra: .cfa 8 - ^
STACK CFI 15d54 .cfa: $rsp 80 +
STACK CFI INIT 15e10 95 .cfa: $rsp .ra: .cfa 8 - ^
STACK CFI 15e10 .cfa: $rsp 80 +
STACK CFI INIT 15ecc 51 .cfa: $rsp .ra: .cfa 8 - ^
STACK CFI 15ecc .cfa: $rsp 128 +
STACK CFI INIT 15f34 51 .cfa: $rsp .ra: .cfa 8 - ^
STACK CFI 15f34 .cfa: $rsp 128 +
STACK CFI INIT 160d4 56 .cfa: $rsp .ra: .cfa 8 - ^
STACK CFI 160d4 .cfa: $rsp 48 +
STACK CFI INIT 162c4 2a .cfa: $rsp .ra: .cfa 8 - ^
STACK CFI 162c4 .cfa: $rsp 48 +
STACK CFI INIT 16304 64 .cfa: $rsp .ra: .cfa 8 - ^
STACK CFI 16304 .cfa: $rsp 48 +
STACK CFI INIT 16384 35 .cfa: $rsp .ra: .cfa 8 - ^
STACK CFI 16384 .cfa: $rsp 48 +
STACK CFI INIT 163c8 c9 .cfa: $rsp .ra: .cfa 8 - ^
STACK CFI 163c8 .cfa: $rsp 80 +
STACK CFI INIT 164f4 159 .cfa: $rsp .ra: .cfa 8 - ^
STACK CFI 164f4 .cfa: $rsp 128 +
STACK CFI INIT 166a4 d3 .cfa: $rsp .ra: .cfa 8 - ^
STACK CFI 166a4 .cfa: $rsp 128 +
STACK CFI INIT 167f8 121 .cfa: $rsp .ra: .cfa 8 - ^
STACK CFI 167f8 .cfa: $rsp 1472 +
STACK CFI INIT 16964 170 .cfa: $rsp .ra: .cfa 8 - ^
STACK CFI 16964 .cfa: $rsp 1472 +
STACK CFI INIT 16b74 175 .cfa: $rsp .ra: .cfa 8 - ^
STACK CFI 16b74 .cfa: $rsp 64 +
STACK CFI INIT 16d48 3a .cfa: $rsp .ra: .cfa 8 - ^
STACK CFI 16d48 .cfa: $rsp 48 +
STACK CFI INIT 16d90 53 .cfa: $rsp .ra: .cfa 8 - ^
STACK CFI 16d90 .cfa: $rsp 48 +
STACK CFI INIT 16df8 12 .cfa: $rsp .ra: .cfa 8 - ^
STACK CFI 16df8 .cfa: $rsp 48 +
STACK CFI INIT 16e10 12 .cfa: $rsp .ra: .cfa 8 - ^
STACK CFI 16e10 .cfa: $rsp 48 +
STACK CFI INIT 16e28 18 .cfa: $rsp .ra: .cfa 8 - ^
STACK CFI 16e28 .cfa: $rsp 48 +
STACK CFI INIT 16e48 18 .cfa: $rsp .ra: .cfa 8 - ^
STACK CFI 16e48 .cfa: $rsp 48 +
STACK CFI INIT 16e78 7d .cfa: $rsp .ra: .cfa 8 - ^
STACK CFI 16e78 .cfa: $rsp 80 +
STACK CFI INIT 16f14 a1 .cfa: $rsp .ra: .cfa 8 - ^
STACK CFI 16f14 .cfa: $rsp 112 +
STACK CFI INIT 16ff0 13 .cfa: $rsp .ra: .cfa 8 - ^
STACK CFI 16ff0 .cfa: $rsp 24 +
STACK CFI INIT 17010 435 .cfa: $rsp .ra: .cfa 8 - ^
STACK CFI 17010 .cfa: $rsp 8 +
STACK CFI INIT 17560 27 .cfa: $rsp .ra: .cfa 8 - ^
STACK CFI 17560 .cfa: $rsp 48 +
STACK CFI INIT 17590 29 .cfa: $rsp .ra: .cfa 8 - ^
STACK CFI 17590 .cfa: $rsp 48 +
STACK CFI INIT 175d4 3b .cfa: $rsp .ra: .cfa 8 - ^
STACK CFI 175d4 .cfa: $rsp 48 +
STACK CFI INIT 17638 66 .cfa: $rsp .ra: .cfa 8 - ^
STACK CFI 17638 .cfa: $rsp 48 +
STACK CFI INIT 176b8 ed .cfa: $rsp .ra: .cfa 8 - ^
STACK CFI 176b8 .cfa: $rsp 80 +
STACK CFI INIT 177e4 1fd .cfa: $rsp .ra: .cfa 8 - ^
STACK CFI 177e4 .cfa: $rsp 80 +
STACK CFI INIT 17a60 201 .cfa: $rsp .ra: .cfa 8 - ^
STACK CFI 17a60 .cfa: $rsp 80 +
STACK CFI INIT 17ce4 c0 .cfa: $rsp .ra: .cfa 8 - ^
STACK CFI 17ce4 .cfa: $rsp 48 +
STACK CFI INIT 17dd4 c1 .cfa: $rsp .ra: .cfa 8 - ^
STACK CFI 17dd4 .cfa: $rsp 48 +
STACK CFI INIT 17ec8 cd .cfa: $rsp .ra: .cfa 8 - ^
STACK CFI 17ec8 .cfa: $rsp 144 +
STACK CFI INIT 17fc8 cd .cfa: $rsp .ra: .cfa 8 - ^
STACK CFI 17fc8 .cfa: $rsp 144 +
STACK CFI INIT 180c8 461 .cfa: $rsp .ra: .cfa 8 - ^
STACK CFI 180c8 .cfa: $rsp 288 +
STACK CFI INIT 18644 400 .cfa: $rsp .ra: .cfa 8 - ^
STACK CFI 18644 .cfa: $rsp 384 +
STACK CFI INIT 18b44 22e .cfa: $rsp .ra: .cfa 8 - ^
STACK CFI 18b44 .cfa: $rsp 224 +
STACK CFI INIT 18e00 237 .cfa: $rsp .ra: .cfa 8 - ^
STACK CFI 18e00 .cfa: $rsp 352 +
STACK CFI INIT 190c4 141 .cfa: $rsp .ra: .cfa 8 - ^
STACK CFI 190c4 .cfa: $rsp 48 +
STACK CFI INIT 19258 146 .cfa: $rsp .ra: .cfa 8 - ^
STACK CFI 19258 .cfa: $rsp 48 +
STACK CFI INIT 193f0 246 .cfa: $rsp .ra: .cfa 8 - ^
STACK CFI 193f0 .cfa: $rsp 96 +
STACK CFI INIT 196c8 29f .cfa: $rsp .ra: .cfa 8 - ^
STACK CFI 196c8 .cfa: $rsp 160 +
STACK CFI INIT 19a2c 6b .cfa: $rsp .ra: .cfa 8 - ^
STACK CFI 19a2c .cfa: $rsp 48 +
STACK CFI INIT 19c50 3f .cfa: $rsp .ra: .cfa 8 - ^
STACK CFI 19c50 .cfa: $rsp 48 +
STACK CFI INIT 19cc8 35 .cfa: $rsp .ra: .cfa 8 - ^
STACK CFI 19cc8 .cfa: $rsp 48 +
STACK CFI INIT 19db0 1b .cfa: $rsp .ra: .cfa 8 - ^
STACK CFI 19db0 .cfa: $rsp 48 +
STACK CFI INIT 19e38 3c .cfa: $rsp .ra: .cfa 8 - ^
STACK CFI 19e38 .cfa: $rsp 48 +
STACK CFI INIT 19e8c 1d .cfa: $rsp .ra: .cfa 8 - ^
STACK CFI 19e8c .cfa: $rsp 48 +
STACK CFI INIT 19eb8 4d .cfa: $rsp .ra: .cfa 8 - ^
STACK CFI 19eb8 .cfa: $rsp 48 +
STACK CFI INIT 19f5c 42 .cfa: $rsp .ra: .cfa 8 - ^
STACK CFI 19f5c .cfa: $rsp 48 +
STACK CFI INIT 19fb0 42 .cfa: $rsp .ra: .cfa 8 - ^
STACK CFI 19fb0 .cfa: $rsp 48 +
STACK CFI INIT 1a024 1ea .cfa: $rsp .ra: .cfa 8 - ^
STACK CFI 1a024 .cfa: $rsp 176 +
STACK CFI INIT 1a288 240 .cfa: $rsp .ra: .cfa 8 - ^
STACK CFI 1a288 .cfa: $rsp 224 +
STACK CFI INIT 1a6f0 87 .cfa: $rsp .ra: .cfa 8 - ^
STACK CFI 1a6f0 .cfa: $rsp 48 +
STACK CFI INIT 1a798 193 .cfa: $rsp .ra: .cfa 8 - ^
STACK CFI 1a798 .cfa: $rsp 112 +
STACK CFI INIT 1a990 2d9 .cfa: $rsp .ra: .cfa 8 - ^
STACK CFI 1a990 .cfa: $rsp 288 +
STACK CFI INIT 1ad20 96 .cfa: $rsp .ra: .cfa 8 - ^
STACK CFI 1ad20 .cfa: $rsp 48 +
STACK CFI INIT 1addc 37 .cfa: $rsp .ra: .cfa 8 - ^
STACK CFI 1addc .cfa: $rsp 48 +
STACK CFI INIT 1ae6c d6 .cfa: $rsp .ra: .cfa 8 - ^
STACK CFI 1ae6c .cfa: $rsp 80 +
STACK CFI INIT 1af78 91 .cfa: $rsp .ra: .cfa 8 - ^
STACK CFI 1af78 .cfa: $rsp 48 +
STACK CFI INIT 1b100 2e .cfa: $rsp .ra: .cfa 8 - ^
STACK CFI 1b100 .cfa: $rsp 48 +
STACK CFI INIT 1b1e4 28 .cfa: $rsp .ra: .cfa 8 - ^
STACK CFI 1b1e4 .cfa: $rsp 48 +
STACK CFI INIT 1b234 4e .cfa: $rsp .ra: .cfa 8 - ^
STACK CFI 1b234 .cfa: $rsp 48 +
STACK CFI INIT 1b2d0 a1 .cfa: $rsp .ra: .cfa 8 - ^
STACK CFI 1b2d0 .cfa: $rsp 96 +
STACK CFI INIT 1b39c 86 .cfa: $rsp .ra: .cfa 8 - ^
STACK CFI 1b39c .cfa: $rsp 48 +
STACK CFI INIT 1b498 39 .cfa: $rsp .ra: .cfa 8 - ^
STACK CFI 1b498 .cfa: $rsp 48 +
STACK CFI INIT 1b530 40 .cfa: $rsp .ra: .cfa 8 - ^
STACK CFI 1b530 .cfa: $rsp 48 +
STACK CFI INIT 1b580 47 .cfa: $rsp .ra: .cfa 8 - ^
STACK CFI 1b580 .cfa: $rsp 48 +
STACK CFI INIT 1b604 1b .cfa: $rsp .ra: .cfa 8 - ^
STACK CFI 1b604 .cfa: $rsp 48 +
STACK CFI INIT 1b650 1b .cfa: $rsp .ra: .cfa 8 - ^
STACK CFI 1b650 .cfa: $rsp 48 +
STACK CFI INIT 1b674 8d .cfa: $rsp .ra: .cfa 8 - ^
STACK CFI 1b674 .cfa: $rsp 48 +
STACK CFI INIT 1b724 25 .cfa: $rsp .ra: .cfa 8 - ^
STACK CFI 1b724 .cfa: $rsp 48 +
STACK CFI INIT 1b754 bf .cfa: $rsp .ra: .cfa 8 - ^
STACK CFI 1b754 .cfa: $rsp 112 +
STACK CFI INIT 1b890 6d .cfa: $rsp .ra: .cfa 8 - ^
STACK CFI 1b890 .cfa: $rsp 80 +
STACK CFI INIT 1b924 15b .cfa: $rsp .ra: .cfa 8 - ^
STACK CFI 1b924 .cfa: $rsp 1552 +
STACK CFI INIT 1bb00 1a .cfa: $rsp .ra: .cfa 8 - ^
STACK CFI 1bb00 .cfa: $rsp 48 +
STACK CFI INIT 1bb20 ae .cfa: $rsp .ra: .cfa 8 - ^
STACK CFI 1bb20 .cfa: $rsp 64 +
STACK CFI INIT 1bbfc 1e .cfa: $rsp .ra: .cfa 8 - ^
STACK CFI 1bbfc .cfa: $rsp 64 +
STACK CFI INIT 1bc24 2f .cfa: $rsp .ra: .cfa 8 - ^
STACK CFI 1bc24 .cfa: $rsp 64 +
STACK CFI INIT 1bc60 47 .cfa: $rsp .ra: .cfa 8 - ^
STACK CFI 1bc60 .cfa: $rsp 48 +
STACK CFI INIT 1bcfc 25 .cfa: $rsp .ra: .cfa 8 - ^
STACK CFI 1bcfc .cfa: $rsp 48 +
STACK CFI INIT 1bd2c 64 .cfa: $rsp .ra: .cfa 8 - ^
STACK CFI 1bd2c .cfa: $rsp 48 +
STACK CFI INIT 1bdac 3d .cfa: $rsp .ra: .cfa 8 - ^
STACK CFI 1bdac .cfa: $rsp 48 +
STACK CFI INIT 1be4c 182 .cfa: $rsp .ra: .cfa 8 - ^
STACK CFI 1be4c .cfa: $rsp 48 +
STACK CFI INIT 1c03c 38 .cfa: $rsp .ra: .cfa 8 - ^
STACK CFI 1c03c .cfa: $rsp 48 +
STACK CFI INIT 1c084 26 .cfa: $rsp .ra: .cfa 8 - ^
STACK CFI 1c084 .cfa: $rsp 48 +
STACK CFI INIT 1c138 21 .cfa: $rsp .ra: .cfa 8 - ^
STACK CFI 1c138 .cfa: $rsp 48 +
STACK CFI INIT 1c16c c1 .cfa: $rsp .ra: .cfa 8 - ^
STACK CFI 1c16c .cfa: $rsp 48 +
STACK CFI INIT 1c284 21 .cfa: $rsp .ra: .cfa 8 - ^
STACK CFI 1c284 .cfa: $rsp 48 +
STACK CFI INIT 1c2b0 14 .cfa: $rsp .ra: .cfa 8 - ^
STACK CFI 1c2b0 .cfa: $rsp 48 +
STACK CFI INIT 1c2cc bc .cfa: $rsp .ra: .cfa 8 - ^
STACK CFI 1c2cc .cfa: $rsp 96 +
STACK CFI INIT 1c3b8 4a .cfa: $rsp .ra: .cfa 8 - ^
STACK CFI 1c3b8 .cfa: $rsp 48 +
STACK CFI INIT 1c420 52 .cfa: $rsp .ra: .cfa 8 - ^
STACK CFI 1c420 .cfa: $rsp 48 +
STACK CFI INIT 1c488 30 .cfa: $rsp .ra: .cfa 8 - ^
STACK CFI 1c488 .cfa: $rsp 48 +
STACK CFI INIT 1c4c4 5b .cfa: $rsp .ra: .cfa 8 - ^
STACK CFI 1c4c4 .cfa: $rsp 48 +
STACK CFI INIT 1c590 3c .cfa: $rsp .ra: .cfa 8 - ^
STACK CFI 1c590 .cfa: $rsp 48 +
STACK CFI INIT 1c61c 175 .cfa: $rsp .ra: .cfa 8 - ^
STACK CFI 1c61c .cfa: $rsp 96 +
STACK CFI INIT 1c7f0 171 .cfa: $rsp .ra: .cfa 8 - ^
STACK CFI 1c7f0 .cfa: $rsp 96 +
STACK CFI INIT 1c9e0 1c3 .cfa: $rsp .ra: .cfa 8 - ^
STACK CFI 1c9e0 .cfa: $rsp 64 +
STACK CFI INIT 1cc14 1a2 .cfa: $rsp .ra: .cfa 8 - ^
STACK CFI 1cc14 .cfa: $rsp 16 +
STACK CFI INIT 1ce68 1b .cfa: $rsp .ra: .cfa 8 - ^
STACK CFI 1ce68 .cfa: $rsp 48 +
STACK CFI INIT 1ce8c 1b .cfa: $rsp .ra: .cfa 8 - ^
STACK CFI 1ce8c .cfa: $rsp 48 +
STACK CFI INIT 1ceb0 1b .cfa: $rsp .ra: .cfa 8 - ^
STACK CFI 1ceb0 .cfa: $rsp 48 +
STACK CFI INIT 1cfb8 1b .cfa: $rsp .ra: .cfa 8 - ^
STACK CFI 1cfb8 .cfa: $rsp 48 +
STACK CFI INIT 1cfdc 1b .cfa: $rsp .ra: .cfa 8 - ^
STACK CFI 1cfdc .cfa: $rsp 48 +
STACK CFI INIT 1d000 1b .cfa: $rsp .ra: .cfa 8 - ^
STACK CFI 1d000 .cfa: $rsp 48 +
STACK CFI INIT 1d024 16 .cfa: $rsp .ra: .cfa 8 - ^
STACK CFI 1d024 .cfa: $rsp 48 +
STACK CFI INIT 1d044 5d .cfa: $rsp .ra: .cfa 8 - ^
STACK CFI 1d044 .cfa: $rsp 48 +
STACK CFI INIT 1d0b8 186 .cfa: $rsp .ra: .cfa 8 - ^
STACK CFI 1d0b8 .cfa: $rsp 96 +
STACK CFI INIT 1d2a0 182 .cfa: $rsp .ra: .cfa 8 - ^
STACK CFI 1d2a0 .cfa: $rsp 96 +
STACK CFI INIT 1d4a8 4e .cfa: $rsp .ra: .cfa 8 - ^
STACK CFI 1d4a8 .cfa: $rsp 48 +
STACK CFI INIT 1d50c 4e .cfa: $rsp .ra: .cfa 8 - ^
STACK CFI 1d50c .cfa: $rsp 48 +
STACK CFI INIT 1d570 3b .cfa: $rsp .ra: .cfa 8 - ^
STACK CFI 1d570 .cfa: $rsp 48 +
STACK CFI INIT 1d5bc 3b .cfa: $rsp .ra: .cfa 8 - ^
STACK CFI 1d5bc .cfa: $rsp 48 +
STACK CFI INIT 1d608 6c .cfa: $rsp .ra: .cfa 8 - ^
STACK CFI 1d608 .cfa: $rsp 48 +
STACK CFI INIT 1d690 67 .cfa: $rsp .ra: .cfa 8 - ^
STACK CFI 1d690 .cfa: $rsp 48 +
STACK CFI INIT 1d79c 106 .cfa: $rsp .ra: .cfa 8 - ^
STACK CFI 1d79c .cfa: $rsp 80 +
STACK CFI INIT 1d8e4 113 .cfa: $rsp .ra: .cfa 8 - ^
STACK CFI 1d8e4 .cfa: $rsp 80 +
STACK CFI INIT 1da3c 41 .cfa: $rsp .ra: .cfa 8 - ^
STACK CFI 1da3c .cfa: $rsp 48 +
STACK CFI INIT 1da90 41 .cfa: $rsp .ra: .cfa 8 - ^
STACK CFI 1da90 .cfa: $rsp 48 +
STACK CFI INIT 1daf4 d1 .cfa: $rsp .ra: .cfa 8 - ^
STACK CFI 1daf4 .cfa: $rsp 80 +
STACK CFI INIT 1dbfc b1 .cfa: $rsp .ra: .cfa 8 - ^
STACK CFI 1dbfc .cfa: $rsp 64 +
STACK CFI INIT 1dd4c 43 .cfa: $rsp .ra: .cfa 8 - ^
STACK CFI 1dd4c .cfa: $rsp 48 +
STACK CFI INIT 1dda0 43 .cfa: $rsp .ra: .cfa 8 - ^
STACK CFI 1dda0 .cfa: $rsp 48 +
STACK CFI INIT 1ddf4 1a .cfa: $rsp .ra: .cfa 8 - ^
STACK CFI 1ddf4 .cfa: $rsp 48 +
STACK CFI INIT 1de14 1a .cfa: $rsp .ra: .cfa 8 - ^
STACK CFI 1de14 .cfa: $rsp 48 +
STACK CFI INIT 1de3c 1b .cfa: $rsp .ra: .cfa 8 - ^
STACK CFI 1de3c .cfa: $rsp 48 +
STACK CFI INIT 1de84 24 .cfa: $rsp .ra: .cfa 8 - ^
STACK CFI 1de84 .cfa: $rsp 64 +
STACK CFI INIT 1deb4 2e .cfa: $rsp .ra: .cfa 8 - ^
STACK CFI 1deb4 .cfa: $rsp 80 +
STACK CFI INIT 1def0 23 .cfa: $rsp .ra: .cfa 8 - ^
STACK CFI 1def0 .cfa: $rsp 64 +
STACK CFI INIT 1df1c 2e .cfa: $rsp .ra: .cfa 8 - ^
STACK CFI 1df1c .cfa: $rsp 80 +
STACK CFI INIT 1dfbc 27 .cfa: $rsp .ra: .cfa 8 - ^
STACK CFI 1dfbc .cfa: $rsp 8 +
STACK CFI INIT 1dfec 27 .cfa: $rsp .ra: .cfa 8 - ^
STACK CFI 1dfec .cfa: $rsp 8 +
STACK CFI INIT 1e04c 1b .cfa: $rsp .ra: .cfa 8 - ^
STACK CFI 1e04c .cfa: $rsp 48 +
STACK CFI INIT 1e078 3b .cfa: $rsp .ra: .cfa 8 - ^
STACK CFI 1e078 .cfa: $rsp 48 +
STACK CFI INIT 1e0c4 3b .cfa: $rsp .ra: .cfa 8 - ^
STACK CFI 1e0c4 .cfa: $rsp 48 +
STACK CFI INIT 1e110 38 .cfa: $rsp .ra: .cfa 8 - ^
STACK CFI 1e110 .cfa: $rsp 48 +
STACK CFI INIT 1e170 4e .cfa: $rsp .ra: .cfa 8 - ^
STACK CFI 1e170 .cfa: $rsp 48 +
STACK CFI INIT 1e1d4 4e .cfa: $rsp .ra: .cfa 8 - ^
STACK CFI 1e1d4 .cfa: $rsp 48 +
STACK CFI INIT 1e248 31 .cfa: $rsp .ra: .cfa 8 - ^
STACK CFI 1e248 .cfa: $rsp 64 +
STACK CFI INIT 1e2a0 3b .cfa: $rsp .ra: .cfa 8 - ^
STACK CFI 1e2a0 .cfa: $rsp 48 +
STACK CFI INIT 1e2ec 3b .cfa: $rsp .ra: .cfa 8 - ^
STACK CFI 1e2ec .cfa: $rsp 48 +
STACK CFI INIT 1e338 26 .cfa: $rsp .ra: .cfa 8 - ^
STACK CFI 1e338 .cfa: $rsp 48 +
STACK CFI INIT 1e368 26 .cfa: $rsp .ra: .cfa 8 - ^
STACK CFI 1e368 .cfa: $rsp 48 +
STACK CFI INIT 1e410 1b .cfa: $rsp .ra: .cfa 8 - ^
STACK CFI 1e410 .cfa: $rsp 48 +
STACK CFI INIT 1e438 1b0 .cfa: $rsp .ra: .cfa 8 - ^
STACK CFI 1e438 .cfa: $rsp 64 +
STACK CFI INIT 1e674 116 .cfa: $rsp .ra: .cfa 8 - ^
STACK CFI 1e674 .cfa: $rsp 64 +
STACK CFI INIT 1e7dc 1b .cfa: $rsp .ra: .cfa 8 - ^
STACK CFI 1e7dc .cfa: $rsp 48 +
STACK CFI INIT 1e828 3a .cfa: $rsp .ra: .cfa 8 - ^
STACK CFI 1e828 .cfa: $rsp 64 +
STACK CFI INIT 1e8a0 48 .cfa: $rsp .ra: .cfa 8 - ^
STACK CFI 1e8a0 .cfa: $rsp 80 +
STACK CFI INIT 1e914 23 .cfa: $rsp .ra: .cfa 8 - ^
STACK CFI 1e914 .cfa: $rsp 48 +
STACK CFI INIT 1e948 10 .cfa: $rsp .ra: .cfa 8 - ^
STACK CFI 1e948 .cfa: $rsp 48 +
STACK CFI INIT 1e964 3d .cfa: $rsp .ra: .cfa 8 - ^
STACK CFI 1e964 .cfa: $rsp 48 +
STACK CFI INIT 1e9b8 40 .cfa: $rsp .ra: .cfa 8 - ^
STACK CFI 1e9b8 .cfa: $rsp 48 +
STACK CFI INIT 1ea08 5b .cfa: $rsp .ra: .cfa 8 - ^
STACK CFI 1ea08 .cfa: $rsp 48 +
STACK CFI INIT 1ea80 6f .cfa: $rsp .ra: .cfa 8 - ^
STACK CFI 1ea80 .cfa: $rsp 48 +
STACK CFI INIT 1eb0c 3e .cfa: $rsp .ra: .cfa 8 - ^
STACK CFI 1eb0c .cfa: $rsp 48 +
STACK CFI INIT 1eb6c 27 .cfa: $rsp .ra: .cfa 8 - ^
STACK CFI 1eb6c .cfa: $rsp 8 +
STACK CFI INIT 1ebb4 14 .cfa: $rsp .ra: .cfa 8 - ^
STACK CFI 1ebb4 .cfa: $rsp 48 +
STACK CFI INIT 1ebd0 10 .cfa: $rsp .ra: .cfa 8 - ^
STACK CFI 1ebd0 .cfa: $rsp 48 +
STACK CFI INIT 1ebe4 35 .cfa: $rsp .ra: .cfa 8 - ^
STACK CFI 1ebe4 .cfa: $rsp 48 +
STACK CFI INIT 1ec28 10 .cfa: $rsp .ra: .cfa 8 - ^
STACK CFI 1ec28 .cfa: $rsp 48 +
STACK CFI INIT 1ec54 22 .cfa: $rsp .ra: .cfa 8 - ^
STACK CFI 1ec54 .cfa: $rsp 48 +
STACK CFI INIT 1ec80 2c .cfa: $rsp .ra: .cfa 8 - ^
STACK CFI 1ec80 .cfa: $rsp 48 +
STACK CFI INIT 1ecb8 20 .cfa: $rsp .ra: .cfa 8 - ^
STACK CFI 1ecb8 .cfa: $rsp 48 +
STACK CFI INIT 1ece8 62 .cfa: $rsp .ra: .cfa 8 - ^
STACK CFI 1ece8 .cfa: $rsp 48 +
STACK CFI INIT 1ed64 5f .cfa: $rsp .ra: .cfa 8 - ^
STACK CFI 1ed64 .cfa: $rsp 48 +
STACK CFI INIT 1eddc 81 .cfa: $rsp .ra: .cfa 8 - ^
STACK CFI 1eddc .cfa: $rsp 8 +
STACK CFI INIT 1ee80 9e .cfa: $rsp .ra: .cfa 8 - ^
STACK CFI 1ee80 .cfa: $rsp 8 +
STACK CFI INIT 1ef48 81 .cfa: $rsp .ra: .cfa 8 - ^
STACK CFI 1ef48 .cfa: $rsp 8 +
STACK CFI INIT 1efec 85 .cfa: $rsp .ra: .cfa 8 - ^
STACK CFI 1efec .cfa: $rsp 8 +
STACK CFI INIT 1f094 a2 .cfa: $rsp .ra: .cfa 8 - ^
STACK CFI 1f094 .cfa: $rsp 8 +
STACK CFI INIT 1f160 85 .cfa: $rsp .ra: .cfa 8 - ^
STACK CFI 1f160 .cfa: $rsp 8 +
STACK CFI INIT 1f208 81 .cfa: $rsp .ra: .cfa 8 - ^
STACK CFI 1f208 .cfa: $rsp 8 +
STACK CFI INIT 1f2ac 9e .cfa: $rsp .ra: .cfa 8 - ^
STACK CFI 1f2ac .cfa: $rsp 8 +
STACK CFI INIT 1f374 81 .cfa: $rsp .ra: .cfa 8 - ^
STACK CFI 1f374 .cfa: $rsp 8 +
STACK CFI INIT 1f418 85 .cfa: $rsp .ra: .cfa 8 - ^
STACK CFI 1f418 .cfa: $rsp 8 +
STACK CFI INIT 1f4c0 a2 .cfa: $rsp .ra: .cfa 8 - ^
STACK CFI 1f4c0 .cfa: $rsp 8 +
STACK CFI INIT 1f58c 85 .cfa: $rsp .ra: .cfa 8 - ^
STACK CFI 1f58c .cfa: $rsp 8 +
STACK CFI INIT 1f634 3d .cfa: $rsp .ra: .cfa 8 - ^
STACK CFI 1f634 .cfa: $rsp 48 +
STACK CFI INIT 1f680 3d .cfa: $rsp .ra: .cfa 8 - ^
STACK CFI 1f680 .cfa: $rsp 48 +
STACK CFI INIT 1f6cc 3d .cfa: $rsp .ra: .cfa 8 - ^
STACK CFI 1f6cc .cfa: $rsp 48 +
STACK CFI INIT 1f718 3d .cfa: $rsp .ra: .cfa 8 - ^
STACK CFI 1f718 .cfa: $rsp 48 +
STACK CFI INIT 1f764 3d .cfa: $rsp .ra: .cfa 8 - ^
STACK CFI 1f764 .cfa: $rsp 48 +
STACK CFI INIT 1f7b0 3d .cfa: $rsp .ra: .cfa 8 - ^
STACK CFI 1f7b0 .cfa: $rsp 48 +
STACK CFI INIT 1f7fc 28 .cfa: $rsp .ra: .cfa 8 - ^
STACK CFI 1f7fc .cfa: $rsp 48 +
STACK CFI INIT 1f830 28 .cfa: $rsp .ra: .cfa 8 - ^
STACK CFI 1f830 .cfa: $rsp 48 +
STACK CFI INIT 1f864 28 .cfa: $rsp .ra: .cfa 8 - ^
STACK CFI 1f864 .cfa: $rsp 48 +
STACK CFI INIT 1f898 28 .cfa: $rsp .ra: .cfa 8 - ^
STACK CFI 1f898 .cfa: $rsp 48 +
STACK CFI INIT 1f8cc 28 .cfa: $rsp .ra: .cfa 8 - ^
STACK CFI 1f8cc .cfa: $rsp 48 +
STACK CFI INIT 1f900 28 .cfa: $rsp .ra: .cfa 8 - ^
STACK CFI 1f900 .cfa: $rsp 48 +
STACK CFI INIT 1f934 85 .cfa: $rsp .ra: .cfa 8 - ^
STACK CFI 1f934 .cfa: $rsp 112 +
STACK CFI INIT 1f9dc 85 .cfa: $rsp .ra: .cfa 8 - ^
STACK CFI 1f9dc .cfa: $rsp 112 +
STACK CFI INIT 1fa84 85 .cfa: $rsp .ra: .cfa 8 - ^
STACK CFI 1fa84 .cfa: $rsp 112 +
STACK CFI INIT 1fb2c 85 .cfa: $rsp .ra: .cfa 8 - ^
STACK CFI 1fb2c .cfa: $rsp 112 +
STACK CFI INIT 1fbd4 85 .cfa: $rsp .ra: .cfa 8 - ^
STACK CFI 1fbd4 .cfa: $rsp 112 +
STACK CFI INIT 1fc7c 85 .cfa: $rsp .ra: .cfa 8 - ^
STACK CFI 1fc7c .cfa: $rsp 112 +
STACK CFI INIT 1fd24 114 .cfa: $rsp .ra: .cfa 8 - ^
STACK CFI 1fd24 .cfa: $rsp 64 +
STACK CFI INIT 1fe80 117 .cfa: $rsp .ra: .cfa 8 - ^
STACK CFI 1fe80 .cfa: $rsp 80 +
STACK CFI INIT 1ffdc 1cb .cfa: $rsp .ra: .cfa 8 - ^
STACK CFI 1ffdc .cfa: $rsp 1328 +
STACK CFI INIT 2021c 1d2 .cfa: $rsp .ra: .cfa 8 - ^
STACK CFI 2021c .cfa: $rsp 1328 +
STACK CFI INIT 20464 1e7 .cfa: $rsp .ra: .cfa 8 - ^
STACK CFI 20464 .cfa: $rsp 3744 +
STACK CFI INIT 206c4 1ee .cfa: $rsp .ra: .cfa 8 - ^
STACK CFI 206c4 .cfa: $rsp 3744 +
STACK CFI INIT 20930 1cb .cfa: $rsp .ra: .cfa 8 - ^
STACK CFI 20930 .cfa: $rsp 1328 +
STACK CFI INIT 20b70 1d2 .cfa: $rsp .ra: .cfa 8 - ^
STACK CFI 20b70 .cfa: $rsp 1328 +
STACK CFI INIT 20db8 63 .cfa: $rsp .ra: .cfa 8 - ^
STACK CFI 20db8 .cfa: $rsp 64 +
STACK CFI INIT 20e34 6e .cfa: $rsp .ra: .cfa 8 - ^
STACK CFI 20e34 .cfa: $rsp 64 +
STACK CFI INIT 20f30 a6 .cfa: $rsp .ra: .cfa 8 - ^
STACK CFI 20f30 .cfa: $rsp 48 +
STACK CFI INIT 21000 a9 .cfa: $rsp .ra: .cfa 8 - ^
STACK CFI 21000 .cfa: $rsp 48 +
STACK CFI INIT 210d4 bc .cfa: $rsp .ra: .cfa 8 - ^
STACK CFI 210d4 .cfa: $rsp 64 +
STACK CFI INIT 211c0 bc .cfa: $rsp .ra: .cfa 8 - ^
STACK CFI 211c0 .cfa: $rsp 64 +
STACK CFI INIT 212ac be .cfa: $rsp .ra: .cfa 8 - ^
STACK CFI 212ac .cfa: $rsp 64 +
STACK CFI INIT 2139c be .cfa: $rsp .ra: .cfa 8 - ^
STACK CFI 2139c .cfa: $rsp 64 +
STACK CFI INIT 214fc bb .cfa: $rsp .ra: .cfa 8 - ^
STACK CFI 214fc .cfa: $rsp 64 +
STACK CFI INIT 215e8 bb .cfa: $rsp .ra: .cfa 8 - ^
STACK CFI 215e8 .cfa: $rsp 64 +
STACK CFI INIT 216d4 bd .cfa: $rsp .ra: .cfa 8 - ^
STACK CFI 216d4 .cfa: $rsp 64 +
STACK CFI INIT 217c0 bd .cfa: $rsp .ra: .cfa 8 - ^
STACK CFI 217c0 .cfa: $rsp 64 +
STACK CFI INIT 2190c bc .cfa: $rsp .ra: .cfa 8 - ^
STACK CFI 2190c .cfa: $rsp 64 +
STACK CFI INIT 219f8 bc .cfa: $rsp .ra: .cfa 8 - ^
STACK CFI 219f8 .cfa: $rsp 64 +
STACK CFI INIT 21ae4 be .cfa: $rsp .ra: .cfa 8 - ^
STACK CFI 21ae4 .cfa: $rsp 64 +
STACK CFI INIT 21bd4 be .cfa: $rsp .ra: .cfa 8 - ^
STACK CFI 21bd4 .cfa: $rsp 64 +
STACK CFI INIT 21d34 b8 .cfa: $rsp .ra: .cfa 8 - ^
STACK CFI 21d34 .cfa: $rsp 64 +
STACK CFI INIT 21e1c b8 .cfa: $rsp .ra: .cfa 8 - ^
STACK CFI 21e1c .cfa: $rsp 64 +
STACK CFI INIT 21f34 bb .cfa: $rsp .ra: .cfa 8 - ^
STACK CFI 21f34 .cfa: $rsp 64 +
STACK CFI INIT 22020 bb .cfa: $rsp .ra: .cfa 8 - ^
STACK CFI 22020 .cfa: $rsp 64 +
STACK CFI INIT 2210c bd .cfa: $rsp .ra: .cfa 8 - ^
STACK CFI 2210c .cfa: $rsp 64 +
STACK CFI INIT 221f8 bd .cfa: $rsp .ra: .cfa 8 - ^
STACK CFI 221f8 .cfa: $rsp 64 +
STACK CFI INIT 22344 ba .cfa: $rsp .ra: .cfa 8 - ^
STACK CFI 22344 .cfa: $rsp 64 +
STACK CFI INIT 2242c ba .cfa: $rsp .ra: .cfa 8 - ^
STACK CFI 2242c .cfa: $rsp 64 +
STACK CFI INIT 22514 bc .cfa: $rsp .ra: .cfa 8 - ^
STACK CFI 22514 .cfa: $rsp 64 +
STACK CFI INIT 22600 bc .cfa: $rsp .ra: .cfa 8 - ^
STACK CFI 22600 .cfa: $rsp 64 +
STACK CFI INIT 2274c b9 .cfa: $rsp .ra: .cfa 8 - ^
STACK CFI 2274c .cfa: $rsp 64 +
STACK CFI INIT 22834 b9 .cfa: $rsp .ra: .cfa 8 - ^
STACK CFI 22834 .cfa: $rsp 64 +
STACK CFI INIT 2291c bb .cfa: $rsp .ra: .cfa 8 - ^
STACK CFI 2291c .cfa: $rsp 64 +
STACK CFI INIT 22a08 bb .cfa: $rsp .ra: .cfa 8 - ^
STACK CFI 22a08 .cfa: $rsp 64 +
STACK CFI INIT 22b54 ba .cfa: $rsp .ra: .cfa 8 - ^
STACK CFI 22b54 .cfa: $rsp 64 +
STACK CFI INIT 22c3c ba .cfa: $rsp .ra: .cfa 8 - ^
STACK CFI 22c3c .cfa: $rsp 64 +
STACK CFI INIT 22d24 bc .cfa: $rsp .ra: .cfa 8 - ^
STACK CFI 22d24 .cfa: $rsp 64 +
STACK CFI INIT 22e10 bc .cfa: $rsp .ra: .cfa 8 - ^
STACK CFI 22e10 .cfa: $rsp 64 +
STACK CFI INIT 22f74 ba .cfa: $rsp .ra: .cfa 8 - ^
STACK CFI 22f74 .cfa: $rsp 64 +
STACK CFI INIT 230a4 ba .cfa: $rsp .ra: .cfa 8 - ^
STACK CFI 230a4 .cfa: $rsp 64 +
STACK CFI INIT 231d4 bc .cfa: $rsp .ra: .cfa 8 - ^
STACK CFI 231d4 .cfa: $rsp 64 +
STACK CFI INIT 23308 bc .cfa: $rsp .ra: .cfa 8 - ^
STACK CFI 23308 .cfa: $rsp 64 +
STACK CFI INIT 23424 ba .cfa: $rsp .ra: .cfa 8 - ^
STACK CFI 23424 .cfa: $rsp 64 +
STACK CFI INIT 2350c ba .cfa: $rsp .ra: .cfa 8 - ^
STACK CFI 2350c .cfa: $rsp 64 +
STACK CFI INIT 235f4 bc .cfa: $rsp .ra: .cfa 8 - ^
STACK CFI 235f4 .cfa: $rsp 64 +
STACK CFI INIT 236e0 bc .cfa: $rsp .ra: .cfa 8 - ^
STACK CFI 236e0 .cfa: $rsp 64 +
STACK CFI INIT 2382c ba .cfa: $rsp .ra: .cfa 8 - ^
STACK CFI 2382c .cfa: $rsp 64 +
STACK CFI INIT 23914 ba .cfa: $rsp .ra: .cfa 8 - ^
STACK CFI 23914 .cfa: $rsp 64 +
STACK CFI INIT 239fc bc .cfa: $rsp .ra: .cfa 8 - ^
STACK CFI 239fc .cfa: $rsp 64 +
STACK CFI INIT 23ae8 bc .cfa: $rsp .ra: .cfa 8 - ^
STACK CFI 23ae8 .cfa: $rsp 64 +
STACK CFI INIT 23c44 ba .cfa: $rsp .ra: .cfa 8 - ^
STACK CFI 23c44 .cfa: $rsp 64 +
STACK CFI INIT 23d2c ba .cfa: $rsp .ra: .cfa 8 - ^
STACK CFI 23d2c .cfa: $rsp 64 +
STACK CFI INIT 23e14 bc .cfa: $rsp .ra: .cfa 8 - ^
STACK CFI 23e14 .cfa: $rsp 64 +
STACK CFI INIT 23f00 bc .cfa: $rsp .ra: .cfa 8 - ^
STACK CFI 23f00 .cfa: $rsp 64 +
STACK CFI INIT 2404c ba .cfa: $rsp .ra: .cfa 8 - ^
STACK CFI 2404c .cfa: $rsp 64 +
STACK CFI INIT 24134 ba .cfa: $rsp .ra: .cfa 8 - ^
STACK CFI 24134 .cfa: $rsp 64 +
STACK CFI INIT 2421c bc .cfa: $rsp .ra: .cfa 8 - ^
STACK CFI 2421c .cfa: $rsp 64 +
STACK CFI INIT 24308 bc .cfa: $rsp .ra: .cfa 8 - ^
STACK CFI 24308 .cfa: $rsp 64 +
STACK CFI INIT 24454 bc .cfa: $rsp .ra: .cfa 8 - ^
STACK CFI 24454 .cfa: $rsp 64 +
STACK CFI INIT 24540 bc .cfa: $rsp .ra: .cfa 8 - ^
STACK CFI 24540 .cfa: $rsp 64 +
STACK CFI INIT 2462c be .cfa: $rsp .ra: .cfa 8 - ^
STACK CFI 2462c .cfa: $rsp 64 +
STACK CFI INIT 2471c be .cfa: $rsp .ra: .cfa 8 - ^
STACK CFI 2471c .cfa: $rsp 64 +
STACK CFI INIT 24d40 87 .cfa: $rsp .ra: .cfa 8 - ^
STACK CFI 24d40 .cfa: $rsp 8 +
STACK CFI INIT 24de8 87 .cfa: $rsp .ra: .cfa 8 - ^
STACK CFI 24de8 .cfa: $rsp 8 +
STACK CFI INIT 24e90 87 .cfa: $rsp .ra: .cfa 8 - ^
STACK CFI 24e90 .cfa: $rsp 8 +
STACK CFI INIT 24f38 87 .cfa: $rsp .ra: .cfa 8 - ^
STACK CFI 24f38 .cfa: $rsp 8 +
STACK CFI INIT 24fe0 87 .cfa: $rsp .ra: .cfa 8 - ^
STACK CFI 24fe0 .cfa: $rsp 8 +
STACK CFI INIT 25088 87 .cfa: $rsp .ra: .cfa 8 - ^
STACK CFI 25088 .cfa: $rsp 8 +
STACK CFI INIT 25130 a3 .cfa: $rsp .ra: .cfa 8 - ^
STACK CFI 25130 .cfa: $rsp 8 +
STACK CFI INIT 251fc a3 .cfa: $rsp .ra: .cfa 8 - ^
STACK CFI 251fc .cfa: $rsp 8 +
STACK CFI INIT 252c8 a3 .cfa: $rsp .ra: .cfa 8 - ^
STACK CFI 252c8 .cfa: $rsp 8 +
STACK CFI INIT 25394 a3 .cfa: $rsp .ra: .cfa 8 - ^
STACK CFI 25394 .cfa: $rsp 8 +
STACK CFI INIT 25460 a3 .cfa: $rsp .ra: .cfa 8 - ^
STACK CFI 25460 .cfa: $rsp 8 +
STACK CFI INIT 2552c a3 .cfa: $rsp .ra: .cfa 8 - ^
STACK CFI 2552c .cfa: $rsp 8 +
STACK CFI INIT 255f8 8d .cfa: $rsp .ra: .cfa 8 - ^
STACK CFI 255f8 .cfa: $rsp 8 +
STACK CFI INIT 256a8 8d .cfa: $rsp .ra: .cfa 8 - ^
STACK CFI 256a8 .cfa: $rsp 8 +
STACK CFI INIT 25758 8d .cfa: $rsp .ra: .cfa 8 - ^
STACK CFI 25758 .cfa: $rsp 8 +
STACK CFI INIT 25808 8d .cfa: $rsp .ra: .cfa 8 - ^
STACK CFI 25808 .cfa: $rsp 8 +
STACK CFI INIT 258b8 8d .cfa: $rsp .ra: .cfa 8 - ^
STACK CFI 258b8 .cfa: $rsp 8 +
STACK CFI INIT 25968 8d .cfa: $rsp .ra: .cfa 8 - ^
STACK CFI 25968 .cfa: $rsp 8 +
STACK CFI INIT 25a18 a4 .cfa: $rsp .ra: .cfa 8 - ^
STACK CFI 25a18 .cfa: $rsp 8 +
STACK CFI INIT 25ae8 a4 .cfa: $rsp .ra: .cfa 8 - ^
STACK CFI 25ae8 .cfa: $rsp 8 +
STACK CFI INIT 25bb8 a4 .cfa: $rsp .ra: .cfa 8 - ^
STACK CFI 25bb8 .cfa: $rsp 8 +
STACK CFI INIT 25c88 a4 .cfa: $rsp .ra: .cfa 8 - ^
STACK CFI 25c88 .cfa: $rsp 8 +
STACK CFI INIT 25d58 a4 .cfa: $rsp .ra: .cfa 8 - ^
STACK CFI 25d58 .cfa: $rsp 8 +
STACK CFI INIT 25e28 a4 .cfa: $rsp .ra: .cfa 8 - ^
STACK CFI 25e28 .cfa: $rsp 8 +
STACK CFI INIT 25ef8 8b .cfa: $rsp .ra: .cfa 8 - ^
STACK CFI 25ef8 .cfa: $rsp 48 +
STACK CFI INIT 25fa8 91 .cfa: $rsp .ra: .cfa 8 - ^
STACK CFI 25fa8 .cfa: $rsp 48 +
STACK CFI INIT 26060 75 .cfa: $rsp .ra: .cfa 8 - ^
STACK CFI 26060 .cfa: $rsp 8 +
STACK CFI INIT 260f4 7a .cfa: $rsp .ra: .cfa 8 - ^
STACK CFI 260f4 .cfa: $rsp 8 +
STACK CFI INIT 26cd0 9b .cfa: $rsp .ra: .cfa 8 - ^
STACK CFI 26cd0 .cfa: $rsp 48 +
STACK CFI INIT 26d94 20 .cfa: $rsp .ra: .cfa 8 - ^
STACK CFI 26d94 .cfa: $rsp 48 +
STACK CFI INIT 26e00 23 .cfa: $rsp .ra: .cfa 8 - ^
STACK CFI 26e00 .cfa: $rsp 48 +
STACK CFI INIT 26e2c 23 .cfa: $rsp .ra: .cfa 8 - ^
STACK CFI 26e2c .cfa: $rsp 48 +
STACK CFI INIT 26e58 23 .cfa: $rsp .ra: .cfa 8 - ^
STACK CFI 26e58 .cfa: $rsp 48 +
STACK CFI INIT 26e84 23 .cfa: $rsp .ra: .cfa 8 - ^
STACK CFI 26e84 .cfa: $rsp 48 +
STACK CFI INIT 26eb0 23 .cfa: $rsp .ra: .cfa 8 - ^
STACK CFI 26eb0 .cfa: $rsp 48 +
STACK CFI INIT 26edc 23 .cfa: $rsp .ra: .cfa 8 - ^
STACK CFI 26edc .cfa: $rsp 48 +
STACK CFI INIT 26f08 23 .cfa: $rsp .ra: .cfa 8 - ^
STACK CFI 26f08 .cfa: $rsp 48 +
STACK CFI INIT 26f34 23 .cfa: $rsp .ra: .cfa 8 - ^
STACK CFI 26f34 .cfa: $rsp 48 +
STACK CFI INIT 26f60 23 .cfa: $rsp .ra: .cfa 8 - ^
STACK CFI 26f60 .cfa: $rsp 48 +
STACK CFI INIT 26f8c 23 .cfa: $rsp .ra: .cfa 8 - ^
STACK CFI 26f8c .cfa: $rsp 48 +
STACK CFI INIT 26fb8 23 .cfa: $rsp .ra: .cfa 8 - ^
STACK CFI 26fb8 .cfa: $rsp 48 +
STACK CFI INIT 26fe4 23 .cfa: $rsp .ra: .cfa 8 - ^
STACK CFI 26fe4 .cfa: $rsp 48 +
STACK CFI INIT 27010 23 .cfa: $rsp .ra: .cfa 8 - ^
STACK CFI 27010 .cfa: $rsp 48 +
STACK CFI INIT 2703c 23 .cfa: $rsp .ra: .cfa 8 - ^
STACK CFI 2703c .cfa: $rsp 48 +
STACK CFI INIT 27068 23 .cfa: $rsp .ra: .cfa 8 - ^
STACK CFI 27068 .cfa: $rsp 48 +
STACK CFI INIT 27094 23 .cfa: $rsp .ra: .cfa 8 - ^
STACK CFI 27094 .cfa: $rsp 48 +
STACK CFI INIT 270c0 23 .cfa: $rsp .ra: .cfa 8 - ^
STACK CFI 270c0 .cfa: $rsp 48 +
STACK CFI INIT 270ec 23 .cfa: $rsp .ra: .cfa 8 - ^
STACK CFI 270ec .cfa: $rsp 48 +
STACK CFI INIT 27118 23 .cfa: $rsp .ra: .cfa 8 - ^
STACK CFI 27118 .cfa: $rsp 48 +
STACK CFI INIT 27144 23 .cfa: $rsp .ra: .cfa 8 - ^
STACK CFI 27144 .cfa: $rsp 48 +
STACK CFI INIT 27170 23 .cfa: $rsp .ra: .cfa 8 - ^
STACK CFI 27170 .cfa: $rsp 48 +
STACK CFI INIT 2719c 23 .cfa: $rsp .ra: .cfa 8 - ^
STACK CFI 2719c .cfa: $rsp 48 +
STACK CFI INIT 271c8 23 .cfa: $rsp .ra: .cfa 8 - ^
STACK CFI 271c8 .cfa: $rsp 48 +
STACK CFI INIT 271f4 23 .cfa: $rsp .ra: .cfa 8 - ^
STACK CFI 271f4 .cfa: $rsp 48 +
STACK CFI INIT 27220 23 .cfa: $rsp .ra: .cfa 8 - ^
STACK CFI 27220 .cfa: $rsp 48 +
STACK CFI INIT 2724c 23 .cfa: $rsp .ra: .cfa 8 - ^
STACK CFI 2724c .cfa: $rsp 48 +
STACK CFI INIT 27278 23 .cfa: $rsp .ra: .cfa 8 - ^
STACK CFI 27278 .cfa: $rsp 48 +
STACK CFI INIT 272a4 23 .cfa: $rsp .ra: .cfa 8 - ^
STACK CFI 272a4 .cfa: $rsp 48 +
STACK CFI INIT 272d0 23 .cfa: $rsp .ra: .cfa 8 - ^
STACK CFI 272d0 .cfa: $rsp 48 +
STACK CFI INIT 272fc 23 .cfa: $rsp .ra: .cfa 8 - ^
STACK CFI 272fc .cfa: $rsp 48 +
STACK CFI INIT 27368 23 .cfa: $rsp .ra: .cfa 8 - ^
STACK CFI 27368 .cfa: $rsp 48 +
STACK CFI INIT 27394 34 .cfa: $rsp .ra: .cfa 8 - ^
STACK CFI 27394 .cfa: $rsp 48 +
STACK CFI INIT 273f4 12d .cfa: $rsp .ra: .cfa 8 - ^
STACK CFI 273f4 .cfa: $rsp 1264 +
STACK CFI INIT 27590 14e .cfa: $rsp .ra: .cfa 8 - ^
STACK CFI 27590 .cfa: $rsp 3680 +
STACK CFI INIT 27758 14a .cfa: $rsp .ra: .cfa 8 - ^
STACK CFI 27758 .cfa: $rsp 3680 +
STACK CFI INIT 278f4 131 .cfa: $rsp .ra: .cfa 8 - ^
STACK CFI 278f4 .cfa: $rsp 1264 +
STACK CFI INIT 27a8c 131 .cfa: $rsp .ra: .cfa 8 - ^
STACK CFI 27a8c .cfa: $rsp 1264 +
STACK CFI INIT 27c0c 12d .cfa: $rsp .ra: .cfa 8 - ^
STACK CFI 27c0c .cfa: $rsp 1264 +
STACK CFI INIT 2844c 1f .cfa: $rsp .ra: .cfa 8 - ^
STACK CFI 2844c .cfa: $rsp 48 +
STACK CFI INIT 285dc 230 .cfa: $rsp .ra: .cfa 8 - ^
STACK CFI 285dc .cfa: $rsp 8 +
STACK CFI INIT 28898 230 .cfa: $rsp .ra: .cfa 8 - ^
STACK CFI 28898 .cfa: $rsp 8 +
STACK CFI INIT 28b54 200 .cfa: $rsp .ra: .cfa 8 - ^
STACK CFI 28b54 .cfa: $rsp 48 +
STACK CFI INIT 28dd4 200 .cfa: $rsp .ra: .cfa 8 - ^
STACK CFI 28dd4 .cfa: $rsp 48 +
STACK CFI INIT 290f4 a1 .cfa: $rsp .ra: .cfa 8 - ^
STACK CFI 290f4 .cfa: $rsp 64 +
STACK CFI INIT 291c0 a1 .cfa: $rsp .ra: .cfa 8 - ^
STACK CFI 291c0 .cfa: $rsp 64 +
STACK CFI INIT 2928c a1 .cfa: $rsp .ra: .cfa 8 - ^
STACK CFI 2928c .cfa: $rsp 64 +
STACK CFI INIT 29358 a1 .cfa: $rsp .ra: .cfa 8 - ^
STACK CFI 29358 .cfa: $rsp 64 +
STACK CFI INIT 29424 a1 .cfa: $rsp .ra: .cfa 8 - ^
STACK CFI 29424 .cfa: $rsp 64 +
STACK CFI INIT 294f0 a1 .cfa: $rsp .ra: .cfa 8 - ^
STACK CFI 294f0 .cfa: $rsp 64 +
STACK CFI INIT 295bc a3 .cfa: $rsp .ra: .cfa 8 - ^
STACK CFI 295bc .cfa: $rsp 48 +
STACK CFI INIT 29688 a3 .cfa: $rsp .ra: .cfa 8 - ^
STACK CFI 29688 .cfa: $rsp 48 +
STACK CFI INIT 29754 a3 .cfa: $rsp .ra: .cfa 8 - ^
STACK CFI 29754 .cfa: $rsp 48 +
STACK CFI INIT 29820 a3 .cfa: $rsp .ra: .cfa 8 - ^
STACK CFI 29820 .cfa: $rsp 48 +
STACK CFI INIT 298ec a3 .cfa: $rsp .ra: .cfa 8 - ^
STACK CFI 298ec .cfa: $rsp 48 +
STACK CFI INIT 299b8 a3 .cfa: $rsp .ra: .cfa 8 - ^
STACK CFI 299b8 .cfa: $rsp 48 +
STACK CFI INIT 29a84 227 .cfa: $rsp .ra: .cfa 8 - ^
STACK CFI 29a84 .cfa: $rsp 48 +
STACK CFI INIT 29d34 2a6 .cfa: $rsp .ra: .cfa 8 - ^
STACK CFI 29d34 .cfa: $rsp 64 +
STACK CFI INIT 2a084 216 .cfa: $rsp .ra: .cfa 8 - ^
STACK CFI 2a084 .cfa: $rsp 48 +
STACK CFI INIT 2a320 218 .cfa: $rsp .ra: .cfa 8 - ^
STACK CFI 2a320 .cfa: $rsp 48 +
STACK CFI INIT 2a5c0 295 .cfa: $rsp .ra: .cfa 8 - ^
STACK CFI 2a5c0 .cfa: $rsp 64 +
STACK CFI INIT 2a8fc 20a .cfa: $rsp .ra: .cfa 8 - ^
STACK CFI 2a8fc .cfa: $rsp 48 +
STACK CFI INIT 2ab88 277 .cfa: $rsp .ra: .cfa 8 - ^
STACK CFI 2ab88 .cfa: $rsp 64 +
STACK CFI INIT 2ae9c 2b2 .cfa: $rsp .ra: .cfa 8 - ^
STACK CFI 2ae9c .cfa: $rsp 80 +
STACK CFI INIT 2b1fc 26a .cfa: $rsp .ra: .cfa 8 - ^
STACK CFI 2b1fc .cfa: $rsp 64 +
STACK CFI INIT 2b500 288 .cfa: $rsp .ra: .cfa 8 - ^
STACK CFI 2b500 .cfa: $rsp 64 +
STACK CFI INIT 2b82c 2b2 .cfa: $rsp .ra: .cfa 8 - ^
STACK CFI 2b82c .cfa: $rsp 80 +
STACK CFI INIT 2bb8c 27b .cfa: $rsp .ra: .cfa 8 - ^
STACK CFI 2bb8c .cfa: $rsp 64 +
STACK CFI INIT 2c4e4 70 .cfa: $rsp .ra: .cfa 8 - ^
STACK CFI 2c4e4 .cfa: $rsp 48 +
STACK CFI INIT 2c570 94 .cfa: $rsp .ra: .cfa 8 - ^
STACK CFI 2c570 .cfa: $rsp 48 +
STACK CFI INIT 2c62c 70 .cfa: $rsp .ra: .cfa 8 - ^
STACK CFI 2c62c .cfa: $rsp 48 +
STACK CFI INIT 2c6b8 74 .cfa: $rsp .ra: .cfa 8 - ^
STACK CFI 2c6b8 .cfa: $rsp 48 +
STACK CFI INIT 2c74c 98 .cfa: $rsp .ra: .cfa 8 - ^
STACK CFI 2c74c .cfa: $rsp 48 +
STACK CFI INIT 2c80c 74 .cfa: $rsp .ra: .cfa 8 - ^
STACK CFI 2c80c .cfa: $rsp 48 +
STACK CFI INIT 2c8a0 58 .cfa: $rsp .ra: .cfa 8 - ^
STACK CFI 2c8a0 .cfa: $rsp 48 +
STACK CFI INIT 2c910 7c .cfa: $rsp .ra: .cfa 8 - ^
STACK CFI 2c910 .cfa: $rsp 48 +
STACK CFI INIT 2c9ac 58 .cfa: $rsp .ra: .cfa 8 - ^
STACK CFI 2c9ac .cfa: $rsp 48 +
STACK CFI INIT 2cb8c 5c .cfa: $rsp .ra: .cfa 8 - ^
STACK CFI 2cb8c .cfa: $rsp 48 +
STACK CFI INIT 2cc00 5c .cfa: $rsp .ra: .cfa 8 - ^
STACK CFI 2cc00 .cfa: $rsp 48 +
STACK CFI INIT 2cc74 5c .cfa: $rsp .ra: .cfa 8 - ^
STACK CFI 2cc74 .cfa: $rsp 48 +
STACK CFI INIT 2cce8 60 .cfa: $rsp .ra: .cfa 8 - ^
STACK CFI 2cce8 .cfa: $rsp 48 +
STACK CFI INIT 2cd60 60 .cfa: $rsp .ra: .cfa 8 - ^
STACK CFI 2cd60 .cfa: $rsp 48 +
STACK CFI INIT 2cdd8 60 .cfa: $rsp .ra: .cfa 8 - ^
STACK CFI 2cdd8 .cfa: $rsp 48 +
STACK CFI INIT 2ce50 58 .cfa: $rsp .ra: .cfa 8 - ^
STACK CFI 2ce50 .cfa: $rsp 48 +
STACK CFI INIT 2cec0 58 .cfa: $rsp .ra: .cfa 8 - ^
STACK CFI 2cec0 .cfa: $rsp 48 +
STACK CFI INIT 2cf30 58 .cfa: $rsp .ra: .cfa 8 - ^
STACK CFI 2cf30 .cfa: $rsp 48 +
STACK CFI INIT 2d0e4 a2 .cfa: $rsp .ra: .cfa 8 - ^
STACK CFI 2d0e4 .cfa: $rsp 48 +
STACK CFI INIT 2d1b0 a2 .cfa: $rsp .ra: .cfa 8 - ^
STACK CFI 2d1b0 .cfa: $rsp 48 +
STACK CFI INIT 2d27c a2 .cfa: $rsp .ra: .cfa 8 - ^
STACK CFI 2d27c .cfa: $rsp 48 +
STACK CFI INIT 2d348 a8 .cfa: $rsp .ra: .cfa 8 - ^
STACK CFI 2d348 .cfa: $rsp 48 +
STACK CFI INIT 2d41c a8 .cfa: $rsp .ra: .cfa 8 - ^
STACK CFI 2d41c .cfa: $rsp 48 +
STACK CFI INIT 2d4f0 a8 .cfa: $rsp .ra: .cfa 8 - ^
STACK CFI 2d4f0 .cfa: $rsp 48 +
STACK CFI INIT 2d774 4a .cfa: $rsp .ra: .cfa 8 - ^
STACK CFI 2d774 .cfa: $rsp 48 +
STACK CFI INIT 2d830 4a .cfa: $rsp .ra: .cfa 8 - ^
STACK CFI 2d830 .cfa: $rsp 48 +
STACK CFI INIT 2d8f0 4b .cfa: $rsp .ra: .cfa 8 - ^
STACK CFI 2d8f0 .cfa: $rsp 48 +
STACK CFI INIT 2d9b8 4b .cfa: $rsp .ra: .cfa 8 - ^
STACK CFI 2d9b8 .cfa: $rsp 48 +
STACK CFI INIT 2da4c 171 .cfa: $rsp .ra: .cfa 8 - ^
STACK CFI 2da4c .cfa: $rsp 48 +
STACK CFI INIT 2dc1c 171 .cfa: $rsp .ra: .cfa 8 - ^
STACK CFI 2dc1c .cfa: $rsp 48 +
STACK CFI INIT 2ddec 171 .cfa: $rsp .ra: .cfa 8 - ^
STACK CFI 2ddec .cfa: $rsp 48 +
STACK CFI INIT 2dfbc 171 .cfa: $rsp .ra: .cfa 8 - ^
STACK CFI 2dfbc .cfa: $rsp 48 +
STACK CFI INIT 2e18c 171 .cfa: $rsp .ra: .cfa 8 - ^
STACK CFI 2e18c .cfa: $rsp 48 +
STACK CFI INIT 2e35c 171 .cfa: $rsp .ra: .cfa 8 - ^
STACK CFI 2e35c .cfa: $rsp 48 +
STACK CFI INIT 2e52c 196 .cfa: $rsp .ra: .cfa 8 - ^
STACK CFI 2e52c .cfa: $rsp 48 +
STACK CFI INIT 2e728 196 .cfa: $rsp .ra: .cfa 8 - ^
STACK CFI 2e728 .cfa: $rsp 48 +
STACK CFI INIT 2e924 196 .cfa: $rsp .ra: .cfa 8 - ^
STACK CFI 2e924 .cfa: $rsp 48 +
STACK CFI INIT 2eb20 196 .cfa: $rsp .ra: .cfa 8 - ^
STACK CFI 2eb20 .cfa: $rsp 48 +
STACK CFI INIT 2ed1c 196 .cfa: $rsp .ra: .cfa 8 - ^
STACK CFI 2ed1c .cfa: $rsp 48 +
STACK CFI INIT 2ef18 196 .cfa: $rsp .ra: .cfa 8 - ^
STACK CFI 2ef18 .cfa: $rsp 48 +
STACK CFI INIT 2f114 284 .cfa: $rsp .ra: .cfa 8 - ^
STACK CFI 2f114 .cfa: $rsp 80 +
STACK CFI INIT 2f43c 29a .cfa: $rsp .ra: .cfa 8 - ^
STACK CFI 2f43c .cfa: $rsp 80 +
STACK CFI INIT 2f77c 284 .cfa: $rsp .ra: .cfa 8 - ^
STACK CFI 2f77c .cfa: $rsp 80 +
STACK CFI INIT 2faa4 266 .cfa: $rsp .ra: .cfa 8 - ^
STACK CFI 2faa4 .cfa: $rsp 80 +
STACK CFI INIT 2fda4 27c .cfa: $rsp .ra: .cfa 8 - ^
STACK CFI 2fda4 .cfa: $rsp 80 +
STACK CFI INIT 300c0 266 .cfa: $rsp .ra: .cfa 8 - ^
STACK CFI 300c0 .cfa: $rsp 80 +
STACK CFI INIT 303c0 2dd .cfa: $rsp .ra: .cfa 8 - ^
STACK CFI 303c0 .cfa: $rsp 112 +
STACK CFI INIT 30754 2f3 .cfa: $rsp .ra: .cfa 8 - ^
STACK CFI 30754 .cfa: $rsp 112 +
STACK CFI INIT 30b04 2dd .cfa: $rsp .ra: .cfa 8 - ^
STACK CFI 30b04 .cfa: $rsp 112 +
STACK CFI INIT 30e98 2ca .cfa: $rsp .ra: .cfa 8 - ^
STACK CFI 30e98 .cfa: $rsp 112 +
STACK CFI INIT 31214 2e0 .cfa: $rsp .ra: .cfa 8 - ^
STACK CFI 31214 .cfa: $rsp 112 +
STACK CFI INIT 315ac 2ca .cfa: $rsp .ra: .cfa 8 - ^
STACK CFI 315ac .cfa: $rsp 112 +
STACK CFI INIT 31968 50 .cfa: $rsp .ra: .cfa 8 - ^
STACK CFI 31968 .cfa: $rsp 48 +
STACK CFI INIT 31a4c 50 .cfa: $rsp .ra: .cfa 8 - ^
STACK CFI 31a4c .cfa: $rsp 48 +
STACK CFI INIT 31b30 51 .cfa: $rsp .ra: .cfa 8 - ^
STACK CFI 31b30 .cfa: $rsp 48 +
STACK CFI INIT 31c18 51 .cfa: $rsp .ra: .cfa 8 - ^
STACK CFI 31c18 .cfa: $rsp 48 +
STACK CFI INIT 31f28 158 .cfa: $rsp .ra: .cfa 8 - ^
STACK CFI 31f28 .cfa: $rsp 64 +
STACK CFI INIT 321f8 158 .cfa: $rsp .ra: .cfa 8 - ^
STACK CFI 321f8 .cfa: $rsp 64 +
STACK CFI INIT 32438 79 .cfa: $rsp .ra: .cfa 8 - ^
STACK CFI 32438 .cfa: $rsp 48 +
STACK CFI INIT 324d0 13e .cfa: $rsp .ra: .cfa 8 - ^
STACK CFI 324d0 .cfa: $rsp 64 +
STACK CFI INIT 32660 79 .cfa: $rsp .ra: .cfa 8 - ^
STACK CFI 32660 .cfa: $rsp 48 +
STACK CFI INIT 326f8 79 .cfa: $rsp .ra: .cfa 8 - ^
STACK CFI 326f8 .cfa: $rsp 48 +
STACK CFI INIT 32790 13e .cfa: $rsp .ra: .cfa 8 - ^
STACK CFI 32790 .cfa: $rsp 64 +
STACK CFI INIT 32920 79 .cfa: $rsp .ra: .cfa 8 - ^
STACK CFI 32920 .cfa: $rsp 48 +
STACK CFI INIT 329b8 215 .cfa: $rsp .ra: .cfa 8 - ^
STACK CFI 329b8 .cfa: $rsp 96 +
STACK CFI INIT 32c54 252 .cfa: $rsp .ra: .cfa 8 - ^
STACK CFI 32c54 .cfa: $rsp 96 +
STACK CFI INIT 32f3c 215 .cfa: $rsp .ra: .cfa 8 - ^
STACK CFI 32f3c .cfa: $rsp 96 +
STACK CFI INIT 331d8 215 .cfa: $rsp .ra: .cfa 8 - ^
STACK CFI 331d8 .cfa: $rsp 96 +
STACK CFI INIT 33474 252 .cfa: $rsp .ra: .cfa 8 - ^
STACK CFI 33474 .cfa: $rsp 96 +
STACK CFI INIT 3375c 215 .cfa: $rsp .ra: .cfa 8 - ^
STACK CFI 3375c .cfa: $rsp 96 +
STACK CFI INIT 339f8 239 .cfa: $rsp .ra: .cfa 8 - ^
STACK CFI 339f8 .cfa: $rsp 96 +
STACK CFI INIT 33cc0 276 .cfa: $rsp .ra: .cfa 8 - ^
STACK CFI 33cc0 .cfa: $rsp 96 +
STACK CFI INIT 33fd4 239 .cfa: $rsp .ra: .cfa 8 - ^
STACK CFI 33fd4 .cfa: $rsp 96 +
STACK CFI INIT 3429c 239 .cfa: $rsp .ra: .cfa 8 - ^
STACK CFI 3429c .cfa: $rsp 96 +
STACK CFI INIT 34564 276 .cfa: $rsp .ra: .cfa 8 - ^
STACK CFI 34564 .cfa: $rsp 96 +
STACK CFI INIT 34878 239 .cfa: $rsp .ra: .cfa 8 - ^
STACK CFI 34878 .cfa: $rsp 96 +
STACK CFI INIT 34ba0 bc .cfa: $rsp .ra: .cfa 8 - ^
STACK CFI 34ba0 .cfa: $rsp 48 +
STACK CFI INIT 34c8c ff .cfa: $rsp .ra: .cfa 8 - ^
STACK CFI 34c8c .cfa: $rsp 48 +
STACK CFI INIT 34dcc bc .cfa: $rsp .ra: .cfa 8 - ^
STACK CFI 34dcc .cfa: $rsp 48 +
STACK CFI INIT 34eb8 bc .cfa: $rsp .ra: .cfa 8 - ^
STACK CFI 34eb8 .cfa: $rsp 48 +
STACK CFI INIT 34fa4 ff .cfa: $rsp .ra: .cfa 8 - ^
STACK CFI 34fa4 .cfa: $rsp 48 +
STACK CFI INIT 350e4 bc .cfa: $rsp .ra: .cfa 8 - ^
STACK CFI 350e4 .cfa: $rsp 48 +
STACK CFI INIT 351d0 a6 .cfa: $rsp .ra: .cfa 8 - ^
STACK CFI 351d0 .cfa: $rsp 48 +
STACK CFI INIT 352a0 cc .cfa: $rsp .ra: .cfa 8 - ^
STACK CFI 352a0 .cfa: $rsp 48 +
STACK CFI INIT 353a0 a6 .cfa: $rsp .ra: .cfa 8 - ^
STACK CFI 353a0 .cfa: $rsp 48 +
STACK CFI INIT 35470 a6 .cfa: $rsp .ra: .cfa 8 - ^
STACK CFI 35470 .cfa: $rsp 48 +
STACK CFI INIT 35540 cc .cfa: $rsp .ra: .cfa 8 - ^
STACK CFI 35540 .cfa: $rsp 48 +
STACK CFI INIT 35640 a6 .cfa: $rsp .ra: .cfa 8 - ^
STACK CFI 35640 .cfa: $rsp 48 +
STACK CFI INIT 35800 1c5 .cfa: $rsp .ra: .cfa 8 - ^
STACK CFI 35800 .cfa: $rsp 64 +
STACK CFI INIT 35a38 202 .cfa: $rsp .ra: .cfa 8 - ^
STACK CFI 35a38 .cfa: $rsp 80 +
STACK CFI INIT 35cbc 1c5 .cfa: $rsp .ra: .cfa 8 - ^
STACK CFI 35cbc .cfa: $rsp 64 +
STACK CFI INIT 35ef4 1c5 .cfa: $rsp .ra: .cfa 8 - ^
STACK CFI 35ef4 .cfa: $rsp 64 +
STACK CFI INIT 3612c 202 .cfa: $rsp .ra: .cfa 8 - ^
STACK CFI 3612c .cfa: $rsp 80 +
STACK CFI INIT 363b0 1c5 .cfa: $rsp .ra: .cfa 8 - ^
STACK CFI 363b0 .cfa: $rsp 64 +
STACK CFI INIT 365e8 1cb .cfa: $rsp .ra: .cfa 8 - ^
STACK CFI 365e8 .cfa: $rsp 64 +
STACK CFI INIT 36828 208 .cfa: $rsp .ra: .cfa 8 - ^
STACK CFI 36828 .cfa: $rsp 80 +
STACK CFI INIT 36ab4 1cb .cfa: $rsp .ra: .cfa 8 - ^
STACK CFI 36ab4 .cfa: $rsp 64 +
STACK CFI INIT 36cf4 1cb .cfa: $rsp .ra: .cfa 8 - ^
STACK CFI 36cf4 .cfa: $rsp 64 +
STACK CFI INIT 36f34 208 .cfa: $rsp .ra: .cfa 8 - ^
STACK CFI 36f34 .cfa: $rsp 80 +
STACK CFI INIT 371c0 1cb .cfa: $rsp .ra: .cfa 8 - ^
STACK CFI 371c0 .cfa: $rsp 64 +
STACK CFI INIT 37400 db .cfa: $rsp .ra: .cfa 8 - ^
STACK CFI 37400 .cfa: $rsp 48 +
STACK CFI INIT 37514 104 .cfa: $rsp .ra: .cfa 8 - ^
STACK CFI 37514 .cfa: $rsp 48 +
STACK CFI INIT 3765c db .cfa: $rsp .ra: .cfa 8 - ^
STACK CFI 3765c .cfa: $rsp 48 +
STACK CFI INIT 37770 db .cfa: $rsp .ra: .cfa 8 - ^
STACK CFI 37770 .cfa: $rsp 48 +
STACK CFI INIT 37884 104 .cfa: $rsp .ra: .cfa 8 - ^
STACK CFI 37884 .cfa: $rsp 48 +
STACK CFI INIT 379cc db .cfa: $rsp .ra: .cfa 8 - ^
STACK CFI 379cc .cfa: $rsp 48 +
STACK CFI INIT 37ae0 db .cfa: $rsp .ra: .cfa 8 - ^
STACK CFI 37ae0 .cfa: $rsp 48 +
STACK CFI INIT 37bf4 104 .cfa: $rsp .ra: .cfa 8 - ^
STACK CFI 37bf4 .cfa: $rsp 48 +
STACK CFI INIT 37d3c db .cfa: $rsp .ra: .cfa 8 - ^
STACK CFI 37d3c .cfa: $rsp 48 +
STACK CFI INIT 37e50 db .cfa: $rsp .ra: .cfa 8 - ^
STACK CFI 37e50 .cfa: $rsp 48 +
STACK CFI INIT 37f64 104 .cfa: $rsp .ra: .cfa 8 - ^
STACK CFI 37f64 .cfa: $rsp 48 +
STACK CFI INIT 380ac db .cfa: $rsp .ra: .cfa 8 - ^
STACK CFI 380ac .cfa: $rsp 48 +
STACK CFI INIT 384f0 96 .cfa: $rsp .ra: .cfa 8 - ^
STACK CFI 384f0 .cfa: $rsp 48 +
STACK CFI INIT 385ac b5 .cfa: $rsp .ra: .cfa 8 - ^
STACK CFI 385ac .cfa: $rsp 48 +
STACK CFI INIT 38690 96 .cfa: $rsp .ra: .cfa 8 - ^
STACK CFI 38690 .cfa: $rsp 48 +
STACK CFI INIT 3874c 96 .cfa: $rsp .ra: .cfa 8 - ^
STACK CFI 3874c .cfa: $rsp 48 +
STACK CFI INIT 38808 b5 .cfa: $rsp .ra: .cfa 8 - ^
STACK CFI 38808 .cfa: $rsp 48 +
STACK CFI INIT 388ec 96 .cfa: $rsp .ra: .cfa 8 - ^
STACK CFI 388ec .cfa: $rsp 48 +
STACK CFI INIT 389a8 c7 .cfa: $rsp .ra: .cfa 8 - ^
STACK CFI 389a8 .cfa: $rsp 48 +
STACK CFI INIT 38aa0 e9 .cfa: $rsp .ra: .cfa 8 - ^
STACK CFI 38aa0 .cfa: $rsp 48 +
STACK CFI INIT 38bc4 c7 .cfa: $rsp .ra: .cfa 8 - ^
STACK CFI 38bc4 .cfa: $rsp 48 +
STACK CFI INIT 38cbc c7 .cfa: $rsp .ra: .cfa 8 - ^
STACK CFI 38cbc .cfa: $rsp 48 +
STACK CFI INIT 38db4 e9 .cfa: $rsp .ra: .cfa 8 - ^
STACK CFI 38db4 .cfa: $rsp 48 +
STACK CFI INIT 38ed8 c7 .cfa: $rsp .ra: .cfa 8 - ^
STACK CFI 38ed8 .cfa: $rsp 48 +
STACK CFI INIT 39030 53 .cfa: $rsp .ra: .cfa 8 - ^
STACK CFI 39030 .cfa: $rsp 8 +
STACK CFI INIT 39098 53 .cfa: $rsp .ra: .cfa 8 - ^
STACK CFI 39098 .cfa: $rsp 8 +
STACK CFI INIT 39100 53 .cfa: $rsp .ra: .cfa 8 - ^
STACK CFI 39100 .cfa: $rsp 8 +
STACK CFI INIT 39168 53 .cfa: $rsp .ra: .cfa 8 - ^
STACK CFI 39168 .cfa: $rsp 8 +
STACK CFI INIT 391d0 53 .cfa: $rsp .ra: .cfa 8 - ^
STACK CFI 391d0 .cfa: $rsp 8 +
STACK CFI INIT 39238 53 .cfa: $rsp .ra: .cfa 8 - ^
STACK CFI 39238 .cfa: $rsp 8 +
STACK CFI INIT 39480 115 .cfa: $rsp .ra: .cfa 8 - ^
STACK CFI 39480 .cfa: $rsp 64 +
STACK CFI INIT 395dc 115 .cfa: $rsp .ra: .cfa 8 - ^
STACK CFI 395dc .cfa: $rsp 64 +
STACK CFI INIT 39738 118 .cfa: $rsp .ra: .cfa 8 - ^
STACK CFI 39738 .cfa: $rsp 64 +
STACK CFI INIT 39898 118 .cfa: $rsp .ra: .cfa 8 - ^
STACK CFI 39898 .cfa: $rsp 64 +
STACK CFI INIT 39a58 115 .cfa: $rsp .ra: .cfa 8 - ^
STACK CFI 39a58 .cfa: $rsp 64 +
STACK CFI INIT 39bb4 115 .cfa: $rsp .ra: .cfa 8 - ^
STACK CFI 39bb4 .cfa: $rsp 64 +
STACK CFI INIT 39d10 118 .cfa: $rsp .ra: .cfa 8 - ^
STACK CFI 39d10 .cfa: $rsp 64 +
STACK CFI INIT 39e70 118 .cfa: $rsp .ra: .cfa 8 - ^
STACK CFI 39e70 .cfa: $rsp 64 +
STACK CFI INIT 3a03c 2c .cfa: $rsp .ra: .cfa 8 - ^
STACK CFI 3a03c .cfa: $rsp 48 +
STACK CFI INIT 3a074 25 .cfa: $rsp .ra: .cfa 8 - ^
STACK CFI 3a074 .cfa: $rsp 48 +
STACK CFI INIT 3a0a4 25 .cfa: $rsp .ra: .cfa 8 - ^
STACK CFI 3a0a4 .cfa: $rsp 48 +
STACK CFI INIT 3a0d4 25 .cfa: $rsp .ra: .cfa 8 - ^
STACK CFI 3a0d4 .cfa: $rsp 48 +
STACK CFI INIT 3a104 3f .cfa: $rsp .ra: .cfa 8 - ^
STACK CFI 3a104 .cfa: $rsp 64 +
STACK CFI INIT 3a154 3f .cfa: $rsp .ra: .cfa 8 - ^
STACK CFI 3a154 .cfa: $rsp 64 +
STACK CFI INIT 3a1a4 40 .cfa: $rsp .ra: .cfa 8 - ^
STACK CFI 3a1a4 .cfa: $rsp 64 +
STACK CFI INIT 3a1f4 40 .cfa: $rsp .ra: .cfa 8 - ^
STACK CFI 3a1f4 .cfa: $rsp 64 +
STACK CFI INIT 3a244 10b .cfa: $rsp .ra: .cfa 8 - ^
STACK CFI 3a244 .cfa: $rsp 48 +
STACK CFI INIT 3a394 10b .cfa: $rsp .ra: .cfa 8 - ^
STACK CFI 3a394 .cfa: $rsp 48 +
STACK CFI INIT 3a4e4 114 .cfa: $rsp .ra: .cfa 8 - ^
STACK CFI 3a4e4 .cfa: $rsp 48 +
STACK CFI INIT 3a640 114 .cfa: $rsp .ra: .cfa 8 - ^
STACK CFI 3a640 .cfa: $rsp 48 +
STACK CFI INIT 3a7ac 2b .cfa: $rsp .ra: .cfa 8 - ^
STACK CFI 3a7ac .cfa: $rsp 48 +
STACK CFI INIT 3a7e4 2b .cfa: $rsp .ra: .cfa 8 - ^
STACK CFI 3a7e4 .cfa: $rsp 48 +
STACK CFI INIT 3a81c 2b .cfa: $rsp .ra: .cfa 8 - ^
STACK CFI 3a81c .cfa: $rsp 48 +
STACK CFI INIT 3a854 2b .cfa: $rsp .ra: .cfa 8 - ^
STACK CFI 3a854 .cfa: $rsp 48 +
STACK CFI INIT 3a88c 9b .cfa: $rsp .ra: .cfa 8 - ^
STACK CFI 3a88c .cfa: $rsp 48 +
STACK CFI INIT 3a950 9b .cfa: $rsp .ra: .cfa 8 - ^
STACK CFI 3a950 .cfa: $rsp 48 +
STACK CFI INIT 3aa14 9b .cfa: $rsp .ra: .cfa 8 - ^
STACK CFI 3aa14 .cfa: $rsp 48 +
STACK CFI INIT 3aad8 9b .cfa: $rsp .ra: .cfa 8 - ^
STACK CFI 3aad8 .cfa: $rsp 48 +
STACK CFI INIT 3abac 9b .cfa: $rsp .ra: .cfa 8 - ^
STACK CFI 3abac .cfa: $rsp 64 +
STACK CFI INIT 3ac70 9b .cfa: $rsp .ra: .cfa 8 - ^
STACK CFI 3ac70 .cfa: $rsp 64 +
STACK CFI INIT 3ad34 9d .cfa: $rsp .ra: .cfa 8 - ^
STACK CFI 3ad34 .cfa: $rsp 64 +
STACK CFI INIT 3adf8 9d .cfa: $rsp .ra: .cfa 8 - ^
STACK CFI 3adf8 .cfa: $rsp 64 +
STACK CFI INIT 3aecc 9a .cfa: $rsp .ra: .cfa 8 - ^
STACK CFI 3aecc .cfa: $rsp 48 +
STACK CFI INIT 3b020 48 .cfa: $rsp .ra: .cfa 8 - ^
STACK CFI 3b020 .cfa: $rsp 48 +
STACK CFI INIT 3b07c 4b .cfa: $rsp .ra: .cfa 8 - ^
STACK CFI 3b07c .cfa: $rsp 48 +
STACK CFI INIT 3b190 40 .cfa: $rsp .ra: .cfa 8 - ^
STACK CFI 3b190 .cfa: $rsp 48 +
STACK CFI INIT 3b1e0 43 .cfa: $rsp .ra: .cfa 8 - ^
STACK CFI 3b1e0 .cfa: $rsp 48 +
STACK CFI INIT 3b234 121 .cfa: $rsp .ra: .cfa 8 - ^
STACK CFI 3b234 .cfa: $rsp 96 +
STACK CFI INIT 3b3a0 121 .cfa: $rsp .ra: .cfa 8 - ^
STACK CFI 3b3a0 .cfa: $rsp 96 +
STACK CFI INIT 3b50c 121 .cfa: $rsp .ra: .cfa 8 - ^
STACK CFI 3b50c .cfa: $rsp 96 +
STACK CFI INIT 3b678 d5 .cfa: $rsp .ra: .cfa 8 - ^
STACK CFI 3b678 .cfa: $rsp 96 +
STACK CFI INIT 3b784 d5 .cfa: $rsp .ra: .cfa 8 - ^
STACK CFI 3b784 .cfa: $rsp 96 +
STACK CFI INIT 3b890 d5 .cfa: $rsp .ra: .cfa 8 - ^
STACK CFI 3b890 .cfa: $rsp 96 +
STACK CFI INIT 3b99c 106 .cfa: $rsp .ra: .cfa 8 - ^
STACK CFI 3b99c .cfa: $rsp 80 +
STACK CFI INIT 3bae4 106 .cfa: $rsp .ra: .cfa 8 - ^
STACK CFI 3bae4 .cfa: $rsp 80 +
STACK CFI INIT 3bc2c 106 .cfa: $rsp .ra: .cfa 8 - ^
STACK CFI 3bc2c .cfa: $rsp 80 +
STACK CFI INIT 3bd74 eb .cfa: $rsp .ra: .cfa 8 - ^
STACK CFI 3bd74 .cfa: $rsp 64 +
STACK CFI INIT 3be9c eb .cfa: $rsp .ra: .cfa 8 - ^
STACK CFI 3be9c .cfa: $rsp 64 +
STACK CFI INIT 3bfc4 eb .cfa: $rsp .ra: .cfa 8 - ^
STACK CFI 3bfc4 .cfa: $rsp 64 +
STACK CFI INIT 3c14c a3 .cfa: $rsp .ra: .cfa 8 - ^
STACK CFI 3c14c .cfa: $rsp 48 +
STACK CFI INIT 3c218 a5 .cfa: $rsp .ra: .cfa 8 - ^
STACK CFI 3c218 .cfa: $rsp 64 +
STACK CFI INIT 3c2e8 f5 .cfa: $rsp .ra: .cfa 8 - ^
STACK CFI 3c2e8 .cfa: $rsp 64 +
STACK CFI INIT 3c41c 103 .cfa: $rsp .ra: .cfa 8 - ^
STACK CFI 3c41c .cfa: $rsp 64 +
STACK CFI INIT 3c5bc 8b .cfa: $rsp .ra: .cfa 8 - ^
STACK CFI 3c5bc .cfa: $rsp 112 +
STACK CFI INIT 3c66c 8b .cfa: $rsp .ra: .cfa 8 - ^
STACK CFI 3c66c .cfa: $rsp 112 +
STACK CFI INIT 3c71c 8b .cfa: $rsp .ra: .cfa 8 - ^
STACK CFI 3c71c .cfa: $rsp 112 +
STACK CFI INIT 3c7cc 8b .cfa: $rsp .ra: .cfa 8 - ^
STACK CFI 3c7cc .cfa: $rsp 112 +
STACK CFI INIT 3c87c 8b .cfa: $rsp .ra: .cfa 8 - ^
STACK CFI 3c87c .cfa: $rsp 112 +
STACK CFI INIT 3c92c 8b .cfa: $rsp .ra: .cfa 8 - ^
STACK CFI 3c92c .cfa: $rsp 112 +
STACK CFI INIT 3c9dc 134 .cfa: $rsp .ra: .cfa 8 - ^
STACK CFI 3c9dc .cfa: $rsp 80 +
STACK CFI INIT 3cb60 143 .cfa: $rsp .ra: .cfa 8 - ^
STACK CFI 3cb60 .cfa: $rsp 80 +
STACK CFI INIT 3cd04 63 .cfa: $rsp .ra: .cfa 8 - ^
STACK CFI 3cd04 .cfa: $rsp 64 +
STACK CFI INIT 3cd90 6e .cfa: $rsp .ra: .cfa 8 - ^
STACK CFI 3cd90 .cfa: $rsp 64 +
STACK CFI INIT 3cf04 305 .cfa: $rsp .ra: .cfa 8 - ^
STACK CFI 3cf04 .cfa: $rsp 96 +
STACK CFI INIT 3d2cc 6a8 .cfa: $rsp .ra: .cfa 8 - ^
STACK CFI 3d2cc .cfa: $rsp 112 +
STACK CFI INIT 3db20 2f0 .cfa: $rsp .ra: .cfa 8 - ^
STACK CFI 3db20 .cfa: $rsp 96 +
STACK CFI INIT 3decc 758 .cfa: $rsp .ra: .cfa 8 - ^
STACK CFI 3decc .cfa: $rsp 208 +
STACK CFI INIT 3e7fc 2e .cfa: $rsp .ra: .cfa 8 - ^
STACK CFI 3e7fc .cfa: $rsp 64 +
STACK CFI INIT 3e838 2e .cfa: $rsp .ra: .cfa 8 - ^
STACK CFI 3e838 .cfa: $rsp 64 +
STACK CFI INIT 3e874 2e .cfa: $rsp .ra: .cfa 8 - ^
STACK CFI 3e874 .cfa: $rsp 64 +
STACK CFI INIT 3e8b0 2e .cfa: $rsp .ra: .cfa 8 - ^
STACK CFI 3e8b0 .cfa: $rsp 64 +
STACK CFI INIT 3e968 1e .cfa: $rsp .ra: .cfa 8 - ^
STACK CFI 3e968 .cfa: $rsp 48 +
STACK CFI INIT 3e990 18 .cfa: $rsp .ra: .cfa 8 - ^
STACK CFI 3e990 .cfa: $rsp 48 +
STACK CFI INIT 3ec78 2a .cfa: $rsp .ra: .cfa 8 - ^
STACK CFI 3ec78 .cfa: $rsp 48 +
STACK CFI INIT 3ecac 2d .cfa: $rsp .ra: .cfa 8 - ^
STACK CFI 3ecac .cfa: $rsp 48 +
STACK CFI INIT 3ece4 25 .cfa: $rsp .ra: .cfa 8 - ^
STACK CFI 3ece4 .cfa: $rsp 48 +
STACK CFI INIT 3ed14 25 .cfa: $rsp .ra: .cfa 8 - ^
STACK CFI 3ed14 .cfa: $rsp 48 +
STACK CFI INIT 3ef94 29 .cfa: $rsp .ra: .cfa 8 - ^
STACK CFI 3ef94 .cfa: $rsp 64 +
STACK CFI INIT 3efc8 2d .cfa: $rsp .ra: .cfa 8 - ^
STACK CFI 3efc8 .cfa: $rsp 64 +
STACK CFI INIT 3f000 2d .cfa: $rsp .ra: .cfa 8 - ^
STACK CFI 3f000 .cfa: $rsp 64 +
STACK CFI INIT 3f038 2d .cfa: $rsp .ra: .cfa 8 - ^
STACK CFI 3f038 .cfa: $rsp 64 +
STACK CFI INIT 3f070 2d .cfa: $rsp .ra: .cfa 8 - ^
STACK CFI 3f070 .cfa: $rsp 64 +
STACK CFI INIT 3f0a8 61 .cfa: $rsp .ra: .cfa 8 - ^
STACK CFI 3f0a8 .cfa: $rsp 48 +
STACK CFI INIT 3f124 76 .cfa: $rsp .ra: .cfa 8 - ^
STACK CFI 3f124 .cfa: $rsp 48 +
STACK CFI INIT 3f1b8 29 .cfa: $rsp .ra: .cfa 8 - ^
STACK CFI 3f1b8 .cfa: $rsp 64 +
STACK CFI INIT 3f1ec 29 .cfa: $rsp .ra: .cfa 8 - ^
STACK CFI 3f1ec .cfa: $rsp 64 +
STACK CFI INIT 3f220 2d .cfa: $rsp .ra: .cfa 8 - ^
STACK CFI 3f220 .cfa: $rsp 64 +
STACK CFI INIT 3f258 2d .cfa: $rsp .ra: .cfa 8 - ^
STACK CFI 3f258 .cfa: $rsp 64 +
STACK CFI INIT 3f290 29 .cfa: $rsp .ra: .cfa 8 - ^
STACK CFI 3f290 .cfa: $rsp 64 +
STACK CFI INIT 3f2c4 2d .cfa: $rsp .ra: .cfa 8 - ^
STACK CFI 3f2c4 .cfa: $rsp 64 +
STACK CFI INIT 3f2fc 29 .cfa: $rsp .ra: .cfa 8 - ^
STACK CFI 3f2fc .cfa: $rsp 64 +
STACK CFI INIT 3f330 2d .cfa: $rsp .ra: .cfa 8 - ^
STACK CFI 3f330 .cfa: $rsp 64 +
STACK CFI INIT 3f368 29 .cfa: $rsp .ra: .cfa 8 - ^
STACK CFI 3f368 .cfa: $rsp 64 +
STACK CFI INIT 3f39c 29 .cfa: $rsp .ra: .cfa 8 - ^
STACK CFI 3f39c .cfa: $rsp 64 +
STACK CFI INIT 3f3d0 29 .cfa: $rsp .ra: .cfa 8 - ^
STACK CFI 3f3d0 .cfa: $rsp 64 +
STACK CFI INIT 3f420 7d .cfa: $rsp .ra: .cfa 8 - ^
STACK CFI 3f420 .cfa: $rsp 8 +
STACK CFI INIT 3f4e4 56 .cfa: $rsp .ra: .cfa 8 - ^
STACK CFI 3f4e4 .cfa: $rsp 48 +
STACK CFI INIT 3f59c 3f .cfa: $rsp .ra: .cfa 8 - ^
STACK CFI 3f59c .cfa: $rsp 48 +
STACK CFI INIT 3f5ec 3d .cfa: $rsp .ra: .cfa 8 - ^
STACK CFI 3f5ec .cfa: $rsp 48 +
STACK CFI INIT 3f638 45 .cfa: $rsp .ra: .cfa 8 - ^
STACK CFI 3f638 .cfa: $rsp 48 +
STACK CFI INIT 3f690 5f .cfa: $rsp .ra: .cfa 8 - ^
STACK CFI 3f690 .cfa: $rsp 48 +
STACK CFI INIT 3f708 26 .cfa: $rsp .ra: .cfa 8 - ^
STACK CFI 3f708 .cfa: $rsp 48 +
STACK CFI INIT 3f738 26 .cfa: $rsp .ra: .cfa 8 - ^
STACK CFI 3f738 .cfa: $rsp 48 +
STACK CFI INIT 3f768 26 .cfa: $rsp .ra: .cfa 8 - ^
STACK CFI 3f768 .cfa: $rsp 48 +
STACK CFI INIT 3f798 26 .cfa: $rsp .ra: .cfa 8 - ^
STACK CFI 3f798 .cfa: $rsp 48 +
STACK CFI INIT 3f858 1a .cfa: $rsp .ra: .cfa 8 - ^
STACK CFI 3f858 .cfa: $rsp 48 +
STACK CFI INIT 3f878 1b .cfa: $rsp .ra: .cfa 8 - ^
STACK CFI 3f878 .cfa: $rsp 48 +
STACK CFI INIT 3f8bc 38 .cfa: $rsp .ra: .cfa 8 - ^
STACK CFI 3f8bc .cfa: $rsp 48 +
STACK CFI INIT 3f980 c5 .cfa: $rsp .ra: .cfa 8 - ^
STACK CFI 3f980 .cfa: $rsp 80 +
STACK CFI INIT 3fa78 cd .cfa: $rsp .ra: .cfa 8 - ^
STACK CFI 3fa78 .cfa: $rsp 96 +
STACK CFI INIT 3fb7c 20 .cfa: $rsp .ra: .cfa 8 - ^
STACK CFI 3fb7c .cfa: $rsp 48 +
STACK CFI INIT 3fba4 f5 .cfa: $rsp .ra: .cfa 8 - ^
STACK CFI 3fba4 .cfa: $rsp 64 +
STACK CFI INIT 3fcd8 f5 .cfa: $rsp .ra: .cfa 8 - ^
STACK CFI 3fcd8 .cfa: $rsp 80 +
STACK CFI INIT 3fe20 9f .cfa: $rsp .ra: .cfa 8 - ^
STACK CFI 3fe20 .cfa: $rsp 48 +
STACK CFI INIT 3fee8 c8 .cfa: $rsp .ra: .cfa 8 - ^
STACK CFI 3fee8 .cfa: $rsp 48 +
STACK CFI INIT 3fff0 1b .cfa: $rsp .ra: .cfa 8 - ^
STACK CFI 3fff0 .cfa: $rsp 48 +
STACK CFI INIT 40014 67 .cfa: $rsp .ra: .cfa 8 - ^
STACK CFI 40014 .cfa: $rsp 48 +
STACK CFI INIT 40094 20 .cfa: $rsp .ra: .cfa 8 - ^
STACK CFI 40094 .cfa: $rsp 48 +
STACK CFI INIT 400c0 41 .cfa: $rsp .ra: .cfa 8 - ^
STACK CFI 400c0 .cfa: $rsp 48 +
STACK CFI INIT 40114 d4 .cfa: $rsp .ra: .cfa 8 - ^
STACK CFI 40114 .cfa: $rsp 48 +
STACK CFI INIT 40220 a7 .cfa: $rsp .ra: .cfa 8 - ^
STACK CFI 40220 .cfa: $rsp 48 +
STACK CFI INIT 402f0 cc .cfa: $rsp .ra: .cfa 8 - ^
STACK CFI 402f0 .cfa: $rsp 48 +
STACK CFI INIT 403f0 39 .cfa: $rsp .ra: .cfa 8 - ^
STACK CFI 403f0 .cfa: $rsp 48 +
STACK CFI INIT 40438 22 .cfa: $rsp .ra: .cfa 8 - ^
STACK CFI 40438 .cfa: $rsp 48 +
STACK CFI INIT 40480 3d .cfa: $rsp .ra: .cfa 8 - ^
STACK CFI 40480 .cfa: $rsp 48 +
STACK CFI INIT 404cc 48 .cfa: $rsp .ra: .cfa 8 - ^
STACK CFI 404cc .cfa: $rsp 48 +
STACK CFI INIT 40548 37 .cfa: $rsp .ra: .cfa 8 - ^
STACK CFI 40548 .cfa: $rsp 48 +
STACK CFI INIT 405ac 1b .cfa: $rsp .ra: .cfa 8 - ^
STACK CFI 405ac .cfa: $rsp 48 +
STACK CFI INIT 405e4 4c .cfa: $rsp .ra: .cfa 8 - ^
STACK CFI 405e4 .cfa: $rsp 48 +
STACK CFI INIT 40644 4c .cfa: $rsp .ra: .cfa 8 - ^
STACK CFI 40644 .cfa: $rsp 48 +
STACK CFI INIT 406a4 69 .cfa: $rsp .ra: .cfa 8 - ^
STACK CFI 406a4 .cfa: $rsp 48 +
STACK CFI INIT 40728 38 .cfa: $rsp .ra: .cfa 8 - ^
STACK CFI 40728 .cfa: $rsp 48 +
STACK CFI INIT 407ec 51 .cfa: $rsp .ra: .cfa 8 - ^
STACK CFI 407ec .cfa: $rsp 48 +
STACK CFI INIT 40854 51 .cfa: $rsp .ra: .cfa 8 - ^
STACK CFI 40854 .cfa: $rsp 48 +
STACK CFI INIT 408bc 3c .cfa: $rsp .ra: .cfa 8 - ^
STACK CFI 408bc .cfa: $rsp 48 +
STACK CFI INIT 40908 6c .cfa: $rsp .ra: .cfa 8 - ^
STACK CFI 40908 .cfa: $rsp 48 +
STACK CFI INIT 409e8 4e .cfa: $rsp .ra: .cfa 8 - ^
STACK CFI 409e8 .cfa: $rsp 48 +
STACK CFI INIT 40a4c 20 .cfa: $rsp .ra: .cfa 8 - ^
STACK CFI 40a4c .cfa: $rsp 48 +
STACK CFI INIT 40a74 20 .cfa: $rsp .ra: .cfa 8 - ^
STACK CFI 40a74 .cfa: $rsp 48 +
STACK CFI INIT 40a9c 3b .cfa: $rsp .ra: .cfa 8 - ^
STACK CFI 40a9c .cfa: $rsp 48 +
STACK CFI INIT 40ae8 3b .cfa: $rsp .ra: .cfa 8 - ^
STACK CFI 40ae8 .cfa: $rsp 48 +
STACK CFI INIT 40b34 3a .cfa: $rsp .ra: .cfa 8 - ^
STACK CFI 40b34 .cfa: $rsp 48 +
STACK CFI INIT 40b7c 3a .cfa: $rsp .ra: .cfa 8 - ^
STACK CFI 40b7c .cfa: $rsp 48 +
STACK CFI INIT 40bc4 75 .cfa: $rsp .ra: .cfa 8 - ^
STACK CFI 40bc4 .cfa: $rsp 48 +
STACK CFI INIT 40c88 179 .cfa: $rsp .ra: .cfa 8 - ^
STACK CFI 40c88 .cfa: $rsp 64 +
STACK CFI INIT 40e60 18b .cfa: $rsp .ra: .cfa 8 - ^
STACK CFI 40e60 .cfa: $rsp 80 +
STACK CFI INIT 41050 176 .cfa: $rsp .ra: .cfa 8 - ^
STACK CFI 41050 .cfa: $rsp 64 +
STACK CFI INIT 41224 18a .cfa: $rsp .ra: .cfa 8 - ^
STACK CFI 41224 .cfa: $rsp 80 +
STACK CFI INIT 41410 209 .cfa: $rsp .ra: .cfa 8 - ^
STACK CFI 41410 .cfa: $rsp 160 +
STACK CFI INIT 4169c 3ca .cfa: $rsp .ra: .cfa 8 - ^
STACK CFI 4169c .cfa: $rsp 768 +
STACK CFI INIT 41b58 187 .cfa: $rsp .ra: .cfa 8 - ^
STACK CFI 41b58 .cfa: $rsp 96 +
STACK CFI INIT 41d40 189 .cfa: $rsp .ra: .cfa 8 - ^
STACK CFI 41d40 .cfa: $rsp 96 +
STACK CFI INIT 41f2c 30e .cfa: $rsp .ra: .cfa 8 - ^
STACK CFI 41f2c .cfa: $rsp 880 +
STACK CFI INIT 42300 19b .cfa: $rsp .ra: .cfa 8 - ^
STACK CFI 42300 .cfa: $rsp 704 +
STACK CFI INIT 4265c 22 .cfa: $rsp .ra: .cfa 8 - ^
STACK CFI 4265c .cfa: $rsp 48 +
STACK CFI INIT 42688 22 .cfa: $rsp .ra: .cfa 8 - ^
STACK CFI 42688 .cfa: $rsp 48 +
STACK CFI INIT 426b4 22 .cfa: $rsp .ra: .cfa 8 - ^
STACK CFI 426b4 .cfa: $rsp 48 +
STACK CFI INIT 426e0 3d .cfa: $rsp .ra: .cfa 8 - ^
STACK CFI 426e0 .cfa: $rsp 48 +
STACK CFI INIT 4272c 3d .cfa: $rsp .ra: .cfa 8 - ^
STACK CFI 4272c .cfa: $rsp 48 +
STACK CFI INIT 42790 25 .cfa: $rsp .ra: .cfa 8 - ^
STACK CFI 42790 .cfa: $rsp 64 +
STACK CFI INIT 42848 2f .cfa: $rsp .ra: .cfa 8 - ^
STACK CFI 42848 .cfa: $rsp 80 +
STACK CFI INIT 42884 49 .cfa: $rsp .ra: .cfa 8 - ^
STACK CFI 42884 .cfa: $rsp 80 +
STACK CFI INIT 428e0 22 .cfa: $rsp .ra: .cfa 8 - ^
STACK CFI 428e0 .cfa: $rsp 48 +
STACK CFI INIT 4290c 22 .cfa: $rsp .ra: .cfa 8 - ^
STACK CFI 4290c .cfa: $rsp 48 +
STACK CFI INIT 42938 5b .cfa: $rsp .ra: .cfa 8 - ^
STACK CFI 42938 .cfa: $rsp 48 +
STACK CFI INIT 429ac 5c .cfa: $rsp .ra: .cfa 8 - ^
STACK CFI 429ac .cfa: $rsp 48 +
STACK CFI INIT 42a20 24 .cfa: $rsp .ra: .cfa 8 - ^
STACK CFI 42a20 .cfa: $rsp 48 +
STACK CFI INIT 42a50 de .cfa: $rsp .ra: .cfa 8 - ^
STACK CFI 42a50 .cfa: $rsp 48 +
STACK CFI INIT 42b68 de .cfa: $rsp .ra: .cfa 8 - ^
STACK CFI 42b68 .cfa: $rsp 48 +
STACK CFI INIT 42c98 22 .cfa: $rsp .ra: .cfa 8 - ^
STACK CFI 42c98 .cfa: $rsp 48 +
STACK CFI INIT 42cc4 14 .cfa: $rsp .ra: .cfa 8 - ^
STACK CFI 42cc4 .cfa: $rsp 48 +
STACK CFI INIT 42d10 c7 .cfa: $rsp .ra: .cfa 8 - ^
STACK CFI 42d10 .cfa: $rsp 48 +
STACK CFI INIT 42e08 c7 .cfa: $rsp .ra: .cfa 8 - ^
STACK CFI 42e08 .cfa: $rsp 48 +
STACK CFI INIT 42f04 9d .cfa: $rsp .ra: .cfa 8 - ^
STACK CFI 42f04 .cfa: $rsp 80 +
STACK CFI INIT 42fd8 9d .cfa: $rsp .ra: .cfa 8 - ^
STACK CFI 42fd8 .cfa: $rsp 80 +
STACK CFI INIT 430ac 31 .cfa: $rsp .ra: .cfa 8 - ^
STACK CFI 430ac .cfa: $rsp 48 +
STACK CFI INIT 430ec 31 .cfa: $rsp .ra: .cfa 8 - ^
STACK CFI 430ec .cfa: $rsp 48 +
STACK CFI INIT 4317c 119 .cfa: $rsp .ra: .cfa 8 - ^
STACK CFI 4317c .cfa: $rsp 80 +
STACK CFI INIT 432dc 111 .cfa: $rsp .ra: .cfa 8 - ^
STACK CFI 432dc .cfa: $rsp 80 +
STACK CFI INIT 43468 2f .cfa: $rsp .ra: .cfa 8 - ^
STACK CFI 43468 .cfa: $rsp 80 +
STACK CFI INIT 434b4 30 .cfa: $rsp .ra: .cfa 8 - ^
STACK CFI 434b4 .cfa: $rsp 48 +
STACK CFI INIT 434f0 17 .cfa: $rsp .ra: .cfa 8 - ^
STACK CFI 434f0 .cfa: $rsp 48 +
STACK CFI INIT 43550 11e .cfa: $rsp .ra: .cfa 8 - ^
STACK CFI 43550 .cfa: $rsp 672 +
STACK CFI INIT 436c4 1ba .cfa: $rsp .ra: .cfa 8 - ^
STACK CFI 436c4 .cfa: $rsp 48 +
STACK CFI INIT 438ec 26 .cfa: $rsp .ra: .cfa 8 - ^
STACK CFI 438ec .cfa: $rsp 48 +
STACK CFI INIT 43954 1b .cfa: $rsp .ra: .cfa 8 - ^
STACK CFI 43954 .cfa: $rsp 48 +
STACK CFI INIT 4398c 1a0 .cfa: $rsp .ra: .cfa 8 - ^
STACK CFI 4398c .cfa: $rsp 48 +
STACK CFI INIT 43bfc 7d .cfa: $rsp .ra: .cfa 8 - ^
STACK CFI 43bfc .cfa: $rsp 80 +
STACK CFI INIT 43c98 27 .cfa: $rsp .ra: .cfa 8 - ^
STACK CFI 43c98 .cfa: $rsp 8 +
STACK CFI INIT 43cd4 1b .cfa: $rsp .ra: .cfa 8 - ^
STACK CFI 43cd4 .cfa: $rsp 48 +
STACK CFI INIT 43cf8 90 .cfa: $rsp .ra: .cfa 8 - ^
STACK CFI 43cf8 .cfa: $rsp 48 +
STACK CFI INIT 43dac 1e3 .cfa: $rsp .ra: .cfa 8 - ^
STACK CFI 43dac .cfa: $rsp 1936 +
STACK CFI INIT 44008 1c2 .cfa: $rsp .ra: .cfa 8 - ^
STACK CFI 44008 .cfa: $rsp 96 +
STACK CFI INIT 4423c b8 .cfa: $rsp .ra: .cfa 8 - ^
STACK CFI 4423c .cfa: $rsp 48 +
STACK CFI INIT 4432c 60 .cfa: $rsp .ra: .cfa 8 - ^
STACK CFI 4432c .cfa: $rsp 48 +
STACK CFI INIT 443a4 1c .cfa: $rsp .ra: .cfa 8 - ^
STACK CFI 443a4 .cfa: $rsp 48 +
STACK CFI INIT 443e0 3a .cfa: $rsp .ra: .cfa 8 - ^
STACK CFI 443e0 .cfa: $rsp 80 +
STACK CFI INIT 44428 25 .cfa: $rsp .ra: .cfa 8 - ^
STACK CFI 44428 .cfa: $rsp 48 +
STACK CFI INIT 44458 2b9 .cfa: $rsp .ra: .cfa 8 - ^
STACK CFI 44458 .cfa: $rsp 128 +
STACK CFI INIT 447c0 87 .cfa: $rsp .ra: .cfa 8 - ^
STACK CFI 447c0 .cfa: $rsp 48 +
STACK CFI INIT 44868 75 .cfa: $rsp .ra: .cfa 8 - ^
STACK CFI 44868 .cfa: $rsp 80 +
STACK CFI INIT 44a38 65 .cfa: $rsp .ra: .cfa 8 - ^
STACK CFI 44a38 .cfa: $rsp 80 +
STACK CFI INIT 44bf8 25 .cfa: $rsp .ra: .cfa 8 - ^
STACK CFI 44bf8 .cfa: $rsp 48 +
STACK CFI INIT 44c80 36 .cfa: $rsp .ra: .cfa 8 - ^
STACK CFI 44c80 .cfa: $rsp 48 +
STACK CFI INIT 44cc4 36 .cfa: $rsp .ra: .cfa 8 - ^
STACK CFI 44cc4 .cfa: $rsp 48 +
STACK CFI INIT 44d08 6c .cfa: $rsp .ra: .cfa 8 - ^
STACK CFI 44d08 .cfa: $rsp 48 +
STACK CFI INIT 44d90 65 .cfa: $rsp .ra: .cfa 8 - ^
STACK CFI 44d90 .cfa: $rsp 48 +
STACK CFI INIT 44f44 96 .cfa: $rsp .ra: .cfa 8 - ^
STACK CFI 44f44 .cfa: $rsp 16 +
STACK CFI INIT 45008 21 .cfa: $rsp .ra: .cfa 8 - ^
STACK CFI 45008 .cfa: $rsp 48 +
STACK CFI INIT 45040 21 .cfa: $rsp .ra: .cfa 8 - ^
STACK CFI 45040 .cfa: $rsp 48 +
STACK CFI INIT 4506c 11 .cfa: $rsp .ra: .cfa 8 - ^
STACK CFI 4506c .cfa: $rsp 48 +
STACK CFI INIT 450c4 101 .cfa: $rsp .ra: .cfa 8 - ^
STACK CFI 450c4 .cfa: $rsp 80 +
STACK CFI INIT 45208 9f .cfa: $rsp .ra: .cfa 8 - ^
STACK CFI 45208 .cfa: $rsp 48 +
STACK CFI INIT 452d0 320 .cfa: $rsp .ra: .cfa 8 - ^
STACK CFI 452d0 .cfa: $rsp 112 +
STACK CFI INIT 456b8 322 .cfa: $rsp .ra: .cfa 8 - ^
STACK CFI 456b8 .cfa: $rsp 96 +
STACK CFI INIT 45aa4 e5 .cfa: $rsp .ra: .cfa 8 - ^
STACK CFI 45aa4 .cfa: $rsp 64 +
STACK CFI INIT 45bc4 ef .cfa: $rsp .ra: .cfa 8 - ^
STACK CFI 45bc4 .cfa: $rsp 64 +
STACK CFI INIT 45cf0 25 .cfa: $rsp .ra: .cfa 8 - ^
STACK CFI 45cf0 .cfa: $rsp 48 +
STACK CFI INIT 45d20 25 .cfa: $rsp .ra: .cfa 8 - ^
STACK CFI 45d20 .cfa: $rsp 48 +
STACK CFI INIT 45d50 81 .cfa: $rsp .ra: .cfa 8 - ^
STACK CFI 45d50 .cfa: $rsp 48 +
STACK CFI INIT 45df4 91 .cfa: $rsp .ra: .cfa 8 - ^
STACK CFI 45df4 .cfa: $rsp 48 +
STACK CFI INIT 46014 95 .cfa: $rsp .ra: .cfa 8 - ^
STACK CFI 46014 .cfa: $rsp 48 +
STACK CFI INIT 46110 79 .cfa: $rsp .ra: .cfa 8 - ^
STACK CFI 46110 .cfa: $rsp 48 +
STACK CFI INIT 461a8 26 .cfa: $rsp .ra: .cfa 8 - ^
STACK CFI 461a8 .cfa: $rsp 48 +
STACK CFI INIT 46258 53 .cfa: $rsp .ra: .cfa 8 - ^
STACK CFI 46258 .cfa: $rsp 48 +
STACK CFI INIT 462f4 4d .cfa: $rsp .ra: .cfa 8 - ^
STACK CFI 462f4 .cfa: $rsp 48 +
STACK CFI INIT 468a8 119 .cfa: $rsp .ra: .cfa 8 - ^
STACK CFI 468a8 .cfa: $rsp 64 +
STACK CFI INIT 46a08 1d6 .cfa: $rsp .ra: .cfa 8 - ^
STACK CFI 46a08 .cfa: $rsp 80 +
STACK CFI INIT 46c54 fe .cfa: $rsp .ra: .cfa 8 - ^
STACK CFI 46c54 .cfa: $rsp 48 +
STACK CFI INIT 46d94 137 .cfa: $rsp .ra: .cfa 8 - ^
STACK CFI 46d94 .cfa: $rsp 64 +
STACK CFI INIT 46f18 73 .cfa: $rsp .ra: .cfa 8 - ^
STACK CFI 46f18 .cfa: $rsp 48 +
STACK CFI INIT 46fb4 4e .cfa: $rsp .ra: .cfa 8 - ^
STACK CFI 46fb4 .cfa: $rsp 48 +
STACK CFI INIT 47018 4e .cfa: $rsp .ra: .cfa 8 - ^
STACK CFI 47018 .cfa: $rsp 48 +
STACK CFI INIT 4707c 4e .cfa: $rsp .ra: .cfa 8 - ^
STACK CFI 4707c .cfa: $rsp 48 +
STACK CFI INIT 470e0 4e .cfa: $rsp .ra: .cfa 8 - ^
STACK CFI 470e0 .cfa: $rsp 48 +
STACK CFI INIT 47144 3a .cfa: $rsp .ra: .cfa 8 - ^
STACK CFI 47144 .cfa: $rsp 48 +
STACK CFI INIT 4718c dc .cfa: $rsp .ra: .cfa 8 - ^
STACK CFI 4718c .cfa: $rsp 96 +
STACK CFI INIT 472a0 95 .cfa: $rsp .ra: .cfa 8 - ^
STACK CFI 472a0 .cfa: $rsp 96 +
STACK CFI INIT 4735c 48 .cfa: $rsp .ra: .cfa 8 - ^
STACK CFI 4735c .cfa: $rsp 48 +
STACK CFI INIT 473b8 46 .cfa: $rsp .ra: .cfa 8 - ^
STACK CFI 473b8 .cfa: $rsp 48 +
STACK CFI INIT 47410 46 .cfa: $rsp .ra: .cfa 8 - ^
STACK CFI 47410 .cfa: $rsp 48 +
STACK CFI INIT 47468 51 .cfa: $rsp .ra: .cfa 8 - ^
STACK CFI 47468 .cfa: $rsp 48 +
STACK CFI INIT 474d0 b6 .cfa: $rsp .ra: .cfa 8 - ^
STACK CFI 474d0 .cfa: $rsp 80 +
STACK CFI INIT 475b4 39 .cfa: $rsp .ra: .cfa 8 - ^
STACK CFI 475b4 .cfa: $rsp 48 +
STACK CFI INIT 475fc 82 .cfa: $rsp .ra: .cfa 8 - ^
STACK CFI 475fc .cfa: $rsp 64 +
STACK CFI INIT 476a0 48 .cfa: $rsp .ra: .cfa 8 - ^
STACK CFI 476a0 .cfa: $rsp 48 +
STACK CFI INIT 476fc ab .cfa: $rsp .ra: .cfa 8 - ^
STACK CFI 476fc .cfa: $rsp 80 +
STACK CFI INIT 477d4 61 .cfa: $rsp .ra: .cfa 8 - ^
STACK CFI 477d4 .cfa: $rsp 48 +
STACK CFI INIT 47850 51 .cfa: $rsp .ra: .cfa 8 - ^
STACK CFI 47850 .cfa: $rsp 48 +
STACK CFI INIT 478b8 61 .cfa: $rsp .ra: .cfa 8 - ^
STACK CFI 478b8 .cfa: $rsp 48 +
STACK CFI INIT 47934 56 .cfa: $rsp .ra: .cfa 8 - ^
STACK CFI 47934 .cfa: $rsp 48 +
STACK CFI INIT 479a0 70 .cfa: $rsp .ra: .cfa 8 - ^
STACK CFI 479a0 .cfa: $rsp 64 +
STACK CFI INIT 47a2c dc .cfa: $rsp .ra: .cfa 8 - ^
STACK CFI 47a2c .cfa: $rsp 96 +
STACK CFI INIT 47b40 50 .cfa: $rsp .ra: .cfa 8 - ^
STACK CFI 47b40 .cfa: $rsp 48 +
STACK CFI INIT 47ba4 5f .cfa: $rsp .ra: .cfa 8 - ^
STACK CFI 47ba4 .cfa: $rsp 48 +
STACK CFI INIT 47c1c 71 .cfa: $rsp .ra: .cfa 8 - ^
STACK CFI 47c1c .cfa: $rsp 64 +
STACK CFI INIT 47cac 71 .cfa: $rsp .ra: .cfa 8 - ^
STACK CFI 47cac .cfa: $rsp 64 +
STACK CFI INIT 47d3c 40 .cfa: $rsp .ra: .cfa 8 - ^
STACK CFI 47d3c .cfa: $rsp 48 +
STACK CFI INIT 47d8c 33 .cfa: $rsp .ra: .cfa 8 - ^
STACK CFI 47d8c .cfa: $rsp 48 +
STACK CFI INIT 47dcc 4f .cfa: $rsp .ra: .cfa 8 - ^
STACK CFI 47dcc .cfa: $rsp 48 +
STACK CFI INIT 47e30 42 .cfa: $rsp .ra: .cfa 8 - ^
STACK CFI 47e30 .cfa: $rsp 48 +
STACK CFI INIT 47e84 6d .cfa: $rsp .ra: .cfa 8 - ^
STACK CFI 47e84 .cfa: $rsp 48 +
STACK CFI INIT 47f0c 2e .cfa: $rsp .ra: .cfa 8 - ^
STACK CFI 47f0c .cfa: $rsp 48 +
STACK CFI INIT 47f48 2e .cfa: $rsp .ra: .cfa 8 - ^
STACK CFI 47f48 .cfa: $rsp 48 +
STACK CFI INIT 47f84 15a .cfa: $rsp .ra: .cfa 8 - ^
STACK CFI 47f84 .cfa: $rsp 48 +
STACK CFI INIT 48134 78 .cfa: $rsp .ra: .cfa 8 - ^
STACK CFI 48134 .cfa: $rsp 48 +
STACK CFI INIT 481cc 31 .cfa: $rsp .ra: .cfa 8 - ^
STACK CFI 481cc .cfa: $rsp 8 +
STACK CFI INIT 4820c c6 .cfa: $rsp .ra: .cfa 8 - ^
STACK CFI 4820c .cfa: $rsp 96 +
STACK CFI INIT 48304 41 .cfa: $rsp .ra: .cfa 8 - ^
STACK CFI 48304 .cfa: $rsp 48 +
STACK CFI INIT 48364 1c .cfa: $rsp .ra: .cfa 8 - ^
STACK CFI 48364 .cfa: $rsp 48 +
STACK CFI INIT 483c8 ed .cfa: $rsp .ra: .cfa 8 - ^
STACK CFI 483c8 .cfa: $rsp 160 +
STACK CFI INIT 484f0 10c .cfa: $rsp .ra: .cfa 8 - ^
STACK CFI 484f0 .cfa: $rsp 48 +
STACK CFI INIT 48640 3b .cfa: $rsp .ra: .cfa 8 - ^
STACK CFI 48640 .cfa: $rsp 48 +
STACK CFI INIT 4868c 40 .cfa: $rsp .ra: .cfa 8 - ^
STACK CFI 4868c .cfa: $rsp 48 +
STACK CFI INIT 486dc 80 .cfa: $rsp .ra: .cfa 8 - ^
STACK CFI 486dc .cfa: $rsp 48 +
STACK CFI INIT 4877c 3c .cfa: $rsp .ra: .cfa 8 - ^
STACK CFI 4877c .cfa: $rsp 48 +
STACK CFI INIT 48828 27 .cfa: $rsp .ra: .cfa 8 - ^
STACK CFI 48828 .cfa: $rsp 8 +
STACK CFI INIT 48868 2f .cfa: $rsp .ra: .cfa 8 - ^
STACK CFI 48868 .cfa: $rsp 48 +
STACK CFI INIT 488a4 34 .cfa: $rsp .ra: .cfa 8 - ^
STACK CFI 488a4 .cfa: $rsp 48 +
STACK CFI INIT 488e8 59 .cfa: $rsp .ra: .cfa 8 - ^
STACK CFI 488e8 .cfa: $rsp 48 +
STACK CFI INIT 48964 45 .cfa: $rsp .ra: .cfa 8 - ^
STACK CFI 48964 .cfa: $rsp 48 +
STACK CFI INIT 489bc 26 .cfa: $rsp .ra: .cfa 8 - ^
STACK CFI 489bc .cfa: $rsp 48 +
STACK CFI INIT 48a74 92 .cfa: $rsp .ra: .cfa 8 - ^
STACK CFI 48a74 .cfa: $rsp 48 +
STACK CFI INIT 48b78 27 .cfa: $rsp .ra: .cfa 8 - ^
STACK CFI 48b78 .cfa: $rsp 8 +
STACK CFI INIT 48c04 27 .cfa: $rsp .ra: .cfa 8 - ^
STACK CFI 48c04 .cfa: $rsp 48 +
STACK CFI INIT 48c38 2e .cfa: $rsp .ra: .cfa 8 - ^
STACK CFI 48c38 .cfa: $rsp 48 +
STACK CFI INIT 48c98 12 .cfa: $rsp .ra: .cfa 8 - ^
STACK CFI 48c98 .cfa: $rsp 48 +
STACK CFI INIT 48cb0 12 .cfa: $rsp .ra: .cfa 8 - ^
STACK CFI 48cb0 .cfa: $rsp 48 +
STACK CFI INIT 48cc8 26c .cfa: $rsp .ra: .cfa 8 - ^
STACK CFI 48cc8 .cfa: $rsp 112 +
STACK CFI INIT 48fd0 1da .cfa: $rsp .ra: .cfa 8 - ^
STACK CFI 48fd0 .cfa: $rsp 64 +
STACK CFI INIT 49264 27 .cfa: $rsp .ra: .cfa 8 - ^
STACK CFI 49264 .cfa: $rsp 8 +
STACK CFI INIT 49334 9a .cfa: $rsp .ra: .cfa 8 - ^
STACK CFI 49334 .cfa: $rsp 48 +
STACK CFI INIT 493f4 e0 .cfa: $rsp .ra: .cfa 8 - ^
STACK CFI 493f4 .cfa: $rsp 128 +
STACK CFI INIT 4950c 40 .cfa: $rsp .ra: .cfa 8 - ^
STACK CFI 4950c .cfa: $rsp 48 +
STACK CFI INIT 4955c 26 .cfa: $rsp .ra: .cfa 8 - ^
STACK CFI 4955c .cfa: $rsp 48 +
STACK CFI INIT 4958c 28 .cfa: $rsp .ra: .cfa 8 - ^
STACK CFI 4958c .cfa: $rsp 48 +
STACK CFI INIT 495c0 28 .cfa: $rsp .ra: .cfa 8 - ^
STACK CFI 495c0 .cfa: $rsp 48 +
STACK CFI INIT 496b0 ae .cfa: $rsp .ra: .cfa 8 - ^
STACK CFI 496b0 .cfa: $rsp 112 +
STACK CFI INIT 49798 78 .cfa: $rsp .ra: .cfa 8 - ^
STACK CFI 49798 .cfa: $rsp 48 +
STACK CFI INIT 49854 5d .cfa: $rsp .ra: .cfa 8 - ^
STACK CFI 49854 .cfa: $rsp 80 +
STACK CFI INIT 499b8 7a .cfa: $rsp .ra: .cfa 8 - ^
STACK CFI 499b8 .cfa: $rsp 48 +
STACK CFI INIT 49a50 4b .cfa: $rsp .ra: .cfa 8 - ^
STACK CFI 49a50 .cfa: $rsp 48 +
STACK CFI INIT 49ab8 66 .cfa: $rsp .ra: .cfa 8 - ^
STACK CFI 49ab8 .cfa: $rsp 64 +
STACK CFI INIT 49b38 30 .cfa: $rsp .ra: .cfa 8 - ^
STACK CFI 49b38 .cfa: $rsp 48 +
STACK CFI INIT 49b88 1b .cfa: $rsp .ra: .cfa 8 - ^
STACK CFI 49b88 .cfa: $rsp 48 +
STACK CFI INIT 49bb8 1b .cfa: $rsp .ra: .cfa 8 - ^
STACK CFI 49bb8 .cfa: $rsp 48 +
STACK CFI INIT 49bdc 11f .cfa: $rsp .ra: .cfa 8 - ^
STACK CFI 49bdc .cfa: $rsp 48 +
STACK CFI INIT 49d5c 5b .cfa: $rsp .ra: .cfa 8 - ^
STACK CFI 49d5c .cfa: $rsp 48 +
STACK CFI INIT 49dd0 47 .cfa: $rsp .ra: .cfa 8 - ^
STACK CFI 49dd0 .cfa: $rsp 48 +
STACK CFI INIT 49e7c cf .cfa: $rsp .ra: .cfa 8 - ^
STACK CFI 49e7c .cfa: $rsp 48 +
STACK CFI INIT 49f80 39 .cfa: $rsp .ra: .cfa 8 - ^
STACK CFI 49f80 .cfa: $rsp 48 +
STACK CFI INIT 49fc8 5e .cfa: $rsp .ra: .cfa 8 - ^
STACK CFI 49fc8 .cfa: $rsp 48 +
STACK CFI INIT 4a070 2e .cfa: $rsp .ra: .cfa 8 - ^
STACK CFI 4a070 .cfa: $rsp 64 +
STACK CFI INIT 4a0ac 2e .cfa: $rsp .ra: .cfa 8 - ^
STACK CFI 4a0ac .cfa: $rsp 64 +
STACK CFI INIT 4a0e8 2e .cfa: $rsp .ra: .cfa 8 - ^
STACK CFI 4a0e8 .cfa: $rsp 64 +
STACK CFI INIT 4a124 2e .cfa: $rsp .ra: .cfa 8 - ^
STACK CFI 4a124 .cfa: $rsp 64 +
STACK CFI INIT 4a160 2e .cfa: $rsp .ra: .cfa 8 - ^
STACK CFI 4a160 .cfa: $rsp 64 +
STACK CFI INIT 4a19c 2e .cfa: $rsp .ra: .cfa 8 - ^
STACK CFI 4a19c .cfa: $rsp 64 +
STACK CFI INIT 4a1d8 2e .cfa: $rsp .ra: .cfa 8 - ^
STACK CFI 4a1d8 .cfa: $rsp 64 +
STACK CFI INIT 4a214 2e .cfa: $rsp .ra: .cfa 8 - ^
STACK CFI 4a214 .cfa: $rsp 64 +
STACK CFI INIT 4a250 2a .cfa: $rsp .ra: .cfa 8 - ^
STACK CFI 4a250 .cfa: $rsp 64 +
STACK CFI INIT 4a284 2e .cfa: $rsp .ra: .cfa 8 - ^
STACK CFI 4a284 .cfa: $rsp 64 +
STACK CFI INIT 4a2c0 2e .cfa: $rsp .ra: .cfa 8 - ^
STACK CFI 4a2c0 .cfa: $rsp 64 +
STACK CFI INIT 4a2fc 2e .cfa: $rsp .ra: .cfa 8 - ^
STACK CFI 4a2fc .cfa: $rsp 64 +
STACK CFI INIT 4a338 2e .cfa: $rsp .ra: .cfa 8 - ^
STACK CFI 4a338 .cfa: $rsp 64 +
STACK CFI INIT 4a374 2a .cfa: $rsp .ra: .cfa 8 - ^
STACK CFI 4a374 .cfa: $rsp 64 +
STACK CFI INIT 4a3a8 2e .cfa: $rsp .ra: .cfa 8 - ^
STACK CFI 4a3a8 .cfa: $rsp 64 +
STACK CFI INIT 4a3e4 2e .cfa: $rsp .ra: .cfa 8 - ^
STACK CFI 4a3e4 .cfa: $rsp 64 +
STACK CFI INIT 4a420 2e .cfa: $rsp .ra: .cfa 8 - ^
STACK CFI 4a420 .cfa: $rsp 64 +
STACK CFI INIT 4a45c 2e .cfa: $rsp .ra: .cfa 8 - ^
STACK CFI 4a45c .cfa: $rsp 64 +
STACK CFI INIT 4a498 2a .cfa: $rsp .ra: .cfa 8 - ^
STACK CFI 4a498 .cfa: $rsp 64 +
STACK CFI INIT 4a4cc 2e .cfa: $rsp .ra: .cfa 8 - ^
STACK CFI 4a4cc .cfa: $rsp 64 +
STACK CFI INIT 4a508 2e .cfa: $rsp .ra: .cfa 8 - ^
STACK CFI 4a508 .cfa: $rsp 64 +
STACK CFI INIT 4a544 2e .cfa: $rsp .ra: .cfa 8 - ^
STACK CFI 4a544 .cfa: $rsp 64 +
STACK CFI INIT 4a580 2e .cfa: $rsp .ra: .cfa 8 - ^
STACK CFI 4a580 .cfa: $rsp 64 +
STACK CFI INIT 4a5bc 2a .cfa: $rsp .ra: .cfa 8 - ^
STACK CFI 4a5bc .cfa: $rsp 64 +
STACK CFI INIT 4a5f0 2e .cfa: $rsp .ra: .cfa 8 - ^
STACK CFI 4a5f0 .cfa: $rsp 64 +
STACK CFI INIT 4a62c 2e .cfa: $rsp .ra: .cfa 8 - ^
STACK CFI 4a62c .cfa: $rsp 64 +
STACK CFI INIT 4a668 2e .cfa: $rsp .ra: .cfa 8 - ^
STACK CFI 4a668 .cfa: $rsp 64 +
STACK CFI INIT 4a6a4 2e .cfa: $rsp .ra: .cfa 8 - ^
STACK CFI 4a6a4 .cfa: $rsp 64 +
STACK CFI INIT 4a6e0 2a .cfa: $rsp .ra: .cfa 8 - ^
STACK CFI 4a6e0 .cfa: $rsp 64 +
STACK CFI INIT 4a714 2a .cfa: $rsp .ra: .cfa 8 - ^
STACK CFI 4a714 .cfa: $rsp 64 +
STACK CFI INIT 4a748 2a .cfa: $rsp .ra: .cfa 8 - ^
STACK CFI 4a748 .cfa: $rsp 64 +
STACK CFI INIT 4a77c 2a .cfa: $rsp .ra: .cfa 8 - ^
STACK CFI 4a77c .cfa: $rsp 64 +
STACK CFI INIT 4a7b0 2a .cfa: $rsp .ra: .cfa 8 - ^
STACK CFI 4a7b0 .cfa: $rsp 64 +
STACK CFI INIT 4a7e4 2a .cfa: $rsp .ra: .cfa 8 - ^
STACK CFI 4a7e4 .cfa: $rsp 64 +
STACK CFI INIT 4a818 2a .cfa: $rsp .ra: .cfa 8 - ^
STACK CFI 4a818 .cfa: $rsp 64 +
STACK CFI INIT 4a84c 2a .cfa: $rsp .ra: .cfa 8 - ^
STACK CFI 4a84c .cfa: $rsp 64 +
STACK CFI INIT 4a880 2a .cfa: $rsp .ra: .cfa 8 - ^
STACK CFI 4a880 .cfa: $rsp 64 +
STACK CFI INIT 4a8b4 2a .cfa: $rsp .ra: .cfa 8 - ^
STACK CFI 4a8b4 .cfa: $rsp 64 +
STACK CFI INIT 4a8e8 2a .cfa: $rsp .ra: .cfa 8 - ^
STACK CFI 4a8e8 .cfa: $rsp 64 +
STACK CFI INIT 4a91c 2a .cfa: $rsp .ra: .cfa 8 - ^
STACK CFI 4a91c .cfa: $rsp 64 +
STACK CFI INIT 4a950 17e .cfa: $rsp .ra: .cfa 8 - ^
STACK CFI 4a950 .cfa: $rsp 96 +
STACK CFI INIT 4ab3c 72 .cfa: $rsp .ra: .cfa 8 - ^
STACK CFI 4ab3c .cfa: $rsp 96 +
STACK CFI INIT 4abcc 19c .cfa: $rsp .ra: .cfa 8 - ^
STACK CFI 4abcc .cfa: $rsp 128 +
STACK CFI INIT 4add0 4d .cfa: $rsp .ra: .cfa 8 - ^
STACK CFI 4add0 .cfa: $rsp 64 +
STACK CFI INIT 4ae30 14 .cfa: $rsp .ra: .cfa 8 - ^
STACK CFI 4ae30 .cfa: $rsp 64 +
STACK CFI INIT 4bedc 31 .cfa: $rsp .ra: .cfa 8 - ^
STACK CFI 4bedc .cfa: $rsp 48 +
STACK CFI INIT 4bf1c 31 .cfa: $rsp .ra: .cfa 8 - ^
STACK CFI 4bf1c .cfa: $rsp 48 +
STACK CFI INIT 4bfdc 36d .cfa: $rsp .ra: .cfa 8 - ^
STACK CFI 4bfdc .cfa: $rsp 160 +
STACK CFI INIT 4c424 db .cfa: $rsp .ra: .cfa 8 - ^
STACK CFI 4c424 .cfa: $rsp 96 +
STACK CFI INIT 4c538 1d2 .cfa: $rsp .ra: .cfa 8 - ^
STACK CFI 4c538 .cfa: $rsp 96 +
STACK CFI INIT 4c780 a6 .cfa: $rsp .ra: .cfa 8 - ^
STACK CFI 4c780 .cfa: $rsp 80 +
STACK CFI INIT 4c850 143 .cfa: $rsp .ra: .cfa 8 - ^
STACK CFI 4c850 .cfa: $rsp 80 +
STACK CFI INIT 4c9e4 132 .cfa: $rsp .ra: .cfa 8 - ^
STACK CFI 4c9e4 .cfa: $rsp 96 +
STACK CFI INIT 4cb64 a5 .cfa: $rsp .ra: .cfa 8 - ^
STACK CFI 4cb64 .cfa: $rsp 64 +
STACK CFI INIT 4cc34 30 .cfa: $rsp .ra: .cfa 8 - ^
STACK CFI 4cc34 .cfa: $rsp 48 +
STACK CFI INIT 4cc78 304 .cfa: $rsp .ra: .cfa 8 - ^
STACK CFI 4cc78 .cfa: $rsp 112 +
STACK CFI INIT 4d064 17c .cfa: $rsp .ra: .cfa 8 - ^
STACK CFI 4d064 .cfa: $rsp 96 +
STACK CFI INIT 4d240 23 .cfa: $rsp .ra: .cfa 8 - ^
STACK CFI 4d240 .cfa: $rsp 48 +
STACK CFI INIT 4d274 5e .cfa: $rsp .ra: .cfa 8 - ^
STACK CFI 4d274 .cfa: $rsp 48 +
STACK CFI INIT 4d304 26 .cfa: $rsp .ra: .cfa 8 - ^
STACK CFI 4d304 .cfa: $rsp 48 +
STACK CFI INIT 4d350 21 .cfa: $rsp .ra: .cfa 8 - ^
STACK CFI 4d350 .cfa: $rsp 48 +
STACK CFI INIT 4d398 124 .cfa: $rsp .ra: .cfa 8 - ^
STACK CFI 4d398 .cfa: $rsp 64 +
STACK CFI INIT 4d584 3e .cfa: $rsp .ra: .cfa 8 - ^
STACK CFI 4d584 .cfa: $rsp 48 +
STACK CFI INIT 4d5d4 13a .cfa: $rsp .ra: .cfa 8 - ^
STACK CFI 4d5d4 .cfa: $rsp 48 +
STACK CFI INIT 4d75c 6e .cfa: $rsp .ra: .cfa 8 - ^
STACK CFI 4d75c .cfa: $rsp 64 +
STACK CFI INIT 4d7e8 29 .cfa: $rsp .ra: .cfa 8 - ^
STACK CFI 4d7e8 .cfa: $rsp 48 +
STACK CFI INIT 4d81c 41 .cfa: $rsp .ra: .cfa 8 - ^
STACK CFI 4d81c .cfa: $rsp 48 +
STACK CFI INIT 4d870 26 .cfa: $rsp .ra: .cfa 8 - ^
STACK CFI 4d870 .cfa: $rsp 48 +
STACK CFI INIT 4d8a0 26 .cfa: $rsp .ra: .cfa 8 - ^
STACK CFI 4d8a0 .cfa: $rsp 48 +
STACK CFI INIT 4d8d0 26 .cfa: $rsp .ra: .cfa 8 - ^
STACK CFI 4d8d0 .cfa: $rsp 48 +
STACK CFI INIT 4d900 26 .cfa: $rsp .ra: .cfa 8 - ^
STACK CFI 4d900 .cfa: $rsp 48 +
STACK CFI INIT 4d94c 4e .cfa: $rsp .ra: .cfa 8 - ^
STACK CFI 4d94c .cfa: $rsp 48 +
STACK CFI INIT 4da90 59 .cfa: $rsp .ra: .cfa 8 - ^
STACK CFI 4da90 .cfa: $rsp 64 +
STACK CFI INIT 4db00 1b .cfa: $rsp .ra: .cfa 8 - ^
STACK CFI 4db00 .cfa: $rsp 48 +
STACK CFI INIT 4db24 1b .cfa: $rsp .ra: .cfa 8 - ^
STACK CFI 4db24 .cfa: $rsp 48 +
STACK CFI INIT 4db48 48 .cfa: $rsp .ra: .cfa 8 - ^
STACK CFI 4db48 .cfa: $rsp 64 +
STACK CFI INIT 4dbd4 8e .cfa: $rsp .ra: .cfa 8 - ^
STACK CFI 4dbd4 .cfa: $rsp 96 +
STACK CFI INIT 4dc88 26 .cfa: $rsp .ra: .cfa 8 - ^
STACK CFI 4dc88 .cfa: $rsp 48 +
STACK CFI INIT 4dcc0 2c .cfa: $rsp .ra: .cfa 8 - ^
STACK CFI 4dcc0 .cfa: $rsp 48 +
STACK CFI INIT 4dd58 11d .cfa: $rsp .ra: .cfa 8 - ^
STACK CFI 4dd58 .cfa: $rsp 48 +
STACK CFI INIT 4debc 77 .cfa: $rsp .ra: .cfa 8 - ^
STACK CFI 4debc .cfa: $rsp 64 +
STACK CFI INIT 4df50 3f .cfa: $rsp .ra: .cfa 8 - ^
STACK CFI 4df50 .cfa: $rsp 64 +
STACK CFI INIT 4dfd8 1b .cfa: $rsp .ra: .cfa 8 - ^
STACK CFI 4dfd8 .cfa: $rsp 48 +
STACK CFI INIT 4dffc 1b .cfa: $rsp .ra: .cfa 8 - ^
STACK CFI 4dffc .cfa: $rsp 48 +
STACK CFI INIT 4e020 82 .cfa: $rsp .ra: .cfa 8 - ^
STACK CFI 4e020 .cfa: $rsp 64 +
STACK CFI INIT 4e0d4 2e .cfa: $rsp .ra: .cfa 8 - ^
STACK CFI 4e0d4 .cfa: $rsp 48 +
STACK CFI INIT 4e134 a2 .cfa: $rsp .ra: .cfa 8 - ^
STACK CFI 4e134 .cfa: $rsp 64 +
STACK CFI INIT 4e200 166 .cfa: $rsp .ra: .cfa 8 - ^
STACK CFI 4e200 .cfa: $rsp 80 +
STACK CFI INIT 4e3c0 69 .cfa: $rsp .ra: .cfa 8 - ^
STACK CFI 4e3c0 .cfa: $rsp 48 +
STACK CFI INIT 4e444 be .cfa: $rsp .ra: .cfa 8 - ^
STACK CFI 4e444 .cfa: $rsp 48 +
STACK CFI INIT 4e534 76 .cfa: $rsp .ra: .cfa 8 - ^
STACK CFI 4e534 .cfa: $rsp 352 +
STACK CFI INIT 4e5c8 47f .cfa: $rsp .ra: .cfa 8 - ^
STACK CFI 4e5c8 .cfa: $rsp 688 +
STACK CFI INIT 4eb68 a2 .cfa: $rsp .ra: .cfa 8 - ^
STACK CFI 4eb68 .cfa: $rsp 48 +
STACK CFI INIT 4ec34 bb .cfa: $rsp .ra: .cfa 8 - ^
STACK CFI 4ec34 .cfa: $rsp 80 +
STACK CFI INIT 4ed20 148 .cfa: $rsp .ra: .cfa 8 - ^
STACK CFI 4ed20 .cfa: $rsp 64 +
STACK CFI INIT 4eebc 65 .cfa: $rsp .ra: .cfa 8 - ^
STACK CFI 4eebc .cfa: $rsp 96 +
STACK CFI INIT 4ef3c a1 .cfa: $rsp .ra: .cfa 8 - ^
STACK CFI 4ef3c .cfa: $rsp 112 +
STACK CFI INIT 4f008 1ea .cfa: $rsp .ra: .cfa 8 - ^
STACK CFI 4f008 .cfa: $rsp 96 +
STACK CFI INIT 4f26c 296 .cfa: $rsp .ra: .cfa 8 - ^
STACK CFI 4f26c .cfa: $rsp 592 +
STACK CFI INIT 4f5a8 352 .cfa: $rsp .ra: .cfa 8 - ^
STACK CFI 4f5a8 .cfa: $rsp 880 +
STACK CFI INIT 4f9fc 34 .cfa: $rsp .ra: .cfa 8 - ^
STACK CFI 4f9fc .cfa: $rsp 48 +
STACK CFI INIT 4fa40 1ff .cfa: $rsp .ra: .cfa 8 - ^
STACK CFI 4fa40 .cfa: $rsp 208 +
STACK CFI INIT 4fcc0 47 .cfa: $rsp .ra: .cfa 8 - ^
STACK CFI 4fcc0 .cfa: $rsp 64 +
STACK CFI INIT 4fd18 89 .cfa: $rsp .ra: .cfa 8 - ^
STACK CFI 4fd18 .cfa: $rsp 64 +
STACK CFI INIT 4fdc4 10a .cfa: $rsp .ra: .cfa 8 - ^
STACK CFI 4fdc4 .cfa: $rsp 64 +
STACK CFI INIT 4ff10 8f .cfa: $rsp .ra: .cfa 8 - ^
STACK CFI 4ff10 .cfa: $rsp 64 +
STACK CFI INIT 4ffc4 72 .cfa: $rsp .ra: .cfa 8 - ^
STACK CFI 4ffc4 .cfa: $rsp 48 +
STACK CFI INIT 50054 6f .cfa: $rsp .ra: .cfa 8 - ^
STACK CFI 50054 .cfa: $rsp 48 +
STACK CFI INIT 50114 2f .cfa: $rsp .ra: .cfa 8 - ^
STACK CFI 50114 .cfa: $rsp 48 +
STACK CFI INIT 50164 6f .cfa: $rsp .ra: .cfa 8 - ^
STACK CFI 50164 .cfa: $rsp 48 +
STACK CFI INIT 5022c 108 .cfa: $rsp .ra: .cfa 8 - ^
STACK CFI 5022c .cfa: $rsp 144 +
STACK CFI INIT 50448 176 .cfa: $rsp .ra: .cfa 8 - ^
STACK CFI 50448 .cfa: $rsp 48 +
STACK CFI INIT 5064c 36 .cfa: $rsp .ra: .cfa 8 - ^
STACK CFI 5064c .cfa: $rsp 48 +
STACK CFI INIT 506c0 a8 .cfa: $rsp .ra: .cfa 8 - ^
STACK CFI 506c0 .cfa: $rsp 48 +
STACK CFI INIT 50794 6c .cfa: $rsp .ra: .cfa 8 - ^
STACK CFI 50794 .cfa: $rsp 48 +
STACK CFI INIT 5081c 65 .cfa: $rsp .ra: .cfa 8 - ^
STACK CFI 5081c .cfa: $rsp 48 +
STACK CFI INIT 508a8 2b .cfa: $rsp .ra: .cfa 8 - ^
STACK CFI 508a8 .cfa: $rsp 48 +
STACK CFI INIT 508e0 17 .cfa: $rsp .ra: .cfa 8 - ^
STACK CFI 508e0 .cfa: $rsp 64 +
STACK CFI INIT 508f7 a4 .cfa: $rsp .ra: .cfa 8 - ^
STACK CFI 508f7 .cfa: $rsp 64 +
STACK CFI INIT 5099b 1 .cfa: $rsp .ra: .cfa 8 - ^
STACK CFI 5099b .cfa: $rsp 64 +
STACK CFI INIT 50a10 5b .cfa: $rsp .ra: .cfa 8 - ^
STACK CFI 50a10 .cfa: $rsp 1136 +
STACK CFI INIT 50a6b 334 .cfa: $rsp .ra: .cfa 8 - ^
STACK CFI 50a6b .cfa: $rsp 1136 +
STACK CFI INIT 50d9f 1e .cfa: $rsp .ra: .cfa 8 - ^
STACK CFI 50d9f .cfa: $rsp 1136 +
STACK CFI INIT 50ea8 db .cfa: $rsp .ra: .cfa 8 - ^
STACK CFI 50ea8 .cfa: $rsp 48 +
STACK CFI INIT 50fbc e4 .cfa: $rsp .ra: .cfa 8 - ^
STACK CFI 50fbc .cfa: $rsp 48 +
STACK CFI INIT 51120 c6 .cfa: $rsp .ra: .cfa 8 - ^
STACK CFI 51120 .cfa: $rsp 48 +
STACK CFI INIT 51218 d3 .cfa: $rsp .ra: .cfa 8 - ^
STACK CFI 51218 .cfa: $rsp 48 +
STACK CFI INIT 51320 9e .cfa: $rsp .ra: .cfa 8 - ^
STACK CFI 51320 .cfa: $rsp 96 +
STACK CFI INIT 513f0 3e0 .cfa: $rsp .ra: .cfa 8 - ^
STACK CFI 513f0 .cfa: $rsp 64 +
STACK CFI INIT 518d4 94 .cfa: $rsp .ra: .cfa 8 - ^
STACK CFI 518d4 .cfa: $rsp 80 +
STACK CFI INIT 519a0 22 .cfa: $rsp .ra: .cfa 8 - ^
STACK CFI 519a0 .cfa: $rsp 48 +
STACK CFI INIT 519f8 18d .cfa: $rsp .ra: .cfa 8 - ^
STACK CFI 519f8 .cfa: $rsp 144 +
STACK CFI INIT 51be8 1f .cfa: $rsp .ra: .cfa 8 - ^
STACK CFI 51be8 .cfa: $rsp 48 +
STACK CFI INIT 51c1c 315 .cfa: $rsp .ra: .cfa 8 - ^
STACK CFI 51c1c .cfa: $rsp 144 +
STACK CFI INIT 51ff8 96 .cfa: $rsp .ra: .cfa 8 - ^
STACK CFI 51ff8 .cfa: $rsp 128 +
STACK CFI INIT 520b4 17 .cfa: $rsp .ra: .cfa 8 - ^
STACK CFI 520b4 .cfa: $rsp 48 +
STACK CFI INIT 520d0 4f .cfa: $rsp .ra: .cfa 8 - ^
STACK CFI 520d0 .cfa: $rsp 48 +
STACK CFI INIT 52134 f0 .cfa: $rsp .ra: .cfa 8 - ^
STACK CFI 52134 .cfa: $rsp 96 +
STACK CFI INIT 5227c 100 .cfa: $rsp .ra: .cfa 8 - ^
STACK CFI 5227c .cfa: $rsp 112 +
STACK CFI INIT 523bc 179 .cfa: $rsp .ra: .cfa 8 - ^
STACK CFI 523bc .cfa: $rsp 64 +
STACK CFI INIT 52594 25 .cfa: $rsp .ra: .cfa 8 - ^
STACK CFI 52594 .cfa: $rsp 64 +
STACK CFI INIT 525c4 197 .cfa: $rsp .ra: .cfa 8 - ^
STACK CFI 525c4 .cfa: $rsp 192 +
STACK CFI INIT 527c8 39 .cfa: $rsp .ra: .cfa 8 - ^
STACK CFI 527c8 .cfa: $rsp 48 +
STACK CFI INIT 52810 7a .cfa: $rsp .ra: .cfa 8 - ^
STACK CFI 52810 .cfa: $rsp 48 +
STACK CFI INIT 52908 87 .cfa: $rsp .ra: .cfa 8 - ^
STACK CFI 52908 .cfa: $rsp 64 +
STACK CFI INIT 529b0 f4 .cfa: $rsp .ra: .cfa 8 - ^
STACK CFI 529b0 .cfa: $rsp 64 +
STACK CFI INIT 52ae4 af .cfa: $rsp .ra: .cfa 8 - ^
STACK CFI 52ae4 .cfa: $rsp 64 +
STACK CFI INIT 52bd4 1b .cfa: $rsp .ra: .cfa 8 - ^
STACK CFI 52bd4 .cfa: $rsp 48 +
STACK CFI INIT 52c20 1b .cfa: $rsp .ra: .cfa 8 - ^
STACK CFI 52c20 .cfa: $rsp 48 +
STACK CFI INIT 52c44 a5 .cfa: $rsp .ra: .cfa 8 - ^
STACK CFI 52c44 .cfa: $rsp 48 +
STACK CFI INIT 52d14 50 .cfa: $rsp .ra: .cfa 8 - ^
STACK CFI 52d14 .cfa: $rsp 48 +
STACK CFI INIT 52d78 a8 .cfa: $rsp .ra: .cfa 8 - ^
STACK CFI 52d78 .cfa: $rsp 64 +
STACK CFI INIT 52e7c bf .cfa: $rsp .ra: .cfa 8 - ^
STACK CFI 52e7c .cfa: $rsp 48 +
STACK CFI INIT 52f9c 13e .cfa: $rsp .ra: .cfa 8 - ^
STACK CFI 52f9c .cfa: $rsp 80 +
STACK CFI INIT 5312c ba .cfa: $rsp .ra: .cfa 8 - ^
STACK CFI 5312c .cfa: $rsp 48 +
STACK CFI INIT 53214 75 .cfa: $rsp .ra: .cfa 8 - ^
STACK CFI 53214 .cfa: $rsp 48 +
STACK CFI INIT 532a8 101 .cfa: $rsp .ra: .cfa 8 - ^
STACK CFI 532a8 .cfa: $rsp 64 +
STACK CFI INIT 533ec 8c .cfa: $rsp .ra: .cfa 8 - ^
STACK CFI 533ec .cfa: $rsp 48 +
STACK CFI INIT 5349c 26 .cfa: $rsp .ra: .cfa 8 - ^
STACK CFI 5349c .cfa: $rsp 48 +
STACK CFI INIT 534ec 69 .cfa: $rsp .ra: .cfa 8 - ^
STACK CFI 534ec .cfa: $rsp 48 +
STACK CFI INIT 53580 91 .cfa: $rsp .ra: .cfa 8 - ^
STACK CFI 53580 .cfa: $rsp 64 +
STACK CFI INIT 53638 6c .cfa: $rsp .ra: .cfa 8 - ^
STACK CFI 53638 .cfa: $rsp 64 +
STACK CFI INIT 536c0 4d0 .cfa: $rsp .ra: .cfa 8 - ^
STACK CFI 536c0 .cfa: $rsp 320 +
STACK CFI INIT 53cc4 95 .cfa: $rsp .ra: .cfa 8 - ^
STACK CFI 53cc4 .cfa: $rsp 48 +
STACK CFI INIT 53d80 8e .cfa: $rsp .ra: .cfa 8 - ^
STACK CFI 53d80 .cfa: $rsp 48 +
STACK CFI INIT 53e34 102 .cfa: $rsp .ra: .cfa 8 - ^
STACK CFI 53e34 .cfa: $rsp 5232 +
STACK CFI INIT 53f78 119 .cfa: $rsp .ra: .cfa 8 - ^
STACK CFI 53f78 .cfa: $rsp 5232 +
STACK CFI INIT 540d8 170 .cfa: $rsp .ra: .cfa 8 - ^
STACK CFI 540d8 .cfa: $rsp 5280 +
STACK CFI INIT 542b8 eb .cfa: $rsp .ra: .cfa 8 - ^
STACK CFI 542b8 .cfa: $rsp 80 +
STACK CFI INIT 543e0 2da .cfa: $rsp .ra: .cfa 8 - ^
STACK CFI 543e0 .cfa: $rsp 160 +
STACK CFI INIT 54770 33 .cfa: $rsp .ra: .cfa 8 - ^
STACK CFI 54770 .cfa: $rsp 48 +
STACK CFI INIT 547c0 b1 .cfa: $rsp .ra: .cfa 8 - ^
STACK CFI 547c0 .cfa: $rsp 64 +
STACK CFI INIT 548b0 40 .cfa: $rsp .ra: .cfa 8 - ^
STACK CFI 548b0 .cfa: $rsp 48 +
STACK CFI INIT 54900 5f .cfa: $rsp .ra: .cfa 8 - ^
STACK CFI 54900 .cfa: $rsp 48 +
STACK CFI INIT 54978 2c .cfa: $rsp .ra: .cfa 8 - ^
STACK CFI 54978 .cfa: $rsp 48 +
STACK CFI INIT 549b0 2c .cfa: $rsp .ra: .cfa 8 - ^
STACK CFI 549b0 .cfa: $rsp 48 +
STACK CFI INIT 549e8 4b .cfa: $rsp .ra: .cfa 8 - ^
STACK CFI 549e8 .cfa: $rsp 80 +
STACK CFI INIT 54a88 2c .cfa: $rsp .ra: .cfa 8 - ^
STACK CFI 54a88 .cfa: $rsp 48 +
STACK CFI INIT 54ac0 2c .cfa: $rsp .ra: .cfa 8 - ^
STACK CFI 54ac0 .cfa: $rsp 48 +
STACK CFI INIT 54b58 4d .cfa: $rsp .ra: .cfa 8 - ^
STACK CFI 54b58 .cfa: $rsp 80 +
STACK CFI INIT 54c9c 39 .cfa: $rsp .ra: .cfa 8 - ^
STACK CFI 54c9c .cfa: $rsp 64 +
STACK CFI INIT 54ce4 176 .cfa: $rsp .ra: .cfa 8 - ^
STACK CFI 54ce4 .cfa: $rsp 80 +
STACK CFI INIT 54eb8 251 .cfa: $rsp .ra: .cfa 8 - ^
STACK CFI 54eb8 .cfa: $rsp 112 +
STACK CFI INIT 551a0 15e .cfa: $rsp .ra: .cfa 8 - ^
STACK CFI 551a0 .cfa: $rsp 144 +
STACK CFI INIT 55358 66 .cfa: $rsp .ra: .cfa 8 - ^
STACK CFI 55358 .cfa: $rsp 64 +
STACK CFI INIT 553d8 3e .cfa: $rsp .ra: .cfa 8 - ^
STACK CFI 553d8 .cfa: $rsp 64 +
STACK CFI INIT 55428 60 .cfa: $rsp .ra: .cfa 8 - ^
STACK CFI 55428 .cfa: $rsp 64 +
STACK CFI INIT 554a8 d1 .cfa: $rsp .ra: .cfa 8 - ^
STACK CFI 554a8 .cfa: $rsp 48 +
STACK CFI INIT 555d8 1b .cfa: $rsp .ra: .cfa 8 - ^
STACK CFI 555d8 .cfa: $rsp 48 +
STACK CFI INIT 555fc 1b .cfa: $rsp .ra: .cfa 8 - ^
STACK CFI 555fc .cfa: $rsp 48 +
STACK CFI INIT 55638 1b .cfa: $rsp .ra: .cfa 8 - ^
STACK CFI 55638 .cfa: $rsp 48 +
STACK CFI INIT 5565c 1b .cfa: $rsp .ra: .cfa 8 - ^
STACK CFI 5565c .cfa: $rsp 48 +
STACK CFI INIT 55680 2f .cfa: $rsp .ra: .cfa 8 - ^
STACK CFI 55680 .cfa: $rsp 48 +
STACK CFI INIT 556bc 2f .cfa: $rsp .ra: .cfa 8 - ^
STACK CFI 556bc .cfa: $rsp 48 +
STACK CFI INIT 556f8 32 .cfa: $rsp .ra: .cfa 8 - ^
STACK CFI 556f8 .cfa: $rsp 48 +
STACK CFI INIT 55738 2f .cfa: $rsp .ra: .cfa 8 - ^
STACK CFI 55738 .cfa: $rsp 48 +
STACK CFI INIT 55788 661 .cfa: $rsp .ra: .cfa 8 - ^
STACK CFI 55788 .cfa: $rsp 208 +
STACK CFI INIT 55f84 b3 .cfa: $rsp .ra: .cfa 8 - ^
STACK CFI 55f84 .cfa: $rsp 48 +
STACK CFI INIT 56070 1c .cfa: $rsp .ra: .cfa 8 - ^
STACK CFI 56070 .cfa: $rsp 48 +
STACK CFI INIT 5609c e2 .cfa: $rsp .ra: .cfa 8 - ^
STACK CFI 5609c .cfa: $rsp 48 +
STACK CFI INIT 561b8 114d .cfa: $rsp .ra: .cfa 8 - ^
STACK CFI 561b8 .cfa: $rsp 2064 +
STACK CFI INIT 57760 2f .cfa: $rsp .ra: .cfa 8 - ^
STACK CFI 57760 .cfa: $rsp 48 +
STACK CFI INIT 577ac 3b .cfa: $rsp .ra: .cfa 8 - ^
STACK CFI 577ac .cfa: $rsp 48 +
STACK CFI INIT 577f8 14 .cfa: $rsp .ra: .cfa 8 - ^
STACK CFI 577f8 .cfa: $rsp 48 +
STACK CFI INIT 57820 2f .cfa: $rsp .ra: .cfa 8 - ^
STACK CFI 57820 .cfa: $rsp 48 +
STACK CFI INIT 57980 22c .cfa: $rsp .ra: .cfa 8 - ^
STACK CFI 57980 .cfa: $rsp 608 +
STACK CFI INIT 57bac 1b4 .cfa: $rsp .ra: .cfa 8 - ^
STACK CFI 57bac .cfa: $rsp 608 +
STACK CFI INIT 57d60 49 .cfa: $rsp .ra: .cfa 8 - ^
STACK CFI 57d60 .cfa: $rsp 608 +
STACK CFI INIT 57ef0 67 .cfa: $rsp .ra: .cfa 8 - ^
STACK CFI 57ef0 .cfa: $rsp 48 +
STACK CFI INIT 57f70 e4 .cfa: $rsp .ra: .cfa 8 - ^
STACK CFI 57f70 .cfa: $rsp 1056 +
STACK CFI INIT 58054 f4 .cfa: $rsp .ra: .cfa 8 - ^
STACK CFI 58054 .cfa: $rsp 1056 +
STACK CFI INIT 58148 187 .cfa: $rsp .ra: .cfa 8 - ^
STACK CFI 58148 .cfa: $rsp 1056 +
STACK CFI INIT 582cf 10 .cfa: $rsp .ra: .cfa 8 - ^
STACK CFI 582cf .cfa: $rsp 1056 +
STACK CFI INIT 582df 1b .cfa: $rsp .ra: .cfa 8 - ^
STACK CFI 582df .cfa: $rsp 1056 +
STACK CFI INIT 582fa 1e .cfa: $rsp .ra: .cfa 8 - ^
STACK CFI 582fa .cfa: $rsp 1056 +
STACK CFI INIT 58410 39 .cfa: $rsp .ra: .cfa 8 - ^
STACK CFI 58410 .cfa: $rsp 512 +
STACK CFI INIT 58449 1e .cfa: $rsp .ra: .cfa 8 - ^
STACK CFI 58449 .cfa: $rsp 512 +
STACK CFI INIT 58467 4b .cfa: $rsp .ra: .cfa 8 - ^
STACK CFI 58467 .cfa: $rsp 512 +
STACK CFI INIT 584b2 2a .cfa: $rsp .ra: .cfa 8 - ^
STACK CFI 584b2 .cfa: $rsp 512 +
STACK CFI INIT 584dc 21 .cfa: $rsp .ra: .cfa 8 - ^
STACK CFI 584dc .cfa: $rsp 512 +
STACK CFI INIT 58550 5a8 .cfa: $rsp .ra: .cfa 8 - ^
STACK CFI 58550 .cfa: $rsp 1536 +
STACK CFI INIT 58c70 49 .cfa: $rsp .ra: .cfa 8 - ^
STACK CFI 58c70 .cfa: $rsp 8 +
STACK CFI INIT 58cd0 74 .cfa: $rsp .ra: .cfa 8 - ^
STACK CFI 58cd0 .cfa: $rsp 544 +
STACK CFI INIT 58d44 a1 .cfa: $rsp .ra: .cfa 8 - ^
STACK CFI 58d44 .cfa: $rsp 544 +
STACK CFI INIT 58de5 38 .cfa: $rsp .ra: .cfa 8 - ^
STACK CFI 58de5 .cfa: $rsp 544 +
STACK CFI INIT 58e70 1231 .cfa: $rsp .ra: .cfa 8 - ^
STACK CFI 58e70 .cfa: $rsp 2080 +
STACK CFI INIT 5a530 87 .cfa: $rsp .ra: .cfa 8 - ^
STACK CFI 5a530 .cfa: $rsp 48 +
STACK CFI INIT 5a5d8 e8 .cfa: $rsp .ra: .cfa 8 - ^
STACK CFI 5a5d8 .cfa: $rsp 48 +
STACK CFI INIT 5a6fc e9 .cfa: $rsp .ra: .cfa 8 - ^
STACK CFI 5a6fc .cfa: $rsp 48 +
STACK CFI INIT 5a820 e4 .cfa: $rsp .ra: .cfa 8 - ^
STACK CFI 5a820 .cfa: $rsp 48 +
STACK CFI INIT 5a940 e8 .cfa: $rsp .ra: .cfa 8 - ^
STACK CFI 5a940 .cfa: $rsp 48 +
STACK CFI INIT 5aa74 79 .cfa: $rsp .ra: .cfa 8 - ^
STACK CFI 5aa74 .cfa: $rsp 48 +
STACK CFI INIT 5ab0c ea .cfa: $rsp .ra: .cfa 8 - ^
STACK CFI 5ab0c .cfa: $rsp 48 +
STACK CFI INIT 5ac30 eb .cfa: $rsp .ra: .cfa 8 - ^
STACK CFI 5ac30 .cfa: $rsp 48 +
STACK CFI INIT 5ad6c 1b .cfa: $rsp .ra: .cfa 8 - ^
STACK CFI 5ad6c .cfa: $rsp 48 +
STACK CFI INIT 5ad9c 1b .cfa: $rsp .ra: .cfa 8 - ^
STACK CFI 5ad9c .cfa: $rsp 48 +
STACK CFI INIT 5adc0 10a .cfa: $rsp .ra: .cfa 8 - ^
STACK CFI 5adc0 .cfa: $rsp 48 +
STACK CFI INIT 5af0c 533 .cfa: $rsp .ra: .cfa 8 - ^
STACK CFI 5af0c .cfa: $rsp 112 +
STACK CFI INIT 5b5d0 6c .cfa: $rsp .ra: .cfa 8 - ^
STACK CFI 5b5d0 .cfa: $rsp 48 +
STACK CFI INIT 5b658 2e8 .cfa: $rsp .ra: .cfa 8 - ^
STACK CFI 5b658 .cfa: $rsp 112 +
STACK CFI INIT 5ba9c 1b .cfa: $rsp .ra: .cfa 8 - ^
STACK CFI 5ba9c .cfa: $rsp 48 +
STACK CFI INIT 5bad8 58 .cfa: $rsp .ra: .cfa 8 - ^
STACK CFI 5bad8 .cfa: $rsp 48 +
STACK CFI INIT 5bb4c 77 .cfa: $rsp .ra: .cfa 8 - ^
STACK CFI 5bb4c .cfa: $rsp 48 +
STACK CFI INIT 5bbe0 33e .cfa: $rsp .ra: .cfa 8 - ^
STACK CFI 5bbe0 .cfa: $rsp 112 +
STACK CFI INIT 5bffc 1b .cfa: $rsp .ra: .cfa 8 - ^
STACK CFI 5bffc .cfa: $rsp 48 +
STACK CFI INIT 5c020 108 .cfa: $rsp .ra: .cfa 8 - ^
STACK CFI 5c020 .cfa: $rsp 48 +
STACK CFI INIT 5c16c 9c .cfa: $rsp .ra: .cfa 8 - ^
STACK CFI 5c16c .cfa: $rsp 48 +
STACK CFI INIT 5c230 86 .cfa: $rsp .ra: .cfa 8 - ^
STACK CFI 5c230 .cfa: $rsp 48 +
STACK CFI INIT 5c2d8 7f .cfa: $rsp .ra: .cfa 8 - ^
STACK CFI 5c2d8 .cfa: $rsp 48 +
STACK CFI INIT 5c378 f6 .cfa: $rsp .ra: .cfa 8 - ^
STACK CFI 5c378 .cfa: $rsp 48 +
STACK CFI INIT 5c4ac fd .cfa: $rsp .ra: .cfa 8 - ^
STACK CFI 5c4ac .cfa: $rsp 48 +
STACK CFI INIT 5c638 a5 .cfa: $rsp .ra: .cfa 8 - ^
STACK CFI 5c638 .cfa: $rsp 256 +
STACK CFI INIT 5c708 cf .cfa: $rsp .ra: .cfa 8 - ^
STACK CFI 5c708 .cfa: $rsp 48 +
STACK CFI INIT 5c80c 98 .cfa: $rsp .ra: .cfa 8 - ^
STACK CFI 5c80c .cfa: $rsp 48 +
STACK CFI INIT 5c908 2ea .cfa: $rsp .ra: .cfa 8 - ^
STACK CFI 5c908 .cfa: $rsp 224 +
STACK CFI INIT 5ccac ea .cfa: $rsp .ra: .cfa 8 - ^
STACK CFI 5ccac .cfa: $rsp 320 +
STACK CFI INIT 5cdd0 c9 .cfa: $rsp .ra: .cfa 8 - ^
STACK CFI 5cdd0 .cfa: $rsp 48 +
STACK CFI INIT 5cecc 63 .cfa: $rsp .ra: .cfa 8 - ^
STACK CFI 5cecc .cfa: $rsp 80 +
STACK CFI INIT 5cf48 77 .cfa: $rsp .ra: .cfa 8 - ^
STACK CFI 5cf48 .cfa: $rsp 48 +
STACK CFI INIT 5cfdc 99 .cfa: $rsp .ra: .cfa 8 - ^
STACK CFI 5cfdc .cfa: $rsp 64 +
STACK CFI INIT 5d09c 263 .cfa: $rsp .ra: .cfa 8 - ^
STACK CFI 5d09c .cfa: $rsp 80 +
STACK CFI INIT 5d398 e8 .cfa: $rsp .ra: .cfa 8 - ^
STACK CFI 5d398 .cfa: $rsp 304 +
STACK CFI INIT 5d4bc 5f .cfa: $rsp .ra: .cfa 8 - ^
STACK CFI 5d4bc .cfa: $rsp 48 +
STACK CFI INIT 5d534 21 .cfa: $rsp .ra: .cfa 8 - ^
STACK CFI 5d534 .cfa: $rsp 48 +
STACK CFI INIT 5d560 cd .cfa: $rsp .ra: .cfa 8 - ^
STACK CFI 5d560 .cfa: $rsp 48 +
STACK CFI INIT 5d660 96 .cfa: $rsp .ra: .cfa 8 - ^
STACK CFI 5d660 .cfa: $rsp 48 +
STACK CFI INIT 5d74c 24a .cfa: $rsp .ra: .cfa 8 - ^
STACK CFI 5d74c .cfa: $rsp 320 +
STACK CFI INIT 5da28 108 .cfa: $rsp .ra: .cfa 8 - ^
STACK CFI 5da28 .cfa: $rsp 304 +
STACK CFI INIT 5dbd8 ae .cfa: $rsp .ra: .cfa 8 - ^
STACK CFI 5dbd8 .cfa: $rsp 48 +
STACK CFI INIT 5dce4 ab .cfa: $rsp .ra: .cfa 8 - ^
STACK CFI 5dce4 .cfa: $rsp 48 +
STACK CFI INIT 5ddbc 7f .cfa: $rsp .ra: .cfa 8 - ^
STACK CFI 5ddbc .cfa: $rsp 64 +
STACK CFI INIT 5de5c 27e .cfa: $rsp .ra: .cfa 8 - ^
STACK CFI 5de5c .cfa: $rsp 128 +
STACK CFI INIT 5e1a0 bd .cfa: $rsp .ra: .cfa 8 - ^
STACK CFI 5e1a0 .cfa: $rsp 96 +
STACK CFI INIT 5e360 46 .cfa: $rsp .ra: .cfa 8 - ^
STACK CFI 5e360 .cfa: $rsp 48 +
STACK CFI INIT 5e3b8 150 .cfa: $rsp .ra: .cfa 8 - ^
STACK CFI 5e3b8 .cfa: $rsp 96 +
STACK CFI INIT 5e5b8 4f .cfa: $rsp .ra: .cfa 8 - ^
STACK CFI 5e5b8 .cfa: $rsp 48 +
STACK CFI INIT 5e61c ad .cfa: $rsp .ra: .cfa 8 - ^
STACK CFI 5e61c .cfa: $rsp 80 +
STACK CFI INIT 5e6f4 35d .cfa: $rsp .ra: .cfa 8 - ^
STACK CFI 5e6f4 .cfa: $rsp 208 +
STACK CFI INIT 5eb28 89 .cfa: $rsp .ra: .cfa 8 - ^
STACK CFI 5eb28 .cfa: $rsp 112 +
STACK CFI INIT 5ebd8 2b .cfa: $rsp .ra: .cfa 8 - ^
STACK CFI 5ebd8 .cfa: $rsp 48 +
STACK CFI INIT 5ec10 a7 .cfa: $rsp .ra: .cfa 8 - ^
STACK CFI 5ec10 .cfa: $rsp 608 +
STACK CFI INIT 5ece0 15d .cfa: $rsp .ra: .cfa 8 - ^
STACK CFI 5ece0 .cfa: $rsp 80 +
STACK CFI INIT 5eea4 eb .cfa: $rsp .ra: .cfa 8 - ^
STACK CFI 5eea4 .cfa: $rsp 80 +
STACK CFI INIT 5efcc ef .cfa: $rsp .ra: .cfa 8 - ^
STACK CFI 5efcc .cfa: $rsp 80 +
STACK CFI INIT 5f0f8 f3 .cfa: $rsp .ra: .cfa 8 - ^
STACK CFI 5f0f8 .cfa: $rsp 64 +
STACK CFI INIT 5f228 99 .cfa: $rsp .ra: .cfa 8 - ^
STACK CFI 5f228 .cfa: $rsp 48 +
STACK CFI INIT 5f2e8 9e .cfa: $rsp .ra: .cfa 8 - ^
STACK CFI 5f2e8 .cfa: $rsp 64 +
STACK CFI INIT 5f3b0 33 .cfa: $rsp .ra: .cfa 8 - ^
STACK CFI 5f3b0 .cfa: $rsp 48 +
STACK CFI INIT 5f410 40 .cfa: $rsp .ra: .cfa 8 - ^
STACK CFI 5f410 .cfa: $rsp 48 +
STACK CFI INIT 5f460 26 .cfa: $rsp .ra: .cfa 8 - ^
STACK CFI 5f460 .cfa: $rsp 48 +
STACK CFI INIT 5f4d0 3b .cfa: $rsp .ra: .cfa 8 - ^
STACK CFI 5f4d0 .cfa: $rsp 64 +
STACK CFI INIT 5f51c 3b .cfa: $rsp .ra: .cfa 8 - ^
STACK CFI 5f51c .cfa: $rsp 48 +
STACK CFI INIT 5f568 1bd .cfa: $rsp .ra: .cfa 8 - ^
STACK CFI 5f568 .cfa: $rsp 112 +
STACK CFI INIT 5f794 27b .cfa: $rsp .ra: .cfa 8 - ^
STACK CFI 5f794 .cfa: $rsp 128 +
STACK CFI INIT 5fb30 19b .cfa: $rsp .ra: .cfa 8 - ^
STACK CFI 5fb30 .cfa: $rsp 80 +
STACK CFI INIT 5fd34 8f .cfa: $rsp .ra: .cfa 8 - ^
STACK CFI 5fd34 .cfa: $rsp 8 +
STACK CFI INIT 5fde8 119 .cfa: $rsp .ra: .cfa 8 - ^
STACK CFI 5fde8 .cfa: $rsp 64 +
STACK CFI INIT 5ff48 456 .cfa: $rsp .ra: .cfa 8 - ^
STACK CFI 5ff48 .cfa: $rsp 160 +
STACK CFI INIT 604b4 83 .cfa: $rsp .ra: .cfa 8 - ^
STACK CFI 604b4 .cfa: $rsp 48 +
STACK CFI INIT 60558 62 .cfa: $rsp .ra: .cfa 8 - ^
STACK CFI 60558 .cfa: $rsp 48 +
STACK CFI INIT 605d4 1dc .cfa: $rsp .ra: .cfa 8 - ^
STACK CFI 605d4 .cfa: $rsp 112 +
STACK CFI INIT 60830 179 .cfa: $rsp .ra: .cfa 8 - ^
STACK CFI 60830 .cfa: $rsp 144 +
STACK CFI INIT 60a08 1c8 .cfa: $rsp .ra: .cfa 8 - ^
STACK CFI 60a08 .cfa: $rsp 272 +
STACK CFI INIT 60c44 20 .cfa: $rsp .ra: .cfa 8 - ^
STACK CFI 60c44 .cfa: $rsp 48 +
STACK CFI INIT 60c6c 4c .cfa: $rsp .ra: .cfa 8 - ^
STACK CFI 60c6c .cfa: $rsp 48 +
STACK CFI INIT 60ccc 50 .cfa: $rsp .ra: .cfa 8 - ^
STACK CFI 60ccc .cfa: $rsp 48 +
STACK CFI INIT 60e30 5ab .cfa: $rsp .ra: .cfa 8 - ^
STACK CFI 60e30 .cfa: $rsp 96 +
STACK CFI INIT 61548 66 .cfa: $rsp .ra: .cfa 8 - ^
STACK CFI 61548 .cfa: $rsp 48 +
STACK CFI INIT 615c8 c6 .cfa: $rsp .ra: .cfa 8 - ^
STACK CFI 615c8 .cfa: $rsp 48 +
STACK CFI INIT 616c0 d4 .cfa: $rsp .ra: .cfa 8 - ^
STACK CFI 616c0 .cfa: $rsp 64 +
STACK CFI INIT 617cc cb .cfa: $rsp .ra: .cfa 8 - ^
STACK CFI 617cc .cfa: $rsp 48 +
STACK CFI INIT 618cc d9 .cfa: $rsp .ra: .cfa 8 - ^
STACK CFI 618cc .cfa: $rsp 64 +
STACK CFI INIT 619dc 67 .cfa: $rsp .ra: .cfa 8 - ^
STACK CFI 619dc .cfa: $rsp 64 +
STACK CFI INIT 61a5c 69 .cfa: $rsp .ra: .cfa 8 - ^
STACK CFI 61a5c .cfa: $rsp 64 +
STACK CFI INIT 61ae0 67 .cfa: $rsp .ra: .cfa 8 - ^
STACK CFI 61ae0 .cfa: $rsp 64 +
STACK CFI INIT 61b60 69 .cfa: $rsp .ra: .cfa 8 - ^
STACK CFI 61b60 .cfa: $rsp 64 +
STACK CFI INIT 61be4 31 .cfa: $rsp .ra: .cfa 8 - ^
STACK CFI 61be4 .cfa: $rsp 64 +
STACK CFI INIT 61c24 21 .cfa: $rsp .ra: .cfa 8 - ^
STACK CFI 61c24 .cfa: $rsp 64 +
STACK CFI INIT 61c50 31 .cfa: $rsp .ra: .cfa 8 - ^
STACK CFI 61c50 .cfa: $rsp 64 +
STACK CFI INIT 61c90 21 .cfa: $rsp .ra: .cfa 8 - ^
STACK CFI 61c90 .cfa: $rsp 64 +
STACK CFI INIT 61cbc 30 .cfa: $rsp .ra: .cfa 8 - ^
STACK CFI 61cbc .cfa: $rsp 64 +
STACK CFI INIT 61cf8 20 .cfa: $rsp .ra: .cfa 8 - ^
STACK CFI 61cf8 .cfa: $rsp 64 +
STACK CFI INIT 61d20 30 .cfa: $rsp .ra: .cfa 8 - ^
STACK CFI 61d20 .cfa: $rsp 64 +
STACK CFI INIT 61d5c 20 .cfa: $rsp .ra: .cfa 8 - ^
STACK CFI 61d5c .cfa: $rsp 64 +
STACK CFI INIT 61d84 30 .cfa: $rsp .ra: .cfa 8 - ^
STACK CFI 61d84 .cfa: $rsp 64 +
STACK CFI INIT 61dc0 20 .cfa: $rsp .ra: .cfa 8 - ^
STACK CFI 61dc0 .cfa: $rsp 64 +
STACK CFI INIT 61de8 30 .cfa: $rsp .ra: .cfa 8 - ^
STACK CFI 61de8 .cfa: $rsp 64 +
STACK CFI INIT 61e24 20 .cfa: $rsp .ra: .cfa 8 - ^
STACK CFI 61e24 .cfa: $rsp 64 +
STACK CFI INIT 61e4c 23 .cfa: $rsp .ra: .cfa 8 - ^
STACK CFI 61e4c .cfa: $rsp 64 +
STACK CFI INIT 61e78 13 .cfa: $rsp .ra: .cfa 8 - ^
STACK CFI 61e78 .cfa: $rsp 64 +
STACK CFI INIT 61e90 23 .cfa: $rsp .ra: .cfa 8 - ^
STACK CFI 61e90 .cfa: $rsp 64 +
STACK CFI INIT 61ebc 13 .cfa: $rsp .ra: .cfa 8 - ^
STACK CFI 61ebc .cfa: $rsp 64 +
STACK CFI INIT 61ed4 23 .cfa: $rsp .ra: .cfa 8 - ^
STACK CFI 61ed4 .cfa: $rsp 64 +
STACK CFI INIT 61f00 13 .cfa: $rsp .ra: .cfa 8 - ^
STACK CFI 61f00 .cfa: $rsp 64 +
STACK CFI INIT 61f18 23 .cfa: $rsp .ra: .cfa 8 - ^
STACK CFI 61f18 .cfa: $rsp 64 +
STACK CFI INIT 61f44 13 .cfa: $rsp .ra: .cfa 8 - ^
STACK CFI 61f44 .cfa: $rsp 64 +
STACK CFI INIT 61fac 46 .cfa: $rsp .ra: .cfa 8 - ^
STACK CFI 61fac .cfa: $rsp 48 +
STACK CFI INIT 62004 127 .cfa: $rsp .ra: .cfa 8 - ^
STACK CFI 62004 .cfa: $rsp 96 +
STACK CFI INIT 621b8 bb .cfa: $rsp .ra: .cfa 8 - ^
STACK CFI 621b8 .cfa: $rsp 96 +
STACK CFI INIT 622ac 40 .cfa: $rsp .ra: .cfa 8 - ^
STACK CFI 622ac .cfa: $rsp 48 +
STACK CFI INIT 622fc a3 .cfa: $rsp .ra: .cfa 8 - ^
STACK CFI 622fc .cfa: $rsp 48 +
STACK CFI INIT 623c8 a4 .cfa: $rsp .ra: .cfa 8 - ^
STACK CFI 623c8 .cfa: $rsp 48 +
STACK CFI INIT 62510 a3 .cfa: $rsp .ra: .cfa 8 - ^
STACK CFI 62510 .cfa: $rsp 48 +
STACK CFI INIT 625dc a4 .cfa: $rsp .ra: .cfa 8 - ^
STACK CFI 625dc .cfa: $rsp 48 +
STACK CFI INIT 626ac aa .cfa: $rsp .ra: .cfa 8 - ^
STACK CFI 626ac .cfa: $rsp 80 +
STACK CFI INIT 6279c 27 .cfa: $rsp .ra: .cfa 8 - ^
STACK CFI 6279c .cfa: $rsp 64 +
STACK CFI INIT 627cc 3b .cfa: $rsp .ra: .cfa 8 - ^
STACK CFI 627cc .cfa: $rsp 80 +
STACK CFI INIT 62818 52 .cfa: $rsp .ra: .cfa 8 - ^
STACK CFI 62818 .cfa: $rsp 80 +
STACK CFI INIT 62880 1c .cfa: $rsp .ra: .cfa 8 - ^
STACK CFI 62880 .cfa: $rsp 48 +
STACK CFI INIT 628a4 be .cfa: $rsp .ra: .cfa 8 - ^
STACK CFI 628a4 .cfa: $rsp 80 +
STACK CFI INIT 62994 71 .cfa: $rsp .ra: .cfa 8 - ^
STACK CFI 62994 .cfa: $rsp 48 +
STACK CFI INIT 62a24 26 .cfa: $rsp .ra: .cfa 8 - ^
STACK CFI 62a24 .cfa: $rsp 48 +
STACK CFI INIT 62a74 49 .cfa: $rsp .ra: .cfa 8 - ^
STACK CFI 62a74 .cfa: $rsp 48 +
STACK CFI INIT 62ae0 7e .cfa: $rsp .ra: .cfa 8 - ^
STACK CFI 62ae0 .cfa: $rsp 48 +
STACK CFI INIT 62b80 a1 .cfa: $rsp .ra: .cfa 8 - ^
STACK CFI 62b80 .cfa: $rsp 64 +
STACK CFI INIT 62c4c bd .cfa: $rsp .ra: .cfa 8 - ^
STACK CFI 62c4c .cfa: $rsp 48 +
STACK CFI INIT 62d58 1b .cfa: $rsp .ra: .cfa 8 - ^
STACK CFI 62d58 .cfa: $rsp 48 +
STACK CFI INIT 62d7c 56 .cfa: $rsp .ra: .cfa 8 - ^
STACK CFI 62d7c .cfa: $rsp 48 +
STACK CFI INIT 62e24 ea .cfa: $rsp .ra: .cfa 8 - ^
STACK CFI 62e24 .cfa: $rsp 48 +
STACK CFI INIT 62f54 1b .cfa: $rsp .ra: .cfa 8 - ^
STACK CFI 62f54 .cfa: $rsp 48 +
STACK CFI INIT 63518 137 .cfa: $rsp .ra: .cfa 8 - ^
STACK CFI 63518 .cfa: $rsp 8 +
STACK CFI INIT 63958 147 .cfa: $rsp .ra: .cfa 8 - ^
STACK CFI 63958 .cfa: $rsp 8 +
STACK CFI INIT 63d00 6e .cfa: $rsp .ra: .cfa 8 - ^
STACK CFI 63d00 .cfa: $rsp 48 +
STACK CFI INIT 63e9c 34 .cfa: $rsp .ra: .cfa 8 - ^
STACK CFI 63e9c .cfa: $rsp 48 +
STACK CFI INIT 63f5c 2be .cfa: $rsp .ra: .cfa 8 - ^
STACK CFI 63f5c .cfa: $rsp 64 +
STACK CFI INIT 642cc 65 .cfa: $rsp .ra: .cfa 8 - ^
STACK CFI 642cc .cfa: $rsp 96 +
STACK CFI INIT 6434c ba .cfa: $rsp .ra: .cfa 8 - ^
STACK CFI 6434c .cfa: $rsp 48 +
STACK CFI INIT 64434 127 .cfa: $rsp .ra: .cfa 8 - ^
STACK CFI 64434 .cfa: $rsp 288 +
STACK CFI INIT 645a4 133 .cfa: $rsp .ra: .cfa 8 - ^
STACK CFI 645a4 .cfa: $rsp 288 +
STACK CFI INIT 64760 70 .cfa: $rsp .ra: .cfa 8 - ^
STACK CFI 64760 .cfa: $rsp 32 +
STACK CFI INIT 64810 20 .cfa: $rsp .ra: .cfa 8 - ^
STACK CFI 64810 .cfa: $rsp 64 +
STACK CFI INIT 64838 20 .cfa: $rsp .ra: .cfa 8 - ^
STACK CFI 64838 .cfa: $rsp 64 +
STACK CFI INIT 64860 20 .cfa: $rsp .ra: .cfa 8 - ^
STACK CFI 64860 .cfa: $rsp 64 +
STACK CFI INIT 64888 96 .cfa: $rsp .ra: .cfa 8 - ^
STACK CFI 64888 .cfa: $rsp 112 +
STACK CFI INIT 64944 20 .cfa: $rsp .ra: .cfa 8 - ^
STACK CFI 64944 .cfa: $rsp 64 +
STACK CFI INIT 6496c 9c .cfa: $rsp .ra: .cfa 8 - ^
STACK CFI 6496c .cfa: $rsp 128 +
STACK CFI INIT 64a30 87 .cfa: $rsp .ra: .cfa 8 - ^
STACK CFI 64a30 .cfa: $rsp 96 +
STACK CFI INIT 64ad8 9c .cfa: $rsp .ra: .cfa 8 - ^
STACK CFI 64ad8 .cfa: $rsp 80 +
STACK CFI INIT 64bb0 10 .cfa: $rsp .ra: .cfa 8 - ^
STACK CFI 64bb0 .cfa: $rsp 16 +
STACK CFI INIT 64c68 f1 .cfa: $rsp .ra: .cfa 8 - ^
STACK CFI 64c68 .cfa: $rsp 256 +
STACK CFI INIT 64d98 106 .cfa: $rsp .ra: .cfa 8 - ^
STACK CFI 64d98 .cfa: $rsp 272 +
STACK CFI INIT 64f20 267 .cfa: $rsp .ra: .cfa 8 - ^
STACK CFI 64f20 .cfa: $rsp 112 +
STACK CFI INIT 65228 27 .cfa: $rsp .ra: .cfa 8 - ^
STACK CFI 65228 .cfa: $rsp 80 +
STACK CFI INIT 65258 30d .cfa: $rsp .ra: .cfa 8 - ^
STACK CFI 65258 .cfa: $rsp 48 +
STACK CFI INIT 65628 2a .cfa: $rsp .ra: .cfa 8 - ^
STACK CFI 65628 .cfa: $rsp 80 +
STACK CFI INIT 6565c 2e .cfa: $rsp .ra: .cfa 8 - ^
STACK CFI 6565c .cfa: $rsp 48 +
STACK CFI INIT 65698 d4 .cfa: $rsp .ra: .cfa 8 - ^
STACK CFI 65698 .cfa: $rsp 96 +
STACK CFI INIT 657a4 1d .cfa: $rsp .ra: .cfa 8 - ^
STACK CFI 657a4 .cfa: $rsp 48 +
STACK CFI INIT 657c8 7c .cfa: $rsp .ra: .cfa 8 - ^
STACK CFI 657c8 .cfa: $rsp 48 +
STACK CFI INIT 65864 1f .cfa: $rsp .ra: .cfa 8 - ^
STACK CFI 65864 .cfa: $rsp 48 +
STACK CFI INIT 6588c 11 .cfa: $rsp .ra: .cfa 8 - ^
STACK CFI 6588c .cfa: $rsp 48 +
STACK CFI INIT 658a4 200 .cfa: $rsp .ra: .cfa 8 - ^
STACK CFI 658a4 .cfa: $rsp 128 +
STACK CFI INIT 65b2c 133 .cfa: $rsp .ra: .cfa 8 - ^
STACK CFI 65b2c .cfa: $rsp 96 +
STACK CFI INIT 65ccc 1e .cfa: $rsp .ra: .cfa 8 - ^
STACK CFI 65ccc .cfa: $rsp 64 +
STACK CFI INIT 66070 4d .cfa: $rsp .ra: .cfa 8 - ^
STACK CFI 66070 .cfa: $rsp 48 +
STACK CFI INIT 66118 2b .cfa: $rsp .ra: .cfa 8 - ^
STACK CFI 66118 .cfa: $rsp 48 +
STACK CFI INIT 66150 1d .cfa: $rsp .ra: .cfa 8 - ^
STACK CFI 66150 .cfa: $rsp 48 +
STACK CFI INIT 66174 5b .cfa: $rsp .ra: .cfa 8 - ^
STACK CFI 66174 .cfa: $rsp 16 +
STACK CFI INIT 661e8 85 .cfa: $rsp .ra: .cfa 8 - ^
STACK CFI 661e8 .cfa: $rsp 48 +
STACK CFI INIT 662a0 51 .cfa: $rsp .ra: .cfa 8 - ^
STACK CFI 662a0 .cfa: $rsp 24 +
STACK CFI INIT 6649c 89 .cfa: $rsp .ra: .cfa 8 - ^
STACK CFI 6649c .cfa: $rsp 32 +
STACK CFI INIT 66548 91 .cfa: $rsp .ra: .cfa 8 - ^
STACK CFI 66548 .cfa: $rsp 32 +
STACK CFI INIT 66600 149 .cfa: $rsp .ra: .cfa 8 - ^
STACK CFI 66600 .cfa: $rsp 32 +
STACK CFI INIT 6679c 29 .cfa: $rsp .ra: .cfa 8 - ^
STACK CFI 6679c .cfa: $rsp 48 +
STACK CFI INIT 667e0 c7 .cfa: $rsp .ra: .cfa 8 - ^
STACK CFI 667e0 .cfa: $rsp 8 +
STACK CFI INIT 68440 2 .cfa: $rsp .ra: .cfa 8 - ^
STACK CFI 68440 .cfa: $rsp 8 +
STACK CFI INIT 69450 17 .cfa: $rsp .ra: .cfa 8 - ^
STACK CFI 69450 .cfa: $rsp 48 +
STACK CFI INIT 6946c 1c .cfa: $rsp .ra: .cfa 8 - ^
STACK CFI 6946c .cfa: $rsp 48 +
STACK CFI INIT 6948f 36 .cfa: $rsp .ra: .cfa 8 - ^
STACK CFI 6948f .cfa: $rsp 64 +
STACK CFI INIT 694d2 18 .cfa: $rsp .ra: .cfa 8 - ^
STACK CFI 694d2 .cfa: $rsp 16 +
STACK CFI INIT 694f0 18 .cfa: $rsp .ra: .cfa 8 - ^
STACK CFI 694f0 .cfa: $rsp 48 +
STACK CFI INIT 6951d 16 .cfa: $rsp .ra: .cfa 8 - ^
STACK CFI 6951d .cfa: $rsp 48 +
STACK CFI INIT 69538 91 .cfa: $rsp .ra: .cfa 8 - ^
STACK CFI 69538 .cfa: $rsp 96 +
STACK CFI INIT 695ed 91 .cfa: $rsp .ra: .cfa 8 - ^
STACK CFI 695ed .cfa: $rsp 96 +
STACK CFI INIT 696a2 25 .cfa: $rsp .ra: .cfa 8 - ^
STACK CFI 696a2 .cfa: $rsp 48 +
STACK CFI INIT 696c7 78 .cfa: $rsp .ra: .cfa 8 - ^
STACK CFI 696c7 .cfa: $rsp 64 +
STACK CFI INIT 69766 3e .cfa: $rsp .ra: .cfa 8 - ^
STACK CFI 69766 .cfa: $rsp 64 +
STACK CFI INIT 697a4 94 .cfa: $rsp .ra: .cfa 8 - ^
STACK CFI 697a4 .cfa: $rsp 64 +
STACK CFI INIT 6986c 16 .cfa: $rsp .ra: .cfa 8 - ^
STACK CFI 6986c .cfa: $rsp 48 +
STACK CFI INIT 69882 23 .cfa: $rsp .ra: .cfa 8 - ^
STACK CFI 69882 .cfa: $rsp 48 +
STACK CFI INIT 698b3 16 .cfa: $rsp .ra: .cfa 8 - ^
STACK CFI 698b3 .cfa: $rsp 64 +
STACK CFI INIT 698c9 23 .cfa: $rsp .ra: .cfa 8 - ^
STACK CFI 698c9 .cfa: $rsp 64 +
STACK CFI INIT 698fa 1a .cfa: $rsp .ra: .cfa 8 - ^
STACK CFI 698fa .cfa: $rsp 48 +
STACK CFI INIT 6991a 1b .cfa: $rsp .ra: .cfa 8 - ^
STACK CFI 6991a .cfa: $rsp 48 +
STACK CFI INIT 6993b 1a .cfa: $rsp .ra: .cfa 8 - ^
STACK CFI 6993b .cfa: $rsp 48 +
STACK CFI INIT 6995b 1a .cfa: $rsp .ra: .cfa 8 - ^
STACK CFI 6995b .cfa: $rsp 48 +
STACK CFI INIT 6997b 1b .cfa: $rsp .ra: .cfa 8 - ^
STACK CFI 6997b .cfa: $rsp 48 +
STACK CFI INIT 6999c 1b .cfa: $rsp .ra: .cfa 8 - ^
STACK CFI 6999c .cfa: $rsp 48 +
STACK CFI INIT 699bd 1b .cfa: $rsp .ra: .cfa 8 - ^
STACK CFI 699bd .cfa: $rsp 48 +
STACK CFI INIT 699de 1b .cfa: $rsp .ra: .cfa 8 - ^
STACK CFI 699de .cfa: $rsp 48 +
STACK CFI INIT 699ff 1b .cfa: $rsp .ra: .cfa 8 - ^
STACK CFI 699ff .cfa: $rsp 48 +
STACK CFI INIT 69a20 1b .cfa: $rsp .ra: .cfa 8 - ^
STACK CFI 69a20 .cfa: $rsp 48 +
STACK CFI INIT 69a41 1a .cfa: $rsp .ra: .cfa 8 - ^
STACK CFI 69a41 .cfa: $rsp 48 +
STACK CFI INIT 69a61 1a .cfa: $rsp .ra: .cfa 8 - ^
STACK CFI 69a61 .cfa: $rsp 48 +
STACK CFI INIT 69a81 1a .cfa: $rsp .ra: .cfa 8 - ^
STACK CFI 69a81 .cfa: $rsp 48 +
STACK CFI INIT 69aa1 1a .cfa: $rsp .ra: .cfa 8 - ^
STACK CFI 69aa1 .cfa: $rsp 48 +
STACK CFI INIT 69ac1 1a .cfa: $rsp .ra: .cfa 8 - ^
STACK CFI 69ac1 .cfa: $rsp 48 +
STACK CFI INIT 69ae1 19 .cfa: $rsp .ra: .cfa 8 - ^
STACK CFI 69ae1 .cfa: $rsp 48 +
STACK CFI INIT 69b00 1a .cfa: $rsp .ra: .cfa 8 - ^
STACK CFI 69b00 .cfa: $rsp 48 +
STACK CFI INIT 69b20 19 .cfa: $rsp .ra: .cfa 8 - ^
STACK CFI 69b20 .cfa: $rsp 48 +
STACK CFI INIT 69b3f 16 .cfa: $rsp .ra: .cfa 8 - ^
STACK CFI 69b3f .cfa: $rsp 48 +
STACK CFI INIT 69b5a 16 .cfa: $rsp .ra: .cfa 8 - ^
STACK CFI 69b5a .cfa: $rsp 48 +
STACK CFI INIT 69b75 1a .cfa: $rsp .ra: .cfa 8 - ^
STACK CFI 69b75 .cfa: $rsp 48 +
STACK CFI INIT 69b95 19 .cfa: $rsp .ra: .cfa 8 - ^
STACK CFI 69b95 .cfa: $rsp 48 +
STACK CFI INIT 69bb4 21 .cfa: $rsp .ra: .cfa 8 - ^
STACK CFI 69bb4 .cfa: $rsp 48 +
STACK CFI INIT 69bdd 19 .cfa: $rsp .ra: .cfa 8 - ^
STACK CFI 69bdd .cfa: $rsp 48 +
STACK CFI INIT 69bfc 1b .cfa: $rsp .ra: .cfa 8 - ^
STACK CFI 69bfc .cfa: $rsp 48 +
STACK CFI INIT 69c1d 1d .cfa: $rsp .ra: .cfa 8 - ^
STACK CFI 69c1d .cfa: $rsp 48 +
STACK CFI INIT 69c41 1b .cfa: $rsp .ra: .cfa 8 - ^
STACK CFI 69c41 .cfa: $rsp 48 +
STACK CFI INIT 69c62 18 .cfa: $rsp .ra: .cfa 8 - ^
STACK CFI 69c62 .cfa: $rsp 48 +
STACK CFI INIT 69c80 1a .cfa: $rsp .ra: .cfa 8 - ^
STACK CFI 69c80 .cfa: $rsp 48 +
STACK CFI INIT 69ca0 1a .cfa: $rsp .ra: .cfa 8 - ^
STACK CFI 69ca0 .cfa: $rsp 48 +
STACK CFI INIT 69cc0 1a .cfa: $rsp .ra: .cfa 8 - ^
STACK CFI 69cc0 .cfa: $rsp 48 +
STACK CFI INIT 69ce0 1a .cfa: $rsp .ra: .cfa 8 - ^
STACK CFI 69ce0 .cfa: $rsp 48 +
STACK CFI INIT 69d00 21 .cfa: $rsp .ra: .cfa 8 - ^
STACK CFI 69d00 .cfa: $rsp 48 +
STACK CFI INIT 69d29 1a .cfa: $rsp .ra: .cfa 8 - ^
STACK CFI 69d29 .cfa: $rsp 48 +
STACK CFI INIT 69d49 19 .cfa: $rsp .ra: .cfa 8 - ^
STACK CFI 69d49 .cfa: $rsp 48 +
STACK CFI INIT 69d62 19 .cfa: $rsp .ra: .cfa 8 - ^
STACK CFI 69d62 .cfa: $rsp 48 +
STACK CFI INIT 69d87 19 .cfa: $rsp .ra: .cfa 8 - ^
STACK CFI 69d87 .cfa: $rsp 48 +
STACK CFI INIT 69da6 19 .cfa: $rsp .ra: .cfa 8 - ^
STACK CFI 69da6 .cfa: $rsp 48 +
STACK CFI INIT 69dc5 19 .cfa: $rsp .ra: .cfa 8 - ^
STACK CFI 69dc5 .cfa: $rsp 48 +
STACK CFI INIT 69de4 41 .cfa: $rsp .ra: .cfa 8 - ^
STACK CFI 69de4 .cfa: $rsp 48 +
STACK CFI INIT 69e35 1a .cfa: $rsp .ra: .cfa 8 - ^
STACK CFI 69e35 .cfa: $rsp 48 +
STACK CFI INIT 69e55 17 .cfa: $rsp .ra: .cfa 8 - ^
STACK CFI 69e55 .cfa: $rsp 48 +
STACK CFI INIT 69e71 19 .cfa: $rsp .ra: .cfa 8 - ^
STACK CFI 69e71 .cfa: $rsp 48 +
STACK CFI INIT 69e90 17 .cfa: $rsp .ra: .cfa 8 - ^
STACK CFI 69e90 .cfa: $rsp 48 +
STACK CFI INIT 69eac 17 .cfa: $rsp .ra: .cfa 8 - ^
STACK CFI 69eac .cfa: $rsp 48 +
STACK CFI INIT 69ec8 1a .cfa: $rsp .ra: .cfa 8 - ^
STACK CFI 69ec8 .cfa: $rsp 48 +
STACK CFI INIT 69ee8 17 .cfa: $rsp .ra: .cfa 8 - ^
STACK CFI 69ee8 .cfa: $rsp 48 +
STACK CFI INIT 69f04 18 .cfa: $rsp .ra: .cfa 8 - ^
STACK CFI 69f04 .cfa: $rsp 48 +
STACK CFI INIT 69f22 1a .cfa: $rsp .ra: .cfa 8 - ^
STACK CFI 69f22 .cfa: $rsp 48 +
STACK CFI INIT 69f42 19 .cfa: $rsp .ra: .cfa 8 - ^
STACK CFI 69f42 .cfa: $rsp 48 +
STACK CFI INIT 69f61 2c .cfa: $rsp .ra: .cfa 8 - ^
STACK CFI 69f61 .cfa: $rsp 48 +
STACK CFI INIT 69f98 2c .cfa: $rsp .ra: .cfa 8 - ^
STACK CFI 69f98 .cfa: $rsp 48 +
STACK CFI INIT 69fd0 20 .cfa: $rsp .ra: .cfa 8 - ^
STACK CFI 69fd0 .cfa: $rsp 48 +
