MODULE windows x86 E9D14466C78A4095B78817BBDF767FBD3 basic32-min.pdb
INFO CODE_ID 5D9CAC436C000 basic32-min.dll
PUBLIC 6be0 0 test1(int *)
PUBLIC 6c00 0 test2(int,unsigned int)
PUBLIC 6c20 0 test3(int,unsigned int,short)
PUBLIC 6c40 0 test4(int,unsigned int,unsigned short,double *)
PUBLIC 6c70 0 test5(int *,unsigned int,unsigned short,double const *,std::basic_string<char,std::char_traits<char>,std::allocator<char> >)
PUBLIC 6c90 0 test6(double const * const,std::basic_string<char,std::char_traits<char>,std::allocator<char> > const &,std::basic_string<char,std::char_traits<char>,std::allocator<char> > &&)
PUBLIC 6cb0 0 test7(void (*)(int,unsigned int,unsigned short,double *))
PUBLIC 6cd0 0 test8(int (*)(void (*)(int,unsigned int,unsigned short,double *)))
PUBLIC 6cf0 0 test9(int (*)(int (*)(void (*)(int,unsigned int,unsigned short,double *))))
PUBLIC 6d10 0 test10(char * &)
PUBLIC 6d30 0 test_array(char * const,int (* const)[34],std::basic_string<char,std::char_traits<char>,std::allocator<char> > (* const)[34][56],double * (* const)[34][56][78])
PUBLIC 6dc0 0 std::basic_string<char,std::char_traits<char>,std::allocator<char> >::~basic_string<char,std::char_traits<char>,std::allocator<char> >()
PUBLIC 6df0 0 A::A()
PUBLIC 6e10 0 A::A(A &&)
PUBLIC 6e40 0 A::~A()
PUBLIC 6e50 0 A::meth1(int)
PUBLIC 6e70 0 A::meth1(double)
PUBLIC 6ea0 0 A::meth1(short,signed char)
PUBLIC 6ed0 0 A::meth2(int)
PUBLIC 6ef0 0 A::meth2(double)
PUBLIC 6f20 0 A::meth2(short,signed char)
PUBLIC 6f40 0 A::meth4(A *,A::B &&)
PUBLIC 6f70 0 std::basic_string<char,std::char_traits<char>,std::allocator<char> >::_Tidy_deallocate()
PUBLIC 7070 0 std::_String_alloc<std::_String_base_types<char,std::allocator<char> > >::~_String_alloc<std::_String_base_types<char,std::allocator<char> > >()
PUBLIC 7090 0 std::_String_alloc<std::_String_base_types<char,std::allocator<char> > >::_Orphan_all()
PUBLIC 70c0 0 std::_String_alloc<std::_String_base_types<char,std::allocator<char> > >::_Get_data()
PUBLIC 70e0 0 std::_String_val<std::_Simple_types<char> >::_Large_string_engaged()
PUBLIC 7110 0 std::_String_alloc<std::_String_base_types<char,std::allocator<char> > >::_Getal()
PUBLIC 7130 0 std::_Default_allocator_traits<std::allocator<char> >::destroy<char *>(std::allocator<char> &,char * * const)
PUBLIC 7150 0 std::addressof<char *>(char * &)
PUBLIC 7170 0 std::allocator<char>::deallocate(char * const,unsigned int)
PUBLIC 71b0 0 std::char_traits<char>::assign(char &,char const &)
PUBLIC 71e0 0 std::_Container_base0::_Orphan_all()
PUBLIC 71f0 0 std::_Compressed_pair<std::allocator<char>,std::_String_val<std::_Simple_types<char> >,1>::_Get_second()
PUBLIC 7210 0 std::_Compressed_pair<std::allocator<char>,std::_String_val<std::_Simple_types<char> >,1>::_Get_first()
PUBLIC 7230 0 std::_Deallocate<8,0>(void *,unsigned int)
PUBLIC 72b0 0 std::_Adjust_manually_vector_aligned(void * &,unsigned int &)
PUBLIC 7350 0 std::_Compressed_pair<std::allocator<char>,std::_String_val<std::_Simple_types<char> >,1>::~_Compressed_pair<std::allocator<char>,std::_String_val<std::_Simple_types<char> >,1>()
PUBLIC 7370 0 std::_String_val<std::_Simple_types<char> >::~_String_val<std::_Simple_types<char> >()
PUBLIC 7390 0 std::_String_val<std::_Simple_types<char> >::_Bxty::~_Bxty()
PUBLIC 9ae0 0 __security_check_cookie
PUBLIC 9af5 0 operator delete(void *,unsigned int)
FUNC 9b06 53 0 dllmain_crt_dispatch
FUNC 9b6d 10a 0 dllmain_crt_process_attach
FUNC 9cb9 92 0 dllmain_crt_process_detach
FUNC 9d6f 106 0 dllmain_dispatch
FUNC 9eb6 2b 0 dllmain_raw
PUBLIC 9eeb c _CRT_INIT
PUBLIC 9ef6 c _DllMainCRTStartup
PUBLIC 9f21 0 __raise_securityfailure
PUBLIC 9f53 0 __report_gsfailure
PUBLIC a08a 0 __report_rangecheckfailure
PUBLIC a099 0 __report_securityfailure
PUBLIC a19a 0 __report_securityfailureEx
PUBLIC a2f3 0 operator delete(void *)
FUNC a2f8 4d 0 __get_entropy
PUBLIC a358 0 __security_init_cookie
PUBLIC a3b5 c DllMain
PUBLIC a3bb 0 __scrt_initialize_type_info()
PUBLIC a3ca 0 __scrt_uninitialize_type_info()
PUBLIC a3d9 0 __local_stdio_printf_options
PUBLIC a3df 0 __local_stdio_scanf_options
PUBLIC a3e5 0 __scrt_initialize_default_local_stdio_options
PUBLIC a409 0 __crt_fast_decode_pointer<void (**)(void)>(void (** const)(void))
PUBLIC a422 0 __crt_fast_encode_pointer<void (**)(void)>(void (** const)(void))
PUBLIC a446 0 __crt_rotate_pointer_value(unsigned int,int)
PUBLIC a456 0 __scrt_narrow_argv_policy::configure_argv()
FUNC a466 44 0 find_pe_section
PUBLIC a4bb 0 __scrt_narrow_environment_policy::initialize_environment()
FUNC a4c0 34 0 is_potentially_valid_image_base
PUBLIC a501 0 NtCurrentTeb
PUBLIC a508 0 __scrt_acquire_startup_lock
PUBLIC a546 0 __scrt_dllmain_after_initialize_c
PUBLIC a57b 0 __scrt_dllmain_before_initialize_c
PUBLIC a58c 0 __scrt_dllmain_crt_thread_attach
PUBLIC a5b2 0 __scrt_dllmain_crt_thread_detach
PUBLIC a5c2 0 __scrt_dllmain_exception_filter
PUBLIC a603 0 __scrt_dllmain_uninitialize_c
PUBLIC a62e 0 __scrt_dllmain_uninitialize_critical
PUBLIC a63e 0 __scrt_initialize_crt
PUBLIC a685 0 __scrt_initialize_onexit_tables
PUBLIC a753 0 __scrt_is_nonwritable_in_current_image
PUBLIC a80c 0 __scrt_release_startup_lock
PUBLIC a830 0 __scrt_uninitialize_crt
PUBLIC a862 0 _onexit
PUBLIC a8ab 0 at_quick_exit
PUBLIC a8e8 0 atexit
PUBLIC a902 0 __scrt_get_dyn_tls_init_callback
PUBLIC a908 0 __scrt_fastfail
PUBLIC aa68 0 __scrt_get_show_window_mode
PUBLIC aaa5 0 __scrt_initialize_mta
PUBLIC aaaa 0 __scrt_initialize_winrt
PUBLIC aaad 0 __scrt_is_managed_app
PUBLIC ab00 0 __scrt_set_unhandled_exception_filter
PUBLIC m ab0f 0 __scrt_exe_initialize_mta
PUBLIC ab12 4 __scrt_unhandled_exception_filter
PUBLIC ab63 0 _crt_debugger_hook
PUBLIC ab6d 0 _RTC_Initialize
PUBLIC aba4 0 _RTC_Terminate
PUBLIC abe0 0 _SEH_prolog4
PUBLIC ac26 0 _SEH_epilog4
PUBLIC ac51 0 _guard_check_icall_nop
PUBLIC ac52 0 ReadNoFence
PUBLIC ac5e 0 ReadPointerNoFence
PUBLIC ac6a 0 _guard_icall_checks_enforced
PUBLIC ac80 0 __isa_available_init
PUBLIC ae7c 0 _get_startup_argv_mode
PUBLIC ae80 0 __scrt_is_ucrt_dll_in_use
PUBLIC ae8f 4 UnhandledExceptionFilter
PUBLIC ae95 4 SetUnhandledExceptionFilter
PUBLIC ae9b 0 GetCurrentProcess
PUBLIC aea1 8 TerminateProcess
PUBLIC aea7 4 IsProcessorFeaturePresent
PUBLIC aead 4 QueryPerformanceCounter
PUBLIC aeb3 0 GetCurrentProcessId
PUBLIC aeb9 0 GetCurrentThreadId
PUBLIC aebf 4 GetSystemTimeAsFileTime
PUBLIC aec5 4 InitializeSListHead
PUBLIC aecb 0 IsDebuggerPresent
PUBLIC aed1 4 GetStartupInfoW
PUBLIC aed7 4 GetModuleHandleW
FUNC aee0 32 0 ValidateLocalCookies
PUBLIC af20 0 _except_handler4
FUNC b0cc 5 0 <lambda_02a71323d951a238fa4826e9f186893b>::<lambda_invoker_cdecl>
FUNC b0d1 9 0 <lambda_cea3005bd909f0fdd45a57e92f4e3309>::<lambda_invoker_cdecl>
PUBLIC b0dc 0 __crt_internal_free_policy::operator()<char>(char const * const)
PUBLIC b0f0 0 __crt_internal_free_policy::operator()<void>(void const * const)
PUBLIC b104 0 __crt_interlocked_compare_exchange_pointer<char const ,char *,std::nullptr_t>(char const * const volatile *,char * const,std::nullptr_t)
PUBLIC b11a 0 __crt_interlocked_read_pointer<char const >(char const * const volatile *)
PUBLIC b126 0 __crt_unique_heap_ptr<char,__crt_internal_free_policy>::__crt_unique_heap_ptr<char,__crt_internal_free_policy>(char * const)
PUBLIC b137 0 __crt_unique_heap_ptr<void,__crt_internal_free_policy>::__crt_unique_heap_ptr<void,__crt_internal_free_policy>(void * const)
PUBLIC b148 0 __crt_unique_heap_ptr<char,__crt_internal_free_policy>::~__crt_unique_heap_ptr<char,__crt_internal_free_policy>()
PUBLIC b15c 0 __crt_unique_heap_ptr<void,__crt_internal_free_policy>::~__crt_unique_heap_ptr<void,__crt_internal_free_policy>()
FUNC b170 6 0 <lambda_02a71323d951a238fa4826e9f186893b>::operator void (__cdecl*)(void * const)
FUNC b176 6 0 <lambda_cea3005bd909f0fdd45a57e92f4e3309>::operator void * (__cdecl*)(unsigned int)
PUBLIC b17c 0 __crt_unique_heap_ptr<char,__crt_internal_free_policy>::operator bool()
PUBLIC b183 0 __crt_unique_heap_ptr<void,__crt_internal_free_policy>::operator bool()
FUNC b18a 10 0 <lambda_02a71323d951a238fa4826e9f186893b>::operator()
FUNC b19e 10 0 <lambda_cea3005bd909f0fdd45a57e92f4e3309>::operator()
PUBLIC b1b2 0 __crt_interlocked_read_32(int const volatile *)
PUBLIC b1be 0 __crt_unique_heap_ptr<void,__crt_internal_free_policy>::detach()
PUBLIC b1c4 0 __crt_unique_heap_ptr<char,__crt_internal_free_policy>::get()
PUBLIC b1c7 0 __crt_unique_heap_ptr<void,__crt_internal_free_policy>::get()
PUBLIC b1ca 0 __crt_unique_heap_ptr<char,__crt_internal_free_policy>::is_valid()
PUBLIC b1d1 0 __crt_unique_heap_ptr<void,__crt_internal_free_policy>::is_valid()
PUBLIC b1d8 0 __crt_unique_heap_ptr<char,__crt_internal_free_policy>::release()
PUBLIC b1ec 0 __crt_unique_heap_ptr<void,__crt_internal_free_policy>::release()
PUBLIC b200 0 __std_type_info_compare
PUBLIC b24b 0 __std_type_info_destroy_list
PUBLIC b276 0 __std_type_info_hash
PUBLIC b2a5 0 __std_type_info_name
PUBLIC b398 0 __vcrt_initialize
PUBLIC b3cb 0 __vcrt_thread_attach
PUBLIC b3d8 0 __vcrt_thread_detach
PUBLIC b3e5 0 __vcrt_uninitialize
PUBLIC b40b 0 __vcrt_uninitialize_critical
FUNC b415 1 0 init_memcpy_functions
PUBLIC b420 0 memset
PUBLIC b5d0 0 _local_unwind4
FUNC b660 46 0 _unwind_handler4
PUBLIC b6a8 4 _seh_longjmp_unwind4
PUBLIC b6d0 0 _EH4_CallFilterFunc
PUBLIC b6e8 0 _EH4_TransferToHandler
PUBLIC b704 0 _EH4_GlobalUnwind2
PUBLIC b720 8 _EH4_LocalUnwind
FUNC b790 b 0 __except_get_jumpbuf_sp
PUBLIC b79d 0 __except_validate_context_record
PUBLIC b7d9 0 __except_validate_jump_buffer
PUBLIC b811 0 __except_validate_jump_buffer_common
PUBLIC b858 0 _HeapManager::Block::Block()
PUBLIC b85e 0 DName::DName(char const * &,char)
PUBLIC b93c 0 DName::DName(DName const &)
PUBLIC b957 0 DName::DName(char)
PUBLIC b985 0 DName::DName(DName *)
PUBLIC b9df 0 DName::DName(char const *)
PUBLIC ba1e 0 DName::DName(DNameStatus)
PUBLIC ba6e 0 DName::DName()
PUBLIC ba7a 0 DName::DName(__int64)
PUBLIC bb29 0 DName::DName(unsigned __int64)
PUBLIC bba8 0 DNameNode::DNameNode()
PUBLIC bbb3 0 Replicator::Replicator()
FUNC bbb9 9 0 `UnDecorator::getDecoratedName'::`2'::TrackRecursion::TrackRecursion
PUBLIC bbc4 0 UnDecorator::UnDecorator(char const *,char * (*)(long),unsigned long)
PUBLIC bc23 0 charNode::charNode(char)
PUBLIC bc3d 0 pDNameNode::pDNameNode(DName *)
PUBLIC bc6f 0 pairNode::pairNode(DNameNode const *,DNameNode const *)
PUBLIC bc95 0 pcharNode::pcharNode(char const *,int)
FUNC bd04 7 0 `UnDecorator::getDecoratedName'::`2'::TrackRecursion::~TrackRecursion
PUBLIC bd0b 0 operator new(unsigned int,_HeapManager &,int)
PUBLIC bd25 0 DName::operator=(DName const &)
PUBLIC bd40 0 DName::operator=(char)
PUBLIC bd6e 0 DName::operator=(DName *)
PUBLIC bdc0 0 DName::operator=(char const *)
PUBLIC bdf5 0 DName::operator=(DNameStatus)
PUBLIC be33 0 Replicator::operator[](int)
PUBLIC be8a 0 operator+(char,DName const &)
PUBLIC beb4 0 operator+(char const *,DName const &)
PUBLIC bede 0 operator+(DNameStatus,DName const &)
PUBLIC bf08 0 DName::operator+(DName const &)
PUBLIC bf32 0 DName::operator+(char)
PUBLIC bf5c 0 DName::operator+(DName *)
PUBLIC bf86 0 DName::operator+(char const *)
PUBLIC bfb0 0 DName::operator+(DNameStatus)
PUBLIC bfda 0 DName::operator+=(DName const &)
PUBLIC c02b 0 DName::operator+=(char)
PUBLIC c08f 0 DName::operator+=(DName *)
PUBLIC c10d 0 DName::operator+=(char const *)
PUBLIC c186 0 DName::operator+=(DNameStatus)
PUBLIC c1d6 0 Replicator::operator+=(DName const &)
PUBLIC c232 0 DName::operator|=(DName const &)
PUBLIC c255 0 _HeapManager::Constructor(void * (*)(unsigned int),void (*)(void *))
PUBLIC c279 0 _HeapManager::Destructor()
PUBLIC c2bf 0 UnDecorator::UScore(Tokens)
PUBLIC c2e5 0 DName::append(DNameNode const *)
PUBLIC c33c 0 UnDecorator::composeDeclaration(DName const &)
PUBLIC d350 0 UnDecorator::doAccessSpecifiers()
PUBLIC d361 0 UnDecorator::doAllocationLanguage()
PUBLIC d372 0 UnDecorator::doAllocationModel()
PUBLIC d383 0 UnDecorator::doEcsu()
PUBLIC d394 0 UnDecorator::doEllipsis()
PUBLIC d3a5 0 UnDecorator::doFunctionReturns()
PUBLIC d3b6 0 UnDecorator::doMSKeywords()
PUBLIC d3c6 0 UnDecorator::doMemberTypes()
PUBLIC d3d7 0 UnDecorator::doNameOnly()
PUBLIC d3e4 0 UnDecorator::doNoIdentCharCheck()
PUBLIC d3f1 0 DName::doPchar(char const *,int)
PUBLIC d498 0 UnDecorator::doPtr64()
PUBLIC d4a9 0 UnDecorator::doRestrictionSpec()
PUBLIC d4ba 0 UnDecorator::doThisTypes()
PUBLIC d4d0 0 UnDecorator::doThrowTypes()
PUBLIC d4e1 0 UnDecorator::doTypeOnly()
PUBLIC d4ee 0 UnDecorator::doUnderScore()
PUBLIC d4fb 0 UnDecorator::getArgumentList()
PUBLIC d62e 0 UnDecorator::getArgumentTypes()
PUBLIC d72a 0 UnDecorator::getArrayType(DName const &)
PUBLIC d947 0 UnDecorator::getBasedType()
PUBLIC da05 0 UnDecorator::getBasicDataType(DName const &)
PUBLIC dedb 0 UnDecorator::getCHPEName(char *,int)
PUBLIC dff1 0 UnDecorator::getCallIndex()
PUBLIC e00a 0 UnDecorator::getCallingConvention()
PUBLIC e111 0 UnDecorator::getDataIndirectType(DName const &,char const *,DName const &,int)
PUBLIC e875 0 UnDecorator::getDataIndirectType()
PUBLIC e8b3 0 UnDecorator::getDataType(DName *)
PUBLIC e9a9 0 UnDecorator::getDecoratedName()
PUBLIC ec7b 0 UnDecorator::getDimension(bool)
PUBLIC ede1 0 UnDecorator::getDispatchTarget()
PUBLIC ee4a 0 UnDecorator::getDisplacement()
PUBLIC ee63 0 UnDecorator::getECSUDataType()
PUBLIC efc1 0 UnDecorator::getECSUName()
PUBLIC efd6 0 UnDecorator::getEnumType()
PUBLIC f102 0 UnDecorator::getExtendedDataIndirectType(char const * &,bool &,int)
PUBLIC f326 0 UnDecorator::getExternalDataType(DName const &)
PUBLIC f3a6 0 UnDecorator::getFunctionIndirectType(DName const &)
PUBLIC f874 0 UnDecorator::getGuardNumber()
PUBLIC f88d 0 DName::getLastChar()
PUBLIC f8b5 0 DNameStatusNode::getLastChar()
PUBLIC f8c4 0 charNode::getLastChar()
PUBLIC f8c8 0 pDNameNode::getLastChar()
PUBLIC f8d9 0 pairNode::getLastChar()
PUBLIC f91b 0 pcharNode::getLastChar()
PUBLIC f931 0 UnDecorator::getLexicalFrame()
PUBLIC f97f 0 _HeapManager::getMemory(unsigned int,int)
PUBLIC fa27 0 UnDecorator::getNoexcept()
PUBLIC fa7d 0 UnDecorator::getNumberOfDimensions()
PUBLIC faf6 0 UnDecorator::getOperatorName(bool,bool *)
PUBLIC 102e4 0 UnDecorator::getPointerType(DName const &,DName const &)
PUBLIC 10309 0 UnDecorator::getPointerTypeArray(DName const &,DName const &)
PUBLIC 1032e 0 UnDecorator::getPrimaryDataType(DName const &)
PUBLIC 1058b 0 UnDecorator::getPtrRefDataType(DName const &,int)
PUBLIC 106fe 0 UnDecorator::getPtrRefType(DName const &,DName const &,char const *)
PUBLIC 10836 0 UnDecorator::getReferenceType(DName const &,DName const &,char const *)
PUBLIC 10859 0 UnDecorator::getRestrictionSpec()
PUBLIC 10990 0 UnDecorator::getReturnType(DName *)
PUBLIC 109ca 0 UnDecorator::getScope()
PUBLIC 10e43 0 UnDecorator::getScopedName()
PUBLIC 10f4c 0 UnDecorator::getSignedDimension()
PUBLIC 10fb1 0 UnDecorator::getStorageConvention()
PUBLIC 10fc6 0 DName::getString(char *,char *)
PUBLIC 10ffe 0 DName::getString(char *,int)
PUBLIC 11069 0 DNameStatusNode::getString(char *,char *)
PUBLIC 11099 0 charNode::getString(char *,char *)
PUBLIC 110b3 0 pDNameNode::getString(char *,char *)
PUBLIC 110cf 0 pairNode::getString(char *,char *)
PUBLIC 11126 0 pcharNode::getString(char *,char *)
PUBLIC 11147 0 UnDecorator::getStringEncoding(char const *,int)
PUBLIC 11223 0 getStringHelper(char *,char const *,char const *,int)
PUBLIC 11267 0 UnDecorator::getSymbolName()
PUBLIC 112c1 0 UnDecorator::getTemplateArgumentList()
PUBLIC 11605 0 UnDecorator::getTemplateConstant()
PUBLIC 11a03 0 UnDecorator::getTemplateName(bool)
PUBLIC 11bbd 0 UnDecorator::getThisType()
PUBLIC 11bfc 0 UnDecorator::getThrowTypes()
PUBLIC 11c27 0 UnDecorator::getTypeEncoding()
PUBLIC 12019 0 UnDecorator::getUndecoratedName(char *,int)
PUBLIC 1210e 0 UnDecorator::getVCallThunkType()
PUBLIC 12166 0 UnDecorator::getVbTableType(DName const &)
PUBLIC 12180 0 UnDecorator::getVdispMapType(DName const &)
PUBLIC 121e9 0 UnDecorator::getVfTableType(DName const &)
PUBLIC 123a4 0 UnDecorator::getZName(bool,bool)
PUBLIC 12622 0 UnDecorator::haveTemplateParameters()
PUBLIC 1262f 0 DName::isArray()
PUBLIC 1263b 0 DName::isComArray()
PUBLIC 12647 0 DName::isEmpty()
PUBLIC 12651 0 Replicator::isFull()
PUBLIC 1265c 0 DName::isNoTE()
PUBLIC 12668 0 DName::isPinPtr()
PUBLIC 12674 0 DName::isPtrRef()
PUBLIC 12680 0 DName::isUDC()
PUBLIC 12695 0 DName::isUDTThunk()
PUBLIC 126aa 0 DName::isVCallThunk()
PUBLIC 126b6 0 DName::isValid()
PUBLIC 126c2 0 DName::length()
PUBLIC 126e8 0 DNameStatusNode::length()
PUBLIC 126ec 0 charNode::length()
PUBLIC 126f0 0 pDNameNode::length()
PUBLIC 12701 0 pairNode::length()
PUBLIC 12758 0 pcharNode::length()
PUBLIC 1275c 0 DNameStatusNode::make(DNameStatus)
PUBLIC 1277f 0 UnDecorator::parseDecoratedName()
PUBLIC 128a8 0 DName::setIsArray()
PUBLIC 128b2 0 DName::setIsComArray()
PUBLIC 128bc 0 DName::setIsNoTE()
PUBLIC 128c6 0 DName::setIsPinPtr()
PUBLIC 128d0 0 DName::setIsUDC()
PUBLIC 128e0 0 DName::setIsVCallThunk()
PUBLIC 128ea 0 DName::setPtrRef()
PUBLIC 128f6 0 DName::status()
FUNC 128fb 21 0 und_memcpy
FUNC 12924 15 0 und_strlen
FUNC 1293e 31 0 und_strncmp
PUBLIC 1297b 0 __unDName
PUBLIC 129a6 0 __unDNameEx
PUBLIC 12a6c 0 _vsprintf_s_l
PUBLIC 12aa4 0 sprintf_s
PUBLIC 12ac7 0 unDNameGenerateCHPE
PUBLIC 12b3a 0 __crt_internal_free_policy::operator()<__vcrt_ptd>(__vcrt_ptd const * const)
PUBLIC 12b4e 0 __crt_unique_heap_ptr<__vcrt_ptd,__crt_internal_free_policy>::__crt_unique_heap_ptr<__vcrt_ptd,__crt_internal_free_policy>(__vcrt_ptd * const)
FUNC 12b5f f 0 `anonymous namespace'::scoped_get_last_error_reset::scoped_get_last_error_reset
PUBLIC 12b71 0 __crt_unique_heap_ptr<__vcrt_ptd,__crt_internal_free_policy>::~__crt_unique_heap_ptr<__vcrt_ptd,__crt_internal_free_policy>()
FUNC 12b85 9 0 `anonymous namespace'::scoped_get_last_error_reset::~scoped_get_last_error_reset
PUBLIC 12b90 0 __crt_unique_heap_ptr<__vcrt_ptd,__crt_internal_free_policy>::operator bool()
PUBLIC 12b97 0 __crt_unique_heap_ptr<__vcrt_ptd,__crt_internal_free_policy>::detach()
PUBLIC 12b9d 0 __crt_unique_heap_ptr<__vcrt_ptd,__crt_internal_free_policy>::get()
PUBLIC 12ba0 0 __crt_unique_heap_ptr<__vcrt_ptd,__crt_internal_free_policy>::is_valid()
PUBLIC 12ba7 0 __crt_unique_heap_ptr<__vcrt_ptd,__crt_internal_free_policy>::release()
FUNC 12bbb 1a 0 store_and_initialize_ptd
PUBLIC 12bdb 4 __vcrt_freefls
PUBLIC 12bfe 0 __vcrt_freeptd
PUBLIC 12c41 0 __vcrt_getptd
PUBLIC 12c52 0 __vcrt_getptd_noexit
PUBLIC 12d08 0 __vcrt_getptd_noinit
PUBLIC 12d4c 0 __vcrt_initialize_ptd
PUBLIC 12d8b 0 __vcrt_uninitialize_ptd
PUBLIC 12dac 0 __vcrt_initialize_locks
PUBLIC 12df7 0 __vcrt_lock
PUBLIC 12e11 0 __vcrt_uninitialize_locks
PUBLIC 12e4b 0 __vcrt_unlock
PUBLIC 12e65 0 __crt_fast_encoded_nullptr_t::operator<void> void *()
PUBLIC 12e6b 0 __crt_fast_decode_pointer<void *>(void * const)
PUBLIC 12e84 0 __crt_fast_encode_pointer<void *>(void * const)
PUBLIC 12ea8 0 __crt_interlocked_exchange_pointer<HINSTANCE__,HINSTANCE__ *>(HINSTANCE__ * const volatile *,HINSTANCE__ * const)
PUBLIC 12eb8 0 __crt_interlocked_exchange_pointer<HINSTANCE__,void *>(HINSTANCE__ * const volatile *,void * const)
PUBLIC 12ec8 0 __crt_interlocked_exchange_pointer<void,void *>(void * const volatile *,void * const)
PUBLIC 12ed8 0 __crt_interlocked_read_pointer<HINSTANCE__>(HINSTANCE__ * const volatile *)
PUBLIC 12ee4 0 __crt_interlocked_read_pointer<void>(void * const volatile *)
PUBLIC 12ef0 0 __crt_fast_encode_pointer(std::nullptr_t)
FUNC 12efb 4 0 invalid_function_sentinel
FUNC 12eff 1a 0 try_get_FlsAlloc
FUNC 12f1f 1a 0 try_get_FlsFree
FUNC 12f3f 1a 0 try_get_FlsGetValue
FUNC 12f5f 1a 0 try_get_FlsSetValue
FUNC 12f7f 1a 0 try_get_InitializeCriticalSectionEx
FUNC 12f9f c4 0 try_get_first_available_module
FUNC 13094 6f 0 try_get_function
FUNC 1311e 4f 0 try_get_module
FUNC 13180 22 0 try_get_proc_address_from_first_available_module
FUNC 131aa 61 0 try_load_library_from_system_directory
PUBLIC 13223 0 __vcrt_FlsAlloc
PUBLIC 1326c 0 __vcrt_FlsFree
PUBLIC 132b5 0 __vcrt_FlsGetValue
PUBLIC 132fe 0 __vcrt_FlsSetValue
PUBLIC 1334b 0 __vcrt_InitializeCriticalSectionEx
PUBLIC 133a3 0 __vcrt_initialize_winapi_thunks
PUBLIC 133d6 0 __vcrt_uninitialize_winapi_thunks
PUBLIC 13414 0 __crt_fast_encoded_nullptr_t::operator<void > void (*)(void)()
PUBLIC 1341a 0 __crt_fast_encode_pointer<void (*)(void)>(void (*const)(void))
PUBLIC 1343e 0 __vcrt_initialize_pure_virtual_call_handler
PUBLIC 13450 0 _global_unwind2
FUNC 13471 45 0 __unwind_handler
PUBLIC 134b6 0 _local_unwind2
PUBLIC 1353a 0 _abnormal_termination
PUBLIC 13560 0 _NLG_Notify1
PUBLIC 1356c 0 _NLG_Notify
PUBLIC m 13583 0 _NLG_Dispatch
PUBLIC 1358b 0 _NLG_Call
PUBLIC 1358d 0 _NLG_Return2
PUBLIC 135dd 0 __crt_fast_decode_pointer<void (*)(void)>(void (*const)(void))
PUBLIC 135f6 0 __crt_interlocked_exchange_pointer<void ,void (*)(void)>(void (*const volatile *)(void),void (*const)(void))
PUBLIC 13606 0 __crt_interlocked_read_pointer<void >(void (*const volatile *)(void))
PUBLIC 13612 0 _get_purecall_handler
PUBLIC 1362c 0 _purecall
PUBLIC 1364f 0 _set_purecall_handler
PUBLIC 1367d 0 std::pair<__FrameHandler3::TryBlockMap::iterator,__FrameHandler3::TryBlockMap::iterator>::pair<__FrameHandler3::TryBlockMap::iterator,__FrameHandler3::TryBlockMap::iterator><__FrameHandler3::TryBlockMap::iterator &,__FrameHandler3::TryBlockMap::iterator &,0>(__FrameHandler3::TryBlockMap::iterator &,__FrameHandler3::TryBlockMap::iterator &)
PUBLIC 136aa 0 std::forward<__FrameHandler3::TryBlockMap::iterator &>(__FrameHandler3::TryBlockMap::iterator &)
PUBLIC 136b4 0 __FrameHandler3::TryBlockMap::iterator::iterator(__FrameHandler3::TryBlockMap &,unsigned int)
PUBLIC 136cd 0 __FrameHandler3::GetRangeOfTrysToCheck(__FrameHandler3::TryBlockMap &,int,int)
PUBLIC 1376f 0 _CallCatchBlock2(EHRegistrationNode *,_s_FuncInfo const *,void *,int,unsigned long)
PUBLIC 137e4 0 _CallSETranslator(EHExceptionRecord *,EHRegistrationNode *,void *,void *,_s_FuncInfo const *,int,EHRegistrationNode *)
PUBLIC 138f5 0 _JumpToContinuation(void *,EHRegistrationNode *)
PUBLIC 13931 0 _UnwindNestedFrames(EHRegistrationNode *,EHExceptionRecord *)
PUBLIC 13998 0 __FrameHandler3::TryBlockMap::getFuncInfo()
PUBLIC 1399b 0 _CatchGuardHandler
PUBLIC 139d8 0 _CreateFrameInfo
PUBLIC 13a05 0 _FindAndUnlinkFrame
PUBLIC 13a5b 0 _TranslatorGuardHandler
PUBLIC 13b1f 0 __CxxFrameHandler
PUBLIC 13b62 0 __CxxFrameHandler2
PUBLIC 13ba5 0 __CxxFrameHandler3
PUBLIC 13be8 4 __CxxLongjmpUnwind
PUBLIC 13c20 0 memcpy
FUNC 142f1 13f 0 BuildCatchObjectHelperInternal<_s_HandlerType const >
FUNC 1447f 99 0 BuildCatchObjectInternal<_s_HandlerType const >
FUNC 1453e 80 0 CatchIt<__FrameHandler3>
FUNC 145de 38e 0 FindHandler<__FrameHandler3>
FUNC 14a4f 111 0 FindHandlerForForeignException<__FrameHandler3>
PUBLIC 14ba4 0 TypeMatchHelper<_s_HandlerType const >(_s_HandlerType const *,_s_CatchableType const *,_s_ThrowInfo const *)
PUBLIC 14c55 0 __InternalCxxFrameHandler<__FrameHandler3>(EHExceptionRecord *,EHRegistrationNode *,_CONTEXT *,void *,_s_FuncInfo const *,int,EHRegistrationNode *,unsigned char)
PUBLIC 14d97 0 __FrameHandler3::HandlerMap::HandlerMap(_s_TryBlockMapEntry const *,void *)
PUBLIC 14db3 0 __FrameHandler3::TryBlockMap::TryBlockMap(_s_FuncInfo const *,void *)
PUBLIC 14dcc 0 std::bad_exception::bad_exception(std::bad_exception const &)
PUBLIC 14ded 0 std::bad_exception::bad_exception()
PUBLIC 14e0b 0 std::exception::exception(std::exception const &)
PUBLIC 14e42 0 std::exception::exception(char const * const,int)
PUBLIC 14e66 0 __FrameHandler3::HandlerMap::iterator::iterator(__FrameHandler3::HandlerMap &,unsigned int)
PUBLIC 14e7f 0 std::bad_exception::~bad_exception()
PUBLIC 14e94 0 std::exception::~exception()
PUBLIC 14ea9 0 __FrameHandler3::HandlerMap::iterator::operator==(__FrameHandler3::HandlerMap::iterator const &)
PUBLIC 14ec0 0 type_info::operator==(type_info const &)
PUBLIC 14ee6 0 __FrameHandler3::HandlerMap::iterator::operator!=(__FrameHandler3::HandlerMap::iterator const &)
PUBLIC 14efd 0 __FrameHandler3::HandlerMap::iterator::operator*()
PUBLIC 14f0c 0 __FrameHandler3::TryBlockMap::iterator::operator*()
PUBLIC 14f1b 0 __FrameHandler3::HandlerMap::iterator::operator++()
PUBLIC 14f21 0 __FrameHandler3::TryBlockMap::iterator::operator++()
PUBLIC 14f27 0 __FrameHandler3::TryBlockMap::iterator::operator<(__FrameHandler3::TryBlockMap::iterator const &)
PUBLIC m 14f3e 0 std::bad_exception::`vector deleting destructor'(unsigned int)
PUBLIC m 14f76 0 std::exception::`vector deleting destructor'(unsigned int)
PUBLIC 14fae 0 __FrameHandler3::BuildCatchObject(EHExceptionRecord *,void *,_s_HandlerType const *,_s_CatchableType const *)
PUBLIC 14fb3 0 __FrameHandler3::BuildCatchObjectHelper(EHExceptionRecord *,void *,_s_HandlerType const *,_s_CatchableType const *)
FUNC 14fbe 1c4 0 CallCatchBlock
FUNC 151f3 3a 0 CallUnexpected
FUNC 1523b 4a 0 ExFilterRethrow
PUBLIC 15297 0 __FrameHandler3::FrameUnwindToEmptyState(EHRegistrationNode *,void *,_s_FuncInfo const *)
PUBLIC 152b5 0 __FrameHandler3::FrameUnwindToState(EHRegistrationNode *,void *,_s_FuncInfo const *,int)
PUBLIC 153d7 0 __FrameHandler3::GetMaxState(void *,_s_FuncInfo const *)
FUNC 153e4 9a 0 IsInExceptionSpec
FUNC 154a4 39 0 Is_bad_exception_allowed
PUBLIC 154eb 0 __FrameHandler3::TypeMatch(_s_HandlerType const *,_s_CatchableType const *,_s_ThrowInfo const *)
PUBLIC 154f6 0 _CallMemberFunction1(void * const,void * const,void * const)
PUBLIC 1550a 0 _CallMemberFunction2(void * const,void * const,void * const,int)
PUBLIC 15521 0 _ValidateExecute(int (*)(void))
PUBLIC 15530 0 _ValidateRead(void const *,unsigned int)
PUBLIC 1553f 0 _ValidateWrite(void *,unsigned int)
PUBLIC 1554e 0 __FrameHandler3::HandlerMap::begin()
PUBLIC 15562 0 __FrameHandler3::HandlerMap::end()
PUBLIC 15577 0 __FrameHandler3::getESTypes(_s_FuncInfo const *)
PUBLIC 15584 0 __FrameHandler3::HandlerMap::getLastEntry()
PUBLIC 15595 0 __FrameHandler3::getMagicNum(_s_FuncInfo const *)
PUBLIC 155a7 0 __FrameHandler3::TryBlockMap::getNumTryBlocks()
PUBLIC 155ad 0 __FrameHandler3::isEHs(_s_FuncInfo const *)
PUBLIC 155bd 0 __FrameHandler3::isNoExcept(_s_FuncInfo const *)
PUBLIC 155d1 0 std::exception::what()
PUBLIC 155e1 0 __BuildCatchObject
PUBLIC 155e6 0 __BuildCatchObjectHelper
PUBLIC 155f1 0 __TypeMatch
PUBLIC 155fc 0 __vcrt_EncodePointer
PUBLIC 15610 c _CallSettingFrame
PUBLIC 15637 0 _NLG_Return
FUNC 1566f 14 0 get_unexpected_or_default
PUBLIC 15688 0 _get_unexpected
PUBLIC 1569e 0 set_unexpected
PUBLIC 156c3 0 unexpected
PUBLIC 156e7 0 __FrameHandler3::GetCurrentState(EHRegistrationNode *,void *,_s_FuncInfo const *)
PUBLIC 1570b 0 __FrameHandler3::SetState(EHRegistrationNode *,_s_FuncInfo const *,int)
PUBLIC 1571c 0 __DestructExceptionObject
PUBLIC 157e4 0 _CallMemberFunction0(void * const,void * const)
PUBLIC 157f4 0 type_info::raw_name()
PUBLIC 157f8 0 _IsExceptionObjectToBeDestroyed
PUBLIC 15827 0 _SetWinRTOutOfMemoryExceptionCallback
PUBLIC 15837 0 __AdjustPointer
PUBLIC 15865 0 __FrameUnwindFilter
PUBLIC 158bb 0 __GetPlatformExceptionInfo
PUBLIC 1591a 0 __current_exception
PUBLIC 15925 0 __current_exception_context
PUBLIC 15930 0 __processing_throw
PUBLIC 1593b 0 __std_terminate
PUBLIC 15940 0 _is_exception_typeof
PUBLIC 15a0d 0 __crt_public_free_policy::operator()<char>(char const * const)
PUBLIC 15a21 0 __crt_unique_heap_ptr<char,__crt_public_free_policy>::__crt_unique_heap_ptr<char,__crt_public_free_policy>(char * const)
PUBLIC 15a32 0 __crt_unique_heap_ptr<char,__crt_public_free_policy>::~__crt_unique_heap_ptr<char,__crt_public_free_policy>()
PUBLIC 15a46 0 __crt_unique_heap_ptr<char,__crt_public_free_policy>::operator bool()
PUBLIC 15a4d 0 __crt_unique_heap_ptr<char,__crt_public_free_policy>::detach()
PUBLIC 15a53 0 __crt_unique_heap_ptr<char,__crt_public_free_policy>::get()
PUBLIC 15a56 0 __crt_unique_heap_ptr<char,__crt_public_free_policy>::is_valid()
PUBLIC 15a5d 0 __crt_unique_heap_ptr<char,__crt_public_free_policy>::release()
PUBLIC 15a71 0 __std_exception_copy
PUBLIC 15aec 0 __std_exception_destroy
PUBLIC 15b12 8 _CxxThrowException
PUBLIC 15ba0 0 memmove
PUBLIC 16271 0 __crt_fast_decode_pointer<void (*)(wchar_t const *,wchar_t const *,wchar_t const *,unsigned int,unsigned int)>(void (*const)(wchar_t const *,wchar_t const *,wchar_t const *,unsigned int,unsigned int))
PUBLIC 1628c 0 __crt_fast_encode_pointer<void (*)(wchar_t const *,wchar_t const *,wchar_t const *,unsigned int,unsigned int)>(void (*const)(wchar_t const *,wchar_t const *,wchar_t const *,unsigned int,unsigned int))
PUBLIC 162b2 0 __crt_state_management::dual_state_global<void (*)(wchar_t const *,wchar_t const *,wchar_t const *,unsigned int,unsigned int)>::initialize_from_array<void (*[1])(wchar_t const *,wchar_t const *,wchar_t const *,unsigned int,unsigned int)>(void (*(&)[1])(wchar_t const *,wchar_t const *,wchar_t const *,unsigned int,unsigned int))
PUBLIC 162c7 0 __crt_state_management::dual_state_global<void (*)(wchar_t const *,wchar_t const *,wchar_t const *,unsigned int,unsigned int)>::dangerous_get_state_array()
PUBLIC 162ca 0 __crt_state_management::get_current_state_index()
PUBLIC 162cd 0 __crt_state_management::dual_state_global<void (*)(wchar_t const *,wchar_t const *,wchar_t const *,unsigned int,unsigned int)>::value()
PUBLIC 162d0 0 __acrt_call_reportfault
PUBLIC 16457 0 __acrt_initialize_invalid_parameter_handler
PUBLIC 16469 0 _get_invalid_parameter_handler
PUBLIC 16480 0 _get_thread_local_invalid_parameter_handler
PUBLIC 16495 0 _invalid_parameter
PUBLIC 16512 0 _invalid_parameter_noinfo
PUBLIC 16526 0 _invalid_parameter_noinfo_noreturn
PUBLIC 1654a 0 _invoke_watson
PUBLIC 1658b 0 _set_invalid_parameter_handler
PUBLIC 165c7 0 _set_thread_local_invalid_parameter_handler
PUBLIC 165eb 0 _initterm
PUBLIC 16641 0 _initterm_e
PUBLIC 1667a 0 free
FUNC 1669b 24 0 xcptlookup
PUBLIC 166c8 0 _seh_filter_dll
PUBLIC 166f0 0 _seh_filter_exe
PUBLIC 1689e 0 __crt_fast_encoded_nullptr_t::operator<void > void (*)(void *,unsigned long,void *)()
FUNC 168a4 4d 0 __crt_seh_guarded_call<void>::operator()<<lambda_03b1d95aef87969028cfba75ccab2455>,<lambda_6e4b09c48022b2350581041d5f6b0c4c> &,<lambda_22bdf7517842c4b3e53723af5aa32b9e> >
FUNC 16904 26 0 __acrt_lock_and_call<<lambda_6e4b09c48022b2350581041d5f6b0c4c> >
PUBLIC 16933 0 __crt_fast_decode_pointer<void (*)(void *,unsigned long,void *)>(void (*const)(void *,unsigned long,void *))
PUBLIC 1694e 0 __crt_fast_encode_pointer<void (*)(void *,unsigned long,void *)>(void (*const)(void *,unsigned long,void *))
PUBLIC 16974 0 __crt_get_proc_address<void (*)(unsigned int)>(HINSTANCE__ * const,char const * const)
PUBLIC 1698b 0 __crt_interlocked_read<long>(long const volatile *)
FUNC 1699b 12 0 <lambda_03b1d95aef87969028cfba75ccab2455>::<lambda_03b1d95aef87969028cfba75ccab2455>
FUNC 169b1 12 0 <lambda_22bdf7517842c4b3e53723af5aa32b9e>::<lambda_22bdf7517842c4b3e53723af5aa32b9e>
FUNC 169c7 1c 0 <lambda_6e4b09c48022b2350581041d5f6b0c4c>::<lambda_6e4b09c48022b2350581041d5f6b0c4c>
PUBLIC 169ea 0 __crt_unique_handle_t<__crt_hmodule_traits>::__crt_unique_handle_t<__crt_hmodule_traits>(HINSTANCE__ * const)
PUBLIC 169fe 0 __crt_unique_handle_t<__crt_hmodule_traits>::~__crt_unique_handle_t<__crt_hmodule_traits>()
FUNC 16a1a 9 0 <lambda_03b1d95aef87969028cfba75ccab2455>::operator()
FUNC 16a25 9 0 <lambda_22bdf7517842c4b3e53723af5aa32b9e>::operator()
FUNC 16a30 da 0 <lambda_6e4b09c48022b2350581041d5f6b0c4c>::operator()
PUBLIC 16b40 0 __acrt_select_exit_lock()
FUNC 16b44 13 0 atexit_exception_filter
PUBLIC 16b5b 0 __crt_unique_handle_t<__crt_hmodule_traits>::close()
PUBLIC 16b77 0 __crt_hmodule_traits::close(HINSTANCE__ *)
FUNC 16b91 64 0 common_exit
FUNC 16c0e 42 0 exit_or_terminate_process
PUBLIC 16c60 0 __crt_unique_handle_t<__crt_hmodule_traits>::get()
PUBLIC 16c63 0 __crt_unique_handle_t<__crt_hmodule_traits>::get_address_of()
PUBLIC 16c66 0 __crt_hmodule_traits::get_invalid_value()
FUNC 16c69 43 0 is_managed_app
FUNC 16cbc 22 0 should_call_terminate_process
FUNC 16ce6 53 0 try_cor_exit_process
PUBLIC 16d4d 0 _Exit
PUBLIC 16d68 0 __acrt_initialize_thread_local_exit_callback
PUBLIC 16d7a 0 _c_exit
PUBLIC 16d8c 0 _cexit
PUBLIC 16d9e 0 _exit
PUBLIC 16db9 0 _is_c_termination_complete
PUBLIC 16dc0 0 _register_thread_local_exe_atexit_callback
PUBLIC 16def 0 exit
PUBLIC 16e0a 0 quick_exit
PUBLIC 16e25 0 __crt_internal_free_policy::operator()<unsigned char>(unsigned char const * const)
PUBLIC 16e3b 0 __crt_internal_free_policy::operator()<char *>(char * const * const)
PUBLIC 16e51 0 __crt_internal_free_policy::operator()<wchar_t *>(wchar_t * const * const)
FUNC 16e67 136 0 common_configure_argv<char>
FUNC 16fea 12f 0 common_configure_argv<wchar_t>
PUBLIC 17164 0 __crt_char_traits<char>::get_module_file_name<std::nullptr_t,char (&)[261],int>(std::nullptr_t &&,char (&)[261],int &&)
PUBLIC 17187 0 __crt_char_traits<wchar_t>::get_module_file_name<std::nullptr_t,wchar_t (&)[261],int>(std::nullptr_t &&,wchar_t (&)[261],int &&)
FUNC 171a7 177 0 parse_command_line<char>
FUNC 1737b 195 0 parse_command_line<wchar_t>
PUBLIC 17575 0 __crt_char_traits<char>::set_program_name<char *>(char * &&)
PUBLIC 1758a 0 __crt_char_traits<wchar_t>::set_program_name<wchar_t *>(wchar_t * &&)
FUNC 1759f 10 0 <lambda_a36aafc41185bea294aaaa3896c79ecc>::<lambda_a36aafc41185bea294aaaa3896c79ecc>
FUNC 175b3 10 0 <lambda_df1553121bfa390f1154bd84936f2730>::<lambda_df1553121bfa390f1154bd84936f2730>
PUBLIC 175c7 0 __crt_unique_heap_ptr<unsigned char,__crt_internal_free_policy>::__crt_unique_heap_ptr<unsigned char,__crt_internal_free_policy>(unsigned char * const)
PUBLIC 175db 0 __crt_unique_heap_ptr<char *,__crt_internal_free_policy>::__crt_unique_heap_ptr<char *,__crt_internal_free_policy>(char * * const)
PUBLIC 175ef 0 __crt_unique_heap_ptr<wchar_t *,__crt_internal_free_policy>::__crt_unique_heap_ptr<wchar_t *,__crt_internal_free_policy>(wchar_t * * const)
PUBLIC 17603 0 __crt_unique_heap_ptr<unsigned char,__crt_internal_free_policy>::~__crt_unique_heap_ptr<unsigned char,__crt_internal_free_policy>()
PUBLIC 17619 0 __crt_unique_heap_ptr<char *,__crt_internal_free_policy>::~__crt_unique_heap_ptr<char *,__crt_internal_free_policy>()
PUBLIC 1762f 0 __crt_unique_heap_ptr<wchar_t *,__crt_internal_free_policy>::~__crt_unique_heap_ptr<wchar_t *,__crt_internal_free_policy>()
PUBLIC 17645 0 __crt_unique_heap_ptr<unsigned char,__crt_internal_free_policy>::operator bool()
FUNC 1764c 16 0 <lambda_a36aafc41185bea294aaaa3896c79ecc>::operator()
FUNC 17667 16 0 <lambda_df1553121bfa390f1154bd84936f2730>::operator()
PUBLIC 17682 0 __crt_unique_heap_ptr<unsigned char,__crt_internal_free_policy>::detach()
PUBLIC 17688 0 __crt_unique_heap_ptr<char *,__crt_internal_free_policy>::detach()
PUBLIC 1768e 0 __crt_unique_heap_ptr<wchar_t *,__crt_internal_free_policy>::detach()
FUNC 17694 5 0 do_locale_initialization
FUNC 17699 3 0 do_locale_initialization
FUNC 1769c b 0 expand_argv_wildcards
FUNC 176a9 b 0 expand_argv_wildcards
PUBLIC 176b6 0 __crt_unique_heap_ptr<unsigned char,__crt_internal_free_policy>::get()
PUBLIC 176b9 0 __crt_unique_heap_ptr<char *,__crt_internal_free_policy>::get()
PUBLIC 176bc 0 __crt_unique_heap_ptr<wchar_t *,__crt_internal_free_policy>::get()
PUBLIC 176bf 0 __crt_unique_heap_ptr<char *,__crt_internal_free_policy>::get_address_of()
PUBLIC 176c2 0 __crt_unique_heap_ptr<wchar_t *,__crt_internal_free_policy>::get_address_of()
FUNC 176c5 6 0 get_argv
FUNC 176cb 6 0 get_argv
FUNC 176d1 6 0 get_command_line
FUNC 176d7 6 0 get_command_line
PUBLIC 176dd 0 __crt_unique_heap_ptr<unsigned char,__crt_internal_free_policy>::is_valid()
PUBLIC 176e4 0 __crt_unique_heap_ptr<unsigned char,__crt_internal_free_policy>::release()
PUBLIC 176fa 0 __crt_unique_heap_ptr<char *,__crt_internal_free_policy>::release()
PUBLIC 17710 0 __crt_unique_heap_ptr<wchar_t *,__crt_internal_free_policy>::release()
FUNC 17726 17 0 should_copy_another_character
FUNC 17742 3 0 should_copy_another_character
PUBLIC 17745 0 __acrt_allocate_buffer_for_argv
PUBLIC 177a7 0 _configure_narrow_argv
PUBLIC 177b4 0 _configure_wide_argv
PUBLIC 177c1 0 _set_pgmptr
PUBLIC 177d3 0 _set_wpgmptr
PUBLIC 177e5 0 __crt_internal_free_policy::operator()<wchar_t>(wchar_t const * const)
FUNC 177fb 14 0 common_get_initial_environment<char>
FUNC 17814 14 0 common_get_initial_environment<wchar_t>
FUNC 1782d 2c 0 common_get_or_create_environment_nolock<char>
FUNC 17864 2c 0 common_get_or_create_environment_nolock<wchar_t>
FUNC 1789b 53 0 common_initialize_environment_nolock<char>
FUNC 17902 4e 0 common_initialize_environment_nolock<wchar_t>
FUNC 17963 34 0 count_variables_in_environment_block<char>
FUNC 179a4 49 0 count_variables_in_environment_block<wchar_t>
FUNC 179ff d0 0 create_environment<char>
FUNC 17b03 10d 0 create_environment<wchar_t>
FUNC 17c53 2f 0 free_environment<char>
FUNC 17c8d 2f 0 free_environment<wchar_t>
PUBLIC 17cc7 0 __crt_char_traits<char>::get_environment_from_os<>()
PUBLIC 17ccc 0 __crt_char_traits<wchar_t>::get_environment_from_os<>()
FUNC 17cd1 83 0 initialize_environment_by_cloning_nolock<char>
FUNC 17d74 7d 0 initialize_environment_by_cloning_nolock<wchar_t>
PUBLIC 17e10 0 __crt_char_traits<char>::set_variable_in_environment_nolock<char *,int>(char * &&,int &&)
PUBLIC 17e2e 0 __crt_char_traits<wchar_t>::set_variable_in_environment_nolock<wchar_t *,int>(wchar_t * &&,int &&)
PUBLIC 17e4c 0 __crt_char_traits<char>::tcscpy_s<char *,unsigned int const &,char * &>(char * &&,unsigned int const &,char * &)
PUBLIC 17e71 0 __crt_char_traits<wchar_t>::tcscpy_s<wchar_t *,unsigned int const &,wchar_t * &>(wchar_t * &&,unsigned int const &,wchar_t * &)
PUBLIC 17e96 0 __crt_char_traits<char>::tcslen<char * &>(char * &)
PUBLIC 17eb4 0 __crt_char_traits<wchar_t>::tcslen<wchar_t * &>(wchar_t * &)
PUBLIC 17ed9 0 __crt_state_management::dual_state_global<char * *>::uninitialize<void (&)(char * * &)>(void (&)(char * * &))
PUBLIC 17f0c 0 __crt_state_management::dual_state_global<wchar_t * *>::uninitialize<void (&)(wchar_t * * &)>(void (&)(wchar_t * * &))
FUNC 17f3f 1b 0 uninitialize_environment_internal<char>
FUNC 17f60 1b 0 uninitialize_environment_internal<wchar_t>
PUBLIC 17f81 0 __crt_unique_heap_ptr<wchar_t,__crt_internal_free_policy>::__crt_unique_heap_ptr<wchar_t,__crt_internal_free_policy>(wchar_t * const)
PUBLIC 17f95 0 __crt_unique_heap_ptr<wchar_t,__crt_internal_free_policy>::~__crt_unique_heap_ptr<wchar_t,__crt_internal_free_policy>()
PUBLIC 17fab 0 __crt_unique_heap_ptr<char *,__crt_internal_free_policy>::operator bool()
PUBLIC 17fb2 0 __crt_unique_heap_ptr<wchar_t *,__crt_internal_free_policy>::operator bool()
PUBLIC 17fb9 0 __crt_unique_heap_ptr<wchar_t,__crt_internal_free_policy>::operator bool()
PUBLIC 17fc0 0 __crt_compute_required_transform_buffer_count(unsigned int,char const * const)
PUBLIC 17fe3 0 __crt_compute_required_transform_buffer_count(unsigned int,wchar_t const * const)
PUBLIC 18008 0 __crt_transform_string(unsigned int,char const * const,wchar_t * const,unsigned int)
PUBLIC 1802e 0 __crt_transform_string(unsigned int,wchar_t const * const,char * const,unsigned int)
PUBLIC 18058 0 __crt_unique_heap_ptr<char,__crt_internal_free_policy>::detach()
PUBLIC 1805e 0 __crt_unique_heap_ptr<wchar_t,__crt_internal_free_policy>::detach()
PUBLIC 18064 0 __crt_unique_heap_ptr<wchar_t,__crt_internal_free_policy>::get()
FUNC 18067 6 0 get_dual_state_environment_nolock
FUNC 1806d 6 0 get_dual_state_environment_nolock
FUNC 18073 6 0 get_environment_nolock
FUNC 18079 6 0 get_environment_nolock
FUNC 1807f 6 0 get_initial_environment
FUNC 18085 6 0 get_initial_environment
PUBLIC 1808b 0 __crt_state_management::dual_state_global<char * *>::initialize(char * * const)
PUBLIC 180ba 0 __crt_state_management::dual_state_global<wchar_t * *>::initialize(wchar_t * * const)
PUBLIC 180e9 0 __crt_unique_heap_ptr<char *,__crt_internal_free_policy>::is_valid()
PUBLIC 180f0 0 __crt_unique_heap_ptr<wchar_t *,__crt_internal_free_policy>::is_valid()
PUBLIC 180f7 0 __crt_unique_heap_ptr<wchar_t,__crt_internal_free_policy>::is_valid()
FUNC 180fe 5 0 pre_initialize
FUNC 18103 3 0 pre_initialize
PUBLIC 18106 0 __crt_unique_heap_ptr<wchar_t,__crt_internal_free_policy>::release()
PUBLIC 1811c 0 __crt_state_management::dual_state_global<char * *>::value()
PUBLIC 1811f 0 __crt_state_management::dual_state_global<wchar_t * *>::value()
PUBLIC 18122 0 __dcrt_get_or_create_narrow_environment_nolock
PUBLIC 18127 0 __dcrt_get_or_create_wide_environment_nolock
PUBLIC 1812c 0 __dcrt_uninitialize_environments_nolock
PUBLIC 18170 0 __p__environ
PUBLIC 18176 0 __p__wenviron
PUBLIC 1817c 0 _get_initial_narrow_environment
PUBLIC 18195 0 _get_initial_wide_environment
PUBLIC 181ae 0 _initialize_narrow_environment
PUBLIC 181b3 0 _initialize_wide_environment
PUBLIC 181b8 0 _invoke_watson_if_error
PUBLIC 181e2 0 __crt_fast_encoded_nullptr_t::operator<void (*)(void)> void (**)(void)()
PUBLIC 181e8 0 __crt_internal_free_policy::operator()<void (*)(void)>(void (*const * const)(void))
FUNC 181fe 5b 0 __crt_seh_guarded_call<int>::operator()<<lambda_69a2805e680e0e292e8ba93315fe43a8>,<lambda_f03950bc5685219e0bcd2087efbe011e> &,<lambda_03fcd07e894ec930e3f35da366ca99d6> >
FUNC 1826f 5b 0 __crt_seh_guarded_call<int>::operator()<<lambda_8e746cf0007f6ed984d6f78af1fec997>,<lambda_22ebabd17bc4fa466a2aca6d8deb888d> &,<lambda_18ed0c0b38a6dc0daf1e7ac6d6adf05e> >
FUNC 182e0 26 0 __acrt_lock_and_call<<lambda_22ebabd17bc4fa466a2aca6d8deb888d> >
FUNC 1830f 26 0 __acrt_lock_and_call<<lambda_f03950bc5685219e0bcd2087efbe011e> >
PUBLIC 1833e 0 __crt_fast_encode_pointer<int (*)(void)>(int (*const)(void))
FUNC 18364 12 0 <lambda_03fcd07e894ec930e3f35da366ca99d6>::<lambda_03fcd07e894ec930e3f35da366ca99d6>
FUNC 1837a 12 0 <lambda_18ed0c0b38a6dc0daf1e7ac6d6adf05e>::<lambda_18ed0c0b38a6dc0daf1e7ac6d6adf05e>
FUNC 18390 16 0 <lambda_22ebabd17bc4fa466a2aca6d8deb888d>::<lambda_22ebabd17bc4fa466a2aca6d8deb888d>
FUNC 183ab 12 0 <lambda_69a2805e680e0e292e8ba93315fe43a8>::<lambda_69a2805e680e0e292e8ba93315fe43a8>
FUNC 183c1 12 0 <lambda_8e746cf0007f6ed984d6f78af1fec997>::<lambda_8e746cf0007f6ed984d6f78af1fec997>
FUNC 183d7 10 0 <lambda_f03950bc5685219e0bcd2087efbe011e>::<lambda_f03950bc5685219e0bcd2087efbe011e>
PUBLIC 183eb 0 __crt_unique_heap_ptr<void (*)(void),__crt_internal_free_policy>::__crt_unique_heap_ptr<void (*)(void),__crt_internal_free_policy>(void (** const)(void))
PUBLIC 183ff 0 __crt_unique_heap_ptr<void (*)(void),__crt_internal_free_policy>::~__crt_unique_heap_ptr<void (*)(void),__crt_internal_free_policy>()
PUBLIC 18415 0 __crt_state_management::scoped_global_state_reset::~scoped_global_state_reset()
FUNC 18418 9 0 <lambda_03fcd07e894ec930e3f35da366ca99d6>::operator()
FUNC 18423 9 0 <lambda_18ed0c0b38a6dc0daf1e7ac6d6adf05e>::operator()
FUNC 1842e 129 0 <lambda_22ebabd17bc4fa466a2aca6d8deb888d>::operator()
FUNC 185a1 9 0 <lambda_69a2805e680e0e292e8ba93315fe43a8>::operator()
FUNC 185ac 9 0 <lambda_8e746cf0007f6ed984d6f78af1fec997>::operator()
FUNC 185b7 da 0 <lambda_f03950bc5685219e0bcd2087efbe011e>::operator()
PUBLIC 186c7 0 __crt_unique_heap_ptr<void (*)(void),__crt_internal_free_policy>::detach()
PUBLIC 186cd 0 __crt_unique_heap_ptr<void (*)(void),__crt_internal_free_policy>::release()
PUBLIC 186e3 0 _crt_at_quick_exit
PUBLIC 186fe 0 _crt_atexit
PUBLIC 18719 0 _execute_onexit_table
PUBLIC 18751 0 _initialize_onexit_table
PUBLIC 18784 0 _register_onexit_function
FUNC 187c3 3 0 report_memory_leaks
FUNC 187c6 d 0 initialize_global_variables
FUNC 187d6 1a 0 initialize_c
FUNC 187f6 3 0 uninitialize_c
FUNC 187f9 3 0 initialize_environment
FUNC 187fc 8 0 uninitialize_environment
FUNC 18806 3 0 initialize_global_state_isolation
FUNC 18809 3 0 uninitialize_global_state_isolation
FUNC 1880c 2e 0 initialize_pointers
FUNC 18845 9 0 uninitialize_vcruntime
FUNC 18850 17 0 uninitialize_allocated_memory
FUNC 1886c 50 0 uninitialize_allocated_io_buffers
FUNC 188d0 24 0 __crt_state_management::dual_state_global<__crt_multibyte_data *>::uninitialize<<lambda_af42a3ee9806e9a7305d451646e05244> >
FUNC 188fd 2e 0 <lambda_af42a3ee9806e9a7305d451646e05244>::operator()
PUBLIC 18936 0 __acrt_stdio_is_initialized()
PUBLIC 18943 0 __crt_state_management::dual_state_global<__crt_locale_data *>::initialize(__crt_locale_data * const)
PUBLIC 18972 0 __acrt_initialize
PUBLIC 18988 0 __acrt_thread_attach
PUBLIC 18995 0 __acrt_thread_detach
PUBLIC 1899f 0 __acrt_uninitialize
PUBLIC 189db 0 __acrt_uninitialize_critical
FUNC 189f1 16 0 get_terminate_or_default
PUBLIC 18a0c 0 _get_terminate
PUBLIC 18a22 0 set_terminate
PUBLIC 18a4a 0 terminate
PUBLIC 18a95 0 malloc
FUNC 18aa2 5a 0 common_tcscpy_s<char>
PUBLIC 18b12 0 strcpy_s
PUBLIC 18b82 0 __crt_stdio_output::format_validation_base<char,__crt_stdio_output::stream_output_adapter<char> >::format_validation_base<char,__crt_stdio_output::stream_output_adapter<char> ><__crt_stdio_output::stream_output_adapter<char> const &,unsigned __int64 const &,char const * const &,__crt_locale_pointers * const &,char * const &>(__crt_stdio_output::stream_output_adapter<char> const &,unsigned __int64 const &,char const * const &,__crt_locale_pointers * const &,char * const &)
PUBLIC 18bad 0 __crt_stdio_output::positional_parameter_base<char,__crt_stdio_output::stream_output_adapter<char> >::positional_parameter_base<char,__crt_stdio_output::stream_output_adapter<char> ><__crt_stdio_output::stream_output_adapter<char> const &,unsigned __int64 const &,char const * const &,__crt_locale_pointers * const &,char * const &>(__crt_stdio_output::stream_output_adapter<char> const &,unsigned __int64 const &,char const * const &,__crt_locale_pointers * const &,char * const &)
PUBLIC 18c07 0 __crt_stdio_output::standard_base<char,__crt_stdio_output::stream_output_adapter<char> >::standard_base<char,__crt_stdio_output::stream_output_adapter<char> ><__crt_stdio_output::stream_output_adapter<char> const &,unsigned __int64 const &,char const * const &,__crt_locale_pointers * const &,char * const &>(__crt_stdio_output::stream_output_adapter<char> const &,unsigned __int64 const &,char const * const &,__crt_locale_pointers * const &,char * const &)
PUBLIC 18c49 0 __crt_stdio_output::format_validation_base<wchar_t,__crt_stdio_output::stream_output_adapter<wchar_t> >::format_validation_base<wchar_t,__crt_stdio_output::stream_output_adapter<wchar_t> ><__crt_stdio_output::stream_output_adapter<wchar_t> const &,unsigned __int64 const &,wchar_t const * const &,__crt_locale_pointers * const &,char * const &>(__crt_stdio_output::stream_output_adapter<wchar_t> const &,unsigned __int64 const &,wchar_t const * const &,__crt_locale_pointers * const &,char * const &)
PUBLIC 18c74 0 __crt_stdio_output::positional_parameter_base<wchar_t,__crt_stdio_output::stream_output_adapter<wchar_t> >::positional_parameter_base<wchar_t,__crt_stdio_output::stream_output_adapter<wchar_t> ><__crt_stdio_output::stream_output_adapter<wchar_t> const &,unsigned __int64 const &,wchar_t const * const &,__crt_locale_pointers * const &,char * const &>(__crt_stdio_output::stream_output_adapter<wchar_t> const &,unsigned __int64 const &,wchar_t const * const &,__crt_locale_pointers * const &,char * const &)
PUBLIC 18cce 0 __crt_stdio_output::standard_base<wchar_t,__crt_stdio_output::stream_output_adapter<wchar_t> >::standard_base<wchar_t,__crt_stdio_output::stream_output_adapter<wchar_t> ><__crt_stdio_output::stream_output_adapter<wchar_t> const &,unsigned __int64 const &,wchar_t const * const &,__crt_locale_pointers * const &,char * const &>(__crt_stdio_output::stream_output_adapter<wchar_t> const &,unsigned __int64 const &,wchar_t const * const &,__crt_locale_pointers * const &,char * const &)
PUBLIC 18d10 0 __crt_stdio_output::format_validation_base<char,__crt_stdio_output::string_output_adapter<char> >::format_validation_base<char,__crt_stdio_output::string_output_adapter<char> ><__crt_stdio_output::string_output_adapter<char> const &,unsigned __int64 const &,char const * const &,__crt_locale_pointers * const &,char * const &>(__crt_stdio_output::string_output_adapter<char> const &,unsigned __int64 const &,char const * const &,__crt_locale_pointers * const &,char * const &)
PUBLIC 18d3b 0 __crt_stdio_output::positional_parameter_base<char,__crt_stdio_output::string_output_adapter<char> >::positional_parameter_base<char,__crt_stdio_output::string_output_adapter<char> ><__crt_stdio_output::string_output_adapter<char> const &,unsigned __int64 const &,char const * const &,__crt_locale_pointers * const &,char * const &>(__crt_stdio_output::string_output_adapter<char> const &,unsigned __int64 const &,char const * const &,__crt_locale_pointers * const &,char * const &)
PUBLIC 18d95 0 __crt_stdio_output::standard_base<char,__crt_stdio_output::string_output_adapter<char> >::standard_base<char,__crt_stdio_output::string_output_adapter<char> ><__crt_stdio_output::string_output_adapter<char> const &,unsigned __int64 const &,char const * const &,__crt_locale_pointers * const &,char * const &>(__crt_stdio_output::string_output_adapter<char> const &,unsigned __int64 const &,char const * const &,__crt_locale_pointers * const &,char * const &)
PUBLIC 18dd7 0 __crt_stdio_output::format_validation_base<wchar_t,__crt_stdio_output::string_output_adapter<wchar_t> >::format_validation_base<wchar_t,__crt_stdio_output::string_output_adapter<wchar_t> ><__crt_stdio_output::string_output_adapter<wchar_t> const &,unsigned __int64 const &,wchar_t const * const &,__crt_locale_pointers * const &,char * const &>(__crt_stdio_output::string_output_adapter<wchar_t> const &,unsigned __int64 const &,wchar_t const * const &,__crt_locale_pointers * const &,char * const &)
PUBLIC 18e02 0 __crt_stdio_output::positional_parameter_base<wchar_t,__crt_stdio_output::string_output_adapter<wchar_t> >::positional_parameter_base<wchar_t,__crt_stdio_output::string_output_adapter<wchar_t> ><__crt_stdio_output::string_output_adapter<wchar_t> const &,unsigned __int64 const &,wchar_t const * const &,__crt_locale_pointers * const &,char * const &>(__crt_stdio_output::string_output_adapter<wchar_t> const &,unsigned __int64 const &,wchar_t const * const &,__crt_locale_pointers * const &,char * const &)
PUBLIC 18e5c 0 __crt_stdio_output::standard_base<wchar_t,__crt_stdio_output::string_output_adapter<wchar_t> >::standard_base<wchar_t,__crt_stdio_output::string_output_adapter<wchar_t> ><__crt_stdio_output::string_output_adapter<wchar_t> const &,unsigned __int64 const &,wchar_t const * const &,__crt_locale_pointers * const &,char * const &>(__crt_stdio_output::string_output_adapter<wchar_t> const &,unsigned __int64 const &,wchar_t const * const &,__crt_locale_pointers * const &,char * const &)
FUNC 18e9e 5b 0 __crt_seh_guarded_call<int>::operator()<<lambda_3cfd252a7c5e244e8f20fc56fe35ebe9>,<lambda_d7427dbf72509eba5fa970998bac2a27> &,<lambda_8f55a0afecd2292d47fde3ce68e72492> >
FUNC 18f0f 5b 0 __crt_seh_guarded_call<int>::operator()<<lambda_5d912c5eb12d68f7685796d855ab8da6>,<lambda_81587a929b95143618da2bd798ca9df2> &,<lambda_bfd63e08e93a545639db6d324cf10d1a> >
FUNC 18f80 5b 0 __crt_seh_guarded_call<int>::operator()<<lambda_9b2bd5c6bb91c5c032542faa5c3cb611>,<lambda_be68057ced330f874c40fe9612235e36> &,<lambda_dbd837d1c0b7fc6e2d81c287c81c071b> >
FUNC 18ff1 5b 0 __crt_seh_guarded_call<int>::operator()<<lambda_ba8264b40644a42074cedf043e7aa388>,<lambda_9dc9bc4853282e051506c0cc602abcf3> &,<lambda_1c412e3457517a614fb7d0c137686c95> >
FUNC 19062 5b 0 __crt_seh_guarded_call<int>::operator()<<lambda_c29ee0499b841886b80d843682cc403a>,<lambda_0be4ab1c2a6918fda4e39227d83ea893> &,<lambda_5a3ed3da325c8ea037a470278c0f2d16> >
FUNC 190d3 5b 0 __crt_seh_guarded_call<int>::operator()<<lambda_cae121c7667f229345c68b3f32b19755>,<lambda_b09925f738b1434f525bf50d3162636f> &,<lambda_18d67e1eeb4dde13899af949c649d933> >
FUNC 19144 26 0 __acrt_lock_stream_and_call<<lambda_0be4ab1c2a6918fda4e39227d83ea893> >
FUNC 19173 26 0 __acrt_lock_stream_and_call<<lambda_81587a929b95143618da2bd798ca9df2> >
FUNC 191a2 26 0 __acrt_lock_stream_and_call<<lambda_9dc9bc4853282e051506c0cc602abcf3> >
FUNC 191d1 26 0 __acrt_lock_stream_and_call<<lambda_b09925f738b1434f525bf50d3162636f> >
FUNC 19200 26 0 __acrt_lock_stream_and_call<<lambda_be68057ced330f874c40fe9612235e36> >
FUNC 1922f 26 0 __acrt_lock_stream_and_call<<lambda_d7427dbf72509eba5fa970998bac2a27> >
FUNC 1925e 64 0 common_vfprintf<__crt_stdio_output::format_validation_base,char>
FUNC 192db 64 0 common_vfprintf<__crt_stdio_output::format_validation_base,wchar_t>
FUNC 19358 64 0 common_vfprintf<__crt_stdio_output::positional_parameter_base,char>
FUNC 193d5 64 0 common_vfprintf<__crt_stdio_output::positional_parameter_base,wchar_t>
FUNC 19452 64 0 common_vfprintf<__crt_stdio_output::standard_base,char>
FUNC 194cf 64 0 common_vfprintf<__crt_stdio_output::standard_base,wchar_t>
FUNC 1954c e8 0 common_vsnprintf_s<char>
FUNC 1966e ec 0 common_vsnprintf_s<wchar_t>
FUNC 19795 17e 0 common_vsprintf<__crt_stdio_output::format_validation_base,char>
FUNC 19972 187 0 common_vsprintf<__crt_stdio_output::format_validation_base,wchar_t>
FUNC 19b5a 1b0 0 common_vsprintf<__crt_stdio_output::positional_parameter_base,char>
FUNC 19d76 1b9 0 common_vsprintf<__crt_stdio_output::positional_parameter_base,wchar_t>
FUNC 19f9d 17e 0 common_vsprintf<__crt_stdio_output::standard_base,char>
FUNC 1a17a 187 0 common_vsprintf<__crt_stdio_output::standard_base,wchar_t>
FUNC 1a362 78 0 common_vsprintf_s<char>
FUNC 1a3f8 7a 0 common_vsprintf_s<wchar_t>
PUBLIC 1a490 0 __crt_stdio_output::formatting_buffer::count<char>()
PUBLIC 1a4ae 0 __crt_stdio_output::formatting_buffer::count<wchar_t>()
PUBLIC 1a4cd 0 __crt_stdio_output::formatting_buffer::data<char>()
PUBLIC 1a4dd 0 __crt_stdio_output::formatting_buffer::data<wchar_t>()
PUBLIC 1a4ed 0 __crt_stdio_output::formatting_buffer::ensure_buffer_is_big_enough<char>(unsigned int)
PUBLIC 1a589 0 __crt_stdio_output::formatting_buffer::ensure_buffer_is_big_enough<wchar_t>(unsigned int)
PUBLIC 1a626 0 __crt_stdio_output::positional_parameter_base<char,__crt_stdio_output::stream_output_adapter<char> >::extract_argument_from_va_list<signed char,__int64>(__int64 &)
PUBLIC 1a6bd 0 __crt_stdio_output::positional_parameter_base<char,__crt_stdio_output::string_output_adapter<char> >::extract_argument_from_va_list<signed char,__int64>(__int64 &)
PUBLIC 1a754 0 __crt_stdio_output::positional_parameter_base<wchar_t,__crt_stdio_output::stream_output_adapter<wchar_t> >::extract_argument_from_va_list<signed char,__int64>(__int64 &)
PUBLIC 1a7eb 0 __crt_stdio_output::positional_parameter_base<wchar_t,__crt_stdio_output::string_output_adapter<wchar_t> >::extract_argument_from_va_list<signed char,__int64>(__int64 &)
PUBLIC 1a882 0 __crt_stdio_output::standard_base<char,__crt_stdio_output::stream_output_adapter<char> >::extract_argument_from_va_list<signed char,__int64>(__int64 &)
PUBLIC 1a8a8 0 __crt_stdio_output::standard_base<char,__crt_stdio_output::string_output_adapter<char> >::extract_argument_from_va_list<signed char,__int64>(__int64 &)
PUBLIC 1a8ce 0 __crt_stdio_output::standard_base<wchar_t,__crt_stdio_output::stream_output_adapter<wchar_t> >::extract_argument_from_va_list<signed char,__int64>(__int64 &)
PUBLIC 1a8f4 0 __crt_stdio_output::standard_base<wchar_t,__crt_stdio_output::string_output_adapter<wchar_t> >::extract_argument_from_va_list<signed char,__int64>(__int64 &)
PUBLIC 1a91a 0 __crt_stdio_output::positional_parameter_base<char,__crt_stdio_output::stream_output_adapter<char> >::extract_argument_from_va_list<unsigned char,__int64>(__int64 &)
PUBLIC 1a9b1 0 __crt_stdio_output::positional_parameter_base<char,__crt_stdio_output::string_output_adapter<char> >::extract_argument_from_va_list<unsigned char,__int64>(__int64 &)
PUBLIC 1aa48 0 __crt_stdio_output::positional_parameter_base<wchar_t,__crt_stdio_output::stream_output_adapter<wchar_t> >::extract_argument_from_va_list<unsigned char,__int64>(__int64 &)
PUBLIC 1aadf 0 __crt_stdio_output::positional_parameter_base<wchar_t,__crt_stdio_output::string_output_adapter<wchar_t> >::extract_argument_from_va_list<unsigned char,__int64>(__int64 &)
PUBLIC 1ab76 0 __crt_stdio_output::standard_base<char,__crt_stdio_output::stream_output_adapter<char> >::extract_argument_from_va_list<unsigned char,__int64>(__int64 &)
PUBLIC 1ab9c 0 __crt_stdio_output::standard_base<char,__crt_stdio_output::string_output_adapter<char> >::extract_argument_from_va_list<unsigned char,__int64>(__int64 &)
PUBLIC 1abc2 0 __crt_stdio_output::standard_base<wchar_t,__crt_stdio_output::stream_output_adapter<wchar_t> >::extract_argument_from_va_list<unsigned char,__int64>(__int64 &)
PUBLIC 1abe8 0 __crt_stdio_output::standard_base<wchar_t,__crt_stdio_output::string_output_adapter<wchar_t> >::extract_argument_from_va_list<unsigned char,__int64>(__int64 &)
PUBLIC 1ac0e 0 __crt_stdio_output::positional_parameter_base<char,__crt_stdio_output::stream_output_adapter<char> >::extract_argument_from_va_list<short,__int64>(__int64 &)
PUBLIC 1aca5 0 __crt_stdio_output::positional_parameter_base<char,__crt_stdio_output::string_output_adapter<char> >::extract_argument_from_va_list<short,__int64>(__int64 &)
PUBLIC 1ad3c 0 __crt_stdio_output::positional_parameter_base<wchar_t,__crt_stdio_output::stream_output_adapter<wchar_t> >::extract_argument_from_va_list<short,__int64>(__int64 &)
PUBLIC 1add3 0 __crt_stdio_output::positional_parameter_base<wchar_t,__crt_stdio_output::string_output_adapter<wchar_t> >::extract_argument_from_va_list<short,__int64>(__int64 &)
PUBLIC 1ae6a 0 __crt_stdio_output::standard_base<char,__crt_stdio_output::stream_output_adapter<char> >::extract_argument_from_va_list<short,__int64>(__int64 &)
PUBLIC 1ae90 0 __crt_stdio_output::standard_base<char,__crt_stdio_output::string_output_adapter<char> >::extract_argument_from_va_list<short,__int64>(__int64 &)
PUBLIC 1aeb6 0 __crt_stdio_output::standard_base<wchar_t,__crt_stdio_output::stream_output_adapter<wchar_t> >::extract_argument_from_va_list<short,__int64>(__int64 &)
PUBLIC 1aedc 0 __crt_stdio_output::standard_base<wchar_t,__crt_stdio_output::string_output_adapter<wchar_t> >::extract_argument_from_va_list<short,__int64>(__int64 &)
PUBLIC 1af02 0 __crt_stdio_output::positional_parameter_base<char,__crt_stdio_output::stream_output_adapter<char> >::extract_argument_from_va_list<unsigned short,char>(char &)
PUBLIC 1af98 0 __crt_stdio_output::positional_parameter_base<char,__crt_stdio_output::string_output_adapter<char> >::extract_argument_from_va_list<unsigned short,char>(char &)
PUBLIC 1b02e 0 __crt_stdio_output::standard_base<char,__crt_stdio_output::stream_output_adapter<char> >::extract_argument_from_va_list<unsigned short,char>(char &)
PUBLIC 1b04e 0 __crt_stdio_output::standard_base<char,__crt_stdio_output::string_output_adapter<char> >::extract_argument_from_va_list<unsigned short,char>(char &)
PUBLIC 1b06e 0 __crt_stdio_output::positional_parameter_base<char,__crt_stdio_output::stream_output_adapter<char> >::extract_argument_from_va_list<unsigned short,__int64>(__int64 &)
PUBLIC 1b105 0 __crt_stdio_output::positional_parameter_base<char,__crt_stdio_output::string_output_adapter<char> >::extract_argument_from_va_list<unsigned short,__int64>(__int64 &)
PUBLIC 1b19c 0 __crt_stdio_output::positional_parameter_base<wchar_t,__crt_stdio_output::stream_output_adapter<wchar_t> >::extract_argument_from_va_list<unsigned short,__int64>(__int64 &)
PUBLIC 1b233 0 __crt_stdio_output::positional_parameter_base<wchar_t,__crt_stdio_output::string_output_adapter<wchar_t> >::extract_argument_from_va_list<unsigned short,__int64>(__int64 &)
PUBLIC 1b2ca 0 __crt_stdio_output::standard_base<char,__crt_stdio_output::stream_output_adapter<char> >::extract_argument_from_va_list<unsigned short,__int64>(__int64 &)
PUBLIC 1b2f0 0 __crt_stdio_output::standard_base<char,__crt_stdio_output::string_output_adapter<char> >::extract_argument_from_va_list<unsigned short,__int64>(__int64 &)
PUBLIC 1b316 0 __crt_stdio_output::standard_base<wchar_t,__crt_stdio_output::stream_output_adapter<wchar_t> >::extract_argument_from_va_list<unsigned short,__int64>(__int64 &)
PUBLIC 1b33c 0 __crt_stdio_output::standard_base<wchar_t,__crt_stdio_output::string_output_adapter<wchar_t> >::extract_argument_from_va_list<unsigned short,__int64>(__int64 &)
PUBLIC 1b362 0 __crt_stdio_output::positional_parameter_base<char,__crt_stdio_output::stream_output_adapter<char> >::extract_argument_from_va_list<int,__int64>(__int64 &)
PUBLIC 1b3f6 0 __crt_stdio_output::positional_parameter_base<char,__crt_stdio_output::string_output_adapter<char> >::extract_argument_from_va_list<int,__int64>(__int64 &)
PUBLIC 1b48a 0 __crt_stdio_output::positional_parameter_base<wchar_t,__crt_stdio_output::stream_output_adapter<wchar_t> >::extract_argument_from_va_list<int,__int64>(__int64 &)
PUBLIC 1b51e 0 __crt_stdio_output::positional_parameter_base<wchar_t,__crt_stdio_output::string_output_adapter<wchar_t> >::extract_argument_from_va_list<int,__int64>(__int64 &)
PUBLIC 1b5b2 0 __crt_stdio_output::standard_base<char,__crt_stdio_output::stream_output_adapter<char> >::extract_argument_from_va_list<int,__int64>(__int64 &)
PUBLIC 1b5d7 0 __crt_stdio_output::standard_base<char,__crt_stdio_output::string_output_adapter<char> >::extract_argument_from_va_list<int,__int64>(__int64 &)
PUBLIC 1b5fc 0 __crt_stdio_output::standard_base<wchar_t,__crt_stdio_output::stream_output_adapter<wchar_t> >::extract_argument_from_va_list<int,__int64>(__int64 &)
PUBLIC 1b621 0 __crt_stdio_output::standard_base<wchar_t,__crt_stdio_output::string_output_adapter<wchar_t> >::extract_argument_from_va_list<int,__int64>(__int64 &)
PUBLIC 1b646 0 __crt_stdio_output::positional_parameter_base<char,__crt_stdio_output::stream_output_adapter<char> >::extract_argument_from_va_list<unsigned int,__int64>(__int64 &)
PUBLIC 1b6e6 0 __crt_stdio_output::positional_parameter_base<char,__crt_stdio_output::string_output_adapter<char> >::extract_argument_from_va_list<unsigned int,__int64>(__int64 &)
PUBLIC 1b786 0 __crt_stdio_output::positional_parameter_base<wchar_t,__crt_stdio_output::stream_output_adapter<wchar_t> >::extract_argument_from_va_list<unsigned int,__int64>(__int64 &)
PUBLIC 1b826 0 __crt_stdio_output::positional_parameter_base<wchar_t,__crt_stdio_output::string_output_adapter<wchar_t> >::extract_argument_from_va_list<unsigned int,__int64>(__int64 &)
PUBLIC 1b8c6 0 __crt_stdio_output::standard_base<char,__crt_stdio_output::stream_output_adapter<char> >::extract_argument_from_va_list<unsigned int,__int64>(__int64 &)
PUBLIC 1b8eb 0 __crt_stdio_output::standard_base<char,__crt_stdio_output::string_output_adapter<char> >::extract_argument_from_va_list<unsigned int,__int64>(__int64 &)
PUBLIC 1b910 0 __crt_stdio_output::standard_base<wchar_t,__crt_stdio_output::stream_output_adapter<wchar_t> >::extract_argument_from_va_list<unsigned int,__int64>(__int64 &)
PUBLIC 1b935 0 __crt_stdio_output::standard_base<wchar_t,__crt_stdio_output::string_output_adapter<wchar_t> >::extract_argument_from_va_list<unsigned int,__int64>(__int64 &)
PUBLIC 1b95a 0 __crt_stdio_output::positional_parameter_base<char,__crt_stdio_output::stream_output_adapter<char> >::extract_argument_from_va_list<char *,char *>(char * &)
PUBLIC 1b9f0 0 __crt_stdio_output::positional_parameter_base<char,__crt_stdio_output::string_output_adapter<char> >::extract_argument_from_va_list<char *,char *>(char * &)
PUBLIC 1ba86 0 __crt_stdio_output::positional_parameter_base<wchar_t,__crt_stdio_output::stream_output_adapter<wchar_t> >::extract_argument_from_va_list<char *,char *>(char * &)
PUBLIC 1bb1c 0 __crt_stdio_output::positional_parameter_base<wchar_t,__crt_stdio_output::string_output_adapter<wchar_t> >::extract_argument_from_va_list<char *,char *>(char * &)
PUBLIC 1bbb2 0 __crt_stdio_output::standard_base<char,__crt_stdio_output::stream_output_adapter<char> >::extract_argument_from_va_list<char *,char *>(char * &)
PUBLIC 1bbd2 0 __crt_stdio_output::standard_base<char,__crt_stdio_output::string_output_adapter<char> >::extract_argument_from_va_list<char *,char *>(char * &)
PUBLIC 1bbf2 0 __crt_stdio_output::standard_base<wchar_t,__crt_stdio_output::stream_output_adapter<wchar_t> >::extract_argument_from_va_list<char *,char *>(char * &)
PUBLIC 1bc12 0 __crt_stdio_output::standard_base<wchar_t,__crt_stdio_output::string_output_adapter<wchar_t> >::extract_argument_from_va_list<char *,char *>(char * &)
FUNC 1bc32 1a 0 __crt_stdio_output::standard_base<char,__crt_stdio_output::stream_output_adapter<char> >::extract_argument_from_va_list<`__crt_stdio_output::output_processor<char,__crt_stdio_output::stream_output_adapter<char>,__crt_stdio_output::format_validation_base<char,__crt_stdio_output::stream_output_adapter<char> > >::type_case_Z'::`2'::ansi_string *,`__crt_stdio_output::output_processor<char,__crt_stdio_output::stream_output_adapter<char>,__crt_stdio_output::format_validation_base<char,__crt_stdio_output::stream_output_adapter<char> > >::type_case_Z'::`2'::ansi_string *>
FUNC 1bc52 78 0 __crt_stdio_output::positional_parameter_base<char,__crt_stdio_output::stream_output_adapter<char> >::extract_argument_from_va_list<`__crt_stdio_output::output_processor<char,__crt_stdio_output::stream_output_adapter<char>,__crt_stdio_output::positional_parameter_base<char,__crt_stdio_output::stream_output_adapter<char> > >::type_case_Z'::`2'::ansi_string *,`__crt_stdio_output::output_processor<char,__crt_stdio_output::stream_output_adapter<char>,__crt_stdio_output::positional_parameter_base<char,__crt_stdio_output::stream_output_adapter<char> > >::type_case_Z'::`2'::ansi_string *>
FUNC 1bce8 1a 0 __crt_stdio_output::standard_base<char,__crt_stdio_output::stream_output_adapter<char> >::extract_argument_from_va_list<`__crt_stdio_output::output_processor<char,__crt_stdio_output::stream_output_adapter<char>,__crt_stdio_output::positional_parameter_base<char,__crt_stdio_output::stream_output_adapter<char> > >::type_case_Z'::`2'::ansi_string *,`__crt_stdio_output::output_processor<char,__crt_stdio_output::stream_output_adapter<char>,__crt_stdio_output::positional_parameter_base<char,__crt_stdio_output::stream_output_adapter<char> > >::type_case_Z'::`2'::ansi_string *>
FUNC 1bd08 1a 0 __crt_stdio_output::standard_base<char,__crt_stdio_output::stream_output_adapter<char> >::extract_argument_from_va_list<`__crt_stdio_output::output_processor<char,__crt_stdio_output::stream_output_adapter<char>,__crt_stdio_output::standard_base<char,__crt_stdio_output::stream_output_adapter<char> > >::type_case_Z'::`2'::ansi_string *,`__crt_stdio_output::output_processor<char,__crt_stdio_output::stream_output_adapter<char>,__crt_stdio_output::standard_base<char,__crt_stdio_output::stream_output_adapter<char> > >::type_case_Z'::`2'::ansi_string *>
FUNC 1bd28 1a 0 __crt_stdio_output::standard_base<char,__crt_stdio_output::string_output_adapter<char> >::extract_argument_from_va_list<`__crt_stdio_output::output_processor<char,__crt_stdio_output::string_output_adapter<char>,__crt_stdio_output::format_validation_base<char,__crt_stdio_output::string_output_adapter<char> > >::type_case_Z'::`2'::ansi_string *,`__crt_stdio_output::output_processor<char,__crt_stdio_output::string_output_adapter<char>,__crt_stdio_output::format_validation_base<char,__crt_stdio_output::string_output_adapter<char> > >::type_case_Z'::`2'::ansi_string *>
FUNC 1bd48 78 0 __crt_stdio_output::positional_parameter_base<char,__crt_stdio_output::string_output_adapter<char> >::extract_argument_from_va_list<`__crt_stdio_output::output_processor<char,__crt_stdio_output::string_output_adapter<char>,__crt_stdio_output::positional_parameter_base<char,__crt_stdio_output::string_output_adapter<char> > >::type_case_Z'::`2'::ansi_string *,`__crt_stdio_output::output_processor<char,__crt_stdio_output::string_output_adapter<char>,__crt_stdio_output::positional_parameter_base<char,__crt_stdio_output::string_output_adapter<char> > >::type_case_Z'::`2'::ansi_string *>
FUNC 1bdde 1a 0 __crt_stdio_output::standard_base<char,__crt_stdio_output::string_output_adapter<char> >::extract_argument_from_va_list<`__crt_stdio_output::output_processor<char,__crt_stdio_output::string_output_adapter<char>,__crt_stdio_output::positional_parameter_base<char,__crt_stdio_output::string_output_adapter<char> > >::type_case_Z'::`2'::ansi_string *,`__crt_stdio_output::output_processor<char,__crt_stdio_output::string_output_adapter<char>,__crt_stdio_output::positional_parameter_base<char,__crt_stdio_output::string_output_adapter<char> > >::type_case_Z'::`2'::ansi_string *>
FUNC 1bdfe 1a 0 __crt_stdio_output::standard_base<char,__crt_stdio_output::string_output_adapter<char> >::extract_argument_from_va_list<`__crt_stdio_output::output_processor<char,__crt_stdio_output::string_output_adapter<char>,__crt_stdio_output::standard_base<char,__crt_stdio_output::string_output_adapter<char> > >::type_case_Z'::`2'::ansi_string *,`__crt_stdio_output::output_processor<char,__crt_stdio_output::string_output_adapter<char>,__crt_stdio_output::standard_base<char,__crt_stdio_output::string_output_adapter<char> > >::type_case_Z'::`2'::ansi_string *>
FUNC 1be1e 1a 0 __crt_stdio_output::standard_base<wchar_t,__crt_stdio_output::stream_output_adapter<wchar_t> >::extract_argument_from_va_list<`__crt_stdio_output::output_processor<wchar_t,__crt_stdio_output::stream_output_adapter<wchar_t>,__crt_stdio_output::format_validation_base<wchar_t,__crt_stdio_output::stream_output_adapter<wchar_t> > >::type_case_Z'::`2'::ansi_string *,`__crt_stdio_output::output_processor<wchar_t,__crt_stdio_output::stream_output_adapter<wchar_t>,__crt_stdio_output::format_validation_base<wchar_t,__crt_stdio_output::stream_output_adapter<wchar_t> > >::type_case_Z'::`2'::ansi_string *>
FUNC 1be3e 78 0 __crt_stdio_output::positional_parameter_base<wchar_t,__crt_stdio_output::stream_output_adapter<wchar_t> >::extract_argument_from_va_list<`__crt_stdio_output::output_processor<wchar_t,__crt_stdio_output::stream_output_adapter<wchar_t>,__crt_stdio_output::positional_parameter_base<wchar_t,__crt_stdio_output::stream_output_adapter<wchar_t> > >::type_case_Z'::`2'::ansi_string *,`__crt_stdio_output::output_processor<wchar_t,__crt_stdio_output::stream_output_adapter<wchar_t>,__crt_stdio_output::positional_parameter_base<wchar_t,__crt_stdio_output::stream_output_adapter<wchar_t> > >::type_case_Z'::`2'::ansi_string *>
FUNC 1bed4 1a 0 __crt_stdio_output::standard_base<wchar_t,__crt_stdio_output::stream_output_adapter<wchar_t> >::extract_argument_from_va_list<`__crt_stdio_output::output_processor<wchar_t,__crt_stdio_output::stream_output_adapter<wchar_t>,__crt_stdio_output::positional_parameter_base<wchar_t,__crt_stdio_output::stream_output_adapter<wchar_t> > >::type_case_Z'::`2'::ansi_string *,`__crt_stdio_output::output_processor<wchar_t,__crt_stdio_output::stream_output_adapter<wchar_t>,__crt_stdio_output::positional_parameter_base<wchar_t,__crt_stdio_output::stream_output_adapter<wchar_t> > >::type_case_Z'::`2'::ansi_string *>
FUNC 1bef4 1a 0 __crt_stdio_output::standard_base<wchar_t,__crt_stdio_output::stream_output_adapter<wchar_t> >::extract_argument_from_va_list<`__crt_stdio_output::output_processor<wchar_t,__crt_stdio_output::stream_output_adapter<wchar_t>,__crt_stdio_output::standard_base<wchar_t,__crt_stdio_output::stream_output_adapter<wchar_t> > >::type_case_Z'::`2'::ansi_string *,`__crt_stdio_output::output_processor<wchar_t,__crt_stdio_output::stream_output_adapter<wchar_t>,__crt_stdio_output::standard_base<wchar_t,__crt_stdio_output::stream_output_adapter<wchar_t> > >::type_case_Z'::`2'::ansi_string *>
FUNC 1bf14 1a 0 __crt_stdio_output::standard_base<wchar_t,__crt_stdio_output::string_output_adapter<wchar_t> >::extract_argument_from_va_list<`__crt_stdio_output::output_processor<wchar_t,__crt_stdio_output::string_output_adapter<wchar_t>,__crt_stdio_output::format_validation_base<wchar_t,__crt_stdio_output::string_output_adapter<wchar_t> > >::type_case_Z'::`2'::ansi_string *,`__crt_stdio_output::output_processor<wchar_t,__crt_stdio_output::string_output_adapter<wchar_t>,__crt_stdio_output::format_validation_base<wchar_t,__crt_stdio_output::string_output_adapter<wchar_t> > >::type_case_Z'::`2'::ansi_string *>
FUNC 1bf34 78 0 __crt_stdio_output::positional_parameter_base<wchar_t,__crt_stdio_output::string_output_adapter<wchar_t> >::extract_argument_from_va_list<`__crt_stdio_output::output_processor<wchar_t,__crt_stdio_output::string_output_adapter<wchar_t>,__crt_stdio_output::positional_parameter_base<wchar_t,__crt_stdio_output::string_output_adapter<wchar_t> > >::type_case_Z'::`2'::ansi_string *,`__crt_stdio_output::output_processor<wchar_t,__crt_stdio_output::string_output_adapter<wchar_t>,__crt_stdio_output::positional_parameter_base<wchar_t,__crt_stdio_output::string_output_adapter<wchar_t> > >::type_case_Z'::`2'::ansi_string *>
FUNC 1bfca 1a 0 __crt_stdio_output::standard_base<wchar_t,__crt_stdio_output::string_output_adapter<wchar_t> >::extract_argument_from_va_list<`__crt_stdio_output::output_processor<wchar_t,__crt_stdio_output::string_output_adapter<wchar_t>,__crt_stdio_output::positional_parameter_base<wchar_t,__crt_stdio_output::string_output_adapter<wchar_t> > >::type_case_Z'::`2'::ansi_string *,`__crt_stdio_output::output_processor<wchar_t,__crt_stdio_output::string_output_adapter<wchar_t>,__crt_stdio_output::positional_parameter_base<wchar_t,__crt_stdio_output::string_output_adapter<wchar_t> > >::type_case_Z'::`2'::ansi_string *>
FUNC 1bfea 1a 0 __crt_stdio_output::standard_base<wchar_t,__crt_stdio_output::string_output_adapter<wchar_t> >::extract_argument_from_va_list<`__crt_stdio_output::output_processor<wchar_t,__crt_stdio_output::string_output_adapter<wchar_t>,__crt_stdio_output::standard_base<wchar_t,__crt_stdio_output::string_output_adapter<wchar_t> > >::type_case_Z'::`2'::ansi_string *,`__crt_stdio_output::output_processor<wchar_t,__crt_stdio_output::string_output_adapter<wchar_t>,__crt_stdio_output::standard_base<wchar_t,__crt_stdio_output::string_output_adapter<wchar_t> > >::type_case_Z'::`2'::ansi_string *>
PUBLIC 1c00a 0 __crt_stdio_output::positional_parameter_base<char,__crt_stdio_output::stream_output_adapter<char> >::extract_argument_from_va_list<void *,void *>(void * &)
PUBLIC 1c0a0 0 __crt_stdio_output::positional_parameter_base<char,__crt_stdio_output::string_output_adapter<char> >::extract_argument_from_va_list<void *,void *>(void * &)
PUBLIC 1c136 0 __crt_stdio_output::positional_parameter_base<wchar_t,__crt_stdio_output::stream_output_adapter<wchar_t> >::extract_argument_from_va_list<void *,void *>(void * &)
PUBLIC 1c1cc 0 __crt_stdio_output::positional_parameter_base<wchar_t,__crt_stdio_output::string_output_adapter<wchar_t> >::extract_argument_from_va_list<void *,void *>(void * &)
PUBLIC 1c262 0 __crt_stdio_output::standard_base<char,__crt_stdio_output::stream_output_adapter<char> >::extract_argument_from_va_list<void *,void *>(void * &)
PUBLIC 1c282 0 __crt_stdio_output::standard_base<char,__crt_stdio_output::string_output_adapter<char> >::extract_argument_from_va_list<void *,void *>(void * &)
PUBLIC 1c2a2 0 __crt_stdio_output::standard_base<wchar_t,__crt_stdio_output::stream_output_adapter<wchar_t> >::extract_argument_from_va_list<void *,void *>(void * &)
PUBLIC 1c2c2 0 __crt_stdio_output::standard_base<wchar_t,__crt_stdio_output::string_output_adapter<wchar_t> >::extract_argument_from_va_list<void *,void *>(void * &)
PUBLIC 1c2e2 0 __crt_stdio_output::positional_parameter_base<char,__crt_stdio_output::stream_output_adapter<char> >::extract_argument_from_va_list<_CRT_DOUBLE,_CRT_DOUBLE>(_CRT_DOUBLE &)
PUBLIC 1c389 0 __crt_stdio_output::positional_parameter_base<char,__crt_stdio_output::string_output_adapter<char> >::extract_argument_from_va_list<_CRT_DOUBLE,_CRT_DOUBLE>(_CRT_DOUBLE &)
PUBLIC 1c430 0 __crt_stdio_output::positional_parameter_base<wchar_t,__crt_stdio_output::stream_output_adapter<wchar_t> >::extract_argument_from_va_list<_CRT_DOUBLE,_CRT_DOUBLE>(_CRT_DOUBLE &)
PUBLIC 1c4d7 0 __crt_stdio_output::positional_parameter_base<wchar_t,__crt_stdio_output::string_output_adapter<wchar_t> >::extract_argument_from_va_list<_CRT_DOUBLE,_CRT_DOUBLE>(_CRT_DOUBLE &)
PUBLIC 1c57e 0 __crt_stdio_output::standard_base<char,__crt_stdio_output::stream_output_adapter<char> >::extract_argument_from_va_list<_CRT_DOUBLE,_CRT_DOUBLE>(_CRT_DOUBLE &)
PUBLIC 1c5a6 0 __crt_stdio_output::standard_base<char,__crt_stdio_output::string_output_adapter<char> >::extract_argument_from_va_list<_CRT_DOUBLE,_CRT_DOUBLE>(_CRT_DOUBLE &)
PUBLIC 1c5ce 0 __crt_stdio_output::standard_base<wchar_t,__crt_stdio_output::stream_output_adapter<wchar_t> >::extract_argument_from_va_list<_CRT_DOUBLE,_CRT_DOUBLE>(_CRT_DOUBLE &)
PUBLIC 1c5f6 0 __crt_stdio_output::standard_base<wchar_t,__crt_stdio_output::string_output_adapter<wchar_t> >::extract_argument_from_va_list<_CRT_DOUBLE,_CRT_DOUBLE>(_CRT_DOUBLE &)
PUBLIC 1c61e 0 __crt_stdio_output::positional_parameter_base<char,__crt_stdio_output::stream_output_adapter<char> >::extract_argument_from_va_list<__int64,__int64>(__int64 &)
PUBLIC 1c6c5 0 __crt_stdio_output::positional_parameter_base<char,__crt_stdio_output::string_output_adapter<char> >::extract_argument_from_va_list<__int64,__int64>(__int64 &)
PUBLIC 1c76c 0 __crt_stdio_output::positional_parameter_base<wchar_t,__crt_stdio_output::stream_output_adapter<wchar_t> >::extract_argument_from_va_list<__int64,__int64>(__int64 &)
PUBLIC 1c813 0 __crt_stdio_output::positional_parameter_base<wchar_t,__crt_stdio_output::string_output_adapter<wchar_t> >::extract_argument_from_va_list<__int64,__int64>(__int64 &)
PUBLIC 1c8ba 0 __crt_stdio_output::standard_base<char,__crt_stdio_output::stream_output_adapter<char> >::extract_argument_from_va_list<__int64,__int64>(__int64 &)
PUBLIC 1c8e2 0 __crt_stdio_output::standard_base<char,__crt_stdio_output::string_output_adapter<char> >::extract_argument_from_va_list<__int64,__int64>(__int64 &)
PUBLIC 1c90a 0 __crt_stdio_output::standard_base<wchar_t,__crt_stdio_output::stream_output_adapter<wchar_t> >::extract_argument_from_va_list<__int64,__int64>(__int64 &)
PUBLIC 1c932 0 __crt_stdio_output::standard_base<wchar_t,__crt_stdio_output::string_output_adapter<wchar_t> >::extract_argument_from_va_list<__int64,__int64>(__int64 &)
PUBLIC 1c95a 0 __crt_stdio_output::positional_parameter_base<char,__crt_stdio_output::stream_output_adapter<char> >::extract_argument_from_va_list<unsigned __int64,__int64>(__int64 &)
PUBLIC 1ca01 0 __crt_stdio_output::positional_parameter_base<char,__crt_stdio_output::string_output_adapter<char> >::extract_argument_from_va_list<unsigned __int64,__int64>(__int64 &)
PUBLIC 1caa8 0 __crt_stdio_output::positional_parameter_base<wchar_t,__crt_stdio_output::stream_output_adapter<wchar_t> >::extract_argument_from_va_list<unsigned __int64,__int64>(__int64 &)
PUBLIC 1cb4f 0 __crt_stdio_output::positional_parameter_base<wchar_t,__crt_stdio_output::string_output_adapter<wchar_t> >::extract_argument_from_va_list<unsigned __int64,__int64>(__int64 &)
PUBLIC 1cbf6 0 __crt_stdio_output::standard_base<char,__crt_stdio_output::stream_output_adapter<char> >::extract_argument_from_va_list<unsigned __int64,__int64>(__int64 &)
PUBLIC 1cc1e 0 __crt_stdio_output::standard_base<char,__crt_stdio_output::string_output_adapter<char> >::extract_argument_from_va_list<unsigned __int64,__int64>(__int64 &)
PUBLIC 1cc46 0 __crt_stdio_output::standard_base<wchar_t,__crt_stdio_output::stream_output_adapter<wchar_t> >::extract_argument_from_va_list<unsigned __int64,__int64>(__int64 &)
PUBLIC 1cc6e 0 __crt_stdio_output::standard_base<wchar_t,__crt_stdio_output::string_output_adapter<wchar_t> >::extract_argument_from_va_list<unsigned __int64,__int64>(__int64 &)
PUBLIC 1cc96 0 __crt_stdio_output::positional_parameter_base<char,__crt_stdio_output::stream_output_adapter<char> >::extract_argument_from_va_list<wchar_t,wchar_t>(wchar_t &)
PUBLIC 1cd31 0 __crt_stdio_output::positional_parameter_base<char,__crt_stdio_output::string_output_adapter<char> >::extract_argument_from_va_list<wchar_t,wchar_t>(wchar_t &)
PUBLIC 1cdcc 0 __crt_stdio_output::positional_parameter_base<wchar_t,__crt_stdio_output::stream_output_adapter<wchar_t> >::extract_argument_from_va_list<wchar_t,wchar_t>(wchar_t &)
PUBLIC 1ce67 0 __crt_stdio_output::positional_parameter_base<wchar_t,__crt_stdio_output::string_output_adapter<wchar_t> >::extract_argument_from_va_list<wchar_t,wchar_t>(wchar_t &)
PUBLIC 1cf02 0 __crt_stdio_output::standard_base<char,__crt_stdio_output::stream_output_adapter<char> >::extract_argument_from_va_list<wchar_t,wchar_t>(wchar_t &)
PUBLIC 1cf25 0 __crt_stdio_output::standard_base<char,__crt_stdio_output::string_output_adapter<char> >::extract_argument_from_va_list<wchar_t,wchar_t>(wchar_t &)
PUBLIC 1cf48 0 __crt_stdio_output::standard_base<wchar_t,__crt_stdio_output::stream_output_adapter<wchar_t> >::extract_argument_from_va_list<wchar_t,wchar_t>(wchar_t &)
PUBLIC 1cf6b 0 __crt_stdio_output::standard_base<wchar_t,__crt_stdio_output::string_output_adapter<wchar_t> >::extract_argument_from_va_list<wchar_t,wchar_t>(wchar_t &)
PUBLIC 1cf8e 0 __crt_stdio_output::positional_parameter_base<char,__crt_stdio_output::stream_output_adapter<char> >::get_parameter_type<char>(char *)
PUBLIC 1cf92 0 __crt_stdio_output::positional_parameter_base<char,__crt_stdio_output::string_output_adapter<char> >::get_parameter_type<char>(char *)
PUBLIC 1cf96 0 __crt_stdio_output::positional_parameter_base<wchar_t,__crt_stdio_output::stream_output_adapter<wchar_t> >::get_parameter_type<char>(char *)
PUBLIC 1cf9a 0 __crt_stdio_output::positional_parameter_base<wchar_t,__crt_stdio_output::string_output_adapter<wchar_t> >::get_parameter_type<char>(char *)
FUNC 1cf9e 4 0 __crt_stdio_output::positional_parameter_base<char,__crt_stdio_output::stream_output_adapter<char> >::get_parameter_type<`__crt_stdio_output::output_processor<char,__crt_stdio_output::stream_output_adapter<char>,__crt_stdio_output::positional_parameter_base<char,__crt_stdio_output::stream_output_adapter<char> > >::type_case_Z'::`2'::ansi_string>
FUNC 1cfa2 4 0 __crt_stdio_output::positional_parameter_base<char,__crt_stdio_output::string_output_adapter<char> >::get_parameter_type<`__crt_stdio_output::output_processor<char,__crt_stdio_output::string_output_adapter<char>,__crt_stdio_output::positional_parameter_base<char,__crt_stdio_output::string_output_adapter<char> > >::type_case_Z'::`2'::ansi_string>
FUNC 1cfa6 4 0 __crt_stdio_output::positional_parameter_base<wchar_t,__crt_stdio_output::stream_output_adapter<wchar_t> >::get_parameter_type<`__crt_stdio_output::output_processor<wchar_t,__crt_stdio_output::stream_output_adapter<wchar_t>,__crt_stdio_output::positional_parameter_base<wchar_t,__crt_stdio_output::stream_output_adapter<wchar_t> > >::type_case_Z'::`2'::ansi_string>
FUNC 1cfaa 4 0 __crt_stdio_output::positional_parameter_base<wchar_t,__crt_stdio_output::string_output_adapter<wchar_t> >::get_parameter_type<`__crt_stdio_output::output_processor<wchar_t,__crt_stdio_output::string_output_adapter<wchar_t>,__crt_stdio_output::positional_parameter_base<wchar_t,__crt_stdio_output::string_output_adapter<wchar_t> > >::type_case_Z'::`2'::ansi_string>
PUBLIC 1cfae 0 __crt_stdio_output::positional_parameter_base<char,__crt_stdio_output::stream_output_adapter<char> >::get_parameter_type<void>(void *)
PUBLIC 1cfb2 0 __crt_stdio_output::positional_parameter_base<char,__crt_stdio_output::string_output_adapter<char> >::get_parameter_type<void>(void *)
PUBLIC 1cfb6 0 __crt_stdio_output::positional_parameter_base<wchar_t,__crt_stdio_output::stream_output_adapter<wchar_t> >::get_parameter_type<void>(void *)
PUBLIC 1cfba 0 __crt_stdio_output::positional_parameter_base<wchar_t,__crt_stdio_output::string_output_adapter<wchar_t> >::get_parameter_type<void>(void *)
PUBLIC 1cfbe 0 __crt_stdio_output::positional_parameter_base<char,__crt_stdio_output::stream_output_adapter<char> >::is_character_specifier<char>(char)
PUBLIC 1cfdc 0 __crt_stdio_output::positional_parameter_base<char,__crt_stdio_output::string_output_adapter<char> >::is_character_specifier<char>(char)
PUBLIC 1cffa 0 __crt_stdio_output::positional_parameter_base<wchar_t,__crt_stdio_output::stream_output_adapter<wchar_t> >::is_character_specifier<wchar_t>(wchar_t)
PUBLIC 1d01b 0 __crt_stdio_output::positional_parameter_base<wchar_t,__crt_stdio_output::string_output_adapter<wchar_t> >::is_character_specifier<wchar_t>(wchar_t)
PUBLIC 1d03c 0 __crt_stdio_output::positional_parameter_base<char,__crt_stdio_output::stream_output_adapter<char> >::is_integral_specifier<char>(char)
PUBLIC 1d073 0 __crt_stdio_output::positional_parameter_base<char,__crt_stdio_output::string_output_adapter<char> >::is_integral_specifier<char>(char)
PUBLIC 1d0aa 0 __crt_stdio_output::positional_parameter_base<wchar_t,__crt_stdio_output::stream_output_adapter<wchar_t> >::is_integral_specifier<wchar_t>(wchar_t)
PUBLIC 1d0f3 0 __crt_stdio_output::positional_parameter_base<wchar_t,__crt_stdio_output::string_output_adapter<wchar_t> >::is_integral_specifier<wchar_t>(wchar_t)
PUBLIC 1d13c 0 __crt_stdio_output::positional_parameter_base<char,__crt_stdio_output::stream_output_adapter<char> >::is_pointer_specifier<char>(char)
PUBLIC 1d14d 0 __crt_stdio_output::positional_parameter_base<char,__crt_stdio_output::string_output_adapter<char> >::is_pointer_specifier<char>(char)
PUBLIC 1d15e 0 __crt_stdio_output::positional_parameter_base<wchar_t,__crt_stdio_output::stream_output_adapter<wchar_t> >::is_pointer_specifier<wchar_t>(wchar_t)
PUBLIC 1d170 0 __crt_stdio_output::positional_parameter_base<wchar_t,__crt_stdio_output::string_output_adapter<wchar_t> >::is_pointer_specifier<wchar_t>(wchar_t)
PUBLIC 1d182 0 __crt_stdio_output::positional_parameter_base<char,__crt_stdio_output::stream_output_adapter<char> >::is_string_specifier<char>(char)
PUBLIC 1d1a0 0 __crt_stdio_output::positional_parameter_base<char,__crt_stdio_output::string_output_adapter<char> >::is_string_specifier<char>(char)
PUBLIC 1d1be 0 __crt_stdio_output::positional_parameter_base<wchar_t,__crt_stdio_output::stream_output_adapter<wchar_t> >::is_string_specifier<wchar_t>(wchar_t)
PUBLIC 1d1df 0 __crt_stdio_output::positional_parameter_base<wchar_t,__crt_stdio_output::string_output_adapter<wchar_t> >::is_string_specifier<wchar_t>(wchar_t)
PUBLIC 1d200 0 __crt_stdio_output::is_wide_character_specifier<char>(unsigned __int64,char,__crt_stdio_output::length_modifier)
PUBLIC 1d23d 0 __crt_stdio_output::is_wide_character_specifier<wchar_t>(unsigned __int64,wchar_t,__crt_stdio_output::length_modifier)
PUBLIC 1d29e 0 __crt_stdio_output::peek_va_arg<signed char>(char *)
PUBLIC 1d2ad 0 __crt_stdio_output::peek_va_arg<unsigned char>(char *)
PUBLIC 1d2bc 0 __crt_stdio_output::peek_va_arg<short>(char *)
PUBLIC 1d2cc 0 __crt_stdio_output::peek_va_arg<unsigned short>(char *)
PUBLIC 1d2dc 0 __crt_stdio_output::peek_va_arg<int>(char *)
PUBLIC 1d2eb 0 __crt_stdio_output::peek_va_arg<unsigned int>(char *)
PUBLIC 1d2fa 0 __crt_stdio_output::peek_va_arg<char *>(char *)
FUNC 1d309 c 0 __crt_stdio_output::peek_va_arg<`__crt_stdio_output::output_processor<char,__crt_stdio_output::stream_output_adapter<char>,__crt_stdio_output::positional_parameter_base<char,__crt_stdio_output::stream_output_adapter<char> > >::type_case_Z'::`2'::ansi_string *>
FUNC 1d318 c 0 __crt_stdio_output::peek_va_arg<`__crt_stdio_output::output_processor<char,__crt_stdio_output::string_output_adapter<char>,__crt_stdio_output::positional_parameter_base<char,__crt_stdio_output::string_output_adapter<char> > >::type_case_Z'::`2'::ansi_string *>
FUNC 1d327 c 0 __crt_stdio_output::peek_va_arg<`__crt_stdio_output::output_processor<wchar_t,__crt_stdio_output::stream_output_adapter<wchar_t>,__crt_stdio_output::positional_parameter_base<wchar_t,__crt_stdio_output::stream_output_adapter<wchar_t> > >::type_case_Z'::`2'::ansi_string *>
FUNC 1d336 c 0 __crt_stdio_output::peek_va_arg<`__crt_stdio_output::output_processor<wchar_t,__crt_stdio_output::string_output_adapter<wchar_t>,__crt_stdio_output::positional_parameter_base<wchar_t,__crt_stdio_output::string_output_adapter<wchar_t> > >::type_case_Z'::`2'::ansi_string *>
PUBLIC 1d345 0 __crt_stdio_output::peek_va_arg<void *>(char *)
PUBLIC 1d354 0 __crt_stdio_output::peek_va_arg<_CRT_DOUBLE>(char *)
PUBLIC 1d366 0 __crt_stdio_output::peek_va_arg<__int64>(char *)
PUBLIC 1d378 0 __crt_stdio_output::peek_va_arg<unsigned __int64>(char *)
PUBLIC 1d38a 0 __crt_stdio_output::peek_va_arg<wchar_t>(char *)
PUBLIC 1d39a 0 __crt_char_traits<char>::puttc_nolock<char const &,_iobuf *>(char const &,_iobuf * &&)
PUBLIC 1d3ba 0 __crt_char_traits<wchar_t>::puttc_nolock<wchar_t const &,_iobuf *>(wchar_t const &,_iobuf * &&)
PUBLIC 1d3da 0 __crt_stdio_output::read_va_arg<signed char>(char * &)
PUBLIC 1d3f0 0 __crt_stdio_output::read_va_arg<unsigned char>(char * &)
PUBLIC 1d406 0 __crt_stdio_output::read_va_arg<short>(char * &)
PUBLIC 1d41d 0 __crt_stdio_output::read_va_arg<unsigned short>(char * &)
PUBLIC 1d434 0 __crt_stdio_output::read_va_arg<int>(char * &)
PUBLIC 1d44a 0 __crt_stdio_output::read_va_arg<unsigned int>(char * &)
PUBLIC 1d460 0 __crt_stdio_output::read_va_arg<char *>(char * &)
FUNC 1d476 12 0 __crt_stdio_output::read_va_arg<`__crt_stdio_output::output_processor<char,__crt_stdio_output::stream_output_adapter<char>,__crt_stdio_output::format_validation_base<char,__crt_stdio_output::stream_output_adapter<char> > >::type_case_Z'::`2'::ansi_string *>
FUNC 1d48c 12 0 __crt_stdio_output::read_va_arg<`__crt_stdio_output::output_processor<char,__crt_stdio_output::stream_output_adapter<char>,__crt_stdio_output::positional_parameter_base<char,__crt_stdio_output::stream_output_adapter<char> > >::type_case_Z'::`2'::ansi_string *>
FUNC 1d4a2 12 0 __crt_stdio_output::read_va_arg<`__crt_stdio_output::output_processor<char,__crt_stdio_output::stream_output_adapter<char>,__crt_stdio_output::standard_base<char,__crt_stdio_output::stream_output_adapter<char> > >::type_case_Z'::`2'::ansi_string *>
FUNC 1d4b8 12 0 __crt_stdio_output::read_va_arg<`__crt_stdio_output::output_processor<char,__crt_stdio_output::string_output_adapter<char>,__crt_stdio_output::format_validation_base<char,__crt_stdio_output::string_output_adapter<char> > >::type_case_Z'::`2'::ansi_string *>
FUNC 1d4ce 12 0 __crt_stdio_output::read_va_arg<`__crt_stdio_output::output_processor<char,__crt_stdio_output::string_output_adapter<char>,__crt_stdio_output::positional_parameter_base<char,__crt_stdio_output::string_output_adapter<char> > >::type_case_Z'::`2'::ansi_string *>
FUNC 1d4e4 12 0 __crt_stdio_output::read_va_arg<`__crt_stdio_output::output_processor<char,__crt_stdio_output::string_output_adapter<char>,__crt_stdio_output::standard_base<char,__crt_stdio_output::string_output_adapter<char> > >::type_case_Z'::`2'::ansi_string *>
FUNC 1d4fa 12 0 __crt_stdio_output::read_va_arg<`__crt_stdio_output::output_processor<wchar_t,__crt_stdio_output::stream_output_adapter<wchar_t>,__crt_stdio_output::format_validation_base<wchar_t,__crt_stdio_output::stream_output_adapter<wchar_t> > >::type_case_Z'::`2'::ansi_string *>
FUNC 1d510 12 0 __crt_stdio_output::read_va_arg<`__crt_stdio_output::output_processor<wchar_t,__crt_stdio_output::stream_output_adapter<wchar_t>,__crt_stdio_output::positional_parameter_base<wchar_t,__crt_stdio_output::stream_output_adapter<wchar_t> > >::type_case_Z'::`2'::ansi_string *>
FUNC 1d526 12 0 __crt_stdio_output::read_va_arg<`__crt_stdio_output::output_processor<wchar_t,__crt_stdio_output::stream_output_adapter<wchar_t>,__crt_stdio_output::standard_base<wchar_t,__crt_stdio_output::stream_output_adapter<wchar_t> > >::type_case_Z'::`2'::ansi_string *>
FUNC 1d53c 12 0 __crt_stdio_output::read_va_arg<`__crt_stdio_output::output_processor<wchar_t,__crt_stdio_output::string_output_adapter<wchar_t>,__crt_stdio_output::format_validation_base<wchar_t,__crt_stdio_output::string_output_adapter<wchar_t> > >::type_case_Z'::`2'::ansi_string *>
FUNC 1d552 12 0 __crt_stdio_output::read_va_arg<`__crt_stdio_output::output_processor<wchar_t,__crt_stdio_output::string_output_adapter<wchar_t>,__crt_stdio_output::positional_parameter_base<wchar_t,__crt_stdio_output::string_output_adapter<wchar_t> > >::type_case_Z'::`2'::ansi_string *>
FUNC 1d568 12 0 __crt_stdio_output::read_va_arg<`__crt_stdio_output::output_processor<wchar_t,__crt_stdio_output::string_output_adapter<wchar_t>,__crt_stdio_output::standard_base<wchar_t,__crt_stdio_output::string_output_adapter<wchar_t> > >::type_case_Z'::`2'::ansi_string *>
PUBLIC 1d57e 0 __crt_stdio_output::read_va_arg<void *>(char * &)
PUBLIC 1d594 0 __crt_stdio_output::read_va_arg<_CRT_DOUBLE>(char * &)
PUBLIC 1d5af 0 __crt_stdio_output::read_va_arg<__int64>(char * &)
PUBLIC 1d5c9 0 __crt_stdio_output::read_va_arg<unsigned __int64>(char * &)
PUBLIC 1d5e3 0 __crt_stdio_output::read_va_arg<wchar_t>(char * &)
PUBLIC 1d5fa 0 __crt_stdio_output::formatting_buffer::scratch_count<char>()
PUBLIC 1d5ff 0 __crt_stdio_output::formatting_buffer::scratch_data<char>()
PUBLIC 1d624 0 __crt_char_traits<char>::tcstol<char const * &,char * *,int>(char const * &,char * * &&,int &&)
PUBLIC 1d649 0 __crt_char_traits<wchar_t>::tcstol<wchar_t const * &,wchar_t * *,int>(wchar_t const * &,wchar_t * * &&,int &&)
PUBLIC 1d66e 0 __crt_char_traits<char>::tcstol<char const *,char * *,int>(char const * &&,char * * &&,int &&)
PUBLIC 1d693 0 __crt_char_traits<wchar_t>::tcstol<wchar_t const *,wchar_t * *,int>(wchar_t const * &&,wchar_t * * &&,int &&)
PUBLIC 1d6b8 0 __crt_stdio_output::output_processor<char,__crt_stdio_output::stream_output_adapter<char>,__crt_stdio_output::format_validation_base<char,__crt_stdio_output::stream_output_adapter<char> > >::type_case_integer_parse_into_buffer<unsigned int>(unsigned int,unsigned int,bool)
PUBLIC 1d747 0 __crt_stdio_output::output_processor<char,__crt_stdio_output::stream_output_adapter<char>,__crt_stdio_output::positional_parameter_base<char,__crt_stdio_output::stream_output_adapter<char> > >::type_case_integer_parse_into_buffer<unsigned int>(unsigned int,unsigned int,bool)
PUBLIC 1d7d6 0 __crt_stdio_output::output_processor<char,__crt_stdio_output::stream_output_adapter<char>,__crt_stdio_output::standard_base<char,__crt_stdio_output::stream_output_adapter<char> > >::type_case_integer_parse_into_buffer<unsigned int>(unsigned int,unsigned int,bool)
PUBLIC 1d865 0 __crt_stdio_output::output_processor<char,__crt_stdio_output::string_output_adapter<char>,__crt_stdio_output::format_validation_base<char,__crt_stdio_output::string_output_adapter<char> > >::type_case_integer_parse_into_buffer<unsigned int>(unsigned int,unsigned int,bool)
PUBLIC 1d8f4 0 __crt_stdio_output::output_processor<char,__crt_stdio_output::string_output_adapter<char>,__crt_stdio_output::positional_parameter_base<char,__crt_stdio_output::string_output_adapter<char> > >::type_case_integer_parse_into_buffer<unsigned int>(unsigned int,unsigned int,bool)
PUBLIC 1d983 0 __crt_stdio_output::output_processor<char,__crt_stdio_output::string_output_adapter<char>,__crt_stdio_output::standard_base<char,__crt_stdio_output::string_output_adapter<char> > >::type_case_integer_parse_into_buffer<unsigned int>(unsigned int,unsigned int,bool)
PUBLIC 1da12 0 __crt_stdio_output::output_processor<wchar_t,__crt_stdio_output::stream_output_adapter<wchar_t>,__crt_stdio_output::format_validation_base<wchar_t,__crt_stdio_output::stream_output_adapter<wchar_t> > >::type_case_integer_parse_into_buffer<unsigned int>(unsigned int,unsigned int,bool)
PUBLIC 1daba 0 __crt_stdio_output::output_processor<wchar_t,__crt_stdio_output::stream_output_adapter<wchar_t>,__crt_stdio_output::positional_parameter_base<wchar_t,__crt_stdio_output::stream_output_adapter<wchar_t> > >::type_case_integer_parse_into_buffer<unsigned int>(unsigned int,unsigned int,bool)
PUBLIC 1db62 0 __crt_stdio_output::output_processor<wchar_t,__crt_stdio_output::stream_output_adapter<wchar_t>,__crt_stdio_output::standard_base<wchar_t,__crt_stdio_output::stream_output_adapter<wchar_t> > >::type_case_integer_parse_into_buffer<unsigned int>(unsigned int,unsigned int,bool)
PUBLIC 1dc0a 0 __crt_stdio_output::output_processor<wchar_t,__crt_stdio_output::string_output_adapter<wchar_t>,__crt_stdio_output::format_validation_base<wchar_t,__crt_stdio_output::string_output_adapter<wchar_t> > >::type_case_integer_parse_into_buffer<unsigned int>(unsigned int,unsigned int,bool)
PUBLIC 1dcb2 0 __crt_stdio_output::output_processor<wchar_t,__crt_stdio_output::string_output_adapter<wchar_t>,__crt_stdio_output::positional_parameter_base<wchar_t,__crt_stdio_output::string_output_adapter<wchar_t> > >::type_case_integer_parse_into_buffer<unsigned int>(unsigned int,unsigned int,bool)
PUBLIC 1dd5a 0 __crt_stdio_output::output_processor<wchar_t,__crt_stdio_output::string_output_adapter<wchar_t>,__crt_stdio_output::standard_base<wchar_t,__crt_stdio_output::string_output_adapter<wchar_t> > >::type_case_integer_parse_into_buffer<unsigned int>(unsigned int,unsigned int,bool)
PUBLIC 1de02 0 __crt_stdio_output::output_processor<char,__crt_stdio_output::stream_output_adapter<char>,__crt_stdio_output::format_validation_base<char,__crt_stdio_output::stream_output_adapter<char> > >::type_case_integer_parse_into_buffer<unsigned __int64>(unsigned __int64,unsigned int,bool)
PUBLIC 1deb3 0 __crt_stdio_output::output_processor<char,__crt_stdio_output::stream_output_adapter<char>,__crt_stdio_output::positional_parameter_base<char,__crt_stdio_output::stream_output_adapter<char> > >::type_case_integer_parse_into_buffer<unsigned __int64>(unsigned __int64,unsigned int,bool)
PUBLIC 1df64 0 __crt_stdio_output::output_processor<char,__crt_stdio_output::stream_output_adapter<char>,__crt_stdio_output::standard_base<char,__crt_stdio_output::stream_output_adapter<char> > >::type_case_integer_parse_into_buffer<unsigned __int64>(unsigned __int64,unsigned int,bool)
PUBLIC 1e015 0 __crt_stdio_output::output_processor<char,__crt_stdio_output::string_output_adapter<char>,__crt_stdio_output::format_validation_base<char,__crt_stdio_output::string_output_adapter<char> > >::type_case_integer_parse_into_buffer<unsigned __int64>(unsigned __int64,unsigned int,bool)
PUBLIC 1e0c6 0 __crt_stdio_output::output_processor<char,__crt_stdio_output::string_output_adapter<char>,__crt_stdio_output::positional_parameter_base<char,__crt_stdio_output::string_output_adapter<char> > >::type_case_integer_parse_into_buffer<unsigned __int64>(unsigned __int64,unsigned int,bool)
PUBLIC 1e177 0 __crt_stdio_output::output_processor<char,__crt_stdio_output::string_output_adapter<char>,__crt_stdio_output::standard_base<char,__crt_stdio_output::string_output_adapter<char> > >::type_case_integer_parse_into_buffer<unsigned __int64>(unsigned __int64,unsigned int,bool)
PUBLIC 1e228 0 __crt_stdio_output::output_processor<wchar_t,__crt_stdio_output::stream_output_adapter<wchar_t>,__crt_stdio_output::format_validation_base<wchar_t,__crt_stdio_output::stream_output_adapter<wchar_t> > >::type_case_integer_parse_into_buffer<unsigned __int64>(unsigned __int64,unsigned int,bool)
PUBLIC 1e2f2 0 __crt_stdio_output::output_processor<wchar_t,__crt_stdio_output::stream_output_adapter<wchar_t>,__crt_stdio_output::positional_parameter_base<wchar_t,__crt_stdio_output::stream_output_adapter<wchar_t> > >::type_case_integer_parse_into_buffer<unsigned __int64>(unsigned __int64,unsigned int,bool)
PUBLIC 1e3bc 0 __crt_stdio_output::output_processor<wchar_t,__crt_stdio_output::stream_output_adapter<wchar_t>,__crt_stdio_output::standard_base<wchar_t,__crt_stdio_output::stream_output_adapter<wchar_t> > >::type_case_integer_parse_into_buffer<unsigned __int64>(unsigned __int64,unsigned int,bool)
PUBLIC 1e486 0 __crt_stdio_output::output_processor<wchar_t,__crt_stdio_output::string_output_adapter<wchar_t>,__crt_stdio_output::format_validation_base<wchar_t,__crt_stdio_output::string_output_adapter<wchar_t> > >::type_case_integer_parse_into_buffer<unsigned __int64>(unsigned __int64,unsigned int,bool)
PUBLIC 1e550 0 __crt_stdio_output::output_processor<wchar_t,__crt_stdio_output::string_output_adapter<wchar_t>,__crt_stdio_output::positional_parameter_base<wchar_t,__crt_stdio_output::string_output_adapter<wchar_t> > >::type_case_integer_parse_into_buffer<unsigned __int64>(unsigned __int64,unsigned int,bool)
PUBLIC 1e61a 0 __crt_stdio_output::output_processor<wchar_t,__crt_stdio_output::string_output_adapter<wchar_t>,__crt_stdio_output::standard_base<wchar_t,__crt_stdio_output::string_output_adapter<wchar_t> > >::type_case_integer_parse_into_buffer<unsigned __int64>(unsigned __int64,unsigned int,bool)
PUBLIC 1e6e4 0 __crt_stdio_output::write_multiple_characters<__crt_stdio_output::stream_output_adapter<char>,char>(__crt_stdio_output::stream_output_adapter<char> const &,char,int,int * const)
PUBLIC 1e72d 0 __crt_stdio_output::write_multiple_characters<__crt_stdio_output::stream_output_adapter<wchar_t>,char>(__crt_stdio_output::stream_output_adapter<wchar_t> const &,char,int,int * const)
PUBLIC 1e77d 0 __crt_stdio_output::write_multiple_characters<__crt_stdio_output::string_output_adapter<char>,char>(__crt_stdio_output::string_output_adapter<char> const &,char,int,int * const)
PUBLIC 1e7b4 0 __crt_stdio_output::write_multiple_characters<__crt_stdio_output::string_output_adapter<wchar_t>,char>(__crt_stdio_output::string_output_adapter<wchar_t> const &,char,int,int * const)
FUNC 1e7f1 28 0 <lambda_0be4ab1c2a6918fda4e39227d83ea893>::<lambda_0be4ab1c2a6918fda4e39227d83ea893>
FUNC 1e823 12 0 <lambda_18d67e1eeb4dde13899af949c649d933>::<lambda_18d67e1eeb4dde13899af949c649d933>
FUNC 1e839 12 0 <lambda_1c412e3457517a614fb7d0c137686c95>::<lambda_1c412e3457517a614fb7d0c137686c95>
FUNC 1e84f 12 0 <lambda_3cfd252a7c5e244e8f20fc56fe35ebe9>::<lambda_3cfd252a7c5e244e8f20fc56fe35ebe9>
FUNC 1e865 12 0 <lambda_5a3ed3da325c8ea037a470278c0f2d16>::<lambda_5a3ed3da325c8ea037a470278c0f2d16>
FUNC 1e87b 12 0 <lambda_5d912c5eb12d68f7685796d855ab8da6>::<lambda_5d912c5eb12d68f7685796d855ab8da6>
FUNC 1e891 28 0 <lambda_81587a929b95143618da2bd798ca9df2>::<lambda_81587a929b95143618da2bd798ca9df2>
FUNC 1e8c3 12 0 <lambda_8f55a0afecd2292d47fde3ce68e72492>::<lambda_8f55a0afecd2292d47fde3ce68e72492>
FUNC 1e8d9 12 0 <lambda_9b2bd5c6bb91c5c032542faa5c3cb611>::<lambda_9b2bd5c6bb91c5c032542faa5c3cb611>
FUNC 1e8ef 28 0 <lambda_9dc9bc4853282e051506c0cc602abcf3>::<lambda_9dc9bc4853282e051506c0cc602abcf3>
FUNC 1e921 28 0 <lambda_b09925f738b1434f525bf50d3162636f>::<lambda_b09925f738b1434f525bf50d3162636f>
FUNC 1e953 12 0 <lambda_ba8264b40644a42074cedf043e7aa388>::<lambda_ba8264b40644a42074cedf043e7aa388>
FUNC 1e969 28 0 <lambda_be68057ced330f874c40fe9612235e36>::<lambda_be68057ced330f874c40fe9612235e36>
FUNC 1e99b 12 0 <lambda_bfd63e08e93a545639db6d324cf10d1a>::<lambda_bfd63e08e93a545639db6d324cf10d1a>
FUNC 1e9b1 12 0 <lambda_c29ee0499b841886b80d843682cc403a>::<lambda_c29ee0499b841886b80d843682cc403a>
FUNC 1e9c7 12 0 <lambda_cae121c7667f229345c68b3f32b19755>::<lambda_cae121c7667f229345c68b3f32b19755>
FUNC 1e9dd 28 0 <lambda_d7427dbf72509eba5fa970998bac2a27>::<lambda_d7427dbf72509eba5fa970998bac2a27>
FUNC 1ea0f 12 0 <lambda_dbd837d1c0b7fc6e2d81c287c81c071b>::<lambda_dbd837d1c0b7fc6e2d81c287c81c071b>
PUBLIC 1ea25 0 __crt_stdio_output::common_data<char>::common_data<char>()
PUBLIC 1ea7b 0 __crt_stdio_output::common_data<wchar_t>::common_data<wchar_t>()
PUBLIC 1ead7 0 __crt_stdio_output::output_adapter_data<char,__crt_stdio_output::stream_output_adapter<char> >::output_adapter_data<char,__crt_stdio_output::stream_output_adapter<char> >(__crt_stdio_output::stream_output_adapter<char> const &,unsigned __int64,char const * const,__crt_locale_pointers * const,char * const)
PUBLIC 1eb22 0 __crt_stdio_output::output_adapter_data<char,__crt_stdio_output::string_output_adapter<char> >::output_adapter_data<char,__crt_stdio_output::string_output_adapter<char> >(__crt_stdio_output::string_output_adapter<char> const &,unsigned __int64,char const * const,__crt_locale_pointers * const,char * const)
PUBLIC 1eb6d 0 __crt_stdio_output::output_adapter_data<wchar_t,__crt_stdio_output::stream_output_adapter<wchar_t> >::output_adapter_data<wchar_t,__crt_stdio_output::stream_output_adapter<wchar_t> >(__crt_stdio_output::stream_output_adapter<wchar_t> const &,unsigned __int64,wchar_t const * const,__crt_locale_pointers * const,char * const)
PUBLIC 1ebb8 0 __crt_stdio_output::output_adapter_data<wchar_t,__crt_stdio_output::string_output_adapter<wchar_t> >::output_adapter_data<wchar_t,__crt_stdio_output::string_output_adapter<wchar_t> >(__crt_stdio_output::string_output_adapter<wchar_t> const &,unsigned __int64,wchar_t const * const,__crt_locale_pointers * const,char * const)
PUBLIC 1ec03 0 __crt_stdio_output::output_processor<char,__crt_stdio_output::stream_output_adapter<char>,__crt_stdio_output::format_validation_base<char,__crt_stdio_output::stream_output_adapter<char> > >::output_processor<char,__crt_stdio_output::stream_output_adapter<char>,__crt_stdio_output::format_validation_base<char,__crt_stdio_output::stream_output_adapter<char> > >(__crt_stdio_output::stream_output_adapter<char> const &,unsigned __int64,char const * const,__crt_locale_pointers * const,char * const)
PUBLIC 1ec3b 0 __crt_stdio_output::output_processor<char,__crt_stdio_output::stream_output_adapter<char>,__crt_stdio_output::positional_parameter_base<char,__crt_stdio_output::stream_output_adapter<char> > >::output_processor<char,__crt_stdio_output::stream_output_adapter<char>,__crt_stdio_output::positional_parameter_base<char,__crt_stdio_output::stream_output_adapter<char> > >(__crt_stdio_output::stream_output_adapter<char> const &,unsigned __int64,char const * const,__crt_locale_pointers * const,char * const)
PUBLIC 1ec6b 0 __crt_stdio_output::output_processor<char,__crt_stdio_output::stream_output_adapter<char>,__crt_stdio_output::standard_base<char,__crt_stdio_output::stream_output_adapter<char> > >::output_processor<char,__crt_stdio_output::stream_output_adapter<char>,__crt_stdio_output::standard_base<char,__crt_stdio_output::stream_output_adapter<char> > >(__crt_stdio_output::stream_output_adapter<char> const &,unsigned __int64,char const * const,__crt_locale_pointers * const,char * const)
PUBLIC 1eca3 0 __crt_stdio_output::output_processor<char,__crt_stdio_output::string_output_adapter<char>,__crt_stdio_output::format_validation_base<char,__crt_stdio_output::string_output_adapter<char> > >::output_processor<char,__crt_stdio_output::string_output_adapter<char>,__crt_stdio_output::format_validation_base<char,__crt_stdio_output::string_output_adapter<char> > >(__crt_stdio_output::string_output_adapter<char> const &,unsigned __int64,char const * const,__crt_locale_pointers * const,char * const)
PUBLIC 1ecdb 0 __crt_stdio_output::output_processor<char,__crt_stdio_output::string_output_adapter<char>,__crt_stdio_output::positional_parameter_base<char,__crt_stdio_output::string_output_adapter<char> > >::output_processor<char,__crt_stdio_output::string_output_adapter<char>,__crt_stdio_output::positional_parameter_base<char,__crt_stdio_output::string_output_adapter<char> > >(__crt_stdio_output::string_output_adapter<char> const &,unsigned __int64,char const * const,__crt_locale_pointers * const,char * const)
PUBLIC 1ed0b 0 __crt_stdio_output::output_processor<char,__crt_stdio_output::string_output_adapter<char>,__crt_stdio_output::standard_base<char,__crt_stdio_output::string_output_adapter<char> > >::output_processor<char,__crt_stdio_output::string_output_adapter<char>,__crt_stdio_output::standard_base<char,__crt_stdio_output::string_output_adapter<char> > >(__crt_stdio_output::string_output_adapter<char> const &,unsigned __int64,char const * const,__crt_locale_pointers * const,char * const)
PUBLIC 1ed43 0 __crt_stdio_output::output_processor<wchar_t,__crt_stdio_output::stream_output_adapter<wchar_t>,__crt_stdio_output::format_validation_base<wchar_t,__crt_stdio_output::stream_output_adapter<wchar_t> > >::output_processor<wchar_t,__crt_stdio_output::stream_output_adapter<wchar_t>,__crt_stdio_output::format_validation_base<wchar_t,__crt_stdio_output::stream_output_adapter<wchar_t> > >(__crt_stdio_output::stream_output_adapter<wchar_t> const &,unsigned __int64,wchar_t const * const,__crt_locale_pointers * const,char * const)
PUBLIC 1ed7b 0 __crt_stdio_output::output_processor<wchar_t,__crt_stdio_output::stream_output_adapter<wchar_t>,__crt_stdio_output::positional_parameter_base<wchar_t,__crt_stdio_output::stream_output_adapter<wchar_t> > >::output_processor<wchar_t,__crt_stdio_output::stream_output_adapter<wchar_t>,__crt_stdio_output::positional_parameter_base<wchar_t,__crt_stdio_output::stream_output_adapter<wchar_t> > >(__crt_stdio_output::stream_output_adapter<wchar_t> const &,unsigned __int64,wchar_t const * const,__crt_locale_pointers * const,char * const)
PUBLIC 1edab 0 __crt_stdio_output::output_processor<wchar_t,__crt_stdio_output::stream_output_adapter<wchar_t>,__crt_stdio_output::standard_base<wchar_t,__crt_stdio_output::stream_output_adapter<wchar_t> > >::output_processor<wchar_t,__crt_stdio_output::stream_output_adapter<wchar_t>,__crt_stdio_output::standard_base<wchar_t,__crt_stdio_output::stream_output_adapter<wchar_t> > >(__crt_stdio_output::stream_output_adapter<wchar_t> const &,unsigned __int64,wchar_t const * const,__crt_locale_pointers * const,char * const)
PUBLIC 1ede3 0 __crt_stdio_output::output_processor<wchar_t,__crt_stdio_output::string_output_adapter<wchar_t>,__crt_stdio_output::format_validation_base<wchar_t,__crt_stdio_output::string_output_adapter<wchar_t> > >::output_processor<wchar_t,__crt_stdio_output::string_output_adapter<wchar_t>,__crt_stdio_output::format_validation_base<wchar_t,__crt_stdio_output::string_output_adapter<wchar_t> > >(__crt_stdio_output::string_output_adapter<wchar_t> const &,unsigned __int64,wchar_t const * const,__crt_locale_pointers * const,char * const)
PUBLIC 1ee1b 0 __crt_stdio_output::output_processor<wchar_t,__crt_stdio_output::string_output_adapter<wchar_t>,__crt_stdio_output::positional_parameter_base<wchar_t,__crt_stdio_output::string_output_adapter<wchar_t> > >::output_processor<wchar_t,__crt_stdio_output::string_output_adapter<wchar_t>,__crt_stdio_output::positional_parameter_base<wchar_t,__crt_stdio_output::string_output_adapter<wchar_t> > >(__crt_stdio_output::string_output_adapter<wchar_t> const &,unsigned __int64,wchar_t const * const,__crt_locale_pointers * const,char * const)
PUBLIC 1ee4b 0 __crt_stdio_output::output_processor<wchar_t,__crt_stdio_output::string_output_adapter<wchar_t>,__crt_stdio_output::standard_base<wchar_t,__crt_stdio_output::string_output_adapter<wchar_t> > >::output_processor<wchar_t,__crt_stdio_output::string_output_adapter<wchar_t>,__crt_stdio_output::standard_base<wchar_t,__crt_stdio_output::string_output_adapter<wchar_t> > >(__crt_stdio_output::string_output_adapter<wchar_t> const &,unsigned __int64,wchar_t const * const,__crt_locale_pointers * const,char * const)
PUBLIC 1ee83 0 __crt_stdio_output::stream_output_adapter<char>::stream_output_adapter<char>(_iobuf * const)
PUBLIC 1ee97 0 __crt_stdio_output::stream_output_adapter<wchar_t>::stream_output_adapter<wchar_t>(_iobuf * const)
PUBLIC 1eeab 0 __crt_stdio_output::string_output_adapter<char>::string_output_adapter<char>(__crt_stdio_output::string_output_adapter_context<char> * const)
PUBLIC 1eebf 0 __crt_stdio_output::string_output_adapter<wchar_t>::string_output_adapter<wchar_t>(__crt_stdio_output::string_output_adapter_context<wchar_t> * const)
PUBLIC 1eed3 0 _LocaleUpdate::_LocaleUpdate(__crt_locale_pointers * const)
PUBLIC 1ef76 0 __acrt_stdio_temporary_buffering_guard::__acrt_stdio_temporary_buffering_guard(_iobuf * const)
PUBLIC 1ef9b 0 __crt_deferred_errno_cache::__crt_deferred_errno_cache()
PUBLIC 1efa1 0 __crt_errno_guard::__crt_errno_guard(int * const)
PUBLIC 1efbf 0 __crt_stdio_stream::__crt_stdio_stream(_iobuf * const)
PUBLIC 1efd3 0 __crt_stdio_output::formatting_buffer::formatting_buffer()
PUBLIC 1efe8 0 __crt_stdio_output::common_data<char>::~common_data<char>()
PUBLIC 1eff2 0 __crt_stdio_output::common_data<wchar_t>::~common_data<wchar_t>()
PUBLIC 1effc 0 __crt_stdio_output::format_validation_base<char,__crt_stdio_output::stream_output_adapter<char> >::~format_validation_base<char,__crt_stdio_output::stream_output_adapter<char> >()
PUBLIC 1f006 0 __crt_stdio_output::format_validation_base<char,__crt_stdio_output::string_output_adapter<char> >::~format_validation_base<char,__crt_stdio_output::string_output_adapter<char> >()
PUBLIC 1f010 0 __crt_stdio_output::format_validation_base<wchar_t,__crt_stdio_output::stream_output_adapter<wchar_t> >::~format_validation_base<wchar_t,__crt_stdio_output::stream_output_adapter<wchar_t> >()
PUBLIC 1f01a 0 __crt_stdio_output::format_validation_base<wchar_t,__crt_stdio_output::string_output_adapter<wchar_t> >::~format_validation_base<wchar_t,__crt_stdio_output::string_output_adapter<wchar_t> >()
PUBLIC 1f024 0 __crt_stdio_output::output_adapter_data<char,__crt_stdio_output::stream_output_adapter<char> >::~output_adapter_data<char,__crt_stdio_output::stream_output_adapter<char> >()
PUBLIC 1f02e 0 __crt_stdio_output::output_adapter_data<char,__crt_stdio_output::string_output_adapter<char> >::~output_adapter_data<char,__crt_stdio_output::string_output_adapter<char> >()
PUBLIC 1f038 0 __crt_stdio_output::output_adapter_data<wchar_t,__crt_stdio_output::stream_output_adapter<wchar_t> >::~output_adapter_data<wchar_t,__crt_stdio_output::stream_output_adapter<wchar_t> >()
PUBLIC 1f042 0 __crt_stdio_output::output_adapter_data<wchar_t,__crt_stdio_output::string_output_adapter<wchar_t> >::~output_adapter_data<wchar_t,__crt_stdio_output::string_output_adapter<wchar_t> >()
PUBLIC 1f04c 0 __crt_stdio_output::output_processor<char,__crt_stdio_output::stream_output_adapter<char>,__crt_stdio_output::format_validation_base<char,__crt_stdio_output::stream_output_adapter<char> > >::~output_processor<char,__crt_stdio_output::stream_output_adapter<char>,__crt_stdio_output::format_validation_base<char,__crt_stdio_output::stream_output_adapter<char> > >()
PUBLIC 1f056 0 __crt_stdio_output::output_processor<char,__crt_stdio_output::stream_output_adapter<char>,__crt_stdio_output::positional_parameter_base<char,__crt_stdio_output::stream_output_adapter<char> > >::~output_processor<char,__crt_stdio_output::stream_output_adapter<char>,__crt_stdio_output::positional_parameter_base<char,__crt_stdio_output::stream_output_adapter<char> > >()
PUBLIC 1f060 0 __crt_stdio_output::output_processor<char,__crt_stdio_output::stream_output_adapter<char>,__crt_stdio_output::standard_base<char,__crt_stdio_output::stream_output_adapter<char> > >::~output_processor<char,__crt_stdio_output::stream_output_adapter<char>,__crt_stdio_output::standard_base<char,__crt_stdio_output::stream_output_adapter<char> > >()
PUBLIC 1f06a 0 __crt_stdio_output::output_processor<char,__crt_stdio_output::string_output_adapter<char>,__crt_stdio_output::format_validation_base<char,__crt_stdio_output::string_output_adapter<char> > >::~output_processor<char,__crt_stdio_output::string_output_adapter<char>,__crt_stdio_output::format_validation_base<char,__crt_stdio_output::string_output_adapter<char> > >()
PUBLIC 1f074 0 __crt_stdio_output::output_processor<char,__crt_stdio_output::string_output_adapter<char>,__crt_stdio_output::positional_parameter_base<char,__crt_stdio_output::string_output_adapter<char> > >::~output_processor<char,__crt_stdio_output::string_output_adapter<char>,__crt_stdio_output::positional_parameter_base<char,__crt_stdio_output::string_output_adapter<char> > >()
PUBLIC 1f07e 0 __crt_stdio_output::output_processor<char,__crt_stdio_output::string_output_adapter<char>,__crt_stdio_output::standard_base<char,__crt_stdio_output::string_output_adapter<char> > >::~output_processor<char,__crt_stdio_output::string_output_adapter<char>,__crt_stdio_output::standard_base<char,__crt_stdio_output::string_output_adapter<char> > >()
PUBLIC 1f088 0 __crt_stdio_output::output_processor<wchar_t,__crt_stdio_output::stream_output_adapter<wchar_t>,__crt_stdio_output::format_validation_base<wchar_t,__crt_stdio_output::stream_output_adapter<wchar_t> > >::~output_processor<wchar_t,__crt_stdio_output::stream_output_adapter<wchar_t>,__crt_stdio_output::format_validation_base<wchar_t,__crt_stdio_output::stream_output_adapter<wchar_t> > >()
PUBLIC 1f092 0 __crt_stdio_output::output_processor<wchar_t,__crt_stdio_output::stream_output_adapter<wchar_t>,__crt_stdio_output::positional_parameter_base<wchar_t,__crt_stdio_output::stream_output_adapter<wchar_t> > >::~output_processor<wchar_t,__crt_stdio_output::stream_output_adapter<wchar_t>,__crt_stdio_output::positional_parameter_base<wchar_t,__crt_stdio_output::stream_output_adapter<wchar_t> > >()
PUBLIC 1f09c 0 __crt_stdio_output::output_processor<wchar_t,__crt_stdio_output::stream_output_adapter<wchar_t>,__crt_stdio_output::standard_base<wchar_t,__crt_stdio_output::stream_output_adapter<wchar_t> > >::~output_processor<wchar_t,__crt_stdio_output::stream_output_adapter<wchar_t>,__crt_stdio_output::standard_base<wchar_t,__crt_stdio_output::stream_output_adapter<wchar_t> > >()
PUBLIC 1f0a6 0 __crt_stdio_output::output_processor<wchar_t,__crt_stdio_output::string_output_adapter<wchar_t>,__crt_stdio_output::format_validation_base<wchar_t,__crt_stdio_output::string_output_adapter<wchar_t> > >::~output_processor<wchar_t,__crt_stdio_output::string_output_adapter<wchar_t>,__crt_stdio_output::format_validation_base<wchar_t,__crt_stdio_output::string_output_adapter<wchar_t> > >()
PUBLIC 1f0b0 0 __crt_stdio_output::output_processor<wchar_t,__crt_stdio_output::string_output_adapter<wchar_t>,__crt_stdio_output::positional_parameter_base<wchar_t,__crt_stdio_output::string_output_adapter<wchar_t> > >::~output_processor<wchar_t,__crt_stdio_output::string_output_adapter<wchar_t>,__crt_stdio_output::positional_parameter_base<wchar_t,__crt_stdio_output::string_output_adapter<wchar_t> > >()
PUBLIC 1f0ba 0 __crt_stdio_output::output_processor<wchar_t,__crt_stdio_output::string_output_adapter<wchar_t>,__crt_stdio_output::standard_base<wchar_t,__crt_stdio_output::string_output_adapter<wchar_t> > >::~output_processor<wchar_t,__crt_stdio_output::string_output_adapter<wchar_t>,__crt_stdio_output::standard_base<wchar_t,__crt_stdio_output::string_output_adapter<wchar_t> > >()
PUBLIC 1f0c4 0 __crt_stdio_output::positional_parameter_base<char,__crt_stdio_output::stream_output_adapter<char> >::~positional_parameter_base<char,__crt_stdio_output::stream_output_adapter<char> >()
PUBLIC 1f0ce 0 __crt_stdio_output::positional_parameter_base<char,__crt_stdio_output::string_output_adapter<char> >::~positional_parameter_base<char,__crt_stdio_output::string_output_adapter<char> >()
PUBLIC 1f0d8 0 __crt_stdio_output::positional_parameter_base<wchar_t,__crt_stdio_output::stream_output_adapter<wchar_t> >::~positional_parameter_base<wchar_t,__crt_stdio_output::stream_output_adapter<wchar_t> >()
PUBLIC 1f0e2 0 __crt_stdio_output::positional_parameter_base<wchar_t,__crt_stdio_output::string_output_adapter<wchar_t> >::~positional_parameter_base<wchar_t,__crt_stdio_output::string_output_adapter<wchar_t> >()
PUBLIC 1f0ec 0 __crt_stdio_output::standard_base<char,__crt_stdio_output::stream_output_adapter<char> >::~standard_base<char,__crt_stdio_output::stream_output_adapter<char> >()
PUBLIC 1f0f6 0 __crt_stdio_output::standard_base<char,__crt_stdio_output::string_output_adapter<char> >::~standard_base<char,__crt_stdio_output::string_output_adapter<char> >()
PUBLIC 1f100 0 __crt_stdio_output::standard_base<wchar_t,__crt_stdio_output::stream_output_adapter<wchar_t> >::~standard_base<wchar_t,__crt_stdio_output::stream_output_adapter<wchar_t> >()
PUBLIC 1f10a 0 __crt_stdio_output::standard_base<wchar_t,__crt_stdio_output::string_output_adapter<wchar_t> >::~standard_base<wchar_t,__crt_stdio_output::string_output_adapter<wchar_t> >()
PUBLIC 1f114 0 _LocaleUpdate::~_LocaleUpdate()
PUBLIC 1f128 0 __acrt_stdio_temporary_buffering_guard::~__acrt_stdio_temporary_buffering_guard()
PUBLIC 1f13a 0 __crt_errno_guard::~__crt_errno_guard()
PUBLIC 1f14f 0 __crt_stdio_output::formatting_buffer::~formatting_buffer()
PUBLIC 1f16f 0 __crt_unique_heap_ptr<char,__crt_internal_free_policy>::operator=(__crt_unique_heap_ptr<char,__crt_internal_free_policy> &&)
PUBLIC 1f19c 0 __crt_stdio_stream::operator->()
FUNC 1f19f bf 0 <lambda_0be4ab1c2a6918fda4e39227d83ea893>::operator()
FUNC 1f28d 9 0 <lambda_18d67e1eeb4dde13899af949c649d933>::operator()
FUNC 1f298 9 0 <lambda_1c412e3457517a614fb7d0c137686c95>::operator()
FUNC 1f2a3 9 0 <lambda_3cfd252a7c5e244e8f20fc56fe35ebe9>::operator()
FUNC 1f2ae 9 0 <lambda_5a3ed3da325c8ea037a470278c0f2d16>::operator()
FUNC 1f2b9 9 0 <lambda_5d912c5eb12d68f7685796d855ab8da6>::operator()
FUNC 1f2c4 bf 0 <lambda_81587a929b95143618da2bd798ca9df2>::operator()
FUNC 1f3b2 9 0 <lambda_8f55a0afecd2292d47fde3ce68e72492>::operator()
FUNC 1f3bd 9 0 <lambda_9b2bd5c6bb91c5c032542faa5c3cb611>::operator()
FUNC 1f3c8 f4 0 <lambda_9dc9bc4853282e051506c0cc602abcf3>::operator()
FUNC 1f4f9 f4 0 <lambda_b09925f738b1434f525bf50d3162636f>::operator()
FUNC 1f62a 9 0 <lambda_ba8264b40644a42074cedf043e7aa388>::operator()
FUNC 1f635 bf 0 <lambda_be68057ced330f874c40fe9612235e36>::operator()
FUNC 1f723 9 0 <lambda_bfd63e08e93a545639db6d324cf10d1a>::operator()
FUNC 1f72e 9 0 <lambda_c29ee0499b841886b80d843682cc403a>::operator()
FUNC 1f739 9 0 <lambda_cae121c7667f229345c68b3f32b19755>::operator()
FUNC 1f744 bf 0 <lambda_d7427dbf72509eba5fa970998bac2a27>::operator()
FUNC 1f832 9 0 <lambda_dbd837d1c0b7fc6e2d81c287c81c071b>::operator()
PUBLIC 1f83d 0 _LocaleUpdate::GetLocaleT()
PUBLIC 1f841 0 __crt_stdio_output::output_processor<char,__crt_stdio_output::stream_output_adapter<char>,__crt_stdio_output::format_validation_base<char,__crt_stdio_output::stream_output_adapter<char> > >::adjust_hexit(int,bool)
PUBLIC 1f85a 0 __crt_stdio_output::output_processor<char,__crt_stdio_output::stream_output_adapter<char>,__crt_stdio_output::positional_parameter_base<char,__crt_stdio_output::stream_output_adapter<char> > >::adjust_hexit(int,bool)
PUBLIC 1f873 0 __crt_stdio_output::output_processor<char,__crt_stdio_output::stream_output_adapter<char>,__crt_stdio_output::standard_base<char,__crt_stdio_output::stream_output_adapter<char> > >::adjust_hexit(int,bool)
PUBLIC 1f88c 0 __crt_stdio_output::output_processor<char,__crt_stdio_output::string_output_adapter<char>,__crt_stdio_output::format_validation_base<char,__crt_stdio_output::string_output_adapter<char> > >::adjust_hexit(int,bool)
PUBLIC 1f8a5 0 __crt_stdio_output::output_processor<char,__crt_stdio_output::string_output_adapter<char>,__crt_stdio_output::positional_parameter_base<char,__crt_stdio_output::string_output_adapter<char> > >::adjust_hexit(int,bool)
PUBLIC 1f8be 0 __crt_stdio_output::output_processor<char,__crt_stdio_output::string_output_adapter<char>,__crt_stdio_output::standard_base<char,__crt_stdio_output::string_output_adapter<char> > >::adjust_hexit(int,bool)
PUBLIC 1f8d7 0 __crt_stdio_output::output_processor<wchar_t,__crt_stdio_output::stream_output_adapter<wchar_t>,__crt_stdio_output::format_validation_base<wchar_t,__crt_stdio_output::stream_output_adapter<wchar_t> > >::adjust_hexit(int,bool)
PUBLIC 1f8f0 0 __crt_stdio_output::output_processor<wchar_t,__crt_stdio_output::stream_output_adapter<wchar_t>,__crt_stdio_output::positional_parameter_base<wchar_t,__crt_stdio_output::stream_output_adapter<wchar_t> > >::adjust_hexit(int,bool)
PUBLIC 1f909 0 __crt_stdio_output::output_processor<wchar_t,__crt_stdio_output::stream_output_adapter<wchar_t>,__crt_stdio_output::standard_base<wchar_t,__crt_stdio_output::stream_output_adapter<wchar_t> > >::adjust_hexit(int,bool)
PUBLIC 1f922 0 __crt_stdio_output::output_processor<wchar_t,__crt_stdio_output::string_output_adapter<wchar_t>,__crt_stdio_output::format_validation_base<wchar_t,__crt_stdio_output::string_output_adapter<wchar_t> > >::adjust_hexit(int,bool)
PUBLIC 1f93b 0 __crt_stdio_output::output_processor<wchar_t,__crt_stdio_output::string_output_adapter<wchar_t>,__crt_stdio_output::positional_parameter_base<wchar_t,__crt_stdio_output::string_output_adapter<wchar_t> > >::adjust_hexit(int,bool)
PUBLIC 1f954 0 __crt_stdio_output::output_processor<wchar_t,__crt_stdio_output::string_output_adapter<wchar_t>,__crt_stdio_output::standard_base<wchar_t,__crt_stdio_output::string_output_adapter<wchar_t> > >::adjust_hexit(int,bool)
PUBLIC 1f96d 0 __crt_stdio_output::positional_parameter_base<char,__crt_stdio_output::stream_output_adapter<char> >::advance_to_next_pass()
PUBLIC 1f9cc 0 __crt_stdio_output::positional_parameter_base<char,__crt_stdio_output::string_output_adapter<char> >::advance_to_next_pass()
PUBLIC 1fa2b 0 __crt_stdio_output::positional_parameter_base<wchar_t,__crt_stdio_output::stream_output_adapter<wchar_t> >::advance_to_next_pass()
PUBLIC 1fa8a 0 __crt_stdio_output::positional_parameter_base<wchar_t,__crt_stdio_output::string_output_adapter<wchar_t> >::advance_to_next_pass()
PUBLIC 1fae9 0 __crt_stdio_output::standard_base<char,__crt_stdio_output::stream_output_adapter<char> >::advance_to_next_pass()
PUBLIC 1fafe 0 __crt_stdio_output::standard_base<char,__crt_stdio_output::string_output_adapter<char> >::advance_to_next_pass()
PUBLIC 1fb13 0 __crt_stdio_output::standard_base<wchar_t,__crt_stdio_output::stream_output_adapter<wchar_t> >::advance_to_next_pass()
PUBLIC 1fb28 0 __crt_stdio_output::standard_base<wchar_t,__crt_stdio_output::string_output_adapter<wchar_t> >::advance_to_next_pass()
PUBLIC 1fb3d 0 __crt_stdio_output::crop_zeroes(char *,__crt_locale_pointers * const)
PUBLIC 1fbb5 0 __crt_stdio_output::output_processor<char,__crt_stdio_output::stream_output_adapter<char>,__crt_stdio_output::format_validation_base<char,__crt_stdio_output::stream_output_adapter<char> > >::find_next_state(char,__crt_stdio_output::state)
PUBLIC 1fc05 0 __crt_stdio_output::output_processor<char,__crt_stdio_output::stream_output_adapter<char>,__crt_stdio_output::positional_parameter_base<char,__crt_stdio_output::stream_output_adapter<char> > >::find_next_state(char,__crt_stdio_output::state)
PUBLIC 1fc55 0 __crt_stdio_output::output_processor<char,__crt_stdio_output::stream_output_adapter<char>,__crt_stdio_output::standard_base<char,__crt_stdio_output::stream_output_adapter<char> > >::find_next_state(char,__crt_stdio_output::state)
PUBLIC 1fca1 0 __crt_stdio_output::output_processor<char,__crt_stdio_output::string_output_adapter<char>,__crt_stdio_output::format_validation_base<char,__crt_stdio_output::string_output_adapter<char> > >::find_next_state(char,__crt_stdio_output::state)
PUBLIC 1fcf1 0 __crt_stdio_output::output_processor<char,__crt_stdio_output::string_output_adapter<char>,__crt_stdio_output::positional_parameter_base<char,__crt_stdio_output::string_output_adapter<char> > >::find_next_state(char,__crt_stdio_output::state)
PUBLIC 1fd41 0 __crt_stdio_output::output_processor<char,__crt_stdio_output::string_output_adapter<char>,__crt_stdio_output::standard_base<char,__crt_stdio_output::string_output_adapter<char> > >::find_next_state(char,__crt_stdio_output::state)
PUBLIC 1fd8d 0 __crt_stdio_output::output_processor<wchar_t,__crt_stdio_output::stream_output_adapter<wchar_t>,__crt_stdio_output::format_validation_base<wchar_t,__crt_stdio_output::stream_output_adapter<wchar_t> > >::find_next_state(wchar_t,__crt_stdio_output::state)
PUBLIC 1fddf 0 __crt_stdio_output::output_processor<wchar_t,__crt_stdio_output::stream_output_adapter<wchar_t>,__crt_stdio_output::positional_parameter_base<wchar_t,__crt_stdio_output::stream_output_adapter<wchar_t> > >::find_next_state(wchar_t,__crt_stdio_output::state)
PUBLIC 1fe31 0 __crt_stdio_output::output_processor<wchar_t,__crt_stdio_output::stream_output_adapter<wchar_t>,__crt_stdio_output::standard_base<wchar_t,__crt_stdio_output::stream_output_adapter<wchar_t> > >::find_next_state(wchar_t,__crt_stdio_output::state)
PUBLIC 1fe7f 0 __crt_stdio_output::output_processor<wchar_t,__crt_stdio_output::string_output_adapter<wchar_t>,__crt_stdio_output::format_validation_base<wchar_t,__crt_stdio_output::string_output_adapter<wchar_t> > >::find_next_state(wchar_t,__crt_stdio_output::state)
PUBLIC 1fed1 0 __crt_stdio_output::output_processor<wchar_t,__crt_stdio_output::string_output_adapter<wchar_t>,__crt_stdio_output::positional_parameter_base<wchar_t,__crt_stdio_output::string_output_adapter<wchar_t> > >::find_next_state(wchar_t,__crt_stdio_output::state)
PUBLIC 1ff23 0 __crt_stdio_output::output_processor<wchar_t,__crt_stdio_output::string_output_adapter<wchar_t>,__crt_stdio_output::standard_base<wchar_t,__crt_stdio_output::string_output_adapter<wchar_t> > >::find_next_state(wchar_t,__crt_stdio_output::state)
PUBLIC 1ff71 0 __crt_stdio_output::force_decimal_point(char *,__crt_locale_pointers * const)
PUBLIC 1ffe4 0 __crt_deferred_errno_cache::get()
PUBLIC 1fffd 0 __crt_stdio_stream::get_flags()
PUBLIC 20004 0 __crt_stdio_output::positional_parameter_base<char,__crt_stdio_output::stream_output_adapter<char> >::get_parameter_type(short)
PUBLIC 20008 0 __crt_stdio_output::positional_parameter_base<char,__crt_stdio_output::stream_output_adapter<char> >::get_parameter_type(unsigned short)
PUBLIC 2000c 0 __crt_stdio_output::positional_parameter_base<char,__crt_stdio_output::stream_output_adapter<char> >::get_parameter_type(int)
PUBLIC 20010 0 __crt_stdio_output::positional_parameter_base<char,__crt_stdio_output::stream_output_adapter<char> >::get_parameter_type(unsigned int)
PUBLIC 20014 0 __crt_stdio_output::positional_parameter_base<char,__crt_stdio_output::stream_output_adapter<char> >::get_parameter_type(_CRT_DOUBLE)
PUBLIC 20018 0 __crt_stdio_output::positional_parameter_base<char,__crt_stdio_output::stream_output_adapter<char> >::get_parameter_type(__int64)
PUBLIC 2001c 0 __crt_stdio_output::positional_parameter_base<char,__crt_stdio_output::stream_output_adapter<char> >::get_parameter_type(unsigned __int64)
PUBLIC 20020 0 __crt_stdio_output::positional_parameter_base<char,__crt_stdio_output::stream_output_adapter<char> >::get_parameter_type(wchar_t)
PUBLIC 20024 0 __crt_stdio_output::positional_parameter_base<char,__crt_stdio_output::string_output_adapter<char> >::get_parameter_type(short)
PUBLIC 20028 0 __crt_stdio_output::positional_parameter_base<char,__crt_stdio_output::string_output_adapter<char> >::get_parameter_type(unsigned short)
PUBLIC 2002c 0 __crt_stdio_output::positional_parameter_base<char,__crt_stdio_output::string_output_adapter<char> >::get_parameter_type(int)
PUBLIC 20030 0 __crt_stdio_output::positional_parameter_base<char,__crt_stdio_output::string_output_adapter<char> >::get_parameter_type(unsigned int)
PUBLIC 20034 0 __crt_stdio_output::positional_parameter_base<char,__crt_stdio_output::string_output_adapter<char> >::get_parameter_type(_CRT_DOUBLE)
PUBLIC 20038 0 __crt_stdio_output::positional_parameter_base<char,__crt_stdio_output::string_output_adapter<char> >::get_parameter_type(__int64)
PUBLIC 2003c 0 __crt_stdio_output::positional_parameter_base<char,__crt_stdio_output::string_output_adapter<char> >::get_parameter_type(unsigned __int64)
PUBLIC 20040 0 __crt_stdio_output::positional_parameter_base<char,__crt_stdio_output::string_output_adapter<char> >::get_parameter_type(wchar_t)
PUBLIC 20044 0 __crt_stdio_output::positional_parameter_base<wchar_t,__crt_stdio_output::stream_output_adapter<wchar_t> >::get_parameter_type(short)
PUBLIC 20048 0 __crt_stdio_output::positional_parameter_base<wchar_t,__crt_stdio_output::stream_output_adapter<wchar_t> >::get_parameter_type(unsigned short)
PUBLIC 2004c 0 __crt_stdio_output::positional_parameter_base<wchar_t,__crt_stdio_output::stream_output_adapter<wchar_t> >::get_parameter_type(int)
PUBLIC 20050 0 __crt_stdio_output::positional_parameter_base<wchar_t,__crt_stdio_output::stream_output_adapter<wchar_t> >::get_parameter_type(unsigned int)
PUBLIC 20054 0 __crt_stdio_output::positional_parameter_base<wchar_t,__crt_stdio_output::stream_output_adapter<wchar_t> >::get_parameter_type(_CRT_DOUBLE)
PUBLIC 20058 0 __crt_stdio_output::positional_parameter_base<wchar_t,__crt_stdio_output::stream_output_adapter<wchar_t> >::get_parameter_type(__int64)
PUBLIC 2005c 0 __crt_stdio_output::positional_parameter_base<wchar_t,__crt_stdio_output::stream_output_adapter<wchar_t> >::get_parameter_type(unsigned __int64)
PUBLIC 20060 0 __crt_stdio_output::positional_parameter_base<wchar_t,__crt_stdio_output::stream_output_adapter<wchar_t> >::get_parameter_type(wchar_t)
PUBLIC 20064 0 __crt_stdio_output::positional_parameter_base<wchar_t,__crt_stdio_output::string_output_adapter<wchar_t> >::get_parameter_type(short)
PUBLIC 20068 0 __crt_stdio_output::positional_parameter_base<wchar_t,__crt_stdio_output::string_output_adapter<wchar_t> >::get_parameter_type(unsigned short)
PUBLIC 2006c 0 __crt_stdio_output::positional_parameter_base<wchar_t,__crt_stdio_output::string_output_adapter<wchar_t> >::get_parameter_type(int)
PUBLIC 20070 0 __crt_stdio_output::positional_parameter_base<wchar_t,__crt_stdio_output::string_output_adapter<wchar_t> >::get_parameter_type(unsigned int)
PUBLIC 20074 0 __crt_stdio_output::positional_parameter_base<wchar_t,__crt_stdio_output::string_output_adapter<wchar_t> >::get_parameter_type(_CRT_DOUBLE)
PUBLIC 20078 0 __crt_stdio_output::positional_parameter_base<wchar_t,__crt_stdio_output::string_output_adapter<wchar_t> >::get_parameter_type(__int64)
PUBLIC 2007c 0 __crt_stdio_output::positional_parameter_base<wchar_t,__crt_stdio_output::string_output_adapter<wchar_t> >::get_parameter_type(unsigned __int64)
PUBLIC 20080 0 __crt_stdio_output::positional_parameter_base<wchar_t,__crt_stdio_output::string_output_adapter<wchar_t> >::get_parameter_type(wchar_t)
PUBLIC 20084 0 __crt_stdio_output::output_processor<char,__crt_stdio_output::stream_output_adapter<char>,__crt_stdio_output::format_validation_base<char,__crt_stdio_output::stream_output_adapter<char> > >::has_flag(unsigned int)
PUBLIC 2009a 0 __crt_stdio_output::output_processor<char,__crt_stdio_output::stream_output_adapter<char>,__crt_stdio_output::positional_parameter_base<char,__crt_stdio_output::stream_output_adapter<char> > >::has_flag(unsigned int)
PUBLIC 200b0 0 __crt_stdio_output::output_processor<char,__crt_stdio_output::stream_output_adapter<char>,__crt_stdio_output::standard_base<char,__crt_stdio_output::stream_output_adapter<char> > >::has_flag(unsigned int)
PUBLIC 200c6 0 __crt_stdio_output::output_processor<char,__crt_stdio_output::string_output_adapter<char>,__crt_stdio_output::format_validation_base<char,__crt_stdio_output::string_output_adapter<char> > >::has_flag(unsigned int)
PUBLIC 200dc 0 __crt_stdio_output::output_processor<char,__crt_stdio_output::string_output_adapter<char>,__crt_stdio_output::positional_parameter_base<char,__crt_stdio_output::string_output_adapter<char> > >::has_flag(unsigned int)
PUBLIC 200f2 0 __crt_stdio_output::output_processor<char,__crt_stdio_output::string_output_adapter<char>,__crt_stdio_output::standard_base<char,__crt_stdio_output::string_output_adapter<char> > >::has_flag(unsigned int)
PUBLIC 20108 0 __crt_stdio_output::output_processor<wchar_t,__crt_stdio_output::stream_output_adapter<wchar_t>,__crt_stdio_output::format_validation_base<wchar_t,__crt_stdio_output::stream_output_adapter<wchar_t> > >::has_flag(unsigned int)
PUBLIC 2011e 0 __crt_stdio_output::output_processor<wchar_t,__crt_stdio_output::stream_output_adapter<wchar_t>,__crt_stdio_output::positional_parameter_base<wchar_t,__crt_stdio_output::stream_output_adapter<wchar_t> > >::has_flag(unsigned int)
PUBLIC 20134 0 __crt_stdio_output::output_processor<wchar_t,__crt_stdio_output::stream_output_adapter<wchar_t>,__crt_stdio_output::standard_base<wchar_t,__crt_stdio_output::stream_output_adapter<wchar_t> > >::has_flag(unsigned int)
PUBLIC 2014a 0 __crt_stdio_output::output_processor<wchar_t,__crt_stdio_output::string_output_adapter<wchar_t>,__crt_stdio_output::format_validation_base<wchar_t,__crt_stdio_output::string_output_adapter<wchar_t> > >::has_flag(unsigned int)
PUBLIC 20160 0 __crt_stdio_output::output_processor<wchar_t,__crt_stdio_output::string_output_adapter<wchar_t>,__crt_stdio_output::positional_parameter_base<wchar_t,__crt_stdio_output::string_output_adapter<wchar_t> > >::has_flag(unsigned int)
PUBLIC 20176 0 __crt_stdio_output::output_processor<wchar_t,__crt_stdio_output::string_output_adapter<wchar_t>,__crt_stdio_output::standard_base<wchar_t,__crt_stdio_output::string_output_adapter<wchar_t> > >::has_flag(unsigned int)
PUBLIC 2018c 0 __crt_stdio_output::positional_parameter_base<char,__crt_stdio_output::stream_output_adapter<char> >::is_positional_parameter_reappearance_consistent(__crt_stdio_output::positional_parameter_base<char,__crt_stdio_output::stream_output_adapter<char> >::parameter_data const &,__crt_stdio_output::positional_parameter_base<char,__crt_stdio_output::stream_output_adapter<char> >::parameter_type,char,__crt_stdio_output::length_modifier)
PUBLIC 202ea 0 __crt_stdio_output::positional_parameter_base<char,__crt_stdio_output::string_output_adapter<char> >::is_positional_parameter_reappearance_consistent(__crt_stdio_output::positional_parameter_base<char,__crt_stdio_output::string_output_adapter<char> >::parameter_data const &,__crt_stdio_output::positional_parameter_base<char,__crt_stdio_output::string_output_adapter<char> >::parameter_type,char,__crt_stdio_output::length_modifier)
PUBLIC 20448 0 __crt_stdio_output::positional_parameter_base<wchar_t,__crt_stdio_output::stream_output_adapter<wchar_t> >::is_positional_parameter_reappearance_consistent(__crt_stdio_output::positional_parameter_base<wchar_t,__crt_stdio_output::stream_output_adapter<wchar_t> >::parameter_data const &,__crt_stdio_output::positional_parameter_base<wchar_t,__crt_stdio_output::stream_output_adapter<wchar_t> >::parameter_type,wchar_t,__crt_stdio_output::length_modifier)
PUBLIC 205a6 0 __crt_stdio_output::positional_parameter_base<wchar_t,__crt_stdio_output::string_output_adapter<wchar_t> >::is_positional_parameter_reappearance_consistent(__crt_stdio_output::positional_parameter_base<wchar_t,__crt_stdio_output::string_output_adapter<wchar_t> >::parameter_data const &,__crt_stdio_output::positional_parameter_base<wchar_t,__crt_stdio_output::string_output_adapter<wchar_t> >::parameter_type,wchar_t,__crt_stdio_output::length_modifier)
PUBLIC 20704 0 __crt_stdio_stream::is_string_backed()
PUBLIC 20713 0 __crt_stdio_output::output_processor<char,__crt_stdio_output::stream_output_adapter<char>,__crt_stdio_output::format_validation_base<char,__crt_stdio_output::stream_output_adapter<char> > >::narrow_null_string()
PUBLIC 20719 0 __crt_stdio_output::output_processor<char,__crt_stdio_output::stream_output_adapter<char>,__crt_stdio_output::positional_parameter_base<char,__crt_stdio_output::stream_output_adapter<char> > >::narrow_null_string()
PUBLIC 2071f 0 __crt_stdio_output::output_processor<char,__crt_stdio_output::stream_output_adapter<char>,__crt_stdio_output::standard_base<char,__crt_stdio_output::stream_output_adapter<char> > >::narrow_null_string()
PUBLIC 20725 0 __crt_stdio_output::output_processor<char,__crt_stdio_output::string_output_adapter<char>,__crt_stdio_output::format_validation_base<char,__crt_stdio_output::string_output_adapter<char> > >::narrow_null_string()
PUBLIC 2072b 0 __crt_stdio_output::output_processor<char,__crt_stdio_output::string_output_adapter<char>,__crt_stdio_output::positional_parameter_base<char,__crt_stdio_output::string_output_adapter<char> > >::narrow_null_string()
PUBLIC 20731 0 __crt_stdio_output::output_processor<char,__crt_stdio_output::string_output_adapter<char>,__crt_stdio_output::standard_base<char,__crt_stdio_output::string_output_adapter<char> > >::narrow_null_string()
PUBLIC 20737 0 __crt_stdio_output::output_processor<wchar_t,__crt_stdio_output::stream_output_adapter<wchar_t>,__crt_stdio_output::format_validation_base<wchar_t,__crt_stdio_output::stream_output_adapter<wchar_t> > >::narrow_null_string()
PUBLIC 2073d 0 __crt_stdio_output::output_processor<wchar_t,__crt_stdio_output::stream_output_adapter<wchar_t>,__crt_stdio_output::positional_parameter_base<wchar_t,__crt_stdio_output::stream_output_adapter<wchar_t> > >::narrow_null_string()
PUBLIC 20743 0 __crt_stdio_output::output_processor<wchar_t,__crt_stdio_output::stream_output_adapter<wchar_t>,__crt_stdio_output::standard_base<wchar_t,__crt_stdio_output::stream_output_adapter<wchar_t> > >::narrow_null_string()
PUBLIC 20749 0 __crt_stdio_output::output_processor<wchar_t,__crt_stdio_output::string_output_adapter<wchar_t>,__crt_stdio_output::format_validation_base<wchar_t,__crt_stdio_output::string_output_adapter<wchar_t> > >::narrow_null_string()
PUBLIC 2074f 0 __crt_stdio_output::output_processor<wchar_t,__crt_stdio_output::string_output_adapter<wchar_t>,__crt_stdio_output::positional_parameter_base<wchar_t,__crt_stdio_output::string_output_adapter<wchar_t> > >::narrow_null_string()
PUBLIC 20755 0 __crt_stdio_output::output_processor<wchar_t,__crt_stdio_output::string_output_adapter<wchar_t>,__crt_stdio_output::standard_base<wchar_t,__crt_stdio_output::string_output_adapter<wchar_t> > >::narrow_null_string()
PUBLIC 2075b 0 __crt_stdio_output::output_processor<char,__crt_stdio_output::stream_output_adapter<char>,__crt_stdio_output::format_validation_base<char,__crt_stdio_output::stream_output_adapter<char> > >::parse_int_from_format_string(int * const)
PUBLIC 207ec 0 __crt_stdio_output::output_processor<char,__crt_stdio_output::stream_output_adapter<char>,__crt_stdio_output::positional_parameter_base<char,__crt_stdio_output::stream_output_adapter<char> > >::parse_int_from_format_string(int * const)
PUBLIC 2087d 0 __crt_stdio_output::output_processor<char,__crt_stdio_output::stream_output_adapter<char>,__crt_stdio_output::standard_base<char,__crt_stdio_output::stream_output_adapter<char> > >::parse_int_from_format_string(int * const)
PUBLIC 2090e 0 __crt_stdio_output::output_processor<char,__crt_stdio_output::string_output_adapter<char>,__crt_stdio_output::format_validation_base<char,__crt_stdio_output::string_output_adapter<char> > >::parse_int_from_format_string(int * const)
PUBLIC 2099f 0 __crt_stdio_output::output_processor<char,__crt_stdio_output::string_output_adapter<char>,__crt_stdio_output::positional_parameter_base<char,__crt_stdio_output::string_output_adapter<char> > >::parse_int_from_format_string(int * const)
PUBLIC 20a30 0 __crt_stdio_output::output_processor<char,__crt_stdio_output::string_output_adapter<char>,__crt_stdio_output::standard_base<char,__crt_stdio_output::string_output_adapter<char> > >::parse_int_from_format_string(int * const)
PUBLIC 20ac1 0 __crt_stdio_output::output_processor<wchar_t,__crt_stdio_output::stream_output_adapter<wchar_t>,__crt_stdio_output::format_validation_base<wchar_t,__crt_stdio_output::stream_output_adapter<wchar_t> > >::parse_int_from_format_string(int * const)
PUBLIC 20b54 0 __crt_stdio_output::output_processor<wchar_t,__crt_stdio_output::stream_output_adapter<wchar_t>,__crt_stdio_output::positional_parameter_base<wchar_t,__crt_stdio_output::stream_output_adapter<wchar_t> > >::parse_int_from_format_string(int * const)
PUBLIC 20be7 0 __crt_stdio_output::output_processor<wchar_t,__crt_stdio_output::stream_output_adapter<wchar_t>,__crt_stdio_output::standard_base<wchar_t,__crt_stdio_output::stream_output_adapter<wchar_t> > >::parse_int_from_format_string(int * const)
PUBLIC 20c7a 0 __crt_stdio_output::output_processor<wchar_t,__crt_stdio_output::string_output_adapter<wchar_t>,__crt_stdio_output::format_validation_base<wchar_t,__crt_stdio_output::string_output_adapter<wchar_t> > >::parse_int_from_format_string(int * const)
PUBLIC 20d0d 0 __crt_stdio_output::output_processor<wchar_t,__crt_stdio_output::string_output_adapter<wchar_t>,__crt_stdio_output::positional_parameter_base<wchar_t,__crt_stdio_output::string_output_adapter<wchar_t> > >::parse_int_from_format_string(int * const)
PUBLIC 20da0 0 __crt_stdio_output::output_processor<wchar_t,__crt_stdio_output::string_output_adapter<wchar_t>,__crt_stdio_output::standard_base<wchar_t,__crt_stdio_output::string_output_adapter<wchar_t> > >::parse_int_from_format_string(int * const)
PUBLIC 20e33 0 __crt_stdio_output::output_processor<char,__crt_stdio_output::stream_output_adapter<char>,__crt_stdio_output::format_validation_base<char,__crt_stdio_output::stream_output_adapter<char> > >::process()
PUBLIC 20fa0 0 __crt_stdio_output::output_processor<char,__crt_stdio_output::stream_output_adapter<char>,__crt_stdio_output::positional_parameter_base<char,__crt_stdio_output::stream_output_adapter<char> > >::process()
PUBLIC 2111c 0 __crt_stdio_output::output_processor<char,__crt_stdio_output::stream_output_adapter<char>,__crt_stdio_output::standard_base<char,__crt_stdio_output::stream_output_adapter<char> > >::process()
PUBLIC 21275 0 __crt_stdio_output::output_processor<char,__crt_stdio_output::string_output_adapter<char>,__crt_stdio_output::format_validation_base<char,__crt_stdio_output::string_output_adapter<char> > >::process()
PUBLIC 213e2 0 __crt_stdio_output::output_processor<char,__crt_stdio_output::string_output_adapter<char>,__crt_stdio_output::positional_parameter_base<char,__crt_stdio_output::string_output_adapter<char> > >::process()
PUBLIC 2155e 0 __crt_stdio_output::output_processor<char,__crt_stdio_output::string_output_adapter<char>,__crt_stdio_output::standard_base<char,__crt_stdio_output::string_output_adapter<char> > >::process()
PUBLIC 216b7 0 __crt_stdio_output::output_processor<wchar_t,__crt_stdio_output::stream_output_adapter<wchar_t>,__crt_stdio_output::format_validation_base<wchar_t,__crt_stdio_output::stream_output_adapter<wchar_t> > >::process()
PUBLIC 21829 0 __crt_stdio_output::output_processor<wchar_t,__crt_stdio_output::stream_output_adapter<wchar_t>,__crt_stdio_output::positional_parameter_base<wchar_t,__crt_stdio_output::stream_output_adapter<wchar_t> > >::process()
PUBLIC 219aa 0 __crt_stdio_output::output_processor<wchar_t,__crt_stdio_output::stream_output_adapter<wchar_t>,__crt_stdio_output::standard_base<wchar_t,__crt_stdio_output::stream_output_adapter<wchar_t> > >::process()
PUBLIC 21b0d 0 __crt_stdio_output::output_processor<wchar_t,__crt_stdio_output::string_output_adapter<wchar_t>,__crt_stdio_output::format_validation_base<wchar_t,__crt_stdio_output::string_output_adapter<wchar_t> > >::process()
PUBLIC 21c7f 0 __crt_stdio_output::output_processor<wchar_t,__crt_stdio_output::string_output_adapter<wchar_t>,__crt_stdio_output::positional_parameter_base<wchar_t,__crt_stdio_output::string_output_adapter<wchar_t> > >::process()
PUBLIC 21e00 0 __crt_stdio_output::output_processor<wchar_t,__crt_stdio_output::string_output_adapter<wchar_t>,__crt_stdio_output::standard_base<wchar_t,__crt_stdio_output::string_output_adapter<wchar_t> > >::process()
PUBLIC 21f63 0 __crt_stdio_stream::public_stream()
PUBLIC 21f66 0 __crt_stdio_output::output_processor<char,__crt_stdio_output::stream_output_adapter<char>,__crt_stdio_output::format_validation_base<char,__crt_stdio_output::stream_output_adapter<char> > >::set_flag(unsigned int)
PUBLIC 21f78 0 __crt_stdio_output::output_processor<char,__crt_stdio_output::stream_output_adapter<char>,__crt_stdio_output::positional_parameter_base<char,__crt_stdio_output::stream_output_adapter<char> > >::set_flag(unsigned int)
PUBLIC 21f8a 0 __crt_stdio_output::output_processor<char,__crt_stdio_output::stream_output_adapter<char>,__crt_stdio_output::standard_base<char,__crt_stdio_output::stream_output_adapter<char> > >::set_flag(unsigned int)
PUBLIC 21f9c 0 __crt_stdio_output::output_processor<char,__crt_stdio_output::string_output_adapter<char>,__crt_stdio_output::format_validation_base<char,__crt_stdio_output::string_output_adapter<char> > >::set_flag(unsigned int)
PUBLIC 21fae 0 __crt_stdio_output::output_processor<char,__crt_stdio_output::string_output_adapter<char>,__crt_stdio_output::positional_parameter_base<char,__crt_stdio_output::string_output_adapter<char> > >::set_flag(unsigned int)
PUBLIC 21fc0 0 __crt_stdio_output::output_processor<char,__crt_stdio_output::string_output_adapter<char>,__crt_stdio_output::standard_base<char,__crt_stdio_output::string_output_adapter<char> > >::set_flag(unsigned int)
PUBLIC 21fd2 0 __crt_stdio_output::output_processor<wchar_t,__crt_stdio_output::stream_output_adapter<wchar_t>,__crt_stdio_output::format_validation_base<wchar_t,__crt_stdio_output::stream_output_adapter<wchar_t> > >::set_flag(unsigned int)
PUBLIC 21fe4 0 __crt_stdio_output::output_processor<wchar_t,__crt_stdio_output::stream_output_adapter<wchar_t>,__crt_stdio_output::positional_parameter_base<wchar_t,__crt_stdio_output::stream_output_adapter<wchar_t> > >::set_flag(unsigned int)
PUBLIC 21ff6 0 __crt_stdio_output::output_processor<wchar_t,__crt_stdio_output::stream_output_adapter<wchar_t>,__crt_stdio_output::standard_base<wchar_t,__crt_stdio_output::stream_output_adapter<wchar_t> > >::set_flag(unsigned int)
PUBLIC 22008 0 __crt_stdio_output::output_processor<wchar_t,__crt_stdio_output::string_output_adapter<wchar_t>,__crt_stdio_output::format_validation_base<wchar_t,__crt_stdio_output::string_output_adapter<wchar_t> > >::set_flag(unsigned int)
PUBLIC 2201a 0 __crt_stdio_output::output_processor<wchar_t,__crt_stdio_output::string_output_adapter<wchar_t>,__crt_stdio_output::positional_parameter_base<wchar_t,__crt_stdio_output::string_output_adapter<wchar_t> > >::set_flag(unsigned int)
PUBLIC 2202c 0 __crt_stdio_output::output_processor<wchar_t,__crt_stdio_output::string_output_adapter<wchar_t>,__crt_stdio_output::standard_base<wchar_t,__crt_stdio_output::string_output_adapter<wchar_t> > >::set_flag(unsigned int)
PUBLIC 2203e 0 __crt_stdio_output::positional_parameter_base<char,__crt_stdio_output::stream_output_adapter<char> >::should_format()
PUBLIC 22059 0 __crt_stdio_output::positional_parameter_base<char,__crt_stdio_output::string_output_adapter<char> >::should_format()
PUBLIC 22074 0 __crt_stdio_output::positional_parameter_base<wchar_t,__crt_stdio_output::stream_output_adapter<wchar_t> >::should_format()
PUBLIC 2208f 0 __crt_stdio_output::positional_parameter_base<wchar_t,__crt_stdio_output::string_output_adapter<wchar_t> >::should_format()
PUBLIC 220aa 0 __crt_stdio_output::standard_base<char,__crt_stdio_output::stream_output_adapter<char> >::should_format()
PUBLIC 220ad 0 __crt_stdio_output::standard_base<char,__crt_stdio_output::string_output_adapter<char> >::should_format()
PUBLIC 220b0 0 __crt_stdio_output::standard_base<wchar_t,__crt_stdio_output::stream_output_adapter<wchar_t> >::should_format()
PUBLIC 220b3 0 __crt_stdio_output::standard_base<wchar_t,__crt_stdio_output::string_output_adapter<wchar_t> >::should_format()
PUBLIC 220b6 0 __crt_stdio_output::positional_parameter_base<char,__crt_stdio_output::stream_output_adapter<char> >::should_skip_normal_state_processing()
PUBLIC 220e8 0 __crt_stdio_output::positional_parameter_base<char,__crt_stdio_output::string_output_adapter<char> >::should_skip_normal_state_processing()
PUBLIC 2211a 0 __crt_stdio_output::positional_parameter_base<wchar_t,__crt_stdio_output::stream_output_adapter<wchar_t> >::should_skip_normal_state_processing()
PUBLIC 2214c 0 __crt_stdio_output::positional_parameter_base<wchar_t,__crt_stdio_output::string_output_adapter<wchar_t> >::should_skip_normal_state_processing()
PUBLIC 2217e 0 __crt_stdio_output::standard_base<char,__crt_stdio_output::stream_output_adapter<char> >::should_skip_normal_state_processing()
PUBLIC 22181 0 __crt_stdio_output::standard_base<char,__crt_stdio_output::string_output_adapter<char> >::should_skip_normal_state_processing()
PUBLIC 22184 0 __crt_stdio_output::standard_base<wchar_t,__crt_stdio_output::stream_output_adapter<wchar_t> >::should_skip_normal_state_processing()
PUBLIC 22187 0 __crt_stdio_output::standard_base<wchar_t,__crt_stdio_output::string_output_adapter<wchar_t> >::should_skip_normal_state_processing()
PUBLIC 2218a 0 __crt_stdio_output::positional_parameter_base<char,__crt_stdio_output::stream_output_adapter<char> >::should_skip_type_state_output()
PUBLIC 221a6 0 __crt_stdio_output::positional_parameter_base<char,__crt_stdio_output::string_output_adapter<char> >::should_skip_type_state_output()
PUBLIC 221c2 0 __crt_stdio_output::positional_parameter_base<wchar_t,__crt_stdio_output::stream_output_adapter<wchar_t> >::should_skip_type_state_output()
PUBLIC 221de 0 __crt_stdio_output::positional_parameter_base<wchar_t,__crt_stdio_output::string_output_adapter<wchar_t> >::should_skip_type_state_output()
PUBLIC 221fa 0 __crt_stdio_output::standard_base<char,__crt_stdio_output::stream_output_adapter<char> >::should_skip_type_state_output()
PUBLIC 221fd 0 __crt_stdio_output::standard_base<char,__crt_stdio_output::string_output_adapter<char> >::should_skip_type_state_output()
PUBLIC 22200 0 __crt_stdio_output::standard_base<wchar_t,__crt_stdio_output::stream_output_adapter<wchar_t> >::should_skip_type_state_output()
PUBLIC 22203 0 __crt_stdio_output::standard_base<wchar_t,__crt_stdio_output::string_output_adapter<wchar_t> >::should_skip_type_state_output()
PUBLIC 22206 0 __crt_stdio_output::output_processor<char,__crt_stdio_output::stream_output_adapter<char>,__crt_stdio_output::format_validation_base<char,__crt_stdio_output::stream_output_adapter<char> > >::state_case_dot()
PUBLIC 2220d 0 __crt_stdio_output::output_processor<char,__crt_stdio_output::stream_output_adapter<char>,__crt_stdio_output::positional_parameter_base<char,__crt_stdio_output::stream_output_adapter<char> > >::state_case_dot()
PUBLIC 22214 0 __crt_stdio_output::output_processor<char,__crt_stdio_output::stream_output_adapter<char>,__crt_stdio_output::standard_base<char,__crt_stdio_output::stream_output_adapter<char> > >::state_case_dot()
PUBLIC 2221b 0 __crt_stdio_output::output_processor<char,__crt_stdio_output::string_output_adapter<char>,__crt_stdio_output::format_validation_base<char,__crt_stdio_output::string_output_adapter<char> > >::state_case_dot()
PUBLIC 22222 0 __crt_stdio_output::output_processor<char,__crt_stdio_output::string_output_adapter<char>,__crt_stdio_output::positional_parameter_base<char,__crt_stdio_output::string_output_adapter<char> > >::state_case_dot()
PUBLIC 22229 0 __crt_stdio_output::output_processor<char,__crt_stdio_output::string_output_adapter<char>,__crt_stdio_output::standard_base<char,__crt_stdio_output::string_output_adapter<char> > >::state_case_dot()
PUBLIC 22230 0 __crt_stdio_output::output_processor<wchar_t,__crt_stdio_output::stream_output_adapter<wchar_t>,__crt_stdio_output::format_validation_base<wchar_t,__crt_stdio_output::stream_output_adapter<wchar_t> > >::state_case_dot()
PUBLIC 22237 0 __crt_stdio_output::output_processor<wchar_t,__crt_stdio_output::stream_output_adapter<wchar_t>,__crt_stdio_output::positional_parameter_base<wchar_t,__crt_stdio_output::stream_output_adapter<wchar_t> > >::state_case_dot()
PUBLIC 2223e 0 __crt_stdio_output::output_processor<wchar_t,__crt_stdio_output::stream_output_adapter<wchar_t>,__crt_stdio_output::standard_base<wchar_t,__crt_stdio_output::stream_output_adapter<wchar_t> > >::state_case_dot()
PUBLIC 22245 0 __crt_stdio_output::output_processor<wchar_t,__crt_stdio_output::string_output_adapter<wchar_t>,__crt_stdio_output::format_validation_base<wchar_t,__crt_stdio_output::string_output_adapter<wchar_t> > >::state_case_dot()
PUBLIC 2224c 0 __crt_stdio_output::output_processor<wchar_t,__crt_stdio_output::string_output_adapter<wchar_t>,__crt_stdio_output::positional_parameter_base<wchar_t,__crt_stdio_output::string_output_adapter<wchar_t> > >::state_case_dot()
PUBLIC 22253 0 __crt_stdio_output::output_processor<wchar_t,__crt_stdio_output::string_output_adapter<wchar_t>,__crt_stdio_output::standard_base<wchar_t,__crt_stdio_output::string_output_adapter<wchar_t> > >::state_case_dot()
PUBLIC 2225a 0 __crt_stdio_output::output_processor<char,__crt_stdio_output::stream_output_adapter<char>,__crt_stdio_output::format_validation_base<char,__crt_stdio_output::stream_output_adapter<char> > >::state_case_flag()
PUBLIC 222a6 0 __crt_stdio_output::output_processor<char,__crt_stdio_output::stream_output_adapter<char>,__crt_stdio_output::positional_parameter_base<char,__crt_stdio_output::stream_output_adapter<char> > >::state_case_flag()
PUBLIC 222f2 0 __crt_stdio_output::output_processor<char,__crt_stdio_output::stream_output_adapter<char>,__crt_stdio_output::standard_base<char,__crt_stdio_output::stream_output_adapter<char> > >::state_case_flag()
PUBLIC 2233e 0 __crt_stdio_output::output_processor<char,__crt_stdio_output::string_output_adapter<char>,__crt_stdio_output::format_validation_base<char,__crt_stdio_output::string_output_adapter<char> > >::state_case_flag()
PUBLIC 2238a 0 __crt_stdio_output::output_processor<char,__crt_stdio_output::string_output_adapter<char>,__crt_stdio_output::positional_parameter_base<char,__crt_stdio_output::string_output_adapter<char> > >::state_case_flag()
PUBLIC 223d6 0 __crt_stdio_output::output_processor<char,__crt_stdio_output::string_output_adapter<char>,__crt_stdio_output::standard_base<char,__crt_stdio_output::string_output_adapter<char> > >::state_case_flag()
PUBLIC 22422 0 __crt_stdio_output::output_processor<wchar_t,__crt_stdio_output::stream_output_adapter<wchar_t>,__crt_stdio_output::format_validation_base<wchar_t,__crt_stdio_output::stream_output_adapter<wchar_t> > >::state_case_flag()
PUBLIC 2246e 0 __crt_stdio_output::output_processor<wchar_t,__crt_stdio_output::stream_output_adapter<wchar_t>,__crt_stdio_output::positional_parameter_base<wchar_t,__crt_stdio_output::stream_output_adapter<wchar_t> > >::state_case_flag()
PUBLIC 224ba 0 __crt_stdio_output::output_processor<wchar_t,__crt_stdio_output::stream_output_adapter<wchar_t>,__crt_stdio_output::standard_base<wchar_t,__crt_stdio_output::stream_output_adapter<wchar_t> > >::state_case_flag()
PUBLIC 22506 0 __crt_stdio_output::output_processor<wchar_t,__crt_stdio_output::string_output_adapter<wchar_t>,__crt_stdio_output::format_validation_base<wchar_t,__crt_stdio_output::string_output_adapter<wchar_t> > >::state_case_flag()
PUBLIC 22552 0 __crt_stdio_output::output_processor<wchar_t,__crt_stdio_output::string_output_adapter<wchar_t>,__crt_stdio_output::positional_parameter_base<wchar_t,__crt_stdio_output::string_output_adapter<wchar_t> > >::state_case_flag()
PUBLIC 2259e 0 __crt_stdio_output::output_processor<wchar_t,__crt_stdio_output::string_output_adapter<wchar_t>,__crt_stdio_output::standard_base<wchar_t,__crt_stdio_output::string_output_adapter<wchar_t> > >::state_case_flag()
PUBLIC 225ea 0 __crt_stdio_output::output_processor<char,__crt_stdio_output::stream_output_adapter<char>,__crt_stdio_output::format_validation_base<char,__crt_stdio_output::stream_output_adapter<char> > >::state_case_normal()
PUBLIC 22610 0 __crt_stdio_output::output_processor<char,__crt_stdio_output::stream_output_adapter<char>,__crt_stdio_output::positional_parameter_base<char,__crt_stdio_output::stream_output_adapter<char> > >::state_case_normal()
PUBLIC 2264d 0 __crt_stdio_output::output_processor<char,__crt_stdio_output::stream_output_adapter<char>,__crt_stdio_output::standard_base<char,__crt_stdio_output::stream_output_adapter<char> > >::state_case_normal()
PUBLIC 22673 0 __crt_stdio_output::output_processor<char,__crt_stdio_output::string_output_adapter<char>,__crt_stdio_output::format_validation_base<char,__crt_stdio_output::string_output_adapter<char> > >::state_case_normal()
PUBLIC 22699 0 __crt_stdio_output::output_processor<char,__crt_stdio_output::string_output_adapter<char>,__crt_stdio_output::positional_parameter_base<char,__crt_stdio_output::string_output_adapter<char> > >::state_case_normal()
PUBLIC 226d6 0 __crt_stdio_output::output_processor<char,__crt_stdio_output::string_output_adapter<char>,__crt_stdio_output::standard_base<char,__crt_stdio_output::string_output_adapter<char> > >::state_case_normal()
PUBLIC 226fc 0 __crt_stdio_output::output_processor<wchar_t,__crt_stdio_output::stream_output_adapter<wchar_t>,__crt_stdio_output::format_validation_base<wchar_t,__crt_stdio_output::stream_output_adapter<wchar_t> > >::state_case_normal()
PUBLIC 22722 0 __crt_stdio_output::output_processor<wchar_t,__crt_stdio_output::stream_output_adapter<wchar_t>,__crt_stdio_output::positional_parameter_base<wchar_t,__crt_stdio_output::stream_output_adapter<wchar_t> > >::state_case_normal()
PUBLIC 2275f 0 __crt_stdio_output::output_processor<wchar_t,__crt_stdio_output::stream_output_adapter<wchar_t>,__crt_stdio_output::standard_base<wchar_t,__crt_stdio_output::stream_output_adapter<wchar_t> > >::state_case_normal()
PUBLIC 22785 0 __crt_stdio_output::output_processor<wchar_t,__crt_stdio_output::string_output_adapter<wchar_t>,__crt_stdio_output::format_validation_base<wchar_t,__crt_stdio_output::string_output_adapter<wchar_t> > >::state_case_normal()
PUBLIC 227ab 0 __crt_stdio_output::output_processor<wchar_t,__crt_stdio_output::string_output_adapter<wchar_t>,__crt_stdio_output::positional_parameter_base<wchar_t,__crt_stdio_output::string_output_adapter<wchar_t> > >::state_case_normal()
PUBLIC 227e8 0 __crt_stdio_output::output_processor<wchar_t,__crt_stdio_output::string_output_adapter<wchar_t>,__crt_stdio_output::standard_base<wchar_t,__crt_stdio_output::string_output_adapter<wchar_t> > >::state_case_normal()
PUBLIC 2280e 0 __crt_stdio_output::output_processor<char,__crt_stdio_output::stream_output_adapter<char>,__crt_stdio_output::format_validation_base<char,__crt_stdio_output::stream_output_adapter<char> > >::state_case_normal_common()
PUBLIC 22856 0 __crt_stdio_output::output_processor<char,__crt_stdio_output::stream_output_adapter<char>,__crt_stdio_output::positional_parameter_base<char,__crt_stdio_output::stream_output_adapter<char> > >::state_case_normal_common()
PUBLIC 2289e 0 __crt_stdio_output::output_processor<char,__crt_stdio_output::stream_output_adapter<char>,__crt_stdio_output::standard_base<char,__crt_stdio_output::stream_output_adapter<char> > >::state_case_normal_common()
PUBLIC 228e6 0 __crt_stdio_output::output_processor<char,__crt_stdio_output::string_output_adapter<char>,__crt_stdio_output::format_validation_base<char,__crt_stdio_output::string_output_adapter<char> > >::state_case_normal_common()
PUBLIC 2291a 0 __crt_stdio_output::output_processor<char,__crt_stdio_output::string_output_adapter<char>,__crt_stdio_output::positional_parameter_base<char,__crt_stdio_output::string_output_adapter<char> > >::state_case_normal_common()
PUBLIC 2294e 0 __crt_stdio_output::output_processor<char,__crt_stdio_output::string_output_adapter<char>,__crt_stdio_output::standard_base<char,__crt_stdio_output::string_output_adapter<char> > >::state_case_normal_common()
PUBLIC 22982 0 __crt_stdio_output::output_processor<wchar_t,__crt_stdio_output::stream_output_adapter<wchar_t>,__crt_stdio_output::format_validation_base<wchar_t,__crt_stdio_output::stream_output_adapter<wchar_t> > >::state_case_normal_common()
PUBLIC 229b6 0 __crt_stdio_output::output_processor<wchar_t,__crt_stdio_output::stream_output_adapter<wchar_t>,__crt_stdio_output::positional_parameter_base<wchar_t,__crt_stdio_output::stream_output_adapter<wchar_t> > >::state_case_normal_common()
PUBLIC 229ea 0 __crt_stdio_output::output_processor<wchar_t,__crt_stdio_output::stream_output_adapter<wchar_t>,__crt_stdio_output::standard_base<wchar_t,__crt_stdio_output::stream_output_adapter<wchar_t> > >::state_case_normal_common()
PUBLIC 22a1e 0 __crt_stdio_output::output_processor<wchar_t,__crt_stdio_output::string_output_adapter<wchar_t>,__crt_stdio_output::format_validation_base<wchar_t,__crt_stdio_output::string_output_adapter<wchar_t> > >::state_case_normal_common()
PUBLIC 22a3f 0 __crt_stdio_output::output_processor<wchar_t,__crt_stdio_output::string_output_adapter<wchar_t>,__crt_stdio_output::positional_parameter_base<wchar_t,__crt_stdio_output::string_output_adapter<wchar_t> > >::state_case_normal_common()
PUBLIC 22a60 0 __crt_stdio_output::output_processor<wchar_t,__crt_stdio_output::string_output_adapter<wchar_t>,__crt_stdio_output::standard_base<wchar_t,__crt_stdio_output::string_output_adapter<wchar_t> > >::state_case_normal_common()
PUBLIC 22a81 0 __crt_stdio_output::output_processor<char,__crt_stdio_output::stream_output_adapter<char>,__crt_stdio_output::format_validation_base<char,__crt_stdio_output::stream_output_adapter<char> > >::state_case_normal_tchar(char)
PUBLIC 22b09 0 __crt_stdio_output::output_processor<char,__crt_stdio_output::stream_output_adapter<char>,__crt_stdio_output::positional_parameter_base<char,__crt_stdio_output::stream_output_adapter<char> > >::state_case_normal_tchar(char)
PUBLIC 22b91 0 __crt_stdio_output::output_processor<char,__crt_stdio_output::stream_output_adapter<char>,__crt_stdio_output::standard_base<char,__crt_stdio_output::stream_output_adapter<char> > >::state_case_normal_tchar(char)
PUBLIC 22c19 0 __crt_stdio_output::output_processor<char,__crt_stdio_output::string_output_adapter<char>,__crt_stdio_output::format_validation_base<char,__crt_stdio_output::string_output_adapter<char> > >::state_case_normal_tchar(char)
PUBLIC 22c96 0 __crt_stdio_output::output_processor<char,__crt_stdio_output::string_output_adapter<char>,__crt_stdio_output::positional_parameter_base<char,__crt_stdio_output::string_output_adapter<char> > >::state_case_normal_tchar(char)
PUBLIC 22d13 0 __crt_stdio_output::output_processor<char,__crt_stdio_output::string_output_adapter<char>,__crt_stdio_output::standard_base<char,__crt_stdio_output::string_output_adapter<char> > >::state_case_normal_tchar(char)
PUBLIC 22d90 0 __crt_stdio_output::output_processor<wchar_t,__crt_stdio_output::stream_output_adapter<wchar_t>,__crt_stdio_output::format_validation_base<wchar_t,__crt_stdio_output::stream_output_adapter<wchar_t> > >::state_case_normal_tchar(wchar_t)
PUBLIC 22d9b 0 __crt_stdio_output::output_processor<wchar_t,__crt_stdio_output::stream_output_adapter<wchar_t>,__crt_stdio_output::positional_parameter_base<wchar_t,__crt_stdio_output::stream_output_adapter<wchar_t> > >::state_case_normal_tchar(wchar_t)
PUBLIC 22da6 0 __crt_stdio_output::output_processor<wchar_t,__crt_stdio_output::stream_output_adapter<wchar_t>,__crt_stdio_output::standard_base<wchar_t,__crt_stdio_output::stream_output_adapter<wchar_t> > >::state_case_normal_tchar(wchar_t)
PUBLIC 22db1 0 __crt_stdio_output::output_processor<wchar_t,__crt_stdio_output::string_output_adapter<wchar_t>,__crt_stdio_output::format_validation_base<wchar_t,__crt_stdio_output::string_output_adapter<wchar_t> > >::state_case_normal_tchar(wchar_t)
PUBLIC 22dbc 0 __crt_stdio_output::output_processor<wchar_t,__crt_stdio_output::string_output_adapter<wchar_t>,__crt_stdio_output::positional_parameter_base<wchar_t,__crt_stdio_output::string_output_adapter<wchar_t> > >::state_case_normal_tchar(wchar_t)
PUBLIC 22dc7 0 __crt_stdio_output::output_processor<wchar_t,__crt_stdio_output::string_output_adapter<wchar_t>,__crt_stdio_output::standard_base<wchar_t,__crt_stdio_output::string_output_adapter<wchar_t> > >::state_case_normal_tchar(wchar_t)
PUBLIC 22dd2 0 __crt_stdio_output::output_processor<char,__crt_stdio_output::stream_output_adapter<char>,__crt_stdio_output::format_validation_base<char,__crt_stdio_output::stream_output_adapter<char> > >::state_case_percent()
PUBLIC 22df0 0 __crt_stdio_output::output_processor<char,__crt_stdio_output::stream_output_adapter<char>,__crt_stdio_output::positional_parameter_base<char,__crt_stdio_output::stream_output_adapter<char> > >::state_case_percent()
PUBLIC 22e0e 0 __crt_stdio_output::output_processor<char,__crt_stdio_output::stream_output_adapter<char>,__crt_stdio_output::standard_base<char,__crt_stdio_output::stream_output_adapter<char> > >::state_case_percent()
PUBLIC 22e2c 0 __crt_stdio_output::output_processor<char,__crt_stdio_output::string_output_adapter<char>,__crt_stdio_output::format_validation_base<char,__crt_stdio_output::string_output_adapter<char> > >::state_case_percent()
PUBLIC 22e4a 0 __crt_stdio_output::output_processor<char,__crt_stdio_output::string_output_adapter<char>,__crt_stdio_output::positional_parameter_base<char,__crt_stdio_output::string_output_adapter<char> > >::state_case_percent()
PUBLIC 22e68 0 __crt_stdio_output::output_processor<char,__crt_stdio_output::string_output_adapter<char>,__crt_stdio_output::standard_base<char,__crt_stdio_output::string_output_adapter<char> > >::state_case_percent()
PUBLIC 22e86 0 __crt_stdio_output::output_processor<wchar_t,__crt_stdio_output::stream_output_adapter<wchar_t>,__crt_stdio_output::format_validation_base<wchar_t,__crt_stdio_output::stream_output_adapter<wchar_t> > >::state_case_percent()
PUBLIC 22ea4 0 __crt_stdio_output::output_processor<wchar_t,__crt_stdio_output::stream_output_adapter<wchar_t>,__crt_stdio_output::positional_parameter_base<wchar_t,__crt_stdio_output::stream_output_adapter<wchar_t> > >::state_case_percent()
PUBLIC 22ec2 0 __crt_stdio_output::output_processor<wchar_t,__crt_stdio_output::stream_output_adapter<wchar_t>,__crt_stdio_output::standard_base<wchar_t,__crt_stdio_output::stream_output_adapter<wchar_t> > >::state_case_percent()
PUBLIC 22ee0 0 __crt_stdio_output::output_processor<wchar_t,__crt_stdio_output::string_output_adapter<wchar_t>,__crt_stdio_output::format_validation_base<wchar_t,__crt_stdio_output::string_output_adapter<wchar_t> > >::state_case_percent()
PUBLIC 22efe 0 __crt_stdio_output::output_processor<wchar_t,__crt_stdio_output::string_output_adapter<wchar_t>,__crt_stdio_output::positional_parameter_base<wchar_t,__crt_stdio_output::string_output_adapter<wchar_t> > >::state_case_percent()
PUBLIC 22f1c 0 __crt_stdio_output::output_processor<wchar_t,__crt_stdio_output::string_output_adapter<wchar_t>,__crt_stdio_output::standard_base<wchar_t,__crt_stdio_output::string_output_adapter<wchar_t> > >::state_case_percent()
PUBLIC 22f3a 0 __crt_stdio_output::output_processor<char,__crt_stdio_output::stream_output_adapter<char>,__crt_stdio_output::format_validation_base<char,__crt_stdio_output::stream_output_adapter<char> > >::state_case_precision()
PUBLIC 22f69 0 __crt_stdio_output::output_processor<char,__crt_stdio_output::stream_output_adapter<char>,__crt_stdio_output::positional_parameter_base<char,__crt_stdio_output::stream_output_adapter<char> > >::state_case_precision()
PUBLIC 22fb1 0 __crt_stdio_output::output_processor<char,__crt_stdio_output::stream_output_adapter<char>,__crt_stdio_output::standard_base<char,__crt_stdio_output::stream_output_adapter<char> > >::state_case_precision()
PUBLIC 22fe0 0 __crt_stdio_output::output_processor<char,__crt_stdio_output::string_output_adapter<char>,__crt_stdio_output::format_validation_base<char,__crt_stdio_output::string_output_adapter<char> > >::state_case_precision()
PUBLIC 2300f 0 __crt_stdio_output::output_processor<char,__crt_stdio_output::string_output_adapter<char>,__crt_stdio_output::positional_parameter_base<char,__crt_stdio_output::string_output_adapter<char> > >::state_case_precision()
PUBLIC 23057 0 __crt_stdio_output::output_processor<char,__crt_stdio_output::string_output_adapter<char>,__crt_stdio_output::standard_base<char,__crt_stdio_output::string_output_adapter<char> > >::state_case_precision()
PUBLIC 23086 0 __crt_stdio_output::output_processor<wchar_t,__crt_stdio_output::stream_output_adapter<wchar_t>,__crt_stdio_output::format_validation_base<wchar_t,__crt_stdio_output::stream_output_adapter<wchar_t> > >::state_case_precision()
PUBLIC 230b6 0 __crt_stdio_output::output_processor<wchar_t,__crt_stdio_output::stream_output_adapter<wchar_t>,__crt_stdio_output::positional_parameter_base<wchar_t,__crt_stdio_output::stream_output_adapter<wchar_t> > >::state_case_precision()
PUBLIC 230ff 0 __crt_stdio_output::output_processor<wchar_t,__crt_stdio_output::stream_output_adapter<wchar_t>,__crt_stdio_output::standard_base<wchar_t,__crt_stdio_output::stream_output_adapter<wchar_t> > >::state_case_precision()
PUBLIC 2312f 0 __crt_stdio_output::output_processor<wchar_t,__crt_stdio_output::string_output_adapter<wchar_t>,__crt_stdio_output::format_validation_base<wchar_t,__crt_stdio_output::string_output_adapter<wchar_t> > >::state_case_precision()
PUBLIC 2315f 0 __crt_stdio_output::output_processor<wchar_t,__crt_stdio_output::string_output_adapter<wchar_t>,__crt_stdio_output::positional_parameter_base<wchar_t,__crt_stdio_output::string_output_adapter<wchar_t> > >::state_case_precision()
PUBLIC 231a8 0 __crt_stdio_output::output_processor<wchar_t,__crt_stdio_output::string_output_adapter<wchar_t>,__crt_stdio_output::standard_base<wchar_t,__crt_stdio_output::string_output_adapter<wchar_t> > >::state_case_precision()
PUBLIC 231d8 0 __crt_stdio_output::output_processor<char,__crt_stdio_output::stream_output_adapter<char>,__crt_stdio_output::format_validation_base<char,__crt_stdio_output::stream_output_adapter<char> > >::state_case_size()
PUBLIC 23379 0 __crt_stdio_output::output_processor<char,__crt_stdio_output::stream_output_adapter<char>,__crt_stdio_output::positional_parameter_base<char,__crt_stdio_output::stream_output_adapter<char> > >::state_case_size()
PUBLIC 2351a 0 __crt_stdio_output::output_processor<char,__crt_stdio_output::stream_output_adapter<char>,__crt_stdio_output::standard_base<char,__crt_stdio_output::stream_output_adapter<char> > >::state_case_size()
PUBLIC 236bb 0 __crt_stdio_output::output_processor<char,__crt_stdio_output::string_output_adapter<char>,__crt_stdio_output::format_validation_base<char,__crt_stdio_output::string_output_adapter<char> > >::state_case_size()
PUBLIC 2385c 0 __crt_stdio_output::output_processor<char,__crt_stdio_output::string_output_adapter<char>,__crt_stdio_output::positional_parameter_base<char,__crt_stdio_output::string_output_adapter<char> > >::state_case_size()
PUBLIC 239fd 0 __crt_stdio_output::output_processor<char,__crt_stdio_output::string_output_adapter<char>,__crt_stdio_output::standard_base<char,__crt_stdio_output::string_output_adapter<char> > >::state_case_size()
PUBLIC 23b9e 0 __crt_stdio_output::output_processor<wchar_t,__crt_stdio_output::stream_output_adapter<wchar_t>,__crt_stdio_output::format_validation_base<wchar_t,__crt_stdio_output::stream_output_adapter<wchar_t> > >::state_case_size()
PUBLIC 23d74 0 __crt_stdio_output::output_processor<wchar_t,__crt_stdio_output::stream_output_adapter<wchar_t>,__crt_stdio_output::positional_parameter_base<wchar_t,__crt_stdio_output::stream_output_adapter<wchar_t> > >::state_case_size()
PUBLIC 23f4a 0 __crt_stdio_output::output_processor<wchar_t,__crt_stdio_output::stream_output_adapter<wchar_t>,__crt_stdio_output::standard_base<wchar_t,__crt_stdio_output::stream_output_adapter<wchar_t> > >::state_case_size()
PUBLIC 24120 0 __crt_stdio_output::output_processor<wchar_t,__crt_stdio_output::string_output_adapter<wchar_t>,__crt_stdio_output::format_validation_base<wchar_t,__crt_stdio_output::string_output_adapter<wchar_t> > >::state_case_size()
PUBLIC 242f6 0 __crt_stdio_output::output_processor<wchar_t,__crt_stdio_output::string_output_adapter<wchar_t>,__crt_stdio_output::positional_parameter_base<wchar_t,__crt_stdio_output::string_output_adapter<wchar_t> > >::state_case_size()
PUBLIC 244cc 0 __crt_stdio_output::output_processor<wchar_t,__crt_stdio_output::string_output_adapter<wchar_t>,__crt_stdio_output::standard_base<wchar_t,__crt_stdio_output::string_output_adapter<wchar_t> > >::state_case_size()
PUBLIC 246a2 0 __crt_stdio_output::output_processor<char,__crt_stdio_output::stream_output_adapter<char>,__crt_stdio_output::format_validation_base<char,__crt_stdio_output::stream_output_adapter<char> > >::state_case_type()
PUBLIC 24960 0 __crt_stdio_output::output_processor<char,__crt_stdio_output::stream_output_adapter<char>,__crt_stdio_output::positional_parameter_base<char,__crt_stdio_output::stream_output_adapter<char> > >::state_case_type()
PUBLIC 24c31 0 __crt_stdio_output::output_processor<char,__crt_stdio_output::stream_output_adapter<char>,__crt_stdio_output::standard_base<char,__crt_stdio_output::stream_output_adapter<char> > >::state_case_type()
PUBLIC 24eef 0 __crt_stdio_output::output_processor<char,__crt_stdio_output::string_output_adapter<char>,__crt_stdio_output::format_validation_base<char,__crt_stdio_output::string_output_adapter<char> > >::state_case_type()
PUBLIC 251ad 0 __crt_stdio_output::output_processor<char,__crt_stdio_output::string_output_adapter<char>,__crt_stdio_output::positional_parameter_base<char,__crt_stdio_output::string_output_adapter<char> > >::state_case_type()
PUBLIC 2547e 0 __crt_stdio_output::output_processor<char,__crt_stdio_output::string_output_adapter<char>,__crt_stdio_output::standard_base<char,__crt_stdio_output::string_output_adapter<char> > >::state_case_type()
PUBLIC 2573c 0 __crt_stdio_output::output_processor<wchar_t,__crt_stdio_output::stream_output_adapter<wchar_t>,__crt_stdio_output::format_validation_base<wchar_t,__crt_stdio_output::stream_output_adapter<wchar_t> > >::state_case_type()
PUBLIC 25a3a 0 __crt_stdio_output::output_processor<wchar_t,__crt_stdio_output::stream_output_adapter<wchar_t>,__crt_stdio_output::positional_parameter_base<wchar_t,__crt_stdio_output::stream_output_adapter<wchar_t> > >::state_case_type()
PUBLIC 25d4b 0 __crt_stdio_output::output_processor<wchar_t,__crt_stdio_output::stream_output_adapter<wchar_t>,__crt_stdio_output::standard_base<wchar_t,__crt_stdio_output::stream_output_adapter<wchar_t> > >::state_case_type()
PUBLIC 26049 0 __crt_stdio_output::output_processor<wchar_t,__crt_stdio_output::string_output_adapter<wchar_t>,__crt_stdio_output::format_validation_base<wchar_t,__crt_stdio_output::string_output_adapter<wchar_t> > >::state_case_type()
PUBLIC 26347 0 __crt_stdio_output::output_processor<wchar_t,__crt_stdio_output::string_output_adapter<wchar_t>,__crt_stdio_output::positional_parameter_base<wchar_t,__crt_stdio_output::string_output_adapter<wchar_t> > >::state_case_type()
PUBLIC 26658 0 __crt_stdio_output::output_processor<wchar_t,__crt_stdio_output::string_output_adapter<wchar_t>,__crt_stdio_output::standard_base<wchar_t,__crt_stdio_output::string_output_adapter<wchar_t> > >::state_case_type()
PUBLIC 26956 0 __crt_stdio_output::output_processor<char,__crt_stdio_output::stream_output_adapter<char>,__crt_stdio_output::format_validation_base<char,__crt_stdio_output::stream_output_adapter<char> > >::state_case_width()
PUBLIC 2698b 0 __crt_stdio_output::output_processor<char,__crt_stdio_output::stream_output_adapter<char>,__crt_stdio_output::positional_parameter_base<char,__crt_stdio_output::stream_output_adapter<char> > >::state_case_width()
PUBLIC 269db 0 __crt_stdio_output::output_processor<char,__crt_stdio_output::stream_output_adapter<char>,__crt_stdio_output::standard_base<char,__crt_stdio_output::stream_output_adapter<char> > >::state_case_width()
PUBLIC 26a10 0 __crt_stdio_output::output_processor<char,__crt_stdio_output::string_output_adapter<char>,__crt_stdio_output::format_validation_base<char,__crt_stdio_output::string_output_adapter<char> > >::state_case_width()
PUBLIC 26a45 0 __crt_stdio_output::output_processor<char,__crt_stdio_output::string_output_adapter<char>,__crt_stdio_output::positional_parameter_base<char,__crt_stdio_output::string_output_adapter<char> > >::state_case_width()
PUBLIC 26a95 0 __crt_stdio_output::output_processor<char,__crt_stdio_output::string_output_adapter<char>,__crt_stdio_output::standard_base<char,__crt_stdio_output::string_output_adapter<char> > >::state_case_width()
PUBLIC 26aca 0 __crt_stdio_output::output_processor<wchar_t,__crt_stdio_output::stream_output_adapter<wchar_t>,__crt_stdio_output::format_validation_base<wchar_t,__crt_stdio_output::stream_output_adapter<wchar_t> > >::state_case_width()
PUBLIC 26b01 0 __crt_stdio_output::output_processor<wchar_t,__crt_stdio_output::stream_output_adapter<wchar_t>,__crt_stdio_output::positional_parameter_base<wchar_t,__crt_stdio_output::stream_output_adapter<wchar_t> > >::state_case_width()
PUBLIC 26b52 0 __crt_stdio_output::output_processor<wchar_t,__crt_stdio_output::stream_output_adapter<wchar_t>,__crt_stdio_output::standard_base<wchar_t,__crt_stdio_output::stream_output_adapter<wchar_t> > >::state_case_width()
PUBLIC 26b89 0 __crt_stdio_output::output_processor<wchar_t,__crt_stdio_output::string_output_adapter<wchar_t>,__crt_stdio_output::format_validation_base<wchar_t,__crt_stdio_output::string_output_adapter<wchar_t> > >::state_case_width()
PUBLIC 26bc0 0 __crt_stdio_output::output_processor<wchar_t,__crt_stdio_output::string_output_adapter<wchar_t>,__crt_stdio_output::positional_parameter_base<wchar_t,__crt_stdio_output::string_output_adapter<wchar_t> > >::state_case_width()
PUBLIC 26c11 0 __crt_stdio_output::output_processor<wchar_t,__crt_stdio_output::string_output_adapter<wchar_t>,__crt_stdio_output::standard_base<wchar_t,__crt_stdio_output::string_output_adapter<wchar_t> > >::state_case_width()
PUBLIC 26c48 0 __crt_stdio_output::format_validation_base<char,__crt_stdio_output::stream_output_adapter<char> >::state_count()
PUBLIC 26c4c 0 __crt_stdio_output::format_validation_base<char,__crt_stdio_output::string_output_adapter<char> >::state_count()
PUBLIC 26c50 0 __crt_stdio_output::format_validation_base<wchar_t,__crt_stdio_output::stream_output_adapter<wchar_t> >::state_count()
PUBLIC 26c54 0 __crt_stdio_output::format_validation_base<wchar_t,__crt_stdio_output::string_output_adapter<wchar_t> >::state_count()
PUBLIC 26c58 0 __crt_stdio_output::standard_base<char,__crt_stdio_output::stream_output_adapter<char> >::state_count()
PUBLIC 26c5c 0 __crt_stdio_output::standard_base<char,__crt_stdio_output::string_output_adapter<char> >::state_count()
PUBLIC 26c60 0 __crt_stdio_output::standard_base<wchar_t,__crt_stdio_output::stream_output_adapter<wchar_t> >::state_count()
PUBLIC 26c64 0 __crt_stdio_output::standard_base<wchar_t,__crt_stdio_output::string_output_adapter<wchar_t> >::state_count()
PUBLIC 26c68 0 __crt_stdio_output::format_validation_base<char,__crt_stdio_output::stream_output_adapter<char> >::state_transition_table()
PUBLIC 26c6e 0 __crt_stdio_output::format_validation_base<char,__crt_stdio_output::string_output_adapter<char> >::state_transition_table()
PUBLIC 26c74 0 __crt_stdio_output::format_validation_base<wchar_t,__crt_stdio_output::stream_output_adapter<wchar_t> >::state_transition_table()
PUBLIC 26c7a 0 __crt_stdio_output::format_validation_base<wchar_t,__crt_stdio_output::string_output_adapter<wchar_t> >::state_transition_table()
PUBLIC 26c80 0 __crt_stdio_output::standard_base<char,__crt_stdio_output::stream_output_adapter<char> >::state_transition_table()
PUBLIC 26c86 0 __crt_stdio_output::standard_base<char,__crt_stdio_output::string_output_adapter<char> >::state_transition_table()
PUBLIC 26c8c 0 __crt_stdio_output::standard_base<wchar_t,__crt_stdio_output::stream_output_adapter<wchar_t> >::state_transition_table()
PUBLIC 26c92 0 __crt_stdio_output::standard_base<wchar_t,__crt_stdio_output::string_output_adapter<wchar_t> >::state_transition_table()
PUBLIC 26c98 0 __crt_stdio_output::common_data<char>::tchar_string(char)
PUBLIC 26c9e 0 __crt_stdio_output::common_data<char>::tchar_string()
PUBLIC 26ca2 0 __crt_stdio_output::common_data<wchar_t>::tchar_string()
PUBLIC 26ca6 0 __crt_stdio_output::common_data<wchar_t>::tchar_string(wchar_t)
PUBLIC 26cac 0 __crt_stdio_output::to_integer_size(__crt_stdio_output::length_modifier)
PUBLIC 26d15 0 __crt_stdio_output::output_processor<char,__crt_stdio_output::stream_output_adapter<char>,__crt_stdio_output::format_validation_base<char,__crt_stdio_output::stream_output_adapter<char> > >::type_case_X()
PUBLIC 26d21 0 __crt_stdio_output::output_processor<char,__crt_stdio_output::stream_output_adapter<char>,__crt_stdio_output::positional_parameter_base<char,__crt_stdio_output::stream_output_adapter<char> > >::type_case_X()
PUBLIC 26d2d 0 __crt_stdio_output::output_processor<char,__crt_stdio_output::stream_output_adapter<char>,__crt_stdio_output::standard_base<char,__crt_stdio_output::stream_output_adapter<char> > >::type_case_X()
PUBLIC 26d39 0 __crt_stdio_output::output_processor<char,__crt_stdio_output::string_output_adapter<char>,__crt_stdio_output::format_validation_base<char,__crt_stdio_output::string_output_adapter<char> > >::type_case_X()
PUBLIC 26d45 0 __crt_stdio_output::output_processor<char,__crt_stdio_output::string_output_adapter<char>,__crt_stdio_output::positional_parameter_base<char,__crt_stdio_output::string_output_adapter<char> > >::type_case_X()
PUBLIC 26d51 0 __crt_stdio_output::output_processor<char,__crt_stdio_output::string_output_adapter<char>,__crt_stdio_output::standard_base<char,__crt_stdio_output::string_output_adapter<char> > >::type_case_X()
PUBLIC 26d5d 0 __crt_stdio_output::output_processor<wchar_t,__crt_stdio_output::stream_output_adapter<wchar_t>,__crt_stdio_output::format_validation_base<wchar_t,__crt_stdio_output::stream_output_adapter<wchar_t> > >::type_case_X()
PUBLIC 26d69 0 __crt_stdio_output::output_processor<wchar_t,__crt_stdio_output::stream_output_adapter<wchar_t>,__crt_stdio_output::positional_parameter_base<wchar_t,__crt_stdio_output::stream_output_adapter<wchar_t> > >::type_case_X()
PUBLIC 26d75 0 __crt_stdio_output::output_processor<wchar_t,__crt_stdio_output::stream_output_adapter<wchar_t>,__crt_stdio_output::standard_base<wchar_t,__crt_stdio_output::stream_output_adapter<wchar_t> > >::type_case_X()
PUBLIC 26d81 0 __crt_stdio_output::output_processor<wchar_t,__crt_stdio_output::string_output_adapter<wchar_t>,__crt_stdio_output::format_validation_base<wchar_t,__crt_stdio_output::string_output_adapter<wchar_t> > >::type_case_X()
PUBLIC 26d8d 0 __crt_stdio_output::output_processor<wchar_t,__crt_stdio_output::string_output_adapter<wchar_t>,__crt_stdio_output::positional_parameter_base<wchar_t,__crt_stdio_output::string_output_adapter<wchar_t> > >::type_case_X()
PUBLIC 26d99 0 __crt_stdio_output::output_processor<wchar_t,__crt_stdio_output::string_output_adapter<wchar_t>,__crt_stdio_output::standard_base<wchar_t,__crt_stdio_output::string_output_adapter<wchar_t> > >::type_case_X()
PUBLIC 26da5 0 __crt_stdio_output::output_processor<char,__crt_stdio_output::stream_output_adapter<char>,__crt_stdio_output::format_validation_base<char,__crt_stdio_output::stream_output_adapter<char> > >::type_case_Z()
PUBLIC 26e15 0 __crt_stdio_output::output_processor<char,__crt_stdio_output::stream_output_adapter<char>,__crt_stdio_output::positional_parameter_base<char,__crt_stdio_output::stream_output_adapter<char> > >::type_case_Z()
PUBLIC 26f23 0 __crt_stdio_output::output_processor<char,__crt_stdio_output::stream_output_adapter<char>,__crt_stdio_output::standard_base<char,__crt_stdio_output::stream_output_adapter<char> > >::type_case_Z()
PUBLIC 26f93 0 __crt_stdio_output::output_processor<char,__crt_stdio_output::string_output_adapter<char>,__crt_stdio_output::format_validation_base<char,__crt_stdio_output::string_output_adapter<char> > >::type_case_Z()
PUBLIC 27003 0 __crt_stdio_output::output_processor<char,__crt_stdio_output::string_output_adapter<char>,__crt_stdio_output::positional_parameter_base<char,__crt_stdio_output::string_output_adapter<char> > >::type_case_Z()
PUBLIC 27111 0 __crt_stdio_output::output_processor<char,__crt_stdio_output::string_output_adapter<char>,__crt_stdio_output::standard_base<char,__crt_stdio_output::string_output_adapter<char> > >::type_case_Z()
PUBLIC 27181 0 __crt_stdio_output::output_processor<wchar_t,__crt_stdio_output::stream_output_adapter<wchar_t>,__crt_stdio_output::format_validation_base<wchar_t,__crt_stdio_output::stream_output_adapter<wchar_t> > >::type_case_Z()
PUBLIC 271f1 0 __crt_stdio_output::output_processor<wchar_t,__crt_stdio_output::stream_output_adapter<wchar_t>,__crt_stdio_output::positional_parameter_base<wchar_t,__crt_stdio_output::stream_output_adapter<wchar_t> > >::type_case_Z()
PUBLIC 272ff 0 __crt_stdio_output::output_processor<wchar_t,__crt_stdio_output::stream_output_adapter<wchar_t>,__crt_stdio_output::standard_base<wchar_t,__crt_stdio_output::stream_output_adapter<wchar_t> > >::type_case_Z()
PUBLIC 2736f 0 __crt_stdio_output::output_processor<wchar_t,__crt_stdio_output::string_output_adapter<wchar_t>,__crt_stdio_output::format_validation_base<wchar_t,__crt_stdio_output::string_output_adapter<wchar_t> > >::type_case_Z()
PUBLIC 273df 0 __crt_stdio_output::output_processor<wchar_t,__crt_stdio_output::string_output_adapter<wchar_t>,__crt_stdio_output::positional_parameter_base<wchar_t,__crt_stdio_output::string_output_adapter<wchar_t> > >::type_case_Z()
PUBLIC 274ed 0 __crt_stdio_output::output_processor<wchar_t,__crt_stdio_output::string_output_adapter<wchar_t>,__crt_stdio_output::standard_base<wchar_t,__crt_stdio_output::string_output_adapter<wchar_t> > >::type_case_Z()
PUBLIC 2755d 0 __crt_stdio_output::output_processor<char,__crt_stdio_output::stream_output_adapter<char>,__crt_stdio_output::format_validation_base<char,__crt_stdio_output::stream_output_adapter<char> > >::type_case_a()
PUBLIC 276ff 0 __crt_stdio_output::output_processor<char,__crt_stdio_output::stream_output_adapter<char>,__crt_stdio_output::positional_parameter_base<char,__crt_stdio_output::stream_output_adapter<char> > >::type_case_a()
PUBLIC 278d8 0 __crt_stdio_output::output_processor<char,__crt_stdio_output::stream_output_adapter<char>,__crt_stdio_output::standard_base<char,__crt_stdio_output::stream_output_adapter<char> > >::type_case_a()
PUBLIC 27a7a 0 __crt_stdio_output::output_processor<char,__crt_stdio_output::string_output_adapter<char>,__crt_stdio_output::format_validation_base<char,__crt_stdio_output::string_output_adapter<char> > >::type_case_a()
PUBLIC 27c1c 0 __crt_stdio_output::output_processor<char,__crt_stdio_output::string_output_adapter<char>,__crt_stdio_output::positional_parameter_base<char,__crt_stdio_output::string_output_adapter<char> > >::type_case_a()
PUBLIC 27df5 0 __crt_stdio_output::output_processor<char,__crt_stdio_output::string_output_adapter<char>,__crt_stdio_output::standard_base<char,__crt_stdio_output::string_output_adapter<char> > >::type_case_a()
PUBLIC 27f97 0 __crt_stdio_output::output_processor<wchar_t,__crt_stdio_output::stream_output_adapter<wchar_t>,__crt_stdio_output::format_validation_base<wchar_t,__crt_stdio_output::stream_output_adapter<wchar_t> > >::type_case_a()
PUBLIC 28155 0 __crt_stdio_output::output_processor<wchar_t,__crt_stdio_output::stream_output_adapter<wchar_t>,__crt_stdio_output::positional_parameter_base<wchar_t,__crt_stdio_output::stream_output_adapter<wchar_t> > >::type_case_a()
PUBLIC 2834a 0 __crt_stdio_output::output_processor<wchar_t,__crt_stdio_output::stream_output_adapter<wchar_t>,__crt_stdio_output::standard_base<wchar_t,__crt_stdio_output::stream_output_adapter<wchar_t> > >::type_case_a()
PUBLIC 28508 0 __crt_stdio_output::output_processor<wchar_t,__crt_stdio_output::string_output_adapter<wchar_t>,__crt_stdio_output::format_validation_base<wchar_t,__crt_stdio_output::string_output_adapter<wchar_t> > >::type_case_a()
PUBLIC 286c6 0 __crt_stdio_output::output_processor<wchar_t,__crt_stdio_output::string_output_adapter<wchar_t>,__crt_stdio_output::positional_parameter_base<wchar_t,__crt_stdio_output::string_output_adapter<wchar_t> > >::type_case_a()
PUBLIC 288bb 0 __crt_stdio_output::output_processor<wchar_t,__crt_stdio_output::string_output_adapter<wchar_t>,__crt_stdio_output::standard_base<wchar_t,__crt_stdio_output::string_output_adapter<wchar_t> > >::type_case_a()
PUBLIC 28a79 0 __crt_stdio_output::output_processor<char,__crt_stdio_output::stream_output_adapter<char>,__crt_stdio_output::format_validation_base<char,__crt_stdio_output::stream_output_adapter<char> > >::type_case_c()
PUBLIC 28a83 0 __crt_stdio_output::output_processor<char,__crt_stdio_output::stream_output_adapter<char>,__crt_stdio_output::positional_parameter_base<char,__crt_stdio_output::stream_output_adapter<char> > >::type_case_c()
PUBLIC 28a8d 0 __crt_stdio_output::output_processor<char,__crt_stdio_output::stream_output_adapter<char>,__crt_stdio_output::standard_base<char,__crt_stdio_output::stream_output_adapter<char> > >::type_case_c()
PUBLIC 28a97 0 __crt_stdio_output::output_processor<char,__crt_stdio_output::string_output_adapter<char>,__crt_stdio_output::format_validation_base<char,__crt_stdio_output::string_output_adapter<char> > >::type_case_c()
PUBLIC 28aa1 0 __crt_stdio_output::output_processor<char,__crt_stdio_output::string_output_adapter<char>,__crt_stdio_output::positional_parameter_base<char,__crt_stdio_output::string_output_adapter<char> > >::type_case_c()
PUBLIC 28aab 0 __crt_stdio_output::output_processor<char,__crt_stdio_output::string_output_adapter<char>,__crt_stdio_output::standard_base<char,__crt_stdio_output::string_output_adapter<char> > >::type_case_c()
PUBLIC 28ab5 0 __crt_stdio_output::output_processor<wchar_t,__crt_stdio_output::stream_output_adapter<wchar_t>,__crt_stdio_output::format_validation_base<wchar_t,__crt_stdio_output::stream_output_adapter<wchar_t> > >::type_case_c()
PUBLIC 28abf 0 __crt_stdio_output::output_processor<wchar_t,__crt_stdio_output::stream_output_adapter<wchar_t>,__crt_stdio_output::positional_parameter_base<wchar_t,__crt_stdio_output::stream_output_adapter<wchar_t> > >::type_case_c()
PUBLIC 28ac9 0 __crt_stdio_output::output_processor<wchar_t,__crt_stdio_output::stream_output_adapter<wchar_t>,__crt_stdio_output::standard_base<wchar_t,__crt_stdio_output::stream_output_adapter<wchar_t> > >::type_case_c()
PUBLIC 28ad3 0 __crt_stdio_output::output_processor<wchar_t,__crt_stdio_output::string_output_adapter<wchar_t>,__crt_stdio_output::format_validation_base<wchar_t,__crt_stdio_output::string_output_adapter<wchar_t> > >::type_case_c()
PUBLIC 28add 0 __crt_stdio_output::output_processor<wchar_t,__crt_stdio_output::string_output_adapter<wchar_t>,__crt_stdio_output::positional_parameter_base<wchar_t,__crt_stdio_output::string_output_adapter<wchar_t> > >::type_case_c()
PUBLIC 28ae7 0 __crt_stdio_output::output_processor<wchar_t,__crt_stdio_output::string_output_adapter<wchar_t>,__crt_stdio_output::standard_base<wchar_t,__crt_stdio_output::string_output_adapter<wchar_t> > >::type_case_c()
PUBLIC 28af1 0 __crt_stdio_output::output_processor<char,__crt_stdio_output::stream_output_adapter<char>,__crt_stdio_output::format_validation_base<char,__crt_stdio_output::stream_output_adapter<char> > >::type_case_c_tchar(char)
PUBLIC 28ba5 0 __crt_stdio_output::output_processor<char,__crt_stdio_output::stream_output_adapter<char>,__crt_stdio_output::positional_parameter_base<char,__crt_stdio_output::stream_output_adapter<char> > >::type_case_c_tchar(char)
PUBLIC 28c92 0 __crt_stdio_output::output_processor<char,__crt_stdio_output::stream_output_adapter<char>,__crt_stdio_output::standard_base<char,__crt_stdio_output::stream_output_adapter<char> > >::type_case_c_tchar(char)
PUBLIC 28d46 0 __crt_stdio_output::output_processor<char,__crt_stdio_output::string_output_adapter<char>,__crt_stdio_output::format_validation_base<char,__crt_stdio_output::string_output_adapter<char> > >::type_case_c_tchar(char)
PUBLIC 28dfa 0 __crt_stdio_output::output_processor<char,__crt_stdio_output::string_output_adapter<char>,__crt_stdio_output::positional_parameter_base<char,__crt_stdio_output::string_output_adapter<char> > >::type_case_c_tchar(char)
PUBLIC 28ee7 0 __crt_stdio_output::output_processor<char,__crt_stdio_output::string_output_adapter<char>,__crt_stdio_output::standard_base<char,__crt_stdio_output::string_output_adapter<char> > >::type_case_c_tchar(char)
PUBLIC 28f9b 0 __crt_stdio_output::output_processor<wchar_t,__crt_stdio_output::stream_output_adapter<wchar_t>,__crt_stdio_output::format_validation_base<wchar_t,__crt_stdio_output::stream_output_adapter<wchar_t> > >::type_case_c_tchar(wchar_t)
PUBLIC 29056 0 __crt_stdio_output::output_processor<wchar_t,__crt_stdio_output::stream_output_adapter<wchar_t>,__crt_stdio_output::positional_parameter_base<wchar_t,__crt_stdio_output::stream_output_adapter<wchar_t> > >::type_case_c_tchar(wchar_t)
PUBLIC 2912e 0 __crt_stdio_output::output_processor<wchar_t,__crt_stdio_output::stream_output_adapter<wchar_t>,__crt_stdio_output::standard_base<wchar_t,__crt_stdio_output::stream_output_adapter<wchar_t> > >::type_case_c_tchar(wchar_t)
PUBLIC 291e9 0 __crt_stdio_output::output_processor<wchar_t,__crt_stdio_output::string_output_adapter<wchar_t>,__crt_stdio_output::format_validation_base<wchar_t,__crt_stdio_output::string_output_adapter<wchar_t> > >::type_case_c_tchar(wchar_t)
PUBLIC 292a4 0 __crt_stdio_output::output_processor<wchar_t,__crt_stdio_output::string_output_adapter<wchar_t>,__crt_stdio_output::positional_parameter_base<wchar_t,__crt_stdio_output::string_output_adapter<wchar_t> > >::type_case_c_tchar(wchar_t)
PUBLIC 2937c 0 __crt_stdio_output::output_processor<wchar_t,__crt_stdio_output::string_output_adapter<wchar_t>,__crt_stdio_output::standard_base<wchar_t,__crt_stdio_output::string_output_adapter<wchar_t> > >::type_case_c_tchar(wchar_t)
PUBLIC 29437 0 __crt_stdio_output::output_processor<char,__crt_stdio_output::stream_output_adapter<char>,__crt_stdio_output::format_validation_base<char,__crt_stdio_output::stream_output_adapter<char> > >::type_case_d()
PUBLIC 29448 0 __crt_stdio_output::output_processor<char,__crt_stdio_output::stream_output_adapter<char>,__crt_stdio_output::positional_parameter_base<char,__crt_stdio_output::stream_output_adapter<char> > >::type_case_d()
PUBLIC 29459 0 __crt_stdio_output::output_processor<char,__crt_stdio_output::stream_output_adapter<char>,__crt_stdio_output::standard_base<char,__crt_stdio_output::stream_output_adapter<char> > >::type_case_d()
PUBLIC 2946a 0 __crt_stdio_output::output_processor<char,__crt_stdio_output::string_output_adapter<char>,__crt_stdio_output::format_validation_base<char,__crt_stdio_output::string_output_adapter<char> > >::type_case_d()
PUBLIC 2947b 0 __crt_stdio_output::output_processor<char,__crt_stdio_output::string_output_adapter<char>,__crt_stdio_output::positional_parameter_base<char,__crt_stdio_output::string_output_adapter<char> > >::type_case_d()
PUBLIC 2948c 0 __crt_stdio_output::output_processor<char,__crt_stdio_output::string_output_adapter<char>,__crt_stdio_output::standard_base<char,__crt_stdio_output::string_output_adapter<char> > >::type_case_d()
PUBLIC 2949d 0 __crt_stdio_output::output_processor<wchar_t,__crt_stdio_output::stream_output_adapter<wchar_t>,__crt_stdio_output::format_validation_base<wchar_t,__crt_stdio_output::stream_output_adapter<wchar_t> > >::type_case_d()
PUBLIC 294ae 0 __crt_stdio_output::output_processor<wchar_t,__crt_stdio_output::stream_output_adapter<wchar_t>,__crt_stdio_output::positional_parameter_base<wchar_t,__crt_stdio_output::stream_output_adapter<wchar_t> > >::type_case_d()
PUBLIC 294bf 0 __crt_stdio_output::output_processor<wchar_t,__crt_stdio_output::stream_output_adapter<wchar_t>,__crt_stdio_output::standard_base<wchar_t,__crt_stdio_output::stream_output_adapter<wchar_t> > >::type_case_d()
PUBLIC 294d0 0 __crt_stdio_output::output_processor<wchar_t,__crt_stdio_output::string_output_adapter<wchar_t>,__crt_stdio_output::format_validation_base<wchar_t,__crt_stdio_output::string_output_adapter<wchar_t> > >::type_case_d()
PUBLIC 294e1 0 __crt_stdio_output::output_processor<wchar_t,__crt_stdio_output::string_output_adapter<wchar_t>,__crt_stdio_output::positional_parameter_base<wchar_t,__crt_stdio_output::string_output_adapter<wchar_t> > >::type_case_d()
PUBLIC 294f2 0 __crt_stdio_output::output_processor<wchar_t,__crt_stdio_output::string_output_adapter<wchar_t>,__crt_stdio_output::standard_base<wchar_t,__crt_stdio_output::string_output_adapter<wchar_t> > >::type_case_d()
PUBLIC 29503 0 __crt_stdio_output::output_processor<char,__crt_stdio_output::stream_output_adapter<char>,__crt_stdio_output::format_validation_base<char,__crt_stdio_output::stream_output_adapter<char> > >::type_case_integer(unsigned int,bool)
PUBLIC 296a8 0 __crt_stdio_output::output_processor<char,__crt_stdio_output::stream_output_adapter<char>,__crt_stdio_output::positional_parameter_base<char,__crt_stdio_output::stream_output_adapter<char> > >::type_case_integer(unsigned int,bool)
PUBLIC 29889 0 __crt_stdio_output::output_processor<char,__crt_stdio_output::stream_output_adapter<char>,__crt_stdio_output::standard_base<char,__crt_stdio_output::stream_output_adapter<char> > >::type_case_integer(unsigned int,bool)
PUBLIC 29a2e 0 __crt_stdio_output::output_processor<char,__crt_stdio_output::string_output_adapter<char>,__crt_stdio_output::format_validation_base<char,__crt_stdio_output::string_output_adapter<char> > >::type_case_integer(unsigned int,bool)
PUBLIC 29bd3 0 __crt_stdio_output::output_processor<char,__crt_stdio_output::string_output_adapter<char>,__crt_stdio_output::positional_parameter_base<char,__crt_stdio_output::string_output_adapter<char> > >::type_case_integer(unsigned int,bool)
PUBLIC 29db4 0 __crt_stdio_output::output_processor<char,__crt_stdio_output::string_output_adapter<char>,__crt_stdio_output::standard_base<char,__crt_stdio_output::string_output_adapter<char> > >::type_case_integer(unsigned int,bool)
PUBLIC 29f59 0 __crt_stdio_output::output_processor<wchar_t,__crt_stdio_output::stream_output_adapter<wchar_t>,__crt_stdio_output::format_validation_base<wchar_t,__crt_stdio_output::stream_output_adapter<wchar_t> > >::type_case_integer(unsigned int,bool)
PUBLIC 2a103 0 __crt_stdio_output::output_processor<wchar_t,__crt_stdio_output::stream_output_adapter<wchar_t>,__crt_stdio_output::positional_parameter_base<wchar_t,__crt_stdio_output::stream_output_adapter<wchar_t> > >::type_case_integer(unsigned int,bool)
PUBLIC 2a2e9 0 __crt_stdio_output::output_processor<wchar_t,__crt_stdio_output::stream_output_adapter<wchar_t>,__crt_stdio_output::standard_base<wchar_t,__crt_stdio_output::stream_output_adapter<wchar_t> > >::type_case_integer(unsigned int,bool)
PUBLIC 2a493 0 __crt_stdio_output::output_processor<wchar_t,__crt_stdio_output::string_output_adapter<wchar_t>,__crt_stdio_output::format_validation_base<wchar_t,__crt_stdio_output::string_output_adapter<wchar_t> > >::type_case_integer(unsigned int,bool)
PUBLIC 2a63d 0 __crt_stdio_output::output_processor<wchar_t,__crt_stdio_output::string_output_adapter<wchar_t>,__crt_stdio_output::positional_parameter_base<wchar_t,__crt_stdio_output::string_output_adapter<wchar_t> > >::type_case_integer(unsigned int,bool)
PUBLIC 2a823 0 __crt_stdio_output::output_processor<wchar_t,__crt_stdio_output::string_output_adapter<wchar_t>,__crt_stdio_output::standard_base<wchar_t,__crt_stdio_output::string_output_adapter<wchar_t> > >::type_case_integer(unsigned int,bool)
PUBLIC 2a9cd 0 __crt_stdio_output::output_processor<char,__crt_stdio_output::stream_output_adapter<char>,__crt_stdio_output::format_validation_base<char,__crt_stdio_output::stream_output_adapter<char> > >::type_case_n()
PUBLIC 2aa5e 0 __crt_stdio_output::output_processor<char,__crt_stdio_output::stream_output_adapter<char>,__crt_stdio_output::positional_parameter_base<char,__crt_stdio_output::stream_output_adapter<char> > >::type_case_n()
PUBLIC 2ab1a 0 __crt_stdio_output::output_processor<char,__crt_stdio_output::stream_output_adapter<char>,__crt_stdio_output::standard_base<char,__crt_stdio_output::stream_output_adapter<char> > >::type_case_n()
PUBLIC 2abab 0 __crt_stdio_output::output_processor<char,__crt_stdio_output::string_output_adapter<char>,__crt_stdio_output::format_validation_base<char,__crt_stdio_output::string_output_adapter<char> > >::type_case_n()
PUBLIC 2ac3c 0 __crt_stdio_output::output_processor<char,__crt_stdio_output::string_output_adapter<char>,__crt_stdio_output::positional_parameter_base<char,__crt_stdio_output::string_output_adapter<char> > >::type_case_n()
PUBLIC 2acf8 0 __crt_stdio_output::output_processor<char,__crt_stdio_output::string_output_adapter<char>,__crt_stdio_output::standard_base<char,__crt_stdio_output::string_output_adapter<char> > >::type_case_n()
PUBLIC 2ad89 0 __crt_stdio_output::output_processor<wchar_t,__crt_stdio_output::stream_output_adapter<wchar_t>,__crt_stdio_output::format_validation_base<wchar_t,__crt_stdio_output::stream_output_adapter<wchar_t> > >::type_case_n()
PUBLIC 2ae1a 0 __crt_stdio_output::output_processor<wchar_t,__crt_stdio_output::stream_output_adapter<wchar_t>,__crt_stdio_output::positional_parameter_base<wchar_t,__crt_stdio_output::stream_output_adapter<wchar_t> > >::type_case_n()
PUBLIC 2aed6 0 __crt_stdio_output::output_processor<wchar_t,__crt_stdio_output::stream_output_adapter<wchar_t>,__crt_stdio_output::standard_base<wchar_t,__crt_stdio_output::stream_output_adapter<wchar_t> > >::type_case_n()
PUBLIC 2af67 0 __crt_stdio_output::output_processor<wchar_t,__crt_stdio_output::string_output_adapter<wchar_t>,__crt_stdio_output::format_validation_base<wchar_t,__crt_stdio_output::string_output_adapter<wchar_t> > >::type_case_n()
PUBLIC 2aff8 0 __crt_stdio_output::output_processor<wchar_t,__crt_stdio_output::string_output_adapter<wchar_t>,__crt_stdio_output::positional_parameter_base<wchar_t,__crt_stdio_output::string_output_adapter<wchar_t> > >::type_case_n()
PUBLIC 2b0b4 0 __crt_stdio_output::output_processor<wchar_t,__crt_stdio_output::string_output_adapter<wchar_t>,__crt_stdio_output::standard_base<wchar_t,__crt_stdio_output::string_output_adapter<wchar_t> > >::type_case_n()
PUBLIC 2b145 0 __crt_stdio_output::output_processor<char,__crt_stdio_output::stream_output_adapter<char>,__crt_stdio_output::format_validation_base<char,__crt_stdio_output::stream_output_adapter<char> > >::type_case_o()
PUBLIC 2b16b 0 __crt_stdio_output::output_processor<char,__crt_stdio_output::stream_output_adapter<char>,__crt_stdio_output::positional_parameter_base<char,__crt_stdio_output::stream_output_adapter<char> > >::type_case_o()
PUBLIC 2b191 0 __crt_stdio_output::output_processor<char,__crt_stdio_output::stream_output_adapter<char>,__crt_stdio_output::standard_base<char,__crt_stdio_output::stream_output_adapter<char> > >::type_case_o()
PUBLIC 2b1b7 0 __crt_stdio_output::output_processor<char,__crt_stdio_output::string_output_adapter<char>,__crt_stdio_output::format_validation_base<char,__crt_stdio_output::string_output_adapter<char> > >::type_case_o()
PUBLIC 2b1dd 0 __crt_stdio_output::output_processor<char,__crt_stdio_output::string_output_adapter<char>,__crt_stdio_output::positional_parameter_base<char,__crt_stdio_output::string_output_adapter<char> > >::type_case_o()
PUBLIC 2b203 0 __crt_stdio_output::output_processor<char,__crt_stdio_output::string_output_adapter<char>,__crt_stdio_output::standard_base<char,__crt_stdio_output::string_output_adapter<char> > >::type_case_o()
PUBLIC 2b229 0 __crt_stdio_output::output_processor<wchar_t,__crt_stdio_output::stream_output_adapter<wchar_t>,__crt_stdio_output::format_validation_base<wchar_t,__crt_stdio_output::stream_output_adapter<wchar_t> > >::type_case_o()
PUBLIC 2b24f 0 __crt_stdio_output::output_processor<wchar_t,__crt_stdio_output::stream_output_adapter<wchar_t>,__crt_stdio_output::positional_parameter_base<wchar_t,__crt_stdio_output::stream_output_adapter<wchar_t> > >::type_case_o()
PUBLIC 2b275 0 __crt_stdio_output::output_processor<wchar_t,__crt_stdio_output::stream_output_adapter<wchar_t>,__crt_stdio_output::standard_base<wchar_t,__crt_stdio_output::stream_output_adapter<wchar_t> > >::type_case_o()
PUBLIC 2b29b 0 __crt_stdio_output::output_processor<wchar_t,__crt_stdio_output::string_output_adapter<wchar_t>,__crt_stdio_output::format_validation_base<wchar_t,__crt_stdio_output::string_output_adapter<wchar_t> > >::type_case_o()
PUBLIC 2b2c1 0 __crt_stdio_output::output_processor<wchar_t,__crt_stdio_output::string_output_adapter<wchar_t>,__crt_stdio_output::positional_parameter_base<wchar_t,__crt_stdio_output::string_output_adapter<wchar_t> > >::type_case_o()
PUBLIC 2b2e7 0 __crt_stdio_output::output_processor<wchar_t,__crt_stdio_output::string_output_adapter<wchar_t>,__crt_stdio_output::standard_base<wchar_t,__crt_stdio_output::string_output_adapter<wchar_t> > >::type_case_o()
PUBLIC 2b30d 0 __crt_stdio_output::output_processor<char,__crt_stdio_output::stream_output_adapter<char>,__crt_stdio_output::format_validation_base<char,__crt_stdio_output::stream_output_adapter<char> > >::type_case_p()
PUBLIC 2b32b 0 __crt_stdio_output::output_processor<char,__crt_stdio_output::stream_output_adapter<char>,__crt_stdio_output::positional_parameter_base<char,__crt_stdio_output::stream_output_adapter<char> > >::type_case_p()
PUBLIC 2b349 0 __crt_stdio_output::output_processor<char,__crt_stdio_output::stream_output_adapter<char>,__crt_stdio_output::standard_base<char,__crt_stdio_output::stream_output_adapter<char> > >::type_case_p()
PUBLIC 2b367 0 __crt_stdio_output::output_processor<char,__crt_stdio_output::string_output_adapter<char>,__crt_stdio_output::format_validation_base<char,__crt_stdio_output::string_output_adapter<char> > >::type_case_p()
PUBLIC 2b385 0 __crt_stdio_output::output_processor<char,__crt_stdio_output::string_output_adapter<char>,__crt_stdio_output::positional_parameter_base<char,__crt_stdio_output::string_output_adapter<char> > >::type_case_p()
PUBLIC 2b3a3 0 __crt_stdio_output::output_processor<char,__crt_stdio_output::string_output_adapter<char>,__crt_stdio_output::standard_base<char,__crt_stdio_output::string_output_adapter<char> > >::type_case_p()
PUBLIC 2b3c1 0 __crt_stdio_output::output_processor<wchar_t,__crt_stdio_output::stream_output_adapter<wchar_t>,__crt_stdio_output::format_validation_base<wchar_t,__crt_stdio_output::stream_output_adapter<wchar_t> > >::type_case_p()
PUBLIC 2b3df 0 __crt_stdio_output::output_processor<wchar_t,__crt_stdio_output::stream_output_adapter<wchar_t>,__crt_stdio_output::positional_parameter_base<wchar_t,__crt_stdio_output::stream_output_adapter<wchar_t> > >::type_case_p()
PUBLIC 2b3fd 0 __crt_stdio_output::output_processor<wchar_t,__crt_stdio_output::stream_output_adapter<wchar_t>,__crt_stdio_output::standard_base<wchar_t,__crt_stdio_output::stream_output_adapter<wchar_t> > >::type_case_p()
PUBLIC 2b41b 0 __crt_stdio_output::output_processor<wchar_t,__crt_stdio_output::string_output_adapter<wchar_t>,__crt_stdio_output::format_validation_base<wchar_t,__crt_stdio_output::string_output_adapter<wchar_t> > >::type_case_p()
PUBLIC 2b439 0 __crt_stdio_output::output_processor<wchar_t,__crt_stdio_output::string_output_adapter<wchar_t>,__crt_stdio_output::positional_parameter_base<wchar_t,__crt_stdio_output::string_output_adapter<wchar_t> > >::type_case_p()
PUBLIC 2b457 0 __crt_stdio_output::output_processor<wchar_t,__crt_stdio_output::string_output_adapter<wchar_t>,__crt_stdio_output::standard_base<wchar_t,__crt_stdio_output::string_output_adapter<wchar_t> > >::type_case_p()
PUBLIC 2b475 0 __crt_stdio_output::output_processor<char,__crt_stdio_output::stream_output_adapter<char>,__crt_stdio_output::format_validation_base<char,__crt_stdio_output::stream_output_adapter<char> > >::type_case_s()
PUBLIC 2b502 0 __crt_stdio_output::output_processor<char,__crt_stdio_output::stream_output_adapter<char>,__crt_stdio_output::positional_parameter_base<char,__crt_stdio_output::stream_output_adapter<char> > >::type_case_s()
PUBLIC 2b59f 0 __crt_stdio_output::output_processor<char,__crt_stdio_output::stream_output_adapter<char>,__crt_stdio_output::standard_base<char,__crt_stdio_output::stream_output_adapter<char> > >::type_case_s()
PUBLIC 2b62c 0 __crt_stdio_output::output_processor<char,__crt_stdio_output::string_output_adapter<char>,__crt_stdio_output::format_validation_base<char,__crt_stdio_output::string_output_adapter<char> > >::type_case_s()
PUBLIC 2b6b9 0 __crt_stdio_output::output_processor<char,__crt_stdio_output::string_output_adapter<char>,__crt_stdio_output::positional_parameter_base<char,__crt_stdio_output::string_output_adapter<char> > >::type_case_s()
PUBLIC 2b756 0 __crt_stdio_output::output_processor<char,__crt_stdio_output::string_output_adapter<char>,__crt_stdio_output::standard_base<char,__crt_stdio_output::string_output_adapter<char> > >::type_case_s()
PUBLIC 2b7e3 0 __crt_stdio_output::output_processor<wchar_t,__crt_stdio_output::stream_output_adapter<wchar_t>,__crt_stdio_output::format_validation_base<wchar_t,__crt_stdio_output::stream_output_adapter<wchar_t> > >::type_case_s()
PUBLIC 2b872 0 __crt_stdio_output::output_processor<wchar_t,__crt_stdio_output::stream_output_adapter<wchar_t>,__crt_stdio_output::positional_parameter_base<wchar_t,__crt_stdio_output::stream_output_adapter<wchar_t> > >::type_case_s()
PUBLIC 2b912 0 __crt_stdio_output::output_processor<wchar_t,__crt_stdio_output::stream_output_adapter<wchar_t>,__crt_stdio_output::standard_base<wchar_t,__crt_stdio_output::stream_output_adapter<wchar_t> > >::type_case_s()
PUBLIC 2b9a1 0 __crt_stdio_output::output_processor<wchar_t,__crt_stdio_output::string_output_adapter<wchar_t>,__crt_stdio_output::format_validation_base<wchar_t,__crt_stdio_output::string_output_adapter<wchar_t> > >::type_case_s()
PUBLIC 2ba30 0 __crt_stdio_output::output_processor<wchar_t,__crt_stdio_output::string_output_adapter<wchar_t>,__crt_stdio_output::positional_parameter_base<wchar_t,__crt_stdio_output::string_output_adapter<wchar_t> > >::type_case_s()
PUBLIC 2bad0 0 __crt_stdio_output::output_processor<wchar_t,__crt_stdio_output::string_output_adapter<wchar_t>,__crt_stdio_output::standard_base<wchar_t,__crt_stdio_output::string_output_adapter<wchar_t> > >::type_case_s()
PUBLIC 2bb5f 0 __crt_stdio_output::output_processor<char,__crt_stdio_output::stream_output_adapter<char>,__crt_stdio_output::format_validation_base<char,__crt_stdio_output::stream_output_adapter<char> > >::type_case_s_compute_narrow_string_length(int,char)
PUBLIC 2bb7a 0 __crt_stdio_output::output_processor<char,__crt_stdio_output::stream_output_adapter<char>,__crt_stdio_output::positional_parameter_base<char,__crt_stdio_output::stream_output_adapter<char> > >::type_case_s_compute_narrow_string_length(int,char)
PUBLIC 2bb95 0 __crt_stdio_output::output_processor<char,__crt_stdio_output::stream_output_adapter<char>,__crt_stdio_output::standard_base<char,__crt_stdio_output::stream_output_adapter<char> > >::type_case_s_compute_narrow_string_length(int,char)
PUBLIC 2bbb0 0 __crt_stdio_output::output_processor<char,__crt_stdio_output::string_output_adapter<char>,__crt_stdio_output::format_validation_base<char,__crt_stdio_output::string_output_adapter<char> > >::type_case_s_compute_narrow_string_length(int,char)
PUBLIC 2bbcb 0 __crt_stdio_output::output_processor<char,__crt_stdio_output::string_output_adapter<char>,__crt_stdio_output::positional_parameter_base<char,__crt_stdio_output::string_output_adapter<char> > >::type_case_s_compute_narrow_string_length(int,char)
PUBLIC 2bbe6 0 __crt_stdio_output::output_processor<char,__crt_stdio_output::string_output_adapter<char>,__crt_stdio_output::standard_base<char,__crt_stdio_output::string_output_adapter<char> > >::type_case_s_compute_narrow_string_length(int,char)
PUBLIC 2bc01 0 __crt_stdio_output::output_processor<wchar_t,__crt_stdio_output::stream_output_adapter<wchar_t>,__crt_stdio_output::format_validation_base<wchar_t,__crt_stdio_output::stream_output_adapter<wchar_t> > >::type_case_s_compute_narrow_string_length(int,wchar_t)
PUBLIC 2bc59 0 __crt_stdio_output::output_processor<wchar_t,__crt_stdio_output::stream_output_adapter<wchar_t>,__crt_stdio_output::positional_parameter_base<wchar_t,__crt_stdio_output::stream_output_adapter<wchar_t> > >::type_case_s_compute_narrow_string_length(int,wchar_t)
PUBLIC 2bcb1 0 __crt_stdio_output::output_processor<wchar_t,__crt_stdio_output::stream_output_adapter<wchar_t>,__crt_stdio_output::standard_base<wchar_t,__crt_stdio_output::stream_output_adapter<wchar_t> > >::type_case_s_compute_narrow_string_length(int,wchar_t)
PUBLIC 2bd09 0 __crt_stdio_output::output_processor<wchar_t,__crt_stdio_output::string_output_adapter<wchar_t>,__crt_stdio_output::format_validation_base<wchar_t,__crt_stdio_output::string_output_adapter<wchar_t> > >::type_case_s_compute_narrow_string_length(int,wchar_t)
PUBLIC 2bd61 0 __crt_stdio_output::output_processor<wchar_t,__crt_stdio_output::string_output_adapter<wchar_t>,__crt_stdio_output::positional_parameter_base<wchar_t,__crt_stdio_output::string_output_adapter<wchar_t> > >::type_case_s_compute_narrow_string_length(int,wchar_t)
PUBLIC 2bdb9 0 __crt_stdio_output::output_processor<wchar_t,__crt_stdio_output::string_output_adapter<wchar_t>,__crt_stdio_output::standard_base<wchar_t,__crt_stdio_output::string_output_adapter<wchar_t> > >::type_case_s_compute_narrow_string_length(int,wchar_t)
PUBLIC 2be11 0 __crt_stdio_output::output_processor<char,__crt_stdio_output::stream_output_adapter<char>,__crt_stdio_output::format_validation_base<char,__crt_stdio_output::stream_output_adapter<char> > >::type_case_u()
PUBLIC 2be1d 0 __crt_stdio_output::output_processor<char,__crt_stdio_output::stream_output_adapter<char>,__crt_stdio_output::positional_parameter_base<char,__crt_stdio_output::stream_output_adapter<char> > >::type_case_u()
PUBLIC 2be29 0 __crt_stdio_output::output_processor<char,__crt_stdio_output::stream_output_adapter<char>,__crt_stdio_output::standard_base<char,__crt_stdio_output::stream_output_adapter<char> > >::type_case_u()
PUBLIC 2be35 0 __crt_stdio_output::output_processor<char,__crt_stdio_output::string_output_adapter<char>,__crt_stdio_output::format_validation_base<char,__crt_stdio_output::string_output_adapter<char> > >::type_case_u()
PUBLIC 2be41 0 __crt_stdio_output::output_processor<char,__crt_stdio_output::string_output_adapter<char>,__crt_stdio_output::positional_parameter_base<char,__crt_stdio_output::string_output_adapter<char> > >::type_case_u()
PUBLIC 2be4d 0 __crt_stdio_output::output_processor<char,__crt_stdio_output::string_output_adapter<char>,__crt_stdio_output::standard_base<char,__crt_stdio_output::string_output_adapter<char> > >::type_case_u()
PUBLIC 2be59 0 __crt_stdio_output::output_processor<wchar_t,__crt_stdio_output::stream_output_adapter<wchar_t>,__crt_stdio_output::format_validation_base<wchar_t,__crt_stdio_output::stream_output_adapter<wchar_t> > >::type_case_u()
PUBLIC 2be65 0 __crt_stdio_output::output_processor<wchar_t,__crt_stdio_output::stream_output_adapter<wchar_t>,__crt_stdio_output::positional_parameter_base<wchar_t,__crt_stdio_output::stream_output_adapter<wchar_t> > >::type_case_u()
PUBLIC 2be71 0 __crt_stdio_output::output_processor<wchar_t,__crt_stdio_output::stream_output_adapter<wchar_t>,__crt_stdio_output::standard_base<wchar_t,__crt_stdio_output::stream_output_adapter<wchar_t> > >::type_case_u()
PUBLIC 2be7d 0 __crt_stdio_output::output_processor<wchar_t,__crt_stdio_output::string_output_adapter<wchar_t>,__crt_stdio_output::format_validation_base<wchar_t,__crt_stdio_output::string_output_adapter<wchar_t> > >::type_case_u()
PUBLIC 2be89 0 __crt_stdio_output::output_processor<wchar_t,__crt_stdio_output::string_output_adapter<wchar_t>,__crt_stdio_output::positional_parameter_base<wchar_t,__crt_stdio_output::string_output_adapter<wchar_t> > >::type_case_u()
PUBLIC 2be95 0 __crt_stdio_output::output_processor<wchar_t,__crt_stdio_output::string_output_adapter<wchar_t>,__crt_stdio_output::standard_base<wchar_t,__crt_stdio_output::string_output_adapter<wchar_t> > >::type_case_u()
PUBLIC 2bea1 0 __crt_stdio_output::output_processor<char,__crt_stdio_output::stream_output_adapter<char>,__crt_stdio_output::format_validation_base<char,__crt_stdio_output::stream_output_adapter<char> > >::type_case_x()
PUBLIC 2bead 0 __crt_stdio_output::output_processor<char,__crt_stdio_output::stream_output_adapter<char>,__crt_stdio_output::positional_parameter_base<char,__crt_stdio_output::stream_output_adapter<char> > >::type_case_x()
PUBLIC 2beb9 0 __crt_stdio_output::output_processor<char,__crt_stdio_output::stream_output_adapter<char>,__crt_stdio_output::standard_base<char,__crt_stdio_output::stream_output_adapter<char> > >::type_case_x()
PUBLIC 2bec5 0 __crt_stdio_output::output_processor<char,__crt_stdio_output::string_output_adapter<char>,__crt_stdio_output::format_validation_base<char,__crt_stdio_output::string_output_adapter<char> > >::type_case_x()
PUBLIC 2bed1 0 __crt_stdio_output::output_processor<char,__crt_stdio_output::string_output_adapter<char>,__crt_stdio_output::positional_parameter_base<char,__crt_stdio_output::string_output_adapter<char> > >::type_case_x()
PUBLIC 2bedd 0 __crt_stdio_output::output_processor<char,__crt_stdio_output::string_output_adapter<char>,__crt_stdio_output::standard_base<char,__crt_stdio_output::string_output_adapter<char> > >::type_case_x()
PUBLIC 2bee9 0 __crt_stdio_output::output_processor<wchar_t,__crt_stdio_output::stream_output_adapter<wchar_t>,__crt_stdio_output::format_validation_base<wchar_t,__crt_stdio_output::stream_output_adapter<wchar_t> > >::type_case_x()
PUBLIC 2bef5 0 __crt_stdio_output::output_processor<wchar_t,__crt_stdio_output::stream_output_adapter<wchar_t>,__crt_stdio_output::positional_parameter_base<wchar_t,__crt_stdio_output::stream_output_adapter<wchar_t> > >::type_case_x()
PUBLIC 2bf01 0 __crt_stdio_output::output_processor<wchar_t,__crt_stdio_output::stream_output_adapter<wchar_t>,__crt_stdio_output::standard_base<wchar_t,__crt_stdio_output::stream_output_adapter<wchar_t> > >::type_case_x()
PUBLIC 2bf0d 0 __crt_stdio_output::output_processor<wchar_t,__crt_stdio_output::string_output_adapter<wchar_t>,__crt_stdio_output::format_validation_base<wchar_t,__crt_stdio_output::string_output_adapter<wchar_t> > >::type_case_x()
PUBLIC 2bf19 0 __crt_stdio_output::output_processor<wchar_t,__crt_stdio_output::string_output_adapter<wchar_t>,__crt_stdio_output::positional_parameter_base<wchar_t,__crt_stdio_output::string_output_adapter<wchar_t> > >::type_case_x()
PUBLIC 2bf25 0 __crt_stdio_output::output_processor<wchar_t,__crt_stdio_output::string_output_adapter<wchar_t>,__crt_stdio_output::standard_base<wchar_t,__crt_stdio_output::string_output_adapter<wchar_t> > >::type_case_x()
PUBLIC 2bf31 0 __crt_stdio_output::output_processor<char,__crt_stdio_output::stream_output_adapter<char>,__crt_stdio_output::format_validation_base<char,__crt_stdio_output::stream_output_adapter<char> > >::unset_flag(unsigned int)
PUBLIC 2bf46 0 __crt_stdio_output::output_processor<char,__crt_stdio_output::stream_output_adapter<char>,__crt_stdio_output::positional_parameter_base<char,__crt_stdio_output::stream_output_adapter<char> > >::unset_flag(unsigned int)
PUBLIC 2bf5b 0 __crt_stdio_output::output_processor<char,__crt_stdio_output::stream_output_adapter<char>,__crt_stdio_output::standard_base<char,__crt_stdio_output::stream_output_adapter<char> > >::unset_flag(unsigned int)
PUBLIC 2bf70 0 __crt_stdio_output::output_processor<char,__crt_stdio_output::string_output_adapter<char>,__crt_stdio_output::format_validation_base<char,__crt_stdio_output::string_output_adapter<char> > >::unset_flag(unsigned int)
PUBLIC 2bf85 0 __crt_stdio_output::output_processor<char,__crt_stdio_output::string_output_adapter<char>,__crt_stdio_output::positional_parameter_base<char,__crt_stdio_output::string_output_adapter<char> > >::unset_flag(unsigned int)
PUBLIC 2bf9a 0 __crt_stdio_output::output_processor<char,__crt_stdio_output::string_output_adapter<char>,__crt_stdio_output::standard_base<char,__crt_stdio_output::string_output_adapter<char> > >::unset_flag(unsigned int)
PUBLIC 2bfaf 0 __crt_stdio_output::output_processor<wchar_t,__crt_stdio_output::stream_output_adapter<wchar_t>,__crt_stdio_output::format_validation_base<wchar_t,__crt_stdio_output::stream_output_adapter<wchar_t> > >::unset_flag(unsigned int)
PUBLIC 2bfc4 0 __crt_stdio_output::output_processor<wchar_t,__crt_stdio_output::stream_output_adapter<wchar_t>,__crt_stdio_output::positional_parameter_base<wchar_t,__crt_stdio_output::stream_output_adapter<wchar_t> > >::unset_flag(unsigned int)
PUBLIC 2bfd9 0 __crt_stdio_output::output_processor<wchar_t,__crt_stdio_output::stream_output_adapter<wchar_t>,__crt_stdio_output::standard_base<wchar_t,__crt_stdio_output::stream_output_adapter<wchar_t> > >::unset_flag(unsigned int)
PUBLIC 2bfee 0 __crt_stdio_output::output_processor<wchar_t,__crt_stdio_output::string_output_adapter<wchar_t>,__crt_stdio_output::format_validation_base<wchar_t,__crt_stdio_output::string_output_adapter<wchar_t> > >::unset_flag(unsigned int)
PUBLIC 2c003 0 __crt_stdio_output::output_processor<wchar_t,__crt_stdio_output::string_output_adapter<wchar_t>,__crt_stdio_output::positional_parameter_base<wchar_t,__crt_stdio_output::string_output_adapter<wchar_t> > >::unset_flag(unsigned int)
PUBLIC 2c018 0 __crt_stdio_output::output_processor<wchar_t,__crt_stdio_output::string_output_adapter<wchar_t>,__crt_stdio_output::standard_base<wchar_t,__crt_stdio_output::string_output_adapter<wchar_t> > >::unset_flag(unsigned int)
PUBLIC 2c02d 0 __crt_stdio_output::positional_parameter_base<char,__crt_stdio_output::stream_output_adapter<char> >::update_field_width()
PUBLIC 2c10e 0 __crt_stdio_output::positional_parameter_base<char,__crt_stdio_output::string_output_adapter<char> >::update_field_width()
PUBLIC 2c1ef 0 __crt_stdio_output::positional_parameter_base<wchar_t,__crt_stdio_output::stream_output_adapter<wchar_t> >::update_field_width()
PUBLIC 2c2d1 0 __crt_stdio_output::positional_parameter_base<wchar_t,__crt_stdio_output::string_output_adapter<wchar_t> >::update_field_width()
PUBLIC 2c3b3 0 __crt_stdio_output::standard_base<char,__crt_stdio_output::stream_output_adapter<char> >::update_field_width()
PUBLIC 2c3c7 0 __crt_stdio_output::standard_base<char,__crt_stdio_output::string_output_adapter<char> >::update_field_width()
PUBLIC 2c3db 0 __crt_stdio_output::standard_base<wchar_t,__crt_stdio_output::stream_output_adapter<wchar_t> >::update_field_width()
PUBLIC 2c3ef 0 __crt_stdio_output::standard_base<wchar_t,__crt_stdio_output::string_output_adapter<wchar_t> >::update_field_width()
PUBLIC 2c403 0 __crt_stdio_output::positional_parameter_base<char,__crt_stdio_output::stream_output_adapter<char> >::update_precision()
PUBLIC 2c4e4 0 __crt_stdio_output::positional_parameter_base<char,__crt_stdio_output::string_output_adapter<char> >::update_precision()
PUBLIC 2c5c5 0 __crt_stdio_output::positional_parameter_base<wchar_t,__crt_stdio_output::stream_output_adapter<wchar_t> >::update_precision()
PUBLIC 2c6a7 0 __crt_stdio_output::positional_parameter_base<wchar_t,__crt_stdio_output::string_output_adapter<wchar_t> >::update_precision()
PUBLIC 2c789 0 __crt_stdio_output::standard_base<char,__crt_stdio_output::stream_output_adapter<char> >::update_precision()
PUBLIC 2c79d 0 __crt_stdio_output::standard_base<char,__crt_stdio_output::string_output_adapter<char> >::update_precision()
PUBLIC 2c7b1 0 __crt_stdio_output::standard_base<wchar_t,__crt_stdio_output::stream_output_adapter<wchar_t> >::update_precision()
PUBLIC 2c7c5 0 __crt_stdio_output::standard_base<wchar_t,__crt_stdio_output::string_output_adapter<wchar_t> >::update_precision()
PUBLIC 2c7d9 0 __crt_stdio_stream::valid()
PUBLIC 2c7e0 0 __crt_stdio_output::stream_output_adapter<char>::validate()
PUBLIC 2c809 0 __crt_stdio_output::stream_output_adapter<wchar_t>::validate()
PUBLIC 2c82a 0 __crt_stdio_output::string_output_adapter<char>::validate()
PUBLIC 2c84b 0 __crt_stdio_output::string_output_adapter<wchar_t>::validate()
PUBLIC 2c86c 0 __crt_stdio_output::positional_parameter_base<char,__crt_stdio_output::stream_output_adapter<char> >::validate_and_store_parameter_data(__crt_stdio_output::positional_parameter_base<char,__crt_stdio_output::stream_output_adapter<char> >::parameter_data &,__crt_stdio_output::positional_parameter_base<char,__crt_stdio_output::stream_output_adapter<char> >::parameter_type,char,__crt_stdio_output::length_modifier)
PUBLIC 2c8c9 0 __crt_stdio_output::positional_parameter_base<char,__crt_stdio_output::string_output_adapter<char> >::validate_and_store_parameter_data(__crt_stdio_output::positional_parameter_base<char,__crt_stdio_output::string_output_adapter<char> >::parameter_data &,__crt_stdio_output::positional_parameter_base<char,__crt_stdio_output::string_output_adapter<char> >::parameter_type,char,__crt_stdio_output::length_modifier)
PUBLIC 2c926 0 __crt_stdio_output::positional_parameter_base<wchar_t,__crt_stdio_output::stream_output_adapter<wchar_t> >::validate_and_store_parameter_data(__crt_stdio_output::positional_parameter_base<wchar_t,__crt_stdio_output::stream_output_adapter<wchar_t> >::parameter_data &,__crt_stdio_output::positional_parameter_base<wchar_t,__crt_stdio_output::stream_output_adapter<wchar_t> >::parameter_type,wchar_t,__crt_stdio_output::length_modifier)
PUBLIC 2c986 0 __crt_stdio_output::positional_parameter_base<wchar_t,__crt_stdio_output::string_output_adapter<wchar_t> >::validate_and_store_parameter_data(__crt_stdio_output::positional_parameter_base<wchar_t,__crt_stdio_output::string_output_adapter<wchar_t> >::parameter_data &,__crt_stdio_output::positional_parameter_base<wchar_t,__crt_stdio_output::string_output_adapter<wchar_t> >::parameter_type,wchar_t,__crt_stdio_output::length_modifier)
PUBLIC 2c9e6 0 __crt_stdio_output::positional_parameter_base<char,__crt_stdio_output::stream_output_adapter<char> >::validate_and_update_state_at_beginning_of_format_character()
PUBLIC 2cb1c 0 __crt_stdio_output::positional_parameter_base<char,__crt_stdio_output::string_output_adapter<char> >::validate_and_update_state_at_beginning_of_format_character()
PUBLIC 2cc52 0 __crt_stdio_output::positional_parameter_base<wchar_t,__crt_stdio_output::stream_output_adapter<wchar_t> >::validate_and_update_state_at_beginning_of_format_character()
PUBLIC 2cd93 0 __crt_stdio_output::positional_parameter_base<wchar_t,__crt_stdio_output::string_output_adapter<wchar_t> >::validate_and_update_state_at_beginning_of_format_character()
PUBLIC 2ced4 0 __crt_stdio_output::standard_base<char,__crt_stdio_output::stream_output_adapter<char> >::validate_and_update_state_at_beginning_of_format_character()
PUBLIC 2ced7 0 __crt_stdio_output::standard_base<char,__crt_stdio_output::string_output_adapter<char> >::validate_and_update_state_at_beginning_of_format_character()
PUBLIC 2ceda 0 __crt_stdio_output::standard_base<wchar_t,__crt_stdio_output::stream_output_adapter<wchar_t> >::validate_and_update_state_at_beginning_of_format_character()
PUBLIC 2cedd 0 __crt_stdio_output::standard_base<wchar_t,__crt_stdio_output::string_output_adapter<wchar_t> >::validate_and_update_state_at_beginning_of_format_character()
PUBLIC 2cee0 0 __crt_stdio_output::format_validation_base<char,__crt_stdio_output::stream_output_adapter<char> >::validate_and_update_state_at_end_of_format_string()
PUBLIC 2cf0a 0 __crt_stdio_output::format_validation_base<char,__crt_stdio_output::string_output_adapter<char> >::validate_and_update_state_at_end_of_format_string()
PUBLIC 2cf34 0 __crt_stdio_output::format_validation_base<wchar_t,__crt_stdio_output::stream_output_adapter<wchar_t> >::validate_and_update_state_at_end_of_format_string()
PUBLIC 2cf5e 0 __crt_stdio_output::format_validation_base<wchar_t,__crt_stdio_output::string_output_adapter<wchar_t> >::validate_and_update_state_at_end_of_format_string()
PUBLIC 2cf88 0 __crt_stdio_output::positional_parameter_base<char,__crt_stdio_output::stream_output_adapter<char> >::validate_and_update_state_at_end_of_format_string()
PUBLIC 2d03c 0 __crt_stdio_output::positional_parameter_base<char,__crt_stdio_output::string_output_adapter<char> >::validate_and_update_state_at_end_of_format_string()
PUBLIC 2d0f0 0 __crt_stdio_output::positional_parameter_base<wchar_t,__crt_stdio_output::stream_output_adapter<wchar_t> >::validate_and_update_state_at_end_of_format_string()
PUBLIC 2d1a4 0 __crt_stdio_output::positional_parameter_base<wchar_t,__crt_stdio_output::string_output_adapter<wchar_t> >::validate_and_update_state_at_end_of_format_string()
PUBLIC 2d258 0 __crt_stdio_output::standard_base<char,__crt_stdio_output::stream_output_adapter<char> >::validate_and_update_state_at_end_of_format_string()
PUBLIC 2d25b 0 __crt_stdio_output::standard_base<char,__crt_stdio_output::string_output_adapter<char> >::validate_and_update_state_at_end_of_format_string()
PUBLIC 2d25e 0 __crt_stdio_output::standard_base<wchar_t,__crt_stdio_output::stream_output_adapter<wchar_t> >::validate_and_update_state_at_end_of_format_string()
PUBLIC 2d261 0 __crt_stdio_output::standard_base<wchar_t,__crt_stdio_output::string_output_adapter<wchar_t> >::validate_and_update_state_at_end_of_format_string()
PUBLIC 2d264 0 __crt_stdio_output::positional_parameter_base<char,__crt_stdio_output::stream_output_adapter<char> >::validate_state_for_type_case_a()
PUBLIC 2d2c6 0 __crt_stdio_output::positional_parameter_base<char,__crt_stdio_output::string_output_adapter<char> >::validate_state_for_type_case_a()
PUBLIC 2d328 0 __crt_stdio_output::positional_parameter_base<wchar_t,__crt_stdio_output::stream_output_adapter<wchar_t> >::validate_state_for_type_case_a()
PUBLIC 2d38a 0 __crt_stdio_output::positional_parameter_base<wchar_t,__crt_stdio_output::string_output_adapter<wchar_t> >::validate_state_for_type_case_a()
PUBLIC 2d3ec 0 __crt_stdio_output::standard_base<char,__crt_stdio_output::stream_output_adapter<char> >::validate_state_for_type_case_a()
PUBLIC 2d3ef 0 __crt_stdio_output::standard_base<char,__crt_stdio_output::string_output_adapter<char> >::validate_state_for_type_case_a()
PUBLIC 2d3f2 0 __crt_stdio_output::standard_base<wchar_t,__crt_stdio_output::stream_output_adapter<wchar_t> >::validate_state_for_type_case_a()
PUBLIC 2d3f5 0 __crt_stdio_output::standard_base<wchar_t,__crt_stdio_output::string_output_adapter<wchar_t> >::validate_state_for_type_case_a()
PUBLIC 2d3f8 0 __acrt_stdio_char_traits<char>::validate_stream_is_ansi_if_required(_iobuf * const)
PUBLIC 2d4a0 0 __acrt_stdio_char_traits<wchar_t>::validate_stream_is_ansi_if_required(_iobuf * const)
PUBLIC 2d4a3 0 __crt_stdio_output::output_processor<char,__crt_stdio_output::stream_output_adapter<char>,__crt_stdio_output::format_validation_base<char,__crt_stdio_output::stream_output_adapter<char> > >::wide_null_string()
PUBLIC 2d4a9 0 __crt_stdio_output::output_processor<char,__crt_stdio_output::stream_output_adapter<char>,__crt_stdio_output::positional_parameter_base<char,__crt_stdio_output::stream_output_adapter<char> > >::wide_null_string()
PUBLIC 2d4af 0 __crt_stdio_output::output_processor<char,__crt_stdio_output::stream_output_adapter<char>,__crt_stdio_output::standard_base<char,__crt_stdio_output::stream_output_adapter<char> > >::wide_null_string()
PUBLIC 2d4b5 0 __crt_stdio_output::output_processor<char,__crt_stdio_output::string_output_adapter<char>,__crt_stdio_output::format_validation_base<char,__crt_stdio_output::string_output_adapter<char> > >::wide_null_string()
PUBLIC 2d4bb 0 __crt_stdio_output::output_processor<char,__crt_stdio_output::string_output_adapter<char>,__crt_stdio_output::positional_parameter_base<char,__crt_stdio_output::string_output_adapter<char> > >::wide_null_string()
PUBLIC 2d4c1 0 __crt_stdio_output::output_processor<char,__crt_stdio_output::string_output_adapter<char>,__crt_stdio_output::standard_base<char,__crt_stdio_output::string_output_adapter<char> > >::wide_null_string()
PUBLIC 2d4c7 0 __crt_stdio_output::output_processor<wchar_t,__crt_stdio_output::stream_output_adapter<wchar_t>,__crt_stdio_output::format_validation_base<wchar_t,__crt_stdio_output::stream_output_adapter<wchar_t> > >::wide_null_string()
PUBLIC 2d4cd 0 __crt_stdio_output::output_processor<wchar_t,__crt_stdio_output::stream_output_adapter<wchar_t>,__crt_stdio_output::positional_parameter_base<wchar_t,__crt_stdio_output::stream_output_adapter<wchar_t> > >::wide_null_string()
PUBLIC 2d4d3 0 __crt_stdio_output::output_processor<wchar_t,__crt_stdio_output::stream_output_adapter<wchar_t>,__crt_stdio_output::standard_base<wchar_t,__crt_stdio_output::stream_output_adapter<wchar_t> > >::wide_null_string()
PUBLIC 2d4d9 0 __crt_stdio_output::output_processor<wchar_t,__crt_stdio_output::string_output_adapter<wchar_t>,__crt_stdio_output::format_validation_base<wchar_t,__crt_stdio_output::string_output_adapter<wchar_t> > >::wide_null_string()
PUBLIC 2d4df 0 __crt_stdio_output::output_processor<wchar_t,__crt_stdio_output::string_output_adapter<wchar_t>,__crt_stdio_output::positional_parameter_base<wchar_t,__crt_stdio_output::string_output_adapter<wchar_t> > >::wide_null_string()
PUBLIC 2d4e5 0 __crt_stdio_output::output_processor<wchar_t,__crt_stdio_output::string_output_adapter<wchar_t>,__crt_stdio_output::standard_base<wchar_t,__crt_stdio_output::string_output_adapter<wchar_t> > >::wide_null_string()
PUBLIC 2d4eb 0 __crt_stdio_output::output_adapter_common<char,__crt_stdio_output::stream_output_adapter<char> >::write_character(char,int * const)
PUBLIC 2d511 0 __crt_stdio_output::output_adapter_common<wchar_t,__crt_stdio_output::stream_output_adapter<wchar_t> >::write_character(wchar_t,int * const)
PUBLIC 2d537 0 __crt_stdio_output::string_output_adapter<char>::write_character(char,int * const)
PUBLIC 2d589 0 __crt_stdio_output::string_output_adapter<wchar_t>::write_character(wchar_t,int * const)
PUBLIC 2d5df 0 __crt_stdio_output::stream_output_adapter<char>::write_character_without_count_update(char)
PUBLIC 2d622 0 __crt_stdio_output::stream_output_adapter<wchar_t>::write_character_without_count_update(wchar_t)
PUBLIC 2d669 0 __crt_stdio_output::output_processor<char,__crt_stdio_output::stream_output_adapter<char>,__crt_stdio_output::format_validation_base<char,__crt_stdio_output::stream_output_adapter<char> > >::write_stored_string_tchar(char)
PUBLIC 2d739 0 __crt_stdio_output::output_processor<char,__crt_stdio_output::stream_output_adapter<char>,__crt_stdio_output::positional_parameter_base<char,__crt_stdio_output::stream_output_adapter<char> > >::write_stored_string_tchar(char)
PUBLIC 2d809 0 __crt_stdio_output::output_processor<char,__crt_stdio_output::stream_output_adapter<char>,__crt_stdio_output::standard_base<char,__crt_stdio_output::stream_output_adapter<char> > >::write_stored_string_tchar(char)
PUBLIC 2d8d9 0 __crt_stdio_output::output_processor<char,__crt_stdio_output::string_output_adapter<char>,__crt_stdio_output::format_validation_base<char,__crt_stdio_output::string_output_adapter<char> > >::write_stored_string_tchar(char)
PUBLIC 2d9a9 0 __crt_stdio_output::output_processor<char,__crt_stdio_output::string_output_adapter<char>,__crt_stdio_output::positional_parameter_base<char,__crt_stdio_output::string_output_adapter<char> > >::write_stored_string_tchar(char)
PUBLIC 2da79 0 __crt_stdio_output::output_processor<char,__crt_stdio_output::string_output_adapter<char>,__crt_stdio_output::standard_base<char,__crt_stdio_output::string_output_adapter<char> > >::write_stored_string_tchar(char)
PUBLIC 2db49 0 __crt_stdio_output::output_processor<wchar_t,__crt_stdio_output::stream_output_adapter<wchar_t>,__crt_stdio_output::format_validation_base<wchar_t,__crt_stdio_output::stream_output_adapter<wchar_t> > >::write_stored_string_tchar(wchar_t)
PUBLIC 2dc00 0 __crt_stdio_output::output_processor<wchar_t,__crt_stdio_output::stream_output_adapter<wchar_t>,__crt_stdio_output::positional_parameter_base<wchar_t,__crt_stdio_output::stream_output_adapter<wchar_t> > >::write_stored_string_tchar(wchar_t)
PUBLIC 2dcb7 0 __crt_stdio_output::output_processor<wchar_t,__crt_stdio_output::stream_output_adapter<wchar_t>,__crt_stdio_output::standard_base<wchar_t,__crt_stdio_output::stream_output_adapter<wchar_t> > >::write_stored_string_tchar(wchar_t)
PUBLIC 2dd6e 0 __crt_stdio_output::output_processor<wchar_t,__crt_stdio_output::string_output_adapter<wchar_t>,__crt_stdio_output::format_validation_base<wchar_t,__crt_stdio_output::string_output_adapter<wchar_t> > >::write_stored_string_tchar(wchar_t)
PUBLIC 2de25 0 __crt_stdio_output::output_processor<wchar_t,__crt_stdio_output::string_output_adapter<wchar_t>,__crt_stdio_output::positional_parameter_base<wchar_t,__crt_stdio_output::string_output_adapter<wchar_t> > >::write_stored_string_tchar(wchar_t)
PUBLIC 2dedc 0 __crt_stdio_output::output_processor<wchar_t,__crt_stdio_output::string_output_adapter<wchar_t>,__crt_stdio_output::standard_base<wchar_t,__crt_stdio_output::string_output_adapter<wchar_t> > >::write_stored_string_tchar(wchar_t)
PUBLIC 2df93 0 __crt_stdio_output::stream_output_adapter<char>::write_string(char const * const,int,int * const,__crt_deferred_errno_cache &)
PUBLIC 2dfca 0 __crt_stdio_output::stream_output_adapter<wchar_t>::write_string(wchar_t const * const,int,int * const,__crt_deferred_errno_cache &)
PUBLIC 2e001 0 __crt_stdio_output::string_output_adapter<char>::write_string(char const * const,int,int * const,__crt_deferred_errno_cache &)
PUBLIC 2e081 0 __crt_stdio_output::string_output_adapter<wchar_t>::write_string(wchar_t const * const,int,int * const,__crt_deferred_errno_cache &)
PUBLIC 2e10e 0 __crt_stdio_output::output_adapter_common<char,__crt_stdio_output::stream_output_adapter<char> >::write_string_impl(char const * const,int,int * const,__crt_deferred_errno_cache &)
PUBLIC 2e1d3 0 __crt_stdio_output::output_adapter_common<wchar_t,__crt_stdio_output::stream_output_adapter<wchar_t> >::write_string_impl(wchar_t const * const,int,int * const,__crt_deferred_errno_cache &)
PUBLIC 2e29c 0 __acrt_isleadbyte_l_noupdate
PUBLIC 2e2c1 0 __acrt_locale_changed
PUBLIC 2e2ce 0 __acrt_locale_get_ctype_array_value
PUBLIC 2e2f8 0 __stdio_common_vfprintf
PUBLIC 2e39b 0 __stdio_common_vfprintf_p
PUBLIC 2e43e 0 __stdio_common_vfprintf_s
PUBLIC 2e4e1 0 __stdio_common_vfwprintf
PUBLIC 2e584 0 __stdio_common_vfwprintf_p
PUBLIC 2e627 0 __stdio_common_vfwprintf_s
PUBLIC 2e6ca 0 __stdio_common_vsnprintf_s
PUBLIC 2e6fa 0 __stdio_common_vsnwprintf_s
PUBLIC 2e72a 0 __stdio_common_vsprintf
PUBLIC 2e757 0 __stdio_common_vsprintf_p
PUBLIC 2e784 0 __stdio_common_vsprintf_s
PUBLIC 2e7b1 0 __stdio_common_vswprintf
PUBLIC 2e7de 0 __stdio_common_vswprintf_p
PUBLIC 2e80b 0 __stdio_common_vswprintf_s
PUBLIC 2e838 0 _ctype_fast_check_internal
PUBLIC 2e858 0 _isdigit_fast_internal
PUBLIC 2e878 0 _tolower_fast_internal
PUBLIC 2e897 0 __crt_strtox::is_overflow_condition<unsigned long>(unsigned int,unsigned long)
PUBLIC 2e8d4 0 __crt_strtox::is_overflow_condition<unsigned __int64>(unsigned int,unsigned __int64)
PUBLIC 2e925 0 __crt_strtox::make_c_string_character_source<char,std::nullptr_t>(char const * const,std::nullptr_t)
PUBLIC 2e946 0 __crt_strtox::make_c_string_character_source<wchar_t,std::nullptr_t>(wchar_t const * const,std::nullptr_t)
PUBLIC 2e967 0 __crt_strtox::parse_integer<unsigned long,__crt_strtox::c_string_character_source<char> >(__crt_locale_pointers * const,__crt_strtox::c_string_character_source<char>,int,bool)
PUBLIC 2ec15 0 __crt_strtox::parse_integer<unsigned long,__crt_strtox::c_string_character_source<wchar_t> >(__crt_locale_pointers * const,__crt_strtox::c_string_character_source<wchar_t>,int,bool)
PUBLIC 2f39f 0 __crt_strtox::parse_integer<unsigned __int64,__crt_strtox::c_string_character_source<char> >(__crt_locale_pointers * const,__crt_strtox::c_string_character_source<char>,int,bool)
PUBLIC 2f6ee 0 __crt_strtox::parse_integer<unsigned __int64,__crt_strtox::c_string_character_source<wchar_t> >(__crt_locale_pointers * const,__crt_strtox::c_string_character_source<wchar_t>,int,bool)
PUBLIC 2ff73 0 __crt_strtox::parse_integer_from_string<long,char,std::nullptr_t>(char const * const,std::nullptr_t,int,__crt_locale_pointers * const)
PUBLIC 2ffa8 0 __crt_strtox::parse_integer_from_string<long,wchar_t,std::nullptr_t>(wchar_t const * const,std::nullptr_t,int,__crt_locale_pointers * const)
PUBLIC 2ffdd 0 __crt_strtox::parse_integer_from_string<__int64,char,std::nullptr_t>(char const * const,std::nullptr_t,int,__crt_locale_pointers * const)
PUBLIC 30012 0 __crt_strtox::parse_integer_from_string<__int64,wchar_t,std::nullptr_t>(wchar_t const * const,std::nullptr_t,int,__crt_locale_pointers * const)
PUBLIC 30047 0 __crt_strtox::c_string_character_source<char>::c_string_character_source<char>(char const * const,char const * * const)
PUBLIC 3006a 0 __crt_strtox::c_string_character_source<wchar_t>::c_string_character_source<wchar_t>(wchar_t const * const,wchar_t const * * const)
PUBLIC 3008d 0 __crt_strtox::c_string_character_source<char>::~c_string_character_source<char>()
PUBLIC 3009c 0 __crt_strtox::c_string_character_source<wchar_t>::~c_string_character_source<wchar_t>()
PUBLIC 300ab 0 __crt_strtox::c_string_character_source<char>::get()
PUBLIC 300b5 0 __crt_strtox::c_string_character_source<wchar_t>::get()
PUBLIC 300c2 0 __crt_strtox::is_space(char,__crt_locale_pointers * const)
PUBLIC 300e7 0 __crt_strtox::is_space(wchar_t,__crt_locale_pointers *)
PUBLIC 30105 0 __crt_strtox::maximum_signed_value(unsigned long)
PUBLIC 3010b 0 __crt_strtox::maximum_signed_value(unsigned __int64)
PUBLIC 30116 0 __crt_strtox::minimum_signed_value(unsigned long)
PUBLIC 3011c 0 __crt_strtox::minimum_signed_value(unsigned __int64)
PUBLIC 30126 0 __crt_strtox::parse_digit(char)
PUBLIC 3016e 0 __crt_strtox::parse_digit(wchar_t)
PUBLIC 303c4 0 __crt_strtox::c_string_character_source<char>::restore_state(char const * const)
PUBLIC 303d8 0 __crt_strtox::c_string_character_source<wchar_t>::restore_state(wchar_t const * const)
PUBLIC 303ec 0 __crt_strtox::c_string_character_source<char>::save_state()
PUBLIC 303ef 0 __crt_strtox::c_string_character_source<wchar_t>::save_state()
PUBLIC 303f2 0 __crt_strtox::c_string_character_source<char>::unget(char)
PUBLIC 30425 0 __crt_strtox::c_string_character_source<wchar_t>::unget(wchar_t)
PUBLIC 3045e 0 __crt_strtox::c_string_character_source<char>::validate()
PUBLIC 3047f 0 __crt_strtox::c_string_character_source<wchar_t>::validate()
PUBLIC 304a0 0 __crt_strtox::wide_character_to_digit(wchar_t)
PUBLIC 306a9 0 __acrt_get_locale_data_prefix
PUBLIC 306b8 0 __ascii_iswalpha
PUBLIC 306e3 0 __ascii_toupper
PUBLIC 306ff 0 __ascii_towupper
PUBLIC 3071b 0 _atoi64
PUBLIC 30746 0 _atoi64_l
PUBLIC 30773 0 _atoi_l
PUBLIC 307a0 0 _atol_l
PUBLIC 307cd 0 _atoll_l
PUBLIC 307fa 0 _chvalidchk_l
PUBLIC 3082c 0 _ischartype_l
PUBLIC 30895 0 _wtoi
PUBLIC 308c0 0 _wtoi64
PUBLIC 308eb 0 _wtoi64_l
PUBLIC 30918 0 _wtoi_l
PUBLIC 30945 0 _wtol
PUBLIC 30970 0 _wtol_l
PUBLIC 3099d 0 _wtoll
PUBLIC 309c8 0 _wtoll_l
PUBLIC 309f5 0 atoi
PUBLIC 30a20 0 atol
PUBLIC 30a4b 0 atoll
PUBLIC 30a80 0 strncmp
PUBLIC 30b16 0 _set_abort_behavior
PUBLIC 30b3f 0 abort
PUBLIC 30b94 0 calloc
PUBLIC 30ba1 0 wcsncmp
PUBLIC 30be9 0 __crt_internal_free_policy::operator()<__acrt_ptd>(__acrt_ptd const * const)
FUNC 30bff 52 0 __crt_seh_guarded_call<void>::operator()<<lambda_15ade71b0218206bbe3333a0c9b79046>,<lambda_da44e0f8b0f19ba52fefafb335991732> &,<lambda_207f2d024fc103971653565357d6cd41> >
FUNC 30c65 6b 0 __crt_seh_guarded_call<void>::operator()<<lambda_38edbb1296d33220d7e4dd0ed76b244a>,<lambda_5ce1d447e08cb34b2473517608e21441> &,<lambda_fb385d3da700c9147fc39e65dd577a8c> >
FUNC 30cea 55 0 __crt_seh_guarded_call<void>::operator()<<lambda_6affb1475c98b40b75cdec977db92e3c>,<lambda_b8d4b9c228a6ecc3f80208dbb4b4a104> &,<lambda_608742c3c92a14382c1684fc64f96c88> >
FUNC 30d54 5a 0 __crt_seh_guarded_call<void>::operator()<<lambda_a7e850c220f1c8d1e6efeecdedd162c6>,<lambda_46720907175c18b6c9d2717bc0d2d362> &,<lambda_9048902d66e8d99359bc9897bbb930a8> >
FUNC 30dc4 26 0 __acrt_lock_and_call<<lambda_46720907175c18b6c9d2717bc0d2d362> >
FUNC 30df3 26 0 __acrt_lock_and_call<<lambda_5ce1d447e08cb34b2473517608e21441> >
FUNC 30e22 26 0 __acrt_lock_and_call<<lambda_b8d4b9c228a6ecc3f80208dbb4b4a104> >
FUNC 30e51 26 0 __acrt_lock_and_call<<lambda_da44e0f8b0f19ba52fefafb335991732> >
FUNC 30e80 12 0 <lambda_15ade71b0218206bbe3333a0c9b79046>::<lambda_15ade71b0218206bbe3333a0c9b79046>
FUNC 30e96 12 0 <lambda_207f2d024fc103971653565357d6cd41>::<lambda_207f2d024fc103971653565357d6cd41>
FUNC 30eac 12 0 <lambda_38edbb1296d33220d7e4dd0ed76b244a>::<lambda_38edbb1296d33220d7e4dd0ed76b244a>
FUNC 30ec2 16 0 <lambda_46720907175c18b6c9d2717bc0d2d362>::<lambda_46720907175c18b6c9d2717bc0d2d362>
FUNC 30edd 10 0 <lambda_5ce1d447e08cb34b2473517608e21441>::<lambda_5ce1d447e08cb34b2473517608e21441>
FUNC 30ef1 12 0 <lambda_608742c3c92a14382c1684fc64f96c88>::<lambda_608742c3c92a14382c1684fc64f96c88>
FUNC 30f07 12 0 <lambda_6affb1475c98b40b75cdec977db92e3c>::<lambda_6affb1475c98b40b75cdec977db92e3c>
FUNC 30f1d 12 0 <lambda_9048902d66e8d99359bc9897bbb930a8>::<lambda_9048902d66e8d99359bc9897bbb930a8>
FUNC 30f33 12 0 <lambda_a7e850c220f1c8d1e6efeecdedd162c6>::<lambda_a7e850c220f1c8d1e6efeecdedd162c6>
FUNC 30f49 10 0 <lambda_b8d4b9c228a6ecc3f80208dbb4b4a104>::<lambda_b8d4b9c228a6ecc3f80208dbb4b4a104>
FUNC 30f5d 10 0 <lambda_da44e0f8b0f19ba52fefafb335991732>::<lambda_da44e0f8b0f19ba52fefafb335991732>
FUNC 30f71 12 0 <lambda_fb385d3da700c9147fc39e65dd577a8c>::<lambda_fb385d3da700c9147fc39e65dd577a8c>
PUBLIC 30f87 0 __crt_unique_heap_ptr<__acrt_ptd,__crt_internal_free_policy>::__crt_unique_heap_ptr<__acrt_ptd,__crt_internal_free_policy>(__acrt_ptd * const)
PUBLIC 30f9b 0 __crt_scoped_get_last_error_reset::__crt_scoped_get_last_error_reset()
PUBLIC 30fb0 0 __crt_unique_heap_ptr<__acrt_ptd,__crt_internal_free_policy>::~__crt_unique_heap_ptr<__acrt_ptd,__crt_internal_free_policy>()
PUBLIC 30fc6 0 __crt_scoped_get_last_error_reset::~__crt_scoped_get_last_error_reset()
PUBLIC 30fd1 0 __crt_unique_heap_ptr<__acrt_ptd,__crt_internal_free_policy>::operator bool()
FUNC 30fd8 9 0 <lambda_15ade71b0218206bbe3333a0c9b79046>::operator()
FUNC 30fe3 9 0 <lambda_207f2d024fc103971653565357d6cd41>::operator()
FUNC 30fee 9 0 <lambda_38edbb1296d33220d7e4dd0ed76b244a>::operator()
FUNC 30ff9 13 0 <lambda_46720907175c18b6c9d2717bc0d2d362>::operator()
FUNC 31010 24 0 <lambda_5ce1d447e08cb34b2473517608e21441>::operator()
FUNC 3103d 9 0 <lambda_608742c3c92a14382c1684fc64f96c88>::operator()
FUNC 31048 9 0 <lambda_6affb1475c98b40b75cdec977db92e3c>::operator()
FUNC 31053 9 0 <lambda_9048902d66e8d99359bc9897bbb930a8>::operator()
FUNC 3105e 9 0 <lambda_a7e850c220f1c8d1e6efeecdedd162c6>::operator()
FUNC 31069 e 0 <lambda_b8d4b9c228a6ecc3f80208dbb4b4a104>::operator()
FUNC 3107a b 0 <lambda_da44e0f8b0f19ba52fefafb335991732>::operator()
FUNC 31087 9 0 <lambda_fb385d3da700c9147fc39e65dd577a8c>::operator()
FUNC 31092 99 0 construct_ptd
FUNC 31151 16 0 construct_ptd_array
PUBLIC 3116c 0 __crt_state_management::dual_state_global<__crt_locale_data *>::dangerous_get_state_array()
FUNC 3116f 21 0 destroy_fls
FUNC 31198 cd 0 destroy_ptd
FUNC 31298 5 0 destroy_ptd_array
PUBLIC 3129d 0 __crt_unique_heap_ptr<__acrt_ptd,__crt_internal_free_policy>::detach()
PUBLIC 312a3 0 __crt_unique_heap_ptr<__acrt_ptd,__crt_internal_free_policy>::get()
PUBLIC 312a6 0 __crt_state_management::get_current_state_index(__crt_scoped_get_last_error_reset const &)
FUNC 312a9 81 0 internal_get_ptd_head
FUNC 3134a b1 0 internal_getptd_noexit
PUBLIC 31427 0 __crt_unique_heap_ptr<__acrt_ptd,__crt_internal_free_policy>::is_valid()
PUBLIC 3142e 0 __crt_unique_heap_ptr<__acrt_ptd,__crt_internal_free_policy>::release()
FUNC 31444 4b 0 replace_current_thread_locale_nolock
FUNC 314a1 17 0 try_get_ptd_head
PUBLIC 314bd 0 __crt_state_management::dual_state_global<__crt_locale_data *>::value()
PUBLIC 314c0 0 __acrt_freeptd
PUBLIC 314f7 0 __acrt_getptd
PUBLIC 315e3 0 __acrt_getptd_head
PUBLIC 316a3 0 __acrt_getptd_noexit
PUBLIC 31785 0 __acrt_initialize_ptd
PUBLIC 317bc 0 __acrt_uninitialize_ptd
PUBLIC 317dc 0 __threadhandle
PUBLIC 317e2 0 __threadid
FUNC 317e8 6 0 select_heap
PUBLIC 317ee 0 _free_base
PUBLIC 31836 0 __acrt_initialize_locks
PUBLIC 31887 0 __acrt_lock
PUBLIC 318a3 0 __acrt_uninitialize_locks
PUBLIC 318e0 0 __acrt_unlock
PUBLIC 318fc 0 _lock_locales
PUBLIC 3190d 0 _unlock_locales
FUNC 31918 43 0 get_cached_win_policy<`__acrt_get_begin_thread_init_policy'::`2'::begin_thread_init_policy_properties>
FUNC 3196b 43 0 get_cached_win_policy<`__acrt_get_developer_information_policy'::`2'::developer_information_policy_properties>
FUNC 319be 5b 0 get_cached_win_policy<`__acrt_get_windowing_model_policy'::`2'::windowing_model_policy_properties>
FUNC 31a2f 2f 0 get_win_policy<`__acrt_get_process_end_policy'::`2'::process_end_policy_properties>
FUNC 31a69 f 0 `__acrt_get_begin_thread_init_policy'::`2'::begin_thread_init_policy_properties::appmodel_get_policy
FUNC 31a7b f 0 `__acrt_get_developer_information_policy'::`2'::developer_information_policy_properties::appmodel_get_policy
FUNC 31a8d f 0 `__acrt_get_process_end_policy'::`2'::process_end_policy_properties::appmodel_get_policy
FUNC 31a9f f 0 `__acrt_get_windowing_model_policy'::`2'::windowing_model_policy_properties::appmodel_get_policy
FUNC 31ab1 11 0 `__acrt_get_begin_thread_init_policy'::`2'::begin_thread_init_policy_properties::appmodel_policy_to_policy_type
FUNC 31ac6 11 0 `__acrt_get_developer_information_policy'::`2'::developer_information_policy_properties::appmodel_policy_to_policy_type
FUNC 31adb 10 0 `__acrt_get_process_end_policy'::`2'::process_end_policy_properties::appmodel_policy_to_policy_type
FUNC 31aef 29 0 `__acrt_get_windowing_model_policy'::`2'::windowing_model_policy_properties::appmodel_policy_to_policy_type
PUBLIC 31b22 0 __acrt_get_begin_thread_init_policy
PUBLIC 31b77 0 __acrt_get_developer_information_policy
PUBLIC 31bcc 0 __acrt_get_process_end_policy
PUBLIC 31c09 0 __acrt_get_windowing_model_policy
PUBLIC 31c7c 0 __acrt_errno_from_os_error
PUBLIC 31ccf 0 __acrt_errno_map_os_error
PUBLIC 31cfa 0 __doserrno
PUBLIC 31d11 0 _errno
PUBLIC 31d28 0 _get_doserrno
PUBLIC 31d56 0 _get_errno
PUBLIC 31d84 0 _set_doserrno
PUBLIC 31dad 0 _set_errno
PUBLIC 31dd6 0 _calloc_base
FUNC 31e4a 18 0 <lambda_838c7f62c73c983481e27c09e84b0b5d>::<lambda_invoker_cdecl>
FUNC 31e68 18 0 <lambda_d388dc2bcbe6079ffc891eec49d9b3b2>::<lambda_invoker_cdecl>
FUNC 31e86 b2 0 __acrt_convert_wcs_mbs_cp<char,wchar_t,<lambda_62f6974d9771e494a5ea317cc32e971c>,__crt_win32_buffer_internal_dynamic_resizing>
FUNC 31f64 cf 0 __acrt_convert_wcs_mbs_cp<wchar_t,char,<lambda_28bda7af82a03b66c1cb3803a755f95d>,__crt_win32_buffer_internal_dynamic_resizing>
PUBLIC 32066 0 __acrt_mbs_to_wcs_cp<__crt_win32_buffer_internal_dynamic_resizing>(char const * const,__crt_win32_buffer<wchar_t,__crt_win32_buffer_internal_dynamic_resizing> &,unsigned int)
PUBLIC 3208a 0 __acrt_wcs_to_mbs_cp<__crt_win32_buffer_internal_dynamic_resizing>(wchar_t const * const,__crt_win32_buffer<char,__crt_win32_buffer_internal_dynamic_resizing> &,unsigned int)
FUNC 320ae 1ef 0 common_expand_argv_wildcards<char>
FUNC 32318 228 0 common_expand_argv_wildcards<wchar_t>
FUNC 325ca b1 0 copy_and_add_argument_to_buffer<char>
FUNC 326a7 b4 0 copy_and_add_argument_to_buffer<wchar_t>
FUNC 32788 257 0 expand_argument_wildcards<char>
FUNC 32a74 172 0 expand_argument_wildcards<wchar_t>
PUBLIC 32c42 0 __crt_char_traits<char>::tcslen<char const * const &>(char const * const &)
PUBLIC 32c60 0 __crt_char_traits<wchar_t>::tcslen<wchar_t const * const &>(wchar_t const * const &)
PUBLIC 32c85 0 __crt_char_traits<char>::tcsncpy_s<char * &,unsigned int,char * &,unsigned int const &>(char * &,unsigned int &&,char * &,unsigned int const &)
PUBLIC 32cb0 0 __crt_char_traits<wchar_t>::tcsncpy_s<wchar_t * &,unsigned int,wchar_t * &,unsigned int const &>(wchar_t * &,unsigned int &&,wchar_t * &,unsigned int const &)
PUBLIC 32cdb 0 __crt_char_traits<char>::tcsncpy_s<char *,unsigned int const &,char const * const &,unsigned int const &>(char * &&,unsigned int const &,char const * const &,unsigned int const &)
PUBLIC 32d06 0 __crt_char_traits<char>::tcsncpy_s<char *,unsigned int,char const * const &,unsigned int const &>(char * &&,unsigned int &&,char const * const &,unsigned int const &)
PUBLIC 32d31 0 __crt_char_traits<wchar_t>::tcsncpy_s<wchar_t *,unsigned int const &,wchar_t const * const &,unsigned int const &>(wchar_t * &&,unsigned int const &,wchar_t const * const &,unsigned int const &)
PUBLIC 32d5c 0 __crt_char_traits<wchar_t>::tcsncpy_s<wchar_t *,unsigned int,wchar_t const * const &,unsigned int const &>(wchar_t * &&,unsigned int &&,wchar_t const * const &,unsigned int const &)
PUBLIC 32d87 0 __crt_char_traits<char>::tcspbrk<char * &,char const (&)[3]>(char * &,char const (&)[3])
PUBLIC 32da2 0 __crt_char_traits<wchar_t>::tcspbrk<wchar_t * &,wchar_t const (&)[3]>(wchar_t * &,wchar_t const (&)[3])
PUBLIC 32dbd 0 __crt_unique_handle_t<__crt_findfile_traits>::__crt_unique_handle_t<__crt_findfile_traits>(void * const)
PUBLIC 32dd1 0 __crt_win32_buffer<char,__crt_win32_buffer_internal_dynamic_resizing>::__crt_win32_buffer<char,__crt_win32_buffer_internal_dynamic_resizing>()
PUBLIC 32dec 0 __crt_win32_buffer<wchar_t,__crt_win32_buffer_internal_dynamic_resizing>::__crt_win32_buffer<wchar_t,__crt_win32_buffer_internal_dynamic_resizing>()
FUNC 32e07 d 0 `anonymous namespace'::argument_list<char>::argument_list<char>
FUNC 32e17 d 0 `anonymous namespace'::argument_list<wchar_t>::argument_list<wchar_t>
PUBLIC 32e27 0 __crt_unique_handle_t<__crt_findfile_traits>::~__crt_unique_handle_t<__crt_findfile_traits>()
PUBLIC 32e43 0 __crt_win32_buffer<char,__crt_win32_buffer_internal_dynamic_resizing>::~__crt_win32_buffer<char,__crt_win32_buffer_internal_dynamic_resizing>()
PUBLIC 32e48 0 __crt_win32_buffer<wchar_t,__crt_win32_buffer_internal_dynamic_resizing>::~__crt_win32_buffer<wchar_t,__crt_win32_buffer_internal_dynamic_resizing>()
FUNC 32e4d 29 0 `anonymous namespace'::argument_list<char>::~argument_list<char>
FUNC 32e80 29 0 `anonymous namespace'::argument_list<wchar_t>::~argument_list<wchar_t>
FUNC 32eb3 6 0 <lambda_838c7f62c73c983481e27c09e84b0b5d>::operator int (__cdecl*)(void const *,void const *)
FUNC 32eb9 6 0 <lambda_d388dc2bcbe6079ffc891eec49d9b3b2>::operator int (__cdecl*)(void const *,void const *)
FUNC 32ebf 24 0 <lambda_28bda7af82a03b66c1cb3803a755f95d>::operator()
FUNC 32eec 1e 0 <lambda_594f614a8947934b886943aa86a6498d>::operator()
FUNC 32f11 21 0 <lambda_62f6974d9771e494a5ea317cc32e971c>::operator()
FUNC 32f3a 1a 0 <lambda_838c7f62c73c983481e27c09e84b0b5d>::operator()
FUNC 32f5a 1a 0 <lambda_d388dc2bcbe6079ffc891eec49d9b3b2>::operator()
FUNC 32f7a 24 0 <lambda_d734a73e0f649ebd9d9b0eca0b8ca86a>::operator()
PUBLIC 32fa7 0 __acrt_get_utf8_acp_compatibility_codepage()
PUBLIC 32ff5 0 __crt_win32_buffer<char,__crt_win32_buffer_internal_dynamic_resizing>::_deallocate()
PUBLIC 33015 0 __crt_win32_buffer<wchar_t,__crt_win32_buffer_internal_dynamic_resizing>::_deallocate()
PUBLIC 33035 0 __crt_win32_buffer<char,__crt_win32_buffer_internal_dynamic_resizing>::allocate(unsigned int)
PUBLIC 33080 0 __crt_win32_buffer<wchar_t,__crt_win32_buffer_internal_dynamic_resizing>::allocate(unsigned int)
PUBLIC 330ce 0 __crt_win32_buffer_internal_dynamic_resizing::allocate(void * * const,unsigned int,__crt_win32_buffer_empty_debug_info const &)
FUNC 330f4 35 0 `anonymous namespace'::argument_list<char>::append
FUNC 33136 35 0 `anonymous namespace'::argument_list<wchar_t>::append
FUNC 33178 3 0 `anonymous namespace'::argument_list<char>::begin
FUNC 3317b 3 0 `anonymous namespace'::argument_list<wchar_t>::begin
PUBLIC 3317e 0 __crt_win32_buffer<char,__crt_win32_buffer_internal_dynamic_resizing>::capacity()
PUBLIC 33182 0 __crt_win32_buffer<wchar_t,__crt_win32_buffer_internal_dynamic_resizing>::capacity()
PUBLIC 33186 0 __crt_unique_handle_t<__crt_findfile_traits>::close()
PUBLIC 331a2 0 __crt_findfile_traits::close(void *)
PUBLIC 331bc 0 __crt_win32_buffer<char,__crt_win32_buffer_internal_dynamic_resizing>::data()
PUBLIC 331c0 0 __crt_win32_buffer<wchar_t,__crt_win32_buffer_internal_dynamic_resizing>::data()
PUBLIC 331c4 0 __crt_win32_buffer_internal_dynamic_resizing::deallocate(void * const,__crt_win32_buffer_empty_debug_info const &)
PUBLIC 331d8 0 __crt_win32_buffer<char,__crt_win32_buffer_internal_dynamic_resizing>::debug_info()
PUBLIC 331db 0 __crt_win32_buffer<wchar_t,__crt_win32_buffer_internal_dynamic_resizing>::debug_info()
FUNC 331de 4 0 `anonymous namespace'::argument_list<char>::end
FUNC 331e2 4 0 `anonymous namespace'::argument_list<wchar_t>::end
FUNC 331e6 87 0 `anonymous namespace'::argument_list<char>::expand_if_necessary
FUNC 3328e 87 0 `anonymous namespace'::argument_list<wchar_t>::expand_if_necessary
PUBLIC 33336 0 __crt_unique_handle_t<__crt_findfile_traits>::get()
FUNC 33339 29 0 get_file_name
FUNC 3336c a 0 get_file_name
PUBLIC 33378 0 __crt_findfile_traits::get_invalid_value()
FUNC 3337c a 0 get_wide
FUNC 33388 29 0 get_wide
FUNC 333bb b 0 previous_character
FUNC 333c8 d 0 previous_character
PUBLIC 333d8 0 __crt_win32_buffer<char,__crt_win32_buffer_internal_dynamic_resizing>::set_to_nullptr()
PUBLIC 333f4 0 __crt_win32_buffer<wchar_t,__crt_win32_buffer_internal_dynamic_resizing>::set_to_nullptr()
PUBLIC 33410 0 __crt_win32_buffer<char,__crt_win32_buffer_internal_dynamic_resizing>::size(unsigned int)
PUBLIC 33422 0 __crt_win32_buffer<wchar_t,__crt_win32_buffer_internal_dynamic_resizing>::size(unsigned int)
FUNC 33434 9 0 `anonymous namespace'::argument_list<char>::size
FUNC 3343f 9 0 `anonymous namespace'::argument_list<wchar_t>::size
PUBLIC 3344a 0 strpbrk(char * const,char const * const)
PUBLIC 33457 0 wcspbrk(wchar_t *,wchar_t const *)
PUBLIC 33464 0 __acrt_expand_narrow_argv_wildcards
PUBLIC 33471 0 __acrt_expand_wide_argv_wildcards
FUNC 3347e c7 0 __acrt_convert_wcs_mbs_cp<wchar_t,char,<lambda_0fec1a7b3f42a53036604e18c2d5e07e>,__crt_win32_buffer_no_resizing>
PUBLIC 33576 0 __acrt_wcs_to_mbs_cp<__crt_win32_buffer_no_resizing>(wchar_t const * const,__crt_win32_buffer<char,__crt_win32_buffer_no_resizing> &,unsigned int)
PUBLIC 3359a 0 __crt_win32_buffer<char,__crt_win32_buffer_no_resizing>::__crt_win32_buffer<char,__crt_win32_buffer_no_resizing>(char * const,unsigned int)
PUBLIC 335c7 0 __crt_win32_buffer<char,__crt_win32_buffer_no_resizing>::~__crt_win32_buffer<char,__crt_win32_buffer_no_resizing>()
FUNC 335d4 24 0 <lambda_0fec1a7b3f42a53036604e18c2d5e07e>::operator()
PUBLIC 33601 0 __crt_win32_buffer<char,__crt_win32_buffer_no_resizing>::_deallocate()
PUBLIC 3360e 0 __crt_win32_buffer<char,__crt_win32_buffer_no_resizing>::allocate(unsigned int)
PUBLIC 3363e 0 __crt_win32_buffer_no_resizing::allocate(void * * const,unsigned int,__crt_win32_buffer_empty_debug_info const &)
PUBLIC 3364e 0 __crt_win32_buffer<char,__crt_win32_buffer_no_resizing>::capacity()
PUBLIC 33652 0 __crt_win32_buffer<char,__crt_win32_buffer_no_resizing>::data()
PUBLIC 33656 0 __crt_win32_buffer_no_resizing::deallocate(void * const,__crt_win32_buffer_empty_debug_info const &)
PUBLIC 33659 0 __crt_win32_buffer<char,__crt_win32_buffer_no_resizing>::debug_info()
PUBLIC 3365c 0 __crt_win32_buffer<char,__crt_win32_buffer_no_resizing>::set_to_nullptr()
PUBLIC 33675 0 __crt_win32_buffer<char,__crt_win32_buffer_no_resizing>::size(unsigned int)
PUBLIC 33687 0 __crt_win32_buffer<char,__crt_win32_buffer_no_resizing>::size()
PUBLIC 3368b 0 __acrt_GetModuleFileNameA
PUBLIC 33754 0 __crt_internal_free_policy::operator()<__crt_multibyte_data>(__crt_multibyte_data const * const)
FUNC 3376a 4d 0 __crt_seh_guarded_call<void>::operator()<<lambda_ceb1ee4838e85a9d631eb091e2fbe199>,<lambda_ae742caa10f662c28703da3d2ea5e57e> &,<lambda_cd08b5d6af4937fe54fc07d0c9bf6b37> >
FUNC 337ca 26 0 __acrt_lock_and_call<<lambda_ae742caa10f662c28703da3d2ea5e57e> >
PUBLIC 337f9 0 __crt_state_management::dual_state_global<unsigned char *>::initialize_from_array<unsigned char [1][256]>(unsigned char (&)[1][256])
PUBLIC 3380b 0 __crt_state_management::dual_state_global<unsigned char *>::initialize_from_array<unsigned char [1][257]>(unsigned char (&)[1][257])
FUNC 3381d 16 0 <lambda_ae742caa10f662c28703da3d2ea5e57e>::<lambda_ae742caa10f662c28703da3d2ea5e57e>
FUNC 33838 12 0 <lambda_cd08b5d6af4937fe54fc07d0c9bf6b37>::<lambda_cd08b5d6af4937fe54fc07d0c9bf6b37>
FUNC 3384e 12 0 <lambda_ceb1ee4838e85a9d631eb091e2fbe199>::<lambda_ceb1ee4838e85a9d631eb091e2fbe199>
PUBLIC 33864 0 __crt_unique_heap_ptr<__crt_multibyte_data,__crt_internal_free_policy>::__crt_unique_heap_ptr<__crt_multibyte_data,__crt_internal_free_policy>(__crt_multibyte_data * const)
PUBLIC 33878 0 __crt_unique_heap_ptr<__crt_multibyte_data,__crt_internal_free_policy>::~__crt_unique_heap_ptr<__crt_multibyte_data,__crt_internal_free_policy>()
PUBLIC 3388e 0 __crt_unique_heap_ptr<__crt_multibyte_data,__crt_internal_free_policy>::operator bool()
FUNC 33895 83 0 <lambda_ae742caa10f662c28703da3d2ea5e57e>::operator()
FUNC 33938 9 0 <lambda_cd08b5d6af4937fe54fc07d0c9bf6b37>::operator()
FUNC 33943 9 0 <lambda_ceb1ee4838e85a9d631eb091e2fbe199>::operator()
FUNC 3394e 3e 0 CPtoLocaleName
PUBLIC 3399b 0 __crt_state_management::dual_state_global<unsigned char *>::dangerous_get_state_array()
PUBLIC 3399e 0 __crt_state_management::dual_state_global<__crt_multibyte_data *>::dangerous_get_state_array()
PUBLIC 339a1 0 __crt_unique_heap_ptr<__crt_multibyte_data,__crt_internal_free_policy>::detach()
PUBLIC 339a7 0 __crt_unique_heap_ptr<__crt_multibyte_data,__crt_internal_free_policy>::get()
FUNC 339aa 71 0 getSystemCP
PUBLIC 33a37 0 __crt_state_management::dual_state_global<__crt_multibyte_data *>::initialize(__crt_multibyte_data * const)
PUBLIC 33a66 0 __crt_unique_heap_ptr<__crt_multibyte_data,__crt_internal_free_policy>::is_valid()
PUBLIC 33a6d 0 __crt_unique_heap_ptr<__crt_multibyte_data,__crt_internal_free_policy>::release()
FUNC 33a83 65 0 setSBCS
FUNC 33b01 181 0 setSBUpLow
FUNC 33ce2 119 0 setmbcp_internal
FUNC 33e41 a0 0 update_thread_multibyte_data_internal
PUBLIC 33f09 0 __crt_state_management::dual_state_global<unsigned char *>::value()
PUBLIC 33f0c 0 __crt_state_management::dual_state_global<__crt_multibyte_data *>::value()
PUBLIC 33f0f 0 __acrt_initialize_multibyte
PUBLIC 33f69 0 __acrt_update_thread_multibyte_data
PUBLIC 33f80 0 __p__mbcasemap
PUBLIC 33f86 0 __p__mbctype
PUBLIC 33f8c 0 _getmbcp
PUBLIC 33fcd 0 _setmbcp
PUBLIC 33ff3 0 _setmbcp_nolock
FUNC 34262 81 0 memcpy_s
FUNC 34303 57 0 x_ismbbtype_l
PUBLIC 3436f 0 _ismbbalnum
PUBLIC 34390 0 _ismbbalnum_l
PUBLIC 343b3 0 _ismbbalpha
PUBLIC 343d4 0 _ismbbalpha_l
PUBLIC 343f7 0 _ismbbblank
PUBLIC 34422 0 _ismbbblank_l
PUBLIC 3444f 0 _ismbbgraph
PUBLIC 34470 0 _ismbbgraph_l
PUBLIC 34493 0 _ismbbkalnum
PUBLIC 344b1 0 _ismbbkalnum_l
PUBLIC 344d0 0 _ismbbkana
PUBLIC 344e7 0 _ismbbkana_l
PUBLIC 34549 0 _ismbbkprint
PUBLIC 34567 0 _ismbbkprint_l
PUBLIC 34586 0 _ismbbkpunct
PUBLIC 345a4 0 _ismbbkpunct_l
PUBLIC 345c3 0 _ismbblead
PUBLIC 345e1 0 _ismbblead_l
PUBLIC 34600 0 _ismbbprint
PUBLIC 34621 0 _ismbbprint_l
PUBLIC 34644 0 _ismbbpunct
PUBLIC 34662 0 _ismbbpunct_l
PUBLIC 34681 0 _ismbbtrail
PUBLIC 3469f 0 _ismbbtrail_l
PUBLIC 346be 0 __acrt_initialize_command_line
PUBLIC 346dd 0 __acrt_uninitialize_command_line
PUBLIC 346e0 0 __p___argc
PUBLIC 346e6 0 __p___argv
PUBLIC 346ec 0 __p___wargv
PUBLIC 346f2 0 __p__acmdln
PUBLIC 346f8 0 __p__pgmptr
PUBLIC 346fe 0 __p__wcmdln
PUBLIC 34704 0 __p__wpgmptr
PUBLIC 3470a 0 _get_pgmptr
PUBLIC 34747 0 _get_wpgmptr
FUNC 34784 60 0 common_tcscpy_s<wchar_t>
PUBLIC 347fc 0 wcscpy_s
FUNC 34879 68 0 filter_mbtowcs_flags
PUBLIC 348fb 0 __acrt_MultiByteToWideChar
FUNC 34996 65 0 filter_wcstomb_flags
PUBLIC 34a14 0 __acrt_WideCharToMultiByte
FUNC 34aec 10 0 __crt_unique_handle_t<`anonymous namespace'::environment_strings_traits>::__crt_unique_handle_t<`anonymous namespace'::environment_strings_traits>
FUNC 34b00 17 0 __crt_unique_handle_t<`anonymous namespace'::environment_strings_traits>::~__crt_unique_handle_t<`anonymous namespace'::environment_strings_traits>
FUNC 34b1c 7 0 __crt_unique_handle_t<`anonymous namespace'::environment_strings_traits>::operator bool
FUNC 34b23 17 0 __crt_unique_handle_t<`anonymous namespace'::environment_strings_traits>::close
FUNC 34b3f 12 0 `anonymous namespace'::environment_strings_traits::close
FUNC 34b55 37 0 find_end_of_double_null_terminated_sequence
FUNC 34b99 3 0 __crt_unique_handle_t<`anonymous namespace'::environment_strings_traits>::get
FUNC 34b9c 3 0 `anonymous namespace'::environment_strings_traits::get_invalid_value
FUNC 34b9f 7 0 __crt_unique_handle_t<`anonymous namespace'::environment_strings_traits>::is_valid
PUBLIC 34ba6 0 __dcrt_get_narrow_environment_from_os
PUBLIC 34c4b 0 __dcrt_get_wide_environment_from_os
FUNC 34caf 23e 0 common_set_variable_in_environment_nolock<char>
FUNC 34f7c 253 0 common_set_variable_in_environment_nolock<wchar_t>
FUNC 35263 b0 0 copy_environment<char>
FUNC 3533f be 0 copy_environment<wchar_t>
FUNC 3542c 1a 0 ensure_current_environment_is_not_initial_environment_nolock<char>
FUNC 3544c 1a 0 ensure_current_environment_is_not_initial_environment_nolock<wchar_t>
FUNC 3546c 55 0 find_in_environment_nolock<char>
FUNC 354d6 58 0 find_in_environment_nolock<wchar_t>
PUBLIC 35544 0 __crt_char_traits<char>::get_or_create_environment_nolock<>()
PUBLIC 35549 0 __crt_char_traits<wchar_t>::get_or_create_environment_nolock<>()
PUBLIC 3554e 0 __crt_char_traits<char>::set_environment_variable<char * const &,char * const>(char * const &,char * const &&)
PUBLIC 3556c 0 __crt_char_traits<wchar_t>::set_environment_variable<wchar_t * const &,wchar_t * const>(wchar_t * const &,wchar_t * const &&)
PUBLIC 35588 0 __crt_char_traits<char>::tcschr<char * const &,char>(char * const &,char &&)
PUBLIC 355a8 0 __crt_char_traits<wchar_t>::tcschr<wchar_t * const &,char>(wchar_t * const &,char &&)
PUBLIC 355cd 0 __crt_char_traits<char>::tcscpy_s<char * &,unsigned int const &,char * &>(char * &,unsigned int const &,char * &)
PUBLIC 355f2 0 __crt_char_traits<wchar_t>::tcscpy_s<wchar_t * &,unsigned int const &,wchar_t * &>(wchar_t * &,unsigned int const &,wchar_t * &)
PUBLIC 35617 0 __crt_char_traits<char>::tcscpy_s<char * const &,unsigned int const &,char * const &>(char * const &,unsigned int const &,char * const &)
PUBLIC 3563c 0 __crt_char_traits<wchar_t>::tcscpy_s<wchar_t * const &,unsigned int const &,wchar_t * const &>(wchar_t * const &,unsigned int const &,wchar_t * const &)
PUBLIC 35661 0 __crt_char_traits<char>::tcslen<char * const &>(char * const &)
PUBLIC 3567f 0 __crt_char_traits<wchar_t>::tcslen<wchar_t * const &>(wchar_t * const &)
PUBLIC 356a4 0 __crt_char_traits<char>::tcsnicoll<char const * const &,char * &,unsigned int const &>(char const * const &,char * &,unsigned int const &)
PUBLIC 356c9 0 __crt_char_traits<wchar_t>::tcsnicoll<wchar_t const * const &,wchar_t * &,unsigned int const &>(wchar_t const * const &,wchar_t * &,unsigned int const &)
FUNC 356ee 6 0 get_environment
FUNC 356f4 6 0 get_environment
FUNC 356fa 6 0 get_initial_environment
FUNC 35700 6 0 get_initial_environment
FUNC 35706 6 0 get_other_environment
FUNC 3570c 6 0 get_other_environment
PUBLIC 35712 0 strchr(char * const,int)
PUBLIC 3571f 0 wcschr(wchar_t *,wchar_t)
PUBLIC 3572c 0 __dcrt_set_variable_in_narrow_environment_nolock
PUBLIC 35739 0 __dcrt_set_variable_in_wide_environment_nolock
PUBLIC 35746 0 _recalloc
PUBLIC 35753 0 _recalloc_base
FUNC 357db d 0 <lambda_29d3c280b90b41c2ae070ffca879996a>::<lambda_invoker_stdcall>
PUBLIC 357eb 0 __crt_fast_encoded_nullptr_t::operator<int > int (*)(wchar_t *,unsigned long,long)()
FUNC 357f1 7c 0 __crt_seh_guarded_call<int>::operator()<<lambda_6b4b7855443974f2b4b77000ea21c99c>,<lambda_8f7d3b162ab39427f4fa9995c67a7986> &,<lambda_cc9a5ba8a5d8428b9634eab82665e5dc> >
FUNC 3588c 26 0 __acrt_lock_and_call<<lambda_8f7d3b162ab39427f4fa9995c67a7986> >
PUBLIC 358bb 0 __crt_fast_decode_pointer<int (*)(wchar_t *,unsigned long,long)>(int (*const)(wchar_t *,unsigned long,long))
PUBLIC 358d6 0 __crt_fast_encode_pointer<int (*)(wchar_t *,unsigned long,long)>(int (*const)(wchar_t *,unsigned long,long))
FUNC 358fc 12 0 <lambda_6b4b7855443974f2b4b77000ea21c99c>::<lambda_6b4b7855443974f2b4b77000ea21c99c>
FUNC 35912 10 0 <lambda_8f7d3b162ab39427f4fa9995c67a7986>::<lambda_8f7d3b162ab39427f4fa9995c67a7986>
FUNC 35926 12 0 <lambda_cc9a5ba8a5d8428b9634eab82665e5dc>::<lambda_cc9a5ba8a5d8428b9634eab82665e5dc>
FUNC 3593c 6 0 <lambda_29d3c280b90b41c2ae070ffca879996a>::operator int (__stdcall*)(wchar_t *)
FUNC 35942 2f 0 <lambda_29d3c280b90b41c2ae070ffca879996a>::operator()
FUNC 3597c 9 0 <lambda_6b4b7855443974f2b4b77000ea21c99c>::operator()
FUNC 35987 29 0 <lambda_8f7d3b162ab39427f4fa9995c67a7986>::operator()
FUNC 359ba 9 0 <lambda_cc9a5ba8a5d8428b9634eab82665e5dc>::operator()
FUNC 359c5 2e 0 enum_system_locales_ex_nolock
FUNC 359fe 4 0 invalid_function_sentinel
FUNC 35a02 1a 0 try_get_AppPolicyGetProcessTerminationMethod
FUNC 35a22 1a 0 try_get_AppPolicyGetShowDeveloperDiagnostic
FUNC 35a42 1a 0 try_get_AppPolicyGetThreadInitializationType
FUNC 35a62 1a 0 try_get_AppPolicyGetWindowingModel
FUNC 35a82 1a 0 try_get_AreFileApisANSI
FUNC 35aa2 1a 0 try_get_CompareStringEx
FUNC 35ac2 1a 0 try_get_EnumSystemLocalesEx
FUNC 35ae2 1a 0 try_get_FlsAlloc
FUNC 35b02 1a 0 try_get_FlsFree
FUNC 35b22 1a 0 try_get_FlsGetValue
FUNC 35b42 1a 0 try_get_FlsSetValue
FUNC 35b62 1a 0 try_get_GetActiveWindow
FUNC 35b82 1a 0 try_get_GetDateFormatEx
FUNC 35ba2 1a 0 try_get_GetEnabledXStateFeatures
FUNC 35bc2 1a 0 try_get_GetLastActivePopup
FUNC 35be2 1a 0 try_get_GetLocaleInfoEx
FUNC 35c02 1a 0 try_get_GetProcessWindowStation
FUNC 35c22 1a 0 try_get_GetSystemTimePreciseAsFileTime
FUNC 35c42 1a 0 try_get_GetTimeFormatEx
FUNC 35c62 1a 0 try_get_GetUserDefaultLocaleName
FUNC 35c82 1a 0 try_get_GetUserObjectInformationW
FUNC 35ca2 1a 0 try_get_GetXStateFeaturesMask
FUNC 35cc2 1a 0 try_get_InitializeCriticalSectionEx
FUNC 35ce2 1a 0 try_get_IsValidLocaleName
FUNC 35d02 1a 0 try_get_LCIDToLocaleName
FUNC 35d22 1a 0 try_get_LCMapStringEx
FUNC 35d42 1a 0 try_get_LocaleNameToLCID
FUNC 35d62 1a 0 try_get_LocateXStateFeature
FUNC 35d82 1a 0 try_get_MessageBoxA
FUNC 35da2 1a 0 try_get_MessageBoxW
FUNC 35dc2 1a 0 try_get_RoInitialize
FUNC 35de2 1a 0 try_get_RoUninitialize
FUNC 35e02 1a 0 try_get_SetThreadStackGuarantee
FUNC 35e22 1a 0 try_get_SystemFunction036
FUNC 35e42 c7 0 try_get_first_available_module
FUNC 35f3a 83 0 try_get_function
FUNC 35fdd 52 0 try_get_module
FUNC 36043 24 0 try_get_proc_address_from_first_available_module
FUNC 36070 63 0 try_load_library_from_system_directory
PUBLIC 360eb 0 GetCurrentThreadEffectiveToken
PUBLIC 360ef 4 __acrt_AppPolicyGetProcessTerminationMethodInternal
PUBLIC 3613f 4 __acrt_AppPolicyGetShowDeveloperDiagnosticInternal
PUBLIC 3618f 4 __acrt_AppPolicyGetThreadInitializationTypeInternal
PUBLIC 361df 4 __acrt_AppPolicyGetWindowingModelInternal
PUBLIC 3622f 0 __acrt_AreFileApisANSI
PUBLIC 36255 24 __acrt_CompareStringEx
PUBLIC 362c9 10 __acrt_EnumSystemLocalesEx
PUBLIC 36332 4 __acrt_FlsAlloc
PUBLIC 36380 4 __acrt_FlsFree
PUBLIC 363ce 4 __acrt_FlsGetValue
PUBLIC 3641c 8 __acrt_FlsSetValue
PUBLIC 3646e 1c __acrt_GetDateFormatEx
PUBLIC 364da 0 __acrt_GetEnabledXStateFeatures
PUBLIC 3651b 10 __acrt_GetLocaleInfoEx
PUBLIC 36569 4 __acrt_GetSystemTimePreciseAsFileTime
PUBLIC 365b7 18 __acrt_GetTimeFormatEx
PUBLIC 3660d 8 __acrt_GetUserDefaultLocaleName
PUBLIC 36658 8 __acrt_GetXStateFeaturesMask
PUBLIC 366a8 c __acrt_InitializeCriticalSectionEx
PUBLIC 36705 4 __acrt_IsValidLocaleName
PUBLIC 3674b 10 __acrt_LCIDToLocaleName
PUBLIC 36799 24 __acrt_LCMapStringEx
PUBLIC 3680d 8 __acrt_LocaleNameToLCID
PUBLIC 3684a c __acrt_LocateXStateFeature
PUBLIC 36884 10 __acrt_MessageBoxA
PUBLIC 368c2 10 __acrt_MessageBoxW
PUBLIC 36900 4 __acrt_RoInitialize
PUBLIC 36949 0 __acrt_RoUninitialize
PUBLIC 36982 8 __acrt_RtlGenRandom
PUBLIC 369d2 4 __acrt_SetThreadStackGuarantee
PUBLIC 36a1b 0 __acrt_can_show_message_box
PUBLIC 36a4b 0 __acrt_can_use_vista_locale_apis
PUBLIC 36a58 0 __acrt_can_use_xstate_apis
PUBLIC 36a65 0 __acrt_eagerly_load_locale_apis
PUBLIC 36aa9 0 __acrt_get_parent_window
PUBLIC 36b2b 0 __acrt_initialize_winapi_thunks
PUBLIC 36b60 0 __acrt_is_interactive
PUBLIC 36c26 0 __acrt_uninitialize_winapi_thunks
PUBLIC 36c69 0 __acrt_getheap
PUBLIC 36c6f 0 __acrt_initialize_heap
PUBLIC 36c84 0 __acrt_uninitialize_heap
PUBLIC 36c90 0 _get_heap_handle
FUNC 36c96 22 0 get_std_handle_id
FUNC 36cc0 b6 0 initialize_inherited_file_handles_nolock
FUNC 36da3 b4 0 initialize_stdio_handles_nolock
PUBLIC 36e84 0 __acrt_initialize_lowio
PUBLIC 36efc 0 __acrt_uninitialize_lowio
PUBLIC 36f33 0 __acrt_execute_initializers
PUBLIC 36fb5 0 __acrt_execute_uninitializers
PUBLIC 36ff2 0 __crt_fast_encoded_nullptr_t::operator<int > int (*)(unsigned int)()
PUBLIC 36ff8 0 __crt_fast_decode_pointer<int (*)(unsigned int)>(int (*const)(unsigned int))
PUBLIC 37013 0 __crt_fast_encode_pointer<int (*)(unsigned int)>(int (*const)(unsigned int))
PUBLIC 37039 0 _set_new_handler(int)
PUBLIC 37049 0 __crt_state_management::dual_state_global<int (*)(unsigned int)>::initialize(int (*const)(unsigned int))
PUBLIC 37078 0 __crt_state_management::dual_state_global<int (*)(unsigned int)>::value()
PUBLIC 3707b 0 __acrt_initialize_new_handler
PUBLIC 3708d 0 _callnewh
PUBLIC 370c5 0 _query_new_handler
PUBLIC 37138 0 _set_new_handler
PUBLIC 371bc 0 __crt_fast_encoded_nullptr_t::operator<void > void (*)(int)()
FUNC 371c2 64 0 __crt_seh_guarded_call<void (__cdecl*)(int)>::operator()<<lambda_cbab9ec6f41b0180b23cc171c22676b0>,<lambda_44731a7d0e6d81c3e6aa82d741081786> &,<lambda_4b292cb8dd18144e164572427af410ab> >
FUNC 3723f 26 0 __acrt_lock_and_call<<lambda_44731a7d0e6d81c3e6aa82d741081786> >
PUBLIC 3726e 0 __crt_fast_decode_pointer<void (*)(int)>(void (*const)(int))
PUBLIC 37289 0 __crt_fast_encode_pointer<void (*)(int)>(void (*const)(int))
FUNC 372af 12 0 <lambda_4b292cb8dd18144e164572427af410ab>::<lambda_4b292cb8dd18144e164572427af410ab>
FUNC 372c5 12 0 <lambda_cbab9ec6f41b0180b23cc171c22676b0>::<lambda_cbab9ec6f41b0180b23cc171c22676b0>
FUNC 372db 13 0 <lambda_44731a7d0e6d81c3e6aa82d741081786>::operator()
FUNC 372f2 9 0 <lambda_4b292cb8dd18144e164572427af410ab>::operator()
FUNC 372fd 9 0 <lambda_cbab9ec6f41b0180b23cc171c22676b0>::operator()
FUNC 37308 aa 0 ctrlevent_capture
FUNC 373dc 42 0 get_global_action_nolock
PUBLIC 3742e 0 __crt_state_management::dual_state_global<void (*)(int)>::initialize(void (*const)(int))
FUNC 3745d 1a 0 is_console_signal
FUNC 3747d 1a 0 is_unsupported_signal
FUNC 3749d 28 0 siglookup
FUNC 374cf 31 0 signal_failed
PUBLIC 3750c 0 __crt_state_management::dual_state_global<void (*)(int)>::value()
PUBLIC 3750f 0 __acrt_get_sigabrt_handler
PUBLIC 3753f 0 __acrt_initialize_signal_handlers
PUBLIC 37564 0 __fpecode
PUBLIC 3756f 0 __pxcptinfoptrs
PUBLIC 3757a 0 raise
PUBLIC 377f3 0 signal
PUBLIC 37a21 0 __crt_fast_decode_pointer<int (*)(_exception *)>(int (*const)(_exception *))
PUBLIC 37a3c 0 __crt_fast_encode_pointer<int (*)(_exception *)>(int (*const)(_exception *))
PUBLIC 37a62 0 __crt_state_management::dual_state_global<int (*)(_exception *)>::initialize(int (*const)(_exception *))
PUBLIC 37a91 0 __crt_state_management::dual_state_global<int (*)(_exception *)>::value()
PUBLIC 37a94 0 __acrt_has_user_matherr
PUBLIC 37ab2 0 __acrt_initialize_user_matherr
PUBLIC 37ac4 0 __acrt_invoke_user_matherr
PUBLIC 37b02 0 __setusermatherr
FUNC 37b1c 8c 0 __crt_seh_guarded_call<void>::operator()<<lambda_2866be3712abc81a800a822484c830d8>,<lambda_39ca0ed439415581b5b15c265174cece> &,<lambda_2b24c74d71094a6cd0cb82e44167d71b> >
FUNC 37bcb ac 0 __crt_seh_guarded_call<void>::operator()<<lambda_2cc53f568c5a2bb6f192f930a45d44ea>,<lambda_ab61a845afdef5b7c387490eaf3616ee> &,<lambda_c2ffc0b7726aa6be21d5f0026187e748> >
FUNC 37ca2 60 0 __crt_seh_guarded_call<int>::operator()<<lambda_6d20deecaf4856105ebacbad442d1079>,<lambda_9a32fed5bf61b6b509b2d3f6003082a1> &,<lambda_63ea2239ed67c638ddbae41947fdf875> >
FUNC 37d1a 26 0 __acrt_lock_and_call<<lambda_ab61a845afdef5b7c387490eaf3616ee> >
FUNC 37d49 26 0 __acrt_lock_stream_and_call<<lambda_39ca0ed439415581b5b15c265174cece> >
FUNC 37d78 26 0 __acrt_lock_stream_and_call<<lambda_9a32fed5bf61b6b509b2d3f6003082a1> >
FUNC 37da7 12 0 <lambda_2866be3712abc81a800a822484c830d8>::<lambda_2866be3712abc81a800a822484c830d8>
FUNC 37dbd 12 0 <lambda_2b24c74d71094a6cd0cb82e44167d71b>::<lambda_2b24c74d71094a6cd0cb82e44167d71b>
FUNC 37dd3 12 0 <lambda_2cc53f568c5a2bb6f192f930a45d44ea>::<lambda_2cc53f568c5a2bb6f192f930a45d44ea>
FUNC 37de9 22 0 <lambda_39ca0ed439415581b5b15c265174cece>::<lambda_39ca0ed439415581b5b15c265174cece>
FUNC 37e13 12 0 <lambda_63ea2239ed67c638ddbae41947fdf875>::<lambda_63ea2239ed67c638ddbae41947fdf875>
FUNC 37e29 12 0 <lambda_6d20deecaf4856105ebacbad442d1079>::<lambda_6d20deecaf4856105ebacbad442d1079>
FUNC 37e3f 10 0 <lambda_9a32fed5bf61b6b509b2d3f6003082a1>::<lambda_9a32fed5bf61b6b509b2d3f6003082a1>
FUNC 37e53 1c 0 <lambda_ab61a845afdef5b7c387490eaf3616ee>::<lambda_ab61a845afdef5b7c387490eaf3616ee>
FUNC 37e76 12 0 <lambda_c2ffc0b7726aa6be21d5f0026187e748>::<lambda_c2ffc0b7726aa6be21d5f0026187e748>
PUBLIC 37e8c 0 __crt_stdio_stream::__crt_stdio_stream(__crt_stdio_stream_data * const)
FUNC 37ea0 9 0 <lambda_2866be3712abc81a800a822484c830d8>::operator()
FUNC 37eab 9 0 <lambda_2b24c74d71094a6cd0cb82e44167d71b>::operator()
FUNC 37eb6 9 0 <lambda_2cc53f568c5a2bb6f192f930a45d44ea>::operator()
FUNC 37ec1 4b 0 <lambda_39ca0ed439415581b5b15c265174cece>::operator()
FUNC 37f1e 9 0 <lambda_63ea2239ed67c638ddbae41947fdf875>::operator()
FUNC 37f29 9 0 <lambda_6d20deecaf4856105ebacbad442d1079>::operator()
FUNC 37f34 b 0 <lambda_9a32fed5bf61b6b509b2d3f6003082a1>::operator()
FUNC 37f41 88 0 <lambda_ab61a845afdef5b7c387490eaf3616ee>::operator()
FUNC 37feb 9 0 <lambda_c2ffc0b7726aa6be21d5f0026187e748>::operator()
PUBLIC 37ff6 0 __acrt_stdio_reset_buffer(__crt_stdio_stream)
FUNC 38011 4d 0 common_flush_all
FUNC 38071 33 0 common_flush_all_should_try_to_flush_stream
PUBLIC 380b0 0 __crt_stdio_stream::has_all_of(long)
FUNC 380ce f 0 is_stream_allocated
FUNC 380e0 1c 0 is_stream_flushable
FUNC 38103 25 0 is_stream_flushable_or_commitable
PUBLIC 38131 0 __crt_stdio_stream::set_flags(long)
PUBLIC 3815e 0 __crt_stdio_stream::unset_flags(long)
PUBLIC 38191 0 __acrt_stdio_flush_nolock
PUBLIC 3820f 0 _fflush_nolock
PUBLIC 38269 0 _flushall
PUBLIC 38274 0 fflush
PUBLIC 382de 0 __p___mb_cur_max
PUBLIC 3830c 0 __crt_internal_free_policy::operator()<__crt_stdio_stream_data *>(__crt_stdio_stream_data * const * const)
PUBLIC 38322 0 __crt_unique_heap_ptr<__crt_stdio_stream_data *,__crt_internal_free_policy>::__crt_unique_heap_ptr<__crt_stdio_stream_data *,__crt_internal_free_policy>(__crt_stdio_stream_data * * const)
PUBLIC 38336 0 __crt_unique_heap_ptr<__crt_stdio_stream_data *,__crt_internal_free_policy>::~__crt_unique_heap_ptr<__crt_stdio_stream_data *,__crt_internal_free_policy>()
PUBLIC 3834c 0 __crt_unique_heap_ptr<__crt_stdio_stream_data *,__crt_internal_free_policy>::detach()
PUBLIC 38352 0 __crt_unique_heap_ptr<__crt_stdio_stream_data *,__crt_internal_free_policy>::release()
PUBLIC 38368 0 __acrt_initialize_stdio
PUBLIC 38462 0 __acrt_iob_func
PUBLIC 38476 0 __acrt_uninitialize_stdio
PUBLIC 384d5 0 _get_stream_buffer_pointers
PUBLIC 3852c 0 _lock_file
PUBLIC 38545 0 _unlock_file
PUBLIC 3855e 0 __crt_stdio_stream::has_any_buffer()
PUBLIC 38570 0 __crt_stdio_stream::has_any_of(long)
PUBLIC 3858a 0 __crt_stdio_stream::has_temporary_buffer()
PUBLIC 38599 0 __acrt_stdio_begin_temporary_buffering_nolock
PUBLIC 38678 0 __acrt_stdio_end_temporary_buffering_nolock
PUBLIC 386c0 0 _malloc_base
PUBLIC 38721 0 __crt_strtox::make_c_string_character_source<char,char * *>(char const * const,char * * const)
PUBLIC 38742 0 __crt_strtox::make_c_string_character_source<wchar_t,wchar_t * *>(wchar_t const * const,wchar_t * * const)
PUBLIC 38763 0 __crt_strtox::parse_integer_from_string<long,char,char * *>(char const * const,char * * const,int,__crt_locale_pointers * const)
PUBLIC 38798 0 __crt_strtox::parse_integer_from_string<long,wchar_t,wchar_t * *>(wchar_t const * const,wchar_t * * const,int,__crt_locale_pointers * const)
PUBLIC 387cd 0 __crt_strtox::parse_integer_from_string<unsigned long,char,char * *>(char const * const,char * * const,int,__crt_locale_pointers * const)
PUBLIC 38802 0 __crt_strtox::parse_integer_from_string<unsigned long,wchar_t,wchar_t * *>(wchar_t const * const,wchar_t * * const,int,__crt_locale_pointers * const)
PUBLIC 38837 0 __crt_strtox::parse_integer_from_string<__int64,char,char * *>(char const * const,char * * const,int,__crt_locale_pointers * const)
PUBLIC 3886c 0 __crt_strtox::parse_integer_from_string<__int64,wchar_t,wchar_t * *>(wchar_t const * const,wchar_t * * const,int,__crt_locale_pointers * const)
PUBLIC 388a1 0 __crt_strtox::parse_integer_from_string<unsigned __int64,char,char * *>(char const * const,char * * const,int,__crt_locale_pointers * const)
PUBLIC 388d6 0 __crt_strtox::parse_integer_from_string<unsigned __int64,wchar_t,wchar_t * *>(wchar_t const * const,wchar_t * * const,int,__crt_locale_pointers * const)
PUBLIC 3890b 0 _strtoi64
PUBLIC 3893f 0 _strtoi64_l
PUBLIC 38974 0 _strtoimax_l
PUBLIC 389a9 0 _strtol_l
PUBLIC 389de 0 _strtoll_l
PUBLIC 38a13 0 _strtoui64
PUBLIC 38a47 0 _strtoui64_l
PUBLIC 38a7c 0 _strtoul_l
PUBLIC 38ab1 0 _strtoull_l
PUBLIC 38ae6 0 _strtoumax_l
PUBLIC 38b1b 0 _wcstoi64
PUBLIC 38b4f 0 _wcstoi64_l
PUBLIC 38b84 0 _wcstoimax_l
PUBLIC 38bb9 0 _wcstol_l
PUBLIC 38bee 0 _wcstoll_l
PUBLIC 38c23 0 _wcstoui64
PUBLIC 38c57 0 _wcstoui64_l
PUBLIC 38c8c 0 _wcstoul_l
PUBLIC 38cc1 0 _wcstoull_l
PUBLIC 38cf6 0 _wcstoumax_l
PUBLIC 38d2b 0 strtoimax
PUBLIC 38d5f 0 strtol
PUBLIC 38d93 0 strtoll
PUBLIC 38dc7 0 strtoul
PUBLIC 38dfb 0 strtoull
PUBLIC 38e2f 0 strtoumax
PUBLIC 38e63 0 wcstoimax
PUBLIC 38e97 0 wcstol
PUBLIC 38ecb 0 wcstoll
PUBLIC 38eff 0 wcstoul
PUBLIC 38f33 0 wcstoull
PUBLIC 38f67 0 wcstoumax
PUBLIC 38f9b 0 _mbtowc_l
PUBLIC 3912d 0 mbtowc
PUBLIC 3914d 0 _wctomb_l
PUBLIC 391b2 0 _wctomb_s_l
PUBLIC 39363 0 wctomb
PUBLIC 393a1 0 wctomb_s
FUNC 393c5 136 0 common_strnlen<1,unsigned short>
FUNC 39548 11e 0 common_strnlen<0,unsigned char>
FUNC 396ad 1a9 0 common_strnlen<0,unsigned short>
FUNC 398c0 1a 0 common_strnlen_c<1,unsigned short>
FUNC 398e0 21 0 common_strnlen_c<0,unsigned char>
FUNC 39909 27 0 common_strnlen_c<0,unsigned short>
FUNC 39939 8c 0 common_strnlen_simd<1,1,unsigned short>
FUNC 399e8 8b 0 common_strnlen_simd<1,0,unsigned short>
FUNC 39a95 7a 0 common_strnlen_simd<0,1,unsigned char>
FUNC 39b2d c0 0 common_strnlen_simd<0,1,unsigned short>
FUNC 39c1d 79 0 common_strnlen_simd<0,0,unsigned char>
FUNC 39cb4 bf 0 common_strnlen_simd<0,0,unsigned short>
FUNC 39da2 3 0 last_reached<1>
FUNC 39da5 10 0 last_reached<0>
PUBLIC 39db9 0 __crt_simd_cleanup_guard<1>::~__crt_simd_cleanup_guard<1>()
PUBLIC 39dbd 0 __crt_simd_cleanup_guard<0>::~__crt_simd_cleanup_guard<0>()
PUBLIC 39dc0 0 __crt_simd_traits<1,unsigned char>::compare_equals(__m256i,__m256i)
PUBLIC 39dc5 0 __crt_simd_traits<1,unsigned short>::compare_equals(__m256i,__m256i)
PUBLIC 39dca 0 __crt_simd_traits<0,unsigned char>::compare_equals(__m128i,__m128i)
PUBLIC 39dcf 0 __crt_simd_traits<0,unsigned short>::compare_equals(__m128i,__m128i)
PUBLIC 39dd4 0 __crt_simd_pack_traits<1>::compute_byte_mask(__m256i)
PUBLIC 39dd9 0 __crt_simd_pack_traits<0>::compute_byte_mask(__m128i)
PUBLIC 39dde 0 __crt_simd_pack_traits<1>::get_zero_pack()
PUBLIC 39de3 0 __crt_simd_pack_traits<0>::get_zero_pack()
PUBLIC 39de7 0 strnlen
PUBLIC 39f51 0 wcslen
PUBLIC 3a0c3 0 wcsnlen
PUBLIC 3a2df 0 __acrt_update_locale_info
PUBLIC 3a317 0 __acrt_update_multibyte_info
PUBLIC 3a34f 0 __acrt_fp_classify(double const &)
PUBLIC 3a3c9 0 __acrt_fp_is_negative(double const &)
FUNC 3a3e8 319 0 fp_format_a
FUNC 3a7c7 a2 0 fp_format_e
FUNC 3a891 148 0 fp_format_e_internal
FUNC 3aa2b 8b 0 fp_format_f
FUNC 3aad8 d1 0 fp_format_f_internal
FUNC 3abdd c1 0 fp_format_g
FUNC 3acce 95 0 fp_format_nan_or_infinity
FUNC 3ad88 34 0 shift_bytes
PUBLIC 3adc9 0 strrchr(char * const,int)
PUBLIC 3add6 0 __acrt_fp_format
FUNC 3af5f 30 0 fputwc_binary_nolock
PUBLIC 3af9b 0 _fputwc_nolock
PUBLIC 3b10e 0 _fputwchar
PUBLIC 3b12e 0 _putwc_nolock
PUBLIC 3b13b 0 fputwc
PUBLIC 3b1d8 0 putwc
PUBLIC 3b1e5 0 putwchar
PUBLIC 3b1f2 0 __crt_stdio_stream::lowio_handle()
PUBLIC 3b1f9 0 _fileno
PUBLIC 3b229 0 _fputc_nolock
PUBLIC 3b25c 0 _fputchar
PUBLIC 3b27c 0 _putc_nolock
PUBLIC 3b289 0 fputc
PUBLIC 3b3d5 0 putc
PUBLIC 3b3e2 0 putchar
PUBLIC 3b3ef 0 _get_printf_count_output
PUBLIC 3b409 0 _set_printf_count_output
FUNC 3b43d 3 0 no_op_initialize
PUBLIC 3b440 0 __crt_internal_free_policy::operator()<__crt_locale_data>(__crt_locale_data const * const)
PUBLIC 3b456 0 __crt_internal_free_policy::operator()<__crt_locale_pointers>(__crt_locale_pointers const * const)
FUNC 3b46c 45 0 __crt_seh_guarded_call<void>::operator()<<lambda_135d2772fca65dc1248eeaa1b56e886a>,<lambda_2a444430fde8c29194d880d93eed5e8f> &,<lambda_8dff2cf36a5417162780cd64fa2883ef> &>
FUNC 3b4c2 4d 0 __crt_seh_guarded_call<void>::operator()<<lambda_4fdada1b837b2abbf20876fac97688ad>,<lambda_b57350f2640456a0859d250846f69caf> &,<lambda_eed5e4f92b5b7d55fa22c48c484aaa54> >
FUNC 3b522 52 0 __crt_seh_guarded_call<void>::operator()<<lambda_6673f7c4c09a5d469d0c27ae364621ce>,<lambda_ebab98244f73a74f49db879bf13fa982> &,<lambda_be20789b7a146653eab82509ec35b419> >
FUNC 3b588 54 0 __crt_seh_guarded_call<void>::operator()<<lambda_82aef432098b982f9ede325b418aa67a>,<lambda_862e9a3f04921db6ca1ce3faa2bf3edf> &,<lambda_ffabc152e504b53d7492b9889b10c020> >
FUNC 3b5f1 6e 0 __crt_seh_guarded_call<void>::operator()<<lambda_e5124f882df8998aaf41531e079ba474>,<lambda_3e16ef9562a7dcce91392c22ab16ea36> &,<lambda_e25ca0880e6ef98be67edffd8c599615> >
FUNC 3b67a 26 0 __acrt_lock_and_call<<lambda_3e16ef9562a7dcce91392c22ab16ea36> >
FUNC 3b6a9 26 0 __acrt_lock_and_call<<lambda_862e9a3f04921db6ca1ce3faa2bf3edf> >
FUNC 3b6d8 26 0 __acrt_lock_and_call<<lambda_b57350f2640456a0859d250846f69caf> >
FUNC 3b707 26 0 __acrt_lock_and_call<<lambda_ebab98244f73a74f49db879bf13fa982> >
FUNC 3b736 1a 0 __crt_call_and_cleanup<<lambda_2a444430fde8c29194d880d93eed5e8f>,<lambda_8dff2cf36a5417162780cd64fa2883ef> >
FUNC 3b756 2f 0 __crt_state_management::dual_state_global<__crt_locale_data *>::uninitialize<<lambda_88ce03f932007f29bf8b8056cbaba4f3> >
FUNC 3b790 28 0 <lambda_2a444430fde8c29194d880d93eed5e8f>::<lambda_2a444430fde8c29194d880d93eed5e8f>
FUNC 3b7c2 12 0 <lambda_4fdada1b837b2abbf20876fac97688ad>::<lambda_4fdada1b837b2abbf20876fac97688ad>
FUNC 3b7d8 12 0 <lambda_6673f7c4c09a5d469d0c27ae364621ce>::<lambda_6673f7c4c09a5d469d0c27ae364621ce>
FUNC 3b7ee 12 0 <lambda_82aef432098b982f9ede325b418aa67a>::<lambda_82aef432098b982f9ede325b418aa67a>
FUNC 3b804 10 0 <lambda_862e9a3f04921db6ca1ce3faa2bf3edf>::<lambda_862e9a3f04921db6ca1ce3faa2bf3edf>
FUNC 3b818 10 0 <lambda_8dff2cf36a5417162780cd64fa2883ef>::<lambda_8dff2cf36a5417162780cd64fa2883ef>
FUNC 3b82c 28 0 <lambda_b57350f2640456a0859d250846f69caf>::<lambda_b57350f2640456a0859d250846f69caf>
FUNC 3b85e 12 0 <lambda_be20789b7a146653eab82509ec35b419>::<lambda_be20789b7a146653eab82509ec35b419>
FUNC 3b874 12 0 <lambda_e25ca0880e6ef98be67edffd8c599615>::<lambda_e25ca0880e6ef98be67edffd8c599615>
FUNC 3b88a 12 0 <lambda_e5124f882df8998aaf41531e079ba474>::<lambda_e5124f882df8998aaf41531e079ba474>
FUNC 3b8a0 10 0 <lambda_ebab98244f73a74f49db879bf13fa982>::<lambda_ebab98244f73a74f49db879bf13fa982>
FUNC 3b8b4 12 0 <lambda_eed5e4f92b5b7d55fa22c48c484aaa54>::<lambda_eed5e4f92b5b7d55fa22c48c484aaa54>
FUNC 3b8ca 12 0 <lambda_ffabc152e504b53d7492b9889b10c020>::<lambda_ffabc152e504b53d7492b9889b10c020>
PUBLIC 3b8e0 0 __crt_unique_heap_ptr<__crt_locale_data,__crt_internal_free_policy>::__crt_unique_heap_ptr<__crt_locale_data,__crt_internal_free_policy>(__crt_locale_data * const)
PUBLIC 3b8f4 0 __crt_unique_heap_ptr<__crt_locale_pointers,__crt_internal_free_policy>::__crt_unique_heap_ptr<__crt_locale_pointers,__crt_internal_free_policy>(__crt_locale_pointers * const)
PUBLIC 3b908 0 _expandlocale_locale_name_cache::_expandlocale_locale_name_cache(wchar_t * const,unsigned int,__crt_qualified_locale_data * const)
PUBLIC 3b964 0 __crt_unique_heap_ptr<__crt_locale_data,__crt_internal_free_policy>::~__crt_unique_heap_ptr<__crt_locale_data,__crt_internal_free_policy>()
PUBLIC 3b97a 0 __crt_unique_heap_ptr<__crt_locale_pointers,__crt_internal_free_policy>::~__crt_unique_heap_ptr<__crt_locale_pointers,__crt_internal_free_policy>()
PUBLIC 3b990 0 _expandlocale_locale_name_cache::~_expandlocale_locale_name_cache()
PUBLIC 3b9cc 0 __crt_unique_heap_ptr<__crt_locale_data,__crt_internal_free_policy>::operator bool()
PUBLIC 3b9d3 0 __crt_unique_heap_ptr<__crt_locale_pointers,__crt_internal_free_policy>::operator bool()
FUNC 3b9da 3 0 <lambda_135d2772fca65dc1248eeaa1b56e886a>::operator()
FUNC 3b9dd 6a 0 <lambda_2a444430fde8c29194d880d93eed5e8f>::operator()
FUNC 3ba61 20 0 <lambda_3e16ef9562a7dcce91392c22ab16ea36>::operator()
FUNC 3ba89 9 0 <lambda_4fdada1b837b2abbf20876fac97688ad>::operator()
FUNC 3ba94 9 0 <lambda_6673f7c4c09a5d469d0c27ae364621ce>::operator()
FUNC 3ba9f 9 0 <lambda_82aef432098b982f9ede325b418aa67a>::operator()
FUNC 3baaa d 0 <lambda_862e9a3f04921db6ca1ce3faa2bf3edf>::operator()
FUNC 3baba 22 0 <lambda_88ce03f932007f29bf8b8056cbaba4f3>::operator()
FUNC 3bae4 c 0 <lambda_8dff2cf36a5417162780cd64fa2883ef>::operator()
FUNC 3baf3 fe 0 <lambda_b57350f2640456a0859d250846f69caf>::operator()
FUNC 3bc30 9 0 <lambda_be20789b7a146653eab82509ec35b419>::operator()
FUNC 3bc3b 9 0 <lambda_e25ca0880e6ef98be67edffd8c599615>::operator()
FUNC 3bc46 9 0 <lambda_e5124f882df8998aaf41531e079ba474>::operator()
FUNC 3bc51 b 0 <lambda_ebab98244f73a74f49db879bf13fa982>::operator()
FUNC 3bc5e 9 0 <lambda_eed5e4f92b5b7d55fa22c48c484aaa54>::operator()
FUNC 3bc69 9 0 <lambda_ffabc152e504b53d7492b9889b10c020>::operator()
PUBLIC 3bc74 0 _expandlocale_locale_name_cache::commit_locale_name(wchar_t const * const,unsigned int)
PUBLIC 3bcc9 0 _expandlocale_locale_name_cache::commit_locale_name_cache_already_updated(wchar_t const * const,unsigned int)
PUBLIC 3bd0b 0 __crt_unique_heap_ptr<__crt_locale_data,__crt_internal_free_policy>::detach()
PUBLIC 3bd11 0 __crt_unique_heap_ptr<__crt_locale_pointers,__crt_internal_free_policy>::detach()
PUBLIC 3bd17 0 __crt_unique_heap_ptr<__crt_locale_data,__crt_internal_free_policy>::get()
PUBLIC 3bd1a 0 __crt_unique_heap_ptr<__crt_locale_pointers,__crt_internal_free_policy>::get()
PUBLIC 3bd1d 0 __crt_unique_heap_ptr<__crt_locale_data,__crt_internal_free_policy>::is_valid()
PUBLIC 3bd24 0 __crt_unique_heap_ptr<__crt_locale_pointers,__crt_internal_free_policy>::is_valid()
PUBLIC 3bd2b 0 __crt_unique_heap_ptr<__crt_locale_data,__crt_internal_free_policy>::release()
PUBLIC 3bd41 0 __crt_unique_heap_ptr<__crt_locale_pointers,__crt_internal_free_policy>::release()
PUBLIC 3bd57 0 __acrt_copy_locale_name
PUBLIC 3bdcf 0 __acrt_set_locale_changed
PUBLIC 3bddc 0 __acrt_uninitialize_locale
PUBLIC 3be0c 0 __ascii_tolower
PUBLIC 3be28 0 __ascii_towlower
PUBLIC 3be44 0 __lc_lctowcs
PUBLIC 3bed0 0 __lc_wcstolc
PUBLIC 3c074 0 _configthreadlocale
FUNC 3c0ee 2f 0 _copytlocinfo_nolock
PUBLIC 3c128 0 _create_locale
FUNC 3c1a5 3c6 0 _expandlocale
PUBLIC 3c65c 0 _free_locale
PUBLIC 3c74e 0 _get_current_locale
PUBLIC 3c80f 0 _wcreate_locale
PUBLIC 3c957 0 _wcscats
PUBLIC 3c9a8 0 _wsetlocale
FUNC 3ca4b 19b 0 _wsetlocale_get_all
FUNC 3cc4c 2f0 0 _wsetlocale_nolock
FUNC 3cff8 3c7 0 _wsetlocale_set_cat
FUNC 3d4b0 26 0 categorize_delimiter
FUNC 3d4df 2f 0 get_default_code_page
FUNC 3d519 1ea 0 parse_bcp47
FUNC 3d77d 3f 0 parse_bcp47_code_page
FUNC 3d7cb 72 0 parse_bcp47_language
FUNC 3d859 b9 0 parse_bcp47_region
FUNC 3d940 70 0 parse_bcp47_script
FUNC 3d9cc 3d 0 string_is_alpha
FUNC 3da18 3a 0 string_is_digit
FUNC 3da60 22 0 sync_legacy_variables_lk
PUBLIC 3da8a 0 __pctype_func
PUBLIC 3dab7 0 __pwctype_func
PUBLIC 3dabd 0 _iswctype_l
PUBLIC 3dad6 0 iswctype
PUBLIC 3db59 0 _isctype
PUBLIC 3db98 0 _isctype_l
PUBLIC 3dc95 0 _isleadbyte_fast_internal
PUBLIC 3dcba 0 __acrt_add_locale_ref
PUBLIC 3dd56 0 __acrt_free_locale
PUBLIC 3def0 0 __acrt_locale_add_lc_time_reference
PUBLIC 3df23 0 __acrt_locale_free_lc_time_if_unreferenced
PUBLIC 3df60 0 __acrt_locale_release_lc_time_reference
PUBLIC 3df93 0 __acrt_release_locale_ref
PUBLIC 3e034 0 __acrt_update_thread_locale_data
PUBLIC 3e0d5 0 _updatetlocinfoEx_nolock
PUBLIC 3e139 0 __crt_state_management::dual_state_global<long>::value()
PUBLIC 3e13c 0 _query_new_mode
PUBLIC 3e143 0 _set_new_mode
FUNC 3e180 7a 0 shortsort
FUNC 3e220 39 0 swap
PUBLIC 3e270 0 qsort
FUNC 3e7c5 cb 0 common_tcsncpy_s<wchar_t>
PUBLIC 3e8c2 0 wcsncpy_s
PUBLIC 3e8cf 0 wcspbrk
FUNC 3e930 b3 0 common_tcsncpy_s<char>
PUBLIC 3ea0f 0 strncpy_s
PUBLIC 3ea20 0 strpbrk
PUBLIC 3ea70 0 _mbsdec
PUBLIC 3ea8c 0 _mbsdec_l
PUBLIC 3eb3c 0 __crt_scoped_stack_ptr<wchar_t>::__crt_scoped_stack_ptr<wchar_t>(__crt_scoped_stack_ptr_tag<wchar_t>)
PUBLIC 3eb50 0 __crt_scoped_stack_ptr_tag<wchar_t>::__crt_scoped_stack_ptr_tag<wchar_t>(wchar_t * const)
PUBLIC 3eb64 0 __crt_scoped_stack_ptr<wchar_t>::~__crt_scoped_stack_ptr<wchar_t>()
PUBLIC 3eb6f 0 __crt_scoped_stack_ptr<wchar_t>::get()
PUBLIC 3eb72 0 _MallocaComputeSize
PUBLIC 3eb89 0 _MarkAllocaS
PUBLIC 3eba4 0 __acrt_GetStringTypeA
PUBLIC 3ece7 0 _freea_crt
PUBLIC 3ed0f 0 __crt_scoped_stack_ptr<wchar_t>::operator bool()
FUNC 3ed16 1ea 0 __acrt_LCMapStringA_stat
PUBLIC 3ef7a 0 __acrt_LCMapStringA
FUNC 3efd5 f 0 initialize_multibyte
PUBLIC 3efe7 0 _wcsnicoll
PUBLIC 3f06f 0 _wcsnicoll_l
PUBLIC 3f15f 0 _strnicoll
PUBLIC 3f192 0 _strnicoll_l
FUNC 3f28c b2 0 __acrt_convert_wcs_mbs_cp<char,wchar_t,<lambda_62f6974d9771e494a5ea317cc32e971c>,__crt_win32_buffer_internal_dynamic_resizing>
FUNC 3f36a 21 0 <lambda_62f6974d9771e494a5ea317cc32e971c>::operator()
PUBLIC 3f393 0 __acrt_SetEnvironmentVariableA
PUBLIC 3f44d 0 _msize
PUBLIC 3f45a 0 _msize_base
PUBLIC 3f499 0 _realloc_base
FUNC 3f51c 37 0 GetTableIndexFromLcid
FUNC 3f560 50 0 GetTableIndexFromLocaleName
PUBLIC 3f5c4 0 __acrt_DownlevelLCIDToLocaleName
PUBLIC 3f698 0 __acrt_DownlevelLocaleNameToLCID
PUBLIC 3f6cf 0 __crt_internal_free_policy::operator()<__crt_lowio_handle_data>(__crt_lowio_handle_data const * const)
PUBLIC 3f6e5 0 __crt_unique_heap_ptr<__crt_lowio_handle_data,__crt_internal_free_policy>::__crt_unique_heap_ptr<__crt_lowio_handle_data,__crt_internal_free_policy>(__crt_lowio_handle_data * const)
PUBLIC 3f6f9 0 __crt_unique_heap_ptr<__crt_lowio_handle_data,__crt_internal_free_policy>::~__crt_unique_heap_ptr<__crt_lowio_handle_data,__crt_internal_free_policy>()
PUBLIC 3f70f 0 __crt_unique_heap_ptr<__crt_lowio_handle_data,__crt_internal_free_policy>::operator bool()
PUBLIC 3f716 0 __crt_unique_heap_ptr<__crt_lowio_handle_data,__crt_internal_free_policy>::detach()
PUBLIC 3f71c 0 __crt_unique_heap_ptr<__crt_lowio_handle_data,__crt_internal_free_policy>::get()
PUBLIC 3f71f 0 __crt_unique_heap_ptr<__crt_lowio_handle_data,__crt_internal_free_policy>::is_valid()
PUBLIC 3f726 0 __crt_unique_heap_ptr<__crt_lowio_handle_data,__crt_internal_free_policy>::release()
PUBLIC 3f73c 0 __acrt_lowio_create_handle_array
PUBLIC 3f7d5 0 __acrt_lowio_destroy_handle_array
PUBLIC 3f817 0 __acrt_lowio_ensure_fh_exists
PUBLIC 3f8dc 0 __acrt_lowio_lock_fh
PUBLIC 3f907 0 __acrt_lowio_set_os_handle
PUBLIC 3f9bd 0 __acrt_lowio_unlock_fh
PUBLIC 3f9e8 0 _alloc_osfhnd
PUBLIC 3fb3f 0 _free_osfhnd
PUBLIC 3fbf4 0 _get_osfhandle
PUBLIC 3fc78 0 _open_osfhandle
FUNC 3fdd3 a2 0 __crt_seh_guarded_call<int>::operator()<<lambda_9e9de3de5fa147e2223d7db92bc10aa6>,<lambda_38ce7e780aa69e748d6df282ebc68efe> &,<lambda_8ca6da459f0f6780f1cff60fdc3d00e5> >
FUNC 3fe9d 26 0 __acrt_lowio_lock_fh_and_call<<lambda_38ce7e780aa69e748d6df282ebc68efe> >
FUNC 3fecc 10 0 <lambda_38ce7e780aa69e748d6df282ebc68efe>::<lambda_38ce7e780aa69e748d6df282ebc68efe>
FUNC 3fee0 12 0 <lambda_8ca6da459f0f6780f1cff60fdc3d00e5>::<lambda_8ca6da459f0f6780f1cff60fdc3d00e5>
FUNC 3fef6 12 0 <lambda_9e9de3de5fa147e2223d7db92bc10aa6>::<lambda_9e9de3de5fa147e2223d7db92bc10aa6>
FUNC 3ff0c 55 0 <lambda_38ce7e780aa69e748d6df282ebc68efe>::operator()
FUNC 3ff76 9 0 <lambda_8ca6da459f0f6780f1cff60fdc3d00e5>::operator()
FUNC 3ff81 9 0 <lambda_9e9de3de5fa147e2223d7db92bc10aa6>::operator()
PUBLIC 3ff8c 0 _commit
FUNC 40028 4f 0 write_binary_nolock
FUNC 4008a 3aa 0 write_double_translated_ansi_nolock
FUNC 4051e 68 0 write_double_translated_unicode_nolock
FUNC 405a0 71 0 write_requires_double_translation_nolock
FUNC 4062d db 0 write_text_ansi_nolock
FUNC 4073e e9 0 write_text_utf16le_nolock
FUNC 40861 132 0 write_text_utf8_nolock
PUBLIC 409df 0 _utf8_no_of_trailbytes
PUBLIC 409f4 0 _write
PUBLIC 40b22 0 _write_nolock
PUBLIC 40d7c 0 localeconv
PUBLIC 40dae 0 __crt_stdio_stream::is_in_use()
PUBLIC 40dbd 0 _fcloseall
PUBLIC 40e92 0 __crt_stdio_stream::has_crt_buffer()
PUBLIC 40ea1 0 __acrt_stdio_free_buffer_nolock
PUBLIC 40ef1 0 _isatty
PUBLIC 40f5c 0 __iswcsym
PUBLIC 40f8b 0 __iswcsymf
PUBLIC 40fba 0 _isleadbyte_l
PUBLIC 41002 0 _iswalnum_l
PUBLIC 4101d 0 _iswalpha_l
PUBLIC 41038 0 _iswblank_l
PUBLIC 4105c 0 _iswcntrl_l
PUBLIC 41073 0 _iswcsym_l
PUBLIC 410a2 0 _iswcsymf_l
PUBLIC 410d1 0 _iswdigit_l
PUBLIC 410e8 0 _iswgraph_l
PUBLIC 41103 0 _iswlower_l
PUBLIC 4111a 0 _iswprint_l
PUBLIC 41135 0 _iswpunct_l
PUBLIC 4114c 0 _iswspace_l
PUBLIC 41163 0 _iswupper_l
PUBLIC 4117a 0 _iswxdigit_l
PUBLIC 41195 0 isleadbyte
PUBLIC 411ac 0 iswalnum
PUBLIC 411c7 0 iswalpha
PUBLIC 411e2 0 iswascii
PUBLIC 411fb 0 iswblank
PUBLIC 4121f 0 iswcntrl
PUBLIC 41236 0 iswdigit
PUBLIC 4124d 0 iswgraph
PUBLIC 41268 0 iswlower
PUBLIC 4127f 0 iswprint
PUBLIC 4129a 0 iswpunct
PUBLIC 412b1 0 iswspace
PUBLIC 412c8 0 iswupper
PUBLIC 412df 0 iswxdigit
FUNC 412fa 2c 0 <lambda_3d301b9e52f5099be73030e1f0bf487e>::operator()
PUBLIC 41331 0 __crt_mbstring::__mbrtowc_utf8(wchar_t *,char const *,unsigned int,_Mbstatet *)
PUBLIC 41381 0 __crt_mbstring::__mbsrtowcs_utf8(wchar_t *,char const * *,unsigned int,_Mbstatet *)
FUNC 414ba 1ed 0 _mbrtowc_s_l
FUNC 41722 12a 0 _mbsrtowcs_helper
PUBLIC 41896 0 btowc
PUBLIC 41904 0 mbrlen
PUBLIC 41942 0 mbrtowc
PUBLIC 419a7 0 mbsrtowcs
PUBLIC 419b4 0 mbsrtowcs_s
PUBLIC 41a7f 0 __crt_internal_free_policy::operator()<unsigned short>(unsigned short const * const)
PUBLIC 41a95 0 __crt_internal_free_policy::operator()<long>(long const * const)
PUBLIC 41aab 0 __crt_unique_heap_ptr<unsigned short,__crt_internal_free_policy>::__crt_unique_heap_ptr<unsigned short,__crt_internal_free_policy>(unsigned short * const)
PUBLIC 41abf 0 __crt_unique_heap_ptr<long,__crt_internal_free_policy>::__crt_unique_heap_ptr<long,__crt_internal_free_policy>(long * const)
PUBLIC 41ad3 0 __crt_unique_heap_ptr<unsigned short,__crt_internal_free_policy>::~__crt_unique_heap_ptr<unsigned short,__crt_internal_free_policy>()
PUBLIC 41ae9 0 __crt_unique_heap_ptr<long,__crt_internal_free_policy>::~__crt_unique_heap_ptr<long,__crt_internal_free_policy>()
PUBLIC 41aff 0 __crt_unique_heap_ptr<unsigned short,__crt_internal_free_policy>::detach()
PUBLIC 41b05 0 __crt_unique_heap_ptr<long,__crt_internal_free_policy>::detach()
PUBLIC 41b0b 0 __crt_unique_heap_ptr<unsigned short,__crt_internal_free_policy>::release()
PUBLIC 41b21 0 __crt_unique_heap_ptr<long,__crt_internal_free_policy>::release()
PUBLIC 41b37 0 ___lc_codepage_func
PUBLIC 41b65 0 ___lc_collate_cp_func
PUBLIC 41b93 0 ___lc_locale_name_func
PUBLIC 41bc3 0 ___mb_cur_max_func
PUBLIC 41bf1 0 ___mb_cur_max_l_func
PUBLIC 41c10 0 __acrt_locale_initialize_ctype
PUBLIC 42185 0 __crt_mbstring::__c32rtomb_utf8(char *,char32_t,_Mbstatet *)
PUBLIC 4225a 0 __crt_mbstring::reset_and_return(unsigned int,_Mbstatet *)
PUBLIC 42273 0 __crt_mbstring::return_illegal_sequence(_Mbstatet *)
PUBLIC 42299 0 c32rtomb
PUBLIC 422a6 0 __acrt_fp_strflt_to_string
FUNC 42396 11dc 0 convert_to_fos_high_precision<double>
PUBLIC 439f0 0 __crt_strtox::big_integer::big_integer(__crt_strtox::big_integer const &)
PUBLIC 43a30 0 __crt_strtox::big_integer::big_integer()
FUNC 43a3b 2c 0 `anonymous namespace'::scoped_fp_state_reset::scoped_fp_state_reset
FUNC 43a72 e 0 `anonymous namespace'::scoped_fp_state_reset::~scoped_fp_state_reset
PUBLIC 43a90 0 __crt_strtox::big_integer::operator=(__crt_strtox::big_integer const &)
PUBLIC 43ad0 0 __crt_strtox::operator==(__crt_strtox::big_integer const &,__crt_strtox::big_integer const &)
PUBLIC 43b20 0 __crt_strtox::operator!=(__crt_strtox::big_integer const &,__crt_strtox::big_integer const &)
PUBLIC 43b70 0 __crt_strtox::add_carry(unsigned int &,unsigned int,unsigned int)
PUBLIC 43ba0 0 __crt_strtox::add_multiply_carry(unsigned int &,unsigned int,unsigned int,unsigned int)
PUBLIC 43bd0 0 __crt_strtox::bit_scan_reverse(unsigned int)
PUBLIC 43c00 0 __crt_strtox::count_sequential_high_zeroes(unsigned int)
PUBLIC 43c30 0 __crt_strtox::divide(__crt_strtox::big_integer &,__crt_strtox::big_integer const &)
PUBLIC 441f0 0 __crt_strtox::is_zero(__crt_strtox::big_integer const &)
PUBLIC 44210 0 __crt_strtox::make_big_integer(unsigned __int64)
PUBLIC 44240 0 __crt_strtox::make_big_integer_power_of_two(unsigned int)
PUBLIC 442a0 0 __crt_strtox::multiply(__crt_strtox::big_integer &,__crt_strtox::big_integer const &)
PUBLIC 446b0 0 __crt_strtox::multiply(__crt_strtox::big_integer &,unsigned int)
PUBLIC 447b0 0 __crt_strtox::multiply_64_32(unsigned __int64,unsigned int)
PUBLIC 447d0 0 __crt_strtox::multiply_by_power_of_ten(__crt_strtox::big_integer &,unsigned int)
PUBLIC 44e40 0 __crt_strtox::multiply_core(unsigned int * const,unsigned int,unsigned int)
PUBLIC 44e90 0 __crt_strtox::shift_left(__crt_strtox::big_integer &,unsigned int)
PUBLIC 4503b 0 __acrt_fltout
FUNC 46857 81 0 memcpy_s
FUNC 468f8 115 0 common_flush_and_write_nolock<char>
FUNC 46a52 119 0 common_flush_and_write_nolock<wchar_t>
FUNC 46bb1 cc 0 write_buffer_nolock<char>
FUNC 46cb0 ce 0 write_buffer_nolock<wchar_t>
PUBLIC 46db1 0 __crt_stdio_stream::has_big_buffer()
FUNC 46dc0 85 0 stream_is_at_end_of_file_nolock
PUBLIC 46e66 0 __acrt_stdio_flush_and_write_narrow_nolock
PUBLIC 46e73 0 __acrt_stdio_flush_and_write_wide_nolock
PUBLIC 46e80 0 __crt_internal_free_policy::operator()<lconv>(lconv const * const)
PUBLIC 46e96 0 __crt_unique_heap_ptr<lconv,__crt_internal_free_policy>::__crt_unique_heap_ptr<lconv,__crt_internal_free_policy>(lconv * const)
PUBLIC 46eaa 0 __crt_unique_heap_ptr<lconv,__crt_internal_free_policy>::~__crt_unique_heap_ptr<lconv,__crt_internal_free_policy>()
PUBLIC 46ec0 0 __crt_unique_heap_ptr<lconv,__crt_internal_free_policy>::detach()
PUBLIC 46ec6 0 __crt_unique_heap_ptr<lconv,__crt_internal_free_policy>::release()
PUBLIC 46edc 0 __acrt_locale_free_monetary
PUBLIC 47019 0 __acrt_locale_initialize_monetary
FUNC 474bd 38 0 fix_grouping
PUBLIC 47503 0 __acrt_locale_free_numeric
PUBLIC 47586 0 __acrt_locale_initialize_numeric
FUNC 47818 38 0 fix_grouping
PUBLIC 4785e 0 __crt_internal_free_policy::operator()<__crt_lc_time_data>(__crt_lc_time_data const * const)
FUNC 47874 13 0 free_crt_array<char,2>
FUNC 4788b 13 0 free_crt_array<char,7>
FUNC 478a2 13 0 free_crt_array<char,12>
FUNC 478b9 13 0 free_crt_array<wchar_t,2>
FUNC 478d0 13 0 free_crt_array<wchar_t,7>
FUNC 478e7 13 0 free_crt_array<wchar_t,12>
PUBLIC 478fe 0 __crt_unique_heap_ptr<__crt_lc_time_data,__crt_internal_free_policy>::__crt_unique_heap_ptr<__crt_lc_time_data,__crt_internal_free_policy>(__crt_lc_time_data * const)
PUBLIC 47912 0 __crt_unique_heap_ptr<__crt_lc_time_data,__crt_internal_free_policy>::~__crt_unique_heap_ptr<__crt_lc_time_data,__crt_internal_free_policy>()
PUBLIC 47928 0 __crt_unique_heap_ptr<__crt_lc_time_data,__crt_internal_free_policy>::operator bool()
PUBLIC 4792f 0 __crt_unique_heap_ptr<__crt_lc_time_data,__crt_internal_free_policy>::detach()
FUNC 47935 38 0 free_crt_array_internal
PUBLIC 4797b 0 __crt_unique_heap_ptr<__crt_lc_time_data,__crt_internal_free_policy>::get()
FUNC 4797e 61 0 get_or_create_lc_time
FUNC 479f7 27c 0 initialize_lc_time
PUBLIC 47d12 0 __crt_unique_heap_ptr<__crt_lc_time_data,__crt_internal_free_policy>::is_valid()
PUBLIC 47d19 0 __crt_unique_heap_ptr<__crt_lc_time_data,__crt_internal_free_policy>::release()
PUBLIC 47d2f 0 __acrt_locale_free_time
PUBLIC 47e4c 0 __acrt_locale_initialize_time
FUNC 47ee5 72 0 common_tcscat_s<wchar_t>
PUBLIC 47f73 0 wcscat_s
FUNC 48005 e7 0 common_tcsncat_s<wchar_t>
PUBLIC 48125 0 wcsncat_s
PUBLIC 48132 0 wcscspn
FUNC 481a1 87 0 GetLocaleNameFromDefault
FUNC 48249 99 0 GetLocaleNameFromLangCountry
FUNC 48308 59 0 GetLocaleNameFromLanguage
FUNC 48377 34 0 GetPrimaryLen
FUNC 483b8 2e0 0 LangCountryEnumProcEx
FUNC 48750 bf 0 LanguageEnumProcEx
FUNC 4883e f6 0 ProcessCodePage
FUNC 48971 4d 0 TestDefaultCountry
FUNC 489d1 46 0 TestDefaultLanguage
FUNC 48a28 6d 0 TranslateName
PUBLIC 48ab0 0 __acrt_get_qualified_locale
FUNC 48d29 a7 0 CountryEnumProc
FUNC 48df9 4b 0 GetLcidFromCountry
FUNC 48e56 1e 0 GetLcidFromDefault
FUNC 48e7b 9b 0 GetLcidFromLangCountry
FUNC 48f3c 5f 0 GetLcidFromLanguage
FUNC 48fb2 2c 0 GetPrimaryLen
FUNC 48fe9 253 0 LangCountryEnumProc
FUNC 492d0 d5 0 LanguageEnumProc
FUNC 493da 51 0 LcidFromHexString
FUNC 4943f e1 0 ProcessCodePage
FUNC 49558 25 0 TestDefaultCountry
FUNC 49586 6e 0 TestDefaultLanguage
FUNC 4960f 61 0 TranslateName
PUBLIC 49688 0 __acrt_get_qualified_locale_downlevel
PUBLIC 498fa 0 __acrt_GetStringTypeW
PUBLIC 49919 0 __strncnt
PUBLIC 4993c 0 __acrt_CompareStringW
PUBLIC 499ba 0 __ascii_wcsnicmp
PUBLIC 49a1c 0 _towlower_fast_internal
PUBLIC 49a51 0 _towlower_internal
PUBLIC 49a9f 0 _wcsnicmp
PUBLIC 49afe 0 _wcsnicmp_l
PUBLIC 49c05 0 _strnicmp
PUBLIC 49c8d 0 _strnicmp_l
FUNC 49d88 28b 0 InternalCompareStringA
PUBLIC 4a0b5 0 __acrt_CompareStringA
FUNC 4a10c 3 0 issue_debug_notification
FUNC 4a10f 20 0 should_write_error_to_console
FUNC 4a137 7b 0 write_string_to_console
PUBLIC 4a1d0 0 __acrt_report_runtime_error
PUBLIC 4a32a 0 _query_app_type
PUBLIC 4a330 0 _set_app_type
FUNC 4a342 f2 0 common_lseek<long>
FUNC 4a470 10c 0 common_lseek<__int64>
FUNC 4a5bf 57 0 common_lseek_nolock<long>
FUNC 4a62b 7c 0 common_lseek_nolock<__int64>
FUNC 4a6c6 82 0 common_lseek_do_seek_nolock
FUNC 4a768 3d 0 common_lseek_do_seek_nolock
PUBLIC 4a7b4 0 _lseek
PUBLIC 4a7c1 0 _lseek_nolock
PUBLIC 4a7ce 0 _lseeki64
PUBLIC 4a7ef 0 _lseeki64_nolock
FUNC 4a810 68 0 __crt_seh_guarded_call<unsigned short>::operator()<<lambda_f828341fbe69b7c0d4c527b01f22877f>,<lambda_9e0b6ab72a5b3ae37ad997d08b519f50> &,<lambda_f01deac0a8d65d6e0411edf7e0af5775> >
FUNC 4a892 26 0 __acrt_lock_and_call<<lambda_9e0b6ab72a5b3ae37ad997d08b519f50> >
FUNC 4a8c1 10 0 <lambda_9e0b6ab72a5b3ae37ad997d08b519f50>::<lambda_9e0b6ab72a5b3ae37ad997d08b519f50>
FUNC 4a8d5 12 0 <lambda_f01deac0a8d65d6e0411edf7e0af5775>::<lambda_f01deac0a8d65d6e0411edf7e0af5775>
FUNC 4a8eb 12 0 <lambda_f828341fbe69b7c0d4c527b01f22877f>::<lambda_f828341fbe69b7c0d4c527b01f22877f>
FUNC 4a901 d 0 <lambda_9e0b6ab72a5b3ae37ad997d08b519f50>::operator()
FUNC 4a911 9 0 <lambda_f01deac0a8d65d6e0411edf7e0af5775>::operator()
FUNC 4a91c 9 0 <lambda_f828341fbe69b7c0d4c527b01f22877f>::operator()
PUBLIC 4a927 0 _putwch
PUBLIC 4a95f 0 _putwch_nolock
FUNC 4a99d 161 0 translate_text_mode_nolock<char>
FUNC 4ab56 1d1 0 translate_text_mode_nolock<wchar_t>
FUNC 4ad9b 23 0 store_lookahead
FUNC 4adc6 41 0 store_lookahead
FUNC 4ae17 157 0 translate_ansi_or_utf8_nolock
FUNC 4afc3 7b 0 translate_utf16_from_console_nolock
PUBLIC 4b05c 0 _read
PUBLIC 4b1b5 0 _read_nolock
PUBLIC 4b651 0 _fclose_nolock
PUBLIC 4b6e5 0 fclose
PUBLIC 4b78a 0 __crt_mbstring::__mbrtoc32_utf8(char32_t *,char const *,unsigned int,_Mbstatet *)
PUBLIC 4b99a 0 mbrtoc32
FUNC 4b9a7 df 0 InternalGetLocaleInfoA
PUBLIC 4babd 0 __acrt_GetLocaleInfoA
PUBLIC 4bcd9 0 fegetenv
PUBLIC 4bcfd 0 fesetenv
PUBLIC 4bd5a 0 feholdexcept
PUBLIC 4bdc0 0 _CIlog10
PUBLIC 4bdfb 0 _CIlog10_default
PUBLIC 4be0f 0 _log10_default
PUBLIC 4bf20 0 ceil
PUBLIC 4bf60 0 _ceil_pentium4
PUBLIC 4c084 0 __acrt_stdio_allocate_buffer_nolock
FUNC 4c0f3 a0 0 common_xtox<unsigned long,char>
FUNC 4c1bb b3 0 common_xtox<unsigned long,wchar_t>
FUNC 4c29a c7 0 common_xtox<unsigned __int64,char>
FUNC 4c392 dc 0 common_xtox<unsigned __int64,wchar_t>
FUNC 4c4a5 70 0 common_xtox_s<unsigned long,char>
FUNC 4c531 72 0 common_xtox_s<unsigned long,wchar_t>
FUNC 4c5bf 73 0 common_xtox_s<unsigned __int64,char>
FUNC 4c64e 75 0 common_xtox_s<unsigned __int64,wchar_t>
PUBLIC 4c6e0 0 _i64toa
PUBLIC 4c731 0 _i64toa_s
PUBLIC 4c77f 0 _i64tow
PUBLIC 4c7d0 0 _i64tow_s
PUBLIC 4c81e 0 _itoa
PUBLIC 4c860 0 _itoa_s
PUBLIC 4c89f 0 _itow
PUBLIC 4c8e1 0 _itow_s
PUBLIC 4c920 0 _ltoa
PUBLIC 4c962 0 _ltoa_s
PUBLIC 4c9a1 0 _ltow
PUBLIC 4c9e3 0 _ltow_s
PUBLIC 4ca22 0 _ui64toa
PUBLIC 4ca4c 0 _ui64toa_s
PUBLIC 4ca74 0 _ui64tow
PUBLIC 4ca9e 0 _ui64tow_s
PUBLIC 4cac6 0 _ultoa
PUBLIC 4caec 0 _ultoa_s
PUBLIC 4cb10 0 _ultow
PUBLIC 4cb36 0 _ultow_s
PUBLIC 4cb5a 0 __ascii_wcsicmp
PUBLIC 4cba6 0 _wcsicmp
PUBLIC 4cc01 0 _wcsicmp_l
PUBLIC 4cce7 0 _towlower_l
PUBLIC 4cdb1 0 towlower
PUBLIC 4cdd0 0 __ascii_strnicmp
PUBLIC 4ce49 0 _set_error_mode
FUNC 4ce97 7d 0 common_show_message_box<char>
FUNC 4cf33 7e 0 common_show_message_box<wchar_t>
PUBLIC 4cfd0 0 __crt_char_traits<char>::message_box<std::nullptr_t,char const * const &,char const * const &,unsigned long>(std::nullptr_t &&,char const * const &,char const * const &,unsigned long &&)
PUBLIC 4cff8 0 __crt_char_traits<wchar_t>::message_box<std::nullptr_t,wchar_t const * const &,wchar_t const * const &,unsigned long>(std::nullptr_t &&,wchar_t const * const &,wchar_t const * const &,unsigned long &&)
PUBLIC 4d020 0 __crt_char_traits<char>::message_box<HWND__ *,char const * const &,char const * const &,unsigned int const &>(HWND__ * &&,char const * const &,char const * const &,unsigned int const &)
PUBLIC 4d048 0 __crt_char_traits<wchar_t>::message_box<HWND__ *,wchar_t const * const &,wchar_t const * const &,unsigned int const &>(HWND__ * &&,wchar_t const * const &,wchar_t const * const &,unsigned int const &)
PUBLIC 4d070 0 __crt_char_traits<char>::output_debug_string<char const * const &>(char const * const &)
PUBLIC 4d085 0 __crt_char_traits<wchar_t>::output_debug_string<wchar_t const * const &>(wchar_t const * const &)
PUBLIC 4d09b 0 __acrt_show_narrow_message_box
PUBLIC 4d0a8 0 __acrt_show_wide_message_box
FUNC 4d0b5 58 0 console_output_reopen_and_retry<<lambda_61c1b8a38cedca4df5fdc542e6ccae6d> >
FUNC 4d123 22 0 <lambda_61c1b8a38cedca4df5fdc542e6ccae6d>::<lambda_61c1b8a38cedca4df5fdc542e6ccae6d>
FUNC 4d14d 17 0 <lambda_61c1b8a38cedca4df5fdc542e6ccae6d>::operator()
FUNC 4d169 1f 0 __dcrt_lowio_initialize_console_output
PUBLIC 4d18f 0 __dcrt_lowio_ensure_console_output_initialized
PUBLIC 4d1b5 0 __dcrt_terminate_console_output
PUBLIC 4d1d1 0 __dcrt_write_console
FUNC 4d23b 8c 0 __crt_seh_guarded_call<int>::operator()<<lambda_218ce3db14220d0be481dae8ef3383b6>,<lambda_628dfdc04ba53c8bfc02c9951375f3f5> &,<lambda_57dc472bd5c9d5f3b2cbca59b8a843ae> >
FUNC 4d2ea 26 0 __acrt_lowio_lock_fh_and_call<<lambda_628dfdc04ba53c8bfc02c9951375f3f5> >
FUNC 4d319 12 0 <lambda_218ce3db14220d0be481dae8ef3383b6>::<lambda_218ce3db14220d0be481dae8ef3383b6>
FUNC 4d32f 12 0 <lambda_57dc472bd5c9d5f3b2cbca59b8a843ae>::<lambda_57dc472bd5c9d5f3b2cbca59b8a843ae>
FUNC 4d345 10 0 <lambda_628dfdc04ba53c8bfc02c9951375f3f5>::<lambda_628dfdc04ba53c8bfc02c9951375f3f5>
FUNC 4d359 9 0 <lambda_218ce3db14220d0be481dae8ef3383b6>::operator()
FUNC 4d364 9 0 <lambda_57dc472bd5c9d5f3b2cbca59b8a843ae>::operator()
FUNC 4d36f 39 0 <lambda_628dfdc04ba53c8bfc02c9951375f3f5>::operator()
FUNC 4d3b6 6a 0 close_os_handle_nolock
PUBLIC 4d43a 0 _close
PUBLIC 4d4ea 0 _close_nolock
PUBLIC 4d5ad 0 __crt_internal_free_policy::operator()<__crt_stdio_stream_data>(__crt_stdio_stream_data const * const)
PUBLIC 4d5c3 0 __crt_unique_heap_ptr<__crt_stdio_stream_data,__crt_internal_free_policy>::__crt_unique_heap_ptr<__crt_stdio_stream_data,__crt_internal_free_policy>(__crt_stdio_stream_data * const)
PUBLIC 4d5d7 0 __crt_stdio_stream::__crt_stdio_stream()
PUBLIC 4d5dd 0 __crt_unique_heap_ptr<__crt_stdio_stream_data,__crt_internal_free_policy>::~__crt_unique_heap_ptr<__crt_stdio_stream_data,__crt_internal_free_policy>()
PUBLIC 4d5f3 0 __acrt_stdio_allocate_stream()
PUBLIC 4d676 0 __acrt_stdio_free_stream(__crt_stdio_stream)
PUBLIC 4d6bf 0 __crt_stdio_stream::deallocate()
PUBLIC 4d6cb 0 __crt_unique_heap_ptr<__crt_stdio_stream_data,__crt_internal_free_policy>::detach()
FUNC 4d6d1 c2 0 find_or_allocate_unused_stream_nolock
PUBLIC 4d7c3 0 __crt_stdio_stream::lock()
PUBLIC 4d7ce 0 __crt_unique_heap_ptr<__crt_stdio_stream_data,__crt_internal_free_policy>::release()
PUBLIC 4d7e4 0 __crt_stdio_stream::try_allocate()
PUBLIC 4d80c 0 __crt_stdio_stream::unlock()
PUBLIC 4d817 0 __acrt_fenv_shift_bits<__acrt_fenv_abstract_control>(__acrt_fenv_abstract_control,__acrt_fenv_abstract_control,unsigned int)
PUBLIC 4d82d 0 __acrt_fenv_shift_bits<__acrt_fenv_abstract_status>(__acrt_fenv_abstract_status,__acrt_fenv_abstract_status,unsigned int)
PUBLIC 4d843 0 __acrt_fenv_translate_bit<__acrt_fenv_abstract_control,__acrt_fenv_machine_sse_control>(__acrt_fenv_machine_sse_control,__acrt_fenv_machine_sse_control,__acrt_fenv_abstract_control,__acrt_fenv_abstract_control)
PUBLIC 4d861 0 __acrt_fenv_translate_bit<__acrt_fenv_abstract_control,__acrt_fenv_machine_x87_control>(__acrt_fenv_machine_x87_control,__acrt_fenv_machine_x87_control,__acrt_fenv_abstract_control,__acrt_fenv_abstract_control)
PUBLIC 4d87f 0 __acrt_fenv_translate_bit<__acrt_fenv_abstract_status,__acrt_fenv_machine_sse_status>(__acrt_fenv_machine_sse_status,__acrt_fenv_machine_sse_status,__acrt_fenv_abstract_status,__acrt_fenv_abstract_status)
PUBLIC 4d899 0 __acrt_fenv_translate_bit<__acrt_fenv_abstract_status,__acrt_fenv_machine_x87_status>(__acrt_fenv_machine_x87_status,__acrt_fenv_machine_x87_status,__acrt_fenv_abstract_status,__acrt_fenv_abstract_status)
PUBLIC 4d8b3 0 __acrt_fenv_translate_bit<__acrt_fenv_machine_sse_control,__acrt_fenv_abstract_control>(__acrt_fenv_abstract_control,__acrt_fenv_abstract_control,__acrt_fenv_machine_sse_control,__acrt_fenv_machine_sse_control)
PUBLIC 4d8cf 0 __acrt_fenv_translate_bit<__acrt_fenv_machine_sse_status,__acrt_fenv_abstract_status>(__acrt_fenv_abstract_status,__acrt_fenv_abstract_status,__acrt_fenv_machine_sse_status,__acrt_fenv_machine_sse_status)
PUBLIC 4d8e9 0 __acrt_fenv_translate_bit<__acrt_fenv_machine_x87_control,__acrt_fenv_abstract_control>(__acrt_fenv_abstract_control,__acrt_fenv_abstract_control,__acrt_fenv_machine_x87_control,__acrt_fenv_machine_x87_control)
PUBLIC 4d905 0 __acrt_fenv_translate_bit<__acrt_fenv_machine_x87_status,__acrt_fenv_abstract_status>(__acrt_fenv_abstract_status,__acrt_fenv_abstract_status,__acrt_fenv_machine_x87_status,__acrt_fenv_machine_x87_status)
PUBLIC 4d91f 0 __acrt_fenv_unshift_bits<__acrt_fenv_abstract_control>(__acrt_fenv_abstract_control,__acrt_fenv_abstract_control,unsigned int)
PUBLIC 4d935 0 __acrt_fenv_unshift_bits<__acrt_fenv_abstract_status>(__acrt_fenv_abstract_status,__acrt_fenv_abstract_status,unsigned int)
FUNC 4d94b 4e 0 to_abstract_status<enum __acrt_fenv_machine_sse_status>
FUNC 4d9ac 4e 0 to_abstract_status<enum __acrt_fenv_machine_x87_status>
FUNC 4da0d 51 0 translate_control_exception_mask<enum __acrt_fenv_abstract_control,enum __acrt_fenv_machine_sse_control>
FUNC 4da72 4e 0 translate_control_exception_mask<enum __acrt_fenv_abstract_control,enum __acrt_fenv_machine_x87_control>
FUNC 4dad3 60 0 translate_control_exception_mask<enum __acrt_fenv_machine_sse_control,enum __acrt_fenv_abstract_control>
FUNC 4db4b 54 0 translate_control_exception_mask<enum __acrt_fenv_machine_x87_control,enum __acrt_fenv_abstract_control>
FUNC 4dbb4 13 0 translate_control_infinity_control<enum __acrt_fenv_abstract_control,enum __acrt_fenv_machine_x87_control>
FUNC 4dbcb 19 0 translate_control_infinity_control<enum __acrt_fenv_machine_x87_control,enum __acrt_fenv_abstract_control>
FUNC 4dbea 28 0 translate_control_precision_control<enum __acrt_fenv_abstract_control,enum __acrt_fenv_machine_x87_control>
FUNC 4dc1c 28 0 translate_control_precision_control<enum __acrt_fenv_machine_x87_control,enum __acrt_fenv_abstract_control>
FUNC 4dc4e 3c 0 translate_control_rounding_control<enum __acrt_fenv_abstract_control,enum __acrt_fenv_machine_sse_control>
FUNC 4dc99 3c 0 translate_control_rounding_control<enum __acrt_fenv_abstract_control,enum __acrt_fenv_machine_x87_control>
FUNC 4dce4 3c 0 translate_control_rounding_control<enum __acrt_fenv_machine_sse_control,enum __acrt_fenv_abstract_control>
FUNC 4dd2f 3c 0 translate_control_rounding_control<enum __acrt_fenv_machine_x87_control,enum __acrt_fenv_abstract_control>
FUNC 4dd7a 4e 0 translate_status<enum __acrt_fenv_abstract_status,enum __acrt_fenv_machine_sse_status>
FUNC 4dddb 4e 0 translate_status<enum __acrt_fenv_abstract_status,enum __acrt_fenv_machine_x87_status>
FUNC 4de3c 4e 0 translate_status<enum __acrt_fenv_machine_sse_status,enum __acrt_fenv_abstract_status>
FUNC 4de9d 4e 0 translate_status<enum __acrt_fenv_machine_x87_status,enum __acrt_fenv_abstract_status>
PUBLIC 4defe 0 operator&(__acrt_fenv_abstract_control,__acrt_fenv_abstract_control)
PUBLIC 4df0e 0 operator&(__acrt_fenv_abstract_status,__acrt_fenv_abstract_status)
PUBLIC 4df1e 0 operator&(__acrt_fenv_machine_sse_control,__acrt_fenv_machine_sse_control)
PUBLIC 4df2e 0 operator&(__acrt_fenv_machine_sse_status,__acrt_fenv_machine_sse_status)
PUBLIC 4df3e 0 operator&(__acrt_fenv_machine_x87_control,__acrt_fenv_machine_x87_control)
PUBLIC 4df4e 0 operator&(__acrt_fenv_machine_x87_status,__acrt_fenv_machine_x87_status)
PUBLIC 4df5e 0 operator|(__acrt_fenv_abstract_control,__acrt_fenv_abstract_control)
PUBLIC 4df6e 0 operator|(__acrt_fenv_abstract_status,__acrt_fenv_abstract_status)
PUBLIC 4df7e 0 operator|(__acrt_fenv_machine_sse_control,__acrt_fenv_machine_sse_control)
PUBLIC 4df8e 0 operator|(__acrt_fenv_machine_x87_control,__acrt_fenv_machine_x87_control)
PUBLIC 4df9e 0 operator|=(__acrt_fenv_abstract_control &,__acrt_fenv_abstract_control)
PUBLIC 4dfb0 0 operator|=(__acrt_fenv_abstract_status &,__acrt_fenv_abstract_status)
PUBLIC 4dfc2 0 operator|=(__acrt_fenv_machine_sse_control &,__acrt_fenv_machine_sse_control)
PUBLIC 4dfd7 0 operator|=(__acrt_fenv_machine_sse_status &,__acrt_fenv_machine_sse_status)
PUBLIC 4dfe9 0 operator|=(__acrt_fenv_machine_x87_control &,__acrt_fenv_machine_x87_control)
PUBLIC 4dffe 0 operator|=(__acrt_fenv_machine_x87_status &,__acrt_fenv_machine_x87_status)
PUBLIC 4e010 0 __acrt_fenv_shift_abstract_sse_control(__acrt_fenv_abstract_control)
PUBLIC 4e034 0 __acrt_fenv_shift_abstract_sse_status(__acrt_fenv_abstract_status)
PUBLIC 4e048 0 __acrt_fenv_shift_abstract_x87_control(__acrt_fenv_abstract_control)
PUBLIC 4e06c 0 __acrt_fenv_shift_abstract_x87_status(__acrt_fenv_abstract_status)
PUBLIC 4e080 0 __acrt_fenv_unshift_abstract_sse_control(__acrt_fenv_abstract_control)
PUBLIC 4e0a6 0 __acrt_fenv_unshift_abstract_sse_status(__acrt_fenv_abstract_status)
PUBLIC 4e0ba 0 __acrt_fenv_unshift_abstract_x87_control(__acrt_fenv_abstract_control)
PUBLIC 4e0e0 0 __acrt_fenv_unshift_abstract_x87_status(__acrt_fenv_abstract_status)
FUNC 4e0f4 21 0 get_machine_sse_control
FUNC 4e11d 1f 0 get_machine_sse_status
FUNC 4e143 24 0 get_machine_x87_control
FUNC 4e170 18 0 get_machine_x87_status
FUNC 4e18e 2f 0 set_machine_sse_control
FUNC 4e1c8 2a 0 set_machine_sse_status
FUNC 4e1fc 2e 0 set_machine_x87_control
FUNC 4e235 2c 0 set_machine_x87_status
FUNC 4e26c bc 0 to_abstract_control
FUNC 4e357 b9 0 to_abstract_control
FUNC 4e43e cd 0 to_machine_sse_control
FUNC 4e53e 50 0 to_machine_sse_status
FUNC 4e5a2 cb 0 to_machine_x87_control
FUNC 4e69f 50 0 to_machine_x87_status
FUNC 4e703 3b 0 translate_control_denormal_control_from_sse
FUNC 4e74c 38 0 translate_control_denormal_control_to_sse
PUBLIC 4e792 0 __acrt_fenv_expand_round_control
PUBLIC 4e7d5 0 __acrt_fenv_get_common_round_control
PUBLIC 4e7ff 0 __acrt_fenv_get_control
PUBLIC 4e89f 0 __acrt_fenv_get_fp_status_word_from_exception_mask
PUBLIC 4e8bf 0 __acrt_fenv_get_status
PUBLIC 4e9a5 0 __acrt_fenv_set_control
PUBLIC 4ea27 0 __acrt_fenv_set_status
FUNC 4eb5b aa 0 __abstract_cw_sse2
FUNC 4ec2f 43 0 __abstract_sw_sse2
FUNC 4ec82 56 0 __clearfp_sse2
PUBLIC 4eced 0 __control87_2
FUNC 4f0cb 180 0 __control87_sse2
PUBLIC 4f2ab 0 __fpreset_sse2
FUNC 4f2ba a7 0 __hw_cw_sse2
FUNC 4f38a 41 0 __statusfp_sse2
FUNC 4f3db 9f 0 _abstract_cw
FUNC 4f4a1 43 0 _abstract_sw
PUBLIC 4f4f4 0 _clearfp
PUBLIC 4f609 0 _control87
PUBLIC 4f9ca 0 _controlfp
PUBLIC 4f9ea 0 _fpreset
FUNC 4fa28 9e 0 _hw_cw
PUBLIC 4faed 0 _set_controlfp
PUBLIC 4fb7c 0 _statusfp
PUBLIC 4fc3d 0 _statusfp2
PUBLIC 4fcb8 0 __acrt_initialize_sse2
PUBLIC 4fccc 0 _set_SSE2_enable
PUBLIC 4fd00 0 _CIlog10_pentium4
PUBLIC 4fd18 0 _log10_pentium4
PUBLIC 50060 0 _fFEXP
PUBLIC 500b7 0 _rtinfpopse
PUBLIC 500b9 0 _rtinfnpopse
PUBLIC 500c9 0 _fFLN
PUBLIC 5017e 0 _rtinfpop
PUBLIC 50180 0 _rtinfnpop
PUBLIC 50190 0 _rtforexpinf
PUBLIC 5019d 0 _ffexpm1
PUBLIC 502d0 0 _trandisp1
PUBLIC 50345 0 _trandisp2
PUBLIC 503df 0 _rttospopde
PUBLIC 503e4 0 _rttospop
PUBLIC 503f0 0 _rtnospop
PUBLIC 50400 0 _rttosnpop
PUBLIC 50401 0 _rtnospopde
PUBLIC 50408 0 _rtzeropop
PUBLIC 5040a 0 _rtzeronpop
PUBLIC 50410 0 _rtzerospop
PUBLIC 5041d 0 _rtonepop
PUBLIC 50420 0 _rtonenpop
PUBLIC 50430 0 _tosnan1
PUBLIC 50460 0 _nosnan2
PUBLIC 50470 0 _tosnan2
PUBLIC 504a0 0 _nan2
PUBLIC 504e0 0 _rtindfpop
PUBLIC 504e2 0 _rtindfnpop
PUBLIC 504f3 0 _rttosnpopde
PUBLIC 50500 0 _rtatan2inf
PUBLIC 5051d 0 _rtchsifneg
PUBLIC 505b9 0 __setfflag
PUBLIC 505e0 0 _twoToTOS
PUBLIC 505f5 0 _load_CW
PUBLIC 5060c 0 _convertTOStoQNaN
PUBLIC 50625 0 _fload_withFB
PUBLIC 50668 0 _checkTOS_withFB
PUBLIC 5067e 0 _fast_exit
PUBLIC 5068b 0 _math_exit
PUBLIC 506b5 0 _check_overflow_exit
PUBLIC 506c9 0 _check_range_exit
PUBLIC 507d0 0 _startTwoArgErrorHandling
PUBLIC 507e7 0 _startOneArgErrorHandling
PUBLIC 50837 0 __libm_error_support
PUBLIC 50aa8 0 __libm_setusermatherr
PUBLIC 50ad8 0 _ceil_default
PUBLIC 50bba 0 __acrt_LCMapStringW
PUBLIC 50c07 4 __acrt_OutputDebugStringA
PUBLIC 50c91 0 _controlfp_s
PUBLIC 50d07 0 __clrfp_sse2
PUBLIC 50d30 0 __ctrlfp_sse2
PUBLIC 50d79 0 __fclrf_sse2
PUBLIC 50d9d 0 __get_fpsr_sse2
PUBLIC 50dc0 0 __set_fpsr_sse2
PUBLIC 50e60 0 __set_statfp_sse2
PUBLIC 50e81 0 __statfp_sse2
PUBLIC 50e9b 0 _clrfp
PUBLIC 50eb0 0 _ctrlfp
PUBLIC 50ee4 0 _set_statfp
PUBLIC 50f53 0 _statfp
PUBLIC 50f67 0 _d_inttype
PUBLIC 50fe9 0 _powhlp
PUBLIC 5115e 0 _87except
PUBLIC 512aa 0 _frnd
PUBLIC 512c3 0 _errcode
PUBLIC 51304 0 _except1
PUBLIC 51405 0 _except2
FUNC 5151f 26 0 _get_fname
PUBLIC 5154e 0 _handle_exc
PUBLIC 517b3 0 _handle_qnan2
PUBLIC 517c3 0 _raise_exc
PUBLIC 517ee 0 _raise_exc_ex
PUBLIC 51ba1 0 _raise_excf
PUBLIC 51bcc 0 _set_errno_from_matherr
PUBLIC 51c06 0 _umatherr
PUBLIC 51cce 0 _add_exp
PUBLIC 51d08 0 _decomp
PUBLIC 51e0e 0 _get_exp
PUBLIC 51e2c 0 _set_bexp
PUBLIC 51e5c 0 _set_exp
PUBLIC 51e94 0 _sptype
FUNC 51f09 1a3 0 _mbstowcs_l_helper
PUBLIC 52114 0 _mbstowcs_l
PUBLIC 52121 0 _mbstowcs_s_l
PUBLIC 52239 0 mbstowcs
PUBLIC 5226d 0 mbstowcs_s
PUBLIC 52295 0 _chgsign
PUBLIC 522c7 0 _chgsignf
PUBLIC 522f0 0 _copysign
PUBLIC 5231b 0 _copysignf
PUBLIC 5233e 0 _finite
PUBLIC 5235e 0 _fpclass
PUBLIC 5242b 0 _isnan
PUBLIC 5246e 0 _logb
PUBLIC 52570 0 _nextafter
PUBLIC 52596 0 _scalb
PUBLIC 525b6 0 ldexp
PUBLIC 52824 0 nextafter
PUBLIC 5284a 0 nexttoward
FUNC 529f9 78 0 fperrraise_with
PUBLIC 52a8f 0 _d_int
PUBLIC 52bd6 0 _dtest
PUBLIC 52c53 0 _fd_int
PUBLIC 52d53 0 _fdtest
PUBLIC 52db4 0 _fperrraise
PUBLIC 52ddd 0 _ld_int
PUBLIC 52dea 0 _ldtest
PUBLIC 52df7 0 operator&=(__acrt_fenv_abstract_status &,__acrt_fenv_abstract_status)
PUBLIC 52e09 0 fegetexceptflag
PUBLIC 52e46 0 operator~(__acrt_fenv_abstract_status)
PUBLIC 52e55 0 fesetexceptflag
PUBLIC 52ec4 0 fetestexcept
PUBLIC 52ef0 0 _FindPESection
PUBLIC 52f50 0 _IsNonwritableInCurrentImage
PUBLIC 53040 0 _ValidateImageBase
PUBLIC 5307f 0 _EH_epilog3
PUBLIC 53099 0 _EH_epilog3_GS
PUBLIC 530ae 0 _EH_epilog3_catch_GS
PUBLIC 530c3 0 _EH_prolog3
PUBLIC 53104 0 _EH_prolog3_GS
PUBLIC 53148 0 _EH_prolog3_catch
PUBLIC 5318c 0 _EH_prolog3_catch_GS
PUBLIC 531e0 0 _aulldvrm
PUBLIC 5329a 0 type_info::~type_info()
PUBLIC m 532a1 0 type_info::`vector deleting destructor'(unsigned int)
PUBLIC 532d0 0 _allmul
PUBLIC 53320 0 _alldvrm
PUBLIC 53440 0 _aullshr
PUBLIC 53470 0 _alloca_probe_16
PUBLIC 53486 0 _alloca_probe_8
PUBLIC m 534b0 0 _alloca_probe
PUBLIC 534f0 0 _allshl
PUBLIC 53520 0 _ftol2_sse
PUBLIC 53529 0 _ftol2_pentium4
PUBLIC 5353c 0 _ftol2_sse_excpt
PUBLIC 53560 0 _ftol2
PUBLIC 53602 0 _initialize_default_precision
PUBLIC 5362b 8 InterlockedPushEntrySList
PUBLIC 53631 4 InterlockedFlushSList
PUBLIC 53637 10 RtlUnwind
PUBLIC 5363d 0 GetLastError
PUBLIC 53643 4 SetLastError
PUBLIC 53649 4 EnterCriticalSection
PUBLIC 5364f 4 LeaveCriticalSection
PUBLIC 53655 4 DeleteCriticalSection
PUBLIC 5365b 8 InitializeCriticalSectionAndSpinCount
PUBLIC 53661 0 TlsAlloc
PUBLIC 53667 4 TlsGetValue
PUBLIC 5366d 8 TlsSetValue
PUBLIC 53673 4 TlsFree
PUBLIC 53679 4 FreeLibrary
PUBLIC 5367f 8 GetProcAddress
PUBLIC 53685 c LoadLibraryExW
PUBLIC 5368b 4 EncodePointer
PUBLIC 53691 10 RaiseException
PUBLIC 53697 4 ExitProcess
PUBLIC 5369d c GetModuleHandleExW
PUBLIC 536a3 c GetModuleFileNameW
PUBLIC 536a9 0 GetCurrentThread
PUBLIC 536af c HeapFree
PUBLIC 536b5 c HeapAlloc
PUBLIC 536bb 4 FindClose
PUBLIC 536c1 18 FindFirstFileExW
PUBLIC 536c7 8 FindNextFileW
PUBLIC 536cd 4 IsValidCodePage
PUBLIC 536d3 0 GetACP
PUBLIC 536d9 0 GetOEMCP
PUBLIC 536df 8 GetCPInfo
PUBLIC 536e5 0 GetCommandLineA
PUBLIC 536eb 0 GetCommandLineW
PUBLIC 536f1 18 MultiByteToWideChar
PUBLIC 536f7 20 WideCharToMultiByte
PUBLIC 536fd 0 GetEnvironmentStringsW
PUBLIC 53703 4 FreeEnvironmentStringsW
PUBLIC 53709 8 SetEnvironmentVariableW
PUBLIC 5370f 18 GetDateFormatW
PUBLIC 53715 18 GetTimeFormatW
PUBLIC 5371b 18 CompareStringW
PUBLIC 53721 18 LCMapStringW
PUBLIC 53727 10 GetLocaleInfoW
PUBLIC 5372d 8 IsValidLocale
PUBLIC 53733 0 GetUserDefaultLCID
PUBLIC 53739 8 EnumSystemLocalesW
PUBLIC 5373f 0 GetProcessHeap
PUBLIC 53745 4 GetStdHandle
PUBLIC 5374b 4 GetFileType
PUBLIC 53751 8 SetConsoleCtrlHandler
PUBLIC 53757 10 GetStringTypeW
PUBLIC 5375d c HeapSize
PUBLIC 53763 10 HeapReAlloc
PUBLIC 53769 8 SetStdHandle
PUBLIC 5376f 4 FlushFileBuffers
PUBLIC 53775 14 WriteFile
PUBLIC 5377b 0 GetConsoleCP
PUBLIC 53781 8 GetConsoleMode
PUBLIC 53787 8 GetFileSizeEx
PUBLIC 5378d 14 SetFilePointerEx
PUBLIC 53793 14 ReadFile
PUBLIC 53799 14 ReadConsoleW
PUBLIC 5379f 4 OutputDebugStringW
PUBLIC 537a5 1c CreateFileW
PUBLIC 537ab 4 CloseHandle
PUBLIC 537b1 14 WriteConsoleW
PUBLIC 537b7 4 DecodePointer
PUBLIC 537c0 0 strchr
PUBLIC 5382e 0 __from_strstr_to_strchr
PUBLIC 53935 0 wcschr
PUBLIC 53a30 0 strrchr
FUNC 53bb4 25 0 cmpBYTE
FUNC 53be2 65 0 cmpDWORD
FUNC 53c60 1c 0 cmpResult
FUNC 53c83 4f 0 cmpWORD
PUBLIC 53ce5 0 memcmp
FUNC 55072 de0 0 unaligned_memcmp
STACK WIN 4 6be0 18 4 0 4 0 0 0 1 $T0 .raSearch = $eip $T0 ^ = $esp $T0 4 + = 
STACK WIN 4 6be1 17 3 0 4 4 0 0 1 $T0 .raSearch = $eip $T0 ^ = $esp $T0 4 + = $ebp $T0 4 - ^ = 
STACK WIN 4 6be3 15 1 0 4 4 0 0 1 $T0 $ebp 4 + = $eip $T0 ^ = $esp $T0 4 + = $ebp $T0 4 - ^ = 
STACK WIN 4 6c00 17 6 0 8 0 0 0 1 $T0 .raSearch = $eip $T0 ^ = $esp $T0 4 + = 
STACK WIN 4 6c01 16 5 0 8 4 0 0 1 $T0 .raSearch = $eip $T0 ^ = $esp $T0 4 + = $ebp $T0 4 - ^ = 
STACK WIN 4 6c03 14 3 0 8 4 0 0 1 $T0 $ebp 4 + = $eip $T0 ^ = $esp $T0 4 + = $ebp $T0 4 - ^ = 
STACK WIN 4 6c20 1f 6 0 c 0 0 0 1 $T0 .raSearch = $eip $T0 ^ = $esp $T0 4 + = 
STACK WIN 4 6c21 1e 5 0 c 4 0 0 1 $T0 .raSearch = $eip $T0 ^ = $esp $T0 4 + = $ebp $T0 4 - ^ = 
STACK WIN 4 6c23 1c 3 0 c 4 0 0 1 $T0 $ebp 4 + = $eip $T0 ^ = $esp $T0 4 + = $ebp $T0 4 - ^ = 
STACK WIN 4 6c40 27 7 0 10 0 0 0 1 $T0 .raSearch = $eip $T0 ^ = $esp $T0 4 + = 
STACK WIN 4 6c41 26 6 0 10 4 0 0 1 $T0 .raSearch = $eip $T0 ^ = $esp $T0 4 + = $ebp $T0 4 - ^ = 
STACK WIN 4 6c43 24 4 0 10 4 0 0 1 $T0 $ebp 4 + = $eip $T0 ^ = $esp $T0 4 + = $ebp $T0 4 - ^ = 
STACK WIN 4 6c44 23 3 0 10 8 0 0 1 $T0 $ebp 4 + = $eip $T0 ^ = $esp $T0 4 + = $ebp $T0 4 - ^ = $esi $T0 8 - ^ = 
STACK WIN 4 6c70 12 3 0 28 0 0 0 1 $T0 .raSearch = $eip $T0 ^ = $esp $T0 4 + = 
STACK WIN 4 6c71 11 2 0 28 4 0 0 1 $T0 .raSearch = $eip $T0 ^ = $esp $T0 4 + = $ebp $T0 4 - ^ = 
STACK WIN 4 6c73 f 0 0 28 4 0 0 1 $T0 $ebp 4 + = $eip $T0 ^ = $esp $T0 4 + = $ebp $T0 4 - ^ = 
STACK WIN 4 6c90 1d 6 0 c 0 0 0 1 $T0 .raSearch = $eip $T0 ^ = $esp $T0 4 + = 
STACK WIN 4 6c91 1c 5 0 c 4 0 0 1 $T0 .raSearch = $eip $T0 ^ = $esp $T0 4 + = $ebp $T0 4 - ^ = 
STACK WIN 4 6c93 1a 3 0 c 4 0 0 1 $T0 $ebp 4 + = $eip $T0 ^ = $esp $T0 4 + = $ebp $T0 4 - ^ = 
STACK WIN 4 6cb0 13 4 0 4 0 0 0 1 $T0 .raSearch = $eip $T0 ^ = $esp $T0 4 + = 
STACK WIN 4 6cb1 12 3 0 4 4 0 0 1 $T0 .raSearch = $eip $T0 ^ = $esp $T0 4 + = $ebp $T0 4 - ^ = 
STACK WIN 4 6cb3 10 1 0 4 4 0 0 1 $T0 $ebp 4 + = $eip $T0 ^ = $esp $T0 4 + = $ebp $T0 4 - ^ = 
STACK WIN 4 6cd0 13 4 0 4 0 0 0 1 $T0 .raSearch = $eip $T0 ^ = $esp $T0 4 + = 
STACK WIN 4 6cd1 12 3 0 4 4 0 0 1 $T0 .raSearch = $eip $T0 ^ = $esp $T0 4 + = $ebp $T0 4 - ^ = 
STACK WIN 4 6cd3 10 1 0 4 4 0 0 1 $T0 $ebp 4 + = $eip $T0 ^ = $esp $T0 4 + = $ebp $T0 4 - ^ = 
STACK WIN 4 6cf0 13 4 0 4 0 0 0 1 $T0 .raSearch = $eip $T0 ^ = $esp $T0 4 + = 
STACK WIN 4 6cf1 12 3 0 4 4 0 0 1 $T0 .raSearch = $eip $T0 ^ = $esp $T0 4 + = $ebp $T0 4 - ^ = 
STACK WIN 4 6cf3 10 1 0 4 4 0 0 1 $T0 $ebp 4 + = $eip $T0 ^ = $esp $T0 4 + = $ebp $T0 4 - ^ = 
STACK WIN 4 6d10 13 4 0 4 0 0 0 1 $T0 .raSearch = $eip $T0 ^ = $esp $T0 4 + = 
STACK WIN 4 6d11 12 3 0 4 4 0 0 1 $T0 .raSearch = $eip $T0 ^ = $esp $T0 4 + = $ebp $T0 4 - ^ = 
STACK WIN 4 6d13 10 1 0 4 4 0 0 1 $T0 $ebp 4 + = $eip $T0 ^ = $esp $T0 4 + = $ebp $T0 4 - ^ = 
STACK WIN 4 6d30 2b 8 0 10 0 0 0 1 $T0 .raSearch = $eip $T0 ^ = $esp $T0 4 + = 
STACK WIN 4 6d31 2a 7 0 10 4 0 0 1 $T0 .raSearch = $eip $T0 ^ = $esp $T0 4 + = $ebp $T0 4 - ^ = 
STACK WIN 4 6d33 28 5 0 10 4 0 0 1 $T0 $ebp 4 + = $eip $T0 ^ = $esp $T0 4 + = $ebp $T0 4 - ^ = 
STACK WIN 4 6d34 27 4 0 10 8 0 0 1 $T0 $ebp 4 + = $eip $T0 ^ = $esp $T0 4 + = $ebp $T0 4 - ^ = $edi $T0 8 - ^ = 
STACK WIN 4 6d35 26 3 0 10 c 0 0 1 $T0 $ebp 4 + = $eip $T0 ^ = $esp $T0 4 + = $ebp $T0 4 - ^ = $edi $T0 8 - ^ = $esi $T0 12 - ^ = 
STACK WIN 4 6dc0 21 6 0 0 0 0 0 1 $T0 .raSearch = $eip $T0 ^ = $esp $T0 4 + = 
STACK WIN 4 6dc1 20 5 0 0 4 0 0 1 $T0 .raSearch = $eip $T0 ^ = $esp $T0 4 + = $ebp $T0 4 - ^ = 
STACK WIN 4 6dc3 1e 3 0 0 4 0 0 1 $T0 $ebp 4 + = $eip $T0 ^ = $esp $T0 4 + = $ebp $T0 4 - ^ = 
STACK WIN 4 6df0 f 4 0 0 0 0 0 1 $T0 .raSearch = $eip $T0 ^ = $esp $T0 4 + = 
STACK WIN 4 6df1 e 3 0 0 4 0 0 1 $T0 .raSearch = $eip $T0 ^ = $esp $T0 4 + = $ebp $T0 4 - ^ = 
STACK WIN 4 6df3 c 1 0 0 4 0 0 1 $T0 $ebp 4 + = $eip $T0 ^ = $esp $T0 4 + = $ebp $T0 4 - ^ = 
STACK WIN 4 6e10 1b 6 0 4 0 0 0 1 $T0 .raSearch = $eip $T0 ^ = $esp $T0 4 + = 
STACK WIN 4 6e11 1a 5 0 4 4 0 0 1 $T0 .raSearch = $eip $T0 ^ = $esp $T0 4 + = $ebp $T0 4 - ^ = 
STACK WIN 4 6e13 18 3 0 4 4 0 0 1 $T0 $ebp 4 + = $eip $T0 ^ = $esp $T0 4 + = $ebp $T0 4 - ^ = 
STACK WIN 4 6e40 c 4 0 0 0 0 0 1 $T0 .raSearch = $eip $T0 ^ = $esp $T0 4 + = 
STACK WIN 4 6e41 b 3 0 0 4 0 0 1 $T0 .raSearch = $eip $T0 ^ = $esp $T0 4 + = $ebp $T0 4 - ^ = 
STACK WIN 4 6e43 9 1 0 0 4 0 0 1 $T0 $ebp 4 + = $eip $T0 ^ = $esp $T0 4 + = $ebp $T0 4 - ^ = 
STACK WIN 4 6e50 16 6 0 4 0 0 0 1 $T0 .raSearch = $eip $T0 ^ = $esp $T0 4 + = 
STACK WIN 4 6e51 15 5 0 4 4 0 0 1 $T0 .raSearch = $eip $T0 ^ = $esp $T0 4 + = $ebp $T0 4 - ^ = 
STACK WIN 4 6e53 13 3 0 4 4 0 0 1 $T0 $ebp 4 + = $eip $T0 ^ = $esp $T0 4 + = $ebp $T0 4 - ^ = 
STACK WIN 4 6e70 1e 9 0 8 0 0 0 1 $T0 .raSearch = $eip $T0 ^ = $esp $T0 4 + = 
STACK WIN 4 6e71 1d 8 0 8 4 0 0 1 $T0 .raSearch = $eip $T0 ^ = $esp $T0 4 + = $ebp $T0 4 - ^ = 
STACK WIN 4 6e73 1b 6 0 8 4 0 0 1 $T0 $ebp 4 + = $eip $T0 ^ = $esp $T0 4 + = $ebp $T0 4 - ^ = 
STACK WIN 4 6e76 18 3 0 8 4 0 0 1 $T1 $ebp 4 + = $T0 $T1 4 - 8 @ = $eip $T1 ^ = $esp $T1 4 + = $ebp $T1 4 - ^ = 
STACK WIN 4 6ea0 1e 6 0 8 0 0 0 1 $T0 .raSearch = $eip $T0 ^ = $esp $T0 4 + = 
STACK WIN 4 6ea1 1d 5 0 8 4 0 0 1 $T0 .raSearch = $eip $T0 ^ = $esp $T0 4 + = $ebp $T0 4 - ^ = 
STACK WIN 4 6ea3 1b 3 0 8 4 0 0 1 $T0 $ebp 4 + = $eip $T0 ^ = $esp $T0 4 + = $ebp $T0 4 - ^ = 
STACK WIN 4 6ed0 16 6 0 4 0 0 0 1 $T0 .raSearch = $eip $T0 ^ = $esp $T0 4 + = 
STACK WIN 4 6ed1 15 5 0 4 4 0 0 1 $T0 .raSearch = $eip $T0 ^ = $esp $T0 4 + = $ebp $T0 4 - ^ = 
STACK WIN 4 6ed3 13 3 0 4 4 0 0 1 $T0 $ebp 4 + = $eip $T0 ^ = $esp $T0 4 + = $ebp $T0 4 - ^ = 
STACK WIN 4 6ef0 22 9 0 8 0 0 0 1 $T0 .raSearch = $eip $T0 ^ = $esp $T0 4 + = 
STACK WIN 4 6ef1 21 8 0 8 4 0 0 1 $T0 .raSearch = $eip $T0 ^ = $esp $T0 4 + = $ebp $T0 4 - ^ = 
STACK WIN 4 6ef3 1f 6 0 8 4 0 0 1 $T0 $ebp 4 + = $eip $T0 ^ = $esp $T0 4 + = $ebp $T0 4 - ^ = 
STACK WIN 4 6ef6 1c 3 0 8 4 0 0 1 $T1 $ebp 4 + = $T0 $T1 4 - 8 @ = $eip $T1 ^ = $esp $T1 4 + = $ebp $T1 4 - ^ = 
STACK WIN 4 6f20 17 4 0 8 0 0 0 1 $T0 .raSearch = $eip $T0 ^ = $esp $T0 4 + = 
STACK WIN 4 6f21 16 3 0 8 4 0 0 1 $T0 .raSearch = $eip $T0 ^ = $esp $T0 4 + = $ebp $T0 4 - ^ = 
STACK WIN 4 6f23 14 1 0 8 4 0 0 1 $T0 $ebp 4 + = $eip $T0 ^ = $esp $T0 4 + = $ebp $T0 4 - ^ = 
STACK WIN 4 6f40 21 7 0 c 0 0 0 1 $T0 .raSearch = $eip $T0 ^ = $esp $T0 4 + = 
STACK WIN 4 6f41 20 6 0 c 4 0 0 1 $T0 .raSearch = $eip $T0 ^ = $esp $T0 4 + = $ebp $T0 4 - ^ = 
STACK WIN 4 6f43 1e 4 0 c 4 0 0 1 $T0 $ebp 4 + = $eip $T0 ^ = $esp $T0 4 + = $ebp $T0 4 - ^ = 
STACK WIN 4 6f44 1d 3 0 c 8 0 0 1 $T0 $ebp 4 + = $eip $T0 ^ = $esp $T0 4 + = $ebp $T0 4 - ^ = $esi $T0 8 - ^ = 
STACK WIN 4 6f70 ca 6 0 0 0 0 0 1 $T0 .raSearch = $eip $T0 ^ = $esp $T0 4 + = 
STACK WIN 4 6f71 c9 5 0 0 4 0 0 1 $T0 .raSearch = $eip $T0 ^ = $esp $T0 4 + = $ebp $T0 4 - ^ = 
STACK WIN 4 6f73 c7 3 0 0 4 0 0 1 $T0 $ebp 4 + = $eip $T0 ^ = $esp $T0 4 + = $ebp $T0 4 - ^ = 
STACK WIN 4 7070 14 4 0 0 0 0 0 1 $T0 .raSearch = $eip $T0 ^ = $esp $T0 4 + = 
STACK WIN 4 7071 13 3 0 0 4 0 0 1 $T0 .raSearch = $eip $T0 ^ = $esp $T0 4 + = $ebp $T0 4 - ^ = 
STACK WIN 4 7073 11 1 0 0 4 0 0 1 $T0 $ebp 4 + = $eip $T0 ^ = $esp $T0 4 + = $ebp $T0 4 - ^ = 
STACK WIN 4 7090 1b 4 0 0 0 0 0 1 $T0 .raSearch = $eip $T0 ^ = $esp $T0 4 + = 
STACK WIN 4 7091 1a 3 0 0 4 0 0 1 $T0 .raSearch = $eip $T0 ^ = $esp $T0 4 + = $ebp $T0 4 - ^ = 
STACK WIN 4 7093 18 1 0 0 4 0 0 1 $T0 $ebp 4 + = $eip $T0 ^ = $esp $T0 4 + = $ebp $T0 4 - ^ = 
STACK WIN 4 70c0 14 4 0 0 0 0 0 1 $T0 .raSearch = $eip $T0 ^ = $esp $T0 4 + = 
STACK WIN 4 70c1 13 3 0 0 4 0 0 1 $T0 .raSearch = $eip $T0 ^ = $esp $T0 4 + = $ebp $T0 4 - ^ = 
STACK WIN 4 70c3 11 1 0 0 4 0 0 1 $T0 $ebp 4 + = $eip $T0 ^ = $esp $T0 4 + = $ebp $T0 4 - ^ = 
STACK WIN 4 70e0 20 4 0 0 0 0 0 1 $T0 .raSearch = $eip $T0 ^ = $esp $T0 4 + = 
STACK WIN 4 70e1 1f 3 0 0 4 0 0 1 $T0 .raSearch = $eip $T0 ^ = $esp $T0 4 + = $ebp $T0 4 - ^ = 
STACK WIN 4 70e3 1d 1 0 0 4 0 0 1 $T0 $ebp 4 + = $eip $T0 ^ = $esp $T0 4 + = $ebp $T0 4 - ^ = 
STACK WIN 4 7110 14 4 0 0 0 0 0 1 $T0 .raSearch = $eip $T0 ^ = $esp $T0 4 + = 
STACK WIN 4 7111 13 3 0 0 4 0 0 1 $T0 .raSearch = $eip $T0 ^ = $esp $T0 4 + = $ebp $T0 4 - ^ = 
STACK WIN 4 7113 11 1 0 0 4 0 0 1 $T0 $ebp 4 + = $eip $T0 ^ = $esp $T0 4 + = $ebp $T0 4 - ^ = 
STACK WIN 4 7130 17 6 0 8 0 0 0 1 $T0 .raSearch = $eip $T0 ^ = $esp $T0 4 + = 
STACK WIN 4 7131 16 5 0 8 4 0 0 1 $T0 .raSearch = $eip $T0 ^ = $esp $T0 4 + = $ebp $T0 4 - ^ = 
STACK WIN 4 7133 14 3 0 8 4 0 0 1 $T0 $ebp 4 + = $eip $T0 ^ = $esp $T0 4 + = $ebp $T0 4 - ^ = 
STACK WIN 4 7150 14 4 0 4 0 0 0 1 $T0 .raSearch = $eip $T0 ^ = $esp $T0 4 + = 
STACK WIN 4 7151 13 3 0 4 4 0 0 1 $T0 .raSearch = $eip $T0 ^ = $esp $T0 4 + = $ebp $T0 4 - ^ = 
STACK WIN 4 7153 11 1 0 4 4 0 0 1 $T0 $ebp 4 + = $eip $T0 ^ = $esp $T0 4 + = $ebp $T0 4 - ^ = 
STACK WIN 4 7170 33 7 0 8 0 0 0 1 $T0 .raSearch = $eip $T0 ^ = $esp $T0 4 + = 
STACK WIN 4 7171 32 6 0 8 4 0 0 1 $T0 .raSearch = $eip $T0 ^ = $esp $T0 4 + = $ebp $T0 4 - ^ = 
STACK WIN 4 7173 30 4 0 8 4 0 0 1 $T0 $ebp 4 + = $eip $T0 ^ = $esp $T0 4 + = $ebp $T0 4 - ^ = 
STACK WIN 4 7174 2f 3 0 8 8 0 0 1 $T0 $ebp 4 + = $eip $T0 ^ = $esp $T0 4 + = $ebp $T0 4 - ^ = $esi $T0 8 - ^ = 
STACK WIN 4 71b0 23 7 0 8 0 0 0 1 $T0 .raSearch = $eip $T0 ^ = $esp $T0 4 + = 
STACK WIN 4 71b1 22 6 0 8 4 0 0 1 $T0 .raSearch = $eip $T0 ^ = $esp $T0 4 + = $ebp $T0 4 - ^ = 
STACK WIN 4 71b3 20 4 0 8 4 0 0 1 $T0 $ebp 4 + = $eip $T0 ^ = $esp $T0 4 + = $ebp $T0 4 - ^ = 
STACK WIN 4 71b4 1f 3 0 8 8 0 0 1 $T0 $ebp 4 + = $eip $T0 ^ = $esp $T0 4 + = $ebp $T0 4 - ^ = $ebx $T0 8 - ^ = 
STACK WIN 4 71e0 c 4 0 0 0 0 0 1 $T0 .raSearch = $eip $T0 ^ = $esp $T0 4 + = 
STACK WIN 4 71e1 b 3 0 0 4 0 0 1 $T0 .raSearch = $eip $T0 ^ = $esp $T0 4 + = $ebp $T0 4 - ^ = 
STACK WIN 4 71e3 9 1 0 0 4 0 0 1 $T0 $ebp 4 + = $eip $T0 ^ = $esp $T0 4 + = $ebp $T0 4 - ^ = 
STACK WIN 4 71f0 f 4 0 0 0 0 0 1 $T0 .raSearch = $eip $T0 ^ = $esp $T0 4 + = 
STACK WIN 4 71f1 e 3 0 0 4 0 0 1 $T0 .raSearch = $eip $T0 ^ = $esp $T0 4 + = $ebp $T0 4 - ^ = 
STACK WIN 4 71f3 c 1 0 0 4 0 0 1 $T0 $ebp 4 + = $eip $T0 ^ = $esp $T0 4 + = $ebp $T0 4 - ^ = 
STACK WIN 4 7210 11 4 0 0 0 0 0 1 $T0 .raSearch = $eip $T0 ^ = $esp $T0 4 + = 
STACK WIN 4 7211 10 3 0 0 4 0 0 1 $T0 .raSearch = $eip $T0 ^ = $esp $T0 4 + = $ebp $T0 4 - ^ = 
STACK WIN 4 7213 e 1 0 0 4 0 0 1 $T0 $ebp 4 + = $eip $T0 ^ = $esp $T0 4 + = $ebp $T0 4 - ^ = 
STACK WIN 4 7230 5f 6 0 8 0 0 0 1 $T0 .raSearch = $eip $T0 ^ = $esp $T0 4 + = 
STACK WIN 4 7231 5e 5 0 8 4 0 0 1 $T0 .raSearch = $eip $T0 ^ = $esp $T0 4 + = $ebp $T0 4 - ^ = 
STACK WIN 4 7233 5c 3 0 8 4 0 0 1 $T0 $ebp 4 + = $eip $T0 ^ = $esp $T0 4 + = $ebp $T0 4 - ^ = 
STACK WIN 4 72b0 76 7 0 8 0 0 0 1 $T0 .raSearch = $eip $T0 ^ = $esp $T0 4 + = 
STACK WIN 4 72b1 75 6 0 8 4 0 0 1 $T0 .raSearch = $eip $T0 ^ = $esp $T0 4 + = $ebp $T0 4 - ^ = 
STACK WIN 4 72b3 73 4 0 8 4 0 0 1 $T0 $ebp 4 + = $eip $T0 ^ = $esp $T0 4 + = $ebp $T0 4 - ^ = 
STACK WIN 4 72b4 72 3 0 8 8 0 0 1 $T0 $ebp 4 + = $eip $T0 ^ = $esp $T0 4 + = $ebp $T0 4 - ^ = $esi $T0 8 - ^ = 
STACK WIN 4 7350 14 4 0 0 0 0 0 1 $T0 .raSearch = $eip $T0 ^ = $esp $T0 4 + = 
STACK WIN 4 7351 13 3 0 0 4 0 0 1 $T0 .raSearch = $eip $T0 ^ = $esp $T0 4 + = $ebp $T0 4 - ^ = 
STACK WIN 4 7353 11 1 0 0 4 0 0 1 $T0 $ebp 4 + = $eip $T0 ^ = $esp $T0 4 + = $ebp $T0 4 - ^ = 
STACK WIN 4 7370 14 4 0 0 0 0 0 1 $T0 .raSearch = $eip $T0 ^ = $esp $T0 4 + = 
STACK WIN 4 7371 13 3 0 0 4 0 0 1 $T0 .raSearch = $eip $T0 ^ = $esp $T0 4 + = $ebp $T0 4 - ^ = 
STACK WIN 4 7373 11 1 0 0 4 0 0 1 $T0 $ebp 4 + = $eip $T0 ^ = $esp $T0 4 + = $ebp $T0 4 - ^ = 
STACK WIN 4 7390 c 4 0 0 0 0 0 1 $T0 .raSearch = $eip $T0 ^ = $esp $T0 4 + = 
STACK WIN 4 7391 b 3 0 0 4 0 0 1 $T0 .raSearch = $eip $T0 ^ = $esp $T0 4 + = $ebp $T0 4 - ^ = 
STACK WIN 4 7393 9 1 0 0 4 0 0 1 $T0 $ebp 4 + = $eip $T0 ^ = $esp $T0 4 + = $ebp $T0 4 - ^ = 
STACK WIN 4 9ae0 11 0 0 0 0 0 0 1 $T0 .raSearch = $eip $T0 ^ = $esp $T0 4 + = 
STACK WIN 4 9af5 e 3 0 8 0 0 0 1 $T0 $ebp = $eip $T0 4 + ^ = $ebp $T0 ^ = $esp $T0 8 + = 
STACK WIN 4 9b06 53 3 0 c 0 0 0 1 $T0 $ebp = $eip $T0 4 + ^ = $ebp $T0 ^ = $esp $T0 8 + = 
STACK WIN 4 9b6d 10a c 0 8 10 20 0 1 $T0 $ebp = $eip $T0 4 + ^ = $ebp $T0 ^ = $esp $T0 8 + =  $20 $T0 36 - ^ =  $23 $T0 40 - ^ =  $24 $T0 44 - ^ = 
STACK WIN 4 9c62 c 0 0 8 10 20 0 1 $T0 $ebp = $T2 $esp = $T1 .raSearchStart = $eip $T1 ^ = $ebp $T0 = $esp $T1 4 + = 
STACK WIN 4 9cb9 92 c 0 4 10 1c 0 1 $T0 $ebp = $eip $T0 4 + ^ = $ebp $T0 ^ = $esp $T0 8 + =  $20 $T0 32 - ^ =  $23 $T0 36 - ^ =  $24 $T0 40 - ^ = 
STACK WIN 4 9d34 e 0 0 4 10 1c 0 1 $T0 $ebp = $T2 $esp = $T1 .raSearchStart = $eip $T1 ^ = $ebp $T0 = $esp $T1 4 + = 
STACK WIN 4 9d6f 106 c 0 c 10 1c 0 1 $T0 $ebp = $eip $T0 4 + ^ = $ebp $T0 ^ = $esp $T0 8 + =  $20 $T0 32 - ^ =  $23 $T0 36 - ^ =  $24 $T0 40 - ^ = 
STACK WIN 4 9e35 1f 0 0 c 10 1c 0 1 $T0 $ebp = $T2 $esp = $T1 .raSearchStart = $eip $T1 ^ = $ebp $T0 = $esp $T1 4 + = 
STACK WIN 4 9eb6 2b 4 0 c 0 0 0 1 $T0 $ebp = $eip $T0 4 + ^ = $ebp $T0 ^ = $esp $T0 8 + = 
STACK WIN 4 9eba 23 0 0 c 4 0 0 1 $T0 $ebp = $eip $T0 4 + ^ = $ebp $T0 ^ = $esp $T0 8 + =  $23 $T0 4 - ^ = 
STACK WIN 4 9eeb 9 3 0 c 0 0 0 1 $T0 $ebp = $eip $T0 4 + ^ = $ebp $T0 ^ = $esp $T0 8 + = 
STACK WIN 4 9ef6 23 3 0 c 0 0 0 1 $T0 $ebp = $eip $T0 4 + ^ = $ebp $T0 ^ = $esp $T0 8 + = 
STACK WIN 4 9f21 28 3 0 4 0 0 0 1 $T0 $ebp = $eip $T0 4 + ^ = $ebp $T0 ^ = $esp $T0 8 + = 
STACK WIN 4 9f53 f9 9 0 0 0 324 0 1 $T0 $ebp = $eip $T0 4 + ^ = $ebp $T0 ^ = $esp $T0 8 + = 
STACK WIN 4 a08a c 3 0 0 0 0 0 1 $T0 $ebp = $eip $T0 4 + ^ = $ebp $T0 ^ = $esp $T0 8 + = 
STACK WIN 4 a099 ce 9 0 4 0 31c 0 1 $T0 $ebp = $eip $T0 4 + ^ = $ebp $T0 ^ = $esp $T0 8 + = 
STACK WIN 4 a19a 114 9 0 c 0 320 0 1 $T0 $ebp = $eip $T0 4 + ^ = $ebp $T0 ^ = $esp $T0 8 + = 
STACK WIN 4 a2f3 5 0 0 4 0 0 0 1 $T0 $ebp = $eip $T0 4 + ^ = $ebp $T0 ^ = $esp $T0 8 + = 
STACK WIN 4 a2f8 4d 6 0 0 0 14 0 1 $T0 $ebp = $eip $T0 4 + ^ = $ebp $T0 ^ = $esp $T0 8 + = 
STACK WIN 4 a358 4b 8 0 0 0 0 0 1 $T0 .raSearch = $eip $T0 ^ = $esp $T0 4 + = 
STACK WIN 4 a35f 43 1 0 0 4 0 0 1 $T0 .raSearch = $eip $T0 ^ = $esp $T0 4 + =  $23 $T0 4 - ^ = 
STACK WIN 4 a360 3b 0 0 0 8 0 0 1 $T0 .raSearch = $eip $T0 ^ = $esp $T0 4 + =  $23 $T0 4 - ^ =  $24 $T0 8 - ^ = 
STACK WIN 4 a3b5 6 0 0 c 0 0 0 1 $T0 .raSearch = $eip $T0 ^ = $esp $T0 4 + = 
STACK WIN 4 a3bb c 0 0 0 0 0 0 1 $T0 .raSearch = $eip $T0 ^ = $esp $T0 4 + = 
STACK WIN 4 a3ca c 0 0 0 0 0 0 1 $T0 .raSearch = $eip $T0 ^ = $esp $T0 4 + = 
STACK WIN 4 a3d9 6 0 0 0 0 0 0 1 $T0 .raSearch = $eip $T0 ^ = $esp $T0 4 + = 
STACK WIN 4 a3df 6 0 0 0 0 0 0 1 $T0 .raSearch = $eip $T0 ^ = $esp $T0 4 + = 
STACK WIN 4 a3e5 1d 0 0 0 0 0 0 1 $T0 .raSearch = $eip $T0 ^ = $esp $T0 4 + = 
STACK WIN 4 a409 14 3 0 4 0 0 0 1 $T0 $ebp = $eip $T0 4 + ^ = $ebp $T0 ^ = $esp $T0 8 + = 
STACK WIN 4 a422 1d 3 0 4 0 0 0 1 $T0 $ebp = $eip $T0 4 + ^ = $ebp $T0 ^ = $esp $T0 8 + = 
STACK WIN 4 a446 d 3 0 8 0 0 0 1 $T0 $ebp = $eip $T0 4 + ^ = $ebp $T0 ^ = $esp $T0 8 + = 
STACK WIN 4 a456 d 0 0 0 0 0 0 1 $T0 .raSearch = $eip $T0 ^ = $esp $T0 4 + = 
STACK WIN 4 a466 44 7 0 8 0 0 0 1 $T0 $ebp = $eip $T0 4 + ^ = $ebp $T0 ^ = $esp $T0 8 + = 
STACK WIN 4 a46d 37 0 0 8 4 0 0 1 $T0 $ebp = $eip $T0 4 + ^ = $ebp $T0 ^ = $esp $T0 8 + =  $23 $T0 4 - ^ = 
STACK WIN 4 a4bb 5 0 0 0 0 0 0 1 $T0 .raSearch = $eip $T0 ^ = $esp $T0 4 + = 
STACK WIN 4 a4c0 34 3 0 4 0 0 0 1 $T0 $ebp = $eip $T0 4 + ^ = $ebp $T0 ^ = $esp $T0 8 + = 
STACK WIN 4 a501 7 0 0 0 0 0 0 1 $T0 .raSearch = $eip $T0 ^ = $esp $T0 4 + = 
STACK WIN 4 a508 32 1 0 0 0 0 0 1 $T0 .raSearch = $eip $T0 ^ = $esp $T0 4 + = 
STACK WIN 4 a509 30 0 0 0 4 0 0 1 $T0 .raSearch = $eip $T0 ^ = $esp $T0 4 + =  $23 $T0 4 - ^ = 
STACK WIN 4 a546 2b 0 0 0 0 0 0 1 $T0 .raSearch = $eip $T0 ^ = $esp $T0 4 + = 
STACK WIN 4 a57b e 0 0 0 0 0 0 1 $T0 .raSearch = $eip $T0 ^ = $esp $T0 4 + = 
STACK WIN 4 a58c 1f 0 0 0 0 0 0 1 $T0 .raSearch = $eip $T0 ^ = $esp $T0 4 + = 
STACK WIN 4 a5b2 d 0 0 0 0 0 0 1 $T0 .raSearch = $eip $T0 ^ = $esp $T0 4 + = 
STACK WIN 4 a5c2 34 3 0 18 0 0 0 1 $T0 $ebp = $eip $T0 4 + ^ = $ebp $T0 ^ = $esp $T0 8 + = 
STACK WIN 4 a603 23 0 0 0 0 0 0 1 $T0 .raSearch = $eip $T0 ^ = $esp $T0 4 + = 
STACK WIN 4 a62e d 0 0 0 0 0 0 1 $T0 .raSearch = $eip $T0 ^ = $esp $T0 4 + = 
STACK WIN 4 a63e 39 3 0 4 0 0 0 1 $T0 $ebp = $eip $T0 4 + ^ = $ebp $T0 ^ = $esp $T0 8 + = 
STACK WIN 4 a685 a5 6 0 4 0 c 0 1 $T0 $ebp = $eip $T0 4 + ^ = $ebp $T0 ^ = $esp $T0 8 + = 
STACK WIN 4 a699 87 0 0 4 4 c 0 1 $T0 $ebp = $eip $T0 4 + ^ = $ebp $T0 ^ = $esp $T0 8 + =  $23 $T0 16 - ^ = 
STACK WIN 4 a6dd 39 0 0 4 8 c 0 1 $T0 $ebp = $eip $T0 4 + ^ = $ebp $T0 ^ = $esp $T0 8 + =  $23 $T0 16 - ^ =  $24 $T0 20 - ^ = 
STACK WIN 4 a753 94 c 0 4 10 18 0 1 $T0 $ebp = $eip $T0 4 + ^ = $ebp $T0 ^ = $esp $T0 8 + =  $20 $T0 28 - ^ =  $23 $T0 32 - ^ =  $24 $T0 36 - ^ = 
STACK WIN 4 a7b8 13 0 0 4 10 18 0 1 $T0 $ebp = $T2 $esp = $T1 .raSearchStart = $eip $T1 ^ = $ebp $T0 = $esp $T1 4 + = 
STACK WIN 4 a80c 1d 3 0 4 0 0 0 1 $T0 $ebp = $eip $T0 4 + ^ = $ebp $T0 ^ = $esp $T0 8 + = 
STACK WIN 4 a830 28 3 0 8 0 0 0 1 $T0 $ebp = $eip $T0 4 + ^ = $ebp $T0 ^ = $esp $T0 8 + = 
STACK WIN 4 a862 3b 3 0 4 0 0 0 1 $T0 $ebp = $eip $T0 4 + ^ = $ebp $T0 ^ = $esp $T0 8 + = 
STACK WIN 4 a8ab 31 3 0 4 0 0 0 1 $T0 $ebp = $eip $T0 4 + ^ = $ebp $T0 ^ = $esp $T0 8 + = 
STACK WIN 4 a8e8 15 3 0 4 0 0 0 1 $T0 $ebp = $eip $T0 4 + ^ = $ebp $T0 ^ = $esp $T0 8 + = 
STACK WIN 4 a902 6 0 0 0 0 0 0 1 $T0 .raSearch = $eip $T0 ^ = $esp $T0 4 + = 
STACK WIN 4 a908 11a a 0 4 4 324 0 1 $T0 $ebp = $eip $T0 4 + ^ = $ebp $T0 ^ = $esp $T0 8 + =  $20 $T0 808 - ^ = 
STACK WIN 4 aa68 31 6 0 0 0 44 0 1 $T0 $ebp = $eip $T0 4 + ^ = $ebp $T0 ^ = $esp $T0 8 + = 
STACK WIN 4 aaa5 5 0 0 0 0 0 0 1 $T0 .raSearch = $eip $T0 ^ = $esp $T0 4 + = 
STACK WIN 4 aaaa 3 0 0 0 0 0 0 1 $T0 .raSearch = $eip $T0 ^ = $esp $T0 4 + = 
STACK WIN 4 aaad 43 0 0 0 0 0 0 1 $T0 .raSearch = $eip $T0 ^ = $esp $T0 4 + = 
STACK WIN 4 ab00 c 0 0 0 0 0 0 1 $T0 .raSearch = $eip $T0 ^ = $esp $T0 4 + = 
STACK WIN 4 ab0f 3 0 0 0 0 0 0 1 $T0 .raSearch = $eip $T0 ^ = $esp $T0 4 + = 
STACK WIN 4 ab12 41 3 0 4 0 0 0 1 $T0 $ebp = $eip $T0 4 + ^ = $ebp $T0 ^ = $esp $T0 8 + = 
STACK WIN 4 ab63 8 0 0 4 0 0 0 1 $T0 .raSearch = $eip $T0 ^ = $esp $T0 4 + = 
STACK WIN 4 ab6d 2c 2 0 0 0 0 0 1 $T0 .raSearch = $eip $T0 ^ = $esp $T0 4 + = 
STACK WIN 4 ab6e 2a 1 0 0 4 0 0 1 $T0 .raSearch = $eip $T0 ^ = $esp $T0 4 + =  $20 $T0 4 - ^ = 
STACK WIN 4 ab6f 28 0 0 0 8 0 0 1 $T0 .raSearch = $eip $T0 ^ = $esp $T0 4 + =  $20 $T0 4 - ^ =  $23 $T0 8 - ^ = 
STACK WIN 4 ab7e 18 0 0 0 c 0 0 1 $T0 .raSearch = $eip $T0 ^ = $esp $T0 4 + =  $20 $T0 4 - ^ =  $23 $T0 8 - ^ =  $24 $T0 12 - ^ = 
STACK WIN 4 aba4 2c 2 0 0 0 0 0 1 $T0 .raSearch = $eip $T0 ^ = $esp $T0 4 + = 
STACK WIN 4 aba5 2a 1 0 0 4 0 0 1 $T0 .raSearch = $eip $T0 ^ = $esp $T0 4 + =  $20 $T0 4 - ^ = 
STACK WIN 4 aba6 28 0 0 0 8 0 0 1 $T0 .raSearch = $eip $T0 ^ = $esp $T0 4 + =  $20 $T0 4 - ^ =  $23 $T0 8 - ^ = 
STACK WIN 4 abb5 18 0 0 0 c 0 0 1 $T0 .raSearch = $eip $T0 ^ = $esp $T0 4 + =  $20 $T0 4 - ^ =  $23 $T0 8 - ^ =  $24 $T0 12 - ^ = 
STACK WIN 4 ac51 1 0 0 0 0 0 0 1 $T0 .raSearch = $eip $T0 ^ = $esp $T0 4 + = 
STACK WIN 4 ac52 a 3 0 4 0 0 0 1 $T0 $ebp = $eip $T0 4 + ^ = $ebp $T0 ^ = $esp $T0 8 + = 
STACK WIN 4 ac5e a 3 0 4 0 0 0 1 $T0 $ebp = $eip $T0 4 + ^ = $ebp $T0 ^ = $esp $T0 8 + = 
STACK WIN 4 ac6a 12 0 0 0 0 0 0 1 $T0 .raSearch = $eip $T0 ^ = $esp $T0 4 + = 
STACK WIN 4 ac80 197 e 0 0 0 24 0 1 $T0 $ebp = $eip $T0 4 + ^ = $ebp $T0 ^ = $esp $T0 8 + = 
STACK WIN 4 ac8e 187 0 0 0 4 24 0 1 $T0 $ebp = $eip $T0 4 + ^ = $ebp $T0 ^ = $esp $T0 8 + =  $20 $T0 40 - ^ = 
STACK WIN 4 acb6 ef 0 0 0 8 24 0 1 $T0 $ebp = $eip $T0 4 + ^ = $ebp $T0 ^ = $esp $T0 8 + =  $20 $T0 40 - ^ =  $23 $T0 44 - ^ = 
STACK WIN 4 acb7 ed 0 0 0 c 24 0 1 $T0 $ebp = $eip $T0 4 + ^ = $ebp $T0 ^ = $esp $T0 8 + =  $20 $T0 40 - ^ =  $23 $T0 44 - ^ =  $24 $T0 48 - ^ = 
STACK WIN 4 ae7c 4 0 0 0 0 0 0 1 $T0 .raSearch = $eip $T0 ^ = $esp $T0 4 + = 
STACK WIN 4 ae80 c 0 0 0 0 0 0 1 $T0 .raSearch = $eip $T0 ^ = $esp $T0 4 + = 
STACK WIN 4 aee0 32 8 0 8 0 0 0 1 $T0 $ebp = $eip $T0 4 + ^ = $ebp $T0 ^ = $esp $T0 8 + = 
STACK WIN 4 aee4 28 4 0 8 4 0 0 1 $T0 $ebp = $eip $T0 4 + ^ = $ebp $T0 ^ = $esp $T0 8 + =  $23 $T0 4 - ^ = 
STACK WIN 4 aee8 23 0 0 8 8 0 0 1 $T0 $ebp = $eip $T0 4 + ^ = $ebp $T0 ^ = $esp $T0 8 + =  $23 $T0 4 - ^ =  $24 $T0 8 - ^ = 
STACK WIN 4 af20 157 c 0 10 0 1c 0 1 $T0 $ebp = $eip $T0 4 + ^ = $ebp $T0 ^ = $esp $T0 8 + = 
STACK WIN 4 af27 c8 5 0 10 4 1c 0 1 $T0 $ebp = $eip $T0 4 + ^ = $ebp $T0 ^ = $esp $T0 8 + =  $20 $T0 32 - ^ = 
STACK WIN 4 af2b c3 1 0 10 8 1c 0 1 $T0 $ebp = $eip $T0 4 + ^ = $ebp $T0 ^ = $esp $T0 8 + =  $20 $T0 32 - ^ =  $23 $T0 36 - ^ = 
STACK WIN 4 af2c c1 0 0 10 c 1c 0 1 $T0 $ebp = $eip $T0 4 + ^ = $ebp $T0 ^ = $esp $T0 8 + =  $20 $T0 32 - ^ =  $23 $T0 36 - ^ =  $24 $T0 40 - ^ = 
STACK WIN 4 b0cc 5 0 0 4 0 0 0 1 $T0 $ebp = $eip $T0 4 + ^ = $ebp $T0 ^ = $esp $T0 8 + = 
STACK WIN 4 b0d1 9 3 0 4 0 0 0 1 $T0 $ebp = $eip $T0 4 + ^ = $ebp $T0 ^ = $esp $T0 8 + = 
STACK WIN 4 b0dc 10 3 0 4 0 0 0 1 $T0 $ebp = $eip $T0 4 + ^ = $ebp $T0 ^ = $esp $T0 8 + = 
STACK WIN 4 b0f0 10 3 0 4 0 0 0 1 $T0 $ebp = $eip $T0 4 + ^ = $ebp $T0 ^ = $esp $T0 8 + = 
STACK WIN 4 b104 12 3 0 c 0 0 0 1 $T0 $ebp = $eip $T0 4 + ^ = $ebp $T0 ^ = $esp $T0 8 + = 
STACK WIN 4 b11a a 3 0 4 0 0 0 1 $T0 $ebp = $eip $T0 4 + ^ = $ebp $T0 ^ = $esp $T0 8 + = 
STACK WIN 4 b126 e 3 0 4 0 0 0 1 $T0 $ebp = $eip $T0 4 + ^ = $ebp $T0 ^ = $esp $T0 8 + = 
STACK WIN 4 b137 e 3 0 4 0 0 0 1 $T0 $ebp = $eip $T0 4 + ^ = $ebp $T0 ^ = $esp $T0 8 + = 
STACK WIN 4 b148 10 3 0 0 0 0 0 1 $T0 .raSearch = $eip $T0 ^ = $esp $T0 4 + = 
STACK WIN 4 b149 e 2 0 0 4 0 0 1 $T0 .raSearch = $eip $T0 ^ = $esp $T0 4 + =  $23 $T0 4 - ^ = 
STACK WIN 4 b15c 10 3 0 0 0 0 0 1 $T0 .raSearch = $eip $T0 ^ = $esp $T0 4 + = 
STACK WIN 4 b15d e 2 0 0 4 0 0 1 $T0 .raSearch = $eip $T0 ^ = $esp $T0 4 + =  $23 $T0 4 - ^ = 
STACK WIN 4 b170 6 0 0 0 0 0 0 1 $T0 .raSearch = $eip $T0 ^ = $esp $T0 4 + = 
STACK WIN 4 b176 6 0 0 0 0 0 0 1 $T0 .raSearch = $eip $T0 ^ = $esp $T0 4 + = 
STACK WIN 4 b17c 7 0 0 0 0 0 0 1 $T0 .raSearch = $eip $T0 ^ = $esp $T0 4 + = 
STACK WIN 4 b183 7 0 0 0 0 0 0 1 $T0 .raSearch = $eip $T0 ^ = $esp $T0 4 + = 
STACK WIN 4 b18a 10 3 0 4 0 0 0 1 $T0 $ebp = $eip $T0 4 + ^ = $ebp $T0 ^ = $esp $T0 8 + = 
STACK WIN 4 b19e 10 3 0 4 0 0 0 1 $T0 $ebp = $eip $T0 4 + ^ = $ebp $T0 ^ = $esp $T0 8 + = 
STACK WIN 4 b1b2 a 3 0 4 0 0 0 1 $T0 $ebp = $eip $T0 4 + ^ = $ebp $T0 ^ = $esp $T0 8 + = 
STACK WIN 4 b1be 6 0 0 0 0 0 0 1 $T0 .raSearch = $eip $T0 ^ = $esp $T0 4 + = 
STACK WIN 4 b1c4 3 0 0 0 0 0 0 1 $T0 .raSearch = $eip $T0 ^ = $esp $T0 4 + = 
STACK WIN 4 b1c7 3 0 0 0 0 0 0 1 $T0 .raSearch = $eip $T0 ^ = $esp $T0 4 + = 
STACK WIN 4 b1ca 7 0 0 0 0 0 0 1 $T0 .raSearch = $eip $T0 ^ = $esp $T0 4 + = 
STACK WIN 4 b1d1 7 0 0 0 0 0 0 1 $T0 .raSearch = $eip $T0 ^ = $esp $T0 4 + = 
STACK WIN 4 b1d8 10 3 0 0 0 0 0 1 $T0 .raSearch = $eip $T0 ^ = $esp $T0 4 + = 
STACK WIN 4 b1d9 e 2 0 0 4 0 0 1 $T0 .raSearch = $eip $T0 ^ = $esp $T0 4 + =  $23 $T0 4 - ^ = 
STACK WIN 4 b1ec 10 3 0 0 0 0 0 1 $T0 .raSearch = $eip $T0 ^ = $esp $T0 4 + = 
STACK WIN 4 b1ed e 2 0 0 4 0 0 1 $T0 .raSearch = $eip $T0 ^ = $esp $T0 4 + =  $23 $T0 4 - ^ = 
STACK WIN 4 b200 3c 3 0 8 0 0 0 1 $T0 $ebp = $eip $T0 4 + ^ = $ebp $T0 ^ = $esp $T0 8 + = 
STACK WIN 4 b24b 23 3 0 4 0 0 0 1 $T0 $ebp = $eip $T0 4 + ^ = $ebp $T0 ^ = $esp $T0 8 + = 
STACK WIN 4 b25c 10 0 0 4 4 0 0 1 $T0 $ebp = $eip $T0 4 + ^ = $ebp $T0 ^ = $esp $T0 8 + =  $23 $T0 4 - ^ = 
STACK WIN 4 b276 26 3 0 4 0 0 0 1 $T0 $ebp = $eip $T0 4 + ^ = $ebp $T0 ^ = $esp $T0 8 + = 
STACK WIN 4 b2a5 c3 9 0 8 0 c 0 1 $T0 $ebp = $eip $T0 4 + ^ = $ebp $T0 ^ = $esp $T0 8 + = 
STACK WIN 4 b2b9 ad 0 0 8 4 c 0 1 $T0 $ebp = $eip $T0 4 + ^ = $ebp $T0 ^ = $esp $T0 8 + =  $20 $T0 16 - ^ = 
STACK WIN 4 b2ba a9 0 0 8 8 c 0 1 $T0 $ebp = $eip $T0 4 + ^ = $ebp $T0 ^ = $esp $T0 8 + =  $20 $T0 16 - ^ =  $23 $T0 20 - ^ = 
STACK WIN 4 b309 52 0 0 8 c c 0 1 $T0 $ebp = $eip $T0 4 + ^ = $ebp $T0 ^ = $esp $T0 8 + =  $20 $T0 16 - ^ =  $23 $T0 20 - ^ =  $24 $T0 24 - ^ = 
STACK WIN 4 b398 29 0 0 0 0 0 0 1 $T0 .raSearch = $eip $T0 ^ = $esp $T0 4 + = 
STACK WIN 4 b3cb b 0 0 0 0 0 0 1 $T0 .raSearch = $eip $T0 ^ = $esp $T0 4 + = 
STACK WIN 4 b3d8 b 0 0 0 0 0 0 1 $T0 .raSearch = $eip $T0 ^ = $esp $T0 4 + = 
STACK WIN 4 b3e5 1f 3 0 4 0 0 0 1 $T0 $ebp = $eip $T0 4 + ^ = $ebp $T0 ^ = $esp $T0 8 + = 
STACK WIN 4 b40b 8 0 0 0 0 0 0 1 $T0 .raSearch = $eip $T0 ^ = $esp $T0 4 + = 
STACK WIN 4 b415 1 0 0 0 0 0 0 1 $T0 .raSearch = $eip $T0 ^ = $esp $T0 4 + = 
STACK WIN 4 b790 b 3 0 4 0 0 0 1 $T0 $ebp = $eip $T0 4 + ^ = $ebp $T0 ^ = $esp $T0 8 + = 
STACK WIN 4 b79d 30 3 0 4 0 0 0 1 $T0 $ebp = $eip $T0 4 + ^ = $ebp $T0 ^ = $esp $T0 8 + = 
STACK WIN 4 b7d9 2d 3 0 4 0 0 0 1 $T0 $ebp = $eip $T0 4 + ^ = $ebp $T0 ^ = $esp $T0 8 + = 
STACK WIN 4 b811 39 3 0 8 0 0 0 1 $T0 $ebp = $eip $T0 4 + ^ = $ebp $T0 ^ = $esp $T0 8 + = 
STACK WIN 4 b824 24 0 0 8 4 0 0 1 $T0 $ebp = $eip $T0 4 + ^ = $ebp $T0 ^ = $esp $T0 8 + =  $23 $T0 4 - ^ = 
STACK WIN 4 b858 6 0 0 0 0 0 0 1 $T0 .raSearch = $eip $T0 ^ = $esp $T0 4 + = 
STACK WIN 4 b85e b2 7 0 8 0 0 0 1 $T0 $ebp = $eip $T0 4 + ^ = $ebp $T0 ^ = $esp $T0 8 + = 
STACK WIN 4 b862 aa 3 0 8 4 0 0 1 $T0 $ebp = $eip $T0 4 + ^ = $ebp $T0 ^ = $esp $T0 8 + =  $20 $T0 4 - ^ = 
STACK WIN 4 b863 a8 2 0 8 8 0 0 1 $T0 $ebp = $eip $T0 4 + ^ = $ebp $T0 ^ = $esp $T0 8 + =  $20 $T0 4 - ^ =  $23 $T0 8 - ^ = 
STACK WIN 4 b866 a2 0 0 8 c 0 0 1 $T0 $ebp = $eip $T0 4 + ^ = $ebp $T0 ^ = $esp $T0 8 + =  $20 $T0 4 - ^ =  $23 $T0 8 - ^ =  $24 $T0 12 - ^ = 
STACK WIN 4 b93c 16 3 0 4 0 0 0 1 $T0 $ebp = $eip $T0 4 + ^ = $ebp $T0 ^ = $esp $T0 8 + = 
STACK WIN 4 b957 25 6 0 4 0 0 0 1 $T0 $ebp = $eip $T0 4 + ^ = $ebp $T0 ^ = $esp $T0 8 + = 
STACK WIN 4 b95b 1d 2 0 4 4 0 0 1 $T0 $ebp = $eip $T0 4 + ^ = $ebp $T0 ^ = $esp $T0 8 + =  $23 $T0 4 - ^ = 
STACK WIN 4 b985 48 7 0 4 0 0 0 1 $T0 $ebp = $eip $T0 4 + ^ = $ebp $T0 ^ = $esp $T0 8 + = 
STACK WIN 4 b989 40 3 0 4 4 0 0 1 $T0 $ebp = $eip $T0 4 + ^ = $ebp $T0 ^ = $esp $T0 8 + =  $20 $T0 4 - ^ = 
STACK WIN 4 b98a 3e 2 0 4 8 0 0 1 $T0 $ebp = $eip $T0 4 + ^ = $ebp $T0 ^ = $esp $T0 8 + =  $20 $T0 4 - ^ =  $23 $T0 8 - ^ = 
STACK WIN 4 b9df 33 6 0 4 0 0 0 1 $T0 $ebp = $eip $T0 4 + ^ = $ebp $T0 ^ = $esp $T0 8 + = 
STACK WIN 4 b9e3 2b 2 0 4 4 0 0 1 $T0 $ebp = $eip $T0 4 + ^ = $ebp $T0 ^ = $esp $T0 8 + =  $23 $T0 4 - ^ = 
STACK WIN 4 ba1e 40 9 0 4 0 0 0 1 $T0 $ebp = $eip $T0 4 + ^ = $ebp $T0 ^ = $esp $T0 8 + = 
STACK WIN 4 ba25 35 2 0 4 4 0 0 1 $T0 $ebp = $eip $T0 4 + ^ = $ebp $T0 ^ = $esp $T0 8 + =  $23 $T0 4 - ^ = 
STACK WIN 4 ba6e a 0 0 0 0 0 0 1 $T0 .raSearch = $eip $T0 ^ = $esp $T0 4 + = 
STACK WIN 4 ba7a 8c 1a 0 8 0 2c 0 1 $T0 $ebp = $eip $T0 4 + ^ = $ebp $T0 ^ = $esp $T0 8 + = 
STACK WIN 4 baa0 5d 0 0 8 4 2c 0 1 $T0 $ebp = $eip $T0 4 + ^ = $ebp $T0 ^ = $esp $T0 8 + =  $23 $T0 48 - ^ = 
STACK WIN 4 baa4 58 0 0 8 8 2c 0 1 $T0 $ebp = $eip $T0 4 + ^ = $ebp $T0 ^ = $esp $T0 8 + =  $23 $T0 48 - ^ =  $24 $T0 52 - ^ = 
STACK WIN 4 babc 1f 0 0 8 c 2c 0 1 $T0 $ebp = $eip $T0 4 + ^ = $ebp $T0 ^ = $esp $T0 8 + =  $23 $T0 48 - ^ =  $24 $T0 52 - ^ =  $20 $T0 56 - ^ = 
STACK WIN 4 bb29 66 1a 0 8 0 24 0 1 $T0 $ebp = $eip $T0 4 + ^ = $ebp $T0 ^ = $esp $T0 8 + = 
STACK WIN 4 bb3d 49 6 0 8 4 24 0 1 $T0 $ebp = $eip $T0 4 + ^ = $ebp $T0 ^ = $esp $T0 8 + =  $20 $T0 40 - ^ = 
STACK WIN 4 bb41 42 2 0 8 8 24 0 1 $T0 $ebp = $eip $T0 4 + ^ = $ebp $T0 ^ = $esp $T0 8 + =  $20 $T0 40 - ^ =  $23 $T0 44 - ^ = 
STACK WIN 4 bb48 3a 0 0 8 c 24 0 1 $T0 $ebp = $eip $T0 4 + ^ = $ebp $T0 ^ = $esp $T0 8 + =  $20 $T0 40 - ^ =  $23 $T0 44 - ^ =  $24 $T0 48 - ^ = 
STACK WIN 4 bba8 9 0 0 0 0 0 0 1 $T0 .raSearch = $eip $T0 ^ = $esp $T0 4 + = 
STACK WIN 4 bbb3 6 0 0 0 0 0 0 1 $T0 .raSearch = $eip $T0 ^ = $esp $T0 4 + = 
STACK WIN 4 bbb9 9 0 0 0 0 0 0 1 $T0 .raSearch = $eip $T0 ^ = $esp $T0 4 + = 
STACK WIN 4 bbc4 4c 3 0 c 0 0 0 1 $T0 $ebp = $eip $T0 4 + ^ = $ebp $T0 ^ = $esp $T0 8 + = 
STACK WIN 4 bc23 15 3 0 4 0 0 0 1 $T0 $ebp = $eip $T0 4 + ^ = $ebp $T0 ^ = $esp $T0 8 + = 
STACK WIN 4 bc3d 28 3 0 4 0 0 0 1 $T0 $ebp = $eip $T0 4 + ^ = $ebp $T0 ^ = $esp $T0 8 + = 
STACK WIN 4 bc6f 1f 3 0 8 0 0 0 1 $T0 $ebp = $eip $T0 4 + ^ = $ebp $T0 ^ = $esp $T0 8 + = 
STACK WIN 4 bc95 59 7 0 8 0 0 0 1 $T0 $ebp = $eip $T0 4 + ^ = $ebp $T0 ^ = $esp $T0 8 + = 
STACK WIN 4 bc99 51 3 0 8 4 0 0 1 $T0 $ebp = $eip $T0 4 + ^ = $ebp $T0 ^ = $esp $T0 8 + =  $20 $T0 4 - ^ = 
STACK WIN 4 bc9a 4f 2 0 8 8 0 0 1 $T0 $ebp = $eip $T0 4 + ^ = $ebp $T0 ^ = $esp $T0 8 + =  $20 $T0 4 - ^ =  $23 $T0 8 - ^ = 
STACK WIN 4 bc9d 49 0 0 8 c 0 0 1 $T0 $ebp = $eip $T0 4 + ^ = $ebp $T0 ^ = $esp $T0 8 + =  $20 $T0 4 - ^ =  $23 $T0 8 - ^ =  $24 $T0 12 - ^ = 
STACK WIN 4 bd04 7 0 0 0 0 0 0 1 $T0 .raSearch = $eip $T0 ^ = $esp $T0 4 + = 
STACK WIN 4 bd0b 15 3 0 c 0 0 0 1 $T0 $ebp = $eip $T0 4 + ^ = $ebp $T0 ^ = $esp $T0 8 + = 
STACK WIN 4 bd25 16 3 0 4 0 0 0 1 $T0 $ebp = $eip $T0 4 + ^ = $ebp $T0 ^ = $esp $T0 8 + = 
STACK WIN 4 bd40 25 6 0 4 0 0 0 1 $T0 $ebp = $eip $T0 4 + ^ = $ebp $T0 ^ = $esp $T0 8 + = 
STACK WIN 4 bd44 1d 2 0 4 4 0 0 1 $T0 $ebp = $eip $T0 4 + ^ = $ebp $T0 ^ = $esp $T0 8 + =  $23 $T0 4 - ^ = 
STACK WIN 4 bd6e 42 6 0 4 0 0 0 1 $T0 $ebp = $eip $T0 4 + ^ = $ebp $T0 ^ = $esp $T0 8 + = 
STACK WIN 4 bd72 3a 2 0 4 4 0 0 1 $T0 $ebp = $eip $T0 4 + ^ = $ebp $T0 ^ = $esp $T0 8 + =  $23 $T0 4 - ^ = 
STACK WIN 4 bd75 34 0 0 4 8 0 0 1 $T0 $ebp = $eip $T0 4 + ^ = $ebp $T0 ^ = $esp $T0 8 + =  $23 $T0 4 - ^ =  $24 $T0 8 - ^ = 
STACK WIN 4 bdc0 2b 6 0 4 0 0 0 1 $T0 $ebp = $eip $T0 4 + ^ = $ebp $T0 ^ = $esp $T0 8 + = 
STACK WIN 4 bdc4 23 2 0 4 4 0 0 1 $T0 $ebp = $eip $T0 4 + ^ = $ebp $T0 ^ = $esp $T0 8 + =  $23 $T0 4 - ^ = 
STACK WIN 4 bdf5 32 9 0 4 0 0 0 1 $T0 $ebp = $eip $T0 4 + ^ = $ebp $T0 ^ = $esp $T0 8 + = 
STACK WIN 4 bdfc 27 2 0 4 4 0 0 1 $T0 $ebp = $eip $T0 4 + ^ = $ebp $T0 ^ = $esp $T0 8 + =  $23 $T0 4 - ^ = 
STACK WIN 4 be33 46 3 0 8 0 0 0 1 $T0 $ebp = $eip $T0 4 + ^ = $ebp $T0 ^ = $esp $T0 8 + = 
STACK WIN 4 be8a 22 5 0 c 0 8 0 1 $T0 $ebp = $eip $T0 4 + ^ = $ebp $T0 ^ = $esp $T0 8 + = 
STACK WIN 4 beb4 22 5 0 c 0 8 0 1 $T0 $ebp = $eip $T0 4 + ^ = $ebp $T0 ^ = $esp $T0 8 + = 
STACK WIN 4 bede 22 5 0 c 0 8 0 1 $T0 $ebp = $eip $T0 4 + ^ = $ebp $T0 ^ = $esp $T0 8 + = 
STACK WIN 4 bf08 22 6 0 8 0 0 0 1 $T0 $ebp = $eip $T0 4 + ^ = $ebp $T0 ^ = $esp $T0 8 + = 
STACK WIN 4 bf0e 18 0 0 8 4 0 0 1 $T0 $ebp = $eip $T0 4 + ^ = $ebp $T0 ^ = $esp $T0 8 + =  $23 $T0 4 - ^ = 
STACK WIN 4 bf32 22 6 0 8 0 0 0 1 $T0 $ebp = $eip $T0 4 + ^ = $ebp $T0 ^ = $esp $T0 8 + = 
STACK WIN 4 bf38 18 0 0 8 4 0 0 1 $T0 $ebp = $eip $T0 4 + ^ = $ebp $T0 ^ = $esp $T0 8 + =  $23 $T0 4 - ^ = 
STACK WIN 4 bf5c 22 6 0 8 0 0 0 1 $T0 $ebp = $eip $T0 4 + ^ = $ebp $T0 ^ = $esp $T0 8 + = 
STACK WIN 4 bf62 18 0 0 8 4 0 0 1 $T0 $ebp = $eip $T0 4 + ^ = $ebp $T0 ^ = $esp $T0 8 + =  $23 $T0 4 - ^ = 
STACK WIN 4 bf86 22 6 0 8 0 0 0 1 $T0 $ebp = $eip $T0 4 + ^ = $ebp $T0 ^ = $esp $T0 8 + = 
STACK WIN 4 bf8c 18 0 0 8 4 0 0 1 $T0 $ebp = $eip $T0 4 + ^ = $ebp $T0 ^ = $esp $T0 8 + =  $23 $T0 4 - ^ = 
STACK WIN 4 bfb0 22 6 0 8 0 0 0 1 $T0 $ebp = $eip $T0 4 + ^ = $ebp $T0 ^ = $esp $T0 8 + = 
STACK WIN 4 bfb6 18 0 0 8 4 0 0 1 $T0 $ebp = $eip $T0 4 + ^ = $ebp $T0 ^ = $esp $T0 8 + =  $23 $T0 4 - ^ = 
STACK WIN 4 bfda 41 6 0 4 0 0 0 1 $T0 $ebp = $eip $T0 4 + ^ = $ebp $T0 ^ = $esp $T0 8 + = 
STACK WIN 4 bfde 39 2 0 4 4 0 0 1 $T0 $ebp = $eip $T0 4 + ^ = $ebp $T0 ^ = $esp $T0 8 + =  $23 $T0 4 - ^ = 
STACK WIN 4 c02b 50 6 0 4 0 0 0 1 $T0 $ebp = $eip $T0 4 + ^ = $ebp $T0 ^ = $esp $T0 8 + = 
STACK WIN 4 c02f 48 2 0 4 4 0 0 1 $T0 $ebp = $eip $T0 4 + ^ = $ebp $T0 ^ = $esp $T0 8 + =  $23 $T0 4 - ^ = 
STACK WIN 4 c038 3c 0 0 4 8 0 0 1 $T0 $ebp = $eip $T0 4 + ^ = $ebp $T0 ^ = $esp $T0 8 + =  $23 $T0 4 - ^ =  $20 $T0 8 - ^ = 
STACK WIN 4 c08f 65 6 0 4 0 0 0 1 $T0 $ebp = $eip $T0 4 + ^ = $ebp $T0 ^ = $esp $T0 8 + = 
STACK WIN 4 c093 5d 2 0 4 4 0 0 1 $T0 $ebp = $eip $T0 4 + ^ = $ebp $T0 ^ = $esp $T0 8 + =  $23 $T0 4 - ^ = 
STACK WIN 4 c09c 51 0 0 4 8 0 0 1 $T0 $ebp = $eip $T0 4 + ^ = $ebp $T0 ^ = $esp $T0 8 + =  $23 $T0 4 - ^ =  $24 $T0 8 - ^ = 
STACK WIN 4 c0a4 48 0 0 4 c 0 0 1 $T0 $ebp = $eip $T0 4 + ^ = $ebp $T0 ^ = $esp $T0 8 + =  $23 $T0 4 - ^ =  $24 $T0 8 - ^ =  $20 $T0 12 - ^ = 
STACK WIN 4 c10d 61 6 0 4 0 0 0 1 $T0 $ebp = $eip $T0 4 + ^ = $ebp $T0 ^ = $esp $T0 8 + = 
STACK WIN 4 c111 59 2 0 4 4 0 0 1 $T0 $ebp = $eip $T0 4 + ^ = $ebp $T0 ^ = $esp $T0 8 + =  $20 $T0 4 - ^ = 
STACK WIN 4 c11a 4d 0 0 4 8 0 0 1 $T0 $ebp = $eip $T0 4 + ^ = $ebp $T0 ^ = $esp $T0 8 + =  $20 $T0 4 - ^ =  $24 $T0 8 - ^ = 
STACK WIN 4 c127 3f 0 0 4 c 0 0 1 $T0 $ebp = $eip $T0 4 + ^ = $ebp $T0 ^ = $esp $T0 8 + =  $20 $T0 4 - ^ =  $24 $T0 8 - ^ =  $23 $T0 12 - ^ = 
STACK WIN 4 c186 40 6 0 4 0 0 0 1 $T0 $ebp = $eip $T0 4 + ^ = $ebp $T0 ^ = $esp $T0 8 + = 
STACK WIN 4 c18a 38 2 0 4 4 0 0 1 $T0 $ebp = $eip $T0 4 + ^ = $ebp $T0 ^ = $esp $T0 8 + =  $23 $T0 4 - ^ = 
STACK WIN 4 c1d6 4a 6 0 4 0 0 0 1 $T0 $ebp = $eip $T0 4 + ^ = $ebp $T0 ^ = $esp $T0 8 + = 
STACK WIN 4 c1da 42 2 0 4 4 0 0 1 $T0 $ebp = $eip $T0 4 + ^ = $ebp $T0 ^ = $esp $T0 8 + =  $23 $T0 4 - ^ = 
STACK WIN 4 c1e2 37 0 0 4 8 0 0 1 $T0 $ebp = $eip $T0 4 + ^ = $ebp $T0 ^ = $esp $T0 8 + =  $23 $T0 4 - ^ =  $24 $T0 8 - ^ = 
STACK WIN 4 c232 1c 3 0 4 0 0 0 1 $T0 $ebp = $eip $T0 4 + ^ = $ebp $T0 ^ = $esp $T0 8 + = 
STACK WIN 4 c255 1d 3 0 8 0 0 0 1 $T0 $ebp = $eip $T0 4 + ^ = $ebp $T0 ^ = $esp $T0 8 + = 
STACK WIN 4 c279 38 3 0 0 0 0 0 1 $T0 .raSearch = $eip $T0 ^ = $esp $T0 4 + = 
STACK WIN 4 c27a 36 2 0 0 4 0 0 1 $T0 .raSearch = $eip $T0 ^ = $esp $T0 4 + =  $24 $T0 4 - ^ = 
STACK WIN 4 c28d 22 0 0 0 8 0 0 1 $T0 .raSearch = $eip $T0 ^ = $esp $T0 4 + =  $24 $T0 4 - ^ =  $23 $T0 8 - ^ = 
STACK WIN 4 c2bf 1f 3 0 4 0 0 0 1 $T0 $ebp = $eip $T0 4 + ^ = $ebp $T0 ^ = $esp $T0 8 + = 
STACK WIN 4 c2e5 46 a 0 4 0 0 0 1 $T0 $ebp = $eip $T0 4 + ^ = $ebp $T0 ^ = $esp $T0 8 + = 
STACK WIN 4 c2e9 3e 6 0 4 4 0 0 1 $T0 $ebp = $eip $T0 4 + ^ = $ebp $T0 ^ = $esp $T0 8 + =  $23 $T0 4 - ^ = 
STACK WIN 4 c2ea 3c 5 0 4 8 0 0 1 $T0 $ebp = $eip $T0 4 + ^ = $ebp $T0 ^ = $esp $T0 8 + =  $23 $T0 4 - ^ =  $24 $T0 8 - ^ = 
STACK WIN 4 c33c cdd 17 0 8 0 90 0 1 $T0 $ebp = $eip $T0 4 + ^ = $ebp $T0 ^ = $esp $T0 8 + = 
STACK WIN 4 c351 cc6 2 0 8 4 90 0 1 $T0 $ebp = $eip $T0 4 + ^ = $ebp $T0 ^ = $esp $T0 8 + =  $20 $T0 148 - ^ = 
STACK WIN 4 c352 cc4 1 0 8 8 90 0 1 $T0 $ebp = $eip $T0 4 + ^ = $ebp $T0 ^ = $esp $T0 8 + =  $20 $T0 148 - ^ =  $23 $T0 152 - ^ = 
STACK WIN 4 c353 cc2 0 0 8 c 90 0 1 $T0 $ebp = $eip $T0 4 + ^ = $ebp $T0 ^ = $esp $T0 8 + =  $20 $T0 148 - ^ =  $23 $T0 152 - ^ =  $24 $T0 156 - ^ = 
STACK WIN 4 d350 e 0 0 0 0 0 0 1 $T0 .raSearch = $eip $T0 ^ = $esp $T0 4 + = 
STACK WIN 4 d361 e 0 0 0 0 0 0 1 $T0 .raSearch = $eip $T0 ^ = $esp $T0 4 + = 
STACK WIN 4 d372 e 0 0 0 0 0 0 1 $T0 .raSearch = $eip $T0 ^ = $esp $T0 4 + = 
STACK WIN 4 d383 e 0 0 0 0 0 0 1 $T0 .raSearch = $eip $T0 ^ = $esp $T0 4 + = 
STACK WIN 4 d394 e 0 0 0 0 0 0 1 $T0 .raSearch = $eip $T0 ^ = $esp $T0 4 + = 
STACK WIN 4 d3a5 e 0 0 0 0 0 0 1 $T0 .raSearch = $eip $T0 ^ = $esp $T0 4 + = 
STACK WIN 4 d3b6 d 0 0 0 0 0 0 1 $T0 .raSearch = $eip $T0 ^ = $esp $T0 4 + = 
STACK WIN 4 d3c6 e 0 0 0 0 0 0 1 $T0 .raSearch = $eip $T0 ^ = $esp $T0 4 + = 
STACK WIN 4 d3d7 b 0 0 0 0 0 0 1 $T0 .raSearch = $eip $T0 ^ = $esp $T0 4 + = 
STACK WIN 4 d3e4 b 0 0 0 0 0 0 1 $T0 .raSearch = $eip $T0 ^ = $esp $T0 4 + = 
STACK WIN 4 d3f1 86 6 0 8 0 0 0 1 $T0 $ebp = $eip $T0 4 + ^ = $ebp $T0 ^ = $esp $T0 8 + = 
STACK WIN 4 d3f5 7e 2 0 8 4 0 0 1 $T0 $ebp = $eip $T0 4 + ^ = $ebp $T0 ^ = $esp $T0 8 + =  $23 $T0 4 - ^ = 
STACK WIN 4 d3f8 7a 0 0 8 8 0 0 1 $T0 $ebp = $eip $T0 4 + ^ = $ebp $T0 ^ = $esp $T0 8 + =  $23 $T0 4 - ^ =  $24 $T0 8 - ^ = 
STACK WIN 4 d40a 67 0 0 8 c 0 0 1 $T0 $ebp = $eip $T0 4 + ^ = $ebp $T0 ^ = $esp $T0 8 + =  $23 $T0 4 - ^ =  $24 $T0 8 - ^ =  $20 $T0 12 - ^ = 
STACK WIN 4 d498 e 0 0 0 0 0 0 1 $T0 .raSearch = $eip $T0 ^ = $esp $T0 4 + = 
STACK WIN 4 d4a9 e 0 0 0 0 0 0 1 $T0 .raSearch = $eip $T0 ^ = $esp $T0 4 + = 
STACK WIN 4 d4ba 12 0 0 0 0 0 0 1 $T0 .raSearch = $eip $T0 ^ = $esp $T0 4 + = 
STACK WIN 4 d4d0 e 0 0 0 0 0 0 1 $T0 .raSearch = $eip $T0 ^ = $esp $T0 4 + = 
STACK WIN 4 d4e1 b 0 0 0 0 0 0 1 $T0 .raSearch = $eip $T0 ^ = $esp $T0 4 + = 
STACK WIN 4 d4ee b 0 0 0 0 0 0 1 $T0 .raSearch = $eip $T0 ^ = $esp $T0 4 + = 
STACK WIN 4 d4fb f6 f 0 4 0 18 0 1 $T0 $ebp = $eip $T0 4 + ^ = $ebp $T0 ^ = $esp $T0 8 + = 
STACK WIN 4 d502 ed 8 0 4 4 18 0 1 $T0 $ebp = $eip $T0 4 + ^ = $ebp $T0 ^ = $esp $T0 8 + =  $20 $T0 28 - ^ = 
STACK WIN 4 d503 eb 7 0 4 8 18 0 1 $T0 $ebp = $eip $T0 4 + ^ = $ebp $T0 ^ = $esp $T0 8 + =  $20 $T0 28 - ^ =  $23 $T0 32 - ^ = 
STACK WIN 4 d50a e1 0 0 4 c 18 0 1 $T0 $ebp = $eip $T0 4 + ^ = $ebp $T0 ^ = $esp $T0 8 + =  $20 $T0 28 - ^ =  $23 $T0 32 - ^ =  $24 $T0 36 - ^ = 
STACK WIN 4 d62e ca 5 0 4 0 8 0 1 $T0 $ebp = $eip $T0 4 + ^ = $ebp $T0 ^ = $esp $T0 8 + = 
STACK WIN 4 d72a 1b1 10 0 8 0 30 0 1 $T0 $ebp = $eip $T0 4 + ^ = $ebp $T0 ^ = $esp $T0 8 + = 
STACK WIN 4 d739 1a0 1 0 8 4 30 0 1 $T0 $ebp = $eip $T0 4 + ^ = $ebp $T0 ^ = $esp $T0 8 + =  $23 $T0 52 - ^ = 
STACK WIN 4 d73a 19e 0 0 8 8 30 0 1 $T0 $ebp = $eip $T0 4 + ^ = $ebp $T0 ^ = $esp $T0 8 + =  $23 $T0 52 - ^ =  $24 $T0 56 - ^ = 
STACK WIN 4 d77e e7 0 0 8 c 30 0 1 $T0 $ebp = $eip $T0 4 + ^ = $ebp $T0 ^ = $esp $T0 8 + =  $23 $T0 52 - ^ =  $24 $T0 56 - ^ =  $20 $T0 60 - ^ = 
STACK WIN 4 d947 98 6 0 4 0 10 0 1 $T0 $ebp = $eip $T0 4 + ^ = $ebp $T0 ^ = $esp $T0 8 + = 
STACK WIN 4 da05 3df f 0 8 0 1c 0 1 $T0 $ebp = $eip $T0 4 + ^ = $ebp $T0 ^ = $esp $T0 8 + = 
STACK WIN 4 da13 3a9 1 0 8 4 1c 0 1 $T0 $ebp = $eip $T0 4 + ^ = $ebp $T0 ^ = $esp $T0 8 + =  $20 $T0 32 - ^ = 
STACK WIN 4 da14 3a7 0 0 8 8 1c 0 1 $T0 $ebp = $eip $T0 4 + ^ = $ebp $T0 ^ = $esp $T0 8 + =  $20 $T0 32 - ^ =  $23 $T0 36 - ^ = 
STACK WIN 4 dedb df c 0 8 0 c 0 1 $T0 $ebp = $eip $T0 4 + ^ = $ebp $T0 ^ = $esp $T0 8 + = 
STACK WIN 4 dee2 79 5 0 8 4 c 0 1 $T0 $ebp = $eip $T0 4 + ^ = $ebp $T0 ^ = $esp $T0 8 + =  $20 $T0 16 - ^ = 
STACK WIN 4 dee3 77 4 0 8 8 c 0 1 $T0 $ebp = $eip $T0 4 + ^ = $ebp $T0 ^ = $esp $T0 8 + =  $20 $T0 16 - ^ =  $23 $T0 20 - ^ = 
STACK WIN 4 dee7 72 0 0 8 c c 0 1 $T0 $ebp = $eip $T0 4 + ^ = $ebp $T0 ^ = $esp $T0 8 + =  $20 $T0 16 - ^ =  $23 $T0 20 - ^ =  $24 $T0 24 - ^ = 
STACK WIN 4 dff1 14 3 0 4 0 0 0 1 $T0 $ebp = $eip $T0 4 + ^ = $ebp $T0 ^ = $esp $T0 8 + = 
STACK WIN 4 e00a d3 5 0 4 0 8 0 1 $T0 $ebp = $eip $T0 4 + ^ = $ebp $T0 ^ = $esp $T0 8 + = 
STACK WIN 4 e111 5ea e 0 14 0 4c 0 1 $T0 $ebp = $eip $T0 4 + ^ = $ebp $T0 ^ = $esp $T0 8 + = 
STACK WIN 4 e11d 5dc 2 0 14 4 4c 0 1 $T0 $ebp = $eip $T0 4 + ^ = $ebp $T0 ^ = $esp $T0 8 + =  $20 $T0 80 - ^ = 
STACK WIN 4 e11e 5da 1 0 14 8 4c 0 1 $T0 $ebp = $eip $T0 4 + ^ = $ebp $T0 ^ = $esp $T0 8 + =  $20 $T0 80 - ^ =  $23 $T0 84 - ^ = 
STACK WIN 4 e11f 5d8 0 0 14 c 4c 0 1 $T0 $ebp = $eip $T0 4 + ^ = $ebp $T0 ^ = $esp $T0 8 + =  $20 $T0 80 - ^ =  $23 $T0 84 - ^ =  $24 $T0 88 - ^ = 
STACK WIN 4 e875 32 6 0 4 0 10 0 1 $T0 $ebp = $eip $T0 4 + ^ = $ebp $T0 ^ = $esp $T0 8 + = 
STACK WIN 4 e8b3 c5 6 0 8 0 18 0 1 $T0 $ebp = $eip $T0 4 + ^ = $ebp $T0 ^ = $esp $T0 8 + = 
STACK WIN 4 e9a9 242 c 0 4 10 2c 0 1 $T0 $ebp = $eip $T0 4 + ^ = $ebp $T0 ^ = $esp $T0 8 + =  $20 $T0 48 - ^ =  $23 $T0 52 - ^ =  $24 $T0 56 - ^ = 
STACK WIN 4 ec7b 11f 14 0 8 0 18 0 1 $T0 $ebp = $eip $T0 4 + ^ = $ebp $T0 ^ = $esp $T0 8 + = 
STACK WIN 4 ec88 110 7 0 8 4 18 0 1 $T0 $ebp = $eip $T0 4 + ^ = $ebp $T0 ^ = $esp $T0 8 + =  $20 $T0 28 - ^ = 
STACK WIN 4 ec89 10e 6 0 8 8 18 0 1 $T0 $ebp = $eip $T0 4 + ^ = $ebp $T0 ^ = $esp $T0 8 + =  $20 $T0 28 - ^ =  $23 $T0 32 - ^ = 
STACK WIN 4 ec8f 107 0 0 8 c 18 0 1 $T0 $ebp = $eip $T0 4 + ^ = $ebp $T0 ^ = $esp $T0 8 + =  $20 $T0 28 - ^ =  $23 $T0 32 - ^ =  $24 $T0 36 - ^ = 
STACK WIN 4 ede1 54 3 0 4 0 0 0 1 $T0 $ebp = $eip $T0 4 + ^ = $ebp $T0 ^ = $esp $T0 8 + = 
STACK WIN 4 ee4a 14 3 0 4 0 0 0 1 $T0 $ebp = $eip $T0 4 + ^ = $ebp $T0 ^ = $esp $T0 8 + = 
STACK WIN 4 ee63 118 14 0 4 0 20 0 1 $T0 $ebp = $eip $T0 4 + ^ = $ebp $T0 ^ = $esp $T0 8 + = 
STACK WIN 4 ee76 103 1 0 4 4 20 0 1 $T0 $ebp = $eip $T0 4 + ^ = $ebp $T0 ^ = $esp $T0 8 + =  $20 $T0 36 - ^ = 
STACK WIN 4 ee77 101 0 0 4 8 20 0 1 $T0 $ebp = $eip $T0 4 + ^ = $ebp $T0 ^ = $esp $T0 8 + =  $20 $T0 36 - ^ =  $24 $T0 40 - ^ = 
STACK WIN 4 eed8 30 0 0 4 c 20 0 1 $T0 $ebp = $eip $T0 4 + ^ = $ebp $T0 ^ = $esp $T0 8 + =  $20 $T0 36 - ^ =  $24 $T0 40 - ^ =  $23 $T0 44 - ^ = 
STACK WIN 4 efc1 11 3 0 4 0 0 0 1 $T0 $ebp = $eip $T0 4 + ^ = $ebp $T0 ^ = $esp $T0 8 + = 
STACK WIN 4 efd6 f0 6 0 4 0 18 0 1 $T0 $ebp = $eip $T0 4 + ^ = $ebp $T0 ^ = $esp $T0 8 + = 
STACK WIN 4 f102 1b7 1d 0 10 0 1c 0 1 $T0 $ebp = $eip $T0 4 + ^ = $ebp $T0 ^ = $esp $T0 8 + = 
STACK WIN 4 f110 1a7 f 0 10 4 1c 0 1 $T0 $ebp = $eip $T0 4 + ^ = $ebp $T0 ^ = $esp $T0 8 + =  $20 $T0 32 - ^ = 
STACK WIN 4 f117 19f 8 0 10 8 1c 0 1 $T0 $ebp = $eip $T0 4 + ^ = $ebp $T0 ^ = $esp $T0 8 + =  $20 $T0 32 - ^ =  $23 $T0 36 - ^ = 
STACK WIN 4 f11f 196 0 0 10 c 1c 0 1 $T0 $ebp = $eip $T0 4 + ^ = $ebp $T0 ^ = $esp $T0 8 + =  $20 $T0 32 - ^ =  $23 $T0 36 - ^ =  $24 $T0 40 - ^ = 
STACK WIN 4 f326 67 c 0 8 0 18 0 1 $T0 $ebp = $eip $T0 4 + ^ = $ebp $T0 ^ = $esp $T0 8 + = 
STACK WIN 4 f332 59 0 0 8 4 18 0 1 $T0 $ebp = $eip $T0 4 + ^ = $ebp $T0 ^ = $esp $T0 8 + =  $23 $T0 28 - ^ = 
STACK WIN 4 f3a6 3d8 11 0 8 0 3c 0 1 $T0 $ebp = $eip $T0 4 + ^ = $ebp $T0 ^ = $esp $T0 8 + = 
STACK WIN 4 f3b5 3c7 2 0 8 4 3c 0 1 $T0 $ebp = $eip $T0 4 + ^ = $ebp $T0 ^ = $esp $T0 8 + =  $20 $T0 64 - ^ = 
STACK WIN 4 f3b6 3c5 1 0 8 8 3c 0 1 $T0 $ebp = $eip $T0 4 + ^ = $ebp $T0 ^ = $esp $T0 8 + =  $20 $T0 64 - ^ =  $23 $T0 68 - ^ = 
STACK WIN 4 f3b7 3c3 0 0 8 c 3c 0 1 $T0 $ebp = $eip $T0 4 + ^ = $ebp $T0 ^ = $esp $T0 8 + =  $20 $T0 64 - ^ =  $23 $T0 68 - ^ =  $24 $T0 72 - ^ = 
STACK WIN 4 f874 14 3 0 4 0 0 0 1 $T0 $ebp = $eip $T0 4 + ^ = $ebp $T0 ^ = $esp $T0 8 + = 
STACK WIN 4 f88d 20 1 0 0 0 0 0 1 $T0 .raSearch = $eip $T0 ^ = $esp $T0 4 + = 
STACK WIN 4 f88e 1e 0 0 0 4 0 0 1 $T0 .raSearch = $eip $T0 ^ = $esp $T0 4 + =  $24 $T0 4 - ^ = 
STACK WIN 4 f89b 10 0 0 0 8 0 0 1 $T0 .raSearch = $eip $T0 ^ = $esp $T0 4 + =  $24 $T0 4 - ^ =  $23 $T0 8 - ^ = 
STACK WIN 4 f8b5 c 0 0 0 0 0 0 1 $T0 .raSearch = $eip $T0 ^ = $esp $T0 4 + = 
STACK WIN 4 f8c4 4 0 0 0 0 0 0 1 $T0 .raSearch = $eip $T0 ^ = $esp $T0 4 + = 
STACK WIN 4 f8c8 e 0 0 0 0 0 0 1 $T0 .raSearch = $eip $T0 ^ = $esp $T0 4 + = 
STACK WIN 4 f8d9 35 3 0 0 0 0 0 1 $T0 .raSearch = $eip $T0 ^ = $esp $T0 4 + = 
STACK WIN 4 f8da 33 2 0 0 4 0 0 1 $T0 .raSearch = $eip $T0 ^ = $esp $T0 4 + =  $20 $T0 4 - ^ = 
STACK WIN 4 f8dd 2f 0 0 0 8 0 0 1 $T0 .raSearch = $eip $T0 ^ = $esp $T0 4 + =  $20 $T0 4 - ^ =  $23 $T0 8 - ^ = 
STACK WIN 4 f8de 2d 0 0 0 c 0 0 1 $T0 .raSearch = $eip $T0 ^ = $esp $T0 4 + =  $20 $T0 4 - ^ =  $23 $T0 8 - ^ =  $24 $T0 12 - ^ = 
STACK WIN 4 f91b 12 0 0 0 0 0 0 1 $T0 .raSearch = $eip $T0 ^ = $esp $T0 4 + = 
STACK WIN 4 f931 3f a 0 4 0 18 0 1 $T0 $ebp = $eip $T0 4 + ^ = $ebp $T0 ^ = $esp $T0 8 + = 
STACK WIN 4 f93b 33 0 0 4 4 18 0 1 $T0 $ebp = $eip $T0 4 + ^ = $ebp $T0 ^ = $esp $T0 8 + =  $23 $T0 28 - ^ = 
STACK WIN 4 f97f 87 b 0 8 0 0 0 1 $T0 $ebp = $eip $T0 4 + ^ = $ebp $T0 ^ = $esp $T0 8 + = 
STACK WIN 4 f983 7b 7 0 8 4 0 0 1 $T0 $ebp = $eip $T0 4 + ^ = $ebp $T0 ^ = $esp $T0 8 + =  $20 $T0 4 - ^ = 
STACK WIN 4 f984 79 6 0 8 8 0 0 1 $T0 $ebp = $eip $T0 4 + ^ = $ebp $T0 ^ = $esp $T0 8 + =  $20 $T0 4 - ^ =  $23 $T0 8 - ^ = 
STACK WIN 4 f985 77 5 0 8 c 0 0 1 $T0 $ebp = $eip $T0 4 + ^ = $ebp $T0 ^ = $esp $T0 8 + =  $20 $T0 4 - ^ =  $23 $T0 8 - ^ =  $24 $T0 12 - ^ = 
STACK WIN 4 fa27 45 3 0 4 0 0 0 1 $T0 $ebp = $eip $T0 4 + ^ = $ebp $T0 ^ = $esp $T0 8 + = 
STACK WIN 4 fa7d 61 0 0 0 0 0 0 1 $T0 .raSearch = $eip $T0 ^ = $esp $T0 4 + = 
STACK WIN 4 faf6 658 e 0 c 0 28 0 1 $T0 $ebp = $eip $T0 4 + ^ = $ebp $T0 ^ = $esp $T0 8 + = 
STACK WIN 4 fb02 9b 2 0 c 4 28 0 1 $T0 $ebp = $eip $T0 4 + ^ = $ebp $T0 ^ = $esp $T0 8 + =  $20 $T0 44 - ^ = 
STACK WIN 4 fb03 99 1 0 c 8 28 0 1 $T0 $ebp = $eip $T0 4 + ^ = $ebp $T0 ^ = $esp $T0 8 + =  $20 $T0 44 - ^ =  $23 $T0 48 - ^ = 
STACK WIN 4 fb04 97 0 0 c c 28 0 1 $T0 $ebp = $eip $T0 4 + ^ = $ebp $T0 ^ = $esp $T0 8 + =  $20 $T0 44 - ^ =  $23 $T0 48 - ^ =  $24 $T0 52 - ^ = 
STACK WIN 4 102e4 1e 3 0 c 0 0 0 1 $T0 $ebp = $eip $T0 4 + ^ = $ebp $T0 ^ = $esp $T0 8 + = 
STACK WIN 4 10309 1e 3 0 c 0 0 0 1 $T0 $ebp = $eip $T0 4 + ^ = $ebp $T0 ^ = $esp $T0 8 + = 
STACK WIN 4 1032e 1e4 e 0 8 0 10 0 1 $T0 $ebp = $eip $T0 4 + ^ = $ebp $T0 ^ = $esp $T0 8 + = 
STACK WIN 4 1033b a9 1 0 8 4 10 0 1 $T0 $ebp = $eip $T0 4 + ^ = $ebp $T0 ^ = $esp $T0 8 + =  $23 $T0 20 - ^ = 
STACK WIN 4 1033c a7 0 0 8 8 10 0 1 $T0 $ebp = $eip $T0 4 + ^ = $ebp $T0 ^ = $esp $T0 8 + =  $23 $T0 20 - ^ =  $24 $T0 24 - ^ = 
STACK WIN 4 1058b 129 b 0 c 0 18 0 1 $T0 $ebp = $eip $T0 4 + ^ = $ebp $T0 ^ = $esp $T0 8 + = 
STACK WIN 4 10642 56 0 0 c 4 18 0 1 $T0 $ebp = $eip $T0 4 + ^ = $ebp $T0 ^ = $esp $T0 8 + =  $23 $T0 28 - ^ = 
STACK WIN 4 106fe fa c 0 10 0 8 0 1 $T0 $ebp = $eip $T0 4 + ^ = $ebp $T0 ^ = $esp $T0 8 + = 
STACK WIN 4 10709 ed 1 0 10 4 8 0 1 $T0 $ebp = $eip $T0 4 + ^ = $ebp $T0 ^ = $esp $T0 8 + =  $23 $T0 12 - ^ = 
STACK WIN 4 1070a eb 0 0 10 8 8 0 1 $T0 $ebp = $eip $T0 4 + ^ = $ebp $T0 ^ = $esp $T0 8 + =  $23 $T0 12 - ^ =  $24 $T0 16 - ^ = 
STACK WIN 4 107c7 25 0 0 10 c 8 0 1 $T0 $ebp = $eip $T0 4 + ^ = $ebp $T0 ^ = $esp $T0 8 + =  $23 $T0 12 - ^ =  $24 $T0 16 - ^ =  $20 $T0 20 - ^ = 
STACK WIN 4 10836 1c 3 0 10 0 0 0 1 $T0 $ebp = $eip $T0 4 + ^ = $ebp $T0 ^ = $esp $T0 8 + = 
STACK WIN 4 10859 f9 e 0 4 0 8 0 1 $T0 $ebp = $eip $T0 4 + ^ = $ebp $T0 ^ = $esp $T0 8 + = 
STACK WIN 4 10865 eb 2 0 4 4 8 0 1 $T0 $ebp = $eip $T0 4 + ^ = $ebp $T0 ^ = $esp $T0 8 + =  $20 $T0 12 - ^ = 
STACK WIN 4 10866 e9 1 0 4 8 8 0 1 $T0 $ebp = $eip $T0 4 + ^ = $ebp $T0 ^ = $esp $T0 8 + =  $20 $T0 12 - ^ =  $23 $T0 16 - ^ = 
STACK WIN 4 10867 e5 0 0 4 c 8 0 1 $T0 $ebp = $eip $T0 4 + ^ = $ebp $T0 ^ = $esp $T0 8 + =  $20 $T0 12 - ^ =  $23 $T0 16 - ^ =  $24 $T0 20 - ^ = 
STACK WIN 4 10990 2f 3 0 8 0 0 0 1 $T0 $ebp = $eip $T0 4 + ^ = $ebp $T0 ^ = $esp $T0 8 + = 
STACK WIN 4 109ca 394 c 0 4 0 f0 0 1 $T0 $ebp = $eip $T0 4 + ^ = $ebp $T0 ^ = $esp $T0 8 + = 
STACK WIN 4 109d4 388 2 0 4 4 f0 0 1 $T0 $ebp = $eip $T0 4 + ^ = $ebp $T0 ^ = $esp $T0 8 + =  $20 $T0 244 - ^ = 
STACK WIN 4 109d5 386 1 0 4 8 f0 0 1 $T0 $ebp = $eip $T0 4 + ^ = $ebp $T0 ^ = $esp $T0 8 + =  $20 $T0 244 - ^ =  $23 $T0 248 - ^ = 
STACK WIN 4 109d6 384 0 0 4 c f0 0 1 $T0 $ebp = $eip $T0 4 + ^ = $ebp $T0 ^ = $esp $T0 8 + =  $20 $T0 244 - ^ =  $23 $T0 248 - ^ =  $24 $T0 252 - ^ = 
STACK WIN 4 10e43 d4 f 0 4 0 18 0 1 $T0 $ebp = $eip $T0 4 + ^ = $ebp $T0 ^ = $esp $T0 8 + = 
STACK WIN 4 10e4d c8 5 0 4 4 18 0 1 $T0 $ebp = $eip $T0 4 + ^ = $ebp $T0 ^ = $esp $T0 8 + =  $20 $T0 28 - ^ = 
STACK WIN 4 10e4e c6 4 0 4 8 18 0 1 $T0 $ebp = $eip $T0 4 + ^ = $ebp $T0 ^ = $esp $T0 8 + =  $20 $T0 28 - ^ =  $23 $T0 32 - ^ = 
STACK WIN 4 10e52 bf 0 0 4 c 18 0 1 $T0 $ebp = $eip $T0 4 + ^ = $ebp $T0 ^ = $esp $T0 8 + =  $20 $T0 28 - ^ =  $23 $T0 32 - ^ =  $24 $T0 36 - ^ = 
STACK WIN 4 10f4c 51 5 0 4 0 8 0 1 $T0 $ebp = $eip $T0 4 + ^ = $ebp $T0 ^ = $esp $T0 8 + = 
STACK WIN 4 10fb1 11 3 0 4 0 0 0 1 $T0 $ebp = $eip $T0 4 + ^ = $ebp $T0 ^ = $esp $T0 8 + = 
STACK WIN 4 10fc6 2d 4 0 8 0 0 0 1 $T0 $ebp = $eip $T0 4 + ^ = $ebp $T0 ^ = $esp $T0 8 + = 
STACK WIN 4 10fca 25 0 0 8 4 0 0 1 $T0 $ebp = $eip $T0 4 + ^ = $ebp $T0 ^ = $esp $T0 8 + =  $24 $T0 4 - ^ = 
STACK WIN 4 10fd8 16 0 0 8 8 0 0 1 $T0 $ebp = $eip $T0 4 + ^ = $ebp $T0 ^ = $esp $T0 8 + =  $24 $T0 4 - ^ =  $23 $T0 8 - ^ = 
STACK WIN 4 10ffe 56 6 0 8 0 0 0 1 $T0 $ebp = $eip $T0 4 + ^ = $ebp $T0 ^ = $esp $T0 8 + = 
STACK WIN 4 11002 4e 2 0 8 4 0 0 1 $T0 $ebp = $eip $T0 4 + ^ = $ebp $T0 ^ = $esp $T0 8 + =  $20 $T0 4 - ^ = 
STACK WIN 4 11005 4a 0 0 8 8 0 0 1 $T0 $ebp = $eip $T0 4 + ^ = $ebp $T0 ^ = $esp $T0 8 + =  $20 $T0 4 - ^ =  $23 $T0 8 - ^ = 
STACK WIN 4 11009 43 0 0 8 c 0 0 1 $T0 $ebp = $eip $T0 4 + ^ = $ebp $T0 ^ = $esp $T0 8 + =  $20 $T0 4 - ^ =  $23 $T0 8 - ^ =  $24 $T0 12 - ^ = 
STACK WIN 4 11069 27 3 0 8 0 0 0 1 $T0 $ebp = $eip $T0 4 + ^ = $ebp $T0 ^ = $esp $T0 8 + = 
STACK WIN 4 11099 15 3 0 8 0 0 0 1 $T0 $ebp = $eip $T0 4 + ^ = $ebp $T0 ^ = $esp $T0 8 + = 
STACK WIN 4 110b3 17 3 0 8 0 0 0 1 $T0 $ebp = $eip $T0 4 + ^ = $ebp $T0 ^ = $esp $T0 8 + = 
STACK WIN 4 110cf 46 7 0 8 0 0 0 1 $T0 $ebp = $eip $T0 4 + ^ = $ebp $T0 ^ = $esp $T0 8 + = 
STACK WIN 4 110d3 3e 3 0 8 4 0 0 1 $T0 $ebp = $eip $T0 4 + ^ = $ebp $T0 ^ = $esp $T0 8 + =  $20 $T0 4 - ^ = 
STACK WIN 4 110d4 3c 2 0 8 8 0 0 1 $T0 $ebp = $eip $T0 4 + ^ = $ebp $T0 ^ = $esp $T0 8 + =  $20 $T0 4 - ^ =  $23 $T0 8 - ^ = 
STACK WIN 4 110d7 38 0 0 8 c 0 0 1 $T0 $ebp = $eip $T0 4 + ^ = $ebp $T0 ^ = $esp $T0 8 + =  $20 $T0 4 - ^ =  $23 $T0 8 - ^ =  $24 $T0 12 - ^ = 
STACK WIN 4 11126 1b 3 0 8 0 0 0 1 $T0 $ebp = $eip $T0 4 + ^ = $ebp $T0 ^ = $esp $T0 8 + = 
STACK WIN 4 11147 b0 6 0 c 0 10 0 1 $T0 $ebp = $eip $T0 4 + ^ = $ebp $T0 ^ = $esp $T0 8 + = 
STACK WIN 4 11223 37 3 0 10 0 0 0 1 $T0 $ebp = $eip $T0 4 + ^ = $ebp $T0 ^ = $esp $T0 8 + = 
STACK WIN 4 1123c 19 0 0 10 4 0 0 1 $T0 $ebp = $eip $T0 4 + ^ = $ebp $T0 ^ = $esp $T0 8 + =  $20 $T0 4 - ^ = 
STACK WIN 4 1123d 17 0 0 10 8 0 0 1 $T0 $ebp = $eip $T0 4 + ^ = $ebp $T0 ^ = $esp $T0 8 + =  $20 $T0 4 - ^ =  $23 $T0 8 - ^ = 
STACK WIN 4 1123e 15 0 0 10 c 0 0 1 $T0 $ebp = $eip $T0 4 + ^ = $ebp $T0 ^ = $esp $T0 8 + =  $20 $T0 4 - ^ =  $23 $T0 8 - ^ =  $24 $T0 12 - ^ = 
STACK WIN 4 11267 48 3 0 4 0 0 0 1 $T0 $ebp = $eip $T0 4 + ^ = $ebp $T0 ^ = $esp $T0 8 + = 
STACK WIN 4 112c1 29d 12 0 4 0 78 0 1 $T0 $ebp = $eip $T0 4 + ^ = $ebp $T0 ^ = $esp $T0 8 + = 
STACK WIN 4 112d2 285 1 0 4 4 78 0 1 $T0 $ebp = $eip $T0 4 + ^ = $ebp $T0 ^ = $esp $T0 8 + =  $20 $T0 124 - ^ = 
STACK WIN 4 112d3 27b 0 0 4 8 78 0 1 $T0 $ebp = $eip $T0 4 + ^ = $ebp $T0 ^ = $esp $T0 8 + =  $20 $T0 124 - ^ =  $24 $T0 128 - ^ = 
STACK WIN 4 112f8 250 0 0 4 c 78 0 1 $T0 $ebp = $eip $T0 4 + ^ = $ebp $T0 ^ = $esp $T0 8 + =  $20 $T0 124 - ^ =  $24 $T0 128 - ^ =  $23 $T0 132 - ^ = 
STACK WIN 4 11605 332 21 0 4 0 94 0 1 $T0 $ebp = $eip $T0 4 + ^ = $ebp $T0 ^ = $esp $T0 8 + = 
STACK WIN 4 1161e 227 8 0 4 4 94 0 1 $T0 $ebp = $eip $T0 4 + ^ = $ebp $T0 ^ = $esp $T0 8 + =  $20 $T0 152 - ^ = 
STACK WIN 4 11622 220 4 0 4 8 94 0 1 $T0 $ebp = $eip $T0 4 + ^ = $ebp $T0 ^ = $esp $T0 8 + =  $20 $T0 152 - ^ =  $23 $T0 156 - ^ = 
STACK WIN 4 11626 21b 0 0 4 c 94 0 1 $T0 $ebp = $eip $T0 4 + ^ = $ebp $T0 ^ = $esp $T0 8 + =  $20 $T0 152 - ^ =  $23 $T0 156 - ^ =  $24 $T0 160 - ^ = 
STACK WIN 4 11a03 162 e 0 8 0 b0 0 1 $T0 $ebp = $eip $T0 4 + ^ = $ebp $T0 ^ = $esp $T0 8 + = 
STACK WIN 4 11a49 102 0 0 8 4 b0 0 1 $T0 $ebp = $eip $T0 4 + ^ = $ebp $T0 ^ = $esp $T0 8 + =  $20 $T0 180 - ^ = 
STACK WIN 4 11a57 f3 0 0 8 8 b0 0 1 $T0 $ebp = $eip $T0 4 + ^ = $ebp $T0 ^ = $esp $T0 8 + =  $20 $T0 180 - ^ =  $24 $T0 184 - ^ = 
STACK WIN 4 11acb 34 0 0 8 c b0 0 1 $T0 $ebp = $eip $T0 4 + ^ = $ebp $T0 ^ = $esp $T0 8 + =  $20 $T0 180 - ^ =  $24 $T0 184 - ^ =  $23 $T0 188 - ^ = 
STACK WIN 4 11bbd 33 6 0 4 0 10 0 1 $T0 $ebp = $eip $T0 4 + ^ = $ebp $T0 ^ = $esp $T0 8 + = 
STACK WIN 4 11bfc 23 3 0 4 0 0 0 1 $T0 $ebp = $eip $T0 4 + ^ = $ebp $T0 ^ = $esp $T0 8 + = 
STACK WIN 4 11c27 328 9 0 0 0 0 0 1 $T0 .raSearch = $eip $T0 ^ = $esp $T0 4 + = 
STACK WIN 4 11c2e 2fb 2 0 0 4 0 0 1 $T0 .raSearch = $eip $T0 ^ = $esp $T0 4 + =  $20 $T0 4 - ^ = 
STACK WIN 4 11c2f 2f9 1 0 0 8 0 0 1 $T0 .raSearch = $eip $T0 ^ = $esp $T0 4 + =  $20 $T0 4 - ^ =  $23 $T0 8 - ^ = 
STACK WIN 4 11c30 2f7 0 0 0 c 0 0 1 $T0 .raSearch = $eip $T0 ^ = $esp $T0 4 + =  $20 $T0 4 - ^ =  $23 $T0 8 - ^ =  $24 $T0 12 - ^ = 
STACK WIN 4 12019 c4 6 0 8 0 10 0 1 $T0 $ebp = $eip $T0 4 + ^ = $ebp $T0 ^ = $esp $T0 8 + = 
STACK WIN 4 12075 64 0 0 8 4 10 0 1 $T0 $ebp = $eip $T0 4 + ^ = $ebp $T0 ^ = $esp $T0 8 + =  $23 $T0 20 - ^ = 
STACK WIN 4 12079 5d 0 0 8 8 10 0 1 $T0 $ebp = $eip $T0 4 + ^ = $ebp $T0 ^ = $esp $T0 8 + =  $23 $T0 20 - ^ =  $24 $T0 24 - ^ = 
STACK WIN 4 1210e 47 3 0 4 0 0 0 1 $T0 $ebp = $eip $T0 4 + ^ = $ebp $T0 ^ = $esp $T0 8 + = 
STACK WIN 4 12166 15 3 0 8 0 0 0 1 $T0 $ebp = $eip $T0 4 + ^ = $ebp $T0 ^ = $esp $T0 8 + = 
STACK WIN 4 12180 54 9 0 8 0 8 0 1 $T0 $ebp = $eip $T0 4 + ^ = $ebp $T0 ^ = $esp $T0 8 + = 
STACK WIN 4 12189 49 0 0 8 4 8 0 1 $T0 $ebp = $eip $T0 4 + ^ = $ebp $T0 ^ = $esp $T0 8 + =  $23 $T0 12 - ^ = 
STACK WIN 4 121e9 163 c 0 8 0 20 0 1 $T0 $ebp = $eip $T0 4 + ^ = $ebp $T0 ^ = $esp $T0 8 + = 
STACK WIN 4 121f5 155 0 0 8 4 20 0 1 $T0 $ebp = $eip $T0 4 + ^ = $ebp $T0 ^ = $esp $T0 8 + =  $24 $T0 36 - ^ = 
STACK WIN 4 1225d 9b 0 0 8 8 20 0 1 $T0 $ebp = $eip $T0 4 + ^ = $ebp $T0 ^ = $esp $T0 8 + =  $24 $T0 36 - ^ =  $20 $T0 40 - ^ = 
STACK WIN 4 1225e 99 0 0 8 c 20 0 1 $T0 $ebp = $eip $T0 4 + ^ = $ebp $T0 ^ = $esp $T0 8 + =  $24 $T0 36 - ^ =  $20 $T0 40 - ^ =  $23 $T0 44 - ^ = 
STACK WIN 4 123a4 1ff 18 0 c 0 40 0 1 $T0 $ebp = $eip $T0 4 + ^ = $ebp $T0 ^ = $esp $T0 8 + = 
STACK WIN 4 123b5 1e7 7 0 c 4 40 0 1 $T0 $ebp = $eip $T0 4 + ^ = $ebp $T0 ^ = $esp $T0 8 + =  $23 $T0 68 - ^ = 
STACK WIN 4 123bc 1dd 0 0 c 8 40 0 1 $T0 $ebp = $eip $T0 4 + ^ = $ebp $T0 ^ = $esp $T0 8 + =  $23 $T0 68 - ^ =  $24 $T0 72 - ^ = 
STACK WIN 4 1243f 12f 0 0 c c 40 0 1 $T0 $ebp = $eip $T0 4 + ^ = $ebp $T0 ^ = $esp $T0 8 + =  $23 $T0 68 - ^ =  $24 $T0 72 - ^ =  $20 $T0 76 - ^ = 
STACK WIN 4 12622 b 0 0 0 0 0 0 1 $T0 .raSearch = $eip $T0 ^ = $esp $T0 4 + = 
STACK WIN 4 1262f a 0 0 0 0 0 0 1 $T0 .raSearch = $eip $T0 ^ = $esp $T0 4 + = 
STACK WIN 4 1263b a 0 0 0 0 0 0 1 $T0 .raSearch = $eip $T0 ^ = $esp $T0 4 + = 
STACK WIN 4 12647 8 0 0 0 0 0 0 1 $T0 .raSearch = $eip $T0 ^ = $esp $T0 4 + = 
STACK WIN 4 12651 9 0 0 0 0 0 0 1 $T0 .raSearch = $eip $T0 ^ = $esp $T0 4 + = 
STACK WIN 4 1265c a 0 0 0 0 0 0 1 $T0 .raSearch = $eip $T0 ^ = $esp $T0 4 + = 
STACK WIN 4 12668 a 0 0 0 0 0 0 1 $T0 .raSearch = $eip $T0 ^ = $esp $T0 4 + = 
STACK WIN 4 12674 a 0 0 0 0 0 0 1 $T0 .raSearch = $eip $T0 ^ = $esp $T0 4 + = 
STACK WIN 4 12680 11 0 0 0 0 0 0 1 $T0 .raSearch = $eip $T0 ^ = $esp $T0 4 + = 
STACK WIN 4 12695 11 0 0 0 0 0 0 1 $T0 .raSearch = $eip $T0 ^ = $esp $T0 4 + = 
STACK WIN 4 126aa a 0 0 0 0 0 0 1 $T0 .raSearch = $eip $T0 ^ = $esp $T0 4 + = 
STACK WIN 4 126b6 a 0 0 0 0 0 0 1 $T0 .raSearch = $eip $T0 ^ = $esp $T0 4 + = 
STACK WIN 4 126c2 1f 1 0 0 0 0 0 1 $T0 .raSearch = $eip $T0 ^ = $esp $T0 4 + = 
STACK WIN 4 126c3 1d 0 0 0 4 0 0 1 $T0 .raSearch = $eip $T0 ^ = $esp $T0 4 + =  $24 $T0 4 - ^ = 
STACK WIN 4 126d0 f 0 0 0 8 0 0 1 $T0 .raSearch = $eip $T0 ^ = $esp $T0 4 + =  $24 $T0 4 - ^ =  $23 $T0 8 - ^ = 
STACK WIN 4 126e8 4 0 0 0 0 0 0 1 $T0 .raSearch = $eip $T0 ^ = $esp $T0 4 + = 
STACK WIN 4 126ec 4 0 0 0 0 0 0 1 $T0 .raSearch = $eip $T0 ^ = $esp $T0 4 + = 
STACK WIN 4 126f0 e 0 0 0 0 0 0 1 $T0 .raSearch = $eip $T0 ^ = $esp $T0 4 + = 
STACK WIN 4 12701 46 a 0 0 0 4 0 1 $T0 $ebp = $eip $T0 4 + ^ = $ebp $T0 ^ = $esp $T0 8 + = 
STACK WIN 4 12710 32 0 0 0 4 4 0 1 $T0 $ebp = $eip $T0 4 + ^ = $ebp $T0 ^ = $esp $T0 8 + =  $20 $T0 8 - ^ = 
STACK WIN 4 12714 2d 0 0 0 8 4 0 1 $T0 $ebp = $eip $T0 4 + ^ = $ebp $T0 ^ = $esp $T0 8 + =  $20 $T0 8 - ^ =  $23 $T0 12 - ^ = 
STACK WIN 4 12715 2b 0 0 0 c 4 0 1 $T0 $ebp = $eip $T0 4 + ^ = $ebp $T0 ^ = $esp $T0 8 + =  $20 $T0 8 - ^ =  $23 $T0 12 - ^ =  $24 $T0 16 - ^ = 
STACK WIN 4 12758 4 0 0 0 0 0 0 1 $T0 .raSearch = $eip $T0 ^ = $esp $T0 4 + = 
STACK WIN 4 1275c 1c 3 0 4 0 0 0 1 $T0 $ebp = $eip $T0 4 + ^ = $ebp $T0 ^ = $esp $T0 8 + = 
STACK WIN 4 1277f ee e 0 4 0 18 0 1 $T0 $ebp = $eip $T0 4 + ^ = $ebp $T0 ^ = $esp $T0 8 + = 
STACK WIN 4 1278d de 0 0 4 4 18 0 1 $T0 $ebp = $eip $T0 4 + ^ = $ebp $T0 ^ = $esp $T0 8 + =  $24 $T0 28 - ^ = 
STACK WIN 4 127b9 2f 0 0 4 8 18 0 1 $T0 $ebp = $eip $T0 4 + ^ = $ebp $T0 ^ = $esp $T0 8 + =  $24 $T0 28 - ^ =  $23 $T0 32 - ^ = 
STACK WIN 4 128a8 8 0 0 0 0 0 0 1 $T0 .raSearch = $eip $T0 ^ = $esp $T0 4 + = 
STACK WIN 4 128b2 8 0 0 0 0 0 0 1 $T0 .raSearch = $eip $T0 ^ = $esp $T0 4 + = 
STACK WIN 4 128bc 8 0 0 0 0 0 0 1 $T0 .raSearch = $eip $T0 ^ = $esp $T0 4 + = 
STACK WIN 4 128c6 8 0 0 0 0 0 0 1 $T0 .raSearch = $eip $T0 ^ = $esp $T0 4 + = 
STACK WIN 4 128d0 d 0 0 0 0 0 0 1 $T0 .raSearch = $eip $T0 ^ = $esp $T0 4 + = 
STACK WIN 4 128e0 8 0 0 0 0 0 0 1 $T0 .raSearch = $eip $T0 ^ = $esp $T0 4 + = 
STACK WIN 4 128ea a 0 0 0 0 0 0 1 $T0 .raSearch = $eip $T0 ^ = $esp $T0 4 + = 
STACK WIN 4 128f6 5 0 0 0 0 0 0 1 $T0 .raSearch = $eip $T0 ^ = $esp $T0 4 + = 
STACK WIN 4 128fb 21 3 0 c 0 0 0 1 $T0 $ebp = $eip $T0 4 + ^ = $ebp $T0 ^ = $esp $T0 8 + = 
STACK WIN 4 12909 11 0 0 c 4 0 0 1 $T0 $ebp = $eip $T0 4 + ^ = $ebp $T0 ^ = $esp $T0 8 + =  $23 $T0 4 - ^ = 
STACK WIN 4 12924 15 3 0 4 0 0 0 1 $T0 $ebp = $eip $T0 4 + ^ = $ebp $T0 ^ = $esp $T0 8 + = 
STACK WIN 4 1293e 31 3 0 c 0 0 0 1 $T0 $ebp = $eip $T0 4 + ^ = $ebp $T0 ^ = $esp $T0 8 + = 
STACK WIN 4 12951 1c 0 0 c 4 0 0 1 $T0 $ebp = $eip $T0 4 + ^ = $ebp $T0 ^ = $esp $T0 8 + =  $20 $T0 4 - ^ = 
STACK WIN 4 1297b 23 3 0 18 0 0 0 1 $T0 $ebp = $eip $T0 4 + ^ = $ebp $T0 ^ = $esp $T0 8 + = 
STACK WIN 4 129a6 9f c 0 1c 10 74 0 1 $T0 $ebp = $eip $T0 4 + ^ = $ebp $T0 ^ = $esp $T0 8 + =  $20 $T0 120 - ^ =  $23 $T0 124 - ^ =  $24 $T0 128 - ^ = 
STACK WIN 4 12a38 c 0 0 1c 10 74 0 1 $T0 $ebp = $T2 $esp = $T1 .raSearchStart = $eip $T1 ^ = $ebp $T0 = $esp $T1 4 + = 
STACK WIN 4 12a6c 2d 3 0 14 0 0 0 1 $T0 $ebp = $eip $T0 4 + ^ = $ebp $T0 ^ = $esp $T0 8 + = 
STACK WIN 4 12aa4 1c 3 0 c 0 0 0 1 $T0 $ebp = $eip $T0 4 + ^ = $ebp $T0 ^ = $esp $T0 8 + = 
STACK WIN 4 12ac7 5c 9 0 18 0 58 0 1 $T0 $ebp = $eip $T0 4 + ^ = $ebp $T0 ^ = $esp $T0 8 + = 
STACK WIN 4 12ad7 4a 0 0 18 4 58 0 1 $T0 $ebp = $eip $T0 4 + ^ = $ebp $T0 ^ = $esp $T0 8 + =  $23 $T0 92 - ^ = 
STACK WIN 4 12b3a 10 3 0 4 0 0 0 1 $T0 $ebp = $eip $T0 4 + ^ = $ebp $T0 ^ = $esp $T0 8 + = 
STACK WIN 4 12b4e e 3 0 4 0 0 0 1 $T0 $ebp = $eip $T0 4 + ^ = $ebp $T0 ^ = $esp $T0 8 + = 
STACK WIN 4 12b5f f 3 0 0 0 0 0 1 $T0 .raSearch = $eip $T0 ^ = $esp $T0 4 + = 
STACK WIN 4 12b60 d 2 0 0 4 0 0 1 $T0 .raSearch = $eip $T0 ^ = $esp $T0 4 + =  $23 $T0 4 - ^ = 
STACK WIN 4 12b71 10 3 0 0 0 0 0 1 $T0 .raSearch = $eip $T0 ^ = $esp $T0 4 + = 
STACK WIN 4 12b72 e 2 0 0 4 0 0 1 $T0 .raSearch = $eip $T0 ^ = $esp $T0 4 + =  $23 $T0 4 - ^ = 
STACK WIN 4 12b85 9 0 0 0 0 0 0 1 $T0 .raSearch = $eip $T0 ^ = $esp $T0 4 + = 
STACK WIN 4 12b90 7 0 0 0 0 0 0 1 $T0 .raSearch = $eip $T0 ^ = $esp $T0 4 + = 
STACK WIN 4 12b97 6 0 0 0 0 0 0 1 $T0 .raSearch = $eip $T0 ^ = $esp $T0 4 + = 
STACK WIN 4 12b9d 3 0 0 0 0 0 0 1 $T0 .raSearch = $eip $T0 ^ = $esp $T0 4 + = 
STACK WIN 4 12ba0 7 0 0 0 0 0 0 1 $T0 .raSearch = $eip $T0 ^ = $esp $T0 4 + = 
STACK WIN 4 12ba7 10 3 0 0 0 0 0 1 $T0 .raSearch = $eip $T0 ^ = $esp $T0 4 + = 
STACK WIN 4 12ba8 e 2 0 0 4 0 0 1 $T0 .raSearch = $eip $T0 ^ = $esp $T0 4 + =  $23 $T0 4 - ^ = 
STACK WIN 4 12bbb 1a 3 0 4 0 0 0 1 $T0 $ebp = $eip $T0 4 + ^ = $ebp $T0 ^ = $esp $T0 8 + = 
STACK WIN 4 12bdb 1c 3 0 4 0 0 0 1 $T0 $ebp = $eip $T0 4 + ^ = $ebp $T0 ^ = $esp $T0 8 + = 
STACK WIN 4 12bfe 36 3 0 4 0 0 0 1 $T0 $ebp = $eip $T0 4 + ^ = $ebp $T0 ^ = $esp $T0 8 + = 
STACK WIN 4 12c0c 26 0 0 4 4 0 0 1 $T0 $ebp = $eip $T0 4 + ^ = $ebp $T0 ^ = $esp $T0 8 + =  $23 $T0 4 - ^ = 
STACK WIN 4 12c41 e 0 0 0 0 0 0 1 $T0 .raSearch = $eip $T0 ^ = $esp $T0 4 + = 
STACK WIN 4 12c52 92 0 0 0 0 0 0 1 $T0 .raSearch = $eip $T0 ^ = $esp $T0 4 + = 
STACK WIN 4 12c5f 84 0 0 0 4 0 0 1 $T0 .raSearch = $eip $T0 ^ = $esp $T0 4 + =  $20 $T0 4 - ^ = 
STACK WIN 4 12c60 80 0 0 0 8 0 0 1 $T0 .raSearch = $eip $T0 ^ = $esp $T0 4 + =  $20 $T0 4 - ^ =  $24 $T0 8 - ^ = 
STACK WIN 4 12c97 41 0 0 0 c 0 0 1 $T0 .raSearch = $eip $T0 ^ = $esp $T0 4 + =  $20 $T0 4 - ^ =  $24 $T0 8 - ^ =  $23 $T0 12 - ^ = 
STACK WIN 4 12d08 37 0 0 0 0 0 0 1 $T0 .raSearch = $eip $T0 ^ = $esp $T0 4 + = 
STACK WIN 4 12d15 29 0 0 0 4 0 0 1 $T0 .raSearch = $eip $T0 ^ = $esp $T0 4 + =  $23 $T0 4 - ^ = 
STACK WIN 4 12d16 27 0 0 0 8 0 0 1 $T0 .raSearch = $eip $T0 ^ = $esp $T0 4 + =  $23 $T0 4 - ^ =  $24 $T0 8 - ^ = 
STACK WIN 4 12d4c 33 0 0 0 0 0 0 1 $T0 .raSearch = $eip $T0 ^ = $esp $T0 4 + = 
STACK WIN 4 12d8b 1b 0 0 0 0 0 0 1 $T0 .raSearch = $eip $T0 ^ = $esp $T0 4 + = 
STACK WIN 4 12dac 3c 2 0 0 0 0 0 1 $T0 .raSearch = $eip $T0 ^ = $esp $T0 4 + = 
STACK WIN 4 12dad 3a 1 0 0 4 0 0 1 $T0 .raSearch = $eip $T0 ^ = $esp $T0 4 + =  $23 $T0 4 - ^ = 
STACK WIN 4 12dae 38 0 0 0 8 0 0 1 $T0 .raSearch = $eip $T0 ^ = $esp $T0 4 + =  $23 $T0 4 - ^ =  $24 $T0 8 - ^ = 
STACK WIN 4 12df7 15 3 0 4 0 0 0 1 $T0 $ebp = $eip $T0 4 + ^ = $ebp $T0 ^ = $esp $T0 8 + = 
STACK WIN 4 12e11 2f 1 0 0 0 0 0 1 $T0 .raSearch = $eip $T0 ^ = $esp $T0 4 + = 
STACK WIN 4 12e12 2d 0 0 0 4 0 0 1 $T0 .raSearch = $eip $T0 ^ = $esp $T0 4 + =  $23 $T0 4 - ^ = 
STACK WIN 4 12e20 1c 0 0 0 8 0 0 1 $T0 .raSearch = $eip $T0 ^ = $esp $T0 4 + =  $23 $T0 4 - ^ =  $24 $T0 8 - ^ = 
STACK WIN 4 12e4b 15 3 0 4 0 0 0 1 $T0 $ebp = $eip $T0 4 + ^ = $ebp $T0 ^ = $esp $T0 8 + = 
STACK WIN 4 12e65 6 0 0 0 0 0 0 1 $T0 .raSearch = $eip $T0 ^ = $esp $T0 4 + = 
STACK WIN 4 12e6b 14 3 0 4 0 0 0 1 $T0 $ebp = $eip $T0 4 + ^ = $ebp $T0 ^ = $esp $T0 8 + = 
STACK WIN 4 12e84 1d 3 0 4 0 0 0 1 $T0 $ebp = $eip $T0 4 + ^ = $ebp $T0 ^ = $esp $T0 8 + = 
STACK WIN 4 12ea8 d 3 0 8 0 0 0 1 $T0 $ebp = $eip $T0 4 + ^ = $ebp $T0 ^ = $esp $T0 8 + = 
STACK WIN 4 12eb8 d 3 0 8 0 0 0 1 $T0 $ebp = $eip $T0 4 + ^ = $ebp $T0 ^ = $esp $T0 8 + = 
STACK WIN 4 12ec8 d 3 0 8 0 0 0 1 $T0 $ebp = $eip $T0 4 + ^ = $ebp $T0 ^ = $esp $T0 8 + = 
STACK WIN 4 12ed8 a 3 0 4 0 0 0 1 $T0 $ebp = $eip $T0 4 + ^ = $ebp $T0 ^ = $esp $T0 8 + = 
STACK WIN 4 12ee4 a 3 0 4 0 0 0 1 $T0 $ebp = $eip $T0 4 + ^ = $ebp $T0 ^ = $esp $T0 8 + = 
STACK WIN 4 12ef0 9 4 0 4 0 4 0 1 $T0 $ebp = $eip $T0 4 + ^ = $ebp $T0 ^ = $esp $T0 8 + = 
STACK WIN 4 12efb 4 0 0 0 0 0 0 1 $T0 .raSearch = $eip $T0 ^ = $esp $T0 4 + = 
STACK WIN 4 12eff 1a 0 0 0 0 0 0 1 $T0 .raSearch = $eip $T0 ^ = $esp $T0 4 + = 
STACK WIN 4 12f1f 1a 0 0 0 0 0 0 1 $T0 .raSearch = $eip $T0 ^ = $esp $T0 4 + = 
STACK WIN 4 12f3f 1a 0 0 0 0 0 0 1 $T0 .raSearch = $eip $T0 ^ = $esp $T0 4 + = 
STACK WIN 4 12f5f 1a 0 0 0 0 0 0 1 $T0 .raSearch = $eip $T0 ^ = $esp $T0 4 + = 
STACK WIN 4 12f7f 1a 0 0 0 0 0 0 1 $T0 .raSearch = $eip $T0 ^ = $esp $T0 4 + = 
STACK WIN 4 12f9f c4 7 0 8 0 4 0 1 $T0 $ebp = $eip $T0 4 + ^ = $ebp $T0 ^ = $esp $T0 8 + = 
STACK WIN 4 12fa4 b9 2 0 8 4 4 0 1 $T0 $ebp = $eip $T0 4 + ^ = $ebp $T0 ^ = $esp $T0 8 + =  $20 $T0 8 - ^ = 
STACK WIN 4 12fa5 b7 1 0 8 8 4 0 1 $T0 $ebp = $eip $T0 4 + ^ = $ebp $T0 ^ = $esp $T0 8 + =  $20 $T0 8 - ^ =  $23 $T0 12 - ^ = 
STACK WIN 4 12fa6 b5 0 0 8 c 4 0 1 $T0 $ebp = $eip $T0 4 + ^ = $ebp $T0 ^ = $esp $T0 8 + =  $20 $T0 8 - ^ =  $23 $T0 12 - ^ =  $24 $T0 16 - ^ = 
STACK WIN 4 13094 6f 7 0 10 0 0 0 1 $T0 $ebp = $eip $T0 4 + ^ = $ebp $T0 ^ = $esp $T0 8 + = 
STACK WIN 4 1309b 66 0 0 10 4 0 0 1 $T0 $ebp = $eip $T0 4 + ^ = $ebp $T0 ^ = $esp $T0 8 + =  $24 $T0 4 - ^ = 
STACK WIN 4 130c5 3b 0 0 10 8 0 0 1 $T0 $ebp = $eip $T0 4 + ^ = $ebp $T0 ^ = $esp $T0 8 + =  $24 $T0 4 - ^ =  $23 $T0 8 - ^ = 
STACK WIN 4 1311e 4f 7 0 4 0 0 0 1 $T0 $ebp = $eip $T0 4 + ^ = $ebp $T0 ^ = $esp $T0 8 + = 
STACK WIN 4 13125 46 0 0 4 4 0 0 1 $T0 $ebp = $eip $T0 4 + ^ = $ebp $T0 ^ = $esp $T0 8 + =  $24 $T0 4 - ^ = 
STACK WIN 4 1313e 2c 0 0 4 8 0 0 1 $T0 $ebp = $eip $T0 4 + ^ = $ebp $T0 ^ = $esp $T0 8 + =  $24 $T0 4 - ^ =  $23 $T0 8 - ^ = 
STACK WIN 4 13180 22 3 0 c 0 0 0 1 $T0 $ebp = $eip $T0 4 + ^ = $ebp $T0 ^ = $esp $T0 8 + = 
STACK WIN 4 131aa 61 3 0 4 0 0 0 1 $T0 $ebp = $eip $T0 4 + ^ = $ebp $T0 ^ = $esp $T0 8 + = 
STACK WIN 4 13223 3b 4 0 4 0 0 0 1 $T0 $ebp = $eip $T0 4 + ^ = $ebp $T0 ^ = $esp $T0 8 + = 
STACK WIN 4 13227 30 0 0 4 4 0 0 1 $T0 $ebp = $eip $T0 4 + ^ = $ebp $T0 ^ = $esp $T0 8 + =  $23 $T0 4 - ^ = 
STACK WIN 4 1326c 3b 4 0 4 0 0 0 1 $T0 $ebp = $eip $T0 4 + ^ = $ebp $T0 ^ = $esp $T0 8 + = 
STACK WIN 4 13270 35 0 0 4 4 0 0 1 $T0 $ebp = $eip $T0 4 + ^ = $ebp $T0 ^ = $esp $T0 8 + =  $23 $T0 4 - ^ = 
STACK WIN 4 132b5 3b 4 0 4 0 0 0 1 $T0 $ebp = $eip $T0 4 + ^ = $ebp $T0 ^ = $esp $T0 8 + = 
STACK WIN 4 132b9 35 0 0 4 4 0 0 1 $T0 $ebp = $eip $T0 4 + ^ = $ebp $T0 ^ = $esp $T0 8 + =  $23 $T0 4 - ^ = 
STACK WIN 4 132fe 3e 4 0 8 0 0 0 1 $T0 $ebp = $eip $T0 4 + ^ = $ebp $T0 ^ = $esp $T0 8 + = 
STACK WIN 4 13302 38 0 0 8 4 0 0 1 $T0 $ebp = $eip $T0 4 + ^ = $ebp $T0 ^ = $esp $T0 8 + =  $23 $T0 4 - ^ = 
STACK WIN 4 1334b 47 4 0 c 0 0 0 1 $T0 $ebp = $eip $T0 4 + ^ = $ebp $T0 ^ = $esp $T0 8 + = 
STACK WIN 4 1334f 41 0 0 c 4 0 0 1 $T0 $ebp = $eip $T0 4 + ^ = $ebp $T0 ^ = $esp $T0 8 + =  $23 $T0 4 - ^ = 
STACK WIN 4 133a3 29 f 0 0 0 0 0 1 $T0 .raSearch = $eip $T0 ^ = $esp $T0 4 + = 
STACK WIN 4 133b2 19 0 0 0 4 0 0 1 $T0 .raSearch = $eip $T0 ^ = $esp $T0 4 + =  $23 $T0 4 - ^ = 
STACK WIN 4 133d6 32 3 0 4 0 0 0 1 $T0 $ebp = $eip $T0 4 + ^ = $ebp $T0 ^ = $esp $T0 8 + = 
STACK WIN 4 133e0 26 0 0 4 4 0 0 1 $T0 $ebp = $eip $T0 4 + ^ = $ebp $T0 ^ = $esp $T0 8 + =  $23 $T0 4 - ^ = 
STACK WIN 4 13414 6 0 0 0 0 0 0 1 $T0 .raSearch = $eip $T0 ^ = $esp $T0 4 + = 
STACK WIN 4 1341a 1d 3 0 4 0 0 0 1 $T0 $ebp = $eip $T0 4 + ^ = $ebp $T0 ^ = $esp $T0 8 + = 
STACK WIN 4 1343e b 0 0 0 0 0 0 1 $T0 .raSearch = $eip $T0 ^ = $esp $T0 4 + = 
STACK WIN 4 135dd 14 3 0 4 0 0 0 1 $T0 $ebp = $eip $T0 4 + ^ = $ebp $T0 ^ = $esp $T0 8 + = 
STACK WIN 4 135f6 d 3 0 8 0 0 0 1 $T0 $ebp = $eip $T0 4 + ^ = $ebp $T0 ^ = $esp $T0 8 + = 
STACK WIN 4 13606 a 3 0 4 0 0 0 1 $T0 $ebp = $eip $T0 4 + ^ = $ebp $T0 ^ = $esp $T0 8 + = 
STACK WIN 4 13612 15 0 0 0 0 0 0 1 $T0 .raSearch = $eip $T0 ^ = $esp $T0 4 + = 
STACK WIN 4 1362c 1c 1 0 0 4 0 0 1 $T0 .raSearch = $eip $T0 ^ = $esp $T0 4 + =  $23 $T0 4 - ^ = 
STACK WIN 4 1364f 25 3 0 4 0 0 0 1 $T0 $ebp = $eip $T0 4 + ^ = $ebp $T0 ^ = $esp $T0 8 + = 
STACK WIN 4 1367d 24 3 0 8 0 0 0 1 $T0 $ebp = $eip $T0 4 + ^ = $ebp $T0 ^ = $esp $T0 8 + = 
STACK WIN 4 136aa 8 3 0 4 0 0 0 1 $T0 $ebp = $eip $T0 4 + ^ = $ebp $T0 ^ = $esp $T0 8 + = 
STACK WIN 4 136b4 14 3 0 8 0 0 0 1 $T0 $ebp = $eip $T0 4 + ^ = $ebp $T0 ^ = $esp $T0 8 + = 
STACK WIN 4 136cd 82 e 0 10 0 8 0 1 $T0 $ebp = $eip $T0 4 + ^ = $ebp $T0 ^ = $esp $T0 8 + = 
STACK WIN 4 136d3 74 8 0 10 4 8 0 1 $T0 $ebp = $eip $T0 4 + ^ = $ebp $T0 ^ = $esp $T0 8 + =  $20 $T0 12 - ^ = 
STACK WIN 4 136d7 64 4 0 10 8 8 0 1 $T0 $ebp = $eip $T0 4 + ^ = $ebp $T0 ^ = $esp $T0 8 + =  $20 $T0 12 - ^ =  $23 $T0 16 - ^ = 
STACK WIN 4 136db 5f 0 0 10 c 8 0 1 $T0 $ebp = $eip $T0 4 + ^ = $ebp $T0 ^ = $esp $T0 8 + =  $20 $T0 12 - ^ =  $23 $T0 16 - ^ =  $24 $T0 20 - ^ = 
STACK WIN 4 13749 6 0 0 10 c 8 0 1 $T0 $ebp = $eip $T0 4 + ^ = $ebp $T0 ^ = $esp $T0 8 + =  $20 $T0 12 - ^ =  $23 $T0 16 - ^ =  $24 $T0 20 - ^ = 
STACK WIN 4 1376f 5e 6 0 14 0 18 0 1 $T0 $ebp = $eip $T0 4 + ^ = $ebp $T0 ^ = $esp $T0 8 + = 
STACK WIN 4 137e4 db 7 0 1c 4 38 0 1 $T0 $ebp = $eip $T0 4 + ^ = $ebp $T0 ^ = $esp $T0 8 + =  $20 $T0 60 - ^ = 
STACK WIN 4 138f5 30 5 0 8 4 4 0 1 $T0 $ebp = $eip $T0 4 + ^ = $ebp $T0 ^ = $esp $T0 8 + =  $20 $T0 8 - ^ = 
STACK WIN 4 13931 53 8 0 8 c 8 0 1 $T0 $ebp = $eip $T0 4 + ^ = $ebp $T0 ^ = $esp $T0 8 + =  $20 $T0 12 - ^ =  $23 $T0 16 - ^ =  $24 $T0 20 - ^ = 
STACK WIN 4 13998 3 0 0 0 0 0 0 1 $T0 .raSearch = $eip $T0 ^ = $esp $T0 4 + = 
STACK WIN 4 1399b 31 4 0 10 0 0 0 1 $T0 $ebp = $eip $T0 4 + ^ = $ebp $T0 ^ = $esp $T0 8 + = 
STACK WIN 4 1399f 2b 0 0 10 4 0 0 1 $T0 $ebp = $eip $T0 4 + ^ = $ebp $T0 ^ = $esp $T0 8 + =  $23 $T0 4 - ^ = 
STACK WIN 4 139d8 24 7 0 8 0 0 0 1 $T0 $ebp = $eip $T0 4 + ^ = $ebp $T0 ^ = $esp $T0 8 + = 
STACK WIN 4 139df 1b 0 0 8 4 0 0 1 $T0 $ebp = $eip $T0 4 + ^ = $ebp $T0 ^ = $esp $T0 8 + =  $23 $T0 4 - ^ = 
STACK WIN 4 13a05 45 4 0 4 0 0 0 1 $T0 $ebp = $eip $T0 4 + ^ = $ebp $T0 ^ = $esp $T0 8 + = 
STACK WIN 4 13a09 13 0 0 4 4 0 0 1 $T0 $ebp = $eip $T0 4 + ^ = $ebp $T0 ^ = $esp $T0 8 + =  $23 $T0 4 - ^ = 
STACK WIN 4 13a5b 9d 5 0 10 4 4 0 1 $T0 $ebp = $eip $T0 4 + ^ = $ebp $T0 ^ = $esp $T0 8 + =  $20 $T0 8 - ^ = 
STACK WIN 4 13b1f 36 0 0 10 0 0 0 1 $T0 .raSearch = $eip $T0 ^ = $esp $T0 4 + = 
STACK WIN 4 13b62 36 0 0 10 0 0 0 1 $T0 .raSearch = $eip $T0 ^ = $esp $T0 4 + = 
STACK WIN 4 13ba5 36 0 0 10 0 0 0 1 $T0 .raSearch = $eip $T0 ^ = $esp $T0 4 + = 
STACK WIN 4 13be8 25 4 0 4 0 0 0 1 $T0 $ebp = $eip $T0 4 + ^ = $ebp $T0 ^ = $esp $T0 8 + = 
STACK WIN 4 13bec 1d 0 0 4 4 0 0 1 $T0 $ebp = $eip $T0 4 + ^ = $ebp $T0 ^ = $esp $T0 8 + =  $23 $T0 4 - ^ = 
STACK WIN 4 142f1 13f c 0 10 10 20 0 1 $T0 $ebp = $eip $T0 4 + ^ = $ebp $T0 ^ = $esp $T0 8 + =  $20 $T0 36 - ^ =  $23 $T0 40 - ^ =  $24 $T0 44 - ^ = 
STACK WIN 4 1440f 4 0 0 10 10 20 0 1 $T0 $ebp = $T2 $esp = $T1 .raSearchStart = $eip $T1 ^ = $ebp $T0 = $esp $T1 4 + = 
STACK WIN 4 1447f 99 c 0 10 10 18 0 1 $T0 $ebp = $eip $T0 4 + ^ = $ebp $T0 ^ = $esp $T0 8 + =  $20 $T0 28 - ^ =  $23 $T0 32 - ^ =  $24 $T0 36 - ^ = 
STACK WIN 4 1450b 4 0 0 10 10 18 0 1 $T0 $ebp = $T2 $esp = $T1 .raSearchStart = $eip $T1 ^ = $ebp $T0 = $esp $T1 4 + = 
STACK WIN 4 1453e 80 d 0 2c 0 0 0 1 $T0 $ebp = $eip $T0 4 + ^ = $ebp $T0 ^ = $esp $T0 8 + = 
STACK WIN 4 14546 76 5 0 2c 4 0 0 1 $T0 $ebp = $eip $T0 4 + ^ = $ebp $T0 ^ = $esp $T0 8 + =  $20 $T0 4 - ^ = 
STACK WIN 4 1454a 71 1 0 2c 8 0 0 1 $T0 $ebp = $eip $T0 4 + ^ = $ebp $T0 ^ = $esp $T0 8 + =  $20 $T0 4 - ^ =  $23 $T0 8 - ^ = 
STACK WIN 4 1454b 6f 0 0 2c c 0 0 1 $T0 $ebp = $eip $T0 4 + ^ = $ebp $T0 ^ = $esp $T0 8 + =  $20 $T0 4 - ^ =  $23 $T0 8 - ^ =  $24 $T0 12 - ^ = 
STACK WIN 4 145de 38e 9 0 20 0 54 0 1 $T0 $ebp = $eip $T0 4 + ^ = $ebp $T0 ^ = $esp $T0 8 + = 
STACK WIN 4 145e5 320 2 0 20 4 54 0 1 $T0 $ebp = $eip $T0 4 + ^ = $ebp $T0 ^ = $esp $T0 8 + =  $20 $T0 88 - ^ = 
STACK WIN 4 145e6 31e 1 0 20 8 54 0 1 $T0 $ebp = $eip $T0 4 + ^ = $ebp $T0 ^ = $esp $T0 8 + =  $20 $T0 88 - ^ =  $23 $T0 92 - ^ = 
STACK WIN 4 145e7 31c 0 0 20 c 54 0 1 $T0 $ebp = $eip $T0 4 + ^ = $ebp $T0 ^ = $esp $T0 8 + =  $20 $T0 88 - ^ =  $23 $T0 92 - ^ =  $24 $T0 96 - ^ = 
STACK WIN 4 14a4f 111 7 0 20 0 20 0 1 $T0 $ebp = $eip $T0 4 + ^ = $ebp $T0 ^ = $esp $T0 8 + = 
STACK WIN 4 14a56 60 0 0 20 4 20 0 1 $T0 $ebp = $eip $T0 4 + ^ = $ebp $T0 ^ = $esp $T0 8 + =  $24 $T0 36 - ^ = 
STACK WIN 4 14a62 53 0 0 20 8 20 0 1 $T0 $ebp = $eip $T0 4 + ^ = $ebp $T0 ^ = $esp $T0 8 + =  $24 $T0 36 - ^ =  $20 $T0 40 - ^ = 
STACK WIN 4 14a63 51 0 0 20 c 20 0 1 $T0 $ebp = $eip $T0 4 + ^ = $ebp $T0 ^ = $esp $T0 8 + =  $24 $T0 36 - ^ =  $20 $T0 40 - ^ =  $23 $T0 44 - ^ = 
STACK WIN 4 14ba4 8e 9 0 c 0 0 0 1 $T0 $ebp = $eip $T0 4 + ^ = $ebp $T0 ^ = $esp $T0 8 + = 
STACK WIN 4 14bab 85 2 0 c 4 0 0 1 $T0 $ebp = $eip $T0 4 + ^ = $ebp $T0 ^ = $esp $T0 8 + =  $20 $T0 4 - ^ = 
STACK WIN 4 14bac 83 1 0 c 8 0 0 1 $T0 $ebp = $eip $T0 4 + ^ = $ebp $T0 ^ = $esp $T0 8 + =  $20 $T0 4 - ^ =  $23 $T0 8 - ^ = 
STACK WIN 4 14bad 81 0 0 c c 0 0 1 $T0 $ebp = $eip $T0 4 + ^ = $ebp $T0 ^ = $esp $T0 8 + =  $20 $T0 4 - ^ =  $23 $T0 8 - ^ =  $24 $T0 12 - ^ = 
STACK WIN 4 14c55 102 6 0 20 0 0 0 1 $T0 $ebp = $eip $T0 4 + ^ = $ebp $T0 ^ = $esp $T0 8 + = 
STACK WIN 4 14c59 fc 2 0 20 4 0 0 1 $T0 $ebp = $eip $T0 4 + ^ = $ebp $T0 ^ = $esp $T0 8 + =  $20 $T0 4 - ^ = 
STACK WIN 4 14c5a fa 1 0 20 8 0 0 1 $T0 $ebp = $eip $T0 4 + ^ = $ebp $T0 ^ = $esp $T0 8 + =  $20 $T0 4 - ^ =  $23 $T0 8 - ^ = 
STACK WIN 4 14c5b f8 0 0 20 c 0 0 1 $T0 $ebp = $eip $T0 4 + ^ = $ebp $T0 ^ = $esp $T0 8 + =  $20 $T0 4 - ^ =  $23 $T0 8 - ^ =  $24 $T0 12 - ^ = 
STACK WIN 4 14d97 17 3 0 8 0 0 0 1 $T0 $ebp = $eip $T0 4 + ^ = $ebp $T0 ^ = $esp $T0 8 + = 
STACK WIN 4 14db3 14 3 0 8 0 0 0 1 $T0 $ebp = $eip $T0 4 + ^ = $ebp $T0 ^ = $esp $T0 8 + = 
STACK WIN 4 14dcc 1b 9 0 4 0 0 0 1 $T0 $ebp = $eip $T0 4 + ^ = $ebp $T0 ^ = $esp $T0 8 + = 
STACK WIN 4 14dd0 13 5 0 4 4 0 0 1 $T0 $ebp = $eip $T0 4 + ^ = $ebp $T0 ^ = $esp $T0 8 + =  $23 $T0 4 - ^ = 
STACK WIN 4 14ded 18 0 0 0 0 0 0 1 $T0 .raSearch = $eip $T0 ^ = $esp $T0 4 + = 
STACK WIN 4 14e0b 2c 6 0 4 0 0 0 1 $T0 $ebp = $eip $T0 4 + ^ = $ebp $T0 ^ = $esp $T0 8 + = 
STACK WIN 4 14e0f 24 2 0 4 4 0 0 1 $T0 $ebp = $eip $T0 4 + ^ = $ebp $T0 ^ = $esp $T0 8 + =  $23 $T0 4 - ^ = 
STACK WIN 4 14e42 1d 3 0 8 0 0 0 1 $T0 $ebp = $eip $T0 4 + ^ = $ebp $T0 ^ = $esp $T0 8 + = 
STACK WIN 4 14e66 14 3 0 8 0 0 0 1 $T0 $ebp = $eip $T0 4 + ^ = $ebp $T0 ^ = $esp $T0 8 + = 
STACK WIN 4 14e7f 11 0 0 0 0 0 0 1 $T0 .raSearch = $eip $T0 ^ = $esp $T0 4 + = 
STACK WIN 4 14e94 11 0 0 0 0 0 0 1 $T0 .raSearch = $eip $T0 ^ = $esp $T0 4 + = 
STACK WIN 4 14ea9 13 3 0 4 0 0 0 1 $T0 $ebp = $eip $T0 4 + ^ = $ebp $T0 ^ = $esp $T0 8 + = 
STACK WIN 4 14ec0 1f 3 0 4 0 0 0 1 $T0 $ebp = $eip $T0 4 + ^ = $ebp $T0 ^ = $esp $T0 8 + = 
STACK WIN 4 14ee6 13 3 0 4 0 0 0 1 $T0 $ebp = $eip $T0 4 + ^ = $ebp $T0 ^ = $esp $T0 8 + = 
STACK WIN 4 14efd c 0 0 0 0 0 0 1 $T0 .raSearch = $eip $T0 ^ = $esp $T0 4 + = 
STACK WIN 4 14f0c c 0 0 0 0 0 0 1 $T0 .raSearch = $eip $T0 ^ = $esp $T0 4 + = 
STACK WIN 4 14f1b 6 0 0 0 0 0 0 1 $T0 .raSearch = $eip $T0 ^ = $esp $T0 4 + = 
STACK WIN 4 14f21 6 0 0 0 0 0 0 1 $T0 .raSearch = $eip $T0 ^ = $esp $T0 4 + = 
STACK WIN 4 14f27 13 3 0 4 0 0 0 1 $T0 $ebp = $eip $T0 4 + ^ = $ebp $T0 ^ = $esp $T0 8 + = 
STACK WIN 4 14f3e 2d 6 0 4 0 0 0 1 $T0 $ebp = $eip $T0 4 + ^ = $ebp $T0 ^ = $esp $T0 8 + = 
STACK WIN 4 14f42 25 2 0 4 4 0 0 1 $T0 $ebp = $eip $T0 4 + ^ = $ebp $T0 ^ = $esp $T0 8 + =  $23 $T0 4 - ^ = 
STACK WIN 4 14f76 2d 6 0 4 0 0 0 1 $T0 $ebp = $eip $T0 4 + ^ = $ebp $T0 ^ = $esp $T0 8 + = 
STACK WIN 4 14f7a 25 2 0 4 4 0 0 1 $T0 $ebp = $eip $T0 4 + ^ = $ebp $T0 ^ = $esp $T0 8 + =  $23 $T0 4 - ^ = 
STACK WIN 4 14fae 5 0 0 10 0 0 0 1 $T0 $ebp = $eip $T0 4 + ^ = $ebp $T0 ^ = $esp $T0 8 + = 
STACK WIN 4 14fb3 9 3 0 10 0 0 0 1 $T0 $ebp = $eip $T0 4 + ^ = $ebp $T0 ^ = $esp $T0 8 + = 
STACK WIN 4 14fbe 1c4 c 0 1c 10 4c 0 1 $T0 $ebp = $eip $T0 4 + ^ = $ebp $T0 ^ = $esp $T0 8 + =  $20 $T0 80 - ^ =  $23 $T0 84 - ^ =  $24 $T0 88 - ^ = 
STACK WIN 4 1504a a 0 0 1c 10 4c 0 1 $T0 $ebp = $T2 $esp = $T1 .raSearchStart = $eip $T1 ^ = $ebp $T0 = $esp $T1 4 + = 
STACK WIN 4 15100 81 0 0 1c 10 4c 0 1 $T0 $ebp = $T2 $esp = $T1 .raSearchStart = $eip $T1 ^ = $ebp $T0 = $esp $T1 4 + = 
STACK WIN 4 151f3 3a c 0 4 10 10 0 1 $T0 $ebp = $eip $T0 4 + ^ = $ebp $T0 ^ = $esp $T0 8 + =  $20 $T0 20 - ^ =  $23 $T0 24 - ^ =  $24 $T0 28 - ^ = 
STACK WIN 4 1523b 4a 3 0 4 0 0 0 1 $T0 $ebp = $eip $T0 4 + ^ = $ebp $T0 ^ = $esp $T0 8 + = 
STACK WIN 4 15297 18 3 0 c 0 0 0 1 $T0 $ebp = $eip $T0 4 + ^ = $ebp $T0 ^ = $esp $T0 8 + = 
STACK WIN 4 152b5 e8 c 0 10 10 20 0 1 $T0 $ebp = $eip $T0 4 + ^ = $ebp $T0 ^ = $esp $T0 8 + =  $20 $T0 36 - ^ =  $23 $T0 40 - ^ =  $24 $T0 44 - ^ = 
STACK WIN 4 15337 a 0 0 10 10 20 0 1 $T0 $ebp = $T2 $esp = $T1 .raSearchStart = $eip $T1 ^ = $ebp $T0 = $esp $T1 4 + = 
STACK WIN 4 15380 16 0 0 10 10 20 0 1 $T0 $ebp = $T2 $esp = $T1 .raSearchStart = $eip $T1 ^ = $ebp $T0 = $esp $T1 4 + = 
STACK WIN 4 153d7 b 3 0 8 0 0 0 1 $T0 $ebp = $eip $T0 4 + ^ = $ebp $T0 ^ = $esp $T0 8 + = 
STACK WIN 4 153e4 9a c 0 8 0 18 0 1 $T0 $ebp = $eip $T0 4 + ^ = $ebp $T0 ^ = $esp $T0 8 + = 
STACK WIN 4 153eb 8b 5 0 8 4 18 0 1 $T0 $ebp = $eip $T0 4 + ^ = $ebp $T0 ^ = $esp $T0 8 + =  $20 $T0 28 - ^ = 
STACK WIN 4 153ec 87 4 0 8 8 18 0 1 $T0 $ebp = $eip $T0 4 + ^ = $ebp $T0 ^ = $esp $T0 8 + =  $20 $T0 28 - ^ =  $23 $T0 32 - ^ = 
STACK WIN 4 153f0 82 0 0 8 c 18 0 1 $T0 $ebp = $eip $T0 4 + ^ = $ebp $T0 ^ = $esp $T0 8 + =  $20 $T0 28 - ^ =  $23 $T0 32 - ^ =  $24 $T0 36 - ^ = 
STACK WIN 4 154a4 39 6 0 4 0 0 0 1 $T0 $ebp = $eip $T0 4 + ^ = $ebp $T0 ^ = $esp $T0 8 + = 
STACK WIN 4 154a8 2f 2 0 4 4 0 0 1 $T0 $ebp = $eip $T0 4 + ^ = $ebp $T0 ^ = $esp $T0 8 + =  $20 $T0 4 - ^ = 
STACK WIN 4 154a9 2d 1 0 4 8 0 0 1 $T0 $ebp = $eip $T0 4 + ^ = $ebp $T0 ^ = $esp $T0 8 + =  $20 $T0 4 - ^ =  $23 $T0 8 - ^ = 
STACK WIN 4 154aa 2b 0 0 4 c 0 0 1 $T0 $ebp = $eip $T0 4 + ^ = $ebp $T0 ^ = $esp $T0 8 + =  $20 $T0 4 - ^ =  $23 $T0 8 - ^ =  $24 $T0 12 - ^ = 
STACK WIN 4 154eb 9 3 0 c 0 0 0 1 $T0 $ebp = $eip $T0 4 + ^ = $ebp $T0 ^ = $esp $T0 8 + = 
STACK WIN 4 154f6 10 3 0 c 0 0 0 1 $T0 $ebp = $eip $T0 4 + ^ = $ebp $T0 ^ = $esp $T0 8 + = 
STACK WIN 4 1550a 13 3 0 10 0 0 0 1 $T0 $ebp = $eip $T0 4 + ^ = $ebp $T0 ^ = $esp $T0 8 + = 
STACK WIN 4 15521 c 3 0 4 0 0 0 1 $T0 $ebp = $eip $T0 4 + ^ = $ebp $T0 ^ = $esp $T0 8 + = 
STACK WIN 4 15530 c 3 0 8 0 0 0 1 $T0 $ebp = $eip $T0 4 + ^ = $ebp $T0 ^ = $esp $T0 8 + = 
STACK WIN 4 1553f c 3 0 8 0 0 0 1 $T0 $ebp = $eip $T0 4 + ^ = $ebp $T0 ^ = $esp $T0 8 + = 
STACK WIN 4 1554e 10 3 0 4 0 0 0 1 $T0 $ebp = $eip $T0 4 + ^ = $ebp $T0 ^ = $esp $T0 8 + = 
STACK WIN 4 15562 11 3 0 4 0 0 0 1 $T0 $ebp = $eip $T0 4 + ^ = $ebp $T0 ^ = $esp $T0 8 + = 
STACK WIN 4 15577 b 3 0 4 0 0 0 1 $T0 $ebp = $eip $T0 4 + ^ = $ebp $T0 ^ = $esp $T0 8 + = 
STACK WIN 4 15584 e 0 0 0 0 0 0 1 $T0 .raSearch = $eip $T0 ^ = $esp $T0 4 + = 
STACK WIN 4 15595 f 3 0 4 0 0 0 1 $T0 $ebp = $eip $T0 4 + ^ = $ebp $T0 ^ = $esp $T0 8 + = 
STACK WIN 4 155a7 6 0 0 0 0 0 0 1 $T0 .raSearch = $eip $T0 ^ = $esp $T0 4 + = 
STACK WIN 4 155ad d 3 0 4 0 0 0 1 $T0 $ebp = $eip $T0 4 + ^ = $ebp $T0 ^ = $esp $T0 8 + = 
STACK WIN 4 155bd 10 3 0 4 0 0 0 1 $T0 $ebp = $eip $T0 4 + ^ = $ebp $T0 ^ = $esp $T0 8 + = 
STACK WIN 4 155d1 d 0 0 0 0 0 0 1 $T0 .raSearch = $eip $T0 ^ = $esp $T0 4 + = 
STACK WIN 4 155e1 5 0 0 10 0 0 0 1 $T0 $ebp = $eip $T0 4 + ^ = $ebp $T0 ^ = $esp $T0 8 + = 
STACK WIN 4 155e6 9 3 0 10 0 0 0 1 $T0 $ebp = $eip $T0 4 + ^ = $ebp $T0 ^ = $esp $T0 8 + = 
STACK WIN 4 155f1 9 3 0 c 0 0 0 1 $T0 $ebp = $eip $T0 4 + ^ = $ebp $T0 ^ = $esp $T0 8 + = 
STACK WIN 4 155fc e 3 0 4 0 0 0 1 $T0 $ebp = $eip $T0 4 + ^ = $ebp $T0 ^ = $esp $T0 8 + = 
STACK WIN 4 1566f 14 3 0 4 0 0 0 1 $T0 $ebp = $eip $T0 4 + ^ = $ebp $T0 ^ = $esp $T0 8 + = 
STACK WIN 4 15688 12 0 0 0 0 0 0 1 $T0 .raSearch = $eip $T0 ^ = $esp $T0 4 + = 
STACK WIN 4 1569e 1e 3 0 4 0 0 0 1 $T0 $ebp = $eip $T0 4 + ^ = $ebp $T0 ^ = $esp $T0 8 + = 
STACK WIN 4 156c3 1d 1 0 0 4 0 0 1 $T0 .raSearch = $eip $T0 ^ = $esp $T0 4 + =  $23 $T0 4 - ^ = 
STACK WIN 4 156e7 1d 3 0 c 0 0 0 1 $T0 $ebp = $eip $T0 4 + ^ = $ebp $T0 ^ = $esp $T0 8 + = 
STACK WIN 4 1570b e 3 0 c 0 0 0 1 $T0 $ebp = $eip $T0 4 + ^ = $ebp $T0 ^ = $esp $T0 8 + = 
STACK WIN 4 1571c a0 c 0 8 10 18 0 1 $T0 $ebp = $eip $T0 4 + ^ = $ebp $T0 ^ = $esp $T0 8 + =  $20 $T0 28 - ^ =  $23 $T0 32 - ^ =  $24 $T0 36 - ^ = 
STACK WIN 4 1577c 9 0 0 8 10 18 0 1 $T0 $ebp = $T2 $esp = $T1 .raSearchStart = $eip $T1 ^ = $ebp $T0 = $esp $T1 4 + = 
STACK WIN 4 157e4 d 3 0 8 0 0 0 1 $T0 $ebp = $eip $T0 4 + ^ = $ebp $T0 ^ = $esp $T0 8 + = 
STACK WIN 4 157f4 4 0 0 0 0 0 0 1 $T0 .raSearch = $eip $T0 ^ = $esp $T0 4 + = 
STACK WIN 4 157f8 26 3 0 4 0 0 0 1 $T0 $ebp = $eip $T0 4 + ^ = $ebp $T0 ^ = $esp $T0 8 + = 
STACK WIN 4 15827 d 3 0 4 0 0 0 1 $T0 $ebp = $eip $T0 4 + ^ = $ebp $T0 ^ = $esp $T0 8 + = 
STACK WIN 4 15837 25 a 0 8 0 0 0 1 $T0 $ebp = $eip $T0 4 + ^ = $ebp $T0 ^ = $esp $T0 8 + = 
STACK WIN 4 15841 19 0 0 8 4 0 0 1 $T0 $ebp = $eip $T0 4 + ^ = $ebp $T0 ^ = $esp $T0 8 + =  $23 $T0 4 - ^ = 
STACK WIN 4 15865 45 3 0 4 0 0 0 1 $T0 $ebp = $eip $T0 4 + ^ = $ebp $T0 ^ = $esp $T0 8 + = 
STACK WIN 4 158bb 4c 6 0 4 0 8 0 1 $T0 $ebp = $eip $T0 4 + ^ = $ebp $T0 ^ = $esp $T0 8 + = 
STACK WIN 4 158c1 44 0 0 4 4 8 0 1 $T0 $ebp = $eip $T0 4 + ^ = $ebp $T0 ^ = $esp $T0 8 + =  $23 $T0 12 - ^ = 
STACK WIN 4 1591a 9 0 0 0 0 0 0 1 $T0 .raSearch = $eip $T0 ^ = $esp $T0 4 + = 
STACK WIN 4 15925 9 0 0 0 0 0 0 1 $T0 .raSearch = $eip $T0 ^ = $esp $T0 4 + = 
STACK WIN 4 15930 9 0 0 0 0 0 0 1 $T0 .raSearch = $eip $T0 ^ = $esp $T0 4 + = 
STACK WIN 4 1593b 5 0 0 0 0 0 0 1 $T0 .raSearch = $eip $T0 ^ = $esp $T0 4 + = 
STACK WIN 4 15940 a4 3 0 8 0 0 0 1 $T0 $ebp = $eip $T0 4 + ^ = $ebp $T0 ^ = $esp $T0 8 + = 
STACK WIN 4 15985 52 0 0 8 4 0 0 1 $T0 $ebp = $eip $T0 4 + ^ = $ebp $T0 ^ = $esp $T0 8 + =  $20 $T0 4 - ^ = 
STACK WIN 4 15986 50 0 0 8 8 0 0 1 $T0 $ebp = $eip $T0 4 + ^ = $ebp $T0 ^ = $esp $T0 8 + =  $20 $T0 4 - ^ =  $23 $T0 8 - ^ = 
STACK WIN 4 15987 4e 0 0 8 c 0 0 1 $T0 $ebp = $eip $T0 4 + ^ = $ebp $T0 ^ = $esp $T0 8 + =  $20 $T0 4 - ^ =  $23 $T0 8 - ^ =  $24 $T0 12 - ^ = 
STACK WIN 4 159d9 b 0 0 8 c 0 0 1 $T0 $ebp = $eip $T0 4 + ^ = $ebp $T0 ^ = $esp $T0 8 + =  $20 $T0 4 - ^ =  $23 $T0 8 - ^ =  $24 $T0 12 - ^ = 
STACK WIN 4 15a0d 10 3 0 4 0 0 0 1 $T0 $ebp = $eip $T0 4 + ^ = $ebp $T0 ^ = $esp $T0 8 + = 
STACK WIN 4 15a21 e 3 0 4 0 0 0 1 $T0 $ebp = $eip $T0 4 + ^ = $ebp $T0 ^ = $esp $T0 8 + = 
STACK WIN 4 15a32 10 3 0 0 0 0 0 1 $T0 .raSearch = $eip $T0 ^ = $esp $T0 4 + = 
STACK WIN 4 15a33 e 2 0 0 4 0 0 1 $T0 .raSearch = $eip $T0 ^ = $esp $T0 4 + =  $23 $T0 4 - ^ = 
STACK WIN 4 15a46 7 0 0 0 0 0 0 1 $T0 .raSearch = $eip $T0 ^ = $esp $T0 4 + = 
STACK WIN 4 15a4d 6 0 0 0 0 0 0 1 $T0 .raSearch = $eip $T0 ^ = $esp $T0 4 + = 
STACK WIN 4 15a53 3 0 0 0 0 0 0 1 $T0 .raSearch = $eip $T0 ^ = $esp $T0 4 + = 
STACK WIN 4 15a56 7 0 0 0 0 0 0 1 $T0 .raSearch = $eip $T0 ^ = $esp $T0 4 + = 
STACK WIN 4 15a5d 10 3 0 0 0 0 0 1 $T0 .raSearch = $eip $T0 ^ = $esp $T0 4 + = 
STACK WIN 4 15a5e e 2 0 0 4 0 0 1 $T0 .raSearch = $eip $T0 ^ = $esp $T0 4 + =  $23 $T0 4 - ^ = 
STACK WIN 4 15a71 63 4 0 8 0 0 0 1 $T0 $ebp = $eip $T0 4 + ^ = $ebp $T0 ^ = $esp $T0 8 + = 
STACK WIN 4 15a75 5d 0 0 8 4 0 0 1 $T0 $ebp = $eip $T0 4 + ^ = $ebp $T0 ^ = $esp $T0 8 + =  $24 $T0 4 - ^ = 
STACK WIN 4 15a91 33 0 0 8 8 0 0 1 $T0 $ebp = $eip $T0 4 + ^ = $ebp $T0 ^ = $esp $T0 8 + =  $24 $T0 4 - ^ =  $20 $T0 8 - ^ = 
STACK WIN 4 15a92 31 0 0 8 c 0 0 1 $T0 $ebp = $eip $T0 4 + ^ = $ebp $T0 ^ = $esp $T0 8 + =  $24 $T0 4 - ^ =  $20 $T0 8 - ^ =  $23 $T0 12 - ^ = 
STACK WIN 4 15aec 1f 4 0 4 0 0 0 1 $T0 $ebp = $eip $T0 4 + ^ = $ebp $T0 ^ = $esp $T0 8 + = 
STACK WIN 4 15af0 19 0 0 4 4 0 0 1 $T0 $ebp = $eip $T0 4 + ^ = $ebp $T0 ^ = $esp $T0 8 + =  $23 $T0 4 - ^ = 
STACK WIN 4 15b12 6d c 0 8 0 20 0 1 $T0 $ebp = $eip $T0 4 + ^ = $ebp $T0 ^ = $esp $T0 8 + = 
STACK WIN 4 15b19 62 5 0 8 4 20 0 1 $T0 $ebp = $eip $T0 4 + ^ = $ebp $T0 ^ = $esp $T0 8 + =  $20 $T0 36 - ^ = 
STACK WIN 4 15b1d 5d 1 0 8 8 20 0 1 $T0 $ebp = $eip $T0 4 + ^ = $ebp $T0 ^ = $esp $T0 8 + =  $20 $T0 36 - ^ =  $23 $T0 40 - ^ = 
STACK WIN 4 15b1e 5b 0 0 8 c 20 0 1 $T0 $ebp = $eip $T0 4 + ^ = $ebp $T0 ^ = $esp $T0 8 + =  $20 $T0 36 - ^ =  $23 $T0 40 - ^ =  $24 $T0 44 - ^ = 
STACK WIN 4 16271 16 5 0 4 0 0 0 1 $T0 $ebp = $eip $T0 4 + ^ = $ebp $T0 ^ = $esp $T0 8 + = 
STACK WIN 4 1628c 1f 5 0 4 0 0 0 1 $T0 $ebp = $eip $T0 4 + ^ = $ebp $T0 ^ = $esp $T0 8 + = 
STACK WIN 4 162b2 11 5 0 8 0 0 0 1 $T0 $ebp = $eip $T0 4 + ^ = $ebp $T0 ^ = $esp $T0 8 + = 
STACK WIN 4 162c7 3 0 0 0 0 0 0 1 $T0 .raSearch = $eip $T0 ^ = $esp $T0 4 + = 
STACK WIN 4 162ca 3 0 0 0 0 0 0 1 $T0 .raSearch = $eip $T0 ^ = $esp $T0 4 + = 
STACK WIN 4 162cd 3 0 0 0 0 0 0 1 $T0 .raSearch = $eip $T0 ^ = $esp $T0 4 + = 
STACK WIN 4 162d0 139 1a 0 c 4 328 0 1 $T0 $ebp = $eip $T0 4 + ^ = $ebp $T0 ^ = $esp $T0 8 + =  $24 $T0 812 - ^ = 
STACK WIN 4 16457 f 5 0 4 0 0 0 1 $T0 $ebp = $eip $T0 4 + ^ = $ebp $T0 ^ = $esp $T0 8 + = 
STACK WIN 4 16469 13 0 0 0 0 0 0 1 $T0 .raSearch = $eip $T0 ^ = $esp $T0 4 + = 
STACK WIN 4 16480 11 0 0 0 0 0 0 1 $T0 .raSearch = $eip $T0 ^ = $esp $T0 4 + = 
STACK WIN 4 16495 64 6 0 14 0 0 0 1 $T0 $ebp = $eip $T0 4 + ^ = $ebp $T0 ^ = $esp $T0 8 + = 
STACK WIN 4 1649b 30 0 0 14 4 0 0 1 $T0 $ebp = $eip $T0 4 + ^ = $ebp $T0 ^ = $esp $T0 8 + =  $23 $T0 4 - ^ = 
STACK WIN 4 16512 10 0 0 0 0 0 0 1 $T0 .raSearch = $eip $T0 ^ = $esp $T0 4 + = 
STACK WIN 4 16526 1d 3 0 0 4 0 0 1 $T0 .raSearch = $eip $T0 ^ = $esp $T0 4 + =  $23 $T0 4 - ^ = 
STACK WIN 4 1654a 34 0 0 14 0 0 0 1 $T0 .raSearch = $eip $T0 ^ = $esp $T0 4 + = 
STACK WIN 4 1655c 21 0 0 14 4 0 0 1 $T0 .raSearch = $eip $T0 ^ = $esp $T0 4 + =  $23 $T0 4 - ^ = 
STACK WIN 4 1658b 30 d 0 4 0 0 0 1 $T0 $ebp = $eip $T0 4 + ^ = $ebp $T0 ^ = $esp $T0 8 + = 
STACK WIN 4 16591 28 7 0 4 4 0 0 1 $T0 $ebp = $eip $T0 4 + ^ = $ebp $T0 ^ = $esp $T0 8 + =  $23 $T0 4 - ^ = 
STACK WIN 4 16598 20 0 0 4 8 0 0 1 $T0 $ebp = $eip $T0 4 + ^ = $ebp $T0 ^ = $esp $T0 8 + =  $23 $T0 4 - ^ =  $24 $T0 8 - ^ = 
STACK WIN 4 165c7 1d 5 0 4 0 0 0 1 $T0 $ebp = $eip $T0 4 + ^ = $ebp $T0 ^ = $esp $T0 8 + = 
STACK WIN 4 165eb 45 14 0 8 0 4 0 1 $T0 $ebp = $eip $T0 4 + ^ = $ebp $T0 ^ = $esp $T0 8 + = 
STACK WIN 4 165f5 39 a 0 8 4 4 0 1 $T0 $ebp = $eip $T0 4 + ^ = $ebp $T0 ^ = $esp $T0 8 + =  $20 $T0 8 - ^ = 
STACK WIN 4 165f6 37 9 0 8 8 4 0 1 $T0 $ebp = $eip $T0 4 + ^ = $ebp $T0 ^ = $esp $T0 8 + =  $20 $T0 8 - ^ =  $23 $T0 12 - ^ = 
STACK WIN 4 165ff 2d 0 0 8 c 4 0 1 $T0 $ebp = $eip $T0 4 + ^ = $ebp $T0 ^ = $esp $T0 8 + =  $20 $T0 8 - ^ =  $23 $T0 12 - ^ =  $24 $T0 16 - ^ = 
STACK WIN 4 16641 2e a 0 8 0 0 0 1 $T0 $ebp = $eip $T0 4 + ^ = $ebp $T0 ^ = $esp $T0 8 + = 
STACK WIN 4 16647 26 4 0 8 4 0 0 1 $T0 $ebp = $eip $T0 4 + ^ = $ebp $T0 ^ = $esp $T0 8 + =  $23 $T0 4 - ^ = 
STACK WIN 4 1664b 21 0 0 8 8 0 0 1 $T0 $ebp = $eip $T0 4 + ^ = $ebp $T0 ^ = $esp $T0 8 + =  $23 $T0 4 - ^ =  $24 $T0 8 - ^ = 
STACK WIN 4 1667a 1b 6 0 4 0 4 0 1 $T0 $ebp = $eip $T0 4 + ^ = $ebp $T0 ^ = $esp $T0 8 + = 
STACK WIN 4 1669b 24 5 0 8 0 0 0 1 $T0 $ebp = $eip $T0 4 + ^ = $ebp $T0 ^ = $esp $T0 8 + = 
STACK WIN 4 166c8 20 5 0 8 0 0 0 1 $T0 $ebp = $eip $T0 4 + ^ = $ebp $T0 ^ = $esp $T0 8 + = 
STACK WIN 4 166f0 158 9 0 8 0 4 0 1 $T0 $ebp = $eip $T0 4 + ^ = $ebp $T0 ^ = $esp $T0 8 + = 
STACK WIN 4 166f7 14f 2 0 8 4 4 0 1 $T0 $ebp = $eip $T0 4 + ^ = $ebp $T0 ^ = $esp $T0 8 + =  $20 $T0 8 - ^ = 
STACK WIN 4 166f8 14d 1 0 8 8 4 0 1 $T0 $ebp = $eip $T0 4 + ^ = $ebp $T0 ^ = $esp $T0 8 + =  $20 $T0 8 - ^ =  $23 $T0 12 - ^ = 
STACK WIN 4 166f9 14b 0 0 8 c 4 0 1 $T0 $ebp = $eip $T0 4 + ^ = $ebp $T0 ^ = $esp $T0 8 + =  $20 $T0 8 - ^ =  $23 $T0 12 - ^ =  $24 $T0 16 - ^ = 
STACK WIN 4 1689e 6 0 0 0 0 0 0 1 $T0 .raSearch = $eip $T0 ^ = $esp $T0 4 + = 
STACK WIN 4 168a4 4d c 0 c 10 18 0 1 $T0 $ebp = $eip $T0 4 + ^ = $ebp $T0 ^ = $esp $T0 8 + =  $20 $T0 28 - ^ =  $23 $T0 32 - ^ =  $24 $T0 36 - ^ = 
STACK WIN 4 168e5 b 0 0 c 10 18 0 1 $T0 $ebp = $T2 $esp = $T1 .raSearchStart = $eip $T1 ^ = $ebp $T0 = $esp $T1 4 + = 
STACK WIN 4 16904 26 8 0 8 0 c 0 1 $T0 $ebp = $eip $T0 4 + ^ = $ebp $T0 ^ = $esp $T0 8 + = 
STACK WIN 4 16933 16 5 0 4 0 0 0 1 $T0 $ebp = $eip $T0 4 + ^ = $ebp $T0 ^ = $esp $T0 8 + = 
STACK WIN 4 1694e 1f 5 0 4 0 0 0 1 $T0 $ebp = $eip $T0 4 + ^ = $ebp $T0 ^ = $esp $T0 8 + = 
STACK WIN 4 16974 13 5 0 8 0 0 0 1 $T0 $ebp = $eip $T0 4 + ^ = $ebp $T0 ^ = $esp $T0 8 + = 
STACK WIN 4 1698b d 5 0 4 0 0 0 1 $T0 $ebp = $eip $T0 4 + ^ = $ebp $T0 ^ = $esp $T0 8 + = 
STACK WIN 4 1699b 12 5 0 4 0 0 0 1 $T0 $ebp = $eip $T0 4 + ^ = $ebp $T0 ^ = $esp $T0 8 + = 
STACK WIN 4 169b1 12 5 0 4 0 0 0 1 $T0 $ebp = $eip $T0 4 + ^ = $ebp $T0 ^ = $esp $T0 8 + = 
STACK WIN 4 169c7 1c 5 0 c 0 0 0 1 $T0 $ebp = $eip $T0 4 + ^ = $ebp $T0 ^ = $esp $T0 8 + = 
STACK WIN 4 169ea 10 5 0 4 0 0 0 1 $T0 $ebp = $eip $T0 4 + ^ = $ebp $T0 ^ = $esp $T0 8 + = 
STACK WIN 4 169fe 17 5 0 0 0 0 0 1 $T0 .raSearch = $eip $T0 ^ = $esp $T0 4 + = 
STACK WIN 4 16a01 13 2 0 0 4 0 0 1 $T0 .raSearch = $eip $T0 ^ = $esp $T0 4 + =  $23 $T0 4 - ^ = 
STACK WIN 4 16a1a 9 0 0 0 0 0 0 1 $T0 .raSearch = $eip $T0 ^ = $esp $T0 4 + = 
STACK WIN 4 16a25 9 0 0 0 0 0 0 1 $T0 .raSearch = $eip $T0 ^ = $esp $T0 4 + = 
STACK WIN 4 16a30 da e 0 0 10 18 0 1 $T0 $ebp = $eip $T0 4 + ^ = $ebp $T0 ^ = $esp $T0 8 + =  $20 $T0 28 - ^ =  $23 $T0 32 - ^ =  $24 $T0 36 - ^ = 
STACK WIN 4 16af1 10 0 0 0 10 18 0 1 $T0 $ebp = $T2 $esp = $T1 .raSearchStart = $eip $T1 ^ = $ebp $T0 = $esp $T1 4 + = 
STACK WIN 4 16b40 4 0 0 0 0 0 0 1 $T0 .raSearch = $eip $T0 ^ = $esp $T0 4 + = 
STACK WIN 4 16b44 13 5 0 4 0 0 0 1 $T0 $ebp = $eip $T0 4 + ^ = $ebp $T0 ^ = $esp $T0 8 + = 
STACK WIN 4 16b5b 17 5 0 0 0 0 0 1 $T0 .raSearch = $eip $T0 ^ = $esp $T0 4 + = 
STACK WIN 4 16b5e 13 2 0 0 4 0 0 1 $T0 .raSearch = $eip $T0 ^ = $esp $T0 4 + =  $23 $T0 4 - ^ = 
STACK WIN 4 16b77 15 5 0 4 0 0 0 1 $T0 $ebp = $eip $T0 4 + ^ = $ebp $T0 ^ = $esp $T0 8 + = 
STACK WIN 4 16b91 64 8 0 c 0 18 0 1 $T0 $ebp = $eip $T0 4 + ^ = $ebp $T0 ^ = $esp $T0 8 + = 
STACK WIN 4 16c0e 42 5 0 4 0 0 0 1 $T0 $ebp = $eip $T0 4 + ^ = $ebp $T0 ^ = $esp $T0 8 + = 
STACK WIN 4 16c60 3 0 0 0 0 0 0 1 $T0 .raSearch = $eip $T0 ^ = $esp $T0 4 + = 
STACK WIN 4 16c63 3 0 0 0 0 0 0 1 $T0 .raSearch = $eip $T0 ^ = $esp $T0 4 + = 
STACK WIN 4 16c66 3 0 0 0 0 0 0 1 $T0 .raSearch = $eip $T0 ^ = $esp $T0 4 + = 
STACK WIN 4 16c69 43 0 0 0 0 0 0 1 $T0 .raSearch = $eip $T0 ^ = $esp $T0 4 + = 
STACK WIN 4 16cbc 22 0 0 0 0 0 0 1 $T0 .raSearch = $eip $T0 ^ = $esp $T0 4 + = 
STACK WIN 4 16ce6 53 6 0 4 0 4 0 1 $T0 $ebp = $eip $T0 4 + ^ = $ebp $T0 ^ = $esp $T0 8 + = 
STACK WIN 4 16d06 22 0 0 4 4 4 0 1 $T0 $ebp = $eip $T0 4 + ^ = $ebp $T0 ^ = $esp $T0 8 + =  $23 $T0 8 - ^ = 
STACK WIN 4 16d4d 16 5 0 4 0 0 0 1 $T0 $ebp = $eip $T0 4 + ^ = $ebp $T0 ^ = $esp $T0 8 + = 
STACK WIN 4 16d68 f 5 0 4 0 0 0 1 $T0 $ebp = $eip $T0 4 + ^ = $ebp $T0 ^ = $esp $T0 8 + = 
STACK WIN 4 16d7a f 0 0 0 0 0 0 1 $T0 .raSearch = $eip $T0 ^ = $esp $T0 4 + = 
STACK WIN 4 16d8c f 0 0 0 0 0 0 1 $T0 .raSearch = $eip $T0 ^ = $esp $T0 4 + = 
STACK WIN 4 16d9e 16 5 0 4 0 0 0 1 $T0 $ebp = $eip $T0 4 + ^ = $ebp $T0 ^ = $esp $T0 8 + = 
STACK WIN 4 16db9 7 0 0 0 0 0 0 1 $T0 .raSearch = $eip $T0 ^ = $esp $T0 4 + = 
STACK WIN 4 16dc0 26 5 0 4 0 0 0 1 $T0 $ebp = $eip $T0 4 + ^ = $ebp $T0 ^ = $esp $T0 8 + = 
STACK WIN 4 16def 16 5 0 4 0 0 0 1 $T0 $ebp = $eip $T0 4 + ^ = $ebp $T0 ^ = $esp $T0 8 + = 
STACK WIN 4 16e0a 16 5 0 4 0 0 0 1 $T0 $ebp = $eip $T0 4 + ^ = $ebp $T0 ^ = $esp $T0 8 + = 
STACK WIN 4 16e25 12 5 0 4 0 0 0 1 $T0 $ebp = $eip $T0 4 + ^ = $ebp $T0 ^ = $esp $T0 8 + = 
STACK WIN 4 16e3b 12 5 0 4 0 0 0 1 $T0 $ebp = $eip $T0 4 + ^ = $ebp $T0 ^ = $esp $T0 8 + = 
STACK WIN 4 16e51 12 5 0 4 0 0 0 1 $T0 $ebp = $eip $T0 4 + ^ = $ebp $T0 ^ = $esp $T0 8 + = 
STACK WIN 4 16e67 136 9 0 4 0 10 0 1 $T0 $ebp = $eip $T0 4 + ^ = $ebp $T0 ^ = $esp $T0 8 + = 
STACK WIN 4 16e70 12b 0 0 4 4 10 0 1 $T0 $ebp = $eip $T0 4 + ^ = $ebp $T0 ^ = $esp $T0 8 + =  $20 $T0 20 - ^ = 
STACK WIN 4 16e7f 11b 0 0 4 8 10 0 1 $T0 $ebp = $eip $T0 4 + ^ = $ebp $T0 ^ = $esp $T0 8 + =  $20 $T0 20 - ^ =  $23 $T0 24 - ^ = 
STACK WIN 4 16ea0 f9 0 0 4 c 10 0 1 $T0 $ebp = $eip $T0 4 + ^ = $ebp $T0 ^ = $esp $T0 8 + =  $20 $T0 20 - ^ =  $23 $T0 24 - ^ =  $24 $T0 28 - ^ = 
STACK WIN 4 16fea 12f 9 0 4 0 10 0 1 $T0 $ebp = $eip $T0 4 + ^ = $ebp $T0 ^ = $esp $T0 8 + = 
STACK WIN 4 16ff3 124 0 0 4 4 10 0 1 $T0 $ebp = $eip $T0 4 + ^ = $ebp $T0 ^ = $esp $T0 8 + =  $20 $T0 20 - ^ = 
STACK WIN 4 17002 114 0 0 4 8 10 0 1 $T0 $ebp = $eip $T0 4 + ^ = $ebp $T0 ^ = $esp $T0 8 + =  $20 $T0 20 - ^ =  $23 $T0 24 - ^ = 
STACK WIN 4 17023 f2 0 0 4 c 10 0 1 $T0 $ebp = $eip $T0 4 + ^ = $ebp $T0 ^ = $esp $T0 8 + =  $20 $T0 20 - ^ =  $23 $T0 24 - ^ =  $24 $T0 28 - ^ = 
STACK WIN 4 17164 1c 5 0 c 0 0 0 1 $T0 $ebp = $eip $T0 4 + ^ = $ebp $T0 ^ = $esp $T0 8 + = 
STACK WIN 4 17187 1a 5 0 c 0 0 0 1 $T0 $ebp = $eip $T0 4 + ^ = $ebp $T0 ^ = $esp $T0 8 + = 
STACK WIN 4 171a7 177 12 0 14 0 4 0 1 $T0 $ebp = $eip $T0 4 + ^ = $ebp $T0 ^ = $esp $T0 8 + = 
STACK WIN 4 171b1 15f 8 0 14 4 4 0 1 $T0 $ebp = $eip $T0 4 + ^ = $ebp $T0 ^ = $esp $T0 8 + =  $20 $T0 8 - ^ = 
STACK WIN 4 171b5 15a 4 0 14 8 4 0 1 $T0 $ebp = $eip $T0 4 + ^ = $ebp $T0 ^ = $esp $T0 8 + =  $20 $T0 8 - ^ =  $23 $T0 12 - ^ = 
STACK WIN 4 171b9 155 0 0 14 c 4 0 1 $T0 $ebp = $eip $T0 4 + ^ = $ebp $T0 ^ = $esp $T0 8 + =  $20 $T0 8 - ^ =  $23 $T0 12 - ^ =  $24 $T0 16 - ^ = 
STACK WIN 4 1737b 195 16 0 14 0 10 0 1 $T0 $ebp = $eip $T0 4 + ^ = $ebp $T0 ^ = $esp $T0 8 + = 
STACK WIN 4 1738d 17f 4 0 14 4 10 0 1 $T0 $ebp = $eip $T0 4 + ^ = $ebp $T0 ^ = $esp $T0 8 + =  $23 $T0 20 - ^ = 
STACK WIN 4 17391 17a 0 0 14 8 10 0 1 $T0 $ebp = $eip $T0 4 + ^ = $ebp $T0 ^ = $esp $T0 8 + =  $23 $T0 20 - ^ =  $24 $T0 24 - ^ = 
STACK WIN 4 173aa 156 0 0 14 c 10 0 1 $T0 $ebp = $eip $T0 4 + ^ = $ebp $T0 ^ = $esp $T0 8 + =  $23 $T0 20 - ^ =  $24 $T0 24 - ^ =  $20 $T0 28 - ^ = 
STACK WIN 4 17575 11 5 0 4 0 0 0 1 $T0 $ebp = $eip $T0 4 + ^ = $ebp $T0 ^ = $esp $T0 8 + = 
STACK WIN 4 1758a 11 5 0 4 0 0 0 1 $T0 $ebp = $eip $T0 4 + ^ = $ebp $T0 ^ = $esp $T0 8 + = 
STACK WIN 4 1759f 10 5 0 4 0 0 0 1 $T0 $ebp = $eip $T0 4 + ^ = $ebp $T0 ^ = $esp $T0 8 + = 
STACK WIN 4 175b3 10 5 0 4 0 0 0 1 $T0 $ebp = $eip $T0 4 + ^ = $ebp $T0 ^ = $esp $T0 8 + = 
STACK WIN 4 175c7 10 5 0 4 0 0 0 1 $T0 $ebp = $eip $T0 4 + ^ = $ebp $T0 ^ = $esp $T0 8 + = 
STACK WIN 4 175db 10 5 0 4 0 0 0 1 $T0 $ebp = $eip $T0 4 + ^ = $ebp $T0 ^ = $esp $T0 8 + = 
STACK WIN 4 175ef 10 5 0 4 0 0 0 1 $T0 $ebp = $eip $T0 4 + ^ = $ebp $T0 ^ = $esp $T0 8 + = 
STACK WIN 4 17603 12 5 0 0 0 0 0 1 $T0 .raSearch = $eip $T0 ^ = $esp $T0 4 + = 
STACK WIN 4 17606 e 2 0 0 4 0 0 1 $T0 .raSearch = $eip $T0 ^ = $esp $T0 4 + =  $23 $T0 4 - ^ = 
STACK WIN 4 17619 12 5 0 0 0 0 0 1 $T0 .raSearch = $eip $T0 ^ = $esp $T0 4 + = 
STACK WIN 4 1761c e 2 0 0 4 0 0 1 $T0 .raSearch = $eip $T0 ^ = $esp $T0 4 + =  $23 $T0 4 - ^ = 
STACK WIN 4 1762f 12 5 0 0 0 0 0 1 $T0 .raSearch = $eip $T0 ^ = $esp $T0 4 + = 
STACK WIN 4 17632 e 2 0 0 4 0 0 1 $T0 .raSearch = $eip $T0 ^ = $esp $T0 4 + =  $23 $T0 4 - ^ = 
STACK WIN 4 17645 7 0 0 0 0 0 0 1 $T0 .raSearch = $eip $T0 ^ = $esp $T0 4 + = 
STACK WIN 4 1764c 16 0 0 0 0 0 0 1 $T0 .raSearch = $eip $T0 ^ = $esp $T0 4 + = 
STACK WIN 4 17667 16 0 0 0 0 0 0 1 $T0 .raSearch = $eip $T0 ^ = $esp $T0 4 + = 
STACK WIN 4 17682 6 0 0 0 0 0 0 1 $T0 .raSearch = $eip $T0 ^ = $esp $T0 4 + = 
STACK WIN 4 17688 6 0 0 0 0 0 0 1 $T0 .raSearch = $eip $T0 ^ = $esp $T0 4 + = 
STACK WIN 4 1768e 6 0 0 0 0 0 0 1 $T0 .raSearch = $eip $T0 ^ = $esp $T0 4 + = 
STACK WIN 4 17694 5 0 0 4 0 0 0 1 $T0 .raSearch = $eip $T0 ^ = $esp $T0 4 + = 
STACK WIN 4 17699 3 0 0 4 0 0 0 1 $T0 .raSearch = $eip $T0 ^ = $esp $T0 4 + = 
STACK WIN 4 1769c b 5 0 8 0 0 0 1 $T0 $ebp = $eip $T0 4 + ^ = $ebp $T0 ^ = $esp $T0 8 + = 
STACK WIN 4 176a9 b 5 0 8 0 0 0 1 $T0 $ebp = $eip $T0 4 + ^ = $ebp $T0 ^ = $esp $T0 8 + = 
STACK WIN 4 176b6 3 0 0 0 0 0 0 1 $T0 .raSearch = $eip $T0 ^ = $esp $T0 4 + = 
STACK WIN 4 176b9 3 0 0 0 0 0 0 1 $T0 .raSearch = $eip $T0 ^ = $esp $T0 4 + = 
STACK WIN 4 176bc 3 0 0 0 0 0 0 1 $T0 .raSearch = $eip $T0 ^ = $esp $T0 4 + = 
STACK WIN 4 176bf 3 0 0 0 0 0 0 1 $T0 .raSearch = $eip $T0 ^ = $esp $T0 4 + = 
STACK WIN 4 176c2 3 0 0 0 0 0 0 1 $T0 .raSearch = $eip $T0 ^ = $esp $T0 4 + = 
STACK WIN 4 176c5 6 0 0 4 0 0 0 1 $T0 .raSearch = $eip $T0 ^ = $esp $T0 4 + = 
STACK WIN 4 176cb 6 0 0 4 0 0 0 1 $T0 .raSearch = $eip $T0 ^ = $esp $T0 4 + = 
STACK WIN 4 176d1 6 0 0 4 0 0 0 1 $T0 .raSearch = $eip $T0 ^ = $esp $T0 4 + = 
STACK WIN 4 176d7 6 0 0 4 0 0 0 1 $T0 .raSearch = $eip $T0 ^ = $esp $T0 4 + = 
STACK WIN 4 176dd 7 0 0 0 0 0 0 1 $T0 .raSearch = $eip $T0 ^ = $esp $T0 4 + = 
STACK WIN 4 176e4 12 5 0 0 0 0 0 1 $T0 .raSearch = $eip $T0 ^ = $esp $T0 4 + = 
STACK WIN 4 176e7 e 2 0 0 4 0 0 1 $T0 .raSearch = $eip $T0 ^ = $esp $T0 4 + =  $23 $T0 4 - ^ = 
STACK WIN 4 176fa 12 5 0 0 0 0 0 1 $T0 .raSearch = $eip $T0 ^ = $esp $T0 4 + = 
STACK WIN 4 176fd e 2 0 0 4 0 0 1 $T0 .raSearch = $eip $T0 ^ = $esp $T0 4 + =  $23 $T0 4 - ^ = 
STACK WIN 4 17710 12 5 0 0 0 0 0 1 $T0 .raSearch = $eip $T0 ^ = $esp $T0 4 + = 
STACK WIN 4 17713 e 2 0 0 4 0 0 1 $T0 .raSearch = $eip $T0 ^ = $esp $T0 4 + =  $23 $T0 4 - ^ = 
STACK WIN 4 17726 17 5 0 4 0 0 0 1 $T0 $ebp = $eip $T0 4 + ^ = $ebp $T0 ^ = $esp $T0 8 + = 
STACK WIN 4 17742 3 0 0 4 0 0 0 1 $T0 .raSearch = $eip $T0 ^ = $esp $T0 4 + = 
STACK WIN 4 17745 4f 6 0 c 0 0 0 1 $T0 $ebp = $eip $T0 4 + ^ = $ebp $T0 ^ = $esp $T0 8 + = 
STACK WIN 4 1774b 47 0 0 c 4 0 0 1 $T0 $ebp = $eip $T0 4 + ^ = $ebp $T0 ^ = $esp $T0 8 + =  $23 $T0 4 - ^ = 
STACK WIN 4 177a7 b 5 0 4 0 0 0 1 $T0 $ebp = $eip $T0 4 + ^ = $ebp $T0 ^ = $esp $T0 8 + = 
STACK WIN 4 177b4 b 5 0 4 0 0 0 1 $T0 $ebp = $eip $T0 4 + ^ = $ebp $T0 ^ = $esp $T0 8 + = 
STACK WIN 4 177c1 f 5 0 4 0 0 0 1 $T0 $ebp = $eip $T0 4 + ^ = $ebp $T0 ^ = $esp $T0 8 + = 
STACK WIN 4 177d3 f 5 0 4 0 0 0 1 $T0 $ebp = $eip $T0 4 + ^ = $ebp $T0 ^ = $esp $T0 8 + = 
STACK WIN 4 177e5 12 5 0 4 0 0 0 1 $T0 $ebp = $eip $T0 4 + ^ = $ebp $T0 ^ = $esp $T0 8 + = 
STACK WIN 4 177fb 14 0 0 0 0 0 0 1 $T0 .raSearch = $eip $T0 ^ = $esp $T0 4 + = 
STACK WIN 4 17814 14 0 0 0 0 0 0 1 $T0 .raSearch = $eip $T0 ^ = $esp $T0 4 + = 
STACK WIN 4 1782d 2c 0 0 0 0 0 0 1 $T0 .raSearch = $eip $T0 ^ = $esp $T0 4 + = 
STACK WIN 4 17864 2c 0 0 0 0 0 0 1 $T0 .raSearch = $eip $T0 ^ = $esp $T0 4 + = 
STACK WIN 4 1789b 53 0 0 0 0 0 0 1 $T0 .raSearch = $eip $T0 ^ = $esp $T0 4 + = 
STACK WIN 4 178a8 45 0 0 0 4 0 0 1 $T0 .raSearch = $eip $T0 ^ = $esp $T0 4 + =  $23 $T0 4 - ^ = 
STACK WIN 4 178a9 43 0 0 0 8 0 0 1 $T0 .raSearch = $eip $T0 ^ = $esp $T0 4 + =  $23 $T0 4 - ^ =  $24 $T0 8 - ^ = 
STACK WIN 4 17902 4e 0 0 0 0 0 0 1 $T0 .raSearch = $eip $T0 ^ = $esp $T0 4 + = 
STACK WIN 4 1790f 40 0 0 0 4 0 0 1 $T0 .raSearch = $eip $T0 ^ = $esp $T0 4 + =  $23 $T0 4 - ^ = 
STACK WIN 4 17910 3e 0 0 0 8 0 0 1 $T0 .raSearch = $eip $T0 ^ = $esp $T0 4 + =  $23 $T0 4 - ^ =  $24 $T0 8 - ^ = 
STACK WIN 4 17963 34 6 0 4 0 0 0 1 $T0 $ebp = $eip $T0 4 + ^ = $ebp $T0 ^ = $esp $T0 8 + = 
STACK WIN 4 17969 2c 0 0 4 4 0 0 1 $T0 $ebp = $eip $T0 4 + ^ = $ebp $T0 ^ = $esp $T0 8 + =  $23 $T0 4 - ^ = 
STACK WIN 4 17975 1d 0 0 4 8 0 0 1 $T0 $ebp = $eip $T0 4 + ^ = $ebp $T0 ^ = $esp $T0 8 + =  $23 $T0 4 - ^ =  $24 $T0 8 - ^ = 
STACK WIN 4 179a4 49 7 0 4 0 0 0 1 $T0 $ebp = $eip $T0 4 + ^ = $ebp $T0 ^ = $esp $T0 8 + = 
STACK WIN 4 179aa 41 1 0 4 4 0 0 1 $T0 $ebp = $eip $T0 4 + ^ = $ebp $T0 ^ = $esp $T0 8 + =  $20 $T0 4 - ^ = 
STACK WIN 4 179ab 3d 0 0 4 8 0 0 1 $T0 $ebp = $eip $T0 4 + ^ = $ebp $T0 ^ = $esp $T0 8 + =  $20 $T0 4 - ^ =  $23 $T0 8 - ^ = 
STACK WIN 4 179bb 2c 0 0 4 c 0 0 1 $T0 $ebp = $eip $T0 4 + ^ = $ebp $T0 ^ = $esp $T0 8 + =  $20 $T0 4 - ^ =  $23 $T0 8 - ^ =  $24 $T0 12 - ^ = 
STACK WIN 4 179ff d0 f 0 4 0 8 0 1 $T0 $ebp = $eip $T0 4 + ^ = $ebp $T0 ^ = $esp $T0 8 + = 
STACK WIN 4 17a07 b9 7 0 4 4 8 0 1 $T0 $ebp = $eip $T0 4 + ^ = $ebp $T0 ^ = $esp $T0 8 + =  $20 $T0 12 - ^ = 
STACK WIN 4 17a0d b2 1 0 4 8 8 0 1 $T0 $ebp = $eip $T0 4 + ^ = $ebp $T0 ^ = $esp $T0 8 + =  $20 $T0 12 - ^ =  $23 $T0 16 - ^ = 
STACK WIN 4 17a0e b0 0 0 4 c 8 0 1 $T0 $ebp = $eip $T0 4 + ^ = $ebp $T0 ^ = $esp $T0 8 + =  $20 $T0 12 - ^ =  $23 $T0 16 - ^ =  $24 $T0 20 - ^ = 
STACK WIN 4 17b03 10d 15 0 4 0 c 0 1 $T0 $ebp = $eip $T0 4 + ^ = $ebp $T0 ^ = $esp $T0 8 + = 
STACK WIN 4 17b0c f5 c 0 4 4 c 0 1 $T0 $ebp = $eip $T0 4 + ^ = $ebp $T0 ^ = $esp $T0 8 + =  $20 $T0 16 - ^ = 
STACK WIN 4 17b17 e9 1 0 4 8 c 0 1 $T0 $ebp = $eip $T0 4 + ^ = $ebp $T0 ^ = $esp $T0 8 + =  $20 $T0 16 - ^ =  $23 $T0 20 - ^ = 
STACK WIN 4 17b18 e7 0 0 4 c c 0 1 $T0 $ebp = $eip $T0 4 + ^ = $ebp $T0 ^ = $esp $T0 8 + =  $20 $T0 16 - ^ =  $23 $T0 20 - ^ =  $24 $T0 24 - ^ = 
STACK WIN 4 17c53 2f 6 0 4 0 0 0 1 $T0 $ebp = $eip $T0 4 + ^ = $ebp $T0 ^ = $esp $T0 8 + = 
STACK WIN 4 17c59 27 0 0 4 4 0 0 1 $T0 $ebp = $eip $T0 4 + ^ = $ebp $T0 ^ = $esp $T0 8 + =  $23 $T0 4 - ^ = 
STACK WIN 4 17c63 1c 0 0 4 8 0 0 1 $T0 $ebp = $eip $T0 4 + ^ = $ebp $T0 ^ = $esp $T0 8 + =  $23 $T0 4 - ^ =  $24 $T0 8 - ^ = 
STACK WIN 4 17c8d 2f 6 0 4 0 0 0 1 $T0 $ebp = $eip $T0 4 + ^ = $ebp $T0 ^ = $esp $T0 8 + = 
STACK WIN 4 17c93 27 0 0 4 4 0 0 1 $T0 $ebp = $eip $T0 4 + ^ = $ebp $T0 ^ = $esp $T0 8 + =  $23 $T0 4 - ^ = 
STACK WIN 4 17c9d 1c 0 0 4 8 0 0 1 $T0 $ebp = $eip $T0 4 + ^ = $ebp $T0 ^ = $esp $T0 8 + =  $23 $T0 4 - ^ =  $24 $T0 8 - ^ = 
STACK WIN 4 17cc7 5 0 0 0 0 0 0 1 $T0 .raSearch = $eip $T0 ^ = $esp $T0 4 + = 
STACK WIN 4 17ccc 5 0 0 0 0 0 0 1 $T0 .raSearch = $eip $T0 ^ = $esp $T0 4 + = 
STACK WIN 4 17cd1 83 5 0 0 0 0 0 1 $T0 .raSearch = $eip $T0 ^ = $esp $T0 4 + = 
STACK WIN 4 17cd4 7f 2 0 0 4 0 0 1 $T0 .raSearch = $eip $T0 ^ = $esp $T0 4 + =  $20 $T0 4 - ^ = 
STACK WIN 4 17cd5 7d 1 0 0 8 0 0 1 $T0 .raSearch = $eip $T0 ^ = $esp $T0 4 + =  $20 $T0 4 - ^ =  $23 $T0 8 - ^ = 
STACK WIN 4 17cd6 7b 0 0 0 c 0 0 1 $T0 .raSearch = $eip $T0 ^ = $esp $T0 4 + =  $20 $T0 4 - ^ =  $23 $T0 8 - ^ =  $24 $T0 12 - ^ = 
STACK WIN 4 17d74 7d 5 0 0 0 0 0 1 $T0 .raSearch = $eip $T0 ^ = $esp $T0 4 + = 
STACK WIN 4 17d77 79 2 0 0 4 0 0 1 $T0 .raSearch = $eip $T0 ^ = $esp $T0 4 + =  $20 $T0 4 - ^ = 
STACK WIN 4 17d78 77 1 0 0 8 0 0 1 $T0 .raSearch = $eip $T0 ^ = $esp $T0 4 + =  $20 $T0 4 - ^ =  $23 $T0 8 - ^ = 
STACK WIN 4 17d79 75 0 0 0 c 0 0 1 $T0 .raSearch = $eip $T0 ^ = $esp $T0 4 + =  $20 $T0 4 - ^ =  $23 $T0 8 - ^ =  $24 $T0 12 - ^ = 
STACK WIN 4 17e10 18 5 0 8 0 0 0 1 $T0 $ebp = $eip $T0 4 + ^ = $ebp $T0 ^ = $esp $T0 8 + = 
STACK WIN 4 17e2e 18 5 0 8 0 0 0 1 $T0 $ebp = $eip $T0 4 + ^ = $ebp $T0 ^ = $esp $T0 8 + = 
STACK WIN 4 17e4c 1e 5 0 c 0 0 0 1 $T0 $ebp = $eip $T0 4 + ^ = $ebp $T0 ^ = $esp $T0 8 + = 
STACK WIN 4 17e71 1e 5 0 c 0 0 0 1 $T0 $ebp = $eip $T0 4 + ^ = $ebp $T0 ^ = $esp $T0 8 + = 
STACK WIN 4 17e96 18 5 0 4 0 0 0 1 $T0 $ebp = $eip $T0 4 + ^ = $ebp $T0 ^ = $esp $T0 8 + = 
STACK WIN 4 17eb4 1e 5 0 4 0 0 0 1 $T0 $ebp = $eip $T0 4 + ^ = $ebp $T0 ^ = $esp $T0 8 + = 
STACK WIN 4 17ed9 29 8 0 4 0 0 0 1 $T0 $ebp = $eip $T0 4 + ^ = $ebp $T0 ^ = $esp $T0 8 + = 
STACK WIN 4 17edf 1f 2 0 4 4 0 0 1 $T0 $ebp = $eip $T0 4 + ^ = $ebp $T0 ^ = $esp $T0 8 + =  $23 $T0 4 - ^ = 
STACK WIN 4 17ee2 1b 0 0 4 8 0 0 1 $T0 $ebp = $eip $T0 4 + ^ = $ebp $T0 ^ = $esp $T0 8 + =  $23 $T0 4 - ^ =  $24 $T0 8 - ^ = 
STACK WIN 4 17f0c 29 8 0 4 0 0 0 1 $T0 $ebp = $eip $T0 4 + ^ = $ebp $T0 ^ = $esp $T0 8 + = 
STACK WIN 4 17f12 1f 2 0 4 4 0 0 1 $T0 $ebp = $eip $T0 4 + ^ = $ebp $T0 ^ = $esp $T0 8 + =  $23 $T0 4 - ^ = 
STACK WIN 4 17f15 1b 0 0 4 8 0 0 1 $T0 $ebp = $eip $T0 4 + ^ = $ebp $T0 ^ = $esp $T0 8 + =  $23 $T0 4 - ^ =  $24 $T0 8 - ^ = 
STACK WIN 4 17f3f 1b 5 0 4 0 0 0 1 $T0 $ebp = $eip $T0 4 + ^ = $ebp $T0 ^ = $esp $T0 8 + = 
STACK WIN 4 17f60 1b 5 0 4 0 0 0 1 $T0 $ebp = $eip $T0 4 + ^ = $ebp $T0 ^ = $esp $T0 8 + = 
STACK WIN 4 17f81 10 5 0 4 0 0 0 1 $T0 $ebp = $eip $T0 4 + ^ = $ebp $T0 ^ = $esp $T0 8 + = 
STACK WIN 4 17f95 12 5 0 0 0 0 0 1 $T0 .raSearch = $eip $T0 ^ = $esp $T0 4 + = 
STACK WIN 4 17f98 e 2 0 0 4 0 0 1 $T0 .raSearch = $eip $T0 ^ = $esp $T0 4 + =  $23 $T0 4 - ^ = 
STACK WIN 4 17fab 7 0 0 0 0 0 0 1 $T0 .raSearch = $eip $T0 ^ = $esp $T0 4 + = 
STACK WIN 4 17fb2 7 0 0 0 0 0 0 1 $T0 .raSearch = $eip $T0 ^ = $esp $T0 4 + = 
STACK WIN 4 17fb9 7 0 0 0 0 0 0 1 $T0 .raSearch = $eip $T0 ^ = $esp $T0 4 + = 
STACK WIN 4 17fc0 1c 5 0 8 0 0 0 1 $T0 $ebp = $eip $T0 4 + ^ = $ebp $T0 ^ = $esp $T0 8 + = 
STACK WIN 4 17fe3 1e 5 0 8 0 0 0 1 $T0 $ebp = $eip $T0 4 + ^ = $ebp $T0 ^ = $esp $T0 8 + = 
STACK WIN 4 18008 1f 5 0 10 0 0 0 1 $T0 $ebp = $eip $T0 4 + ^ = $ebp $T0 ^ = $esp $T0 8 + = 
STACK WIN 4 1802e 22 5 0 10 0 0 0 1 $T0 $ebp = $eip $T0 4 + ^ = $ebp $T0 ^ = $esp $T0 8 + = 
STACK WIN 4 18058 6 0 0 0 0 0 0 1 $T0 .raSearch = $eip $T0 ^ = $esp $T0 4 + = 
STACK WIN 4 1805e 6 0 0 0 0 0 0 1 $T0 .raSearch = $eip $T0 ^ = $esp $T0 4 + = 
STACK WIN 4 18064 3 0 0 0 0 0 0 1 $T0 .raSearch = $eip $T0 ^ = $esp $T0 4 + = 
STACK WIN 4 18067 6 0 0 4 0 0 0 1 $T0 .raSearch = $eip $T0 ^ = $esp $T0 4 + = 
STACK WIN 4 1806d 6 0 0 4 0 0 0 1 $T0 .raSearch = $eip $T0 ^ = $esp $T0 4 + = 
STACK WIN 4 18073 6 0 0 4 0 0 0 1 $T0 .raSearch = $eip $T0 ^ = $esp $T0 4 + = 
STACK WIN 4 18079 6 0 0 4 0 0 0 1 $T0 .raSearch = $eip $T0 ^ = $esp $T0 4 + = 
STACK WIN 4 1807f 6 0 0 4 0 0 0 1 $T0 .raSearch = $eip $T0 ^ = $esp $T0 4 + = 
STACK WIN 4 18085 6 0 0 4 0 0 0 1 $T0 .raSearch = $eip $T0 ^ = $esp $T0 4 + = 
STACK WIN 4 1808b 26 d 0 4 0 0 0 1 $T0 $ebp = $eip $T0 4 + ^ = $ebp $T0 ^ = $esp $T0 8 + = 
STACK WIN 4 18098 15 0 0 4 4 0 0 1 $T0 $ebp = $eip $T0 4 + ^ = $ebp $T0 ^ = $esp $T0 8 + =  $23 $T0 4 - ^ = 
STACK WIN 4 180ba 26 d 0 4 0 0 0 1 $T0 $ebp = $eip $T0 4 + ^ = $ebp $T0 ^ = $esp $T0 8 + = 
STACK WIN 4 180c7 15 0 0 4 4 0 0 1 $T0 $ebp = $eip $T0 4 + ^ = $ebp $T0 ^ = $esp $T0 8 + =  $23 $T0 4 - ^ = 
STACK WIN 4 180e9 7 0 0 0 0 0 0 1 $T0 .raSearch = $eip $T0 ^ = $esp $T0 4 + = 
STACK WIN 4 180f0 7 0 0 0 0 0 0 1 $T0 .raSearch = $eip $T0 ^ = $esp $T0 4 + = 
STACK WIN 4 180f7 7 0 0 0 0 0 0 1 $T0 .raSearch = $eip $T0 ^ = $esp $T0 4 + = 
STACK WIN 4 180fe 5 0 0 4 0 0 0 1 $T0 .raSearch = $eip $T0 ^ = $esp $T0 4 + = 
STACK WIN 4 18103 3 0 0 4 0 0 0 1 $T0 .raSearch = $eip $T0 ^ = $esp $T0 4 + = 
STACK WIN 4 18106 12 5 0 0 0 0 0 1 $T0 .raSearch = $eip $T0 ^ = $esp $T0 4 + = 
STACK WIN 4 18109 e 2 0 0 4 0 0 1 $T0 .raSearch = $eip $T0 ^ = $esp $T0 4 + =  $23 $T0 4 - ^ = 
STACK WIN 4 1811c 3 0 0 0 0 0 0 1 $T0 .raSearch = $eip $T0 ^ = $esp $T0 4 + = 
STACK WIN 4 1811f 3 0 0 0 0 0 0 1 $T0 .raSearch = $eip $T0 ^ = $esp $T0 4 + = 
STACK WIN 4 18122 5 0 0 0 0 0 0 1 $T0 .raSearch = $eip $T0 ^ = $esp $T0 4 + = 
STACK WIN 4 18127 5 0 0 0 0 0 0 1 $T0 .raSearch = $eip $T0 ^ = $esp $T0 4 + = 
STACK WIN 4 1812c 37 0 0 0 0 0 0 1 $T0 .raSearch = $eip $T0 ^ = $esp $T0 4 + = 
STACK WIN 4 18170 6 0 0 0 0 0 0 1 $T0 .raSearch = $eip $T0 ^ = $esp $T0 4 + = 
STACK WIN 4 18176 6 0 0 0 0 0 0 1 $T0 .raSearch = $eip $T0 ^ = $esp $T0 4 + = 
STACK WIN 4 1817c 14 0 0 0 0 0 0 1 $T0 .raSearch = $eip $T0 ^ = $esp $T0 4 + = 
STACK WIN 4 18195 14 0 0 0 0 0 0 1 $T0 .raSearch = $eip $T0 ^ = $esp $T0 4 + = 
STACK WIN 4 181ae 5 0 0 0 0 0 0 1 $T0 .raSearch = $eip $T0 ^ = $esp $T0 4 + = 
STACK WIN 4 181b3 5 0 0 0 0 0 0 1 $T0 .raSearch = $eip $T0 ^ = $esp $T0 4 + = 
STACK WIN 4 181b8 22 5 0 18 0 0 0 1 $T0 $ebp = $eip $T0 4 + ^ = $ebp $T0 ^ = $esp $T0 8 + = 
STACK WIN 4 181e2 6 0 0 0 0 0 0 1 $T0 .raSearch = $eip $T0 ^ = $esp $T0 4 + = 
STACK WIN 4 181e8 12 5 0 4 0 0 0 1 $T0 $ebp = $eip $T0 4 + ^ = $ebp $T0 ^ = $esp $T0 8 + = 
STACK WIN 4 181fe 5b c 0 c 10 1c 0 1 $T0 $ebp = $eip $T0 4 + ^ = $ebp $T0 ^ = $esp $T0 8 + =  $20 $T0 32 - ^ =  $23 $T0 36 - ^ =  $24 $T0 40 - ^ = 
STACK WIN 4 1824a e 0 0 c 10 1c 0 1 $T0 $ebp = $T2 $esp = $T1 .raSearchStart = $eip $T1 ^ = $ebp $T0 = $esp $T1 4 + = 
STACK WIN 4 1826f 5b c 0 c 10 1c 0 1 $T0 $ebp = $eip $T0 4 + ^ = $ebp $T0 ^ = $esp $T0 8 + =  $20 $T0 32 - ^ =  $23 $T0 36 - ^ =  $24 $T0 40 - ^ = 
STACK WIN 4 182bb e 0 0 c 10 1c 0 1 $T0 $ebp = $T2 $esp = $T1 .raSearchStart = $eip $T1 ^ = $ebp $T0 = $esp $T1 4 + = 
STACK WIN 4 182e0 26 8 0 8 0 c 0 1 $T0 $ebp = $eip $T0 4 + ^ = $ebp $T0 ^ = $esp $T0 8 + = 
STACK WIN 4 1830f 26 8 0 8 0 c 0 1 $T0 $ebp = $eip $T0 4 + ^ = $ebp $T0 ^ = $esp $T0 8 + = 
STACK WIN 4 1833e 1f 5 0 4 0 0 0 1 $T0 $ebp = $eip $T0 4 + ^ = $ebp $T0 ^ = $esp $T0 8 + = 
STACK WIN 4 18364 12 5 0 4 0 0 0 1 $T0 $ebp = $eip $T0 4 + ^ = $ebp $T0 ^ = $esp $T0 8 + = 
STACK WIN 4 1837a 12 5 0 4 0 0 0 1 $T0 $ebp = $eip $T0 4 + ^ = $ebp $T0 ^ = $esp $T0 8 + = 
STACK WIN 4 18390 16 5 0 8 0 0 0 1 $T0 $ebp = $eip $T0 4 + ^ = $ebp $T0 ^ = $esp $T0 8 + = 
STACK WIN 4 183ab 12 5 0 4 0 0 0 1 $T0 $ebp = $eip $T0 4 + ^ = $ebp $T0 ^ = $esp $T0 8 + = 
STACK WIN 4 183c1 12 5 0 4 0 0 0 1 $T0 $ebp = $eip $T0 4 + ^ = $ebp $T0 ^ = $esp $T0 8 + = 
STACK WIN 4 183d7 10 5 0 4 0 0 0 1 $T0 $ebp = $eip $T0 4 + ^ = $ebp $T0 ^ = $esp $T0 8 + = 
STACK WIN 4 183eb 10 5 0 4 0 0 0 1 $T0 $ebp = $eip $T0 4 + ^ = $ebp $T0 ^ = $esp $T0 8 + = 
STACK WIN 4 183ff 12 5 0 0 0 0 0 1 $T0 .raSearch = $eip $T0 ^ = $esp $T0 4 + = 
STACK WIN 4 18402 e 2 0 0 4 0 0 1 $T0 .raSearch = $eip $T0 ^ = $esp $T0 4 + =  $23 $T0 4 - ^ = 
STACK WIN 4 18415 3 0 0 0 0 0 0 1 $T0 .raSearch = $eip $T0 ^ = $esp $T0 4 + = 
STACK WIN 4 18418 9 0 0 0 0 0 0 1 $T0 .raSearch = $eip $T0 ^ = $esp $T0 4 + = 
STACK WIN 4 18423 9 0 0 0 0 0 0 1 $T0 .raSearch = $eip $T0 ^ = $esp $T0 4 + = 
STACK WIN 4 1842e 129 d 0 0 0 c 0 1 $T0 $ebp = $eip $T0 4 + ^ = $ebp $T0 ^ = $esp $T0 8 + = 
STACK WIN 4 1843c 119 0 0 0 4 c 0 1 $T0 $ebp = $eip $T0 4 + ^ = $ebp $T0 ^ = $esp $T0 8 + =  $20 $T0 16 - ^ = 
STACK WIN 4 1843d 117 0 0 0 8 c 0 1 $T0 $ebp = $eip $T0 4 + ^ = $ebp $T0 ^ = $esp $T0 8 + =  $20 $T0 16 - ^ =  $23 $T0 20 - ^ = 
STACK WIN 4 18440 113 0 0 0 c c 0 1 $T0 $ebp = $eip $T0 4 + ^ = $ebp $T0 ^ = $esp $T0 8 + =  $20 $T0 16 - ^ =  $23 $T0 20 - ^ =  $24 $T0 24 - ^ = 
STACK WIN 4 185a1 9 0 0 0 0 0 0 1 $T0 .raSearch = $eip $T0 ^ = $esp $T0 4 + = 
STACK WIN 4 185ac 9 0 0 0 0 0 0 1 $T0 .raSearch = $eip $T0 ^ = $esp $T0 4 + = 
STACK WIN 4 185b7 da f 0 0 0 14 0 1 $T0 $ebp = $eip $T0 4 + ^ = $ebp $T0 ^ = $esp $T0 8 + = 
STACK WIN 4 185c0 cf 6 0 0 4 14 0 1 $T0 $ebp = $eip $T0 4 + ^ = $ebp $T0 ^ = $esp $T0 8 + =  $20 $T0 24 - ^ = 
STACK WIN 4 185c3 cb 3 0 0 8 14 0 1 $T0 $ebp = $eip $T0 4 + ^ = $ebp $T0 ^ = $esp $T0 8 + =  $20 $T0 24 - ^ =  $24 $T0 28 - ^ = 
STACK WIN 4 185df ae 0 0 0 c 14 0 1 $T0 $ebp = $eip $T0 4 + ^ = $ebp $T0 ^ = $esp $T0 8 + =  $20 $T0 24 - ^ =  $24 $T0 28 - ^ =  $23 $T0 32 - ^ = 
STACK WIN 4 186c7 6 0 0 0 0 0 0 1 $T0 .raSearch = $eip $T0 ^ = $esp $T0 4 + = 
STACK WIN 4 186cd 12 5 0 0 0 0 0 1 $T0 .raSearch = $eip $T0 ^ = $esp $T0 4 + = 
STACK WIN 4 186d0 e 2 0 0 4 0 0 1 $T0 .raSearch = $eip $T0 ^ = $esp $T0 4 + =  $23 $T0 4 - ^ = 
STACK WIN 4 186e3 16 5 0 4 0 0 0 1 $T0 $ebp = $eip $T0 4 + ^ = $ebp $T0 ^ = $esp $T0 8 + = 
STACK WIN 4 186fe 16 5 0 4 0 0 0 1 $T0 $ebp = $eip $T0 4 + ^ = $ebp $T0 ^ = $esp $T0 8 + = 
STACK WIN 4 18719 2d 8 0 4 0 10 0 1 $T0 $ebp = $eip $T0 4 + ^ = $ebp $T0 ^ = $esp $T0 8 + = 
STACK WIN 4 18751 29 5 0 4 0 0 0 1 $T0 $ebp = $eip $T0 4 + ^ = $ebp $T0 ^ = $esp $T0 8 + = 
STACK WIN 4 18784 33 8 0 8 0 14 0 1 $T0 $ebp = $eip $T0 4 + ^ = $ebp $T0 ^ = $esp $T0 8 + = 
STACK WIN 4 187c3 3 0 0 4 0 0 0 1 $T0 .raSearch = $eip $T0 ^ = $esp $T0 4 + = 
STACK WIN 4 187c6 d 0 0 0 0 0 0 1 $T0 .raSearch = $eip $T0 ^ = $esp $T0 4 + = 
STACK WIN 4 187d6 1a 0 0 0 0 0 0 1 $T0 .raSearch = $eip $T0 ^ = $esp $T0 4 + = 
STACK WIN 4 187f6 3 0 0 4 0 0 0 1 $T0 .raSearch = $eip $T0 ^ = $esp $T0 4 + = 
STACK WIN 4 187f9 3 0 0 0 0 0 0 1 $T0 .raSearch = $eip $T0 ^ = $esp $T0 4 + = 
STACK WIN 4 187fc 8 0 0 4 0 0 0 1 $T0 .raSearch = $eip $T0 ^ = $esp $T0 4 + = 
STACK WIN 4 18806 3 0 0 0 0 0 0 1 $T0 .raSearch = $eip $T0 ^ = $esp $T0 4 + = 
STACK WIN 4 18809 3 0 0 4 0 0 0 1 $T0 .raSearch = $eip $T0 ^ = $esp $T0 4 + = 
STACK WIN 4 1880c 2e 3 0 0 0 0 0 1 $T0 .raSearch = $eip $T0 ^ = $esp $T0 4 + = 
STACK WIN 4 1880f 2a 0 0 0 4 0 0 1 $T0 .raSearch = $eip $T0 ^ = $esp $T0 4 + =  $23 $T0 4 - ^ = 
STACK WIN 4 18845 9 0 0 4 0 0 0 1 $T0 .raSearch = $eip $T0 ^ = $esp $T0 4 + = 
STACK WIN 4 18850 17 6 0 4 0 4 0 1 $T0 $ebp = $eip $T0 4 + ^ = $ebp $T0 ^ = $esp $T0 8 + = 
STACK WIN 4 1886c 50 3 0 4 0 0 0 1 $T0 .raSearch = $eip $T0 ^ = $esp $T0 4 + = 
STACK WIN 4 1886f 4c 0 0 4 4 0 0 1 $T0 .raSearch = $eip $T0 ^ = $esp $T0 4 + =  $23 $T0 4 - ^ = 
STACK WIN 4 188d0 24 8 0 4 0 0 0 1 $T0 $ebp = $eip $T0 4 + ^ = $ebp $T0 ^ = $esp $T0 8 + = 
STACK WIN 4 188d6 1a 2 0 4 4 0 0 1 $T0 $ebp = $eip $T0 4 + ^ = $ebp $T0 ^ = $esp $T0 8 + =  $23 $T0 4 - ^ = 
STACK WIN 4 188d9 16 0 0 4 8 0 0 1 $T0 $ebp = $eip $T0 4 + ^ = $ebp $T0 ^ = $esp $T0 8 + =  $23 $T0 4 - ^ =  $24 $T0 8 - ^ = 
STACK WIN 4 188fd 2e 6 0 4 0 0 0 1 $T0 $ebp = $eip $T0 4 + ^ = $ebp $T0 ^ = $esp $T0 8 + = 
STACK WIN 4 18903 24 0 0 4 4 0 0 1 $T0 $ebp = $eip $T0 4 + ^ = $ebp $T0 ^ = $esp $T0 8 + =  $23 $T0 4 - ^ = 
STACK WIN 4 18912 14 0 0 4 8 0 0 1 $T0 $ebp = $eip $T0 4 + ^ = $ebp $T0 ^ = $esp $T0 8 + =  $23 $T0 4 - ^ =  $24 $T0 8 - ^ = 
STACK WIN 4 18936 b 0 0 0 0 0 0 1 $T0 .raSearch = $eip $T0 ^ = $esp $T0 4 + = 
STACK WIN 4 18943 26 d 0 4 0 0 0 1 $T0 $ebp = $eip $T0 4 + ^ = $ebp $T0 ^ = $esp $T0 8 + = 
STACK WIN 4 18950 15 0 0 4 4 0 0 1 $T0 $ebp = $eip $T0 4 + ^ = $ebp $T0 ^ = $esp $T0 8 + =  $23 $T0 4 - ^ = 
STACK WIN 4 18972 12 0 0 0 0 0 0 1 $T0 .raSearch = $eip $T0 ^ = $esp $T0 4 + = 
STACK WIN 4 18988 b 0 0 0 0 0 0 1 $T0 .raSearch = $eip $T0 ^ = $esp $T0 4 + = 
STACK WIN 4 18995 8 0 0 0 0 0 0 1 $T0 .raSearch = $eip $T0 ^ = $esp $T0 4 + = 
STACK WIN 4 1899f 30 5 0 4 0 0 0 1 $T0 $ebp = $eip $T0 4 + ^ = $ebp $T0 ^ = $esp $T0 8 + = 
STACK WIN 4 189db 12 5 0 4 0 0 0 1 $T0 $ebp = $eip $T0 4 + ^ = $ebp $T0 ^ = $esp $T0 8 + = 
STACK WIN 4 189f1 16 5 0 4 0 0 0 1 $T0 $ebp = $eip $T0 4 + ^ = $ebp $T0 ^ = $esp $T0 8 + = 
STACK WIN 4 18a0c 12 0 0 0 0 0 0 1 $T0 .raSearch = $eip $T0 ^ = $esp $T0 4 + = 
STACK WIN 4 18a22 20 5 0 4 0 0 0 1 $T0 $ebp = $eip $T0 4 + ^ = $ebp $T0 ^ = $esp $T0 8 + = 
STACK WIN 4 18a4a 3c c 0 0 10 18 0 1 $T0 $ebp = $eip $T0 4 + ^ = $ebp $T0 ^ = $esp $T0 8 + =  $20 $T0 28 - ^ =  $23 $T0 32 - ^ =  $24 $T0 36 - ^ = 
STACK WIN 4 18a72 4 0 0 0 10 18 0 1 $T0 $ebp = $T2 $esp = $T1 .raSearchStart = $eip $T1 ^ = $ebp $T0 = $esp $T1 4 + = 
STACK WIN 4 18a95 b 5 0 4 0 0 0 1 $T0 $ebp = $eip $T0 4 + ^ = $ebp $T0 ^ = $esp $T0 8 + = 
STACK WIN 4 18aa2 5a 9 0 c 0 0 0 1 $T0 $ebp = $eip $T0 4 + ^ = $ebp $T0 ^ = $esp $T0 8 + = 
STACK WIN 4 18aab 27 0 0 c 4 0 0 1 $T0 $ebp = $eip $T0 4 + ^ = $ebp $T0 ^ = $esp $T0 8 + =  $23 $T0 4 - ^ = 
STACK WIN 4 18ad5 14 0 0 c 8 0 0 1 $T0 $ebp = $eip $T0 4 + ^ = $ebp $T0 ^ = $esp $T0 8 + =  $23 $T0 4 - ^ =  $24 $T0 8 - ^ = 
STACK WIN 4 18b12 5a 9 0 c 0 0 0 1 $T0 $ebp = $eip $T0 4 + ^ = $ebp $T0 ^ = $esp $T0 8 + = 
STACK WIN 4 18b1b 27 0 0 c 4 0 0 1 $T0 $ebp = $eip $T0 4 + ^ = $ebp $T0 ^ = $esp $T0 8 + =  $23 $T0 4 - ^ = 
STACK WIN 4 18b45 14 0 0 c 8 0 0 1 $T0 $ebp = $eip $T0 4 + ^ = $ebp $T0 ^ = $esp $T0 8 + =  $23 $T0 4 - ^ =  $24 $T0 8 - ^ = 
STACK WIN 4 18b82 23 b 0 14 0 0 0 1 $T0 $ebp = $eip $T0 4 + ^ = $ebp $T0 ^ = $esp $T0 8 + = 
STACK WIN 4 18b88 19 5 0 14 4 0 0 1 $T0 $ebp = $eip $T0 4 + ^ = $ebp $T0 ^ = $esp $T0 8 + =  $23 $T0 4 - ^ = 
STACK WIN 4 18bad 48 b 0 14 0 0 0 1 $T0 $ebp = $eip $T0 4 + ^ = $ebp $T0 ^ = $esp $T0 8 + = 
STACK WIN 4 18bb3 3e 5 0 14 4 0 0 1 $T0 $ebp = $eip $T0 4 + ^ = $ebp $T0 ^ = $esp $T0 8 + =  $23 $T0 4 - ^ = 
STACK WIN 4 18c07 35 b 0 14 0 0 0 1 $T0 $ebp = $eip $T0 4 + ^ = $ebp $T0 ^ = $esp $T0 8 + = 
STACK WIN 4 18c10 28 2 0 14 4 0 0 1 $T0 $ebp = $eip $T0 4 + ^ = $ebp $T0 ^ = $esp $T0 8 + =  $23 $T0 4 - ^ = 
STACK WIN 4 18c49 23 b 0 14 0 0 0 1 $T0 $ebp = $eip $T0 4 + ^ = $ebp $T0 ^ = $esp $T0 8 + = 
STACK WIN 4 18c4f 19 5 0 14 4 0 0 1 $T0 $ebp = $eip $T0 4 + ^ = $ebp $T0 ^ = $esp $T0 8 + =  $23 $T0 4 - ^ = 
STACK WIN 4 18c74 48 b 0 14 0 0 0 1 $T0 $ebp = $eip $T0 4 + ^ = $ebp $T0 ^ = $esp $T0 8 + = 
STACK WIN 4 18c7a 3e 5 0 14 4 0 0 1 $T0 $ebp = $eip $T0 4 + ^ = $ebp $T0 ^ = $esp $T0 8 + =  $23 $T0 4 - ^ = 
STACK WIN 4 18cce 35 b 0 14 0 0 0 1 $T0 $ebp = $eip $T0 4 + ^ = $ebp $T0 ^ = $esp $T0 8 + = 
STACK WIN 4 18cd7 28 2 0 14 4 0 0 1 $T0 $ebp = $eip $T0 4 + ^ = $ebp $T0 ^ = $esp $T0 8 + =  $23 $T0 4 - ^ = 
STACK WIN 4 18d10 23 b 0 14 0 0 0 1 $T0 $ebp = $eip $T0 4 + ^ = $ebp $T0 ^ = $esp $T0 8 + = 
STACK WIN 4 18d16 19 5 0 14 4 0 0 1 $T0 $ebp = $eip $T0 4 + ^ = $ebp $T0 ^ = $esp $T0 8 + =  $23 $T0 4 - ^ = 
STACK WIN 4 18d3b 48 b 0 14 0 0 0 1 $T0 $ebp = $eip $T0 4 + ^ = $ebp $T0 ^ = $esp $T0 8 + = 
STACK WIN 4 18d41 3e 5 0 14 4 0 0 1 $T0 $ebp = $eip $T0 4 + ^ = $ebp $T0 ^ = $esp $T0 8 + =  $23 $T0 4 - ^ = 
STACK WIN 4 18d95 35 b 0 14 0 0 0 1 $T0 $ebp = $eip $T0 4 + ^ = $ebp $T0 ^ = $esp $T0 8 + = 
STACK WIN 4 18d9e 28 2 0 14 4 0 0 1 $T0 $ebp = $eip $T0 4 + ^ = $ebp $T0 ^ = $esp $T0 8 + =  $23 $T0 4 - ^ = 
STACK WIN 4 18dd7 23 b 0 14 0 0 0 1 $T0 $ebp = $eip $T0 4 + ^ = $ebp $T0 ^ = $esp $T0 8 + = 
STACK WIN 4 18ddd 19 5 0 14 4 0 0 1 $T0 $ebp = $eip $T0 4 + ^ = $ebp $T0 ^ = $esp $T0 8 + =  $23 $T0 4 - ^ = 
STACK WIN 4 18e02 48 b 0 14 0 0 0 1 $T0 $ebp = $eip $T0 4 + ^ = $ebp $T0 ^ = $esp $T0 8 + = 
STACK WIN 4 18e08 3e 5 0 14 4 0 0 1 $T0 $ebp = $eip $T0 4 + ^ = $ebp $T0 ^ = $esp $T0 8 + =  $23 $T0 4 - ^ = 
STACK WIN 4 18e5c 35 b 0 14 0 0 0 1 $T0 $ebp = $eip $T0 4 + ^ = $ebp $T0 ^ = $esp $T0 8 + = 
STACK WIN 4 18e65 28 2 0 14 4 0 0 1 $T0 $ebp = $eip $T0 4 + ^ = $ebp $T0 ^ = $esp $T0 8 + =  $23 $T0 4 - ^ = 
STACK WIN 4 18e9e 5b c 0 c 10 1c 0 1 $T0 $ebp = $eip $T0 4 + ^ = $ebp $T0 ^ = $esp $T0 8 + =  $20 $T0 32 - ^ =  $23 $T0 36 - ^ =  $24 $T0 40 - ^ = 
STACK WIN 4 18eea e 0 0 c 10 1c 0 1 $T0 $ebp = $T2 $esp = $T1 .raSearchStart = $eip $T1 ^ = $ebp $T0 = $esp $T1 4 + = 
STACK WIN 4 18f0f 5b c 0 c 10 1c 0 1 $T0 $ebp = $eip $T0 4 + ^ = $ebp $T0 ^ = $esp $T0 8 + =  $20 $T0 32 - ^ =  $23 $T0 36 - ^ =  $24 $T0 40 - ^ = 
STACK WIN 4 18f5b e 0 0 c 10 1c 0 1 $T0 $ebp = $T2 $esp = $T1 .raSearchStart = $eip $T1 ^ = $ebp $T0 = $esp $T1 4 + = 
STACK WIN 4 18f80 5b c 0 c 10 1c 0 1 $T0 $ebp = $eip $T0 4 + ^ = $ebp $T0 ^ = $esp $T0 8 + =  $20 $T0 32 - ^ =  $23 $T0 36 - ^ =  $24 $T0 40 - ^ = 
STACK WIN 4 18fcc e 0 0 c 10 1c 0 1 $T0 $ebp = $T2 $esp = $T1 .raSearchStart = $eip $T1 ^ = $ebp $T0 = $esp $T1 4 + = 
STACK WIN 4 18ff1 5b c 0 c 10 1c 0 1 $T0 $ebp = $eip $T0 4 + ^ = $ebp $T0 ^ = $esp $T0 8 + =  $20 $T0 32 - ^ =  $23 $T0 36 - ^ =  $24 $T0 40 - ^ = 
STACK WIN 4 1903d e 0 0 c 10 1c 0 1 $T0 $ebp = $T2 $esp = $T1 .raSearchStart = $eip $T1 ^ = $ebp $T0 = $esp $T1 4 + = 
STACK WIN 4 19062 5b c 0 c 10 1c 0 1 $T0 $ebp = $eip $T0 4 + ^ = $ebp $T0 ^ = $esp $T0 8 + =  $20 $T0 32 - ^ =  $23 $T0 36 - ^ =  $24 $T0 40 - ^ = 
STACK WIN 4 190ae e 0 0 c 10 1c 0 1 $T0 $ebp = $T2 $esp = $T1 .raSearchStart = $eip $T1 ^ = $ebp $T0 = $esp $T1 4 + = 
STACK WIN 4 190d3 5b c 0 c 10 1c 0 1 $T0 $ebp = $eip $T0 4 + ^ = $ebp $T0 ^ = $esp $T0 8 + =  $20 $T0 32 - ^ =  $23 $T0 36 - ^ =  $24 $T0 40 - ^ = 
STACK WIN 4 1911f e 0 0 c 10 1c 0 1 $T0 $ebp = $T2 $esp = $T1 .raSearchStart = $eip $T1 ^ = $ebp $T0 = $esp $T1 4 + = 
STACK WIN 4 19144 26 8 0 8 0 c 0 1 $T0 $ebp = $eip $T0 4 + ^ = $ebp $T0 ^ = $esp $T0 8 + = 
STACK WIN 4 19173 26 8 0 8 0 c 0 1 $T0 $ebp = $eip $T0 4 + ^ = $ebp $T0 ^ = $esp $T0 8 + = 
STACK WIN 4 191a2 26 8 0 8 0 c 0 1 $T0 $ebp = $eip $T0 4 + ^ = $ebp $T0 ^ = $esp $T0 8 + = 
STACK WIN 4 191d1 26 8 0 8 0 c 0 1 $T0 $ebp = $eip $T0 4 + ^ = $ebp $T0 ^ = $esp $T0 8 + = 
STACK WIN 4 19200 26 8 0 8 0 c 0 1 $T0 $ebp = $eip $T0 4 + ^ = $ebp $T0 ^ = $esp $T0 8 + = 
STACK WIN 4 1922f 26 8 0 8 0 c 0 1 $T0 $ebp = $eip $T0 4 + ^ = $ebp $T0 ^ = $esp $T0 8 + = 
STACK WIN 4 1925e 64 b 0 18 0 20 0 1 $T0 $ebp = $eip $T0 4 + ^ = $ebp $T0 ^ = $esp $T0 8 + = 
STACK WIN 4 192db 64 b 0 18 0 20 0 1 $T0 $ebp = $eip $T0 4 + ^ = $ebp $T0 ^ = $esp $T0 8 + = 
STACK WIN 4 19358 64 b 0 18 0 20 0 1 $T0 $ebp = $eip $T0 4 + ^ = $ebp $T0 ^ = $esp $T0 8 + = 
STACK WIN 4 193d5 64 b 0 18 0 20 0 1 $T0 $ebp = $eip $T0 4 + ^ = $ebp $T0 ^ = $esp $T0 8 + = 
STACK WIN 4 19452 64 b 0 18 0 20 0 1 $T0 $ebp = $eip $T0 4 + ^ = $ebp $T0 ^ = $esp $T0 8 + = 
STACK WIN 4 194cf 64 b 0 18 0 20 0 1 $T0 $ebp = $eip $T0 4 + ^ = $ebp $T0 ^ = $esp $T0 8 + = 
STACK WIN 4 1954c e8 6 0 20 0 4 0 1 $T0 $ebp = $eip $T0 4 + ^ = $ebp $T0 ^ = $esp $T0 8 + = 
STACK WIN 4 1956e 8f 0 0 20 4 4 0 1 $T0 $ebp = $eip $T0 4 + ^ = $ebp $T0 ^ = $esp $T0 8 + =  $20 $T0 8 - ^ = 
STACK WIN 4 19572 8a 0 0 20 8 4 0 1 $T0 $ebp = $eip $T0 4 + ^ = $ebp $T0 ^ = $esp $T0 8 + =  $20 $T0 8 - ^ =  $23 $T0 12 - ^ = 
STACK WIN 4 19576 85 0 0 20 c 4 0 1 $T0 $ebp = $eip $T0 4 + ^ = $ebp $T0 ^ = $esp $T0 8 + =  $20 $T0 8 - ^ =  $23 $T0 12 - ^ =  $24 $T0 16 - ^ = 
STACK WIN 4 1966e ec 6 0 20 0 4 0 1 $T0 $ebp = $eip $T0 4 + ^ = $ebp $T0 ^ = $esp $T0 8 + = 
STACK WIN 4 19690 91 0 0 20 4 4 0 1 $T0 $ebp = $eip $T0 4 + ^ = $ebp $T0 ^ = $esp $T0 8 + =  $20 $T0 8 - ^ = 
STACK WIN 4 19694 8c 0 0 20 8 4 0 1 $T0 $ebp = $eip $T0 4 + ^ = $ebp $T0 ^ = $esp $T0 8 + =  $20 $T0 8 - ^ =  $23 $T0 12 - ^ = 
STACK WIN 4 19698 87 0 0 20 c 4 0 1 $T0 $ebp = $eip $T0 4 + ^ = $ebp $T0 ^ = $esp $T0 8 + =  $20 $T0 8 - ^ =  $23 $T0 12 - ^ =  $24 $T0 16 - ^ = 
STACK WIN 4 19795 17e 1d 0 1c 0 484 0 1 $T0 $ebp = $eip $T0 4 + ^ = $ebp $T0 ^ = $esp $T0 8 + = 
STACK WIN 4 197b2 13e 0 0 1c 4 484 0 1 $T0 $ebp = $eip $T0 4 + ^ = $ebp $T0 ^ = $esp $T0 8 + =  $20 $T0 1160 - ^ = 
STACK WIN 4 197de 12f 0 0 1c 8 484 0 1 $T0 $ebp = $eip $T0 4 + ^ = $ebp $T0 ^ = $esp $T0 8 + =  $20 $T0 1160 - ^ =  $23 $T0 1164 - ^ = 
STACK WIN 4 197df 108 0 0 1c c 484 0 1 $T0 $ebp = $eip $T0 4 + ^ = $ebp $T0 ^ = $esp $T0 8 + =  $20 $T0 1160 - ^ =  $23 $T0 1164 - ^ =  $24 $T0 1168 - ^ = 
STACK WIN 4 19972 187 1d 0 1c 0 484 0 1 $T0 $ebp = $eip $T0 4 + ^ = $ebp $T0 ^ = $esp $T0 8 + = 
STACK WIN 4 1998f 144 0 0 1c 4 484 0 1 $T0 $ebp = $eip $T0 4 + ^ = $ebp $T0 ^ = $esp $T0 8 + =  $20 $T0 1160 - ^ = 
STACK WIN 4 199bb 135 0 0 1c 8 484 0 1 $T0 $ebp = $eip $T0 4 + ^ = $ebp $T0 ^ = $esp $T0 8 + =  $20 $T0 1160 - ^ =  $23 $T0 1164 - ^ = 
STACK WIN 4 199bc 10e 0 0 1c c 484 0 1 $T0 $ebp = $eip $T0 4 + ^ = $ebp $T0 ^ = $esp $T0 8 + =  $20 $T0 1160 - ^ =  $23 $T0 1164 - ^ =  $24 $T0 1168 - ^ = 
STACK WIN 4 19b5a 1b0 1d 0 1c 0 af0 0 1 $T0 $ebp = $eip $T0 4 + ^ = $ebp $T0 ^ = $esp $T0 8 + = 
STACK WIN 4 19b73 174 4 0 1c 4 af0 0 1 $T0 $ebp = $eip $T0 4 + ^ = $ebp $T0 ^ = $esp $T0 8 + =  $20 $T0 2804 - ^ = 
STACK WIN 4 19b77 18d 0 0 1c 8 af0 0 1 $T0 $ebp = $eip $T0 4 + ^ = $ebp $T0 ^ = $esp $T0 8 + =  $20 $T0 2804 - ^ =  $23 $T0 2808 - ^ = 
STACK WIN 4 19ba5 12a 0 0 1c c af0 0 1 $T0 $ebp = $eip $T0 4 + ^ = $ebp $T0 ^ = $esp $T0 8 + =  $20 $T0 2804 - ^ =  $23 $T0 2808 - ^ =  $24 $T0 2812 - ^ = 
STACK WIN 4 19d76 1b9 1d 0 1c 0 af0 0 1 $T0 $ebp = $eip $T0 4 + ^ = $ebp $T0 ^ = $esp $T0 8 + = 
STACK WIN 4 19d8f 17a 4 0 1c 4 af0 0 1 $T0 $ebp = $eip $T0 4 + ^ = $ebp $T0 ^ = $esp $T0 8 + =  $20 $T0 2804 - ^ = 
STACK WIN 4 19d93 193 0 0 1c 8 af0 0 1 $T0 $ebp = $eip $T0 4 + ^ = $ebp $T0 ^ = $esp $T0 8 + =  $20 $T0 2804 - ^ =  $23 $T0 2808 - ^ = 
STACK WIN 4 19dc1 130 0 0 1c c af0 0 1 $T0 $ebp = $eip $T0 4 + ^ = $ebp $T0 ^ = $esp $T0 8 + =  $20 $T0 2804 - ^ =  $23 $T0 2808 - ^ =  $24 $T0 2812 - ^ = 
STACK WIN 4 19f9d 17e 1d 0 1c 0 484 0 1 $T0 $ebp = $eip $T0 4 + ^ = $ebp $T0 ^ = $esp $T0 8 + = 
STACK WIN 4 19fba 13e 0 0 1c 4 484 0 1 $T0 $ebp = $eip $T0 4 + ^ = $ebp $T0 ^ = $esp $T0 8 + =  $20 $T0 1160 - ^ = 
STACK WIN 4 19fe6 12f 0 0 1c 8 484 0 1 $T0 $ebp = $eip $T0 4 + ^ = $ebp $T0 ^ = $esp $T0 8 + =  $20 $T0 1160 - ^ =  $23 $T0 1164 - ^ = 
STACK WIN 4 19fe7 108 0 0 1c c 484 0 1 $T0 $ebp = $eip $T0 4 + ^ = $ebp $T0 ^ = $esp $T0 8 + =  $20 $T0 1160 - ^ =  $23 $T0 1164 - ^ =  $24 $T0 1168 - ^ = 
STACK WIN 4 1a17a 187 1d 0 1c 0 484 0 1 $T0 $ebp = $eip $T0 4 + ^ = $ebp $T0 ^ = $esp $T0 8 + = 
STACK WIN 4 1a197 144 0 0 1c 4 484 0 1 $T0 $ebp = $eip $T0 4 + ^ = $ebp $T0 ^ = $esp $T0 8 + =  $20 $T0 1160 - ^ = 
STACK WIN 4 1a1c3 135 0 0 1c 8 484 0 1 $T0 $ebp = $eip $T0 4 + ^ = $ebp $T0 ^ = $esp $T0 8 + =  $20 $T0 1160 - ^ =  $23 $T0 1164 - ^ = 
STACK WIN 4 1a1c4 10e 0 0 1c c 484 0 1 $T0 $ebp = $eip $T0 4 + ^ = $ebp $T0 ^ = $esp $T0 8 + =  $20 $T0 1160 - ^ =  $23 $T0 1164 - ^ =  $24 $T0 1168 - ^ = 
STACK WIN 4 1a362 78 5 0 1c 0 0 0 1 $T0 $ebp = $eip $T0 4 + ^ = $ebp $T0 ^ = $esp $T0 8 + = 
STACK WIN 4 1a383 55 0 0 1c 4 0 0 1 $T0 $ebp = $eip $T0 4 + ^ = $ebp $T0 ^ = $esp $T0 8 + =  $23 $T0 4 - ^ = 
STACK WIN 4 1a3f8 7a 5 0 1c 0 0 0 1 $T0 $ebp = $eip $T0 4 + ^ = $ebp $T0 ^ = $esp $T0 8 + = 
STACK WIN 4 1a419 57 0 0 1c 4 0 0 1 $T0 $ebp = $eip $T0 4 + ^ = $ebp $T0 ^ = $esp $T0 8 + =  $23 $T0 4 - ^ = 
STACK WIN 4 1a490 18 0 0 0 0 0 0 1 $T0 .raSearch = $eip $T0 ^ = $esp $T0 4 + = 
STACK WIN 4 1a4ae 19 0 0 0 0 0 0 1 $T0 .raSearch = $eip $T0 ^ = $esp $T0 4 + = 
STACK WIN 4 1a4cd d 0 0 0 0 0 0 1 $T0 .raSearch = $eip $T0 ^ = $esp $T0 4 + = 
STACK WIN 4 1a4dd d 0 0 0 0 0 0 1 $T0 .raSearch = $eip $T0 ^ = $esp $T0 4 + = 
STACK WIN 4 1a4ed 7d d 0 4 0 4 0 1 $T0 $ebp = $eip $T0 4 + ^ = $ebp $T0 ^ = $esp $T0 8 + = 
STACK WIN 4 1a4f4 72 6 0 4 4 4 0 1 $T0 $ebp = $eip $T0 4 + ^ = $ebp $T0 ^ = $esp $T0 8 + =  $23 $T0 8 - ^ = 
STACK WIN 4 1a4f8 6d 2 0 4 8 4 0 1 $T0 $ebp = $eip $T0 4 + ^ = $ebp $T0 ^ = $esp $T0 8 + =  $23 $T0 8 - ^ =  $24 $T0 12 - ^ = 
STACK WIN 4 1a512 52 0 0 4 c 4 0 1 $T0 $ebp = $eip $T0 4 + ^ = $ebp $T0 ^ = $esp $T0 8 + =  $23 $T0 8 - ^ =  $24 $T0 12 - ^ =  $20 $T0 16 - ^ = 
STACK WIN 4 1a589 7e d 0 4 0 4 0 1 $T0 $ebp = $eip $T0 4 + ^ = $ebp $T0 ^ = $esp $T0 8 + = 
STACK WIN 4 1a590 73 6 0 4 4 4 0 1 $T0 $ebp = $eip $T0 4 + ^ = $ebp $T0 ^ = $esp $T0 8 + =  $23 $T0 8 - ^ = 
STACK WIN 4 1a594 6e 2 0 4 8 4 0 1 $T0 $ebp = $eip $T0 4 + ^ = $ebp $T0 ^ = $esp $T0 8 + =  $23 $T0 8 - ^ =  $24 $T0 12 - ^ = 
STACK WIN 4 1a5ae 53 0 0 4 c 4 0 1 $T0 $ebp = $eip $T0 4 + ^ = $ebp $T0 ^ = $esp $T0 8 + =  $23 $T0 8 - ^ =  $24 $T0 12 - ^ =  $20 $T0 16 - ^ = 
STACK WIN 4 1a626 79 5 0 4 0 0 0 1 $T0 $ebp = $eip $T0 4 + ^ = $ebp $T0 ^ = $esp $T0 8 + = 
STACK WIN 4 1a6bd 79 5 0 4 0 0 0 1 $T0 $ebp = $eip $T0 4 + ^ = $ebp $T0 ^ = $esp $T0 8 + = 
STACK WIN 4 1a754 79 5 0 4 0 0 0 1 $T0 $ebp = $eip $T0 4 + ^ = $ebp $T0 ^ = $esp $T0 8 + = 
STACK WIN 4 1a7eb 79 5 0 4 0 0 0 1 $T0 $ebp = $eip $T0 4 + ^ = $ebp $T0 ^ = $esp $T0 8 + = 
STACK WIN 4 1a882 1f 5 0 4 0 0 0 1 $T0 $ebp = $eip $T0 4 + ^ = $ebp $T0 ^ = $esp $T0 8 + = 
STACK WIN 4 1a8a8 1f 5 0 4 0 0 0 1 $T0 $ebp = $eip $T0 4 + ^ = $ebp $T0 ^ = $esp $T0 8 + = 
STACK WIN 4 1a8ce 1f 5 0 4 0 0 0 1 $T0 $ebp = $eip $T0 4 + ^ = $ebp $T0 ^ = $esp $T0 8 + = 
STACK WIN 4 1a8f4 1f 5 0 4 0 0 0 1 $T0 $ebp = $eip $T0 4 + ^ = $ebp $T0 ^ = $esp $T0 8 + = 
STACK WIN 4 1a91a 79 5 0 4 0 0 0 1 $T0 $ebp = $eip $T0 4 + ^ = $ebp $T0 ^ = $esp $T0 8 + = 
STACK WIN 4 1a9b1 79 5 0 4 0 0 0 1 $T0 $ebp = $eip $T0 4 + ^ = $ebp $T0 ^ = $esp $T0 8 + = 
STACK WIN 4 1aa48 79 5 0 4 0 0 0 1 $T0 $ebp = $eip $T0 4 + ^ = $ebp $T0 ^ = $esp $T0 8 + = 
STACK WIN 4 1aadf 79 5 0 4 0 0 0 1 $T0 $ebp = $eip $T0 4 + ^ = $ebp $T0 ^ = $esp $T0 8 + = 
STACK WIN 4 1ab76 1f 5 0 4 0 0 0 1 $T0 $ebp = $eip $T0 4 + ^ = $ebp $T0 ^ = $esp $T0 8 + = 
STACK WIN 4 1ab9c 1f 5 0 4 0 0 0 1 $T0 $ebp = $eip $T0 4 + ^ = $ebp $T0 ^ = $esp $T0 8 + = 
STACK WIN 4 1abc2 1f 5 0 4 0 0 0 1 $T0 $ebp = $eip $T0 4 + ^ = $ebp $T0 ^ = $esp $T0 8 + = 
STACK WIN 4 1abe8 1f 5 0 4 0 0 0 1 $T0 $ebp = $eip $T0 4 + ^ = $ebp $T0 ^ = $esp $T0 8 + = 
STACK WIN 4 1ac0e 79 5 0 4 0 0 0 1 $T0 $ebp = $eip $T0 4 + ^ = $ebp $T0 ^ = $esp $T0 8 + = 
STACK WIN 4 1aca5 79 5 0 4 0 0 0 1 $T0 $ebp = $eip $T0 4 + ^ = $ebp $T0 ^ = $esp $T0 8 + = 
STACK WIN 4 1ad3c 79 5 0 4 0 0 0 1 $T0 $ebp = $eip $T0 4 + ^ = $ebp $T0 ^ = $esp $T0 8 + = 
STACK WIN 4 1add3 79 5 0 4 0 0 0 1 $T0 $ebp = $eip $T0 4 + ^ = $ebp $T0 ^ = $esp $T0 8 + = 
STACK WIN 4 1ae6a 1f 5 0 4 0 0 0 1 $T0 $ebp = $eip $T0 4 + ^ = $ebp $T0 ^ = $esp $T0 8 + = 
STACK WIN 4 1ae90 1f 5 0 4 0 0 0 1 $T0 $ebp = $eip $T0 4 + ^ = $ebp $T0 ^ = $esp $T0 8 + = 
STACK WIN 4 1aeb6 1f 5 0 4 0 0 0 1 $T0 $ebp = $eip $T0 4 + ^ = $ebp $T0 ^ = $esp $T0 8 + = 
STACK WIN 4 1aedc 1f 5 0 4 0 0 0 1 $T0 $ebp = $eip $T0 4 + ^ = $ebp $T0 ^ = $esp $T0 8 + = 
STACK WIN 4 1af02 78 5 0 4 0 0 0 1 $T0 $ebp = $eip $T0 4 + ^ = $ebp $T0 ^ = $esp $T0 8 + = 
STACK WIN 4 1af98 78 5 0 4 0 0 0 1 $T0 $ebp = $eip $T0 4 + ^ = $ebp $T0 ^ = $esp $T0 8 + = 
STACK WIN 4 1b02e 1a 5 0 4 0 0 0 1 $T0 $ebp = $eip $T0 4 + ^ = $ebp $T0 ^ = $esp $T0 8 + = 
STACK WIN 4 1b04e 1a 5 0 4 0 0 0 1 $T0 $ebp = $eip $T0 4 + ^ = $ebp $T0 ^ = $esp $T0 8 + = 
STACK WIN 4 1b06e 79 5 0 4 0 0 0 1 $T0 $ebp = $eip $T0 4 + ^ = $ebp $T0 ^ = $esp $T0 8 + = 
STACK WIN 4 1b105 79 5 0 4 0 0 0 1 $T0 $ebp = $eip $T0 4 + ^ = $ebp $T0 ^ = $esp $T0 8 + = 
STACK WIN 4 1b19c 79 5 0 4 0 0 0 1 $T0 $ebp = $eip $T0 4 + ^ = $ebp $T0 ^ = $esp $T0 8 + = 
STACK WIN 4 1b233 79 5 0 4 0 0 0 1 $T0 $ebp = $eip $T0 4 + ^ = $ebp $T0 ^ = $esp $T0 8 + = 
STACK WIN 4 1b2ca 1f 5 0 4 0 0 0 1 $T0 $ebp = $eip $T0 4 + ^ = $ebp $T0 ^ = $esp $T0 8 + = 
STACK WIN 4 1b2f0 1f 5 0 4 0 0 0 1 $T0 $ebp = $eip $T0 4 + ^ = $ebp $T0 ^ = $esp $T0 8 + = 
STACK WIN 4 1b316 1f 5 0 4 0 0 0 1 $T0 $ebp = $eip $T0 4 + ^ = $ebp $T0 ^ = $esp $T0 8 + = 
STACK WIN 4 1b33c 1f 5 0 4 0 0 0 1 $T0 $ebp = $eip $T0 4 + ^ = $ebp $T0 ^ = $esp $T0 8 + = 
STACK WIN 4 1b362 77 5 0 4 0 0 0 1 $T0 $ebp = $eip $T0 4 + ^ = $ebp $T0 ^ = $esp $T0 8 + = 
STACK WIN 4 1b3f6 77 5 0 4 0 0 0 1 $T0 $ebp = $eip $T0 4 + ^ = $ebp $T0 ^ = $esp $T0 8 + = 
STACK WIN 4 1b48a 77 5 0 4 0 0 0 1 $T0 $ebp = $eip $T0 4 + ^ = $ebp $T0 ^ = $esp $T0 8 + = 
STACK WIN 4 1b51e 77 5 0 4 0 0 0 1 $T0 $ebp = $eip $T0 4 + ^ = $ebp $T0 ^ = $esp $T0 8 + = 
STACK WIN 4 1b5b2 1e 5 0 4 0 0 0 1 $T0 $ebp = $eip $T0 4 + ^ = $ebp $T0 ^ = $esp $T0 8 + = 
STACK WIN 4 1b5d7 1e 5 0 4 0 0 0 1 $T0 $ebp = $eip $T0 4 + ^ = $ebp $T0 ^ = $esp $T0 8 + = 
STACK WIN 4 1b5fc 1e 5 0 4 0 0 0 1 $T0 $ebp = $eip $T0 4 + ^ = $ebp $T0 ^ = $esp $T0 8 + = 
STACK WIN 4 1b621 1e 5 0 4 0 0 0 1 $T0 $ebp = $eip $T0 4 + ^ = $ebp $T0 ^ = $esp $T0 8 + = 
STACK WIN 4 1b646 80 5 0 4 0 0 0 1 $T0 $ebp = $eip $T0 4 + ^ = $ebp $T0 ^ = $esp $T0 8 + = 
STACK WIN 4 1b6e6 80 5 0 4 0 0 0 1 $T0 $ebp = $eip $T0 4 + ^ = $ebp $T0 ^ = $esp $T0 8 + = 
STACK WIN 4 1b786 80 5 0 4 0 0 0 1 $T0 $ebp = $eip $T0 4 + ^ = $ebp $T0 ^ = $esp $T0 8 + = 
STACK WIN 4 1b826 80 5 0 4 0 0 0 1 $T0 $ebp = $eip $T0 4 + ^ = $ebp $T0 ^ = $esp $T0 8 + = 
STACK WIN 4 1b8c6 1e 5 0 4 0 0 0 1 $T0 $ebp = $eip $T0 4 + ^ = $ebp $T0 ^ = $esp $T0 8 + = 
STACK WIN 4 1b8eb 1e 5 0 4 0 0 0 1 $T0 $ebp = $eip $T0 4 + ^ = $ebp $T0 ^ = $esp $T0 8 + = 
STACK WIN 4 1b910 1e 5 0 4 0 0 0 1 $T0 $ebp = $eip $T0 4 + ^ = $ebp $T0 ^ = $esp $T0 8 + = 
STACK WIN 4 1b935 1e 5 0 4 0 0 0 1 $T0 $ebp = $eip $T0 4 + ^ = $ebp $T0 ^ = $esp $T0 8 + = 
STACK WIN 4 1b95a 78 5 0 4 0 0 0 1 $T0 $ebp = $eip $T0 4 + ^ = $ebp $T0 ^ = $esp $T0 8 + = 
STACK WIN 4 1b9f0 78 5 0 4 0 0 0 1 $T0 $ebp = $eip $T0 4 + ^ = $ebp $T0 ^ = $esp $T0 8 + = 
STACK WIN 4 1ba86 78 5 0 4 0 0 0 1 $T0 $ebp = $eip $T0 4 + ^ = $ebp $T0 ^ = $esp $T0 8 + = 
STACK WIN 4 1bb1c 78 5 0 4 0 0 0 1 $T0 $ebp = $eip $T0 4 + ^ = $ebp $T0 ^ = $esp $T0 8 + = 
STACK WIN 4 1bbb2 1a 5 0 4 0 0 0 1 $T0 $ebp = $eip $T0 4 + ^ = $ebp $T0 ^ = $esp $T0 8 + = 
STACK WIN 4 1bbd2 1a 5 0 4 0 0 0 1 $T0 $ebp = $eip $T0 4 + ^ = $ebp $T0 ^ = $esp $T0 8 + = 
STACK WIN 4 1bbf2 1a 5 0 4 0 0 0 1 $T0 $ebp = $eip $T0 4 + ^ = $ebp $T0 ^ = $esp $T0 8 + = 
STACK WIN 4 1bc12 1a 5 0 4 0 0 0 1 $T0 $ebp = $eip $T0 4 + ^ = $ebp $T0 ^ = $esp $T0 8 + = 
STACK WIN 4 1bc32 1a 5 0 4 0 0 0 1 $T0 $ebp = $eip $T0 4 + ^ = $ebp $T0 ^ = $esp $T0 8 + = 
STACK WIN 4 1bc52 78 5 0 4 0 0 0 1 $T0 $ebp = $eip $T0 4 + ^ = $ebp $T0 ^ = $esp $T0 8 + = 
STACK WIN 4 1bce8 1a 5 0 4 0 0 0 1 $T0 $ebp = $eip $T0 4 + ^ = $ebp $T0 ^ = $esp $T0 8 + = 
STACK WIN 4 1bd08 1a 5 0 4 0 0 0 1 $T0 $ebp = $eip $T0 4 + ^ = $ebp $T0 ^ = $esp $T0 8 + = 
STACK WIN 4 1bd28 1a 5 0 4 0 0 0 1 $T0 $ebp = $eip $T0 4 + ^ = $ebp $T0 ^ = $esp $T0 8 + = 
STACK WIN 4 1bd48 78 5 0 4 0 0 0 1 $T0 $ebp = $eip $T0 4 + ^ = $ebp $T0 ^ = $esp $T0 8 + = 
STACK WIN 4 1bdde 1a 5 0 4 0 0 0 1 $T0 $ebp = $eip $T0 4 + ^ = $ebp $T0 ^ = $esp $T0 8 + = 
STACK WIN 4 1bdfe 1a 5 0 4 0 0 0 1 $T0 $ebp = $eip $T0 4 + ^ = $ebp $T0 ^ = $esp $T0 8 + = 
STACK WIN 4 1be1e 1a 5 0 4 0 0 0 1 $T0 $ebp = $eip $T0 4 + ^ = $ebp $T0 ^ = $esp $T0 8 + = 
STACK WIN 4 1be3e 78 5 0 4 0 0 0 1 $T0 $ebp = $eip $T0 4 + ^ = $ebp $T0 ^ = $esp $T0 8 + = 
STACK WIN 4 1bed4 1a 5 0 4 0 0 0 1 $T0 $ebp = $eip $T0 4 + ^ = $ebp $T0 ^ = $esp $T0 8 + = 
STACK WIN 4 1bef4 1a 5 0 4 0 0 0 1 $T0 $ebp = $eip $T0 4 + ^ = $ebp $T0 ^ = $esp $T0 8 + = 
STACK WIN 4 1bf14 1a 5 0 4 0 0 0 1 $T0 $ebp = $eip $T0 4 + ^ = $ebp $T0 ^ = $esp $T0 8 + = 
STACK WIN 4 1bf34 78 5 0 4 0 0 0 1 $T0 $ebp = $eip $T0 4 + ^ = $ebp $T0 ^ = $esp $T0 8 + = 
STACK WIN 4 1bfca 1a 5 0 4 0 0 0 1 $T0 $ebp = $eip $T0 4 + ^ = $ebp $T0 ^ = $esp $T0 8 + = 
STACK WIN 4 1bfea 1a 5 0 4 0 0 0 1 $T0 $ebp = $eip $T0 4 + ^ = $ebp $T0 ^ = $esp $T0 8 + = 
STACK WIN 4 1c00a 78 5 0 4 0 0 0 1 $T0 $ebp = $eip $T0 4 + ^ = $ebp $T0 ^ = $esp $T0 8 + = 
STACK WIN 4 1c0a0 78 5 0 4 0 0 0 1 $T0 $ebp = $eip $T0 4 + ^ = $ebp $T0 ^ = $esp $T0 8 + = 
STACK WIN 4 1c136 78 5 0 4 0 0 0 1 $T0 $ebp = $eip $T0 4 + ^ = $ebp $T0 ^ = $esp $T0 8 + = 
STACK WIN 4 1c1cc 78 5 0 4 0 0 0 1 $T0 $ebp = $eip $T0 4 + ^ = $ebp $T0 ^ = $esp $T0 8 + = 
STACK WIN 4 1c262 1a 5 0 4 0 0 0 1 $T0 $ebp = $eip $T0 4 + ^ = $ebp $T0 ^ = $esp $T0 8 + = 
STACK WIN 4 1c282 1a 5 0 4 0 0 0 1 $T0 $ebp = $eip $T0 4 + ^ = $ebp $T0 ^ = $esp $T0 8 + = 
STACK WIN 4 1c2a2 1a 5 0 4 0 0 0 1 $T0 $ebp = $eip $T0 4 + ^ = $ebp $T0 ^ = $esp $T0 8 + = 
STACK WIN 4 1c2c2 1a 5 0 4 0 0 0 1 $T0 $ebp = $eip $T0 4 + ^ = $ebp $T0 ^ = $esp $T0 8 + = 
STACK WIN 4 1c2e2 86 5 0 4 0 0 0 1 $T0 $ebp = $eip $T0 4 + ^ = $ebp $T0 ^ = $esp $T0 8 + = 
STACK WIN 4 1c2f8 f 0 0 4 4 0 0 1 $T0 $ebp = $eip $T0 4 + ^ = $ebp $T0 ^ = $esp $T0 8 + =  $23 $T0 4 - ^ = 
STACK WIN 4 1c389 86 5 0 4 0 0 0 1 $T0 $ebp = $eip $T0 4 + ^ = $ebp $T0 ^ = $esp $T0 8 + = 
STACK WIN 4 1c39f f 0 0 4 4 0 0 1 $T0 $ebp = $eip $T0 4 + ^ = $ebp $T0 ^ = $esp $T0 8 + =  $23 $T0 4 - ^ = 
STACK WIN 4 1c430 86 5 0 4 0 0 0 1 $T0 $ebp = $eip $T0 4 + ^ = $ebp $T0 ^ = $esp $T0 8 + = 
STACK WIN 4 1c446 f 0 0 4 4 0 0 1 $T0 $ebp = $eip $T0 4 + ^ = $ebp $T0 ^ = $esp $T0 8 + =  $23 $T0 4 - ^ = 
STACK WIN 4 1c4d7 86 5 0 4 0 0 0 1 $T0 $ebp = $eip $T0 4 + ^ = $ebp $T0 ^ = $esp $T0 8 + = 
STACK WIN 4 1c4ed f 0 0 4 4 0 0 1 $T0 $ebp = $eip $T0 4 + ^ = $ebp $T0 ^ = $esp $T0 8 + =  $23 $T0 4 - ^ = 
STACK WIN 4 1c57e 20 5 0 4 0 0 0 1 $T0 $ebp = $eip $T0 4 + ^ = $ebp $T0 ^ = $esp $T0 8 + = 
STACK WIN 4 1c5a6 20 5 0 4 0 0 0 1 $T0 $ebp = $eip $T0 4 + ^ = $ebp $T0 ^ = $esp $T0 8 + = 
STACK WIN 4 1c5ce 20 5 0 4 0 0 0 1 $T0 $ebp = $eip $T0 4 + ^ = $ebp $T0 ^ = $esp $T0 8 + = 
STACK WIN 4 1c5f6 20 5 0 4 0 0 0 1 $T0 $ebp = $eip $T0 4 + ^ = $ebp $T0 ^ = $esp $T0 8 + = 
STACK WIN 4 1c61e 86 5 0 4 0 0 0 1 $T0 $ebp = $eip $T0 4 + ^ = $ebp $T0 ^ = $esp $T0 8 + = 
STACK WIN 4 1c634 f 0 0 4 4 0 0 1 $T0 $ebp = $eip $T0 4 + ^ = $ebp $T0 ^ = $esp $T0 8 + =  $23 $T0 4 - ^ = 
STACK WIN 4 1c6c5 86 5 0 4 0 0 0 1 $T0 $ebp = $eip $T0 4 + ^ = $ebp $T0 ^ = $esp $T0 8 + = 
STACK WIN 4 1c6db f 0 0 4 4 0 0 1 $T0 $ebp = $eip $T0 4 + ^ = $ebp $T0 ^ = $esp $T0 8 + =  $23 $T0 4 - ^ = 
STACK WIN 4 1c76c 86 5 0 4 0 0 0 1 $T0 $ebp = $eip $T0 4 + ^ = $ebp $T0 ^ = $esp $T0 8 + = 
STACK WIN 4 1c782 f 0 0 4 4 0 0 1 $T0 $ebp = $eip $T0 4 + ^ = $ebp $T0 ^ = $esp $T0 8 + =  $23 $T0 4 - ^ = 
STACK WIN 4 1c813 86 5 0 4 0 0 0 1 $T0 $ebp = $eip $T0 4 + ^ = $ebp $T0 ^ = $esp $T0 8 + = 
STACK WIN 4 1c829 f 0 0 4 4 0 0 1 $T0 $ebp = $eip $T0 4 + ^ = $ebp $T0 ^ = $esp $T0 8 + =  $23 $T0 4 - ^ = 
STACK WIN 4 1c8ba 20 5 0 4 0 0 0 1 $T0 $ebp = $eip $T0 4 + ^ = $ebp $T0 ^ = $esp $T0 8 + = 
STACK WIN 4 1c8e2 20 5 0 4 0 0 0 1 $T0 $ebp = $eip $T0 4 + ^ = $ebp $T0 ^ = $esp $T0 8 + = 
STACK WIN 4 1c90a 20 5 0 4 0 0 0 1 $T0 $ebp = $eip $T0 4 + ^ = $ebp $T0 ^ = $esp $T0 8 + = 
STACK WIN 4 1c932 20 5 0 4 0 0 0 1 $T0 $ebp = $eip $T0 4 + ^ = $ebp $T0 ^ = $esp $T0 8 + = 
STACK WIN 4 1c95a 86 5 0 4 0 0 0 1 $T0 $ebp = $eip $T0 4 + ^ = $ebp $T0 ^ = $esp $T0 8 + = 
STACK WIN 4 1c970 f 0 0 4 4 0 0 1 $T0 $ebp = $eip $T0 4 + ^ = $ebp $T0 ^ = $esp $T0 8 + =  $23 $T0 4 - ^ = 
STACK WIN 4 1ca01 86 5 0 4 0 0 0 1 $T0 $ebp = $eip $T0 4 + ^ = $ebp $T0 ^ = $esp $T0 8 + = 
STACK WIN 4 1ca17 f 0 0 4 4 0 0 1 $T0 $ebp = $eip $T0 4 + ^ = $ebp $T0 ^ = $esp $T0 8 + =  $23 $T0 4 - ^ = 
STACK WIN 4 1caa8 86 5 0 4 0 0 0 1 $T0 $ebp = $eip $T0 4 + ^ = $ebp $T0 ^ = $esp $T0 8 + = 
STACK WIN 4 1cabe f 0 0 4 4 0 0 1 $T0 $ebp = $eip $T0 4 + ^ = $ebp $T0 ^ = $esp $T0 8 + =  $23 $T0 4 - ^ = 
STACK WIN 4 1cb4f 86 5 0 4 0 0 0 1 $T0 $ebp = $eip $T0 4 + ^ = $ebp $T0 ^ = $esp $T0 8 + = 
STACK WIN 4 1cb65 f 0 0 4 4 0 0 1 $T0 $ebp = $eip $T0 4 + ^ = $ebp $T0 ^ = $esp $T0 8 + =  $23 $T0 4 - ^ = 
STACK WIN 4 1cbf6 20 5 0 4 0 0 0 1 $T0 $ebp = $eip $T0 4 + ^ = $ebp $T0 ^ = $esp $T0 8 + = 
STACK WIN 4 1cc1e 20 5 0 4 0 0 0 1 $T0 $ebp = $eip $T0 4 + ^ = $ebp $T0 ^ = $esp $T0 8 + = 
STACK WIN 4 1cc46 20 5 0 4 0 0 0 1 $T0 $ebp = $eip $T0 4 + ^ = $ebp $T0 ^ = $esp $T0 8 + = 
STACK WIN 4 1cc6e 20 5 0 4 0 0 0 1 $T0 $ebp = $eip $T0 4 + ^ = $ebp $T0 ^ = $esp $T0 8 + = 
STACK WIN 4 1cc96 7c 5 0 4 0 0 0 1 $T0 $ebp = $eip $T0 4 + ^ = $ebp $T0 ^ = $esp $T0 8 + = 
STACK WIN 4 1cd31 7c 5 0 4 0 0 0 1 $T0 $ebp = $eip $T0 4 + ^ = $ebp $T0 ^ = $esp $T0 8 + = 
STACK WIN 4 1cdcc 7c 5 0 4 0 0 0 1 $T0 $ebp = $eip $T0 4 + ^ = $ebp $T0 ^ = $esp $T0 8 + = 
STACK WIN 4 1ce67 7c 5 0 4 0 0 0 1 $T0 $ebp = $eip $T0 4 + ^ = $ebp $T0 ^ = $esp $T0 8 + = 
STACK WIN 4 1cf02 1c 5 0 4 0 0 0 1 $T0 $ebp = $eip $T0 4 + ^ = $ebp $T0 ^ = $esp $T0 8 + = 
STACK WIN 4 1cf25 1c 5 0 4 0 0 0 1 $T0 $ebp = $eip $T0 4 + ^ = $ebp $T0 ^ = $esp $T0 8 + = 
STACK WIN 4 1cf48 1c 5 0 4 0 0 0 1 $T0 $ebp = $eip $T0 4 + ^ = $ebp $T0 ^ = $esp $T0 8 + = 
STACK WIN 4 1cf6b 1c 5 0 4 0 0 0 1 $T0 $ebp = $eip $T0 4 + ^ = $ebp $T0 ^ = $esp $T0 8 + = 
STACK WIN 4 1cf8e 4 0 0 4 0 0 0 1 $T0 .raSearch = $eip $T0 ^ = $esp $T0 4 + = 
STACK WIN 4 1cf92 4 0 0 4 0 0 0 1 $T0 .raSearch = $eip $T0 ^ = $esp $T0 4 + = 
STACK WIN 4 1cf96 4 0 0 4 0 0 0 1 $T0 .raSearch = $eip $T0 ^ = $esp $T0 4 + = 
STACK WIN 4 1cf9a 4 0 0 4 0 0 0 1 $T0 .raSearch = $eip $T0 ^ = $esp $T0 4 + = 
STACK WIN 4 1cf9e 4 0 0 4 0 0 0 1 $T0 .raSearch = $eip $T0 ^ = $esp $T0 4 + = 
STACK WIN 4 1cfa2 4 0 0 4 0 0 0 1 $T0 .raSearch = $eip $T0 ^ = $esp $T0 4 + = 
STACK WIN 4 1cfa6 4 0 0 4 0 0 0 1 $T0 .raSearch = $eip $T0 ^ = $esp $T0 4 + = 
STACK WIN 4 1cfaa 4 0 0 4 0 0 0 1 $T0 .raSearch = $eip $T0 ^ = $esp $T0 4 + = 
STACK WIN 4 1cfae 4 0 0 4 0 0 0 1 $T0 .raSearch = $eip $T0 ^ = $esp $T0 4 + = 
STACK WIN 4 1cfb2 4 0 0 4 0 0 0 1 $T0 .raSearch = $eip $T0 ^ = $esp $T0 4 + = 
STACK WIN 4 1cfb6 4 0 0 4 0 0 0 1 $T0 .raSearch = $eip $T0 ^ = $esp $T0 4 + = 
STACK WIN 4 1cfba 4 0 0 4 0 0 0 1 $T0 .raSearch = $eip $T0 ^ = $esp $T0 4 + = 
STACK WIN 4 1cfbe 18 5 0 4 0 0 0 1 $T0 $ebp = $eip $T0 4 + ^ = $ebp $T0 ^ = $esp $T0 8 + = 
STACK WIN 4 1cfdc 18 5 0 4 0 0 0 1 $T0 $ebp = $eip $T0 4 + ^ = $ebp $T0 ^ = $esp $T0 8 + = 
STACK WIN 4 1cffa 1b 5 0 4 0 0 0 1 $T0 $ebp = $eip $T0 4 + ^ = $ebp $T0 ^ = $esp $T0 8 + = 
STACK WIN 4 1d01b 1b 5 0 4 0 0 0 1 $T0 $ebp = $eip $T0 4 + ^ = $ebp $T0 ^ = $esp $T0 8 + = 
STACK WIN 4 1d03c 2c 5 0 4 0 0 0 1 $T0 $ebp = $eip $T0 4 + ^ = $ebp $T0 ^ = $esp $T0 8 + = 
STACK WIN 4 1d073 2c 5 0 4 0 0 0 1 $T0 $ebp = $eip $T0 4 + ^ = $ebp $T0 ^ = $esp $T0 8 + = 
STACK WIN 4 1d0aa 3b 5 0 4 0 0 0 1 $T0 $ebp = $eip $T0 4 + ^ = $ebp $T0 ^ = $esp $T0 8 + = 
STACK WIN 4 1d0f3 3b 5 0 4 0 0 0 1 $T0 $ebp = $eip $T0 4 + ^ = $ebp $T0 ^ = $esp $T0 8 + = 
STACK WIN 4 1d13c e 5 0 4 0 0 0 1 $T0 $ebp = $eip $T0 4 + ^ = $ebp $T0 ^ = $esp $T0 8 + = 
STACK WIN 4 1d14d e 5 0 4 0 0 0 1 $T0 $ebp = $eip $T0 4 + ^ = $ebp $T0 ^ = $esp $T0 8 + = 
STACK WIN 4 1d15e f 5 0 4 0 0 0 1 $T0 $ebp = $eip $T0 4 + ^ = $ebp $T0 ^ = $esp $T0 8 + = 
STACK WIN 4 1d170 f 5 0 4 0 0 0 1 $T0 $ebp = $eip $T0 4 + ^ = $ebp $T0 ^ = $esp $T0 8 + = 
STACK WIN 4 1d182 18 5 0 4 0 0 0 1 $T0 $ebp = $eip $T0 4 + ^ = $ebp $T0 ^ = $esp $T0 8 + = 
STACK WIN 4 1d1a0 18 5 0 4 0 0 0 1 $T0 $ebp = $eip $T0 4 + ^ = $ebp $T0 ^ = $esp $T0 8 + = 
STACK WIN 4 1d1be 1b 5 0 4 0 0 0 1 $T0 $ebp = $eip $T0 4 + ^ = $ebp $T0 ^ = $esp $T0 8 + = 
STACK WIN 4 1d1df 1b 5 0 4 0 0 0 1 $T0 $ebp = $eip $T0 4 + ^ = $ebp $T0 ^ = $esp $T0 8 + = 
STACK WIN 4 1d200 31 5 0 10 0 0 0 1 $T0 $ebp = $eip $T0 4 + ^ = $ebp $T0 ^ = $esp $T0 8 + = 
STACK WIN 4 1d23d 4e 5 0 10 0 0 0 1 $T0 $ebp = $eip $T0 4 + ^ = $ebp $T0 ^ = $esp $T0 8 + = 
STACK WIN 4 1d29e c 5 0 4 0 0 0 1 $T0 $ebp = $eip $T0 4 + ^ = $ebp $T0 ^ = $esp $T0 8 + = 
STACK WIN 4 1d2ad c 5 0 4 0 0 0 1 $T0 $ebp = $eip $T0 4 + ^ = $ebp $T0 ^ = $esp $T0 8 + = 
STACK WIN 4 1d2bc d 5 0 4 0 0 0 1 $T0 $ebp = $eip $T0 4 + ^ = $ebp $T0 ^ = $esp $T0 8 + = 
STACK WIN 4 1d2cc d 5 0 4 0 0 0 1 $T0 $ebp = $eip $T0 4 + ^ = $ebp $T0 ^ = $esp $T0 8 + = 
STACK WIN 4 1d2dc c 5 0 4 0 0 0 1 $T0 $ebp = $eip $T0 4 + ^ = $ebp $T0 ^ = $esp $T0 8 + = 
STACK WIN 4 1d2eb c 5 0 4 0 0 0 1 $T0 $ebp = $eip $T0 4 + ^ = $ebp $T0 ^ = $esp $T0 8 + = 
STACK WIN 4 1d2fa c 5 0 4 0 0 0 1 $T0 $ebp = $eip $T0 4 + ^ = $ebp $T0 ^ = $esp $T0 8 + = 
STACK WIN 4 1d309 c 5 0 4 0 0 0 1 $T0 $ebp = $eip $T0 4 + ^ = $ebp $T0 ^ = $esp $T0 8 + = 
STACK WIN 4 1d318 c 5 0 4 0 0 0 1 $T0 $ebp = $eip $T0 4 + ^ = $ebp $T0 ^ = $esp $T0 8 + = 
STACK WIN 4 1d327 c 5 0 4 0 0 0 1 $T0 $ebp = $eip $T0 4 + ^ = $ebp $T0 ^ = $esp $T0 8 + = 
STACK WIN 4 1d336 c 5 0 4 0 0 0 1 $T0 $ebp = $eip $T0 4 + ^ = $ebp $T0 ^ = $esp $T0 8 + = 
STACK WIN 4 1d345 c 5 0 4 0 0 0 1 $T0 $ebp = $eip $T0 4 + ^ = $ebp $T0 ^ = $esp $T0 8 + = 
STACK WIN 4 1d354 f 5 0 4 0 0 0 1 $T0 $ebp = $eip $T0 4 + ^ = $ebp $T0 ^ = $esp $T0 8 + = 
STACK WIN 4 1d366 f 5 0 4 0 0 0 1 $T0 $ebp = $eip $T0 4 + ^ = $ebp $T0 ^ = $esp $T0 8 + = 
STACK WIN 4 1d378 f 5 0 4 0 0 0 1 $T0 $ebp = $eip $T0 4 + ^ = $ebp $T0 ^ = $esp $T0 8 + = 
STACK WIN 4 1d38a d 5 0 4 0 0 0 1 $T0 $ebp = $eip $T0 4 + ^ = $ebp $T0 ^ = $esp $T0 8 + = 
STACK WIN 4 1d39a 1a 5 0 8 0 0 0 1 $T0 $ebp = $eip $T0 4 + ^ = $ebp $T0 ^ = $esp $T0 8 + = 
STACK WIN 4 1d3ba 1a 5 0 8 0 0 0 1 $T0 $ebp = $eip $T0 4 + ^ = $ebp $T0 ^ = $esp $T0 8 + = 
STACK WIN 4 1d3da 12 5 0 4 0 0 0 1 $T0 $ebp = $eip $T0 4 + ^ = $ebp $T0 ^ = $esp $T0 8 + = 
STACK WIN 4 1d3f0 12 5 0 4 0 0 0 1 $T0 $ebp = $eip $T0 4 + ^ = $ebp $T0 ^ = $esp $T0 8 + = 
STACK WIN 4 1d406 13 5 0 4 0 0 0 1 $T0 $ebp = $eip $T0 4 + ^ = $ebp $T0 ^ = $esp $T0 8 + = 
STACK WIN 4 1d41d 13 5 0 4 0 0 0 1 $T0 $ebp = $eip $T0 4 + ^ = $ebp $T0 ^ = $esp $T0 8 + = 
STACK WIN 4 1d434 12 5 0 4 0 0 0 1 $T0 $ebp = $eip $T0 4 + ^ = $ebp $T0 ^ = $esp $T0 8 + = 
STACK WIN 4 1d44a 12 5 0 4 0 0 0 1 $T0 $ebp = $eip $T0 4 + ^ = $ebp $T0 ^ = $esp $T0 8 + = 
STACK WIN 4 1d460 12 5 0 4 0 0 0 1 $T0 $ebp = $eip $T0 4 + ^ = $ebp $T0 ^ = $esp $T0 8 + = 
STACK WIN 4 1d476 12 5 0 4 0 0 0 1 $T0 $ebp = $eip $T0 4 + ^ = $ebp $T0 ^ = $esp $T0 8 + = 
STACK WIN 4 1d48c 12 5 0 4 0 0 0 1 $T0 $ebp = $eip $T0 4 + ^ = $ebp $T0 ^ = $esp $T0 8 + = 
STACK WIN 4 1d4a2 12 5 0 4 0 0 0 1 $T0 $ebp = $eip $T0 4 + ^ = $ebp $T0 ^ = $esp $T0 8 + = 
STACK WIN 4 1d4b8 12 5 0 4 0 0 0 1 $T0 $ebp = $eip $T0 4 + ^ = $ebp $T0 ^ = $esp $T0 8 + = 
STACK WIN 4 1d4ce 12 5 0 4 0 0 0 1 $T0 $ebp = $eip $T0 4 + ^ = $ebp $T0 ^ = $esp $T0 8 + = 
STACK WIN 4 1d4e4 12 5 0 4 0 0 0 1 $T0 $ebp = $eip $T0 4 + ^ = $ebp $T0 ^ = $esp $T0 8 + = 
STACK WIN 4 1d4fa 12 5 0 4 0 0 0 1 $T0 $ebp = $eip $T0 4 + ^ = $ebp $T0 ^ = $esp $T0 8 + = 
STACK WIN 4 1d510 12 5 0 4 0 0 0 1 $T0 $ebp = $eip $T0 4 + ^ = $ebp $T0 ^ = $esp $T0 8 + = 
STACK WIN 4 1d526 12 5 0 4 0 0 0 1 $T0 $ebp = $eip $T0 4 + ^ = $ebp $T0 ^ = $esp $T0 8 + = 
STACK WIN 4 1d53c 12 5 0 4 0 0 0 1 $T0 $ebp = $eip $T0 4 + ^ = $ebp $T0 ^ = $esp $T0 8 + = 
STACK WIN 4 1d552 12 5 0 4 0 0 0 1 $T0 $ebp = $eip $T0 4 + ^ = $ebp $T0 ^ = $esp $T0 8 + = 
STACK WIN 4 1d568 12 5 0 4 0 0 0 1 $T0 $ebp = $eip $T0 4 + ^ = $ebp $T0 ^ = $esp $T0 8 + = 
STACK WIN 4 1d57e 12 5 0 4 0 0 0 1 $T0 $ebp = $eip $T0 4 + ^ = $ebp $T0 ^ = $esp $T0 8 + = 
STACK WIN 4 1d594 16 5 0 4 0 0 0 1 $T0 $ebp = $eip $T0 4 + ^ = $ebp $T0 ^ = $esp $T0 8 + = 
STACK WIN 4 1d5af 15 5 0 4 0 0 0 1 $T0 $ebp = $eip $T0 4 + ^ = $ebp $T0 ^ = $esp $T0 8 + = 
STACK WIN 4 1d5c9 15 5 0 4 0 0 0 1 $T0 $ebp = $eip $T0 4 + ^ = $ebp $T0 ^ = $esp $T0 8 + = 
STACK WIN 4 1d5e3 13 5 0 4 0 0 0 1 $T0 $ebp = $eip $T0 4 + ^ = $ebp $T0 ^ = $esp $T0 8 + = 
STACK WIN 4 1d5fa 5 0 0 0 0 0 0 1 $T0 .raSearch = $eip $T0 ^ = $esp $T0 4 + = 
STACK WIN 4 1d5ff 1e 5 0 0 0 0 0 1 $T0 .raSearch = $eip $T0 ^ = $esp $T0 4 + = 
STACK WIN 4 1d602 1a 2 0 0 4 0 0 1 $T0 .raSearch = $eip $T0 ^ = $esp $T0 4 + =  $23 $T0 4 - ^ = 
STACK WIN 4 1d605 16 0 0 0 8 0 0 1 $T0 .raSearch = $eip $T0 ^ = $esp $T0 4 + =  $23 $T0 4 - ^ =  $24 $T0 8 - ^ = 
STACK WIN 4 1d624 1e 5 0 c 0 0 0 1 $T0 $ebp = $eip $T0 4 + ^ = $ebp $T0 ^ = $esp $T0 8 + = 
STACK WIN 4 1d649 1e 5 0 c 0 0 0 1 $T0 $ebp = $eip $T0 4 + ^ = $ebp $T0 ^ = $esp $T0 8 + = 
STACK WIN 4 1d66e 1e 5 0 c 0 0 0 1 $T0 $ebp = $eip $T0 4 + ^ = $ebp $T0 ^ = $esp $T0 8 + = 
STACK WIN 4 1d693 1e 5 0 c 0 0 0 1 $T0 $ebp = $eip $T0 4 + ^ = $ebp $T0 ^ = $esp $T0 8 + = 
STACK WIN 4 1d6b8 73 9 0 c 0 0 0 1 $T0 $ebp = $eip $T0 4 + ^ = $ebp $T0 ^ = $esp $T0 8 + = 
STACK WIN 4 1d6be 69 3 0 c 4 0 0 1 $T0 $ebp = $eip $T0 4 + ^ = $ebp $T0 ^ = $esp $T0 8 + =  $20 $T0 4 - ^ = 
STACK WIN 4 1d6bf 67 2 0 c 8 0 0 1 $T0 $ebp = $eip $T0 4 + ^ = $ebp $T0 ^ = $esp $T0 8 + =  $20 $T0 4 - ^ =  $23 $T0 8 - ^ = 
STACK WIN 4 1d6c2 63 0 0 c c 0 0 1 $T0 $ebp = $eip $T0 4 + ^ = $ebp $T0 ^ = $esp $T0 8 + =  $20 $T0 4 - ^ =  $23 $T0 8 - ^ =  $24 $T0 12 - ^ = 
STACK WIN 4 1d747 73 9 0 c 0 0 0 1 $T0 $ebp = $eip $T0 4 + ^ = $ebp $T0 ^ = $esp $T0 8 + = 
STACK WIN 4 1d74d 69 3 0 c 4 0 0 1 $T0 $ebp = $eip $T0 4 + ^ = $ebp $T0 ^ = $esp $T0 8 + =  $20 $T0 4 - ^ = 
STACK WIN 4 1d74e 67 2 0 c 8 0 0 1 $T0 $ebp = $eip $T0 4 + ^ = $ebp $T0 ^ = $esp $T0 8 + =  $20 $T0 4 - ^ =  $23 $T0 8 - ^ = 
STACK WIN 4 1d751 63 0 0 c c 0 0 1 $T0 $ebp = $eip $T0 4 + ^ = $ebp $T0 ^ = $esp $T0 8 + =  $20 $T0 4 - ^ =  $23 $T0 8 - ^ =  $24 $T0 12 - ^ = 
STACK WIN 4 1d7d6 73 9 0 c 0 0 0 1 $T0 $ebp = $eip $T0 4 + ^ = $ebp $T0 ^ = $esp $T0 8 + = 
STACK WIN 4 1d7dc 69 3 0 c 4 0 0 1 $T0 $ebp = $eip $T0 4 + ^ = $ebp $T0 ^ = $esp $T0 8 + =  $20 $T0 4 - ^ = 
STACK WIN 4 1d7dd 67 2 0 c 8 0 0 1 $T0 $ebp = $eip $T0 4 + ^ = $ebp $T0 ^ = $esp $T0 8 + =  $20 $T0 4 - ^ =  $23 $T0 8 - ^ = 
STACK WIN 4 1d7e0 63 0 0 c c 0 0 1 $T0 $ebp = $eip $T0 4 + ^ = $ebp $T0 ^ = $esp $T0 8 + =  $20 $T0 4 - ^ =  $23 $T0 8 - ^ =  $24 $T0 12 - ^ = 
STACK WIN 4 1d865 73 9 0 c 0 0 0 1 $T0 $ebp = $eip $T0 4 + ^ = $ebp $T0 ^ = $esp $T0 8 + = 
STACK WIN 4 1d86b 69 3 0 c 4 0 0 1 $T0 $ebp = $eip $T0 4 + ^ = $ebp $T0 ^ = $esp $T0 8 + =  $20 $T0 4 - ^ = 
STACK WIN 4 1d86c 67 2 0 c 8 0 0 1 $T0 $ebp = $eip $T0 4 + ^ = $ebp $T0 ^ = $esp $T0 8 + =  $20 $T0 4 - ^ =  $23 $T0 8 - ^ = 
STACK WIN 4 1d86f 63 0 0 c c 0 0 1 $T0 $ebp = $eip $T0 4 + ^ = $ebp $T0 ^ = $esp $T0 8 + =  $20 $T0 4 - ^ =  $23 $T0 8 - ^ =  $24 $T0 12 - ^ = 
STACK WIN 4 1d8f4 73 9 0 c 0 0 0 1 $T0 $ebp = $eip $T0 4 + ^ = $ebp $T0 ^ = $esp $T0 8 + = 
STACK WIN 4 1d8fa 69 3 0 c 4 0 0 1 $T0 $ebp = $eip $T0 4 + ^ = $ebp $T0 ^ = $esp $T0 8 + =  $20 $T0 4 - ^ = 
STACK WIN 4 1d8fb 67 2 0 c 8 0 0 1 $T0 $ebp = $eip $T0 4 + ^ = $ebp $T0 ^ = $esp $T0 8 + =  $20 $T0 4 - ^ =  $23 $T0 8 - ^ = 
STACK WIN 4 1d8fe 63 0 0 c c 0 0 1 $T0 $ebp = $eip $T0 4 + ^ = $ebp $T0 ^ = $esp $T0 8 + =  $20 $T0 4 - ^ =  $23 $T0 8 - ^ =  $24 $T0 12 - ^ = 
STACK WIN 4 1d983 73 9 0 c 0 0 0 1 $T0 $ebp = $eip $T0 4 + ^ = $ebp $T0 ^ = $esp $T0 8 + = 
STACK WIN 4 1d989 69 3 0 c 4 0 0 1 $T0 $ebp = $eip $T0 4 + ^ = $ebp $T0 ^ = $esp $T0 8 + =  $20 $T0 4 - ^ = 
STACK WIN 4 1d98a 67 2 0 c 8 0 0 1 $T0 $ebp = $eip $T0 4 + ^ = $ebp $T0 ^ = $esp $T0 8 + =  $20 $T0 4 - ^ =  $23 $T0 8 - ^ = 
STACK WIN 4 1d98d 63 0 0 c c 0 0 1 $T0 $ebp = $eip $T0 4 + ^ = $ebp $T0 ^ = $esp $T0 8 + =  $20 $T0 4 - ^ =  $23 $T0 8 - ^ =  $24 $T0 12 - ^ = 
STACK WIN 4 1da12 87 9 0 c 0 0 0 1 $T0 $ebp = $eip $T0 4 + ^ = $ebp $T0 ^ = $esp $T0 8 + = 
STACK WIN 4 1da18 7d 3 0 c 4 0 0 1 $T0 $ebp = $eip $T0 4 + ^ = $ebp $T0 ^ = $esp $T0 8 + =  $20 $T0 4 - ^ = 
STACK WIN 4 1da19 7b 2 0 c 8 0 0 1 $T0 $ebp = $eip $T0 4 + ^ = $ebp $T0 ^ = $esp $T0 8 + =  $20 $T0 4 - ^ =  $23 $T0 8 - ^ = 
STACK WIN 4 1da1c 77 0 0 c c 0 0 1 $T0 $ebp = $eip $T0 4 + ^ = $ebp $T0 ^ = $esp $T0 8 + =  $20 $T0 4 - ^ =  $23 $T0 8 - ^ =  $24 $T0 12 - ^ = 
STACK WIN 4 1daba 87 9 0 c 0 0 0 1 $T0 $ebp = $eip $T0 4 + ^ = $ebp $T0 ^ = $esp $T0 8 + = 
STACK WIN 4 1dac0 7d 3 0 c 4 0 0 1 $T0 $ebp = $eip $T0 4 + ^ = $ebp $T0 ^ = $esp $T0 8 + =  $20 $T0 4 - ^ = 
STACK WIN 4 1dac1 7b 2 0 c 8 0 0 1 $T0 $ebp = $eip $T0 4 + ^ = $ebp $T0 ^ = $esp $T0 8 + =  $20 $T0 4 - ^ =  $23 $T0 8 - ^ = 
STACK WIN 4 1dac4 77 0 0 c c 0 0 1 $T0 $ebp = $eip $T0 4 + ^ = $ebp $T0 ^ = $esp $T0 8 + =  $20 $T0 4 - ^ =  $23 $T0 8 - ^ =  $24 $T0 12 - ^ = 
STACK WIN 4 1db62 87 9 0 c 0 0 0 1 $T0 $ebp = $eip $T0 4 + ^ = $ebp $T0 ^ = $esp $T0 8 + = 
STACK WIN 4 1db68 7d 3 0 c 4 0 0 1 $T0 $ebp = $eip $T0 4 + ^ = $ebp $T0 ^ = $esp $T0 8 + =  $20 $T0 4 - ^ = 
STACK WIN 4 1db69 7b 2 0 c 8 0 0 1 $T0 $ebp = $eip $T0 4 + ^ = $ebp $T0 ^ = $esp $T0 8 + =  $20 $T0 4 - ^ =  $23 $T0 8 - ^ = 
STACK WIN 4 1db6c 77 0 0 c c 0 0 1 $T0 $ebp = $eip $T0 4 + ^ = $ebp $T0 ^ = $esp $T0 8 + =  $20 $T0 4 - ^ =  $23 $T0 8 - ^ =  $24 $T0 12 - ^ = 
STACK WIN 4 1dc0a 87 9 0 c 0 0 0 1 $T0 $ebp = $eip $T0 4 + ^ = $ebp $T0 ^ = $esp $T0 8 + = 
STACK WIN 4 1dc10 7d 3 0 c 4 0 0 1 $T0 $ebp = $eip $T0 4 + ^ = $ebp $T0 ^ = $esp $T0 8 + =  $20 $T0 4 - ^ = 
STACK WIN 4 1dc11 7b 2 0 c 8 0 0 1 $T0 $ebp = $eip $T0 4 + ^ = $ebp $T0 ^ = $esp $T0 8 + =  $20 $T0 4 - ^ =  $23 $T0 8 - ^ = 
STACK WIN 4 1dc14 77 0 0 c c 0 0 1 $T0 $ebp = $eip $T0 4 + ^ = $ebp $T0 ^ = $esp $T0 8 + =  $20 $T0 4 - ^ =  $23 $T0 8 - ^ =  $24 $T0 12 - ^ = 
STACK WIN 4 1dcb2 87 9 0 c 0 0 0 1 $T0 $ebp = $eip $T0 4 + ^ = $ebp $T0 ^ = $esp $T0 8 + = 
STACK WIN 4 1dcb8 7d 3 0 c 4 0 0 1 $T0 $ebp = $eip $T0 4 + ^ = $ebp $T0 ^ = $esp $T0 8 + =  $20 $T0 4 - ^ = 
STACK WIN 4 1dcb9 7b 2 0 c 8 0 0 1 $T0 $ebp = $eip $T0 4 + ^ = $ebp $T0 ^ = $esp $T0 8 + =  $20 $T0 4 - ^ =  $23 $T0 8 - ^ = 
STACK WIN 4 1dcbc 77 0 0 c c 0 0 1 $T0 $ebp = $eip $T0 4 + ^ = $ebp $T0 ^ = $esp $T0 8 + =  $20 $T0 4 - ^ =  $23 $T0 8 - ^ =  $24 $T0 12 - ^ = 
STACK WIN 4 1dd5a 87 9 0 c 0 0 0 1 $T0 $ebp = $eip $T0 4 + ^ = $ebp $T0 ^ = $esp $T0 8 + = 
STACK WIN 4 1dd60 7d 3 0 c 4 0 0 1 $T0 $ebp = $eip $T0 4 + ^ = $ebp $T0 ^ = $esp $T0 8 + =  $20 $T0 4 - ^ = 
STACK WIN 4 1dd61 7b 2 0 c 8 0 0 1 $T0 $ebp = $eip $T0 4 + ^ = $ebp $T0 ^ = $esp $T0 8 + =  $20 $T0 4 - ^ =  $23 $T0 8 - ^ = 
STACK WIN 4 1dd64 77 0 0 c c 0 0 1 $T0 $ebp = $eip $T0 4 + ^ = $ebp $T0 ^ = $esp $T0 8 + =  $20 $T0 4 - ^ =  $23 $T0 8 - ^ =  $24 $T0 12 - ^ = 
STACK WIN 4 1de02 8e c 0 10 0 c 0 1 $T0 $ebp = $eip $T0 4 + ^ = $ebp $T0 ^ = $esp $T0 8 + = 
STACK WIN 4 1de0b 81 3 0 10 4 c 0 1 $T0 $ebp = $eip $T0 4 + ^ = $ebp $T0 ^ = $esp $T0 8 + =  $20 $T0 16 - ^ = 
STACK WIN 4 1de0c 7f 2 0 10 8 c 0 1 $T0 $ebp = $eip $T0 4 + ^ = $ebp $T0 ^ = $esp $T0 8 + =  $20 $T0 16 - ^ =  $23 $T0 20 - ^ = 
STACK WIN 4 1de0f 7b 0 0 10 c c 0 1 $T0 $ebp = $eip $T0 4 + ^ = $ebp $T0 ^ = $esp $T0 8 + =  $20 $T0 16 - ^ =  $23 $T0 20 - ^ =  $24 $T0 24 - ^ = 
STACK WIN 4 1deb3 8e c 0 10 0 c 0 1 $T0 $ebp = $eip $T0 4 + ^ = $ebp $T0 ^ = $esp $T0 8 + = 
STACK WIN 4 1debc 81 3 0 10 4 c 0 1 $T0 $ebp = $eip $T0 4 + ^ = $ebp $T0 ^ = $esp $T0 8 + =  $20 $T0 16 - ^ = 
STACK WIN 4 1debd 7f 2 0 10 8 c 0 1 $T0 $ebp = $eip $T0 4 + ^ = $ebp $T0 ^ = $esp $T0 8 + =  $20 $T0 16 - ^ =  $23 $T0 20 - ^ = 
STACK WIN 4 1dec0 7b 0 0 10 c c 0 1 $T0 $ebp = $eip $T0 4 + ^ = $ebp $T0 ^ = $esp $T0 8 + =  $20 $T0 16 - ^ =  $23 $T0 20 - ^ =  $24 $T0 24 - ^ = 
STACK WIN 4 1df64 8e c 0 10 0 c 0 1 $T0 $ebp = $eip $T0 4 + ^ = $ebp $T0 ^ = $esp $T0 8 + = 
STACK WIN 4 1df6d 81 3 0 10 4 c 0 1 $T0 $ebp = $eip $T0 4 + ^ = $ebp $T0 ^ = $esp $T0 8 + =  $20 $T0 16 - ^ = 
STACK WIN 4 1df6e 7f 2 0 10 8 c 0 1 $T0 $ebp = $eip $T0 4 + ^ = $ebp $T0 ^ = $esp $T0 8 + =  $20 $T0 16 - ^ =  $23 $T0 20 - ^ = 
STACK WIN 4 1df71 7b 0 0 10 c c 0 1 $T0 $ebp = $eip $T0 4 + ^ = $ebp $T0 ^ = $esp $T0 8 + =  $20 $T0 16 - ^ =  $23 $T0 20 - ^ =  $24 $T0 24 - ^ = 
STACK WIN 4 1e015 8e c 0 10 0 c 0 1 $T0 $ebp = $eip $T0 4 + ^ = $ebp $T0 ^ = $esp $T0 8 + = 
STACK WIN 4 1e01e 81 3 0 10 4 c 0 1 $T0 $ebp = $eip $T0 4 + ^ = $ebp $T0 ^ = $esp $T0 8 + =  $20 $T0 16 - ^ = 
STACK WIN 4 1e01f 7f 2 0 10 8 c 0 1 $T0 $ebp = $eip $T0 4 + ^ = $ebp $T0 ^ = $esp $T0 8 + =  $20 $T0 16 - ^ =  $23 $T0 20 - ^ = 
STACK WIN 4 1e022 7b 0 0 10 c c 0 1 $T0 $ebp = $eip $T0 4 + ^ = $ebp $T0 ^ = $esp $T0 8 + =  $20 $T0 16 - ^ =  $23 $T0 20 - ^ =  $24 $T0 24 - ^ = 
STACK WIN 4 1e0c6 8e c 0 10 0 c 0 1 $T0 $ebp = $eip $T0 4 + ^ = $ebp $T0 ^ = $esp $T0 8 + = 
STACK WIN 4 1e0cf 81 3 0 10 4 c 0 1 $T0 $ebp = $eip $T0 4 + ^ = $ebp $T0 ^ = $esp $T0 8 + =  $20 $T0 16 - ^ = 
STACK WIN 4 1e0d0 7f 2 0 10 8 c 0 1 $T0 $ebp = $eip $T0 4 + ^ = $ebp $T0 ^ = $esp $T0 8 + =  $20 $T0 16 - ^ =  $23 $T0 20 - ^ = 
STACK WIN 4 1e0d3 7b 0 0 10 c c 0 1 $T0 $ebp = $eip $T0 4 + ^ = $ebp $T0 ^ = $esp $T0 8 + =  $20 $T0 16 - ^ =  $23 $T0 20 - ^ =  $24 $T0 24 - ^ = 
STACK WIN 4 1e177 8e c 0 10 0 c 0 1 $T0 $ebp = $eip $T0 4 + ^ = $ebp $T0 ^ = $esp $T0 8 + = 
STACK WIN 4 1e180 81 3 0 10 4 c 0 1 $T0 $ebp = $eip $T0 4 + ^ = $ebp $T0 ^ = $esp $T0 8 + =  $20 $T0 16 - ^ = 
STACK WIN 4 1e181 7f 2 0 10 8 c 0 1 $T0 $ebp = $eip $T0 4 + ^ = $ebp $T0 ^ = $esp $T0 8 + =  $20 $T0 16 - ^ =  $23 $T0 20 - ^ = 
STACK WIN 4 1e184 7b 0 0 10 c c 0 1 $T0 $ebp = $eip $T0 4 + ^ = $ebp $T0 ^ = $esp $T0 8 + =  $20 $T0 16 - ^ =  $23 $T0 20 - ^ =  $24 $T0 24 - ^ = 
STACK WIN 4 1e228 a2 c 0 10 0 c 0 1 $T0 $ebp = $eip $T0 4 + ^ = $ebp $T0 ^ = $esp $T0 8 + = 
STACK WIN 4 1e231 95 3 0 10 4 c 0 1 $T0 $ebp = $eip $T0 4 + ^ = $ebp $T0 ^ = $esp $T0 8 + =  $20 $T0 16 - ^ = 
STACK WIN 4 1e232 93 2 0 10 8 c 0 1 $T0 $ebp = $eip $T0 4 + ^ = $ebp $T0 ^ = $esp $T0 8 + =  $20 $T0 16 - ^ =  $23 $T0 20 - ^ = 
STACK WIN 4 1e235 8f 0 0 10 c c 0 1 $T0 $ebp = $eip $T0 4 + ^ = $ebp $T0 ^ = $esp $T0 8 + =  $20 $T0 16 - ^ =  $23 $T0 20 - ^ =  $24 $T0 24 - ^ = 
STACK WIN 4 1e2f2 a2 c 0 10 0 c 0 1 $T0 $ebp = $eip $T0 4 + ^ = $ebp $T0 ^ = $esp $T0 8 + = 
STACK WIN 4 1e2fb 95 3 0 10 4 c 0 1 $T0 $ebp = $eip $T0 4 + ^ = $ebp $T0 ^ = $esp $T0 8 + =  $20 $T0 16 - ^ = 
STACK WIN 4 1e2fc 93 2 0 10 8 c 0 1 $T0 $ebp = $eip $T0 4 + ^ = $ebp $T0 ^ = $esp $T0 8 + =  $20 $T0 16 - ^ =  $23 $T0 20 - ^ = 
STACK WIN 4 1e2ff 8f 0 0 10 c c 0 1 $T0 $ebp = $eip $T0 4 + ^ = $ebp $T0 ^ = $esp $T0 8 + =  $20 $T0 16 - ^ =  $23 $T0 20 - ^ =  $24 $T0 24 - ^ = 
STACK WIN 4 1e3bc a2 c 0 10 0 c 0 1 $T0 $ebp = $eip $T0 4 + ^ = $ebp $T0 ^ = $esp $T0 8 + = 
STACK WIN 4 1e3c5 95 3 0 10 4 c 0 1 $T0 $ebp = $eip $T0 4 + ^ = $ebp $T0 ^ = $esp $T0 8 + =  $20 $T0 16 - ^ = 
STACK WIN 4 1e3c6 93 2 0 10 8 c 0 1 $T0 $ebp = $eip $T0 4 + ^ = $ebp $T0 ^ = $esp $T0 8 + =  $20 $T0 16 - ^ =  $23 $T0 20 - ^ = 
STACK WIN 4 1e3c9 8f 0 0 10 c c 0 1 $T0 $ebp = $eip $T0 4 + ^ = $ebp $T0 ^ = $esp $T0 8 + =  $20 $T0 16 - ^ =  $23 $T0 20 - ^ =  $24 $T0 24 - ^ = 
STACK WIN 4 1e486 a2 c 0 10 0 c 0 1 $T0 $ebp = $eip $T0 4 + ^ = $ebp $T0 ^ = $esp $T0 8 + = 
STACK WIN 4 1e48f 95 3 0 10 4 c 0 1 $T0 $ebp = $eip $T0 4 + ^ = $ebp $T0 ^ = $esp $T0 8 + =  $20 $T0 16 - ^ = 
STACK WIN 4 1e490 93 2 0 10 8 c 0 1 $T0 $ebp = $eip $T0 4 + ^ = $ebp $T0 ^ = $esp $T0 8 + =  $20 $T0 16 - ^ =  $23 $T0 20 - ^ = 
STACK WIN 4 1e493 8f 0 0 10 c c 0 1 $T0 $ebp = $eip $T0 4 + ^ = $ebp $T0 ^ = $esp $T0 8 + =  $20 $T0 16 - ^ =  $23 $T0 20 - ^ =  $24 $T0 24 - ^ = 
STACK WIN 4 1e550 a2 c 0 10 0 c 0 1 $T0 $ebp = $eip $T0 4 + ^ = $ebp $T0 ^ = $esp $T0 8 + = 
STACK WIN 4 1e559 95 3 0 10 4 c 0 1 $T0 $ebp = $eip $T0 4 + ^ = $ebp $T0 ^ = $esp $T0 8 + =  $20 $T0 16 - ^ = 
STACK WIN 4 1e55a 93 2 0 10 8 c 0 1 $T0 $ebp = $eip $T0 4 + ^ = $ebp $T0 ^ = $esp $T0 8 + =  $20 $T0 16 - ^ =  $23 $T0 20 - ^ = 
STACK WIN 4 1e55d 8f 0 0 10 c c 0 1 $T0 $ebp = $eip $T0 4 + ^ = $ebp $T0 ^ = $esp $T0 8 + =  $20 $T0 16 - ^ =  $23 $T0 20 - ^ =  $24 $T0 24 - ^ = 
STACK WIN 4 1e61a a2 c 0 10 0 c 0 1 $T0 $ebp = $eip $T0 4 + ^ = $ebp $T0 ^ = $esp $T0 8 + = 
STACK WIN 4 1e623 95 3 0 10 4 c 0 1 $T0 $ebp = $eip $T0 4 + ^ = $ebp $T0 ^ = $esp $T0 8 + =  $20 $T0 16 - ^ = 
STACK WIN 4 1e624 93 2 0 10 8 c 0 1 $T0 $ebp = $eip $T0 4 + ^ = $ebp $T0 ^ = $esp $T0 8 + =  $20 $T0 16 - ^ =  $23 $T0 20 - ^ = 
STACK WIN 4 1e627 8f 0 0 10 c c 0 1 $T0 $ebp = $eip $T0 4 + ^ = $ebp $T0 ^ = $esp $T0 8 + =  $20 $T0 16 - ^ =  $23 $T0 20 - ^ =  $24 $T0 24 - ^ = 
STACK WIN 4 1e6e4 3b 6 0 10 0 0 0 1 $T0 $ebp = $eip $T0 4 + ^ = $ebp $T0 ^ = $esp $T0 8 + = 
STACK WIN 4 1e6ea 33 0 0 10 4 0 0 1 $T0 $ebp = $eip $T0 4 + ^ = $ebp $T0 ^ = $esp $T0 8 + =  $23 $T0 4 - ^ = 
STACK WIN 4 1e6f2 2a 0 0 10 8 0 0 1 $T0 $ebp = $eip $T0 4 + ^ = $ebp $T0 ^ = $esp $T0 8 + =  $23 $T0 4 - ^ =  $24 $T0 8 - ^ = 
STACK WIN 4 1e72d 40 6 0 10 0 0 0 1 $T0 $ebp = $eip $T0 4 + ^ = $ebp $T0 ^ = $esp $T0 8 + = 
STACK WIN 4 1e733 38 0 0 10 4 0 0 1 $T0 $ebp = $eip $T0 4 + ^ = $ebp $T0 ^ = $esp $T0 8 + =  $23 $T0 4 - ^ = 
STACK WIN 4 1e73b 2f 0 0 10 8 0 0 1 $T0 $ebp = $eip $T0 4 + ^ = $ebp $T0 ^ = $esp $T0 8 + =  $23 $T0 4 - ^ =  $20 $T0 8 - ^ = 
STACK WIN 4 1e741 28 0 0 10 c 0 0 1 $T0 $ebp = $eip $T0 4 + ^ = $ebp $T0 ^ = $esp $T0 8 + =  $23 $T0 4 - ^ =  $20 $T0 8 - ^ =  $24 $T0 12 - ^ = 
STACK WIN 4 1e77d 2c 6 0 10 0 0 0 1 $T0 $ebp = $eip $T0 4 + ^ = $ebp $T0 ^ = $esp $T0 8 + = 
STACK WIN 4 1e783 24 0 0 10 4 0 0 1 $T0 $ebp = $eip $T0 4 + ^ = $ebp $T0 ^ = $esp $T0 8 + =  $23 $T0 4 - ^ = 
STACK WIN 4 1e78b 1b 0 0 10 8 0 0 1 $T0 $ebp = $eip $T0 4 + ^ = $ebp $T0 ^ = $esp $T0 8 + =  $23 $T0 4 - ^ =  $24 $T0 8 - ^ = 
STACK WIN 4 1e7b4 31 6 0 10 0 0 0 1 $T0 $ebp = $eip $T0 4 + ^ = $ebp $T0 ^ = $esp $T0 8 + = 
STACK WIN 4 1e7ba 29 0 0 10 4 0 0 1 $T0 $ebp = $eip $T0 4 + ^ = $ebp $T0 ^ = $esp $T0 8 + =  $23 $T0 4 - ^ = 
STACK WIN 4 1e7c2 20 0 0 10 8 0 0 1 $T0 $ebp = $eip $T0 4 + ^ = $ebp $T0 ^ = $esp $T0 8 + =  $23 $T0 4 - ^ =  $20 $T0 8 - ^ = 
STACK WIN 4 1e7c8 19 0 0 10 c 0 0 1 $T0 $ebp = $eip $T0 4 + ^ = $ebp $T0 ^ = $esp $T0 8 + =  $23 $T0 4 - ^ =  $20 $T0 8 - ^ =  $24 $T0 12 - ^ = 
STACK WIN 4 1e7f1 28 5 0 14 0 0 0 1 $T0 $ebp = $eip $T0 4 + ^ = $ebp $T0 ^ = $esp $T0 8 + = 
STACK WIN 4 1e823 12 5 0 4 0 0 0 1 $T0 $ebp = $eip $T0 4 + ^ = $ebp $T0 ^ = $esp $T0 8 + = 
STACK WIN 4 1e839 12 5 0 4 0 0 0 1 $T0 $ebp = $eip $T0 4 + ^ = $ebp $T0 ^ = $esp $T0 8 + = 
STACK WIN 4 1e84f 12 5 0 4 0 0 0 1 $T0 $ebp = $eip $T0 4 + ^ = $ebp $T0 ^ = $esp $T0 8 + = 
STACK WIN 4 1e865 12 5 0 4 0 0 0 1 $T0 $ebp = $eip $T0 4 + ^ = $ebp $T0 ^ = $esp $T0 8 + = 
STACK WIN 4 1e87b 12 5 0 4 0 0 0 1 $T0 $ebp = $eip $T0 4 + ^ = $ebp $T0 ^ = $esp $T0 8 + = 
STACK WIN 4 1e891 28 5 0 14 0 0 0 1 $T0 $ebp = $eip $T0 4 + ^ = $ebp $T0 ^ = $esp $T0 8 + = 
STACK WIN 4 1e8c3 12 5 0 4 0 0 0 1 $T0 $ebp = $eip $T0 4 + ^ = $ebp $T0 ^ = $esp $T0 8 + = 
STACK WIN 4 1e8d9 12 5 0 4 0 0 0 1 $T0 $ebp = $eip $T0 4 + ^ = $ebp $T0 ^ = $esp $T0 8 + = 
STACK WIN 4 1e8ef 28 5 0 14 0 0 0 1 $T0 $ebp = $eip $T0 4 + ^ = $ebp $T0 ^ = $esp $T0 8 + = 
STACK WIN 4 1e921 28 5 0 14 0 0 0 1 $T0 $ebp = $eip $T0 4 + ^ = $ebp $T0 ^ = $esp $T0 8 + = 
STACK WIN 4 1e953 12 5 0 4 0 0 0 1 $T0 $ebp = $eip $T0 4 + ^ = $ebp $T0 ^ = $esp $T0 8 + = 
STACK WIN 4 1e969 28 5 0 14 0 0 0 1 $T0 $ebp = $eip $T0 4 + ^ = $ebp $T0 ^ = $esp $T0 8 + = 
STACK WIN 4 1e99b 12 5 0 4 0 0 0 1 $T0 $ebp = $eip $T0 4 + ^ = $ebp $T0 ^ = $esp $T0 8 + = 
STACK WIN 4 1e9b1 12 5 0 4 0 0 0 1 $T0 $ebp = $eip $T0 4 + ^ = $ebp $T0 ^ = $esp $T0 8 + = 
STACK WIN 4 1e9c7 12 5 0 4 0 0 0 1 $T0 $ebp = $eip $T0 4 + ^ = $ebp $T0 ^ = $esp $T0 8 + = 
STACK WIN 4 1e9dd 28 5 0 14 0 0 0 1 $T0 $ebp = $eip $T0 4 + ^ = $ebp $T0 ^ = $esp $T0 8 + = 
STACK WIN 4 1ea0f 12 5 0 4 0 0 0 1 $T0 $ebp = $eip $T0 4 + ^ = $ebp $T0 ^ = $esp $T0 8 + = 
STACK WIN 4 1ea25 45 b 0 0 0 4 0 1 $T0 $ebp = $eip $T0 4 + ^ = $ebp $T0 ^ = $esp $T0 8 + = 
STACK WIN 4 1ea7b 4a b 0 0 0 4 0 1 $T0 $ebp = $eip $T0 4 + ^ = $ebp $T0 ^ = $esp $T0 8 + = 
STACK WIN 4 1ead7 3c 8 0 18 0 0 0 1 $T0 $ebp = $eip $T0 4 + ^ = $ebp $T0 ^ = $esp $T0 8 + = 
STACK WIN 4 1eadd 32 2 0 18 4 0 0 1 $T0 $ebp = $eip $T0 4 + ^ = $ebp $T0 ^ = $esp $T0 8 + =  $23 $T0 4 - ^ = 
STACK WIN 4 1eb22 3c 8 0 18 0 0 0 1 $T0 $ebp = $eip $T0 4 + ^ = $ebp $T0 ^ = $esp $T0 8 + = 
STACK WIN 4 1eb28 32 2 0 18 4 0 0 1 $T0 $ebp = $eip $T0 4 + ^ = $ebp $T0 ^ = $esp $T0 8 + =  $23 $T0 4 - ^ = 
STACK WIN 4 1eb6d 3c 8 0 18 0 0 0 1 $T0 $ebp = $eip $T0 4 + ^ = $ebp $T0 ^ = $esp $T0 8 + = 
STACK WIN 4 1eb73 32 2 0 18 4 0 0 1 $T0 $ebp = $eip $T0 4 + ^ = $ebp $T0 ^ = $esp $T0 8 + =  $23 $T0 4 - ^ = 
STACK WIN 4 1ebb8 3c 8 0 18 0 0 0 1 $T0 $ebp = $eip $T0 4 + ^ = $ebp $T0 ^ = $esp $T0 8 + = 
STACK WIN 4 1ebbe 32 2 0 18 4 0 0 1 $T0 $ebp = $eip $T0 4 + ^ = $ebp $T0 ^ = $esp $T0 8 + =  $23 $T0 4 - ^ = 
STACK WIN 4 1ec03 2d b 0 18 0 0 0 1 $T0 $ebp = $eip $T0 4 + ^ = $ebp $T0 ^ = $esp $T0 8 + = 
STACK WIN 4 1ec09 23 5 0 18 4 0 0 1 $T0 $ebp = $eip $T0 4 + ^ = $ebp $T0 ^ = $esp $T0 8 + =  $23 $T0 4 - ^ = 
STACK WIN 4 1ec3b 27 b 0 18 0 0 0 1 $T0 $ebp = $eip $T0 4 + ^ = $ebp $T0 ^ = $esp $T0 8 + = 
STACK WIN 4 1ec41 1d 5 0 18 4 0 0 1 $T0 $ebp = $eip $T0 4 + ^ = $ebp $T0 ^ = $esp $T0 8 + =  $23 $T0 4 - ^ = 
STACK WIN 4 1ec6b 2d b 0 18 0 0 0 1 $T0 $ebp = $eip $T0 4 + ^ = $ebp $T0 ^ = $esp $T0 8 + = 
STACK WIN 4 1ec71 23 5 0 18 4 0 0 1 $T0 $ebp = $eip $T0 4 + ^ = $ebp $T0 ^ = $esp $T0 8 + =  $23 $T0 4 - ^ = 
STACK WIN 4 1eca3 2d b 0 18 0 0 0 1 $T0 $ebp = $eip $T0 4 + ^ = $ebp $T0 ^ = $esp $T0 8 + = 
STACK WIN 4 1eca9 23 5 0 18 4 0 0 1 $T0 $ebp = $eip $T0 4 + ^ = $ebp $T0 ^ = $esp $T0 8 + =  $23 $T0 4 - ^ = 
STACK WIN 4 1ecdb 27 b 0 18 0 0 0 1 $T0 $ebp = $eip $T0 4 + ^ = $ebp $T0 ^ = $esp $T0 8 + = 
STACK WIN 4 1ece1 1d 5 0 18 4 0 0 1 $T0 $ebp = $eip $T0 4 + ^ = $ebp $T0 ^ = $esp $T0 8 + =  $23 $T0 4 - ^ = 
STACK WIN 4 1ed0b 2d b 0 18 0 0 0 1 $T0 $ebp = $eip $T0 4 + ^ = $ebp $T0 ^ = $esp $T0 8 + = 
STACK WIN 4 1ed11 23 5 0 18 4 0 0 1 $T0 $ebp = $eip $T0 4 + ^ = $ebp $T0 ^ = $esp $T0 8 + =  $23 $T0 4 - ^ = 
STACK WIN 4 1ed43 2d b 0 18 0 0 0 1 $T0 $ebp = $eip $T0 4 + ^ = $ebp $T0 ^ = $esp $T0 8 + = 
STACK WIN 4 1ed49 23 5 0 18 4 0 0 1 $T0 $ebp = $eip $T0 4 + ^ = $ebp $T0 ^ = $esp $T0 8 + =  $23 $T0 4 - ^ = 
STACK WIN 4 1ed7b 27 b 0 18 0 0 0 1 $T0 $ebp = $eip $T0 4 + ^ = $ebp $T0 ^ = $esp $T0 8 + = 
STACK WIN 4 1ed81 1d 5 0 18 4 0 0 1 $T0 $ebp = $eip $T0 4 + ^ = $ebp $T0 ^ = $esp $T0 8 + =  $23 $T0 4 - ^ = 
STACK WIN 4 1edab 2d b 0 18 0 0 0 1 $T0 $ebp = $eip $T0 4 + ^ = $ebp $T0 ^ = $esp $T0 8 + = 
STACK WIN 4 1edb1 23 5 0 18 4 0 0 1 $T0 $ebp = $eip $T0 4 + ^ = $ebp $T0 ^ = $esp $T0 8 + =  $23 $T0 4 - ^ = 
STACK WIN 4 1ede3 2d b 0 18 0 0 0 1 $T0 $ebp = $eip $T0 4 + ^ = $ebp $T0 ^ = $esp $T0 8 + = 
STACK WIN 4 1ede9 23 5 0 18 4 0 0 1 $T0 $ebp = $eip $T0 4 + ^ = $ebp $T0 ^ = $esp $T0 8 + =  $23 $T0 4 - ^ = 
STACK WIN 4 1ee1b 27 b 0 18 0 0 0 1 $T0 $ebp = $eip $T0 4 + ^ = $ebp $T0 ^ = $esp $T0 8 + = 
STACK WIN 4 1ee21 1d 5 0 18 4 0 0 1 $T0 $ebp = $eip $T0 4 + ^ = $ebp $T0 ^ = $esp $T0 8 + =  $23 $T0 4 - ^ = 
STACK WIN 4 1ee4b 2d b 0 18 0 0 0 1 $T0 $ebp = $eip $T0 4 + ^ = $ebp $T0 ^ = $esp $T0 8 + = 
STACK WIN 4 1ee51 23 5 0 18 4 0 0 1 $T0 $ebp = $eip $T0 4 + ^ = $ebp $T0 ^ = $esp $T0 8 + =  $23 $T0 4 - ^ = 
STACK WIN 4 1ee83 10 5 0 4 0 0 0 1 $T0 $ebp = $eip $T0 4 + ^ = $ebp $T0 ^ = $esp $T0 8 + = 
STACK WIN 4 1ee97 10 5 0 4 0 0 0 1 $T0 $ebp = $eip $T0 4 + ^ = $ebp $T0 ^ = $esp $T0 8 + = 
STACK WIN 4 1eeab 10 5 0 4 0 0 0 1 $T0 $ebp = $eip $T0 4 + ^ = $ebp $T0 ^ = $esp $T0 8 + = 
STACK WIN 4 1eebf 10 5 0 4 0 0 0 1 $T0 $ebp = $eip $T0 4 + ^ = $ebp $T0 ^ = $esp $T0 8 + = 
STACK WIN 4 1eed3 83 9 0 4 0 0 0 1 $T0 $ebp = $eip $T0 4 + ^ = $ebp $T0 ^ = $esp $T0 8 + = 
STACK WIN 4 1eed9 79 3 0 4 4 0 0 1 $T0 $ebp = $eip $T0 4 + ^ = $ebp $T0 ^ = $esp $T0 8 + =  $20 $T0 4 - ^ = 
STACK WIN 4 1eeda 77 2 0 4 8 0 0 1 $T0 $ebp = $eip $T0 4 + ^ = $ebp $T0 ^ = $esp $T0 8 + =  $20 $T0 4 - ^ =  $24 $T0 8 - ^ = 
STACK WIN 4 1ef0e 2f 0 0 4 c 0 0 1 $T0 $ebp = $eip $T0 4 + ^ = $ebp $T0 ^ = $esp $T0 8 + =  $20 $T0 4 - ^ =  $24 $T0 8 - ^ =  $23 $T0 12 - ^ = 
STACK WIN 4 1ef76 1e b 0 4 0 0 0 1 $T0 $ebp = $eip $T0 4 + ^ = $ebp $T0 ^ = $esp $T0 8 + = 
STACK WIN 4 1ef7f 11 2 0 4 4 0 0 1 $T0 $ebp = $eip $T0 4 + ^ = $ebp $T0 ^ = $esp $T0 8 + =  $23 $T0 4 - ^ = 
STACK WIN 4 1ef9b 6 0 0 0 0 0 0 1 $T0 .raSearch = $eip $T0 ^ = $esp $T0 4 + = 
STACK WIN 4 1efa1 18 5 0 4 0 0 0 1 $T0 $ebp = $eip $T0 4 + ^ = $ebp $T0 ^ = $esp $T0 8 + = 
STACK WIN 4 1efbf 10 5 0 4 0 0 0 1 $T0 $ebp = $eip $T0 4 + ^ = $ebp $T0 ^ = $esp $T0 8 + = 
STACK WIN 4 1efd3 11 0 0 0 0 0 0 1 $T0 .raSearch = $eip $T0 ^ = $esp $T0 4 + = 
STACK WIN 4 1efe8 8 0 0 0 0 0 0 1 $T0 .raSearch = $eip $T0 ^ = $esp $T0 4 + = 
STACK WIN 4 1eff2 8 0 0 0 0 0 0 1 $T0 .raSearch = $eip $T0 ^ = $esp $T0 4 + = 
STACK WIN 4 1effc 8 0 0 0 0 0 0 1 $T0 .raSearch = $eip $T0 ^ = $esp $T0 4 + = 
STACK WIN 4 1f006 8 0 0 0 0 0 0 1 $T0 .raSearch = $eip $T0 ^ = $esp $T0 4 + = 
STACK WIN 4 1f010 8 0 0 0 0 0 0 1 $T0 .raSearch = $eip $T0 ^ = $esp $T0 4 + = 
STACK WIN 4 1f01a 8 0 0 0 0 0 0 1 $T0 .raSearch = $eip $T0 ^ = $esp $T0 4 + = 
STACK WIN 4 1f024 8 0 0 0 0 0 0 1 $T0 .raSearch = $eip $T0 ^ = $esp $T0 4 + = 
STACK WIN 4 1f02e 8 0 0 0 0 0 0 1 $T0 .raSearch = $eip $T0 ^ = $esp $T0 4 + = 
STACK WIN 4 1f038 8 0 0 0 0 0 0 1 $T0 .raSearch = $eip $T0 ^ = $esp $T0 4 + = 
STACK WIN 4 1f042 8 0 0 0 0 0 0 1 $T0 .raSearch = $eip $T0 ^ = $esp $T0 4 + = 
STACK WIN 4 1f04c 8 0 0 0 0 0 0 1 $T0 .raSearch = $eip $T0 ^ = $esp $T0 4 + = 
STACK WIN 4 1f056 8 0 0 0 0 0 0 1 $T0 .raSearch = $eip $T0 ^ = $esp $T0 4 + = 
STACK WIN 4 1f060 8 0 0 0 0 0 0 1 $T0 .raSearch = $eip $T0 ^ = $esp $T0 4 + = 
STACK WIN 4 1f06a 8 0 0 0 0 0 0 1 $T0 .raSearch = $eip $T0 ^ = $esp $T0 4 + = 
STACK WIN 4 1f074 8 0 0 0 0 0 0 1 $T0 .raSearch = $eip $T0 ^ = $esp $T0 4 + = 
STACK WIN 4 1f07e 8 0 0 0 0 0 0 1 $T0 .raSearch = $eip $T0 ^ = $esp $T0 4 + = 
STACK WIN 4 1f088 8 0 0 0 0 0 0 1 $T0 .raSearch = $eip $T0 ^ = $esp $T0 4 + = 
STACK WIN 4 1f092 8 0 0 0 0 0 0 1 $T0 .raSearch = $eip $T0 ^ = $esp $T0 4 + = 
STACK WIN 4 1f09c 8 0 0 0 0 0 0 1 $T0 .raSearch = $eip $T0 ^ = $esp $T0 4 + = 
STACK WIN 4 1f0a6 8 0 0 0 0 0 0 1 $T0 .raSearch = $eip $T0 ^ = $esp $T0 4 + = 
STACK WIN 4 1f0b0 8 0 0 0 0 0 0 1 $T0 .raSearch = $eip $T0 ^ = $esp $T0 4 + = 
STACK WIN 4 1f0ba 8 0 0 0 0 0 0 1 $T0 .raSearch = $eip $T0 ^ = $esp $T0 4 + = 
STACK WIN 4 1f0c4 8 0 0 0 0 0 0 1 $T0 .raSearch = $eip $T0 ^ = $esp $T0 4 + = 
STACK WIN 4 1f0ce 8 0 0 0 0 0 0 1 $T0 .raSearch = $eip $T0 ^ = $esp $T0 4 + = 
STACK WIN 4 1f0d8 8 0 0 0 0 0 0 1 $T0 .raSearch = $eip $T0 ^ = $esp $T0 4 + = 
STACK WIN 4 1f0e2 8 0 0 0 0 0 0 1 $T0 .raSearch = $eip $T0 ^ = $esp $T0 4 + = 
STACK WIN 4 1f0ec 8 0 0 0 0 0 0 1 $T0 .raSearch = $eip $T0 ^ = $esp $T0 4 + = 
STACK WIN 4 1f0f6 8 0 0 0 0 0 0 1 $T0 .raSearch = $eip $T0 ^ = $esp $T0 4 + = 
STACK WIN 4 1f100 8 0 0 0 0 0 0 1 $T0 .raSearch = $eip $T0 ^ = $esp $T0 4 + = 
STACK WIN 4 1f10a 8 0 0 0 0 0 0 1 $T0 .raSearch = $eip $T0 ^ = $esp $T0 4 + = 
STACK WIN 4 1f114 10 0 0 0 0 0 0 1 $T0 .raSearch = $eip $T0 ^ = $esp $T0 4 + = 
STACK WIN 4 1f128 f 0 0 0 0 0 0 1 $T0 .raSearch = $eip $T0 ^ = $esp $T0 4 + = 
STACK WIN 4 1f13a 11 0 0 0 0 0 0 1 $T0 .raSearch = $eip $T0 ^ = $esp $T0 4 + = 
STACK WIN 4 1f14f 1a 5 0 0 0 0 0 1 $T0 .raSearch = $eip $T0 ^ = $esp $T0 4 + = 
STACK WIN 4 1f152 16 2 0 0 4 0 0 1 $T0 .raSearch = $eip $T0 ^ = $esp $T0 4 + =  $23 $T0 4 - ^ = 
STACK WIN 4 1f16f 24 8 0 4 0 0 0 1 $T0 $ebp = $eip $T0 4 + ^ = $ebp $T0 ^ = $esp $T0 8 + = 
STACK WIN 4 1f175 1a 2 0 4 4 0 0 1 $T0 $ebp = $eip $T0 4 + ^ = $ebp $T0 ^ = $esp $T0 8 + =  $23 $T0 4 - ^ = 
STACK WIN 4 1f19c 3 0 0 0 0 0 0 1 $T0 .raSearch = $eip $T0 ^ = $esp $T0 4 + = 
STACK WIN 4 1f19f bf 18 0 0 0 474 0 1 $T0 $ebp = $eip $T0 4 + ^ = $ebp $T0 ^ = $esp $T0 8 + = 
STACK WIN 4 1f1b5 a2 2 0 0 4 474 0 1 $T0 $ebp = $eip $T0 4 + ^ = $ebp $T0 ^ = $esp $T0 8 + =  $23 $T0 1144 - ^ = 
