MODULE windows x86_64 3E639C9971684EB2AE7675444A818EE53 basic-opt64.pdb
INFO CODE_ID 5D9C5ECE8B000 basic-opt64.dll
FUNC 6ab0 7 0 test1(int *)
FUNC 6ac0 1 0 test2(int,unsigned int)
FUNC 6ad0 1 0 test3(int,unsigned int,short)
FUNC 6ae0 1 0 test4(int,unsigned int,unsigned short,double *)
FUNC 6af0 68 0 test5(int *,unsigned int,unsigned short,double const *,std::basic_string<char,std::char_traits<char>,std::allocator<char> >)
FUNC 6b80 1 0 test6(double const * const,std::basic_string<char,std::char_traits<char>,std::allocator<char> > const &,std::basic_string<char,std::char_traits<char>,std::allocator<char> > &&)
FUNC 6b90 3 0 test7(void (*)(int,unsigned int,unsigned short,double *))
FUNC 6ba0 3 0 test8(int (*)(void (*)(int,unsigned int,unsigned short,double *)))
FUNC 6bb0 3 0 test9(int (*)(int (*)(void (*)(int,unsigned int,unsigned short,double *))))
FUNC 6bc0 3 0 test10(char * &)
FUNC 6bd0 3 0 test_array(char * const,int (* const)[34],std::basic_string<char,std::char_traits<char>,std::allocator<char> > (* const)[34][56],double * (* const)[34][56][78])
FUNC 6be0 4 0 A::A()
FUNC 6bf0 4 0 A::A(A &&)
FUNC 6c00 1 0 A::~A()
FUNC 6c10 1 0 A::meth1(int)
FUNC 6c20 1 0 A::meth1(double)
FUNC 6c30 1 0 A::meth1(short,signed char)
FUNC 6c40 1 0 A::meth2(int)
FUNC 6c50 4 0 A::meth2(double)
FUNC 6c60 1 0 A::meth2(short,signed char)
FUNC 6c70 4 0 A::meth4(A *,A::B &&)
FUNC 9370 5 0 operator delete(void *,unsigned __int64)
FUNC 9378 50 0 dllmain_crt_dispatch
FUNC 93dc 119 0 dllmain_crt_process_attach
FUNC 953c 8e 0 dllmain_crt_process_detach
FUNC 95f0 133 0 dllmain_dispatch
FUNC 9770 19 0 dllmain_raw
FUNC 9790 5 0 CRT_INIT
FUNC 9798 3d 0 DllMainCRTStartup
FUNC 97e4 5 0 operator delete(void *)
FUNC 97ec 6b 0 __get_entropy
FUNC 9874 ac 0 _security_init_cookie
FUNC 994c 6 0 DllMain
FUNC 9954 e 0 __scrt_initialize_type_info()
FUNC 9968 c 0 __scrt_uninitialize_type_info()
FUNC 9978 8 0 _local_stdio_printf_options
FUNC 9984 8 0 _local_stdio_scanf_options
FUNC 9990 1b 0 _scrt_initialize_default_local_stdio_options
FUNC 99b4 16 0 __crt_fast_decode_pointer<void (__cdecl**)(void)>
FUNC 99d0 1e 0 __crt_fast_encode_pointer<void (__cdecl**)(void)>
FUNC 99f8 9 0 __crt_rotate_pointer_value(unsigned __int64,int)
FUNC 9a04 14 0 __scrt_narrow_argv_policy::configure_argv()
FUNC 9a20 49 0 find_pe_section
FUNC 9a7c 5 0 __scrt_narrow_environment_policy::initialize_environment()
FUNC 9a84 2f 0 is_potentially_valid_image_base
FUNC 9ac0 a 0 NtCurrentTeb
FUNC 9acc 39 0 _scrt_acquire_startup_lock
FUNC 9b14 34 0 _scrt_dllmain_after_initialize_c
FUNC 9b58 15 0 _scrt_dllmain_before_initialize_c
FUNC 9b74 28 0 _scrt_dllmain_crt_thread_attach
FUNC 9ba8 15 0 _scrt_dllmain_crt_thread_detach
FUNC 9bc4 60 0 _scrt_dllmain_exception_filter
FUNC 9c3c 30 0 _scrt_dllmain_uninitialize_c
FUNC 9c78 14 0 _scrt_dllmain_uninitialize_critical
FUNC 9c94 49 0 _scrt_initialize_crt
FUNC 9cf0 d8 0 _scrt_initialize_onexit_tables
FUNC 9e00 99 0 _scrt_is_nonwritable_in_current_image
FUNC 9ec0 24 0 _scrt_release_startup_lock
FUNC 9ef0 2b 0 _scrt_uninitialize_crt
FUNC 9f28 4f 0 onexit
FUNC 9f8c 36 0 at_quick_exit
FUNC 9fd0 17 0 atexit
FUNC 9fec 8 0 _scrt_get_dyn_tls_init_callback
FUNC 9ff8 8 0 _crt_debugger_hook
FUNC a004 14a 0 _scrt_fastfail
FUNC a1a0 3a 0 _scrt_get_show_window_mode
FUNC a1e8 5 0 _scrt_initialize_mta
FUNC a1f0 3 0 _scrt_initialize_winrt
FUNC a1f4 52 0 _scrt_is_managed_app
FUNC a25c e 0 _scrt_set_unhandled_exception_filter
FUNC a270 3 0 _scrt_stub_for_initialize_mta
FUNC a274 38 0 _scrt_unhandled_exception_filter
FUNC a2bc 3c 0 RTC_Initialize
FUNC a308 3c 0 RTC_Terminate
FUNC a354 3 0 guard_check_icall_nop
FUNC a358 4 0 ReadNoFence64
FUNC a35c 4 0 ReadPointerNoFence
FUNC a360 17 0 guard_icall_checks_enforced
FUNC a37c 3 0 guard_rf_checks_enforced
FUNC a380 1b9 0 _isa_available_init
FUNC a5a8 6 0 get_startup_argv_mode
FUNC a5b0 c 0 _scrt_is_ucrt_dll_in_use
PUBLIC a5c0 0 QueryPerformanceCounter
PUBLIC a5c6 0 GetCurrentProcessId
PUBLIC a5cc 0 GetCurrentThreadId
PUBLIC a5d2 0 GetSystemTimeAsFileTime
PUBLIC a5d8 0 InitializeSListHead
PUBLIC a5de 0 RtlCaptureContext
PUBLIC a5e4 0 RtlLookupFunctionEntry
PUBLIC a5ea 0 RtlVirtualUnwind
PUBLIC a5f0 0 IsDebuggerPresent
PUBLIC a5f6 0 UnhandledExceptionFilter
PUBLIC a5fc 0 SetUnhandledExceptionFilter
PUBLIC a602 0 GetStartupInfoW
PUBLIC a608 0 IsProcessorFeaturePresent
PUBLIC a60e 0 GetModuleHandleW
FUNC a614 20b 0 _C_specific_handler
FUNC a8a4 5 0 <lambda_02a71323d951a238fa4826e9f186893b>::<lambda_invoker_cdecl>
FUNC a8ac 5 0 <lambda_ab747d7d039e86ead2ea2c584b0f6318>::<lambda_invoker_cdecl>
FUNC a8b4 8 0 __crt_internal_free_policy::operator()<char>(char const * const)
FUNC a8c0 8 0 __crt_internal_free_policy::operator()<void>(void const * const)
FUNC a8cc 9 0 __crt_interlocked_compare_exchange_pointer<char const ,char *,std::nullptr_t>
FUNC a8d8 4 0 __crt_interlocked_read_pointer<char const >(char const * const volatile *)
FUNC a8dc 7 0 __crt_unique_heap_ptr<char,__crt_internal_free_policy>::__crt_unique_heap_ptr<char,__crt_internal_free_policy>(char * const)
FUNC a8e4 7 0 __crt_unique_heap_ptr<void,__crt_internal_free_policy>::__crt_unique_heap_ptr<void,__crt_internal_free_policy>(void * const)
FUNC a8ec 1b 0 __crt_unique_heap_ptr<char,__crt_internal_free_policy>::~__crt_unique_heap_ptr<char,__crt_internal_free_policy>()
FUNC a910 1b 0 __crt_unique_heap_ptr<void,__crt_internal_free_policy>::~__crt_unique_heap_ptr<void,__crt_internal_free_policy>()
FUNC a934 8 0 <lambda_02a71323d951a238fa4826e9f186893b>::operator void (__cdecl*)(void * const)
FUNC a940 8 0 <lambda_ab747d7d039e86ead2ea2c584b0f6318>::operator void * (__cdecl*)(unsigned __int64)
FUNC a94c 8 0 __crt_unique_heap_ptr<char,__crt_internal_free_policy>::operator bool()
FUNC a958 8 0 __crt_unique_heap_ptr<void,__crt_internal_free_policy>::operator bool()
FUNC a964 8 0 <lambda_02a71323d951a238fa4826e9f186893b>::operator()
FUNC a970 8 0 <lambda_ab747d7d039e86ead2ea2c584b0f6318>::operator()
FUNC a97c 4 0 __crt_interlocked_read_64(__int64 const volatile *)
FUNC a980 8 0 __crt_unique_heap_ptr<void,__crt_internal_free_policy>::detach()
FUNC a98c 4 0 __crt_unique_heap_ptr<char,__crt_internal_free_policy>::get()
FUNC a990 4 0 __crt_unique_heap_ptr<void,__crt_internal_free_policy>::get()
FUNC a994 8 0 __crt_unique_heap_ptr<char,__crt_internal_free_policy>::is_valid()
FUNC a9a0 8 0 __crt_unique_heap_ptr<void,__crt_internal_free_policy>::is_valid()
FUNC a9ac 1b 0 __crt_unique_heap_ptr<char,__crt_internal_free_policy>::release()
FUNC a9d0 1b 0 __crt_unique_heap_ptr<void,__crt_internal_free_policy>::release()
FUNC a9f4 27 0 _std_type_info_compare
FUNC aa24 2a 0 _std_type_info_destroy_list
FUNC aa58 3b 0 _std_type_info_hash
FUNC aaa4 11c 0 _std_type_info_name
FUNC ac08 32 0 _vcrt_initialize
FUNC ac48 14 0 _vcrt_thread_attach
FUNC ac64 12 0 _vcrt_thread_detach
FUNC ac7c 20 0 _vcrt_uninitialize
FUNC aca4 10 0 _vcrt_uninitialize_critical
FUNC acb8 3 0 init_memcpy_functions
FUNC acd0 10 0 memset_repmovs
FUNC acf0 190 0 memset
FUNC af00 18 0 NLG_Notify
FUNC af20 1 0 _NLG_Dispatch2
FUNC af30 1 0 _NLG_Return2
FUNC af44 5 0 __except_get_jumpbuf_sp
FUNC af4c 37 0 _except_validate_context_record
FUNC af90 3f 0 _except_validate_jump_buffer
FUNC afe0 5b 0 _except_validate_jump_buffer_common
FUNC b054 71 0 _DestructExceptionObject
FUNC b0e4 3 0 _CallMemberFunction0(void * const,void * const)
FUNC b0e8 5 0 type_info::raw_name()
FUNC b0f0 2f 0 IsExceptionObjectToBeDestroyed
FUNC b12c 8 0 SetWinRTOutOfMemoryExceptionCallback
FUNC b138 23 0 _AdjustPointer
FUNC b164 4a 0 _FrameUnwindFilter
FUNC b1c0 5b 0 _GetPlatformExceptionInfo
FUNC b234 12 0 _current_exception
FUNC b24c 12 0 _current_exception_context
FUNC b264 12 0 _processing_throw
FUNC b27c a 0 _std_terminate
FUNC b288 a5 0 is_exception_typeof
FUNC b358 8 0 _HeapManager::Block::Block()
FUNC b364 cc 0 DName::DName(char const * &,char)
FUNC b464 10 0 DName::DName(DName const &)
FUNC b478 31 0 DName::DName(char)
FUNC b4b8 84 0 DName::DName(DName *)
FUNC b560 40 0 DName::DName(char const *)
FUNC b5b0 2d 0 DName::DName(DNameStatus)
FUNC b5e8 c 0 DName::DName()
FUNC b5f8 a6 0 DName::DName(__int64)
FUNC b6c8 88 0 DName::DName(unsigned __int64)
FUNC b774 e 0 DNameNode::DNameNode()
FUNC b788 7 0 Replicator::Replicator()
FUNC b790 a 0 `UnDecorator::getDecoratedName'::`2'::TrackRecursion::TrackRecursion
FUNC b79c 50 0 UnDecorator::UnDecorator(char const *,char * (*)(long),unsigned long)
FUNC b800 11 0 charNode::charNode(char)
FUNC b818 26 0 pDNameNode::pDNameNode(DName *)
FUNC b848 1a 0 pairNode::pairNode(DNameNode const *,DNameNode const *)
FUNC b868 88 0 pcharNode::pcharNode(char const *,int)
FUNC b914 7 0 `UnDecorator::getDecoratedName'::`2'::TrackRecursion::~TrackRecursion
FUNC b91c f 0 operator new(unsigned __int64,_HeapManager &,int)
FUNC b930 10 0 DName::operator=(DName const &)
FUNC b944 31 0 DName::operator=(char)
FUNC b984 7e 0 DName::operator=(DName *)
FUNC ba24 36 0 DName::operator=(char const *)
FUNC ba68 1f 0 DName::operator=(DNameStatus)
FUNC ba90 40 0 Replicator::operator[](int)
FUNC bae0 36 0 operator+(char,DName const &)
FUNC bb24 36 0 operator+(char const *,DName const &)
FUNC bb68 49 0 operator+(DNameStatus,DName const &)
FUNC bbc4 29 0 DName::operator+(DName const &)
FUNC bbf8 29 0 DName::operator+(char)
FUNC bc2c 29 0 DName::operator+(DName *)
FUNC bc60 29 0 DName::operator+(char const *)
FUNC bc94 29 0 DName::operator+(DNameStatus)
FUNC bcc8 44 0 DName::operator+=(DName const &)
FUNC bd20 7d 0 DName::operator+=(char)
FUNC bdbc 95 0 DName::operator+=(DName *)
FUNC be78 8a 0 DName::operator+=(char const *)
FUNC bf24 6b 0 DName::operator+=(DNameStatus)
FUNC bfac 67 0 Replicator::operator+=(DName const &)
FUNC c02c 14 0 DName::operator|=(DName const &)
FUNC c048 16 0 _HeapManager::Constructor(void * (*)(unsigned __int64),void (*)(void *))
FUNC c064 42 0 _HeapManager::Destructor()
FUNC c0b8 20 0 UnDecorator::UScore(Tokens)
FUNC c0e0 63 0 DName::append(DNameNode const *)
FUNC c15c db3 0 UnDecorator::composeDeclaration(DName const &)
FUNC d27c f 0 UnDecorator::doAccessSpecifiers()
FUNC d290 f 0 UnDecorator::doAllocationLanguage()
FUNC d2a4 f 0 UnDecorator::doAllocationModel()
FUNC d2b8 f 0 UnDecorator::doEcsu()
FUNC d2cc f 0 UnDecorator::doEllipsis()
FUNC d2e0 f 0 UnDecorator::doFunctionReturns()
FUNC d2f4 e 0 UnDecorator::doMSKeywords()
FUNC d308 f 0 UnDecorator::doMemberTypes()
FUNC d31c c 0 UnDecorator::doNameOnly()
FUNC d32c c 0 UnDecorator::doNoIdentCharCheck()
FUNC d33c a6 0 DName::doPchar(char const *,int)
FUNC d40c f 0 UnDecorator::doPtr64()
FUNC d420 f 0 UnDecorator::doRestrictionSpec()
FUNC d434 12 0 UnDecorator::doThisTypes()
FUNC d44c f 0 UnDecorator::doThrowTypes()
FUNC d460 c 0 UnDecorator::doTypeOnly()
FUNC d470 c 0 UnDecorator::doUnderScore()
FUNC d480 12b 0 UnDecorator::getArgumentList()
FUNC d5f8 f3 0 UnDecorator::getArgumentTypes()
FUNC d728 253 0 UnDecorator::getArrayType(DName const &)
FUNC da10 c8 0 UnDecorator::getBasedType()
FUNC db0c 468 0 UnDecorator::getBasicDataType(DName const &)
FUNC e090 11d 0 UnDecorator::getCHPEName(char *,int)
FUNC e1f4 19 0 UnDecorator::getCallIndex()
FUNC e214 13e 0 UnDecorator::getCallingConvention()
FUNC e3a4 7b8 0 UnDecorator::getDataIndirectType(DName const &,char const *,DName const &,int)
FUNC ed4c 3e 0 UnDecorator::getDataIndirectType()
FUNC ed9c e6 0 UnDecorator::getDataType(DName *)
FUNC eebc 2a8 0 UnDecorator::getDecoratedName()
FUNC f210 179 0 UnDecorator::getDimension(bool)
FUNC f3e8 4c 0 UnDecorator::getDispatchTarget()
FUNC f448 19 0 UnDecorator::getDisplacement()
FUNC f468 160 0 UnDecorator::getECSUDataType()
FUNC f620 17 0 UnDecorator::getECSUName()
FUNC f63c fc 0 UnDecorator::getEnumType()
FUNC f778 214 0 UnDecorator::getExtendedDataIndirectType(char const * &,bool &,int)
FUNC fa14 c6 0 UnDecorator::getExternalDataType(DName const &)
FUNC fb0c 556 0 UnDecorator::getFunctionIndirectType(DName const &)
FUNC 101b8 19 0 UnDecorator::getGuardNumber()
FUNC 101d8 19 0 DName::getLastChar()
FUNC 101f8 c 0 DNameStatusNode::getLastChar()
FUNC 10208 4 0 charNode::getLastChar()
FUNC 1020c 29 0 pDNameNode::getLastChar()
FUNC 10240 35 0 pairNode::getLastChar()
FUNC 10284 14 0 pcharNode::getLastChar()
FUNC 102a0 71 0 UnDecorator::getLexicalFrame()
FUNC 10330 a9 0 _HeapManager::getMemory(unsigned __int64,int)
FUNC 10404 45 0 UnDecorator::getNoexcept()
FUNC 1045c 73 0 UnDecorator::getNumberOfDimensions()
FUNC 104ec 76d 0 UnDecorator::getOperatorName(bool,bool *)
FUNC 10e34 1e 0 UnDecorator::getPointerType(DName const &,DName const &)
FUNC 10e5c 1e 0 UnDecorator::getPointerTypeArray(DName const &,DName const &)
FUNC 10e84 24d 0 UnDecorator::getPrimaryDataType(DName const &)
FUNC 11164 162 0 UnDecorator::getPtrRefDataType(DName const &,int)
FUNC 11320 136 0 UnDecorator::getPtrRefType(DName const &,DName const &,char const *)
FUNC 114a4 17 0 UnDecorator::getReferenceType(DName const &,DName const &,char const *)
FUNC 114c0 13d 0 UnDecorator::getRestrictionSpec()
FUNC 1164c 34 0 UnDecorator::getReturnType(DName *)
FUNC 11690 478 0 UnDecorator::getScope()
FUNC 11c28 103 0 UnDecorator::getScopedName()
FUNC 11d6c 94 0 UnDecorator::getSignedDimension()
FUNC 11e28 3e 0 UnDecorator::getStorageConvention()
FUNC 11e78 1a 0 DName::getString(char *,char *)
FUNC 11e98 94 0 DName::getString(char *,int)
FUNC 11f54 46 0 DNameStatusNode::getString(char *,char *)
FUNC 11fac 11 0 charNode::getString(char *,char *)
FUNC 11fc4 2d 0 pDNameNode::getString(char *,char *)
FUNC 11ffc 4b 0 pairNode::getString(char *,char *)
FUNC 1205c 36 0 pcharNode::getString(char *,char *)
FUNC 120a0 d0 0 UnDecorator::getStringEncoding(char const *,int)
FUNC 121a4 2d 0 getStringHelper(char *,char const *,char const *,int)
FUNC 121dc 4c 0 UnDecorator::getSymbolName()
FUNC 1223c 31a 0 UnDecorator::getTemplateArgumentList()
FUNC 1261c 3a0 0 UnDecorator::getTemplateConstant()
FUNC 12aa4 1fa 0 UnDecorator::getTemplateName(bool)
FUNC 12d1c 42 0 UnDecorator::getThisType()
FUNC 12d70 23 0 UnDecorator::getThrowTypes()
FUNC 12d9c 35e 0 UnDecorator::getTypeEncoding()
FUNC 131d4 109 0 UnDecorator::getUndecoratedName(char *,int)
FUNC 13320 58 0 UnDecorator::getVCallThunkType()
FUNC 13390 17 0 UnDecorator::getVbTableType(DName const &)
FUNC 133ac 5f 0 UnDecorator::getVdispMapType(DName const &)
FUNC 13424 1fd 0 UnDecorator::getVfTableType(DName const &)
FUNC 136a0 2d9 0 UnDecorator::getZName(bool,bool)
FUNC 13a30 c 0 UnDecorator::haveTemplateParameters()
FUNC 13a40 a 0 DName::isArray()
FUNC 13a4c a 0 DName::isComArray()
FUNC 13a58 9 0 DName::isEmpty()
FUNC 13a64 9 0 Replicator::isFull()
FUNC 13a70 a 0 DName::isNoTE()
FUNC 13a7c a 0 DName::isPinPtr()
FUNC 13a88 a 0 DName::isPtrRef()
FUNC 13a94 16 0 DName::isUDC()
FUNC 13ab0 16 0 DName::isUDTThunk()
FUNC 13acc a 0 DName::isVCallThunk()
FUNC 13ad8 a 0 DName::isValid()
FUNC 13ae4 18 0 DName::length()
FUNC 13b04 4 0 DNameStatusNode::length()
FUNC 13b08 6 0 charNode::length()
FUNC 13b10 28 0 pDNameNode::length()
FUNC 13b44 53 0 pairNode::length()
FUNC 13bac 4 0 pcharNode::length()
FUNC 13bb0 1f 0 DNameStatusNode::make(DNameStatus)
FUNC 13bd8 f5 0 UnDecorator::parseDecoratedName()
FUNC 13d0c 6 0 DName::setIsArray()
FUNC 13d14 6 0 DName::setIsComArray()
FUNC 13d1c 6 0 DName::setIsNoTE()
FUNC 13d24 6 0 DName::setIsPinPtr()
FUNC 13d2c c 0 DName::setIsUDC()
FUNC 13d3c 6 0 DName::setIsVCallThunk()
FUNC 13d44 9 0 DName::setPtrRef()
FUNC 13d50 5 0 DName::status()
FUNC 13d58 1a 0 und_memcpy
FUNC 13d78 11 0 und_strlen
FUNC 13d90 2c 0 und_strncmp
FUNC 13dc8 27 0 _unDName
FUNC 13df8 132 0 _unDNameEx
FUNC 13f78 62 0 vsprintf_s_l
FUNC 13ff4 52 0 sprintf_s
FUNC 1405c 106 0 unDNameGenerateCHPE
FUNC 141a4 8 0 __crt_internal_free_policy::operator()<__vcrt_ptd>(__vcrt_ptd const * const)
FUNC 141b0 7 0 __crt_unique_heap_ptr<__vcrt_ptd,__crt_internal_free_policy>::__crt_unique_heap_ptr<__vcrt_ptd,__crt_internal_free_policy>(__vcrt_ptd * const)
FUNC 141b8 1a 0 `anonymous namespace'::scoped_get_last_error_reset::scoped_get_last_error_reset
FUNC 141d8 1b 0 __crt_unique_heap_ptr<__vcrt_ptd,__crt_internal_free_policy>::~__crt_unique_heap_ptr<__vcrt_ptd,__crt_internal_free_policy>()
FUNC 141fc 9 0 `anonymous namespace'::scoped_get_last_error_reset::~scoped_get_last_error_reset
FUNC 14208 8 0 __crt_unique_heap_ptr<__vcrt_ptd,__crt_internal_free_policy>::operator bool()
FUNC 14214 8 0 __crt_unique_heap_ptr<__vcrt_ptd,__crt_internal_free_policy>::detach()
FUNC 14220 4 0 __crt_unique_heap_ptr<__vcrt_ptd,__crt_internal_free_policy>::get()
FUNC 14224 8 0 __crt_unique_heap_ptr<__vcrt_ptd,__crt_internal_free_policy>::is_valid()
FUNC 14230 1b 0 __crt_unique_heap_ptr<__vcrt_ptd,__crt_internal_free_policy>::release()
FUNC 14254 34 0 store_and_initialize_ptd
FUNC 14298 1f 0 _vcrt_freefls
FUNC 142c0 4d 0 _vcrt_freeptd
FUNC 14320 19 0 _vcrt_getptd
FUNC 14340 cb 0 _vcrt_getptd_noexit
FUNC 14440 4d 0 _vcrt_getptd_noinit
FUNC 144a0 51 0 _vcrt_initialize_ptd
FUNC 14508 22 0 _vcrt_uninitialize_ptd
FUNC 14534 46 0 _vcrt_initialize_locks
FUNC 1458c 19 0 _vcrt_lock
FUNC 145ac 37 0 _vcrt_uninitialize_locks
FUNC 145f0 19 0 _vcrt_unlock
FUNC 14610 8 0 __crt_fast_encoded_nullptr_t::operator<void> void *
FUNC 1461c 16 0 __crt_fast_decode_pointer<void *>
FUNC 14638 1e 0 __crt_fast_encode_pointer<void *>
FUNC 14660 7 0 __crt_interlocked_exchange_pointer<HINSTANCE__,HINSTANCE__ *>
FUNC 14668 7 0 __crt_interlocked_exchange_pointer<HINSTANCE__,void *>
FUNC 14670 7 0 __crt_interlocked_exchange_pointer<void,void *>
FUNC 14678 4 0 __crt_interlocked_read_pointer<HINSTANCE__>(HINSTANCE__ * const volatile *)
FUNC 1467c 4 0 __crt_interlocked_read_pointer<void>(void * const volatile *)
FUNC 14680 5 0 __crt_fast_encode_pointer(std::nullptr_t)
FUNC 14688 5 0 invalid_function_sentinel
FUNC 14690 1c 0 try_get_FlsAlloc
FUNC 146b4 1f 0 try_get_FlsFree
FUNC 146dc 1f 0 try_get_FlsGetValue
FUNC 14704 1f 0 try_get_FlsSetValue
FUNC 1472c 1f 0 try_get_InitializeCriticalSectionEx
FUNC 14754 119 0 try_get_first_available_module
FUNC 148b4 1d6 0 try_get_function
FUNC 14b00 fe 0 try_get_module
FUNC 14c40 137 0 try_get_proc_address_from_first_available_module
FUNC 14dc4 73 0 try_load_library_from_system_directory
FUNC 14e54 45 0 _vcrt_FlsAlloc
FUNC 14eac 46 0 _vcrt_FlsFree
FUNC 14f04 46 0 _vcrt_FlsGetValue
FUNC 14f5c 51 0 _vcrt_FlsSetValue
FUNC 14fc4 61 0 _vcrt_InitializeCriticalSectionEx
FUNC 15040 2f 0 _vcrt_initialize_winapi_thunks
FUNC 1507c 3e 0 _vcrt_uninitialize_winapi_thunks
FUNC 150cc 8 0 __crt_fast_encoded_nullptr_t::operator<void > void (*)(void)()
FUNC 150d8 1e 0 __crt_fast_encode_pointer<void (*)(void)>(void (*const)(void))
FUNC 15100 f 0 _vcrt_initialize_pure_virtual_call_handler
FUNC 15114 16 0 __crt_fast_decode_pointer<void (*)(void)>(void (*const)(void))
FUNC 15130 7 0 __crt_interlocked_exchange_pointer<void ,void (*)(void)>(void (*const volatile *)(void),void (*const)(void))
FUNC 15138 4 0 __crt_interlocked_read_pointer<void >(void (*const volatile *)(void))
FUNC 1513c 1a 0 get_purecall_handler
FUNC 1515c 2e 0 purecall
FUNC 15198 37 0 set_purecall_handler
FUNC 151dc 14 0 std::pair<__FrameHandler3::TryBlockMap::iterator,__FrameHandler3::TryBlockMap::iterator>::pair<__FrameHandler3::TryBlockMap::iterator,__FrameHandler3::TryBlockMap::iterator><__FrameHandler3::TryBlockMap::iterator &,__FrameHandler3::TryBlockMap::iterator &,0>
FUNC 151f8 14 0 std::pair<__FrameHandler4::TryBlockMap::iterator,__FrameHandler4::TryBlockMap::iterator>::pair<__FrameHandler4::TryBlockMap::iterator,__FrameHandler4::TryBlockMap::iterator><__FrameHandler4::TryBlockMap::iterator &,__FrameHandler4::TryBlockMap::iterator &,0>
FUNC 15214 95 0 SehTransFilter<__FrameHandler3>
FUNC 152d0 95 0 SehTransFilter<__FrameHandler4>
FUNC 1538c 51 0 _CallSETranslator<__FrameHandler3>(EHExceptionRecord *,unsigned __int64 *,_CONTEXT *,_xDISPATCHER_CONTEXT *,_s_FuncInfo const *,unsigned long,unsigned __int64 *)
FUNC 153f4 51 0 _CallSETranslator<__FrameHandler4>(EHExceptionRecord *,unsigned __int64 *,_CONTEXT *,_xDISPATCHER_CONTEXT *,FuncInfo4 *,unsigned long,unsigned __int64 *)
FUNC 1545c 4 0 std::forward<__FrameHandler3::TryBlockMap::iterator &>
FUNC 15460 4 0 std::forward<__FrameHandler4::TryBlockMap::iterator &>
FUNC 15464 13 0 FuncInfo4::FuncInfo4()
FUNC 1547c b 0 __FrameHandler3::TryBlockMap::iterator::iterator(__FrameHandler3::TryBlockMap &,unsigned int)
FUNC 1548c b 0 __FrameHandler4::TryBlockMap::iterator::iterator(__FrameHandler4::TryBlockMap &,unsigned int)
FUNC 1549c a 0 __FrameHandler4::TryBlockMap::iterator::operator=(__FrameHandler4::TryBlockMap::iterator const &)
FUNC 154a8 a 0 __FrameHandler4::TryBlockMap::iterator::operator!=(__FrameHandler4::TryBlockMap::iterator const &)
FUNC 154b4 8 0 __FrameHandler4::TryBlockMap::iterator::operator*()
FUNC 154c0 a8 0 __FrameHandler4::TryBlockMap::iterator::operator++()
FUNC 15594 56 0 __FrameHandler3::CatchTryBlock(_s_FuncInfo const *,int)
FUNC 15600 94 0 DecompFuncInfo(unsigned char *,FuncInfo4 &)
FUNC 156bc 9e 0 __FrameHandler4::TryBlockMap::DecompTryBlock()
FUNC 15784 2a 0 __FrameHandler3::ExecutionInCatch(_xDISPATCHER_CONTEXT *,_s_FuncInfo const *)
FUNC 157b8 a 0 __FrameHandler4::ExecutionInCatch(_xDISPATCHER_CONTEXT *,FuncInfo4 *)
FUNC 157c4 64 0 __FrameHandler3::FrameUnwindToEmptyState(unsigned __int64 *,_xDISPATCHER_CONTEXT *,_s_FuncInfo const *)
FUNC 15844 35 0 __FrameHandler4::FrameUnwindToEmptyState(unsigned __int64 *,_xDISPATCHER_CONTEXT *,FuncInfo4 *)
FUNC 15888 c9 0 __FrameHandler3::GetEstablisherFrame(unsigned __int64 *,_xDISPATCHER_CONTEXT *,_s_FuncInfo const *,unsigned __int64 *)
FUNC 15984 24 0 __FrameHandler4::GetEstablisherFrame(unsigned __int64 *,_xDISPATCHER_CONTEXT *,FuncInfo4 *,unsigned __int64 *)
FUNC 159b4 159 0 __FrameHandler3::GetRangeOfTrysToCheck(__FrameHandler3::TryBlockMap &,int,int)
FUNC 15b64 d3 0 __FrameHandler4::GetRangeOfTrysToCheck(__FrameHandler4::TryBlockMap &,int,int)
FUNC 15c6c d 0 ReadInt(unsigned char * *)
FUNC 15c7c 30 0 ReadUnsigned(unsigned char * *)
FUNC 15cb8 121 0 __FrameHandler3::UnwindNestedFrames(unsigned __int64 *,EHExceptionRecord *,_CONTEXT *,unsigned __int64 *,void *,_s_FuncInfo const *,int,int,_s_HandlerType const *,_xDISPATCHER_CONTEXT *,unsigned char)
FUNC 15e24 170 0 __FrameHandler4::UnwindNestedFrames(unsigned __int64 *,EHExceptionRecord *,_CONTEXT *,unsigned __int64 *,void *,FuncInfo4 *,int,int,HandlerType4 *,_xDISPATCHER_CONTEXT *,unsigned char)
FUNC 15ff0 10 0 __FuncToImageRelOffset(_xDISPATCHER_CONTEXT *,unsigned int)
FUNC 16004 b 0 __FrameHandler4::TryBlockMap::begin()
FUNC 16014 c 0 __FrameHandler4::TryBlockMap::end()
FUNC 16024 4 0 __FrameHandler3::TryBlockMap::getFuncInfo()
FUNC 16028 5 0 __FrameHandler3::TryBlockMap::getpDC()
FUNC 16030 4 0 __FrameHandler4::TryBlockMap::iterator::incrementToSentinel()
FUNC 16034 175 0 __FrameHandler4::TryBlockMap::setBuffer(__FrameHandler4::TryBlockMap::iterator)
FUNC 16208 3a 0 CreateFrameInfo
FUNC 16250 53 0 FindAndUnlinkFrame
FUNC 162b8 12 0 GetImageBase
FUNC 162d0 12 0 GetThrowImageBase
FUNC 162e8 18 0 SetImageBase
FUNC 16308 18 0 SetThrowImageBase
FUNC 16328 5 0 _CxxFrameHandler
FUNC 16330 5 0 _CxxFrameHandler2
FUNC 16338 7d 0 _CxxFrameHandler3
FUNC 163d4 a1 0 _CxxFrameHandler4
FUNC 164b0 13 0 memcpy_repmovs
FUNC 164d0 435 0 memcpy
FUNC 16a20 27 0 __FrameHandler3::GetCurrentState(unsigned __int64 *,_xDISPATCHER_CONTEXT *,_s_FuncInfo const *)
FUNC 16a50 29 0 __FrameHandler3::GetUnwindTryBlock(unsigned __int64 *,_xDISPATCHER_CONTEXT *,_s_FuncInfo const *)
FUNC 16a84 c 0 __FrameHandler3::SetState(unsigned __int64 *,_s_FuncInfo const *,int)
FUNC 16a94 3b 0 __FrameHandler3::SetUnwindTryBlock(unsigned __int64 *,_xDISPATCHER_CONTEXT *,_s_FuncInfo const *,int)
FUNC 16ae0 8 0 __FrameHandler3::StateFromControlPc(_s_FuncInfo const *,_xDISPATCHER_CONTEXT *)
FUNC 16aec 8 0 __FrameHandler4::StateFromControlPc(FuncInfo4 *,_xDISPATCHER_CONTEXT *)
FUNC 16af8 66 0 __FrameHandler3::StateFromIp(_s_FuncInfo const *,_xDISPATCHER_CONTEXT *,unsigned __int64)
FUNC 16b78 ed 0 __FrameHandler4::StateFromIp(FuncInfo4 *,_xDISPATCHER_CONTEXT *,unsigned __int64)
FUNC 16ca0 4 0 adjustIp
FUNC 16ca4 1fd 0 BuildCatchObjectHelperInternal<_s_HandlerType const >
FUNC 16f20 201 0 BuildCatchObjectHelperInternal<HandlerType4>
FUNC 171a4 c0 0 BuildCatchObjectInternal<_s_HandlerType const >
FUNC 17294 c1 0 BuildCatchObjectInternal<HandlerType4>
FUNC 17388 cd 0 CatchIt<__FrameHandler3>
FUNC 17488 cd 0 CatchIt<__FrameHandler4>
FUNC 17588 461 0 FindHandler<__FrameHandler3>
FUNC 17b04 400 0 FindHandler<__FrameHandler4>
FUNC 18004 22e 0 FindHandlerForForeignException<__FrameHandler3>
FUNC 182c0 237 0 FindHandlerForForeignException<__FrameHandler4>
FUNC 18584 141 0 TypeMatchHelper<_s_HandlerType const >(_s_HandlerType const *,_s_CatchableType const *,_s_ThrowInfo const *)
FUNC 18718 146 0 TypeMatchHelper<HandlerType4>(HandlerType4 *,_s_CatchableType const *,_s_ThrowInfo const *)
FUNC 188b0 246 0 __InternalCxxFrameHandler<__FrameHandler3>(EHExceptionRecord *,unsigned __int64 *,_CONTEXT *,_xDISPATCHER_CONTEXT *,_s_FuncInfo const *,int,unsigned __int64 *,unsigned char)
FUNC 18b88 29f 0 __InternalCxxFrameHandler<__FrameHandler4>(EHExceptionRecord *,unsigned __int64 *,_CONTEXT *,_xDISPATCHER_CONTEXT *,FuncInfo4 *,int,unsigned __int64 *,unsigned char)
FUNC 18ed0 15 0 __FrameHandler3::HandlerMap::HandlerMap(_s_TryBlockMapEntry const *,_xDISPATCHER_CONTEXT *)
FUNC 18eec 6b 0 __FrameHandler4::HandlerMap::HandlerMap(TryBlockMapEntry4 *,_xDISPATCHER_CONTEXT *)
FUNC 18f74 14 0 HandlerType4::HandlerType4()
FUNC 18f90 b 0 __FrameHandler3::TryBlockMap::TryBlockMap(_s_FuncInfo const *,_xDISPATCHER_CONTEXT *)
FUNC 18fa0 eb 0 __FrameHandler4::TryBlockMap::TryBlockMap(FuncInfo4 *,_xDISPATCHER_CONTEXT *)
FUNC 190c8 38 0 UWMap::UWMap(unsigned char *)
FUNC 19110 3f 0 std::bad_exception::bad_exception(std::bad_exception const &)
FUNC 19160 1e 0 std::bad_exception::bad_exception()
FUNC 19188 35 0 std::exception::exception(std::exception const &)
FUNC 191cc 17 0 std::exception::exception(char const * const,int)
FUNC 191e8 b 0 __FrameHandler3::HandlerMap::iterator::iterator(__FrameHandler3::HandlerMap &,unsigned int)
FUNC 191f8 b 0 __FrameHandler4::HandlerMap::iterator::iterator(__FrameHandler4::HandlerMap &,unsigned int)
FUNC 19208 b 0 UWMap::iterator::iterator(UWMap &,unsigned char *)
FUNC 19218 13 0 std::bad_exception::~bad_exception()
FUNC 19230 13 0 std::exception::~exception()
FUNC 19248 c 0 UWMap::iterator::operator=(UWMap::iterator const &)
FUNC 19258 a 0 __FrameHandler3::HandlerMap::iterator::operator==(__FrameHandler3::HandlerMap::iterator const &)
FUNC 19264 a 0 __FrameHandler4::HandlerMap::iterator::operator==(__FrameHandler4::HandlerMap::iterator const &)
FUNC 19270 1b 0 type_info::operator==(type_info const &)
FUNC 19294 a 0 __FrameHandler3::HandlerMap::iterator::operator!=(__FrameHandler3::HandlerMap::iterator const &)
FUNC 192a0 a 0 __FrameHandler4::HandlerMap::iterator::operator!=(__FrameHandler4::HandlerMap::iterator const &)
FUNC 192ac 13 0 __FrameHandler3::HandlerMap::iterator::operator*()
FUNC 192c4 8 0 __FrameHandler4::HandlerMap::iterator::operator*()
FUNC 192d0 1e 0 __FrameHandler3::TryBlockMap::iterator::operator*()
FUNC 192f8 3c 0 UWMap::iterator::operator*()
FUNC 19344 7 0 __FrameHandler3::HandlerMap::iterator::operator++()
FUNC 1934c 1d 0 __FrameHandler4::HandlerMap::iterator::operator++()
FUNC 19370 7 0 __FrameHandler3::TryBlockMap::iterator::operator++()
FUNC 19378 4d 0 UWMap::iterator::operator++()
FUNC 193d8 9 0 UWMap::iterator::operator-(UWMap::iterator const &)
FUNC 193e4 a 0 __FrameHandler3::TryBlockMap::iterator::operator<(__FrameHandler3::TryBlockMap::iterator const &)
FUNC 193f0 a 0 __FrameHandler4::TryBlockMap::iterator::operator<(__FrameHandler4::TryBlockMap::iterator const &)
FUNC 193fc c 0 UWMap::iterator::operator>(UWMap::iterator const &)
FUNC 1940c c 0 UWMap::iterator::operator>=(UWMap::iterator const &)
FUNC 1941c 42 0 std::bad_exception::`scalar deleting destructor'(unsigned int)
FUNC 19470 42 0 std::exception::`scalar deleting destructor'(unsigned int)
FUNC 194c4 5 0 __FrameHandler3::BuildCatchObject(EHExceptionRecord *,void *,_s_HandlerType const *,_s_CatchableType const *)
FUNC 194cc 5 0 __FrameHandler4::BuildCatchObject(EHExceptionRecord *,void *,HandlerType4 *,_s_CatchableType const *)
FUNC 194d4 5 0 __FrameHandler3::BuildCatchObjectHelper(EHExceptionRecord *,void *,_s_HandlerType const *,_s_CatchableType const *)
FUNC 194dc 5 0 __FrameHandler4::BuildCatchObjectHelper(EHExceptionRecord *,void *,HandlerType4 *,_s_CatchableType const *)
FUNC 194e4 1ea 0 __FrameHandler3::CxxCallCatchBlock(_EXCEPTION_RECORD *)
FUNC 19748 240 0 __FrameHandler4::CxxCallCatchBlock(_EXCEPTION_RECORD *)
FUNC 19a18 147 0 __FrameHandler4::HandlerMap::DecompHandler()
FUNC 19bb0 87 0 ExFilterRethrow
FUNC 19c58 193 0 __FrameHandler3::FrameUnwindToState(unsigned __int64 *,_xDISPATCHER_CONTEXT *,_s_FuncInfo const *,int)
FUNC 19e50 2d9 0 __FrameHandler4::FrameUnwindToState(unsigned __int64 *,_xDISPATCHER_CONTEXT *,FuncInfo4 *,int)
FUNC 1a1e0 96 0 __FrameHandler3::GetHandlerSearchState(unsigned __int64 *,_xDISPATCHER_CONTEXT *,_s_FuncInfo const *)
FUNC 1a29c 37 0 __FrameHandler4::GetHandlerSearchState(unsigned __int64 *,_xDISPATCHER_CONTEXT *,FuncInfo4 *)
FUNC 1a2e0 4 0 __FrameHandler3::GetMaxState(_xDISPATCHER_CONTEXT *,_s_FuncInfo const *)
FUNC 1a2e4 38 0 __FrameHandler4::GetMaxState(_xDISPATCHER_CONTEXT *,FuncInfo4 *)
FUNC 1a32c d6 0 IsInExceptionSpec
FUNC 1a438 91 0 Is_bad_exception_allowed
FUNC 1a4f0 99 0 UWMap::ReadEntry()
FUNC 1a5b0 5 0 __FrameHandler3::TypeMatch(_s_HandlerType const *,_s_CatchableType const *,_s_ThrowInfo const *)
FUNC 1a5b8 5 0 __FrameHandler4::TypeMatch(HandlerType4 *,_s_CatchableType const *,_s_ThrowInfo const *)
FUNC 1a5c0 2e 0 UWMap::WalkBack()
FUNC 1a5fc 9 0 _CallMemberFunction1(void * const,void * const,void * const)
FUNC 1a608 f 0 _CallMemberFunction2(void * const,void * const,void * const,int)
FUNC 1a61c 7 0 _ValidateExecute(__int64 (*)(void))
FUNC 1a624 7 0 _ValidateRead(void const *,unsigned int)
FUNC 1a62c 7 0 _ValidateWrite(void *,unsigned int)
FUNC 1a634 14 0 __RethrowException
FUNC 1a650 b 0 __FrameHandler3::HandlerMap::begin()
FUNC 1a660 b 0 __FrameHandler4::HandlerMap::begin()
FUNC 1a670 f 0 UWMap::begin()
FUNC 1a684 c 0 __FrameHandler3::HandlerMap::end()
FUNC 1a694 c 0 __FrameHandler4::HandlerMap::end()
FUNC 1a6a4 28 0 __FrameHandler3::getESTypes(_s_FuncInfo const *)
FUNC 1a6d8 3 0 __FrameHandler4::getESTypes(FuncInfo4 *)
FUNC 1a6dc 13 0 __FrameHandler3::HandlerMap::getLastEntry()
FUNC 1a6f4 4e 0 __FrameHandler4::HandlerMap::getLastEntry()
FUNC 1a758 8 0 __FrameHandler3::getMagicNum(_s_FuncInfo const *)
FUNC 1a764 6 0 __FrameHandler4::getMagicNum(FuncInfo4 *)
FUNC 1a76c 7 0 __FrameHandler3::TryBlockMap::getNumTryBlocks()
FUNC 1a774 3 0 __FrameHandler4::TryBlockMap::getNumTryBlocks()
FUNC 1a778 12 0 UWMap::getOffsetIter(__int64)
FUNC 1a790 a1 0 UWMap::getStartStop(int,int,UWMap::iterator &,UWMap::iterator &)
FUNC 1a85c 86 0 UWMap::getStateIter(int)
FUNC 1a904 6 0 __FrameHandler3::isEHs(_s_FuncInfo const *)
FUNC 1a90c 8 0 __FrameHandler4::isEHs(FuncInfo4 *)
FUNC 1a918 9 0 __FrameHandler3::isNoExcept(_s_FuncInfo const *)
FUNC 1a924 8 0 __FrameHandler4::isNoExcept(FuncInfo4 *)
FUNC 1a930 11 0 HandlerType4::reset()
FUNC 1a948 d 0 __FrameHandler4::HandlerMap::resetBuffer()
FUNC 1a958 39 0 __FrameHandler4::HandlerMap::setBuffer(unsigned int)
FUNC 1a9a0 12 0 std::exception::what()
FUNC 1a9b8 5 0 _BuildCatchObject
FUNC 1a9c0 5 0 _BuildCatchObjectHelper
FUNC 1a9c8 5 0 _TypeMatch
FUNC 1a9d0 7 0 _vcrt_EncodePointer
FUNC 1a9f0 40 0 CallSettingFrame
FUNC 1aa40 47 0 CallSettingFrameEncoded
FUNC 1aab0 8 0 __crt_public_free_policy::operator()<char>(char const * const)
FUNC 1aabc 7 0 __crt_unique_heap_ptr<char,__crt_public_free_policy>::__crt_unique_heap_ptr<char,__crt_public_free_policy>(char * const)
FUNC 1aac4 1b 0 __crt_unique_heap_ptr<char,__crt_public_free_policy>::~__crt_unique_heap_ptr<char,__crt_public_free_policy>()
FUNC 1aae8 8 0 __crt_unique_heap_ptr<char,__crt_public_free_policy>::operator bool()
FUNC 1aaf4 8 0 __crt_unique_heap_ptr<char,__crt_public_free_policy>::detach()
FUNC 1ab00 4 0 __crt_unique_heap_ptr<char,__crt_public_free_policy>::get()
FUNC 1ab04 8 0 __crt_unique_heap_ptr<char,__crt_public_free_policy>::is_valid()
FUNC 1ab10 1b 0 __crt_unique_heap_ptr<char,__crt_public_free_policy>::release()
FUNC 1ab34 8d 0 _std_exception_copy
FUNC 1abe4 25 0 _std_exception_destroy
FUNC 1ac14 bf 0 CxxThrowException
FUNC 1ad04 16 0 __crt_fast_decode_pointer<void (__cdecl*)(wchar_t const *,wchar_t const *,wchar_t const *,unsigned int,unsigned __int64)>
FUNC 1ad20 1e 0 __crt_fast_encode_pointer<void (__cdecl*)(wchar_t const *,wchar_t const *,wchar_t const *,unsigned int,unsigned __int64)>
FUNC 1ad48 7 0 __crt_state_management::dual_state_global<void (__cdecl*)(wchar_t const *,wchar_t const *,wchar_t const *,unsigned int,unsigned __int64)>::initialize_from_array<void (__cdecl*[1])(wchar_t const *,wchar_t const *,wchar_t const *,unsigned int,unsigned __int64)>
FUNC 1ad50 6d 0 capture_current_context
FUNC 1add8 4 0 __crt_state_management::dual_state_global<void (__cdecl*)(wchar_t const *,wchar_t const *,wchar_t const *,unsigned int,unsigned __int64)>::dangerous_get_state_array
FUNC 1addc 3 0 __crt_state_management::get_current_state_index()
FUNC 1ade0 4 0 __crt_state_management::dual_state_global<void (__cdecl*)(wchar_t const *,wchar_t const *,wchar_t const *,unsigned int,unsigned __int64)>::value
FUNC 1ade4 15b 0 _acrt_call_reportfault
FUNC 1af98 8 0 _acrt_initialize_invalid_parameter_handler
FUNC 1afa4 17 0 get_invalid_parameter_handler
FUNC 1afc0 1a 0 get_thread_local_invalid_parameter_handler
FUNC 1afe0 ae 0 invalid_parameter
FUNC 1b0bc 1e 0 invalid_parameter_noinfo
FUNC 1b0e4 2f 0 invalid_parameter_noinfo_noreturn
FUNC 1b120 47 0 invoke_watson
FUNC 1b178 34 0 set_invalid_parameter_handler
FUNC 1b1bc 25 0 set_thread_local_invalid_parameter_handler
FUNC 1b1ec 64 0 initterm
FUNC 1b26c 3d 0 initterm_e
FUNC 1b2b8 11 0 free
FUNC 1b2d0 1d 0 xcptlookup
FUNC 1b2f4 13 0 seh_filter_dll
FUNC 1b30c 182 0 seh_filter_exe
FUNC 1b4f0 8 0 __crt_fast_encoded_nullptr_t::operator<void __cdecl(void *,unsigned long,void *)> void (__cdecl*)(void *,unsigned long,void *)
FUNC 1b4fc 38 0 __crt_seh_guarded_call<void>::operator()<<lambda_d80eeec6fff315bfe5c115232f3240e3>,<lambda_6e4b09c48022b2350581041d5f6b0c4c> &,<lambda_2358e3775559c9db80273638284d5e45> >
FUNC 1b544 26 0 __acrt_lock_and_call<<lambda_6e4b09c48022b2350581041d5f6b0c4c> >
FUNC 1b574 16 0 __crt_fast_decode_pointer<void (__cdecl*)(void *,unsigned long,void *)>
FUNC 1b590 1e 0 __crt_fast_encode_pointer<void (__cdecl*)(void *,unsigned long,void *)>
FUNC 1b5b8 7 0 __crt_get_proc_address<void (*)(unsigned int)>(HINSTANCE__ * const,char const * const)
FUNC 1b5c0 3 0 __crt_interlocked_read<long>(long const volatile *)
FUNC 1b5c4 8 0 <lambda_2358e3775559c9db80273638284d5e45>::<lambda_2358e3775559c9db80273638284d5e45>
FUNC 1b5d0 f 0 <lambda_6e4b09c48022b2350581041d5f6b0c4c>::<lambda_6e4b09c48022b2350581041d5f6b0c4c>
FUNC 1b5e4 8 0 <lambda_d80eeec6fff315bfe5c115232f3240e3>::<lambda_d80eeec6fff315bfe5c115232f3240e3>
FUNC 1b5f0 7 0 __crt_unique_handle_t<__crt_hmodule_traits>::__crt_unique_handle_t<__crt_hmodule_traits>(HINSTANCE__ * const)
FUNC 1b5f8 21 0 __crt_unique_handle_t<__crt_hmodule_traits>::~__crt_unique_handle_t<__crt_hmodule_traits>()
FUNC 1b624 7 0 <lambda_2358e3775559c9db80273638284d5e45>::operator()
FUNC 1b62c c1 0 <lambda_6e4b09c48022b2350581041d5f6b0c4c>::operator()
FUNC 1b720 7 0 <lambda_d80eeec6fff315bfe5c115232f3240e3>::operator()
FUNC 1b728 6 0 __acrt_select_exit_lock()
FUNC 1b730 3 0 __crt_interlocked_read_32(int const volatile *)
FUNC 1b734 c 0 atexit_exception_filter
FUNC 1b744 21 0 __crt_unique_handle_t<__crt_hmodule_traits>::close()
FUNC 1b770 14 0 __crt_hmodule_traits::close(HINSTANCE__ *)
FUNC 1b78c bc 0 common_exit
FUNC 1b878 4a 0 exit_or_terminate_process
FUNC 1b8d4 4 0 __crt_unique_handle_t<__crt_hmodule_traits>::get()
FUNC 1b8d8 4 0 __crt_unique_handle_t<__crt_hmodule_traits>::get_address_of()
FUNC 1b8dc 3 0 __crt_hmodule_traits::get_invalid_value()
FUNC 1b8e0 52 0 is_managed_app
FUNC 1b948 30 0 should_call_terminate_process
FUNC 1b984 5b 0 try_cor_exit_process
FUNC 1b9f8 c 0 Exit
FUNC 1ba08 8 0 _acrt_initialize_thread_local_exit_callback
FUNC 1ba14 10 0 c_exit
FUNC 1ba28 d 0 cexit
FUNC 1ba38 c 0 exit
FUNC 1ba48 7 0 is_c_termination_complete
FUNC 1ba50 3c 0 register_thread_local_exe_atexit_callback
FUNC 1ba9c a 0 exit
FUNC 1baa8 c 0 quick_exit
FUNC 1bab8 8 0 __crt_internal_free_policy::operator()<unsigned char>(unsigned char const * const)
FUNC 1bac4 8 0 __crt_internal_free_policy::operator()<char *>
FUNC 1bad0 8 0 __crt_internal_free_policy::operator()<wchar_t *>
FUNC 1badc 175 0 common_configure_argv<char>
FUNC 1bcb0 171 0 common_configure_argv<wchar_t>
FUNC 1be80 b 0 __crt_char_traits<char>::get_module_file_name<std::nullptr_t,char (&)[261],int>
FUNC 1be90 d 0 __crt_char_traits<wchar_t>::get_module_file_name<std::nullptr_t,wchar_t (&)[261],int>
FUNC 1bea0 1c3 0 parse_command_line<char>
FUNC 1c0d4 1a2 0 parse_command_line<wchar_t>
FUNC 1c2e0 b 0 __crt_char_traits<char>::set_program_name<char *>
FUNC 1c2f0 b 0 __crt_char_traits<wchar_t>::set_program_name<wchar_t *>
FUNC 1c300 7 0 <lambda_a36aafc41185bea294aaaa3896c79ecc>::<lambda_a36aafc41185bea294aaaa3896c79ecc>
FUNC 1c308 7 0 <lambda_df1553121bfa390f1154bd84936f2730>::<lambda_df1553121bfa390f1154bd84936f2730>
FUNC 1c310 7 0 __crt_unique_heap_ptr<unsigned char,__crt_internal_free_policy>::__crt_unique_heap_ptr<unsigned char,__crt_internal_free_policy>(unsigned char * const)
FUNC 1c318 7 0 __crt_unique_heap_ptr<char *,__crt_internal_free_policy>::__crt_unique_heap_ptr<char *,__crt_internal_free_policy>
FUNC 1c320 7 0 __crt_unique_heap_ptr<wchar_t *,__crt_internal_free_policy>::__crt_unique_heap_ptr<wchar_t *,__crt_internal_free_policy>
FUNC 1c328 1b 0 __crt_unique_heap_ptr<unsigned char,__crt_internal_free_policy>::~__crt_unique_heap_ptr<unsigned char,__crt_internal_free_policy>()
FUNC 1c34c 1b 0 __crt_unique_heap_ptr<char *,__crt_internal_free_policy>::~__crt_unique_heap_ptr<char *,__crt_internal_free_policy>
FUNC 1c370 1b 0 __crt_unique_heap_ptr<wchar_t *,__crt_internal_free_policy>::~__crt_unique_heap_ptr<wchar_t *,__crt_internal_free_policy>
FUNC 1c394 8 0 __crt_unique_heap_ptr<unsigned char,__crt_internal_free_policy>::operator bool()
FUNC 1c3a0 1b 0 <lambda_a36aafc41185bea294aaaa3896c79ecc>::operator()
FUNC 1c3c4 1b 0 <lambda_df1553121bfa390f1154bd84936f2730>::operator()
FUNC 1c3e8 8 0 __crt_unique_heap_ptr<unsigned char,__crt_internal_free_policy>::detach()
FUNC 1c3f4 8 0 __crt_unique_heap_ptr<char *,__crt_internal_free_policy>::detach
FUNC 1c400 8 0 __crt_unique_heap_ptr<wchar_t *,__crt_internal_free_policy>::detach
FUNC 1c40c 5 0 do_locale_initialization
FUNC 1c414 3 0 do_locale_initialization
FUNC 1c418 5 0 expand_argv_wildcards
FUNC 1c420 5 0 expand_argv_wildcards
FUNC 1c428 4 0 __crt_unique_heap_ptr<unsigned char,__crt_internal_free_policy>::get()
FUNC 1c42c 4 0 __crt_unique_heap_ptr<char *,__crt_internal_free_policy>::get
FUNC 1c430 4 0 __crt_unique_heap_ptr<wchar_t *,__crt_internal_free_policy>::get
FUNC 1c434 4 0 __crt_unique_heap_ptr<char *,__crt_internal_free_policy>::get_address_of
FUNC 1c438 4 0 __crt_unique_heap_ptr<wchar_t *,__crt_internal_free_policy>::get_address_of
FUNC 1c43c 8 0 get_argv
FUNC 1c448 8 0 get_argv
FUNC 1c454 8 0 get_command_line
FUNC 1c460 8 0 get_command_line
FUNC 1c46c 8 0 __crt_unique_heap_ptr<unsigned char,__crt_internal_free_policy>::is_valid()
FUNC 1c478 1b 0 __crt_unique_heap_ptr<unsigned char,__crt_internal_free_policy>::release()
FUNC 1c49c 1b 0 __crt_unique_heap_ptr<char *,__crt_internal_free_policy>::release
FUNC 1c4c0 1b 0 __crt_unique_heap_ptr<wchar_t *,__crt_internal_free_policy>::release
FUNC 1c4e4 16 0 should_copy_another_character
FUNC 1c500 3 0 should_copy_another_character
FUNC 1c504 5d 0 _acrt_allocate_buffer_for_argv
FUNC 1c578 186 0 configure_narrow_argv
FUNC 1c760 182 0 configure_wide_argv
FUNC 1c944 8 0 set_pgmptr
FUNC 1c950 8 0 set_wpgmptr
FUNC 1c95c 8 0 __crt_internal_free_policy::operator()<wchar_t>(wchar_t const * const)
FUNC 1c968 4e 0 common_get_initial_environment<char>
FUNC 1c9cc 4e 0 common_get_initial_environment<wchar_t>
FUNC 1ca30 3b 0 common_get_or_create_environment_nolock<char>
FUNC 1ca7c 3b 0 common_get_or_create_environment_nolock<wchar_t>
FUNC 1cac8 6c 0 common_initialize_environment_nolock<char>
FUNC 1cb50 67 0 common_initialize_environment_nolock<wchar_t>
FUNC 1cbd0 32 0 count_variables_in_environment_block<char>
FUNC 1cc10 3c 0 count_variables_in_environment_block<wchar_t>
FUNC 1cc5c 106 0 create_environment<char>
FUNC 1cda4 113 0 create_environment<wchar_t>
FUNC 1cefc 41 0 free_environment<char>
FUNC 1cf50 41 0 free_environment<wchar_t>
FUNC 1cfa4 5 0 __crt_char_traits<char>::get_environment_from_os<>()
FUNC 1cfac 5 0 __crt_char_traits<wchar_t>::get_environment_from_os<>()
FUNC 1cfb4 d1 0 initialize_environment_by_cloning_nolock<char>
FUNC 1d0bc b1 0 initialize_environment_by_cloning_nolock<wchar_t>
FUNC 1d19c a 0 __crt_char_traits<char>::set_variable_in_environment_nolock<char *,int>
FUNC 1d1a8 a 0 __crt_char_traits<wchar_t>::set_variable_in_environment_nolock<wchar_t *,int>
FUNC 1d1b4 e 0 __crt_char_traits<char>::tcscpy_s<char *,unsigned __int64 const &,char * &>
FUNC 1d1c8 e 0 __crt_char_traits<wchar_t>::tcscpy_s<wchar_t *,unsigned __int64 const &,wchar_t * &>
FUNC 1d1dc 11 0 __crt_char_traits<char>::tcslen<char * &>
FUNC 1d1f4 12 0 __crt_char_traits<wchar_t>::tcslen<wchar_t * &>
FUNC 1d20c 43 0 __crt_state_management::dual_state_global<char * *>::uninitialize<void (__cdecl&)(char * * &)>
FUNC 1d260 43 0 __crt_state_management::dual_state_global<wchar_t * *>::uninitialize<void (__cdecl&)(wchar_t * * &)>
FUNC 1d2b4 1a 0 uninitialize_environment_internal<char>
FUNC 1d2d4 1a 0 uninitialize_environment_internal<wchar_t>
FUNC 1d2f4 7 0 __crt_unique_heap_ptr<wchar_t,__crt_internal_free_policy>::__crt_unique_heap_ptr<wchar_t,__crt_internal_free_policy>(wchar_t * const)
FUNC 1d2fc 1b 0 __crt_unique_heap_ptr<wchar_t,__crt_internal_free_policy>::~__crt_unique_heap_ptr<wchar_t,__crt_internal_free_policy>()
FUNC 1d320 8 0 __crt_unique_heap_ptr<char *,__crt_internal_free_policy>::operator bool
FUNC 1d32c 8 0 __crt_unique_heap_ptr<wchar_t *,__crt_internal_free_policy>::operator bool
FUNC 1d338 8 0 __crt_unique_heap_ptr<wchar_t,__crt_internal_free_policy>::operator bool()
FUNC 1d344 24 0 __crt_compute_required_transform_buffer_count(unsigned int,char const * const)
FUNC 1d374 2e 0 __crt_compute_required_transform_buffer_count(unsigned int,wchar_t const * const)
FUNC 1d3b0 23 0 __crt_transform_string(unsigned int,char const * const,wchar_t * const,unsigned __int64)
FUNC 1d3dc 2e 0 __crt_transform_string(unsigned int,wchar_t const * const,char * const,unsigned __int64)
FUNC 1d418 8 0 __crt_unique_heap_ptr<char,__crt_internal_free_policy>::detach()
FUNC 1d424 8 0 __crt_unique_heap_ptr<wchar_t,__crt_internal_free_policy>::detach()
FUNC 1d430 4 0 __crt_unique_heap_ptr<wchar_t,__crt_internal_free_policy>::get()
FUNC 1d434 8 0 get_dual_state_environment_nolock
FUNC 1d440 8 0 get_dual_state_environment_nolock
FUNC 1d44c 8 0 get_environment_nolock
FUNC 1d458 8 0 get_environment_nolock
FUNC 1d464 8 0 get_initial_environment
FUNC 1d470 8 0 get_initial_environment
FUNC 1d47c 27 0 __crt_state_management::dual_state_global<char * *>::initialize
FUNC 1d4ac 27 0 __crt_state_management::dual_state_global<wchar_t * *>::initialize
FUNC 1d4dc 8 0 __crt_unique_heap_ptr<char *,__crt_internal_free_policy>::is_valid
FUNC 1d4e8 8 0 __crt_unique_heap_ptr<wchar_t *,__crt_internal_free_policy>::is_valid
FUNC 1d4f4 8 0 __crt_unique_heap_ptr<wchar_t,__crt_internal_free_policy>::is_valid()
FUNC 1d500 5 0 pre_initialize
FUNC 1d508 3 0 pre_initialize
FUNC 1d50c 1b 0 __crt_unique_heap_ptr<wchar_t,__crt_internal_free_policy>::release()
FUNC 1d530 4 0 __crt_state_management::dual_state_global<char * *>::value
FUNC 1d534 4 0 __crt_state_management::dual_state_global<wchar_t * *>::value
FUNC 1d538 3b 0 _dcrt_get_or_create_narrow_environment_nolock
FUNC 1d584 3b 0 _dcrt_get_or_create_wide_environment_nolock
FUNC 1d5d0 38 0 _dcrt_uninitialize_environments_nolock
FUNC 1d618 8 0 _p__environ
FUNC 1d624 8 0 _p__wenviron
FUNC 1d630 4e 0 get_initial_narrow_environment
FUNC 1d694 4e 0 get_initial_wide_environment
FUNC 1d6f8 5 0 initialize_narrow_environment
FUNC 1d700 5 0 initialize_wide_environment
FUNC 1d708 31 0 invoke_watson_if_error
FUNC 1d748 8 0 __crt_fast_encoded_nullptr_t::operator<void (__cdecl*)(void)> void (__cdecl**)(void)
FUNC 1d754 8 0 __crt_internal_free_policy::operator()<void (*)(void)>(void (*const * const)(void))
FUNC 1d760 3b 0 __crt_seh_guarded_call<int>::operator()<<lambda_638799b9deba96c50f710eeac98168cd>,<lambda_22ebabd17bc4fa466a2aca6d8deb888d> &,<lambda_a6f7d7db0129f75315ebf26d50c089f1> >
FUNC 1d7ac 3b 0 __crt_seh_guarded_call<int>::operator()<<lambda_7777bce6b2f8c936911f934f8298dc43>,<lambda_f03950bc5685219e0bcd2087efbe011e> &,<lambda_3883c3dff614d5e0c5f61bb1ac94921c> >
FUNC 1d7f8 26 0 __acrt_lock_and_call<<lambda_22ebabd17bc4fa466a2aca6d8deb888d> >
FUNC 1d828 26 0 __acrt_lock_and_call<<lambda_f03950bc5685219e0bcd2087efbe011e> >
FUNC 1d858 1e 0 __crt_fast_encode_pointer<int (*)(void)>(int (*const)(void))
FUNC 1d880 b 0 <lambda_22ebabd17bc4fa466a2aca6d8deb888d>::<lambda_22ebabd17bc4fa466a2aca6d8deb888d>
FUNC 1d890 8 0 <lambda_3883c3dff614d5e0c5f61bb1ac94921c>::<lambda_3883c3dff614d5e0c5f61bb1ac94921c>
FUNC 1d89c 8 0 <lambda_638799b9deba96c50f710eeac98168cd>::<lambda_638799b9deba96c50f710eeac98168cd>
FUNC 1d8a8 8 0 <lambda_7777bce6b2f8c936911f934f8298dc43>::<lambda_7777bce6b2f8c936911f934f8298dc43>
FUNC 1d8b4 8 0 <lambda_a6f7d7db0129f75315ebf26d50c089f1>::<lambda_a6f7d7db0129f75315ebf26d50c089f1>
FUNC 1d8c0 7 0 <lambda_f03950bc5685219e0bcd2087efbe011e>::<lambda_f03950bc5685219e0bcd2087efbe011e>
FUNC 1d8c8 7 0 __crt_unique_heap_ptr<void (*)(void),__crt_internal_free_policy>::__crt_unique_heap_ptr<void (*)(void),__crt_internal_free_policy>(void (** const)(void))
FUNC 1d8d0 1b 0 __crt_unique_heap_ptr<void (*)(void),__crt_internal_free_policy>::~__crt_unique_heap_ptr<void (*)(void),__crt_internal_free_policy>()
FUNC 1d8f4 3 0 __crt_state_management::scoped_global_state_reset::~scoped_global_state_reset()
FUNC 1d8f8 1b0 0 <lambda_22ebabd17bc4fa466a2aca6d8deb888d>::operator()
FUNC 1db14 7 0 <lambda_3883c3dff614d5e0c5f61bb1ac94921c>::operator()
FUNC 1db1c 7 0 <lambda_638799b9deba96c50f710eeac98168cd>::operator()
FUNC 1db24 7 0 <lambda_7777bce6b2f8c936911f934f8298dc43>::operator()
FUNC 1db2c 7 0 <lambda_a6f7d7db0129f75315ebf26d50c089f1>::operator()
FUNC 1db34 116 0 <lambda_f03950bc5685219e0bcd2087efbe011e>::operator()
FUNC 1dc90 8 0 __crt_unique_heap_ptr<void (*)(void),__crt_internal_free_policy>::detach()
FUNC 1dc9c 1b 0 __crt_unique_heap_ptr<void (*)(void),__crt_internal_free_policy>::release()
FUNC 1dcc0 f 0 crt_at_quick_exit
FUNC 1dcd4 f 0 crt_atexit
FUNC 1dce8 3a 0 execute_onexit_table
FUNC 1dd30 27 0 initialize_onexit_table
FUNC 1dd60 48 0 register_onexit_function
FUNC 1ddbc 11 0 initialize_global_variables
FUNC 1ddd4 23 0 initialize_c
FUNC 1de00 3 0 uninitialize_c
FUNC 1de04 3 0 initialize_environment
FUNC 1de08 10 0 uninitialize_environment
FUNC 1de1c 3 0 initialize_global_state_isolation
FUNC 1de20 3 0 uninitialize_global_state_isolation
FUNC 1de24 3d 0 initialize_pointers
FUNC 1de70 7 0 uninitialize_vcruntime
FUNC 1de78 40 0 uninitialize_allocated_memory
FUNC 1dec8 5b 0 uninitialize_allocated_io_buffers
FUNC 1df3c 3 0 report_memory_leaks
FUNC 1df40 6f 0 __crt_state_management::dual_state_global<__crt_multibyte_data *>::uninitialize<<lambda_af42a3ee9806e9a7305d451646e05244> >
FUNC 1dfcc 3e 0 <lambda_af42a3ee9806e9a7305d451646e05244>::operator()
FUNC 1e01c c 0 __acrt_stdio_is_initialized()
FUNC 1e02c 27 0 __crt_state_management::dual_state_global<__crt_locale_data *>::initialize
FUNC 1e05c 13 0 _acrt_initialize
FUNC 1e074 14 0 _acrt_thread_attach
FUNC 1e090 10 0 _acrt_thread_detach
FUNC 1e0a4 35 0 _acrt_uninitialize
FUNC 1e0e8 10 0 _acrt_uninitialize_critical
FUNC 1e0fc 12 0 get_terminate_or_default
FUNC 1e114 22 0 get_terminate
FUNC 1e140 2c 0 set_terminate
FUNC 1e178 20 0 terminate
FUNC 1e1a0 5 0 malloc
FUNC 1e1a8 62 0 common_tcscpy_s<char>
FUNC 1e224 5f 0 strcpy_s
FUNC 1e29c 81 0 __crt_stdio_output::format_validation_base<char,__crt_stdio_output::stream_output_adapter<char> >::format_validation_base<char,__crt_stdio_output::stream_output_adapter<char> ><__crt_stdio_output::stream_output_adapter<char> const &,unsigned __int64 const &,char const * const &,__crt_locale_pointers * const &,char * const &>
FUNC 1e340 9e 0 __crt_stdio_output::positional_parameter_base<char,__crt_stdio_output::stream_output_adapter<char> >::positional_parameter_base<char,__crt_stdio_output::stream_output_adapter<char> ><__crt_stdio_output::stream_output_adapter<char> const &,unsigned __int64 const &,char const * const &,__crt_locale_pointers * const &,char * const &>
FUNC 1e408 81 0 __crt_stdio_output::standard_base<char,__crt_stdio_output::stream_output_adapter<char> >::standard_base<char,__crt_stdio_output::stream_output_adapter<char> ><__crt_stdio_output::stream_output_adapter<char> const &,unsigned __int64 const &,char const * const &,__crt_locale_pointers * const &,char * const &>
FUNC 1e4ac 85 0 __crt_stdio_output::format_validation_base<wchar_t,__crt_stdio_output::stream_output_adapter<wchar_t> >::format_validation_base<wchar_t,__crt_stdio_output::stream_output_adapter<wchar_t> ><__crt_stdio_output::stream_output_adapter<wchar_t> const &,unsigned __int64 const &,wchar_t const * const &,__crt_locale_pointers * const &,char * const &>
FUNC 1e554 a2 0 __crt_stdio_output::positional_parameter_base<wchar_t,__crt_stdio_output::stream_output_adapter<wchar_t> >::positional_parameter_base<wchar_t,__crt_stdio_output::stream_output_adapter<wchar_t> ><__crt_stdio_output::stream_output_adapter<wchar_t> const &,unsigned __int64 const &,wchar_t const * const &,__crt_locale_pointers * const &,char * const &>
FUNC 1e620 85 0 __crt_stdio_output::standard_base<wchar_t,__crt_stdio_output::stream_output_adapter<wchar_t> >::standard_base<wchar_t,__crt_stdio_output::stream_output_adapter<wchar_t> ><__crt_stdio_output::stream_output_adapter<wchar_t> const &,unsigned __int64 const &,wchar_t const * const &,__crt_locale_pointers * const &,char * const &>
FUNC 1e6c8 81 0 __crt_stdio_output::format_validation_base<char,__crt_stdio_output::string_output_adapter<char> >::format_validation_base<char,__crt_stdio_output::string_output_adapter<char> ><__crt_stdio_output::string_output_adapter<char> const &,unsigned __int64 const &,char const * const &,__crt_locale_pointers * const &,char * const &>
FUNC 1e76c 9e 0 __crt_stdio_output::positional_parameter_base<char,__crt_stdio_output::string_output_adapter<char> >::positional_parameter_base<char,__crt_stdio_output::string_output_adapter<char> ><__crt_stdio_output::string_output_adapter<char> const &,unsigned __int64 const &,char const * const &,__crt_locale_pointers * const &,char * const &>
FUNC 1e834 81 0 __crt_stdio_output::standard_base<char,__crt_stdio_output::string_output_adapter<char> >::standard_base<char,__crt_stdio_output::string_output_adapter<char> ><__crt_stdio_output::string_output_adapter<char> const &,unsigned __int64 const &,char const * const &,__crt_locale_pointers * const &,char * const &>
FUNC 1e8d8 85 0 __crt_stdio_output::format_validation_base<wchar_t,__crt_stdio_output::string_output_adapter<wchar_t> >::format_validation_base<wchar_t,__crt_stdio_output::string_output_adapter<wchar_t> ><__crt_stdio_output::string_output_adapter<wchar_t> const &,unsigned __int64 const &,wchar_t const * const &,__crt_locale_pointers * const &,char * const &>
FUNC 1e980 a2 0 __crt_stdio_output::positional_parameter_base<wchar_t,__crt_stdio_output::string_output_adapter<wchar_t> >::positional_parameter_base<wchar_t,__crt_stdio_output::string_output_adapter<wchar_t> ><__crt_stdio_output::string_output_adapter<wchar_t> const &,unsigned __int64 const &,wchar_t const * const &,__crt_locale_pointers * const &,char * const &>
FUNC 1ea4c 85 0 __crt_stdio_output::standard_base<wchar_t,__crt_stdio_output::string_output_adapter<wchar_t> >::standard_base<wchar_t,__crt_stdio_output::string_output_adapter<wchar_t> ><__crt_stdio_output::string_output_adapter<wchar_t> const &,unsigned __int64 const &,wchar_t const * const &,__crt_locale_pointers * const &,char * const &>
FUNC 1eaf4 3d 0 __crt_seh_guarded_call<int>::operator()<<lambda_63c71d947f2ce890aa4aac7392f1cbed>,<lambda_e3269ba96939e7713c73908c0d757d25> &,<lambda_3776af017df72547960a8ac98bb265e7> >
FUNC 1eb40 3d 0 __crt_seh_guarded_call<int>::operator()<<lambda_676bd5779251ec186b530f0a904b4b35>,<lambda_b579ea784fd840951dfbcbdaebf709fd> &,<lambda_10027885da78ada7fb00668d7e2e96b5> >
FUNC 1eb8c 3d 0 __crt_seh_guarded_call<int>::operator()<<lambda_8be82e0ce9ca3860586e20edfb7a650e>,<lambda_673ffc0dc9412a0afcf2088e0e1b9bdc> &,<lambda_c997b1ad71a4c19edf3d1d12a5864641> >
FUNC 1ebd8 3d 0 __crt_seh_guarded_call<int>::operator()<<lambda_d1b8e9147f7260ae436300a3cb83e6d4>,<lambda_e638437c4db75b75056fab6aaf7e4f15> &,<lambda_8c9f37a989ed2ac074735e5b535e306a> >
FUNC 1ec24 3d 0 __crt_seh_guarded_call<int>::operator()<<lambda_e746820a99d01fe878d2dbd7f1018dff>,<lambda_a993425e72f5bd8b40f5859286f153c4> &,<lambda_4dad5d88921143c78c186dc2683775b0> >
FUNC 1ec70 3d 0 __crt_seh_guarded_call<int>::operator()<<lambda_fe5404e9642edbb7c8ae71e1dcfa4018>,<lambda_36eeb330e99a4f0bf8a7da86d0894cb9> &,<lambda_2fa474834de80dc12f7a3c6eddd7a366> >
FUNC 1ecbc 28 0 __acrt_lock_stream_and_call<<lambda_36eeb330e99a4f0bf8a7da86d0894cb9> >
FUNC 1ecf0 28 0 __acrt_lock_stream_and_call<<lambda_673ffc0dc9412a0afcf2088e0e1b9bdc> >
FUNC 1ed24 28 0 __acrt_lock_stream_and_call<<lambda_a993425e72f5bd8b40f5859286f153c4> >
FUNC 1ed58 28 0 __acrt_lock_stream_and_call<<lambda_b579ea784fd840951dfbcbdaebf709fd> >
FUNC 1ed8c 28 0 __acrt_lock_stream_and_call<<lambda_e3269ba96939e7713c73908c0d757d25> >
FUNC 1edc0 28 0 __acrt_lock_stream_and_call<<lambda_e638437c4db75b75056fab6aaf7e4f15> >
FUNC 1edf4 85 0 common_vfprintf<__crt_stdio_output::format_validation_base,char>
FUNC 1ee9c 85 0 common_vfprintf<__crt_stdio_output::format_validation_base,wchar_t>
FUNC 1ef44 85 0 common_vfprintf<__crt_stdio_output::positional_parameter_base,char>
FUNC 1efec 85 0 common_vfprintf<__crt_stdio_output::positional_parameter_base,wchar_t>
FUNC 1f094 85 0 common_vfprintf<__crt_stdio_output::standard_base,char>
FUNC 1f13c 85 0 common_vfprintf<__crt_stdio_output::standard_base,wchar_t>
FUNC 1f1e4 114 0 common_vsnprintf_s<char>
FUNC 1f340 117 0 common_vsnprintf_s<wchar_t>
FUNC 1f49c 1cb 0 common_vsprintf<__crt_stdio_output::format_validation_base,char>
FUNC 1f6dc 1d2 0 common_vsprintf<__crt_stdio_output::format_validation_base,wchar_t>
FUNC 1f924 1e7 0 common_vsprintf<__crt_stdio_output::positional_parameter_base,char>
FUNC 1fb84 1ee 0 common_vsprintf<__crt_stdio_output::positional_parameter_base,wchar_t>
FUNC 1fdf0 1cb 0 common_vsprintf<__crt_stdio_output::standard_base,char>
FUNC 20030 1d2 0 common_vsprintf<__crt_stdio_output::standard_base,wchar_t>
FUNC 20278 63 0 common_vsprintf_s<char>
FUNC 202f4 6e 0 common_vsprintf_s<wchar_t>
FUNC 20380 1b 0 __crt_stdio_output::formatting_buffer::count<char>()
FUNC 203a4 1c 0 __crt_stdio_output::formatting_buffer::count<wchar_t>()
FUNC 203c8 f 0 __crt_stdio_output::formatting_buffer::data<char>()
FUNC 203dc f 0 __crt_stdio_output::formatting_buffer::data<wchar_t>()
FUNC 203f0 a6 0 __crt_stdio_output::formatting_buffer::ensure_buffer_is_big_enough<char>(unsigned __int64)
FUNC 204c0 a9 0 __crt_stdio_output::formatting_buffer::ensure_buffer_is_big_enough<wchar_t>(unsigned __int64)
FUNC 20594 bc 0 __crt_stdio_output::positional_parameter_base<char,__crt_stdio_output::stream_output_adapter<char> >::extract_argument_from_va_list<signed char,__int64>(__int64 &)
FUNC 20680 bc 0 __crt_stdio_output::positional_parameter_base<char,__crt_stdio_output::string_output_adapter<char> >::extract_argument_from_va_list<signed char,__int64>(__int64 &)
FUNC 2076c be 0 __crt_stdio_output::positional_parameter_base<wchar_t,__crt_stdio_output::stream_output_adapter<wchar_t> >::extract_argument_from_va_list<signed char,__int64>(__int64 &)
FUNC 2085c be 0 __crt_stdio_output::positional_parameter_base<wchar_t,__crt_stdio_output::string_output_adapter<wchar_t> >::extract_argument_from_va_list<signed char,__int64>(__int64 &)
FUNC 2094c 14 0 __crt_stdio_output::standard_base<char,__crt_stdio_output::stream_output_adapter<char> >::extract_argument_from_va_list<signed char,__int64>(__int64 &)
FUNC 20968 14 0 __crt_stdio_output::standard_base<char,__crt_stdio_output::string_output_adapter<char> >::extract_argument_from_va_list<signed char,__int64>(__int64 &)
FUNC 20984 14 0 __crt_stdio_output::standard_base<wchar_t,__crt_stdio_output::stream_output_adapter<wchar_t> >::extract_argument_from_va_list<signed char,__int64>(__int64 &)
FUNC 209a0 14 0 __crt_stdio_output::standard_base<wchar_t,__crt_stdio_output::string_output_adapter<wchar_t> >::extract_argument_from_va_list<signed char,__int64>(__int64 &)
FUNC 209bc bb 0 __crt_stdio_output::positional_parameter_base<char,__crt_stdio_output::stream_output_adapter<char> >::extract_argument_from_va_list<unsigned char,__int64>(__int64 &)
FUNC 20aa8 bb 0 __crt_stdio_output::positional_parameter_base<char,__crt_stdio_output::string_output_adapter<char> >::extract_argument_from_va_list<unsigned char,__int64>(__int64 &)
FUNC 20b94 bd 0 __crt_stdio_output::positional_parameter_base<wchar_t,__crt_stdio_output::stream_output_adapter<wchar_t> >::extract_argument_from_va_list<unsigned char,__int64>(__int64 &)
FUNC 20c80 bd 0 __crt_stdio_output::positional_parameter_base<wchar_t,__crt_stdio_output::string_output_adapter<wchar_t> >::extract_argument_from_va_list<unsigned char,__int64>(__int64 &)
FUNC 20d6c 13 0 __crt_stdio_output::standard_base<char,__crt_stdio_output::stream_output_adapter<char> >::extract_argument_from_va_list<unsigned char,__int64>(__int64 &)
FUNC 20d84 13 0 __crt_stdio_output::standard_base<char,__crt_stdio_output::string_output_adapter<char> >::extract_argument_from_va_list<unsigned char,__int64>(__int64 &)
FUNC 20d9c 13 0 __crt_stdio_output::standard_base<wchar_t,__crt_stdio_output::stream_output_adapter<wchar_t> >::extract_argument_from_va_list<unsigned char,__int64>(__int64 &)
FUNC 20db4 13 0 __crt_stdio_output::standard_base<wchar_t,__crt_stdio_output::string_output_adapter<wchar_t> >::extract_argument_from_va_list<unsigned char,__int64>(__int64 &)
FUNC 20dcc bc 0 __crt_stdio_output::positional_parameter_base<char,__crt_stdio_output::stream_output_adapter<char> >::extract_argument_from_va_list<short,__int64>(__int64 &)
FUNC 20eb8 bc 0 __crt_stdio_output::positional_parameter_base<char,__crt_stdio_output::string_output_adapter<char> >::extract_argument_from_va_list<short,__int64>(__int64 &)
FUNC 20fa4 be 0 __crt_stdio_output::positional_parameter_base<wchar_t,__crt_stdio_output::stream_output_adapter<wchar_t> >::extract_argument_from_va_list<short,__int64>(__int64 &)
FUNC 21094 be 0 __crt_stdio_output::positional_parameter_base<wchar_t,__crt_stdio_output::string_output_adapter<wchar_t> >::extract_argument_from_va_list<short,__int64>(__int64 &)
FUNC 21184 14 0 __crt_stdio_output::standard_base<char,__crt_stdio_output::stream_output_adapter<char> >::extract_argument_from_va_list<short,__int64>(__int64 &)
FUNC 211a0 14 0 __crt_stdio_output::standard_base<char,__crt_stdio_output::string_output_adapter<char> >::extract_argument_from_va_list<short,__int64>(__int64 &)
FUNC 211bc 14 0 __crt_stdio_output::standard_base<wchar_t,__crt_stdio_output::stream_output_adapter<wchar_t> >::extract_argument_from_va_list<short,__int64>(__int64 &)
FUNC 211d8 14 0 __crt_stdio_output::standard_base<wchar_t,__crt_stdio_output::string_output_adapter<wchar_t> >::extract_argument_from_va_list<short,__int64>(__int64 &)
FUNC 211f4 b8 0 __crt_stdio_output::positional_parameter_base<char,__crt_stdio_output::stream_output_adapter<char> >::extract_argument_from_va_list<unsigned short,char>(char &)
FUNC 212dc b8 0 __crt_stdio_output::positional_parameter_base<char,__crt_stdio_output::string_output_adapter<char> >::extract_argument_from_va_list<unsigned short,char>(char &)
FUNC 213c4 11 0 __crt_stdio_output::standard_base<char,__crt_stdio_output::stream_output_adapter<char> >::extract_argument_from_va_list<unsigned short,char>(char &)
FUNC 213dc 11 0 __crt_stdio_output::standard_base<char,__crt_stdio_output::string_output_adapter<char> >::extract_argument_from_va_list<unsigned short,char>(char &)
FUNC 213f4 bb 0 __crt_stdio_output::positional_parameter_base<char,__crt_stdio_output::stream_output_adapter<char> >::extract_argument_from_va_list<unsigned short,__int64>(__int64 &)
FUNC 214e0 bb 0 __crt_stdio_output::positional_parameter_base<char,__crt_stdio_output::string_output_adapter<char> >::extract_argument_from_va_list<unsigned short,__int64>(__int64 &)
FUNC 215cc bd 0 __crt_stdio_output::positional_parameter_base<wchar_t,__crt_stdio_output::stream_output_adapter<wchar_t> >::extract_argument_from_va_list<unsigned short,__int64>(__int64 &)
FUNC 216b8 bd 0 __crt_stdio_output::positional_parameter_base<wchar_t,__crt_stdio_output::string_output_adapter<wchar_t> >::extract_argument_from_va_list<unsigned short,__int64>(__int64 &)
FUNC 217a4 13 0 __crt_stdio_output::standard_base<char,__crt_stdio_output::stream_output_adapter<char> >::extract_argument_from_va_list<unsigned short,__int64>(__int64 &)
FUNC 217bc 13 0 __crt_stdio_output::standard_base<char,__crt_stdio_output::string_output_adapter<char> >::extract_argument_from_va_list<unsigned short,__int64>(__int64 &)
FUNC 217d4 13 0 __crt_stdio_output::standard_base<wchar_t,__crt_stdio_output::stream_output_adapter<wchar_t> >::extract_argument_from_va_list<unsigned short,__int64>(__int64 &)
FUNC 217ec 13 0 __crt_stdio_output::standard_base<wchar_t,__crt_stdio_output::string_output_adapter<wchar_t> >::extract_argument_from_va_list<unsigned short,__int64>(__int64 &)
FUNC 21804 ba 0 __crt_stdio_output::positional_parameter_base<char,__crt_stdio_output::stream_output_adapter<char> >::extract_argument_from_va_list<int,__int64>(__int64 &)
FUNC 218ec ba 0 __crt_stdio_output::positional_parameter_base<char,__crt_stdio_output::string_output_adapter<char> >::extract_argument_from_va_list<int,__int64>(__int64 &)
FUNC 219d4 bc 0 __crt_stdio_output::positional_parameter_base<wchar_t,__crt_stdio_output::stream_output_adapter<wchar_t> >::extract_argument_from_va_list<int,__int64>(__int64 &)
FUNC 21ac0 bc 0 __crt_stdio_output::positional_parameter_base<wchar_t,__crt_stdio_output::string_output_adapter<wchar_t> >::extract_argument_from_va_list<int,__int64>(__int64 &)
FUNC 21bac 13 0 __crt_stdio_output::standard_base<char,__crt_stdio_output::stream_output_adapter<char> >::extract_argument_from_va_list<int,__int64>(__int64 &)
FUNC 21bc4 13 0 __crt_stdio_output::standard_base<char,__crt_stdio_output::string_output_adapter<char> >::extract_argument_from_va_list<int,__int64>(__int64 &)
FUNC 21bdc 13 0 __crt_stdio_output::standard_base<wchar_t,__crt_stdio_output::stream_output_adapter<wchar_t> >::extract_argument_from_va_list<int,__int64>(__int64 &)
FUNC 21bf4 13 0 __crt_stdio_output::standard_base<wchar_t,__crt_stdio_output::string_output_adapter<wchar_t> >::extract_argument_from_va_list<int,__int64>(__int64 &)
FUNC 21c0c b9 0 __crt_stdio_output::positional_parameter_base<char,__crt_stdio_output::stream_output_adapter<char> >::extract_argument_from_va_list<unsigned int,__int64>(__int64 &)
FUNC 21cf4 b9 0 __crt_stdio_output::positional_parameter_base<char,__crt_stdio_output::string_output_adapter<char> >::extract_argument_from_va_list<unsigned int,__int64>(__int64 &)
FUNC 21ddc bb 0 __crt_stdio_output::positional_parameter_base<wchar_t,__crt_stdio_output::stream_output_adapter<wchar_t> >::extract_argument_from_va_list<unsigned int,__int64>(__int64 &)
FUNC 21ec8 bb 0 __crt_stdio_output::positional_parameter_base<wchar_t,__crt_stdio_output::string_output_adapter<wchar_t> >::extract_argument_from_va_list<unsigned int,__int64>(__int64 &)
FUNC 21fb4 12 0 __crt_stdio_output::standard_base<char,__crt_stdio_output::stream_output_adapter<char> >::extract_argument_from_va_list<unsigned int,__int64>(__int64 &)
FUNC 21fcc 12 0 __crt_stdio_output::standard_base<char,__crt_stdio_output::string_output_adapter<char> >::extract_argument_from_va_list<unsigned int,__int64>(__int64 &)
FUNC 21fe4 12 0 __crt_stdio_output::standard_base<wchar_t,__crt_stdio_output::stream_output_adapter<wchar_t> >::extract_argument_from_va_list<unsigned int,__int64>(__int64 &)
FUNC 21ffc 12 0 __crt_stdio_output::standard_base<wchar_t,__crt_stdio_output::string_output_adapter<wchar_t> >::extract_argument_from_va_list<unsigned int,__int64>(__int64 &)
FUNC 22014 ba 0 __crt_stdio_output::positional_parameter_base<char,__crt_stdio_output::stream_output_adapter<char> >::extract_argument_from_va_list<char *,char *>
FUNC 220fc ba 0 __crt_stdio_output::positional_parameter_base<char,__crt_stdio_output::string_output_adapter<char> >::extract_argument_from_va_list<char *,char *>
FUNC 221e4 bc 0 __crt_stdio_output::positional_parameter_base<wchar_t,__crt_stdio_output::stream_output_adapter<wchar_t> >::extract_argument_from_va_list<char *,char *>
FUNC 222d0 bc 0 __crt_stdio_output::positional_parameter_base<wchar_t,__crt_stdio_output::string_output_adapter<wchar_t> >::extract_argument_from_va_list<char *,char *>
FUNC 223bc 13 0 __crt_stdio_output::standard_base<char,__crt_stdio_output::stream_output_adapter<char> >::extract_argument_from_va_list<char *,char *>
FUNC 223d4 13 0 __crt_stdio_output::standard_base<char,__crt_stdio_output::string_output_adapter<char> >::extract_argument_from_va_list<char *,char *>
FUNC 223ec 13 0 __crt_stdio_output::standard_base<wchar_t,__crt_stdio_output::stream_output_adapter<wchar_t> >::extract_argument_from_va_list<char *,char *>
FUNC 22404 13 0 __crt_stdio_output::standard_base<wchar_t,__crt_stdio_output::string_output_adapter<wchar_t> >::extract_argument_from_va_list<char *,char *>
FUNC 2241c 13 0 __crt_stdio_output::standard_base<char,__crt_stdio_output::stream_output_adapter<char> >::extract_argument_from_va_list<`__crt_stdio_output::output_processor<char,__crt_stdio_output::stream_output_adapter<char>,__crt_stdio_output::format_validation_base<char,__crt_stdio_output::stream_output_adapter<char> > >::type_case_Z'::`2'::ansi_string *,`__crt_stdio_output::output_processor<char,__crt_stdio_output::stream_output_adapter<char>,__crt_stdio_output::format_validation_base<char,__crt_stdio_output::stream_output_adapter<char> > >::type_case_Z'::`2'::ansi_string *>
FUNC 22434 ba 0 __crt_stdio_output::positional_parameter_base<char,__crt_stdio_output::stream_output_adapter<char> >::extract_argument_from_va_list<`__crt_stdio_output::output_processor<char,__crt_stdio_output::stream_output_adapter<char>,__crt_stdio_output::positional_parameter_base<char,__crt_stdio_output::stream_output_adapter<char> > >::type_case_Z'::`2'::ansi_string *,`__crt_stdio_output::output_processor<char,__crt_stdio_output::stream_output_adapter<char>,__crt_stdio_output::positional_parameter_base<char,__crt_stdio_output::stream_output_adapter<char> > >::type_case_Z'::`2'::ansi_string *>
FUNC 2251c 13 0 __crt_stdio_output::standard_base<char,__crt_stdio_output::stream_output_adapter<char> >::extract_argument_from_va_list<`__crt_stdio_output::output_processor<char,__crt_stdio_output::stream_output_adapter<char>,__crt_stdio_output::positional_parameter_base<char,__crt_stdio_output::stream_output_adapter<char> > >::type_case_Z'::`2'::ansi_string *,`__crt_stdio_output::output_processor<char,__crt_stdio_output::stream_output_adapter<char>,__crt_stdio_output::positional_parameter_base<char,__crt_stdio_output::stream_output_adapter<char> > >::type_case_Z'::`2'::ansi_string *>
FUNC 22534 13 0 __crt_stdio_output::standard_base<char,__crt_stdio_output::stream_output_adapter<char> >::extract_argument_from_va_list<`__crt_stdio_output::output_processor<char,__crt_stdio_output::stream_output_adapter<char>,__crt_stdio_output::standard_base<char,__crt_stdio_output::stream_output_adapter<char> > >::type_case_Z'::`2'::ansi_string *,`__crt_stdio_output::output_processor<char,__crt_stdio_output::stream_output_adapter<char>,__crt_stdio_output::standard_base<char,__crt_stdio_output::stream_output_adapter<char> > >::type_case_Z'::`2'::ansi_string *>
FUNC 2254c 13 0 __crt_stdio_output::standard_base<char,__crt_stdio_output::string_output_adapter<char> >::extract_argument_from_va_list<`__crt_stdio_output::output_processor<char,__crt_stdio_output::string_output_adapter<char>,__crt_stdio_output::format_validation_base<char,__crt_stdio_output::string_output_adapter<char> > >::type_case_Z'::`2'::ansi_string *,`__crt_stdio_output::output_processor<char,__crt_stdio_output::string_output_adapter<char>,__crt_stdio_output::format_validation_base<char,__crt_stdio_output::string_output_adapter<char> > >::type_case_Z'::`2'::ansi_string *>
FUNC 22564 ba 0 __crt_stdio_output::positional_parameter_base<char,__crt_stdio_output::string_output_adapter<char> >::extract_argument_from_va_list<`__crt_stdio_output::output_processor<char,__crt_stdio_output::string_output_adapter<char>,__crt_stdio_output::positional_parameter_base<char,__crt_stdio_output::string_output_adapter<char> > >::type_case_Z'::`2'::ansi_string *,`__crt_stdio_output::output_processor<char,__crt_stdio_output::string_output_adapter<char>,__crt_stdio_output::positional_parameter_base<char,__crt_stdio_output::string_output_adapter<char> > >::type_case_Z'::`2'::ansi_string *>
FUNC 2264c 13 0 __crt_stdio_output::standard_base<char,__crt_stdio_output::string_output_adapter<char> >::extract_argument_from_va_list<`__crt_stdio_output::output_processor<char,__crt_stdio_output::string_output_adapter<char>,__crt_stdio_output::positional_parameter_base<char,__crt_stdio_output::string_output_adapter<char> > >::type_case_Z'::`2'::ansi_string *,`__crt_stdio_output::output_processor<char,__crt_stdio_output::string_output_adapter<char>,__crt_stdio_output::positional_parameter_base<char,__crt_stdio_output::string_output_adapter<char> > >::type_case_Z'::`2'::ansi_string *>
FUNC 22664 13 0 __crt_stdio_output::standard_base<char,__crt_stdio_output::string_output_adapter<char> >::extract_argument_from_va_list<`__crt_stdio_output::output_processor<char,__crt_stdio_output::string_output_adapter<char>,__crt_stdio_output::standard_base<char,__crt_stdio_output::string_output_adapter<char> > >::type_case_Z'::`2'::ansi_string *,`__crt_stdio_output::output_processor<char,__crt_stdio_output::string_output_adapter<char>,__crt_stdio_output::standard_base<char,__crt_stdio_output::string_output_adapter<char> > >::type_case_Z'::`2'::ansi_string *>
FUNC 2267c 13 0 __crt_stdio_output::standard_base<wchar_t,__crt_stdio_output::stream_output_adapter<wchar_t> >::extract_argument_from_va_list<`__crt_stdio_output::output_processor<wchar_t,__crt_stdio_output::stream_output_adapter<wchar_t>,__crt_stdio_output::format_validation_base<wchar_t,__crt_stdio_output::stream_output_adapter<wchar_t> > >::type_case_Z'::`2'::ansi_string *,`__crt_stdio_output::output_processor<wchar_t,__crt_stdio_output::stream_output_adapter<wchar_t>,__crt_stdio_output::format_validation_base<wchar_t,__crt_stdio_output::stream_output_adapter<wchar_t> > >::type_case_Z'::`2'::ansi_string *>
FUNC 22694 bc 0 __crt_stdio_output::positional_parameter_base<wchar_t,__crt_stdio_output::stream_output_adapter<wchar_t> >::extract_argument_from_va_list<`__crt_stdio_output::output_processor<wchar_t,__crt_stdio_output::stream_output_adapter<wchar_t>,__crt_stdio_output::positional_parameter_base<wchar_t,__crt_stdio_output::stream_output_adapter<wchar_t> > >::type_case_Z'::`2'::ansi_string *,`__crt_stdio_output::output_processor<wchar_t,__crt_stdio_output::stream_output_adapter<wchar_t>,__crt_stdio_output::positional_parameter_base<wchar_t,__crt_stdio_output::stream_output_adapter<wchar_t> > >::type_case_Z'::`2'::ansi_string *>
FUNC 22780 13 0 __crt_stdio_output::standard_base<wchar_t,__crt_stdio_output::stream_output_adapter<wchar_t> >::extract_argument_from_va_list<`__crt_stdio_output::output_processor<wchar_t,__crt_stdio_output::stream_output_adapter<wchar_t>,__crt_stdio_output::positional_parameter_base<wchar_t,__crt_stdio_output::stream_output_adapter<wchar_t> > >::type_case_Z'::`2'::ansi_string *,`__crt_stdio_output::output_processor<wchar_t,__crt_stdio_output::stream_output_adapter<wchar_t>,__crt_stdio_output::positional_parameter_base<wchar_t,__crt_stdio_output::stream_output_adapter<wchar_t> > >::type_case_Z'::`2'::ansi_string *>
FUNC 22798 13 0 __crt_stdio_output::standard_base<wchar_t,__crt_stdio_output::stream_output_adapter<wchar_t> >::extract_argument_from_va_list<`__crt_stdio_output::output_processor<wchar_t,__crt_stdio_output::stream_output_adapter<wchar_t>,__crt_stdio_output::standard_base<wchar_t,__crt_stdio_output::stream_output_adapter<wchar_t> > >::type_case_Z'::`2'::ansi_string *,`__crt_stdio_output::output_processor<wchar_t,__crt_stdio_output::stream_output_adapter<wchar_t>,__crt_stdio_output::standard_base<wchar_t,__crt_stdio_output::stream_output_adapter<wchar_t> > >::type_case_Z'::`2'::ansi_string *>
FUNC 227b0 13 0 __crt_stdio_output::standard_base<wchar_t,__crt_stdio_output::string_output_adapter<wchar_t> >::extract_argument_from_va_list<`__crt_stdio_output::output_processor<wchar_t,__crt_stdio_output::string_output_adapter<wchar_t>,__crt_stdio_output::format_validation_base<wchar_t,__crt_stdio_output::string_output_adapter<wchar_t> > >::type_case_Z'::`2'::ansi_string *,`__crt_stdio_output::output_processor<wchar_t,__crt_stdio_output::string_output_adapter<wchar_t>,__crt_stdio_output::format_validation_base<wchar_t,__crt_stdio_output::string_output_adapter<wchar_t> > >::type_case_Z'::`2'::ansi_string *>
FUNC 227c8 bc 0 __crt_stdio_output::positional_parameter_base<wchar_t,__crt_stdio_output::string_output_adapter<wchar_t> >::extract_argument_from_va_list<`__crt_stdio_output::output_processor<wchar_t,__crt_stdio_output::string_output_adapter<wchar_t>,__crt_stdio_output::positional_parameter_base<wchar_t,__crt_stdio_output::string_output_adapter<wchar_t> > >::type_case_Z'::`2'::ansi_string *,`__crt_stdio_output::output_processor<wchar_t,__crt_stdio_output::string_output_adapter<wchar_t>,__crt_stdio_output::positional_parameter_base<wchar_t,__crt_stdio_output::string_output_adapter<wchar_t> > >::type_case_Z'::`2'::ansi_string *>
FUNC 228b4 13 0 __crt_stdio_output::standard_base<wchar_t,__crt_stdio_output::string_output_adapter<wchar_t> >::extract_argument_from_va_list<`__crt_stdio_output::output_processor<wchar_t,__crt_stdio_output::string_output_adapter<wchar_t>,__crt_stdio_output::positional_parameter_base<wchar_t,__crt_stdio_output::string_output_adapter<wchar_t> > >::type_case_Z'::`2'::ansi_string *,`__crt_stdio_output::output_processor<wchar_t,__crt_stdio_output::string_output_adapter<wchar_t>,__crt_stdio_output::positional_parameter_base<wchar_t,__crt_stdio_output::string_output_adapter<wchar_t> > >::type_case_Z'::`2'::ansi_string *>
FUNC 228cc 13 0 __crt_stdio_output::standard_base<wchar_t,__crt_stdio_output::string_output_adapter<wchar_t> >::extract_argument_from_va_list<`__crt_stdio_output::output_processor<wchar_t,__crt_stdio_output::string_output_adapter<wchar_t>,__crt_stdio_output::standard_base<wchar_t,__crt_stdio_output::string_output_adapter<wchar_t> > >::type_case_Z'::`2'::ansi_string *,`__crt_stdio_output::output_processor<wchar_t,__crt_stdio_output::string_output_adapter<wchar_t>,__crt_stdio_output::standard_base<wchar_t,__crt_stdio_output::string_output_adapter<wchar_t> > >::type_case_Z'::`2'::ansi_string *>
FUNC 228e4 ba 0 __crt_stdio_output::positional_parameter_base<char,__crt_stdio_output::stream_output_adapter<char> >::extract_argument_from_va_list<void *,void *>
FUNC 229cc ba 0 __crt_stdio_output::positional_parameter_base<char,__crt_stdio_output::string_output_adapter<char> >::extract_argument_from_va_list<void *,void *>
FUNC 22ab4 bc 0 __crt_stdio_output::positional_parameter_base<wchar_t,__crt_stdio_output::stream_output_adapter<wchar_t> >::extract_argument_from_va_list<void *,void *>
FUNC 22ba0 bc 0 __crt_stdio_output::positional_parameter_base<wchar_t,__crt_stdio_output::string_output_adapter<wchar_t> >::extract_argument_from_va_list<void *,void *>
FUNC 22c8c 13 0 __crt_stdio_output::standard_base<char,__crt_stdio_output::stream_output_adapter<char> >::extract_argument_from_va_list<void *,void *>
FUNC 22ca4 13 0 __crt_stdio_output::standard_base<char,__crt_stdio_output::string_output_adapter<char> >::extract_argument_from_va_list<void *,void *>
FUNC 22cbc 13 0 __crt_stdio_output::standard_base<wchar_t,__crt_stdio_output::stream_output_adapter<wchar_t> >::extract_argument_from_va_list<void *,void *>
FUNC 22cd4 13 0 __crt_stdio_output::standard_base<wchar_t,__crt_stdio_output::string_output_adapter<wchar_t> >::extract_argument_from_va_list<void *,void *>
FUNC 22cec ba 0 __crt_stdio_output::positional_parameter_base<char,__crt_stdio_output::stream_output_adapter<char> >::extract_argument_from_va_list<_CRT_DOUBLE,_CRT_DOUBLE>(_CRT_DOUBLE &)
FUNC 22dd4 ba 0 __crt_stdio_output::positional_parameter_base<char,__crt_stdio_output::string_output_adapter<char> >::extract_argument_from_va_list<_CRT_DOUBLE,_CRT_DOUBLE>(_CRT_DOUBLE &)
FUNC 22ebc bc 0 __crt_stdio_output::positional_parameter_base<wchar_t,__crt_stdio_output::stream_output_adapter<wchar_t> >::extract_argument_from_va_list<_CRT_DOUBLE,_CRT_DOUBLE>(_CRT_DOUBLE &)
FUNC 22fa8 bc 0 __crt_stdio_output::positional_parameter_base<wchar_t,__crt_stdio_output::string_output_adapter<wchar_t> >::extract_argument_from_va_list<_CRT_DOUBLE,_CRT_DOUBLE>(_CRT_DOUBLE &)
FUNC 23094 15 0 __crt_stdio_output::standard_base<char,__crt_stdio_output::stream_output_adapter<char> >::extract_argument_from_va_list<_CRT_DOUBLE,_CRT_DOUBLE>(_CRT_DOUBLE &)
FUNC 230b0 15 0 __crt_stdio_output::standard_base<char,__crt_stdio_output::string_output_adapter<char> >::extract_argument_from_va_list<_CRT_DOUBLE,_CRT_DOUBLE>(_CRT_DOUBLE &)
FUNC 230cc 15 0 __crt_stdio_output::standard_base<wchar_t,__crt_stdio_output::stream_output_adapter<wchar_t> >::extract_argument_from_va_list<_CRT_DOUBLE,_CRT_DOUBLE>(_CRT_DOUBLE &)
FUNC 230e8 15 0 __crt_stdio_output::standard_base<wchar_t,__crt_stdio_output::string_output_adapter<wchar_t> >::extract_argument_from_va_list<_CRT_DOUBLE,_CRT_DOUBLE>(_CRT_DOUBLE &)
FUNC 23104 ba 0 __crt_stdio_output::positional_parameter_base<char,__crt_stdio_output::stream_output_adapter<char> >::extract_argument_from_va_list<__int64,__int64>(__int64 &)
FUNC 231ec ba 0 __crt_stdio_output::positional_parameter_base<char,__crt_stdio_output::string_output_adapter<char> >::extract_argument_from_va_list<__int64,__int64>(__int64 &)
FUNC 232d4 bc 0 __crt_stdio_output::positional_parameter_base<wchar_t,__crt_stdio_output::stream_output_adapter<wchar_t> >::extract_argument_from_va_list<__int64,__int64>(__int64 &)
FUNC 233c0 bc 0 __crt_stdio_output::positional_parameter_base<wchar_t,__crt_stdio_output::string_output_adapter<wchar_t> >::extract_argument_from_va_list<__int64,__int64>(__int64 &)
FUNC 234ac 13 0 __crt_stdio_output::standard_base<char,__crt_stdio_output::stream_output_adapter<char> >::extract_argument_from_va_list<__int64,__int64>(__int64 &)
FUNC 234c4 13 0 __crt_stdio_output::standard_base<char,__crt_stdio_output::string_output_adapter<char> >::extract_argument_from_va_list<__int64,__int64>(__int64 &)
FUNC 234dc 13 0 __crt_stdio_output::standard_base<wchar_t,__crt_stdio_output::stream_output_adapter<wchar_t> >::extract_argument_from_va_list<__int64,__int64>(__int64 &)
FUNC 234f4 13 0 __crt_stdio_output::standard_base<wchar_t,__crt_stdio_output::string_output_adapter<wchar_t> >::extract_argument_from_va_list<__int64,__int64>(__int64 &)
FUNC 2350c ba 0 __crt_stdio_output::positional_parameter_base<char,__crt_stdio_output::stream_output_adapter<char> >::extract_argument_from_va_list<unsigned __int64,__int64>(__int64 &)
FUNC 235f4 ba 0 __crt_stdio_output::positional_parameter_base<char,__crt_stdio_output::string_output_adapter<char> >::extract_argument_from_va_list<unsigned __int64,__int64>(__int64 &)
FUNC 236dc bc 0 __crt_stdio_output::positional_parameter_base<wchar_t,__crt_stdio_output::stream_output_adapter<wchar_t> >::extract_argument_from_va_list<unsigned __int64,__int64>(__int64 &)
FUNC 237c8 bc 0 __crt_stdio_output::positional_parameter_base<wchar_t,__crt_stdio_output::string_output_adapter<wchar_t> >::extract_argument_from_va_list<unsigned __int64,__int64>(__int64 &)
FUNC 238b4 13 0 __crt_stdio_output::standard_base<char,__crt_stdio_output::stream_output_adapter<char> >::extract_argument_from_va_list<unsigned __int64,__int64>(__int64 &)
FUNC 238cc 13 0 __crt_stdio_output::standard_base<char,__crt_stdio_output::string_output_adapter<char> >::extract_argument_from_va_list<unsigned __int64,__int64>(__int64 &)
FUNC 238e4 13 0 __crt_stdio_output::standard_base<wchar_t,__crt_stdio_output::stream_output_adapter<wchar_t> >::extract_argument_from_va_list<unsigned __int64,__int64>(__int64 &)
FUNC 238fc 13 0 __crt_stdio_output::standard_base<wchar_t,__crt_stdio_output::string_output_adapter<wchar_t> >::extract_argument_from_va_list<unsigned __int64,__int64>(__int64 &)
FUNC 23914 bc 0 __crt_stdio_output::positional_parameter_base<char,__crt_stdio_output::stream_output_adapter<char> >::extract_argument_from_va_list<wchar_t,wchar_t>(wchar_t &)
FUNC 23a00 bc 0 __crt_stdio_output::positional_parameter_base<char,__crt_stdio_output::string_output_adapter<char> >::extract_argument_from_va_list<wchar_t,wchar_t>(wchar_t &)
FUNC 23aec be 0 __crt_stdio_output::positional_parameter_base<wchar_t,__crt_stdio_output::stream_output_adapter<wchar_t> >::extract_argument_from_va_list<wchar_t,wchar_t>(wchar_t &)
FUNC 23bdc be 0 __crt_stdio_output::positional_parameter_base<wchar_t,__crt_stdio_output::string_output_adapter<wchar_t> >::extract_argument_from_va_list<wchar_t,wchar_t>(wchar_t &)
FUNC 23ccc 13 0 __crt_stdio_output::standard_base<char,__crt_stdio_output::stream_output_adapter<char> >::extract_argument_from_va_list<wchar_t,wchar_t>(wchar_t &)
FUNC 23ce4 13 0 __crt_stdio_output::standard_base<char,__crt_stdio_output::string_output_adapter<char> >::extract_argument_from_va_list<wchar_t,wchar_t>(wchar_t &)
FUNC 23cfc 13 0 __crt_stdio_output::standard_base<wchar_t,__crt_stdio_output::stream_output_adapter<wchar_t> >::extract_argument_from_va_list<wchar_t,wchar_t>(wchar_t &)
FUNC 23d14 13 0 __crt_stdio_output::standard_base<wchar_t,__crt_stdio_output::string_output_adapter<wchar_t> >::extract_argument_from_va_list<wchar_t,wchar_t>(wchar_t &)
FUNC 23d2c 6 0 __crt_stdio_output::positional_parameter_base<char,__crt_stdio_output::stream_output_adapter<char> >::get_parameter_type<char>(char *)
FUNC 23d34 6 0 __crt_stdio_output::positional_parameter_base<char,__crt_stdio_output::string_output_adapter<char> >::get_parameter_type<char>(char *)
FUNC 23d3c 6 0 __crt_stdio_output::positional_parameter_base<wchar_t,__crt_stdio_output::stream_output_adapter<wchar_t> >::get_parameter_type<char>(char *)
FUNC 23d44 6 0 __crt_stdio_output::positional_parameter_base<wchar_t,__crt_stdio_output::string_output_adapter<wchar_t> >::get_parameter_type<char>(char *)
FUNC 23d4c 6 0 __crt_stdio_output::positional_parameter_base<char,__crt_stdio_output::stream_output_adapter<char> >::get_parameter_type<`__crt_stdio_output::output_processor<char,__crt_stdio_output::stream_output_adapter<char>,__crt_stdio_output::positional_parameter_base<char,__crt_stdio_output::stream_output_adapter<char> > >::type_case_Z'::`2'::ansi_string>
FUNC 23d54 6 0 __crt_stdio_output::positional_parameter_base<char,__crt_stdio_output::string_output_adapter<char> >::get_parameter_type<`__crt_stdio_output::output_processor<char,__crt_stdio_output::string_output_adapter<char>,__crt_stdio_output::positional_parameter_base<char,__crt_stdio_output::string_output_adapter<char> > >::type_case_Z'::`2'::ansi_string>
FUNC 23d5c 6 0 __crt_stdio_output::positional_parameter_base<wchar_t,__crt_stdio_output::stream_output_adapter<wchar_t> >::get_parameter_type<`__crt_stdio_output::output_processor<wchar_t,__crt_stdio_output::stream_output_adapter<wchar_t>,__crt_stdio_output::positional_parameter_base<wchar_t,__crt_stdio_output::stream_output_adapter<wchar_t> > >::type_case_Z'::`2'::ansi_string>
FUNC 23d64 6 0 __crt_stdio_output::positional_parameter_base<wchar_t,__crt_stdio_output::string_output_adapter<wchar_t> >::get_parameter_type<`__crt_stdio_output::output_processor<wchar_t,__crt_stdio_output::string_output_adapter<wchar_t>,__crt_stdio_output::positional_parameter_base<wchar_t,__crt_stdio_output::string_output_adapter<wchar_t> > >::type_case_Z'::`2'::ansi_string>
FUNC 23d6c 6 0 __crt_stdio_output::positional_parameter_base<char,__crt_stdio_output::stream_output_adapter<char> >::get_parameter_type<void>(void *)
FUNC 23d74 6 0 __crt_stdio_output::positional_parameter_base<char,__crt_stdio_output::string_output_adapter<char> >::get_parameter_type<void>(void *)
FUNC 23d7c 6 0 __crt_stdio_output::positional_parameter_base<wchar_t,__crt_stdio_output::stream_output_adapter<wchar_t> >::get_parameter_type<void>(void *)
FUNC 23d84 6 0 __crt_stdio_output::positional_parameter_base<wchar_t,__crt_stdio_output::string_output_adapter<wchar_t> >::get_parameter_type<void>(void *)
FUNC 23d8c a 0 __crt_stdio_output::positional_parameter_base<char,__crt_stdio_output::stream_output_adapter<char> >::is_character_specifier<char>(char)
FUNC 23d98 a 0 __crt_stdio_output::positional_parameter_base<char,__crt_stdio_output::string_output_adapter<char> >::is_character_specifier<char>(char)
FUNC 23da4 10 0 __crt_stdio_output::positional_parameter_base<wchar_t,__crt_stdio_output::stream_output_adapter<wchar_t> >::is_character_specifier<wchar_t>(wchar_t)
FUNC 23db8 10 0 __crt_stdio_output::positional_parameter_base<wchar_t,__crt_stdio_output::string_output_adapter<wchar_t> >::is_character_specifier<wchar_t>(wchar_t)
FUNC 23dcc 26 0 __crt_stdio_output::positional_parameter_base<char,__crt_stdio_output::stream_output_adapter<char> >::is_integral_specifier<char>(char)
FUNC 23dfc 26 0 __crt_stdio_output::positional_parameter_base<char,__crt_stdio_output::string_output_adapter<char> >::is_integral_specifier<char>(char)
FUNC 23e2c 28 0 __crt_stdio_output::positional_parameter_base<wchar_t,__crt_stdio_output::stream_output_adapter<wchar_t> >::is_integral_specifier<wchar_t>(wchar_t)
FUNC 23e60 28 0 __crt_stdio_output::positional_parameter_base<wchar_t,__crt_stdio_output::string_output_adapter<wchar_t> >::is_integral_specifier<wchar_t>(wchar_t)
FUNC 23e94 7 0 __crt_stdio_output::positional_parameter_base<char,__crt_stdio_output::stream_output_adapter<char> >::is_pointer_specifier<char>(char)
FUNC 23e9c 7 0 __crt_stdio_output::positional_parameter_base<char,__crt_stdio_output::string_output_adapter<char> >::is_pointer_specifier<char>(char)
FUNC 23ea4 8 0 __crt_stdio_output::positional_parameter_base<wchar_t,__crt_stdio_output::stream_output_adapter<wchar_t> >::is_pointer_specifier<wchar_t>(wchar_t)
FUNC 23eb0 8 0 __crt_stdio_output::positional_parameter_base<wchar_t,__crt_stdio_output::string_output_adapter<wchar_t> >::is_pointer_specifier<wchar_t>(wchar_t)
FUNC 23ebc a 0 __crt_stdio_output::positional_parameter_base<char,__crt_stdio_output::stream_output_adapter<char> >::is_string_specifier<char>(char)
FUNC 23ec8 a 0 __crt_stdio_output::positional_parameter_base<char,__crt_stdio_output::string_output_adapter<char> >::is_string_specifier<char>(char)
FUNC 23ed4 10 0 __crt_stdio_output::positional_parameter_base<wchar_t,__crt_stdio_output::stream_output_adapter<wchar_t> >::is_string_specifier<wchar_t>(wchar_t)
FUNC 23ee8 10 0 __crt_stdio_output::positional_parameter_base<wchar_t,__crt_stdio_output::string_output_adapter<wchar_t> >::is_string_specifier<wchar_t>(wchar_t)
FUNC 23efc 28 0 __crt_stdio_output::is_wide_character_specifier<char>(unsigned __int64,char,__crt_stdio_output::length_modifier)
FUNC 23f30 3e 0 __crt_stdio_output::is_wide_character_specifier<wchar_t>(unsigned __int64,wchar_t,__crt_stdio_output::length_modifier)
FUNC 23f80 3 0 __crt_stdio_output::peek_va_arg<signed char>(char *)
FUNC 23f84 3 0 __crt_stdio_output::peek_va_arg<unsigned char>(char *)
FUNC 23f88 4 0 __crt_stdio_output::peek_va_arg<short>(char *)
FUNC 23f8c 4 0 __crt_stdio_output::peek_va_arg<unsigned short>(char *)
FUNC 23f90 3 0 __crt_stdio_output::peek_va_arg<int>(char *)
FUNC 23f94 3 0 __crt_stdio_output::peek_va_arg<unsigned int>(char *)
FUNC 23f98 4 0 __crt_stdio_output::peek_va_arg<char *>
FUNC 23f9c 4 0 __crt_stdio_output::peek_va_arg<`__crt_stdio_output::output_processor<char,__crt_stdio_output::stream_output_adapter<char>,__crt_stdio_output::positional_parameter_base<char,__crt_stdio_output::stream_output_adapter<char> > >::type_case_Z'::`2'::ansi_string *>
FUNC 23fa0 4 0 __crt_stdio_output::peek_va_arg<`__crt_stdio_output::output_processor<char,__crt_stdio_output::string_output_adapter<char>,__crt_stdio_output::positional_parameter_base<char,__crt_stdio_output::string_output_adapter<char> > >::type_case_Z'::`2'::ansi_string *>
FUNC 23fa4 4 0 __crt_stdio_output::peek_va_arg<`__crt_stdio_output::output_processor<wchar_t,__crt_stdio_output::stream_output_adapter<wchar_t>,__crt_stdio_output::positional_parameter_base<wchar_t,__crt_stdio_output::stream_output_adapter<wchar_t> > >::type_case_Z'::`2'::ansi_string *>
FUNC 23fa8 4 0 __crt_stdio_output::peek_va_arg<`__crt_stdio_output::output_processor<wchar_t,__crt_stdio_output::string_output_adapter<wchar_t>,__crt_stdio_output::positional_parameter_base<wchar_t,__crt_stdio_output::string_output_adapter<wchar_t> > >::type_case_Z'::`2'::ansi_string *>
FUNC 23fac 4 0 __crt_stdio_output::peek_va_arg<void *>
FUNC 23fb0 4 0 __crt_stdio_output::peek_va_arg<_CRT_DOUBLE>(char *)
FUNC 23fb4 4 0 __crt_stdio_output::peek_va_arg<__int64>(char *)
FUNC 23fb8 4 0 __crt_stdio_output::peek_va_arg<unsigned __int64>(char *)
FUNC 23fbc 4 0 __crt_stdio_output::peek_va_arg<wchar_t>(char *)
FUNC 23fc0 b 0 __crt_char_traits<char>::puttc_nolock<char const &,_iobuf *>
FUNC 23fd0 b 0 __crt_char_traits<wchar_t>::puttc_nolock<wchar_t const &,_iobuf *>
FUNC 23fe0 b 0 __crt_stdio_output::read_va_arg<signed char>(char * &)
FUNC 23ff0 b 0 __crt_stdio_output::read_va_arg<unsigned char>(char * &)
FUNC 24000 c 0 __crt_stdio_output::read_va_arg<short>(char * &)
FUNC 24010 c 0 __crt_stdio_output::read_va_arg<unsigned short>(char * &)
FUNC 24020 b 0 __crt_stdio_output::read_va_arg<int>(char * &)
FUNC 24030 b 0 __crt_stdio_output::read_va_arg<unsigned int>(char * &)
FUNC 24040 c 0 __crt_stdio_output::read_va_arg<char *>
FUNC 24050 c 0 __crt_stdio_output::read_va_arg<`__crt_stdio_output::output_processor<char,__crt_stdio_output::stream_output_adapter<char>,__crt_stdio_output::format_validation_base<char,__crt_stdio_output::stream_output_adapter<char> > >::type_case_Z'::`2'::ansi_string *>
FUNC 24060 c 0 __crt_stdio_output::read_va_arg<`__crt_stdio_output::output_processor<char,__crt_stdio_output::stream_output_adapter<char>,__crt_stdio_output::positional_parameter_base<char,__crt_stdio_output::stream_output_adapter<char> > >::type_case_Z'::`2'::ansi_string *>
FUNC 24070 c 0 __crt_stdio_output::read_va_arg<`__crt_stdio_output::output_processor<char,__crt_stdio_output::stream_output_adapter<char>,__crt_stdio_output::standard_base<char,__crt_stdio_output::stream_output_adapter<char> > >::type_case_Z'::`2'::ansi_string *>
FUNC 24080 c 0 __crt_stdio_output::read_va_arg<`__crt_stdio_output::output_processor<char,__crt_stdio_output::string_output_adapter<char>,__crt_stdio_output::format_validation_base<char,__crt_stdio_output::string_output_adapter<char> > >::type_case_Z'::`2'::ansi_string *>
FUNC 24090 c 0 __crt_stdio_output::read_va_arg<`__crt_stdio_output::output_processor<char,__crt_stdio_output::string_output_adapter<char>,__crt_stdio_output::positional_parameter_base<char,__crt_stdio_output::string_output_adapter<char> > >::type_case_Z'::`2'::ansi_string *>
FUNC 240a0 c 0 __crt_stdio_output::read_va_arg<`__crt_stdio_output::output_processor<char,__crt_stdio_output::string_output_adapter<char>,__crt_stdio_output::standard_base<char,__crt_stdio_output::string_output_adapter<char> > >::type_case_Z'::`2'::ansi_string *>
FUNC 240b0 c 0 __crt_stdio_output::read_va_arg<`__crt_stdio_output::output_processor<wchar_t,__crt_stdio_output::stream_output_adapter<wchar_t>,__crt_stdio_output::format_validation_base<wchar_t,__crt_stdio_output::stream_output_adapter<wchar_t> > >::type_case_Z'::`2'::ansi_string *>
FUNC 240c0 c 0 __crt_stdio_output::read_va_arg<`__crt_stdio_output::output_processor<wchar_t,__crt_stdio_output::stream_output_adapter<wchar_t>,__crt_stdio_output::positional_parameter_base<wchar_t,__crt_stdio_output::stream_output_adapter<wchar_t> > >::type_case_Z'::`2'::ansi_string *>
FUNC 240d0 c 0 __crt_stdio_output::read_va_arg<`__crt_stdio_output::output_processor<wchar_t,__crt_stdio_output::stream_output_adapter<wchar_t>,__crt_stdio_output::standard_base<wchar_t,__crt_stdio_output::stream_output_adapter<wchar_t> > >::type_case_Z'::`2'::ansi_string *>
FUNC 240e0 c 0 __crt_stdio_output::read_va_arg<`__crt_stdio_output::output_processor<wchar_t,__crt_stdio_output::string_output_adapter<wchar_t>,__crt_stdio_output::format_validation_base<wchar_t,__crt_stdio_output::string_output_adapter<wchar_t> > >::type_case_Z'::`2'::ansi_string *>
FUNC 240f0 c 0 __crt_stdio_output::read_va_arg<`__crt_stdio_output::output_processor<wchar_t,__crt_stdio_output::string_output_adapter<wchar_t>,__crt_stdio_output::positional_parameter_base<wchar_t,__crt_stdio_output::string_output_adapter<wchar_t> > >::type_case_Z'::`2'::ansi_string *>
FUNC 24100 c 0 __crt_stdio_output::read_va_arg<`__crt_stdio_output::output_processor<wchar_t,__crt_stdio_output::string_output_adapter<wchar_t>,__crt_stdio_output::standard_base<wchar_t,__crt_stdio_output::string_output_adapter<wchar_t> > >::type_case_Z'::`2'::ansi_string *>
FUNC 24110 c 0 __crt_stdio_output::read_va_arg<void *>
FUNC 24120 c 0 __crt_stdio_output::read_va_arg<_CRT_DOUBLE>(char * &)
FUNC 24130 c 0 __crt_stdio_output::read_va_arg<__int64>(char * &)
FUNC 24140 c 0 __crt_stdio_output::read_va_arg<unsigned __int64>(char * &)
FUNC 24150 c 0 __crt_stdio_output::read_va_arg<wchar_t>(char * &)
FUNC 24160 1b 0 __crt_stdio_output::formatting_buffer::scratch_count<char>()
FUNC 24184 22 0 __crt_stdio_output::formatting_buffer::scratch_data<char>()
FUNC 241b0 e 0 __crt_char_traits<char>::tcstol<char const * &,char * *,int>
FUNC 241c4 e 0 __crt_char_traits<wchar_t>::tcstol<wchar_t const * &,wchar_t * *,int>
FUNC 241d8 e 0 __crt_char_traits<char>::tcstol<char const *,char * *,int>
FUNC 241ec e 0 __crt_char_traits<wchar_t>::tcstol<wchar_t const *,wchar_t * *,int>
FUNC 24200 87 0 __crt_stdio_output::output_processor<char,__crt_stdio_output::stream_output_adapter<char>,__crt_stdio_output::format_validation_base<char,__crt_stdio_output::stream_output_adapter<char> > >::type_case_integer_parse_into_buffer<unsigned int>(unsigned int,unsigned int,bool)
FUNC 242a8 87 0 __crt_stdio_output::output_processor<char,__crt_stdio_output::stream_output_adapter<char>,__crt_stdio_output::positional_parameter_base<char,__crt_stdio_output::stream_output_adapter<char> > >::type_case_integer_parse_into_buffer<unsigned int>(unsigned int,unsigned int,bool)
FUNC 24350 87 0 __crt_stdio_output::output_processor<char,__crt_stdio_output::stream_output_adapter<char>,__crt_stdio_output::standard_base<char,__crt_stdio_output::stream_output_adapter<char> > >::type_case_integer_parse_into_buffer<unsigned int>(unsigned int,unsigned int,bool)
FUNC 243f8 87 0 __crt_stdio_output::output_processor<char,__crt_stdio_output::string_output_adapter<char>,__crt_stdio_output::format_validation_base<char,__crt_stdio_output::string_output_adapter<char> > >::type_case_integer_parse_into_buffer<unsigned int>(unsigned int,unsigned int,bool)
FUNC 244a0 87 0 __crt_stdio_output::output_processor<char,__crt_stdio_output::string_output_adapter<char>,__crt_stdio_output::positional_parameter_base<char,__crt_stdio_output::string_output_adapter<char> > >::type_case_integer_parse_into_buffer<unsigned int>(unsigned int,unsigned int,bool)
FUNC 24548 87 0 __crt_stdio_output::output_processor<char,__crt_stdio_output::string_output_adapter<char>,__crt_stdio_output::standard_base<char,__crt_stdio_output::string_output_adapter<char> > >::type_case_integer_parse_into_buffer<unsigned int>(unsigned int,unsigned int,bool)
FUNC 245f0 a3 0 __crt_stdio_output::output_processor<wchar_t,__crt_stdio_output::stream_output_adapter<wchar_t>,__crt_stdio_output::format_validation_base<wchar_t,__crt_stdio_output::stream_output_adapter<wchar_t> > >::type_case_integer_parse_into_buffer<unsigned int>(unsigned int,unsigned int,bool)
FUNC 246bc a3 0 __crt_stdio_output::output_processor<wchar_t,__crt_stdio_output::stream_output_adapter<wchar_t>,__crt_stdio_output::positional_parameter_base<wchar_t,__crt_stdio_output::stream_output_adapter<wchar_t> > >::type_case_integer_parse_into_buffer<unsigned int>(unsigned int,unsigned int,bool)
FUNC 24788 a3 0 __crt_stdio_output::output_processor<wchar_t,__crt_stdio_output::stream_output_adapter<wchar_t>,__crt_stdio_output::standard_base<wchar_t,__crt_stdio_output::stream_output_adapter<wchar_t> > >::type_case_integer_parse_into_buffer<unsigned int>(unsigned int,unsigned int,bool)
FUNC 24854 a3 0 __crt_stdio_output::output_processor<wchar_t,__crt_stdio_output::string_output_adapter<wchar_t>,__crt_stdio_output::format_validation_base<wchar_t,__crt_stdio_output::string_output_adapter<wchar_t> > >::type_case_integer_parse_into_buffer<unsigned int>(unsigned int,unsigned int,bool)
FUNC 24920 a3 0 __crt_stdio_output::output_processor<wchar_t,__crt_stdio_output::string_output_adapter<wchar_t>,__crt_stdio_output::positional_parameter_base<wchar_t,__crt_stdio_output::string_output_adapter<wchar_t> > >::type_case_integer_parse_into_buffer<unsigned int>(unsigned int,unsigned int,bool)
FUNC 249ec a3 0 __crt_stdio_output::output_processor<wchar_t,__crt_stdio_output::string_output_adapter<wchar_t>,__crt_stdio_output::standard_base<wchar_t,__crt_stdio_output::string_output_adapter<wchar_t> > >::type_case_integer_parse_into_buffer<unsigned int>(unsigned int,unsigned int,bool)
FUNC 24ab8 8d 0 __crt_stdio_output::output_processor<char,__crt_stdio_output::stream_output_adapter<char>,__crt_stdio_output::format_validation_base<char,__crt_stdio_output::stream_output_adapter<char> > >::type_case_integer_parse_into_buffer<unsigned __int64>(unsigned __int64,unsigned int,bool)
FUNC 24b68 8d 0 __crt_stdio_output::output_processor<char,__crt_stdio_output::stream_output_adapter<char>,__crt_stdio_output::positional_parameter_base<char,__crt_stdio_output::stream_output_adapter<char> > >::type_case_integer_parse_into_buffer<unsigned __int64>(unsigned __int64,unsigned int,bool)
FUNC 24c18 8d 0 __crt_stdio_output::output_processor<char,__crt_stdio_output::stream_output_adapter<char>,__crt_stdio_output::standard_base<char,__crt_stdio_output::stream_output_adapter<char> > >::type_case_integer_parse_into_buffer<unsigned __int64>(unsigned __int64,unsigned int,bool)
FUNC 24cc8 8d 0 __crt_stdio_output::output_processor<char,__crt_stdio_output::string_output_adapter<char>,__crt_stdio_output::format_validation_base<char,__crt_stdio_output::string_output_adapter<char> > >::type_case_integer_parse_into_buffer<unsigned __int64>(unsigned __int64,unsigned int,bool)
FUNC 24d78 8d 0 __crt_stdio_output::output_processor<char,__crt_stdio_output::string_output_adapter<char>,__crt_stdio_output::positional_parameter_base<char,__crt_stdio_output::string_output_adapter<char> > >::type_case_integer_parse_into_buffer<unsigned __int64>(unsigned __int64,unsigned int,bool)
FUNC 24e28 8d 0 __crt_stdio_output::output_processor<char,__crt_stdio_output::string_output_adapter<char>,__crt_stdio_output::standard_base<char,__crt_stdio_output::string_output_adapter<char> > >::type_case_integer_parse_into_buffer<unsigned __int64>(unsigned __int64,unsigned int,bool)
FUNC 24ed8 a4 0 __crt_stdio_output::output_processor<wchar_t,__crt_stdio_output::stream_output_adapter<wchar_t>,__crt_stdio_output::format_validation_base<wchar_t,__crt_stdio_output::stream_output_adapter<wchar_t> > >::type_case_integer_parse_into_buffer<unsigned __int64>(unsigned __int64,unsigned int,bool)
FUNC 24fa8 a4 0 __crt_stdio_output::output_processor<wchar_t,__crt_stdio_output::stream_output_adapter<wchar_t>,__crt_stdio_output::positional_parameter_base<wchar_t,__crt_stdio_output::stream_output_adapter<wchar_t> > >::type_case_integer_parse_into_buffer<unsigned __int64>(unsigned __int64,unsigned int,bool)
FUNC 25078 a4 0 __crt_stdio_output::output_processor<wchar_t,__crt_stdio_output::stream_output_adapter<wchar_t>,__crt_stdio_output::standard_base<wchar_t,__crt_stdio_output::stream_output_adapter<wchar_t> > >::type_case_integer_parse_into_buffer<unsigned __int64>(unsigned __int64,unsigned int,bool)
FUNC 25148 a4 0 __crt_stdio_output::output_processor<wchar_t,__crt_stdio_output::string_output_adapter<wchar_t>,__crt_stdio_output::format_validation_base<wchar_t,__crt_stdio_output::string_output_adapter<wchar_t> > >::type_case_integer_parse_into_buffer<unsigned __int64>(unsigned __int64,unsigned int,bool)
FUNC 25218 a4 0 __crt_stdio_output::output_processor<wchar_t,__crt_stdio_output::string_output_adapter<wchar_t>,__crt_stdio_output::positional_parameter_base<wchar_t,__crt_stdio_output::string_output_adapter<wchar_t> > >::type_case_integer_parse_into_buffer<unsigned __int64>(unsigned __int64,unsigned int,bool)
FUNC 252e8 a4 0 __crt_stdio_output::output_processor<wchar_t,__crt_stdio_output::string_output_adapter<wchar_t>,__crt_stdio_output::standard_base<wchar_t,__crt_stdio_output::string_output_adapter<wchar_t> > >::type_case_integer_parse_into_buffer<unsigned __int64>(unsigned __int64,unsigned int,bool)
FUNC 253b8 8b 0 __crt_stdio_output::write_multiple_characters<__crt_stdio_output::stream_output_adapter<char>,char>(__crt_stdio_output::stream_output_adapter<char> const &,char,int,int * const)
FUNC 25468 91 0 __crt_stdio_output::write_multiple_characters<__crt_stdio_output::stream_output_adapter<wchar_t>,char>(__crt_stdio_output::stream_output_adapter<wchar_t> const &,char,int,int * const)
FUNC 25520 75 0 __crt_stdio_output::write_multiple_characters<__crt_stdio_output::string_output_adapter<char>,char>(__crt_stdio_output::string_output_adapter<char> const &,char,int,int * const)
FUNC 255b4 7a 0 __crt_stdio_output::write_multiple_characters<__crt_stdio_output::string_output_adapter<wchar_t>,char>(__crt_stdio_output::string_output_adapter<wchar_t> const &,char,int,int * const)
FUNC 2564c a 0 <lambda_10027885da78ada7fb00668d7e2e96b5>::<lambda_10027885da78ada7fb00668d7e2e96b5>
FUNC 25658 a 0 <lambda_2fa474834de80dc12f7a3c6eddd7a366>::<lambda_2fa474834de80dc12f7a3c6eddd7a366>
FUNC 25664 21 0 <lambda_36eeb330e99a4f0bf8a7da86d0894cb9>::<lambda_36eeb330e99a4f0bf8a7da86d0894cb9>
FUNC 25690 a 0 <lambda_3776af017df72547960a8ac98bb265e7>::<lambda_3776af017df72547960a8ac98bb265e7>
FUNC 2569c a 0 <lambda_4dad5d88921143c78c186dc2683775b0>::<lambda_4dad5d88921143c78c186dc2683775b0>
FUNC 256a8 a 0 <lambda_63c71d947f2ce890aa4aac7392f1cbed>::<lambda_63c71d947f2ce890aa4aac7392f1cbed>
FUNC 256b4 21 0 <lambda_673ffc0dc9412a0afcf2088e0e1b9bdc>::<lambda_673ffc0dc9412a0afcf2088e0e1b9bdc>
FUNC 256e0 a 0 <lambda_676bd5779251ec186b530f0a904b4b35>::<lambda_676bd5779251ec186b530f0a904b4b35>
FUNC 256ec a 0 <lambda_8be82e0ce9ca3860586e20edfb7a650e>::<lambda_8be82e0ce9ca3860586e20edfb7a650e>
FUNC 256f8 a 0 <lambda_8c9f37a989ed2ac074735e5b535e306a>::<lambda_8c9f37a989ed2ac074735e5b535e306a>
FUNC 25704 21 0 <lambda_a993425e72f5bd8b40f5859286f153c4>::<lambda_a993425e72f5bd8b40f5859286f153c4>
FUNC 25730 21 0 <lambda_b579ea784fd840951dfbcbdaebf709fd>::<lambda_b579ea784fd840951dfbcbdaebf709fd>
FUNC 2575c a 0 <lambda_c997b1ad71a4c19edf3d1d12a5864641>::<lambda_c997b1ad71a4c19edf3d1d12a5864641>
FUNC 25768 a 0 <lambda_d1b8e9147f7260ae436300a3cb83e6d4>::<lambda_d1b8e9147f7260ae436300a3cb83e6d4>
FUNC 25774 21 0 <lambda_e3269ba96939e7713c73908c0d757d25>::<lambda_e3269ba96939e7713c73908c0d757d25>
FUNC 257a0 21 0 <lambda_e638437c4db75b75056fab6aaf7e4f15>::<lambda_e638437c4db75b75056fab6aaf7e4f15>
FUNC 257cc a 0 <lambda_e746820a99d01fe878d2dbd7f1018dff>::<lambda_e746820a99d01fe878d2dbd7f1018dff>
FUNC 257d8 a 0 <lambda_fe5404e9642edbb7c8ae71e1dcfa4018>::<lambda_fe5404e9642edbb7c8ae71e1dcfa4018>
FUNC 257e4 3c 0 __crt_stdio_output::common_data<char>::common_data<char>()
FUNC 25830 3f 0 __crt_stdio_output::common_data<wchar_t>::common_data<wchar_t>()
FUNC 25880 5f 0 __crt_stdio_output::output_adapter_data<char,__crt_stdio_output::stream_output_adapter<char> >::output_adapter_data<char,__crt_stdio_output::stream_output_adapter<char> >(__crt_stdio_output::stream_output_adapter<char> const &,unsigned __int64,char const * const,__crt_locale_pointers * const,char * const)
FUNC 258f8 5f 0 __crt_stdio_output::output_adapter_data<char,__crt_stdio_output::string_output_adapter<char> >::output_adapter_data<char,__crt_stdio_output::string_output_adapter<char> >(__crt_stdio_output::string_output_adapter<char> const &,unsigned __int64,char const * const,__crt_locale_pointers * const,char * const)
FUNC 25970 62 0 __crt_stdio_output::output_adapter_data<wchar_t,__crt_stdio_output::stream_output_adapter<wchar_t> >::output_adapter_data<wchar_t,__crt_stdio_output::stream_output_adapter<wchar_t> >(__crt_stdio_output::stream_output_adapter<wchar_t> const &,unsigned __int64,wchar_t const * const,__crt_locale_pointers * const,char * const)
FUNC 259ec 62 0 __crt_stdio_output::output_adapter_data<wchar_t,__crt_stdio_output::string_output_adapter<wchar_t> >::output_adapter_data<wchar_t,__crt_stdio_output::string_output_adapter<wchar_t> >(__crt_stdio_output::string_output_adapter<wchar_t> const &,unsigned __int64,wchar_t const * const,__crt_locale_pointers * const,char * const)
FUNC 25a68 6b 0 __crt_stdio_output::output_processor<char,__crt_stdio_output::stream_output_adapter<char>,__crt_stdio_output::format_validation_base<char,__crt_stdio_output::stream_output_adapter<char> > >::output_processor<char,__crt_stdio_output::stream_output_adapter<char>,__crt_stdio_output::format_validation_base<char,__crt_stdio_output::stream_output_adapter<char> > >(__crt_stdio_output::stream_output_adapter<char> const &,unsigned __int64,char const * const,__crt_locale_pointers * const,char * const)
FUNC 25af0 88 0 __crt_stdio_output::output_processor<char,__crt_stdio_output::stream_output_adapter<char>,__crt_stdio_output::positional_parameter_base<char,__crt_stdio_output::stream_output_adapter<char> > >::output_processor<char,__crt_stdio_output::stream_output_adapter<char>,__crt_stdio_output::positional_parameter_base<char,__crt_stdio_output::stream_output_adapter<char> > >(__crt_stdio_output::stream_output_adapter<char> const &,unsigned __int64,char const * const,__crt_locale_pointers * const,char * const)
FUNC 25b9c 6b 0 __crt_stdio_output::output_processor<char,__crt_stdio_output::stream_output_adapter<char>,__crt_stdio_output::standard_base<char,__crt_stdio_output::stream_output_adapter<char> > >::output_processor<char,__crt_stdio_output::stream_output_adapter<char>,__crt_stdio_output::standard_base<char,__crt_stdio_output::stream_output_adapter<char> > >(__crt_stdio_output::stream_output_adapter<char> const &,unsigned __int64,char const * const,__crt_locale_pointers * const,char * const)
FUNC 25c24 6b 0 __crt_stdio_output::output_processor<char,__crt_stdio_output::string_output_adapter<char>,__crt_stdio_output::format_validation_base<char,__crt_stdio_output::string_output_adapter<char> > >::output_processor<char,__crt_stdio_output::string_output_adapter<char>,__crt_stdio_output::format_validation_base<char,__crt_stdio_output::string_output_adapter<char> > >(__crt_stdio_output::string_output_adapter<char> const &,unsigned __int64,char const * const,__crt_locale_pointers * const,char * const)
FUNC 25cac 88 0 __crt_stdio_output::output_processor<char,__crt_stdio_output::string_output_adapter<char>,__crt_stdio_output::positional_parameter_base<char,__crt_stdio_output::string_output_adapter<char> > >::output_processor<char,__crt_stdio_output::string_output_adapter<char>,__crt_stdio_output::positional_parameter_base<char,__crt_stdio_output::string_output_adapter<char> > >(__crt_stdio_output::string_output_adapter<char> const &,unsigned __int64,char const * const,__crt_locale_pointers * const,char * const)
FUNC 25d58 6b 0 __crt_stdio_output::output_processor<char,__crt_stdio_output::string_output_adapter<char>,__crt_stdio_output::standard_base<char,__crt_stdio_output::string_output_adapter<char> > >::output_processor<char,__crt_stdio_output::string_output_adapter<char>,__crt_stdio_output::standard_base<char,__crt_stdio_output::string_output_adapter<char> > >(__crt_stdio_output::string_output_adapter<char> const &,unsigned __int64,char const * const,__crt_locale_pointers * const,char * const)
FUNC 25de0 6f 0 __crt_stdio_output::output_processor<wchar_t,__crt_stdio_output::stream_output_adapter<wchar_t>,__crt_stdio_output::format_validation_base<wchar_t,__crt_stdio_output::stream_output_adapter<wchar_t> > >::output_processor<wchar_t,__crt_stdio_output::stream_output_adapter<wchar_t>,__crt_stdio_output::format_validation_base<wchar_t,__crt_stdio_output::stream_output_adapter<wchar_t> > >(__crt_stdio_output::stream_output_adapter<wchar_t> const &,unsigned __int64,wchar_t const * const,__crt_locale_pointers * const,char * const)
FUNC 25e6c 8c 0 __crt_stdio_output::output_processor<wchar_t,__crt_stdio_output::stream_output_adapter<wchar_t>,__crt_stdio_output::positional_parameter_base<wchar_t,__crt_stdio_output::stream_output_adapter<wchar_t> > >::output_processor<wchar_t,__crt_stdio_output::stream_output_adapter<wchar_t>,__crt_stdio_output::positional_parameter_base<wchar_t,__crt_stdio_output::stream_output_adapter<wchar_t> > >(__crt_stdio_output::stream_output_adapter<wchar_t> const &,unsigned __int64,wchar_t const * const,__crt_locale_pointers * const,char * const)
FUNC 25f1c 6f 0 __crt_stdio_output::output_processor<wchar_t,__crt_stdio_output::stream_output_adapter<wchar_t>,__crt_stdio_output::standard_base<wchar_t,__crt_stdio_output::stream_output_adapter<wchar_t> > >::output_processor<wchar_t,__crt_stdio_output::stream_output_adapter<wchar_t>,__crt_stdio_output::standard_base<wchar_t,__crt_stdio_output::stream_output_adapter<wchar_t> > >(__crt_stdio_output::stream_output_adapter<wchar_t> const &,unsigned __int64,wchar_t const * const,__crt_locale_pointers * const,char * const)
FUNC 25fa8 6f 0 __crt_stdio_output::output_processor<wchar_t,__crt_stdio_output::string_output_adapter<wchar_t>,__crt_stdio_output::format_validation_base<wchar_t,__crt_stdio_output::string_output_adapter<wchar_t> > >::output_processor<wchar_t,__crt_stdio_output::string_output_adapter<wchar_t>,__crt_stdio_output::format_validation_base<wchar_t,__crt_stdio_output::string_output_adapter<wchar_t> > >(__crt_stdio_output::string_output_adapter<wchar_t> const &,unsigned __int64,wchar_t const * const,__crt_locale_pointers * const,char * const)
FUNC 26034 8c 0 __crt_stdio_output::output_processor<wchar_t,__crt_stdio_output::string_output_adapter<wchar_t>,__crt_stdio_output::positional_parameter_base<wchar_t,__crt_stdio_output::string_output_adapter<wchar_t> > >::output_processor<wchar_t,__crt_stdio_output::string_output_adapter<wchar_t>,__crt_stdio_output::positional_parameter_base<wchar_t,__crt_stdio_output::string_output_adapter<wchar_t> > >(__crt_stdio_output::string_output_adapter<wchar_t> const &,unsigned __int64,wchar_t const * const,__crt_locale_pointers * const,char * const)
FUNC 260e4 6f 0 __crt_stdio_output::output_processor<wchar_t,__crt_stdio_output::string_output_adapter<wchar_t>,__crt_stdio_output::standard_base<wchar_t,__crt_stdio_output::string_output_adapter<wchar_t> > >::output_processor<wchar_t,__crt_stdio_output::string_output_adapter<wchar_t>,__crt_stdio_output::standard_base<wchar_t,__crt_stdio_output::string_output_adapter<wchar_t> > >(__crt_stdio_output::string_output_adapter<wchar_t> const &,unsigned __int64,wchar_t const * const,__crt_locale_pointers * const,char * const)
FUNC 26170 7 0 __crt_stdio_output::stream_output_adapter<char>::stream_output_adapter<char>(_iobuf * const)
FUNC 26178 7 0 __crt_stdio_output::stream_output_adapter<wchar_t>::stream_output_adapter<wchar_t>(_iobuf * const)
FUNC 26180 7 0 __crt_stdio_output::string_output_adapter<char>::string_output_adapter<char>(__crt_stdio_output::string_output_adapter_context<char> * const)
FUNC 26188 7 0 __crt_stdio_output::string_output_adapter<wchar_t>::string_output_adapter<wchar_t>(__crt_stdio_output::string_output_adapter_context<wchar_t> * const)
FUNC 26190 9b 0 _LocaleUpdate::_LocaleUpdate(__crt_locale_pointers * const)
FUNC 26254 20 0 __acrt_stdio_temporary_buffering_guard::__acrt_stdio_temporary_buffering_guard(_iobuf * const)
FUNC 2627c 8 0 __crt_deferred_errno_cache::__crt_deferred_errno_cache()
FUNC 26288 f 0 __crt_errno_guard::__crt_errno_guard(int * const)
FUNC 2629c 7 0 __crt_stdio_stream::__crt_stdio_stream(_iobuf * const)
FUNC 262a4 14 0 __crt_stdio_output::formatting_buffer::formatting_buffer()
FUNC 262c0 23 0 __crt_stdio_output::common_data<char>::~common_data<char>()
FUNC 262ec 23 0 __crt_stdio_output::common_data<wchar_t>::~common_data<wchar_t>()
FUNC 26318 23 0 __crt_stdio_output::format_validation_base<char,__crt_stdio_output::stream_output_adapter<char> >::~format_validation_base<char,__crt_stdio_output::stream_output_adapter<char> >()
FUNC 26344 23 0 __crt_stdio_output::format_validation_base<char,__crt_stdio_output::string_output_adapter<char> >::~format_validation_base<char,__crt_stdio_output::string_output_adapter<char> >()
FUNC 26370 23 0 __crt_stdio_output::format_validation_base<wchar_t,__crt_stdio_output::stream_output_adapter<wchar_t> >::~format_validation_base<wchar_t,__crt_stdio_output::stream_output_adapter<wchar_t> >()
FUNC 2639c 23 0 __crt_stdio_output::format_validation_base<wchar_t,__crt_stdio_output::string_output_adapter<wchar_t> >::~format_validation_base<wchar_t,__crt_stdio_output::string_output_adapter<wchar_t> >()
FUNC 263c8 23 0 __crt_stdio_output::output_adapter_data<char,__crt_stdio_output::stream_output_adapter<char> >::~output_adapter_data<char,__crt_stdio_output::stream_output_adapter<char> >()
FUNC 263f4 23 0 __crt_stdio_output::output_adapter_data<char,__crt_stdio_output::string_output_adapter<char> >::~output_adapter_data<char,__crt_stdio_output::string_output_adapter<char> >()
FUNC 26420 23 0 __crt_stdio_output::output_adapter_data<wchar_t,__crt_stdio_output::stream_output_adapter<wchar_t> >::~output_adapter_data<wchar_t,__crt_stdio_output::stream_output_adapter<wchar_t> >()
FUNC 2644c 23 0 __crt_stdio_output::output_adapter_data<wchar_t,__crt_stdio_output::string_output_adapter<wchar_t> >::~output_adapter_data<wchar_t,__crt_stdio_output::string_output_adapter<wchar_t> >()
FUNC 26478 23 0 __crt_stdio_output::output_processor<char,__crt_stdio_output::stream_output_adapter<char>,__crt_stdio_output::format_validation_base<char,__crt_stdio_output::stream_output_adapter<char> > >::~output_processor<char,__crt_stdio_output::stream_output_adapter<char>,__crt_stdio_output::format_validation_base<char,__crt_stdio_output::stream_output_adapter<char> > >()
FUNC 264a4 23 0 __crt_stdio_output::output_processor<char,__crt_stdio_output::stream_output_adapter<char>,__crt_stdio_output::positional_parameter_base<char,__crt_stdio_output::stream_output_adapter<char> > >::~output_processor<char,__crt_stdio_output::stream_output_adapter<char>,__crt_stdio_output::positional_parameter_base<char,__crt_stdio_output::stream_output_adapter<char> > >()
FUNC 264d0 23 0 __crt_stdio_output::output_processor<char,__crt_stdio_output::stream_output_adapter<char>,__crt_stdio_output::standard_base<char,__crt_stdio_output::stream_output_adapter<char> > >::~output_processor<char,__crt_stdio_output::stream_output_adapter<char>,__crt_stdio_output::standard_base<char,__crt_stdio_output::stream_output_adapter<char> > >()
FUNC 264fc 23 0 __crt_stdio_output::output_processor<char,__crt_stdio_output::string_output_adapter<char>,__crt_stdio_output::format_validation_base<char,__crt_stdio_output::string_output_adapter<char> > >::~output_processor<char,__crt_stdio_output::string_output_adapter<char>,__crt_stdio_output::format_validation_base<char,__crt_stdio_output::string_output_adapter<char> > >()
FUNC 26528 23 0 __crt_stdio_output::output_processor<char,__crt_stdio_output::string_output_adapter<char>,__crt_stdio_output::positional_parameter_base<char,__crt_stdio_output::string_output_adapter<char> > >::~output_processor<char,__crt_stdio_output::string_output_adapter<char>,__crt_stdio_output::positional_parameter_base<char,__crt_stdio_output::string_output_adapter<char> > >()
FUNC 26554 23 0 __crt_stdio_output::output_processor<char,__crt_stdio_output::string_output_adapter<char>,__crt_stdio_output::standard_base<char,__crt_stdio_output::string_output_adapter<char> > >::~output_processor<char,__crt_stdio_output::string_output_adapter<char>,__crt_stdio_output::standard_base<char,__crt_stdio_output::string_output_adapter<char> > >()
FUNC 26580 23 0 __crt_stdio_output::output_processor<wchar_t,__crt_stdio_output::stream_output_adapter<wchar_t>,__crt_stdio_output::format_validation_base<wchar_t,__crt_stdio_output::stream_output_adapter<wchar_t> > >::~output_processor<wchar_t,__crt_stdio_output::stream_output_adapter<wchar_t>,__crt_stdio_output::format_validation_base<wchar_t,__crt_stdio_output::stream_output_adapter<wchar_t> > >()
FUNC 265ac 23 0 __crt_stdio_output::output_processor<wchar_t,__crt_stdio_output::stream_output_adapter<wchar_t>,__crt_stdio_output::positional_parameter_base<wchar_t,__crt_stdio_output::stream_output_adapter<wchar_t> > >::~output_processor<wchar_t,__crt_stdio_output::stream_output_adapter<wchar_t>,__crt_stdio_output::positional_parameter_base<wchar_t,__crt_stdio_output::stream_output_adapter<wchar_t> > >()
FUNC 265d8 23 0 __crt_stdio_output::output_processor<wchar_t,__crt_stdio_output::stream_output_adapter<wchar_t>,__crt_stdio_output::standard_base<wchar_t,__crt_stdio_output::stream_output_adapter<wchar_t> > >::~output_processor<wchar_t,__crt_stdio_output::stream_output_adapter<wchar_t>,__crt_stdio_output::standard_base<wchar_t,__crt_stdio_output::stream_output_adapter<wchar_t> > >()
FUNC 26604 23 0 __crt_stdio_output::output_processor<wchar_t,__crt_stdio_output::string_output_adapter<wchar_t>,__crt_stdio_output::format_validation_base<wchar_t,__crt_stdio_output::string_output_adapter<wchar_t> > >::~output_processor<wchar_t,__crt_stdio_output::string_output_adapter<wchar_t>,__crt_stdio_output::format_validation_base<wchar_t,__crt_stdio_output::string_output_adapter<wchar_t> > >()
FUNC 26630 23 0 __crt_stdio_output::output_processor<wchar_t,__crt_stdio_output::string_output_adapter<wchar_t>,__crt_stdio_output::positional_parameter_base<wchar_t,__crt_stdio_output::string_output_adapter<wchar_t> > >::~output_processor<wchar_t,__crt_stdio_output::string_output_adapter<wchar_t>,__crt_stdio_output::positional_parameter_base<wchar_t,__crt_stdio_output::string_output_adapter<wchar_t> > >()
FUNC 2665c 23 0 __crt_stdio_output::output_processor<wchar_t,__crt_stdio_output::string_output_adapter<wchar_t>,__crt_stdio_output::standard_base<wchar_t,__crt_stdio_output::string_output_adapter<wchar_t> > >::~output_processor<wchar_t,__crt_stdio_output::string_output_adapter<wchar_t>,__crt_stdio_output::standard_base<wchar_t,__crt_stdio_output::string_output_adapter<wchar_t> > >()
FUNC 26688 23 0 __crt_stdio_output::positional_parameter_base<char,__crt_stdio_output::stream_output_adapter<char> >::~positional_parameter_base<char,__crt_stdio_output::stream_output_adapter<char> >()
FUNC 266b4 23 0 __crt_stdio_output::positional_parameter_base<char,__crt_stdio_output::string_output_adapter<char> >::~positional_parameter_base<char,__crt_stdio_output::string_output_adapter<char> >()
FUNC 266e0 23 0 __crt_stdio_output::positional_parameter_base<wchar_t,__crt_stdio_output::stream_output_adapter<wchar_t> >::~positional_parameter_base<wchar_t,__crt_stdio_output::stream_output_adapter<wchar_t> >()
FUNC 2670c 23 0 __crt_stdio_output::positional_parameter_base<wchar_t,__crt_stdio_output::string_output_adapter<wchar_t> >::~positional_parameter_base<wchar_t,__crt_stdio_output::string_output_adapter<wchar_t> >()
FUNC 26738 23 0 __crt_stdio_output::standard_base<char,__crt_stdio_output::stream_output_adapter<char> >::~standard_base<char,__crt_stdio_output::stream_output_adapter<char> >()
FUNC 26764 23 0 __crt_stdio_output::standard_base<char,__crt_stdio_output::string_output_adapter<char> >::~standard_base<char,__crt_stdio_output::string_output_adapter<char> >()
FUNC 26790 23 0 __crt_stdio_output::standard_base<wchar_t,__crt_stdio_output::stream_output_adapter<wchar_t> >::~standard_base<wchar_t,__crt_stdio_output::stream_output_adapter<wchar_t> >()
FUNC 267bc 23 0 __crt_stdio_output::standard_base<wchar_t,__crt_stdio_output::string_output_adapter<wchar_t> >::~standard_base<wchar_t,__crt_stdio_output::string_output_adapter<wchar_t> >()
FUNC 267e8 11 0 _LocaleUpdate::~_LocaleUpdate()
FUNC 26800 b 0 __acrt_stdio_temporary_buffering_guard::~__acrt_stdio_temporary_buffering_guard()
FUNC 26810 12 0 __crt_errno_guard::~__crt_errno_guard()
FUNC 26828 23 0 __crt_stdio_output::formatting_buffer::~formatting_buffer()
FUNC 26854 34 0 __crt_unique_heap_ptr<char,__crt_internal_free_policy>::operator=(__crt_unique_heap_ptr<char,__crt_internal_free_policy> &&)
FUNC 26898 4 0 __crt_stdio_stream::operator->()
FUNC 2689c 8 0 <lambda_10027885da78ada7fb00668d7e2e96b5>::operator()
FUNC 268a8 8 0 <lambda_2fa474834de80dc12f7a3c6eddd7a366>::operator()
FUNC 268b4 12d 0 <lambda_36eeb330e99a4f0bf8a7da86d0894cb9>::operator()
FUNC 26a2c 8 0 <lambda_3776af017df72547960a8ac98bb265e7>::operator()
FUNC 26a38 8 0 <lambda_4dad5d88921143c78c186dc2683775b0>::operator()
FUNC 26a44 8 0 <lambda_63c71d947f2ce890aa4aac7392f1cbed>::operator()
FUNC 26a50 14e 0 <lambda_673ffc0dc9412a0afcf2088e0e1b9bdc>::operator()
FUNC 26bf4 8 0 <lambda_676bd5779251ec186b530f0a904b4b35>::operator()
FUNC 26c00 8 0 <lambda_8be82e0ce9ca3860586e20edfb7a650e>::operator()
FUNC 26c0c 8 0 <lambda_8c9f37a989ed2ac074735e5b535e306a>::operator()
FUNC 26c18 14a 0 <lambda_a993425e72f5bd8b40f5859286f153c4>::operator()
FUNC 26db4 131 0 <lambda_b579ea784fd840951dfbcbdaebf709fd>::operator()
FUNC 26f34 8 0 <lambda_c997b1ad71a4c19edf3d1d12a5864641>::operator()
FUNC 26f40 8 0 <lambda_d1b8e9147f7260ae436300a3cb83e6d4>::operator()
FUNC 26f4c 131 0 <lambda_e3269ba96939e7713c73908c0d757d25>::operator()
FUNC 270cc 12d 0 <lambda_e638437c4db75b75056fab6aaf7e4f15>::operator()
FUNC 27244 8 0 <lambda_e746820a99d01fe878d2dbd7f1018dff>::operator()
FUNC 27250 8 0 <lambda_fe5404e9642edbb7c8ae71e1dcfa4018>::operator()
FUNC 2725c 5 0 _LocaleUpdate::GetLocaleT()
FUNC 27264 c 0 __crt_stdio_output::output_processor<char,__crt_stdio_output::stream_output_adapter<char>,__crt_stdio_output::format_validation_base<char,__crt_stdio_output::stream_output_adapter<char> > >::adjust_hexit(int,bool)
FUNC 27274 c 0 __crt_stdio_output::output_processor<char,__crt_stdio_output::stream_output_adapter<char>,__crt_stdio_output::positional_parameter_base<char,__crt_stdio_output::stream_output_adapter<char> > >::adjust_hexit(int,bool)
FUNC 27284 c 0 __crt_stdio_output::output_processor<char,__crt_stdio_output::stream_output_adapter<char>,__crt_stdio_output::standard_base<char,__crt_stdio_output::stream_output_adapter<char> > >::adjust_hexit(int,bool)
FUNC 27294 c 0 __crt_stdio_output::output_processor<char,__crt_stdio_output::string_output_adapter<char>,__crt_stdio_output::format_validation_base<char,__crt_stdio_output::string_output_adapter<char> > >::adjust_hexit(int,bool)
FUNC 272a4 c 0 __crt_stdio_output::output_processor<char,__crt_stdio_output::string_output_adapter<char>,__crt_stdio_output::positional_parameter_base<char,__crt_stdio_output::string_output_adapter<char> > >::adjust_hexit(int,bool)
FUNC 272b4 c 0 __crt_stdio_output::output_processor<char,__crt_stdio_output::string_output_adapter<char>,__crt_stdio_output::standard_base<char,__crt_stdio_output::string_output_adapter<char> > >::adjust_hexit(int,bool)
FUNC 272c4 c 0 __crt_stdio_output::output_processor<wchar_t,__crt_stdio_output::stream_output_adapter<wchar_t>,__crt_stdio_output::format_validation_base<wchar_t,__crt_stdio_output::stream_output_adapter<wchar_t> > >::adjust_hexit(int,bool)
FUNC 272d4 c 0 __crt_stdio_output::output_processor<wchar_t,__crt_stdio_output::stream_output_adapter<wchar_t>,__crt_stdio_output::positional_parameter_base<wchar_t,__crt_stdio_output::stream_output_adapter<wchar_t> > >::adjust_hexit(int,bool)
FUNC 272e4 c 0 __crt_stdio_output::output_processor<wchar_t,__crt_stdio_output::stream_output_adapter<wchar_t>,__crt_stdio_output::standard_base<wchar_t,__crt_stdio_output::stream_output_adapter<wchar_t> > >::adjust_hexit(int,bool)
FUNC 272f4 c 0 __crt_stdio_output::output_processor<wchar_t,__crt_stdio_output::string_output_adapter<wchar_t>,__crt_stdio_output::format_validation_base<wchar_t,__crt_stdio_output::string_output_adapter<wchar_t> > >::adjust_hexit(int,bool)
FUNC 27304 c 0 __crt_stdio_output::output_processor<wchar_t,__crt_stdio_output::string_output_adapter<wchar_t>,__crt_stdio_output::positional_parameter_base<wchar_t,__crt_stdio_output::string_output_adapter<wchar_t> > >::adjust_hexit(int,bool)
FUNC 27314 c 0 __crt_stdio_output::output_processor<wchar_t,__crt_stdio_output::string_output_adapter<wchar_t>,__crt_stdio_output::standard_base<wchar_t,__crt_stdio_output::string_output_adapter<wchar_t> > >::adjust_hexit(int,bool)
FUNC 27324 50 0 __crt_stdio_output::positional_parameter_base<char,__crt_stdio_output::stream_output_adapter<char> >::advance_to_next_pass()
FUNC 27388 50 0 __crt_stdio_output::positional_parameter_base<char,__crt_stdio_output::string_output_adapter<char> >::advance_to_next_pass()
FUNC 273ec 50 0 __crt_stdio_output::positional_parameter_base<wchar_t,__crt_stdio_output::stream_output_adapter<wchar_t> >::advance_to_next_pass()
FUNC 27450 50 0 __crt_stdio_output::positional_parameter_base<wchar_t,__crt_stdio_output::string_output_adapter<wchar_t> >::advance_to_next_pass()
FUNC 274b4 11 0 __crt_stdio_output::standard_base<char,__crt_stdio_output::stream_output_adapter<char> >::advance_to_next_pass()
FUNC 274cc 11 0 __crt_stdio_output::standard_base<char,__crt_stdio_output::string_output_adapter<char> >::advance_to_next_pass()
FUNC 274e4 11 0 __crt_stdio_output::standard_base<wchar_t,__crt_stdio_output::stream_output_adapter<wchar_t> >::advance_to_next_pass()
FUNC 274fc 11 0 __crt_stdio_output::standard_base<wchar_t,__crt_stdio_output::string_output_adapter<wchar_t> >::advance_to_next_pass()
FUNC 27514 69 0 __crt_stdio_output::crop_zeroes(char *,__crt_locale_pointers * const)
FUNC 27598 31 0 __crt_stdio_output::output_processor<char,__crt_stdio_output::stream_output_adapter<char>,__crt_stdio_output::format_validation_base<char,__crt_stdio_output::stream_output_adapter<char> > >::find_next_state(char,__crt_stdio_output::state)
FUNC 275d8 31 0 __crt_stdio_output::output_processor<char,__crt_stdio_output::stream_output_adapter<char>,__crt_stdio_output::positional_parameter_base<char,__crt_stdio_output::stream_output_adapter<char> > >::find_next_state(char,__crt_stdio_output::state)
FUNC 27618 2f 0 __crt_stdio_output::output_processor<char,__crt_stdio_output::stream_output_adapter<char>,__crt_stdio_output::standard_base<char,__crt_stdio_output::stream_output_adapter<char> > >::find_next_state(char,__crt_stdio_output::state)
FUNC 27654 31 0 __crt_stdio_output::output_processor<char,__crt_stdio_output::string_output_adapter<char>,__crt_stdio_output::format_validation_base<char,__crt_stdio_output::string_output_adapter<char> > >::find_next_state(char,__crt_stdio_output::state)
FUNC 27694 31 0 __crt_stdio_output::output_processor<char,__crt_stdio_output::string_output_adapter<char>,__crt_stdio_output::positional_parameter_base<char,__crt_stdio_output::string_output_adapter<char> > >::find_next_state(char,__crt_stdio_output::state)
FUNC 276d4 2f 0 __crt_stdio_output::output_processor<char,__crt_stdio_output::string_output_adapter<char>,__crt_stdio_output::standard_base<char,__crt_stdio_output::string_output_adapter<char> > >::find_next_state(char,__crt_stdio_output::state)
FUNC 27710 32 0 __crt_stdio_output::output_processor<wchar_t,__crt_stdio_output::stream_output_adapter<wchar_t>,__crt_stdio_output::format_validation_base<wchar_t,__crt_stdio_output::stream_output_adapter<wchar_t> > >::find_next_state(wchar_t,__crt_stdio_output::state)
FUNC 27750 32 0 __crt_stdio_output::output_processor<wchar_t,__crt_stdio_output::stream_output_adapter<wchar_t>,__crt_stdio_output::positional_parameter_base<wchar_t,__crt_stdio_output::stream_output_adapter<wchar_t> > >::find_next_state(wchar_t,__crt_stdio_output::state)
FUNC 27790 30 0 __crt_stdio_output::output_processor<wchar_t,__crt_stdio_output::stream_output_adapter<wchar_t>,__crt_stdio_output::standard_base<wchar_t,__crt_stdio_output::stream_output_adapter<wchar_t> > >::find_next_state(wchar_t,__crt_stdio_output::state)
FUNC 277cc 32 0 __crt_stdio_output::output_processor<wchar_t,__crt_stdio_output::string_output_adapter<wchar_t>,__crt_stdio_output::format_validation_base<wchar_t,__crt_stdio_output::string_output_adapter<wchar_t> > >::find_next_state(wchar_t,__crt_stdio_output::state)
FUNC 2780c 32 0 __crt_stdio_output::output_processor<wchar_t,__crt_stdio_output::string_output_adapter<wchar_t>,__crt_stdio_output::positional_parameter_base<wchar_t,__crt_stdio_output::string_output_adapter<wchar_t> > >::find_next_state(wchar_t,__crt_stdio_output::state)
FUNC 2784c 30 0 __crt_stdio_output::output_processor<wchar_t,__crt_stdio_output::string_output_adapter<wchar_t>,__crt_stdio_output::standard_base<wchar_t,__crt_stdio_output::string_output_adapter<wchar_t> > >::find_next_state(wchar_t,__crt_stdio_output::state)
FUNC 27888 68 0 __crt_stdio_output::force_decimal_point(char *,__crt_locale_pointers * const)
FUNC 2790c 1f 0 __crt_deferred_errno_cache::get()
FUNC 27934 7 0 __crt_stdio_stream::get_flags()
FUNC 2793c 6 0 __crt_stdio_output::positional_parameter_base<char,__crt_stdio_output::stream_output_adapter<char> >::get_parameter_type(short)
FUNC 27944 6 0 __crt_stdio_output::positional_parameter_base<char,__crt_stdio_output::stream_output_adapter<char> >::get_parameter_type(unsigned short)
FUNC 2794c 6 0 __crt_stdio_output::positional_parameter_base<char,__crt_stdio_output::stream_output_adapter<char> >::get_parameter_type(int)
FUNC 27954 6 0 __crt_stdio_output::positional_parameter_base<char,__crt_stdio_output::stream_output_adapter<char> >::get_parameter_type(unsigned int)
FUNC 2795c 6 0 __crt_stdio_output::positional_parameter_base<char,__crt_stdio_output::stream_output_adapter<char> >::get_parameter_type(_CRT_DOUBLE)
FUNC 27964 6 0 __crt_stdio_output::positional_parameter_base<char,__crt_stdio_output::stream_output_adapter<char> >::get_parameter_type(__int64)
FUNC 2796c 6 0 __crt_stdio_output::positional_parameter_base<char,__crt_stdio_output::stream_output_adapter<char> >::get_parameter_type(unsigned __int64)
FUNC 27974 6 0 __crt_stdio_output::positional_parameter_base<char,__crt_stdio_output::stream_output_adapter<char> >::get_parameter_type(wchar_t)
FUNC 2797c 6 0 __crt_stdio_output::positional_parameter_base<char,__crt_stdio_output::string_output_adapter<char> >::get_parameter_type(short)
FUNC 27984 6 0 __crt_stdio_output::positional_parameter_base<char,__crt_stdio_output::string_output_adapter<char> >::get_parameter_type(unsigned short)
FUNC 2798c 6 0 __crt_stdio_output::positional_parameter_base<char,__crt_stdio_output::string_output_adapter<char> >::get_parameter_type(int)
FUNC 27994 6 0 __crt_stdio_output::positional_parameter_base<char,__crt_stdio_output::string_output_adapter<char> >::get_parameter_type(unsigned int)
FUNC 2799c 6 0 __crt_stdio_output::positional_parameter_base<char,__crt_stdio_output::string_output_adapter<char> >::get_parameter_type(_CRT_DOUBLE)
FUNC 279a4 6 0 __crt_stdio_output::positional_parameter_base<char,__crt_stdio_output::string_output_adapter<char> >::get_parameter_type(__int64)
FUNC 279ac 6 0 __crt_stdio_output::positional_parameter_base<char,__crt_stdio_output::string_output_adapter<char> >::get_parameter_type(unsigned __int64)
FUNC 279b4 6 0 __crt_stdio_output::positional_parameter_base<char,__crt_stdio_output::string_output_adapter<char> >::get_parameter_type(wchar_t)
FUNC 279bc 6 0 __crt_stdio_output::positional_parameter_base<wchar_t,__crt_stdio_output::stream_output_adapter<wchar_t> >::get_parameter_type(short)
FUNC 279c4 6 0 __crt_stdio_output::positional_parameter_base<wchar_t,__crt_stdio_output::stream_output_adapter<wchar_t> >::get_parameter_type(unsigned short)
FUNC 279cc 6 0 __crt_stdio_output::positional_parameter_base<wchar_t,__crt_stdio_output::stream_output_adapter<wchar_t> >::get_parameter_type(int)
FUNC 279d4 6 0 __crt_stdio_output::positional_parameter_base<wchar_t,__crt_stdio_output::stream_output_adapter<wchar_t> >::get_parameter_type(unsigned int)
FUNC 279dc 6 0 __crt_stdio_output::positional_parameter_base<wchar_t,__crt_stdio_output::stream_output_adapter<wchar_t> >::get_parameter_type(_CRT_DOUBLE)
FUNC 279e4 6 0 __crt_stdio_output::positional_parameter_base<wchar_t,__crt_stdio_output::stream_output_adapter<wchar_t> >::get_parameter_type(__int64)
FUNC 279ec 6 0 __crt_stdio_output::positional_parameter_base<wchar_t,__crt_stdio_output::stream_output_adapter<wchar_t> >::get_parameter_type(unsigned __int64)
FUNC 279f4 6 0 __crt_stdio_output::positional_parameter_base<wchar_t,__crt_stdio_output::stream_output_adapter<wchar_t> >::get_parameter_type(wchar_t)
FUNC 279fc 6 0 __crt_stdio_output::positional_parameter_base<wchar_t,__crt_stdio_output::string_output_adapter<wchar_t> >::get_parameter_type(short)
FUNC 27a04 6 0 __crt_stdio_output::positional_parameter_base<wchar_t,__crt_stdio_output::string_output_adapter<wchar_t> >::get_parameter_type(unsigned short)
FUNC 27a0c 6 0 __crt_stdio_output::positional_parameter_base<wchar_t,__crt_stdio_output::string_output_adapter<wchar_t> >::get_parameter_type(int)
FUNC 27a14 6 0 __crt_stdio_output::positional_parameter_base<wchar_t,__crt_stdio_output::string_output_adapter<wchar_t> >::get_parameter_type(unsigned int)
FUNC 27a1c 6 0 __crt_stdio_output::positional_parameter_base<wchar_t,__crt_stdio_output::string_output_adapter<wchar_t> >::get_parameter_type(_CRT_DOUBLE)
FUNC 27a24 6 0 __crt_stdio_output::positional_parameter_base<wchar_t,__crt_stdio_output::string_output_adapter<wchar_t> >::get_parameter_type(__int64)
FUNC 27a2c 6 0 __crt_stdio_output::positional_parameter_base<wchar_t,__crt_stdio_output::string_output_adapter<wchar_t> >::get_parameter_type(unsigned __int64)
FUNC 27a34 6 0 __crt_stdio_output::positional_parameter_base<wchar_t,__crt_stdio_output::string_output_adapter<wchar_t> >::get_parameter_type(wchar_t)
FUNC 27a3c 7 0 __crt_stdio_output::output_processor<char,__crt_stdio_output::stream_output_adapter<char>,__crt_stdio_output::format_validation_base<char,__crt_stdio_output::stream_output_adapter<char> > >::has_flag(unsigned int)
FUNC 27a44 7 0 __crt_stdio_output::output_processor<char,__crt_stdio_output::stream_output_adapter<char>,__crt_stdio_output::positional_parameter_base<char,__crt_stdio_output::stream_output_adapter<char> > >::has_flag(unsigned int)
FUNC 27a4c 7 0 __crt_stdio_output::output_processor<char,__crt_stdio_output::stream_output_adapter<char>,__crt_stdio_output::standard_base<char,__crt_stdio_output::stream_output_adapter<char> > >::has_flag(unsigned int)
FUNC 27a54 7 0 __crt_stdio_output::output_processor<char,__crt_stdio_output::string_output_adapter<char>,__crt_stdio_output::format_validation_base<char,__crt_stdio_output::string_output_adapter<char> > >::has_flag(unsigned int)
FUNC 27a5c 7 0 __crt_stdio_output::output_processor<char,__crt_stdio_output::string_output_adapter<char>,__crt_stdio_output::positional_parameter_base<char,__crt_stdio_output::string_output_adapter<char> > >::has_flag(unsigned int)
FUNC 27a64 7 0 __crt_stdio_output::output_processor<char,__crt_stdio_output::string_output_adapter<char>,__crt_stdio_output::standard_base<char,__crt_stdio_output::string_output_adapter<char> > >::has_flag(unsigned int)
FUNC 27a6c 7 0 __crt_stdio_output::output_processor<wchar_t,__crt_stdio_output::stream_output_adapter<wchar_t>,__crt_stdio_output::format_validation_base<wchar_t,__crt_stdio_output::stream_output_adapter<wchar_t> > >::has_flag(unsigned int)
FUNC 27a74 7 0 __crt_stdio_output::output_processor<wchar_t,__crt_stdio_output::stream_output_adapter<wchar_t>,__crt_stdio_output::positional_parameter_base<wchar_t,__crt_stdio_output::stream_output_adapter<wchar_t> > >::has_flag(unsigned int)
FUNC 27a7c 7 0 __crt_stdio_output::output_processor<wchar_t,__crt_stdio_output::stream_output_adapter<wchar_t>,__crt_stdio_output::standard_base<wchar_t,__crt_stdio_output::stream_output_adapter<wchar_t> > >::has_flag(unsigned int)
FUNC 27a84 7 0 __crt_stdio_output::output_processor<wchar_t,__crt_stdio_output::string_output_adapter<wchar_t>,__crt_stdio_output::format_validation_base<wchar_t,__crt_stdio_output::string_output_adapter<wchar_t> > >::has_flag(unsigned int)
FUNC 27a8c 7 0 __crt_stdio_output::output_processor<wchar_t,__crt_stdio_output::string_output_adapter<wchar_t>,__crt_stdio_output::positional_parameter_base<wchar_t,__crt_stdio_output::string_output_adapter<wchar_t> > >::has_flag(unsigned int)
FUNC 27a94 7 0 __crt_stdio_output::output_processor<wchar_t,__crt_stdio_output::string_output_adapter<wchar_t>,__crt_stdio_output::standard_base<wchar_t,__crt_stdio_output::string_output_adapter<wchar_t> > >::has_flag(unsigned int)
FUNC 27a9c 230 0 __crt_stdio_output::positional_parameter_base<char,__crt_stdio_output::stream_output_adapter<char> >::is_positional_parameter_reappearance_consistent(__crt_stdio_output::positional_parameter_base<char,__crt_stdio_output::stream_output_adapter<char> >::parameter_data const &,__crt_stdio_output::positional_parameter_base<char,__crt_stdio_output::stream_output_adapter<char> >::parameter_type,char,__crt_stdio_output::length_modifier)
FUNC 27d58 230 0 __crt_stdio_output::positional_parameter_base<char,__crt_stdio_output::string_output_adapter<char> >::is_positional_parameter_reappearance_consistent(__crt_stdio_output::positional_parameter_base<char,__crt_stdio_output::string_output_adapter<char> >::parameter_data const &,__crt_stdio_output::positional_parameter_base<char,__crt_stdio_output::string_output_adapter<char> >::parameter_type,char,__crt_stdio_output::length_modifier)
FUNC 28014 200 0 __crt_stdio_output::positional_parameter_base<wchar_t,__crt_stdio_output::stream_output_adapter<wchar_t> >::is_positional_parameter_reappearance_consistent(__crt_stdio_output::positional_parameter_base<wchar_t,__crt_stdio_output::stream_output_adapter<wchar_t> >::parameter_data const &,__crt_stdio_output::positional_parameter_base<wchar_t,__crt_stdio_output::stream_output_adapter<wchar_t> >::parameter_type,wchar_t,__crt_stdio_output::length_modifier)
FUNC 28294 200 0 __crt_stdio_output::positional_parameter_base<wchar_t,__crt_stdio_output::string_output_adapter<wchar_t> >::is_positional_parameter_reappearance_consistent(__crt_stdio_output::positional_parameter_base<wchar_t,__crt_stdio_output::string_output_adapter<wchar_t> >::parameter_data const &,__crt_stdio_output::positional_parameter_base<wchar_t,__crt_stdio_output::string_output_adapter<wchar_t> >::parameter_type,wchar_t,__crt_stdio_output::length_modifier)
FUNC 28514 c 0 __crt_stdio_stream::is_string_backed()
FUNC 28524 8 0 __crt_stdio_output::output_processor<char,__crt_stdio_output::stream_output_adapter<char>,__crt_stdio_output::format_validation_base<char,__crt_stdio_output::stream_output_adapter<char> > >::narrow_null_string()
FUNC 28530 8 0 __crt_stdio_output::output_processor<char,__crt_stdio_output::stream_output_adapter<char>,__crt_stdio_output::positional_parameter_base<char,__crt_stdio_output::stream_output_adapter<char> > >::narrow_null_string()
FUNC 2853c 8 0 __crt_stdio_output::output_processor<char,__crt_stdio_output::stream_output_adapter<char>,__crt_stdio_output::standard_base<char,__crt_stdio_output::stream_output_adapter<char> > >::narrow_null_string()
FUNC 28548 8 0 __crt_stdio_output::output_processor<char,__crt_stdio_output::string_output_adapter<char>,__crt_stdio_output::format_validation_base<char,__crt_stdio_output::string_output_adapter<char> > >::narrow_null_string()
FUNC 28554 8 0 __crt_stdio_output::output_processor<char,__crt_stdio_output::string_output_adapter<char>,__crt_stdio_output::positional_parameter_base<char,__crt_stdio_output::string_output_adapter<char> > >::narrow_null_string()
FUNC 28560 8 0 __crt_stdio_output::output_processor<char,__crt_stdio_output::string_output_adapter<char>,__crt_stdio_output::standard_base<char,__crt_stdio_output::string_output_adapter<char> > >::narrow_null_string()
FUNC 2856c 8 0 __crt_stdio_output::output_processor<wchar_t,__crt_stdio_output::stream_output_adapter<wchar_t>,__crt_stdio_output::format_validation_base<wchar_t,__crt_stdio_output::stream_output_adapter<wchar_t> > >::narrow_null_string()
FUNC 28578 8 0 __crt_stdio_output::output_processor<wchar_t,__crt_stdio_output::stream_output_adapter<wchar_t>,__crt_stdio_output::positional_parameter_base<wchar_t,__crt_stdio_output::stream_output_adapter<wchar_t> > >::narrow_null_string()
FUNC 28584 8 0 __crt_stdio_output::output_processor<wchar_t,__crt_stdio_output::stream_output_adapter<wchar_t>,__crt_stdio_output::standard_base<wchar_t,__crt_stdio_output::stream_output_adapter<wchar_t> > >::narrow_null_string()
FUNC 28590 8 0 __crt_stdio_output::output_processor<wchar_t,__crt_stdio_output::string_output_adapter<wchar_t>,__crt_stdio_output::format_validation_base<wchar_t,__crt_stdio_output::string_output_adapter<wchar_t> > >::narrow_null_string()
FUNC 2859c 8 0 __crt_stdio_output::output_processor<wchar_t,__crt_stdio_output::string_output_adapter<wchar_t>,__crt_stdio_output::positional_parameter_base<wchar_t,__crt_stdio_output::string_output_adapter<wchar_t> > >::narrow_null_string()
FUNC 285a8 8 0 __crt_stdio_output::output_processor<wchar_t,__crt_stdio_output::string_output_adapter<wchar_t>,__crt_stdio_output::standard_base<wchar_t,__crt_stdio_output::string_output_adapter<wchar_t> > >::narrow_null_string()
FUNC 285b4 a1 0 __crt_stdio_output::output_processor<char,__crt_stdio_output::stream_output_adapter<char>,__crt_stdio_output::format_validation_base<char,__crt_stdio_output::stream_output_adapter<char> > >::parse_int_from_format_string(int * const)
FUNC 28680 a1 0 __crt_stdio_output::output_processor<char,__crt_stdio_output::stream_output_adapter<char>,__crt_stdio_output::positional_parameter_base<char,__crt_stdio_output::stream_output_adapter<char> > >::parse_int_from_format_string(int * const)
FUNC 2874c a1 0 __crt_stdio_output::output_processor<char,__crt_stdio_output::stream_output_adapter<char>,__crt_stdio_output::standard_base<char,__crt_stdio_output::stream_output_adapter<char> > >::parse_int_from_format_string(int * const)
FUNC 28818 a1 0 __crt_stdio_output::output_processor<char,__crt_stdio_output::string_output_adapter<char>,__crt_stdio_output::format_validation_base<char,__crt_stdio_output::string_output_adapter<char> > >::parse_int_from_format_string(int * const)
FUNC 288e4 a1 0 __crt_stdio_output::output_processor<char,__crt_stdio_output::string_output_adapter<char>,__crt_stdio_output::positional_parameter_base<char,__crt_stdio_output::string_output_adapter<char> > >::parse_int_from_format_string(int * const)
FUNC 289b0 a1 0 __crt_stdio_output::output_processor<char,__crt_stdio_output::string_output_adapter<char>,__crt_stdio_output::standard_base<char,__crt_stdio_output::string_output_adapter<char> > >::parse_int_from_format_string(int * const)
FUNC 28a7c a3 0 __crt_stdio_output::output_processor<wchar_t,__crt_stdio_output::stream_output_adapter<wchar_t>,__crt_stdio_output::format_validation_base<wchar_t,__crt_stdio_output::stream_output_adapter<wchar_t> > >::parse_int_from_format_string(int * const)
FUNC 28b48 a3 0 __crt_stdio_output::output_processor<wchar_t,__crt_stdio_output::stream_output_adapter<wchar_t>,__crt_stdio_output::positional_parameter_base<wchar_t,__crt_stdio_output::stream_output_adapter<wchar_t> > >::parse_int_from_format_string(int * const)
FUNC 28c14 a3 0 __crt_stdio_output::output_processor<wchar_t,__crt_stdio_output::stream_output_adapter<wchar_t>,__crt_stdio_output::standard_base<wchar_t,__crt_stdio_output::stream_output_adapter<wchar_t> > >::parse_int_from_format_string(int * const)
FUNC 28ce0 a3 0 __crt_stdio_output::output_processor<wchar_t,__crt_stdio_output::string_output_adapter<wchar_t>,__crt_stdio_output::format_validation_base<wchar_t,__crt_stdio_output::string_output_adapter<wchar_t> > >::parse_int_from_format_string(int * const)
FUNC 28dac a3 0 __crt_stdio_output::output_processor<wchar_t,__crt_stdio_output::string_output_adapter<wchar_t>,__crt_stdio_output::positional_parameter_base<wchar_t,__crt_stdio_output::string_output_adapter<wchar_t> > >::parse_int_from_format_string(int * const)
FUNC 28e78 a3 0 __crt_stdio_output::output_processor<wchar_t,__crt_stdio_output::string_output_adapter<wchar_t>,__crt_stdio_output::standard_base<wchar_t,__crt_stdio_output::string_output_adapter<wchar_t> > >::parse_int_from_format_string(int * const)
FUNC 28f44 227 0 __crt_stdio_output::output_processor<char,__crt_stdio_output::stream_output_adapter<char>,__crt_stdio_output::format_validation_base<char,__crt_stdio_output::stream_output_adapter<char> > >::process()
FUNC 291f4 2a6 0 __crt_stdio_output::output_processor<char,__crt_stdio_output::stream_output_adapter<char>,__crt_stdio_output::positional_parameter_base<char,__crt_stdio_output::stream_output_adapter<char> > >::process()
FUNC 29544 216 0 __crt_stdio_output::output_processor<char,__crt_stdio_output::stream_output_adapter<char>,__crt_stdio_output::standard_base<char,__crt_stdio_output::stream_output_adapter<char> > >::process()
FUNC 297e0 218 0 __crt_stdio_output::output_processor<char,__crt_stdio_output::string_output_adapter<char>,__crt_stdio_output::format_validation_base<char,__crt_stdio_output::string_output_adapter<char> > >::process()
FUNC 29a80 295 0 __crt_stdio_output::output_processor<char,__crt_stdio_output::string_output_adapter<char>,__crt_stdio_output::positional_parameter_base<char,__crt_stdio_output::string_output_adapter<char> > >::process()
FUNC 29dbc 20a 0 __crt_stdio_output::output_processor<char,__crt_stdio_output::string_output_adapter<char>,__crt_stdio_output::standard_base<char,__crt_stdio_output::string_output_adapter<char> > >::process()
FUNC 2a048 277 0 __crt_stdio_output::output_processor<wchar_t,__crt_stdio_output::stream_output_adapter<wchar_t>,__crt_stdio_output::format_validation_base<wchar_t,__crt_stdio_output::stream_output_adapter<wchar_t> > >::process()
FUNC 2a35c 2b2 0 __crt_stdio_output::output_processor<wchar_t,__crt_stdio_output::stream_output_adapter<wchar_t>,__crt_stdio_output::positional_parameter_base<wchar_t,__crt_stdio_output::stream_output_adapter<wchar_t> > >::process()
FUNC 2a6bc 26a 0 __crt_stdio_output::output_processor<wchar_t,__crt_stdio_output::stream_output_adapter<wchar_t>,__crt_stdio_output::standard_base<wchar_t,__crt_stdio_output::stream_output_adapter<wchar_t> > >::process()
FUNC 2a9c0 288 0 __crt_stdio_output::output_processor<wchar_t,__crt_stdio_output::string_output_adapter<wchar_t>,__crt_stdio_output::format_validation_base<wchar_t,__crt_stdio_output::string_output_adapter<wchar_t> > >::process()
FUNC 2acec 2b2 0 __crt_stdio_output::output_processor<wchar_t,__crt_stdio_output::string_output_adapter<wchar_t>,__crt_stdio_output::positional_parameter_base<wchar_t,__crt_stdio_output::string_output_adapter<wchar_t> > >::process()
FUNC 2b04c 27b 0 __crt_stdio_output::output_processor<wchar_t,__crt_stdio_output::string_output_adapter<wchar_t>,__crt_stdio_output::standard_base<wchar_t,__crt_stdio_output::string_output_adapter<wchar_t> > >::process()
FUNC 2b368 4 0 __crt_stdio_stream::public_stream()
FUNC 2b36c 4 0 __crt_stdio_output::output_processor<char,__crt_stdio_output::stream_output_adapter<char>,__crt_stdio_output::format_validation_base<char,__crt_stdio_output::stream_output_adapter<char> > >::set_flag(unsigned int)
FUNC 2b370 4 0 __crt_stdio_output::output_processor<char,__crt_stdio_output::stream_output_adapter<char>,__crt_stdio_output::positional_parameter_base<char,__crt_stdio_output::stream_output_adapter<char> > >::set_flag(unsigned int)
FUNC 2b374 4 0 __crt_stdio_output::output_processor<char,__crt_stdio_output::stream_output_adapter<char>,__crt_stdio_output::standard_base<char,__crt_stdio_output::stream_output_adapter<char> > >::set_flag(unsigned int)
FUNC 2b378 4 0 __crt_stdio_output::output_processor<char,__crt_stdio_output::string_output_adapter<char>,__crt_stdio_output::format_validation_base<char,__crt_stdio_output::string_output_adapter<char> > >::set_flag(unsigned int)
FUNC 2b37c 4 0 __crt_stdio_output::output_processor<char,__crt_stdio_output::string_output_adapter<char>,__crt_stdio_output::positional_parameter_base<char,__crt_stdio_output::string_output_adapter<char> > >::set_flag(unsigned int)
FUNC 2b380 4 0 __crt_stdio_output::output_processor<char,__crt_stdio_output::string_output_adapter<char>,__crt_stdio_output::standard_base<char,__crt_stdio_output::string_output_adapter<char> > >::set_flag(unsigned int)
FUNC 2b384 4 0 __crt_stdio_output::output_processor<wchar_t,__crt_stdio_output::stream_output_adapter<wchar_t>,__crt_stdio_output::format_validation_base<wchar_t,__crt_stdio_output::stream_output_adapter<wchar_t> > >::set_flag(unsigned int)
FUNC 2b388 4 0 __crt_stdio_output::output_processor<wchar_t,__crt_stdio_output::stream_output_adapter<wchar_t>,__crt_stdio_output::positional_parameter_base<wchar_t,__crt_stdio_output::stream_output_adapter<wchar_t> > >::set_flag(unsigned int)
FUNC 2b38c 4 0 __crt_stdio_output::output_processor<wchar_t,__crt_stdio_output::stream_output_adapter<wchar_t>,__crt_stdio_output::standard_base<wchar_t,__crt_stdio_output::stream_output_adapter<wchar_t> > >::set_flag(unsigned int)
FUNC 2b390 4 0 __crt_stdio_output::output_processor<wchar_t,__crt_stdio_output::string_output_adapter<wchar_t>,__crt_stdio_output::format_validation_base<wchar_t,__crt_stdio_output::string_output_adapter<wchar_t> > >::set_flag(unsigned int)
FUNC 2b394 4 0 __crt_stdio_output::output_processor<wchar_t,__crt_stdio_output::string_output_adapter<wchar_t>,__crt_stdio_output::positional_parameter_base<wchar_t,__crt_stdio_output::string_output_adapter<wchar_t> > >::set_flag(unsigned int)
FUNC 2b398 4 0 __crt_stdio_output::output_processor<wchar_t,__crt_stdio_output::string_output_adapter<wchar_t>,__crt_stdio_output::standard_base<wchar_t,__crt_stdio_output::string_output_adapter<wchar_t> > >::set_flag(unsigned int)
FUNC 2b39c 18 0 __crt_stdio_output::positional_parameter_base<char,__crt_stdio_output::stream_output_adapter<char> >::should_format()
FUNC 2b3bc 18 0 __crt_stdio_output::positional_parameter_base<char,__crt_stdio_output::string_output_adapter<char> >::should_format()
FUNC 2b3dc 18 0 __crt_stdio_output::positional_parameter_base<wchar_t,__crt_stdio_output::stream_output_adapter<wchar_t> >::should_format()
FUNC 2b3fc 18 0 __crt_stdio_output::positional_parameter_base<wchar_t,__crt_stdio_output::string_output_adapter<wchar_t> >::should_format()
FUNC 2b41c 3 0 __crt_stdio_output::standard_base<char,__crt_stdio_output::stream_output_adapter<char> >::should_format()
FUNC 2b420 3 0 __crt_stdio_output::standard_base<char,__crt_stdio_output::string_output_adapter<char> >::should_format()
FUNC 2b424 3 0 __crt_stdio_output::standard_base<wchar_t,__crt_stdio_output::stream_output_adapter<wchar_t> >::should_format()
FUNC 2b428 3 0 __crt_stdio_output::standard_base<wchar_t,__crt_stdio_output::string_output_adapter<wchar_t> >::should_format()
FUNC 2b42c 28 0 __crt_stdio_output::positional_parameter_base<char,__crt_stdio_output::stream_output_adapter<char> >::should_skip_normal_state_processing()
FUNC 2b460 28 0 __crt_stdio_output::positional_parameter_base<char,__crt_stdio_output::string_output_adapter<char> >::should_skip_normal_state_processing()
FUNC 2b494 28 0 __crt_stdio_output::positional_parameter_base<wchar_t,__crt_stdio_output::stream_output_adapter<wchar_t> >::should_skip_normal_state_processing()
FUNC 2b4c8 28 0 __crt_stdio_output::positional_parameter_base<wchar_t,__crt_stdio_output::string_output_adapter<wchar_t> >::should_skip_normal_state_processing()
FUNC 2b4fc 3 0 __crt_stdio_output::standard_base<char,__crt_stdio_output::stream_output_adapter<char> >::should_skip_normal_state_processing()
FUNC 2b500 3 0 __crt_stdio_output::standard_base<char,__crt_stdio_output::string_output_adapter<char> >::should_skip_normal_state_processing()
FUNC 2b504 3 0 __crt_stdio_output::standard_base<wchar_t,__crt_stdio_output::stream_output_adapter<wchar_t> >::should_skip_normal_state_processing()
FUNC 2b508 3 0 __crt_stdio_output::standard_base<wchar_t,__crt_stdio_output::string_output_adapter<wchar_t> >::should_skip_normal_state_processing()
FUNC 2b50c 19 0 __crt_stdio_output::positional_parameter_base<char,__crt_stdio_output::stream_output_adapter<char> >::should_skip_type_state_output()
FUNC 2b52c 19 0 __crt_stdio_output::positional_parameter_base<char,__crt_stdio_output::string_output_adapter<char> >::should_skip_type_state_output()
FUNC 2b54c 19 0 __crt_stdio_output::positional_parameter_base<wchar_t,__crt_stdio_output::stream_output_adapter<wchar_t> >::should_skip_type_state_output()
FUNC 2b56c 19 0 __crt_stdio_output::positional_parameter_base<wchar_t,__crt_stdio_output::string_output_adapter<wchar_t> >::should_skip_type_state_output()
FUNC 2b58c 3 0 __crt_stdio_output::standard_base<char,__crt_stdio_output::stream_output_adapter<char> >::should_skip_type_state_output()
FUNC 2b590 3 0 __crt_stdio_output::standard_base<char,__crt_stdio_output::string_output_adapter<char> >::should_skip_type_state_output()
FUNC 2b594 3 0 __crt_stdio_output::standard_base<wchar_t,__crt_stdio_output::stream_output_adapter<wchar_t> >::should_skip_type_state_output()
FUNC 2b598 3 0 __crt_stdio_output::standard_base<wchar_t,__crt_stdio_output::string_output_adapter<wchar_t> >::should_skip_type_state_output()
FUNC 2b59c 7 0 __crt_stdio_output::output_processor<char,__crt_stdio_output::stream_output_adapter<char>,__crt_stdio_output::format_validation_base<char,__crt_stdio_output::stream_output_adapter<char> > >::state_case_dot()
FUNC 2b5a4 7 0 __crt_stdio_output::output_processor<char,__crt_stdio_output::stream_output_adapter<char>,__crt_stdio_output::positional_parameter_base<char,__crt_stdio_output::stream_output_adapter<char> > >::state_case_dot()
FUNC 2b5ac 7 0 __crt_stdio_output::output_processor<char,__crt_stdio_output::stream_output_adapter<char>,__crt_stdio_output::standard_base<char,__crt_stdio_output::stream_output_adapter<char> > >::state_case_dot()
FUNC 2b5b4 7 0 __crt_stdio_output::output_processor<char,__crt_stdio_output::string_output_adapter<char>,__crt_stdio_output::format_validation_base<char,__crt_stdio_output::string_output_adapter<char> > >::state_case_dot()
FUNC 2b5bc 7 0 __crt_stdio_output::output_processor<char,__crt_stdio_output::string_output_adapter<char>,__crt_stdio_output::positional_parameter_base<char,__crt_stdio_output::string_output_adapter<char> > >::state_case_dot()
FUNC 2b5c4 7 0 __crt_stdio_output::output_processor<char,__crt_stdio_output::string_output_adapter<char>,__crt_stdio_output::standard_base<char,__crt_stdio_output::string_output_adapter<char> > >::state_case_dot()
FUNC 2b5cc 7 0 __crt_stdio_output::output_processor<wchar_t,__crt_stdio_output::stream_output_adapter<wchar_t>,__crt_stdio_output::format_validation_base<wchar_t,__crt_stdio_output::stream_output_adapter<wchar_t> > >::state_case_dot()
FUNC 2b5d4 7 0 __crt_stdio_output::output_processor<wchar_t,__crt_stdio_output::stream_output_adapter<wchar_t>,__crt_stdio_output::positional_parameter_base<wchar_t,__crt_stdio_output::stream_output_adapter<wchar_t> > >::state_case_dot()
FUNC 2b5dc 7 0 __crt_stdio_output::output_processor<wchar_t,__crt_stdio_output::stream_output_adapter<wchar_t>,__crt_stdio_output::standard_base<wchar_t,__crt_stdio_output::stream_output_adapter<wchar_t> > >::state_case_dot()
FUNC 2b5e4 7 0 __crt_stdio_output::output_processor<wchar_t,__crt_stdio_output::string_output_adapter<wchar_t>,__crt_stdio_output::format_validation_base<wchar_t,__crt_stdio_output::string_output_adapter<wchar_t> > >::state_case_dot()
FUNC 2b5ec 7 0 __crt_stdio_output::output_processor<wchar_t,__crt_stdio_output::string_output_adapter<wchar_t>,__crt_stdio_output::positional_parameter_base<wchar_t,__crt_stdio_output::string_output_adapter<wchar_t> > >::state_case_dot()
FUNC 2b5f4 7 0 __crt_stdio_output::output_processor<wchar_t,__crt_stdio_output::string_output_adapter<wchar_t>,__crt_stdio_output::standard_base<wchar_t,__crt_stdio_output::string_output_adapter<wchar_t> > >::state_case_dot()
FUNC 2b5fc 36 0 __crt_stdio_output::output_processor<char,__crt_stdio_output::stream_output_adapter<char>,__crt_stdio_output::format_validation_base<char,__crt_stdio_output::stream_output_adapter<char> > >::state_case_flag()
FUNC 2b640 36 0 __crt_stdio_output::output_processor<char,__crt_stdio_output::stream_output_adapter<char>,__crt_stdio_output::positional_parameter_base<char,__crt_stdio_output::stream_output_adapter<char> > >::state_case_flag()
FUNC 2b684 36 0 __crt_stdio_output::output_processor<char,__crt_stdio_output::stream_output_adapter<char>,__crt_stdio_output::standard_base<char,__crt_stdio_output::stream_output_adapter<char> > >::state_case_flag()
FUNC 2b6c8 36 0 __crt_stdio_output::output_processor<char,__crt_stdio_output::string_output_adapter<char>,__crt_stdio_output::format_validation_base<char,__crt_stdio_output::string_output_adapter<char> > >::state_case_flag()
FUNC 2b70c 36 0 __crt_stdio_output::output_processor<char,__crt_stdio_output::string_output_adapter<char>,__crt_stdio_output::positional_parameter_base<char,__crt_stdio_output::string_output_adapter<char> > >::state_case_flag()
FUNC 2b750 36 0 __crt_stdio_output::output_processor<char,__crt_stdio_output::string_output_adapter<char>,__crt_stdio_output::standard_base<char,__crt_stdio_output::string_output_adapter<char> > >::state_case_flag()
FUNC 2b794 44 0 __crt_stdio_output::output_processor<wchar_t,__crt_stdio_output::stream_output_adapter<wchar_t>,__crt_stdio_output::format_validation_base<wchar_t,__crt_stdio_output::stream_output_adapter<wchar_t> > >::state_case_flag()
FUNC 2b7ec 44 0 __crt_stdio_output::output_processor<wchar_t,__crt_stdio_output::stream_output_adapter<wchar_t>,__crt_stdio_output::positional_parameter_base<wchar_t,__crt_stdio_output::stream_output_adapter<wchar_t> > >::state_case_flag()
FUNC 2b844 44 0 __crt_stdio_output::output_processor<wchar_t,__crt_stdio_output::stream_output_adapter<wchar_t>,__crt_stdio_output::standard_base<wchar_t,__crt_stdio_output::stream_output_adapter<wchar_t> > >::state_case_flag()
FUNC 2b89c 44 0 __crt_stdio_output::output_processor<wchar_t,__crt_stdio_output::string_output_adapter<wchar_t>,__crt_stdio_output::format_validation_base<wchar_t,__crt_stdio_output::string_output_adapter<wchar_t> > >::state_case_flag()
FUNC 2b8f4 44 0 __crt_stdio_output::output_processor<wchar_t,__crt_stdio_output::string_output_adapter<wchar_t>,__crt_stdio_output::positional_parameter_base<wchar_t,__crt_stdio_output::string_output_adapter<wchar_t> > >::state_case_flag()
FUNC 2b94c 44 0 __crt_stdio_output::output_processor<wchar_t,__crt_stdio_output::string_output_adapter<wchar_t>,__crt_stdio_output::standard_base<wchar_t,__crt_stdio_output::string_output_adapter<wchar_t> > >::state_case_flag()
FUNC 2b9a4 70 0 __crt_stdio_output::output_processor<char,__crt_stdio_output::stream_output_adapter<char>,__crt_stdio_output::format_validation_base<char,__crt_stdio_output::stream_output_adapter<char> > >::state_case_normal()
FUNC 2ba30 94 0 __crt_stdio_output::output_processor<char,__crt_stdio_output::stream_output_adapter<char>,__crt_stdio_output::positional_parameter_base<char,__crt_stdio_output::stream_output_adapter<char> > >::state_case_normal()
FUNC 2baec 70 0 __crt_stdio_output::output_processor<char,__crt_stdio_output::stream_output_adapter<char>,__crt_stdio_output::standard_base<char,__crt_stdio_output::stream_output_adapter<char> > >::state_case_normal()
FUNC 2bb78 74 0 __crt_stdio_output::output_processor<char,__crt_stdio_output::string_output_adapter<char>,__crt_stdio_output::format_validation_base<char,__crt_stdio_output::string_output_adapter<char> > >::state_case_normal()
FUNC 2bc0c 98 0 __crt_stdio_output::output_processor<char,__crt_stdio_output::string_output_adapter<char>,__crt_stdio_output::positional_parameter_base<char,__crt_stdio_output::string_output_adapter<char> > >::state_case_normal()
FUNC 2bccc 74 0 __crt_stdio_output::output_processor<char,__crt_stdio_output::string_output_adapter<char>,__crt_stdio_output::standard_base<char,__crt_stdio_output::string_output_adapter<char> > >::state_case_normal()
FUNC 2bd60 58 0 __crt_stdio_output::output_processor<wchar_t,__crt_stdio_output::stream_output_adapter<wchar_t>,__crt_stdio_output::format_validation_base<wchar_t,__crt_stdio_output::stream_output_adapter<wchar_t> > >::state_case_normal()
FUNC 2bdd0 7c 0 __crt_stdio_output::output_processor<wchar_t,__crt_stdio_output::stream_output_adapter<wchar_t>,__crt_stdio_output::positional_parameter_base<wchar_t,__crt_stdio_output::stream_output_adapter<wchar_t> > >::state_case_normal()
FUNC 2be6c 58 0 __crt_stdio_output::output_processor<wchar_t,__crt_stdio_output::stream_output_adapter<wchar_t>,__crt_stdio_output::standard_base<wchar_t,__crt_stdio_output::stream_output_adapter<wchar_t> > >::state_case_normal()
FUNC 2bedc 54 0 __crt_stdio_output::output_processor<wchar_t,__crt_stdio_output::string_output_adapter<wchar_t>,__crt_stdio_output::format_validation_base<wchar_t,__crt_stdio_output::string_output_adapter<wchar_t> > >::state_case_normal()
FUNC 2bf48 78 0 __crt_stdio_output::output_processor<wchar_t,__crt_stdio_output::string_output_adapter<wchar_t>,__crt_stdio_output::positional_parameter_base<wchar_t,__crt_stdio_output::string_output_adapter<wchar_t> > >::state_case_normal()
FUNC 2bfe0 54 0 __crt_stdio_output::output_processor<wchar_t,__crt_stdio_output::string_output_adapter<wchar_t>,__crt_stdio_output::standard_base<wchar_t,__crt_stdio_output::string_output_adapter<wchar_t> > >::state_case_normal()
FUNC 2c04c 5c 0 __crt_stdio_output::output_processor<char,__crt_stdio_output::stream_output_adapter<char>,__crt_stdio_output::format_validation_base<char,__crt_stdio_output::stream_output_adapter<char> > >::state_case_normal_common()
FUNC 2c0c0 5c 0 __crt_stdio_output::output_processor<char,__crt_stdio_output::stream_output_adapter<char>,__crt_stdio_output::positional_parameter_base<char,__crt_stdio_output::stream_output_adapter<char> > >::state_case_normal_common()
FUNC 2c134 5c 0 __crt_stdio_output::output_processor<char,__crt_stdio_output::stream_output_adapter<char>,__crt_stdio_output::standard_base<char,__crt_stdio_output::stream_output_adapter<char> > >::state_case_normal_common()
FUNC 2c1a8 60 0 __crt_stdio_output::output_processor<char,__crt_stdio_output::string_output_adapter<char>,__crt_stdio_output::format_validation_base<char,__crt_stdio_output::string_output_adapter<char> > >::state_case_normal_common()
FUNC 2c220 60 0 __crt_stdio_output::output_processor<char,__crt_stdio_output::string_output_adapter<char>,__crt_stdio_output::positional_parameter_base<char,__crt_stdio_output::string_output_adapter<char> > >::state_case_normal_common()
FUNC 2c298 60 0 __crt_stdio_output::output_processor<char,__crt_stdio_output::string_output_adapter<char>,__crt_stdio_output::standard_base<char,__crt_stdio_output::string_output_adapter<char> > >::state_case_normal_common()
FUNC 2c310 58 0 __crt_stdio_output::output_processor<wchar_t,__crt_stdio_output::stream_output_adapter<wchar_t>,__crt_stdio_output::format_validation_base<wchar_t,__crt_stdio_output::stream_output_adapter<wchar_t> > >::state_case_normal_common()
FUNC 2c380 58 0 __crt_stdio_output::output_processor<wchar_t,__crt_stdio_output::stream_output_adapter<wchar_t>,__crt_stdio_output::positional_parameter_base<wchar_t,__crt_stdio_output::stream_output_adapter<wchar_t> > >::state_case_normal_common()
FUNC 2c3f0 58 0 __crt_stdio_output::output_processor<wchar_t,__crt_stdio_output::stream_output_adapter<wchar_t>,__crt_stdio_output::standard_base<wchar_t,__crt_stdio_output::stream_output_adapter<wchar_t> > >::state_case_normal_common()
FUNC 2c460 54 0 __crt_stdio_output::output_processor<wchar_t,__crt_stdio_output::string_output_adapter<wchar_t>,__crt_stdio_output::format_validation_base<wchar_t,__crt_stdio_output::string_output_adapter<wchar_t> > >::state_case_normal_common()
FUNC 2c4cc 54 0 __crt_stdio_output::output_processor<wchar_t,__crt_stdio_output::string_output_adapter<wchar_t>,__crt_stdio_output::positional_parameter_base<wchar_t,__crt_stdio_output::string_output_adapter<wchar_t> > >::state_case_normal_common()
FUNC 2c538 54 0 __crt_stdio_output::output_processor<wchar_t,__crt_stdio_output::string_output_adapter<wchar_t>,__crt_stdio_output::standard_base<wchar_t,__crt_stdio_output::string_output_adapter<wchar_t> > >::state_case_normal_common()
FUNC 2c5a4 a2 0 __crt_stdio_output::output_processor<char,__crt_stdio_output::stream_output_adapter<char>,__crt_stdio_output::format_validation_base<char,__crt_stdio_output::stream_output_adapter<char> > >::state_case_normal_tchar(char)
FUNC 2c670 a2 0 __crt_stdio_output::output_processor<char,__crt_stdio_output::stream_output_adapter<char>,__crt_stdio_output::positional_parameter_base<char,__crt_stdio_output::stream_output_adapter<char> > >::state_case_normal_tchar(char)
FUNC 2c73c a2 0 __crt_stdio_output::output_processor<char,__crt_stdio_output::stream_output_adapter<char>,__crt_stdio_output::standard_base<char,__crt_stdio_output::stream_output_adapter<char> > >::state_case_normal_tchar(char)
FUNC 2c808 a8 0 __crt_stdio_output::output_processor<char,__crt_stdio_output::string_output_adapter<char>,__crt_stdio_output::format_validation_base<char,__crt_stdio_output::string_output_adapter<char> > >::state_case_normal_tchar(char)
FUNC 2c8dc a8 0 __crt_stdio_output::output_processor<char,__crt_stdio_output::string_output_adapter<char>,__crt_stdio_output::positional_parameter_base<char,__crt_stdio_output::string_output_adapter<char> > >::state_case_normal_tchar(char)
FUNC 2c9b0 a8 0 __crt_stdio_output::output_processor<char,__crt_stdio_output::string_output_adapter<char>,__crt_stdio_output::standard_base<char,__crt_stdio_output::string_output_adapter<char> > >::state_case_normal_tchar(char)
FUNC 2ca84 7 0 __crt_stdio_output::output_processor<wchar_t,__crt_stdio_output::stream_output_adapter<wchar_t>,__crt_stdio_output::format_validation_base<wchar_t,__crt_stdio_output::stream_output_adapter<wchar_t> > >::state_case_normal_tchar(wchar_t)
FUNC 2ca8c 7 0 __crt_stdio_output::output_processor<wchar_t,__crt_stdio_output::stream_output_adapter<wchar_t>,__crt_stdio_output::positional_parameter_base<wchar_t,__crt_stdio_output::stream_output_adapter<wchar_t> > >::state_case_normal_tchar(wchar_t)
FUNC 2ca94 7 0 __crt_stdio_output::output_processor<wchar_t,__crt_stdio_output::stream_output_adapter<wchar_t>,__crt_stdio_output::standard_base<wchar_t,__crt_stdio_output::stream_output_adapter<wchar_t> > >::state_case_normal_tchar(wchar_t)
FUNC 2ca9c 7 0 __crt_stdio_output::output_processor<wchar_t,__crt_stdio_output::string_output_adapter<wchar_t>,__crt_stdio_output::format_validation_base<wchar_t,__crt_stdio_output::string_output_adapter<wchar_t> > >::state_case_normal_tchar(wchar_t)
FUNC 2caa4 7 0 __crt_stdio_output::output_processor<wchar_t,__crt_stdio_output::string_output_adapter<wchar_t>,__crt_stdio_output::positional_parameter_base<wchar_t,__crt_stdio_output::string_output_adapter<wchar_t> > >::state_case_normal_tchar(wchar_t)
FUNC 2caac 7 0 __crt_stdio_output::output_processor<wchar_t,__crt_stdio_output::string_output_adapter<wchar_t>,__crt_stdio_output::standard_base<wchar_t,__crt_stdio_output::string_output_adapter<wchar_t> > >::state_case_normal_tchar(wchar_t)
FUNC 2cab4 16 0 __crt_stdio_output::output_processor<char,__crt_stdio_output::stream_output_adapter<char>,__crt_stdio_output::format_validation_base<char,__crt_stdio_output::stream_output_adapter<char> > >::state_case_percent()
FUNC 2cad0 16 0 __crt_stdio_output::output_processor<char,__crt_stdio_output::stream_output_adapter<char>,__crt_stdio_output::positional_parameter_base<char,__crt_stdio_output::stream_output_adapter<char> > >::state_case_percent()
FUNC 2caec 16 0 __crt_stdio_output::output_processor<char,__crt_stdio_output::stream_output_adapter<char>,__crt_stdio_output::standard_base<char,__crt_stdio_output::stream_output_adapter<char> > >::state_case_percent()
FUNC 2cb08 16 0 __crt_stdio_output::output_processor<char,__crt_stdio_output::string_output_adapter<char>,__crt_stdio_output::format_validation_base<char,__crt_stdio_output::string_output_adapter<char> > >::state_case_percent()
FUNC 2cb24 16 0 __crt_stdio_output::output_processor<char,__crt_stdio_output::string_output_adapter<char>,__crt_stdio_output::positional_parameter_base<char,__crt_stdio_output::string_output_adapter<char> > >::state_case_percent()
FUNC 2cb40 16 0 __crt_stdio_output::output_processor<char,__crt_stdio_output::string_output_adapter<char>,__crt_stdio_output::standard_base<char,__crt_stdio_output::string_output_adapter<char> > >::state_case_percent()
FUNC 2cb5c 16 0 __crt_stdio_output::output_processor<wchar_t,__crt_stdio_output::stream_output_adapter<wchar_t>,__crt_stdio_output::format_validation_base<wchar_t,__crt_stdio_output::stream_output_adapter<wchar_t> > >::state_case_percent()
FUNC 2cb78 16 0 __crt_stdio_output::output_processor<wchar_t,__crt_stdio_output::stream_output_adapter<wchar_t>,__crt_stdio_output::positional_parameter_base<wchar_t,__crt_stdio_output::stream_output_adapter<wchar_t> > >::state_case_percent()
FUNC 2cb94 16 0 __crt_stdio_output::output_processor<wchar_t,__crt_stdio_output::stream_output_adapter<wchar_t>,__crt_stdio_output::standard_base<wchar_t,__crt_stdio_output::stream_output_adapter<wchar_t> > >::state_case_percent()
FUNC 2cbb0 16 0 __crt_stdio_output::output_processor<wchar_t,__crt_stdio_output::string_output_adapter<wchar_t>,__crt_stdio_output::format_validation_base<wchar_t,__crt_stdio_output::string_output_adapter<wchar_t> > >::state_case_percent()
FUNC 2cbcc 16 0 __crt_stdio_output::output_processor<wchar_t,__crt_stdio_output::string_output_adapter<wchar_t>,__crt_stdio_output::positional_parameter_base<wchar_t,__crt_stdio_output::string_output_adapter<wchar_t> > >::state_case_percent()
FUNC 2cbe8 16 0 __crt_stdio_output::output_processor<wchar_t,__crt_stdio_output::string_output_adapter<wchar_t>,__crt_stdio_output::standard_base<wchar_t,__crt_stdio_output::string_output_adapter<wchar_t> > >::state_case_percent()
FUNC 2cc04 27 0 __crt_stdio_output::output_processor<char,__crt_stdio_output::stream_output_adapter<char>,__crt_stdio_output::format_validation_base<char,__crt_stdio_output::stream_output_adapter<char> > >::state_case_precision()
FUNC 2cc34 4a 0 __crt_stdio_output::output_processor<char,__crt_stdio_output::stream_output_adapter<char>,__crt_stdio_output::positional_parameter_base<char,__crt_stdio_output::stream_output_adapter<char> > >::state_case_precision()
FUNC 2cc90 27 0 __crt_stdio_output::output_processor<char,__crt_stdio_output::stream_output_adapter<char>,__crt_stdio_output::standard_base<char,__crt_stdio_output::stream_output_adapter<char> > >::state_case_precision()
FUNC 2ccc0 27 0 __crt_stdio_output::output_processor<char,__crt_stdio_output::string_output_adapter<char>,__crt_stdio_output::format_validation_base<char,__crt_stdio_output::string_output_adapter<char> > >::state_case_precision()
FUNC 2ccf0 4a 0 __crt_stdio_output::output_processor<char,__crt_stdio_output::string_output_adapter<char>,__crt_stdio_output::positional_parameter_base<char,__crt_stdio_output::string_output_adapter<char> > >::state_case_precision()
FUNC 2cd4c 27 0 __crt_stdio_output::output_processor<char,__crt_stdio_output::string_output_adapter<char>,__crt_stdio_output::standard_base<char,__crt_stdio_output::string_output_adapter<char> > >::state_case_precision()
FUNC 2cd7c 28 0 __crt_stdio_output::output_processor<wchar_t,__crt_stdio_output::stream_output_adapter<wchar_t>,__crt_stdio_output::format_validation_base<wchar_t,__crt_stdio_output::stream_output_adapter<wchar_t> > >::state_case_precision()
FUNC 2cdb0 4b 0 __crt_stdio_output::output_processor<wchar_t,__crt_stdio_output::stream_output_adapter<wchar_t>,__crt_stdio_output::positional_parameter_base<wchar_t,__crt_stdio_output::stream_output_adapter<wchar_t> > >::state_case_precision()
FUNC 2ce10 28 0 __crt_stdio_output::output_processor<wchar_t,__crt_stdio_output::stream_output_adapter<wchar_t>,__crt_stdio_output::standard_base<wchar_t,__crt_stdio_output::stream_output_adapter<wchar_t> > >::state_case_precision()
FUNC 2ce44 28 0 __crt_stdio_output::output_processor<wchar_t,__crt_stdio_output::string_output_adapter<wchar_t>,__crt_stdio_output::format_validation_base<wchar_t,__crt_stdio_output::string_output_adapter<wchar_t> > >::state_case_precision()
FUNC 2ce78 4b 0 __crt_stdio_output::output_processor<wchar_t,__crt_stdio_output::string_output_adapter<wchar_t>,__crt_stdio_output::positional_parameter_base<wchar_t,__crt_stdio_output::string_output_adapter<wchar_t> > >::state_case_precision()
FUNC 2ced8 28 0 __crt_stdio_output::output_processor<wchar_t,__crt_stdio_output::string_output_adapter<wchar_t>,__crt_stdio_output::standard_base<wchar_t,__crt_stdio_output::string_output_adapter<wchar_t> > >::state_case_precision()
FUNC 2cf0c 171 0 __crt_stdio_output::output_processor<char,__crt_stdio_output::stream_output_adapter<char>,__crt_stdio_output::format_validation_base<char,__crt_stdio_output::stream_output_adapter<char> > >::state_case_size()
FUNC 2d0dc 171 0 __crt_stdio_output::output_processor<char,__crt_stdio_output::stream_output_adapter<char>,__crt_stdio_output::positional_parameter_base<char,__crt_stdio_output::stream_output_adapter<char> > >::state_case_size()
FUNC 2d2ac 171 0 __crt_stdio_output::output_processor<char,__crt_stdio_output::stream_output_adapter<char>,__crt_stdio_output::standard_base<char,__crt_stdio_output::stream_output_adapter<char> > >::state_case_size()
FUNC 2d47c 171 0 __crt_stdio_output::output_processor<char,__crt_stdio_output::string_output_adapter<char>,__crt_stdio_output::format_validation_base<char,__crt_stdio_output::string_output_adapter<char> > >::state_case_size()
FUNC 2d64c 171 0 __crt_stdio_output::output_processor<char,__crt_stdio_output::string_output_adapter<char>,__crt_stdio_output::positional_parameter_base<char,__crt_stdio_output::string_output_adapter<char> > >::state_case_size()
FUNC 2d81c 171 0 __crt_stdio_output::output_processor<char,__crt_stdio_output::string_output_adapter<char>,__crt_stdio_output::standard_base<char,__crt_stdio_output::string_output_adapter<char> > >::state_case_size()
FUNC 2d9ec 196 0 __crt_stdio_output::output_processor<wchar_t,__crt_stdio_output::stream_output_adapter<wchar_t>,__crt_stdio_output::format_validation_base<wchar_t,__crt_stdio_output::stream_output_adapter<wchar_t> > >::state_case_size()
FUNC 2dbe8 196 0 __crt_stdio_output::output_processor<wchar_t,__crt_stdio_output::stream_output_adapter<wchar_t>,__crt_stdio_output::positional_parameter_base<wchar_t,__crt_stdio_output::stream_output_adapter<wchar_t> > >::state_case_size()
FUNC 2dde4 196 0 __crt_stdio_output::output_processor<wchar_t,__crt_stdio_output::stream_output_adapter<wchar_t>,__crt_stdio_output::standard_base<wchar_t,__crt_stdio_output::stream_output_adapter<wchar_t> > >::state_case_size()
FUNC 2dfe0 196 0 __crt_stdio_output::output_processor<wchar_t,__crt_stdio_output::string_output_adapter<wchar_t>,__crt_stdio_output::format_validation_base<wchar_t,__crt_stdio_output::string_output_adapter<wchar_t> > >::state_case_size()
FUNC 2e1dc 196 0 __crt_stdio_output::output_processor<wchar_t,__crt_stdio_output::string_output_adapter<wchar_t>,__crt_stdio_output::positional_parameter_base<wchar_t,__crt_stdio_output::string_output_adapter<wchar_t> > >::state_case_size()
FUNC 2e3d8 196 0 __crt_stdio_output::output_processor<wchar_t,__crt_stdio_output::string_output_adapter<wchar_t>,__crt_stdio_output::standard_base<wchar_t,__crt_stdio_output::string_output_adapter<wchar_t> > >::state_case_size()
FUNC 2e5d4 284 0 __crt_stdio_output::output_processor<char,__crt_stdio_output::stream_output_adapter<char>,__crt_stdio_output::format_validation_base<char,__crt_stdio_output::stream_output_adapter<char> > >::state_case_type()
FUNC 2e8fc 29a 0 __crt_stdio_output::output_processor<char,__crt_stdio_output::stream_output_adapter<char>,__crt_stdio_output::positional_parameter_base<char,__crt_stdio_output::stream_output_adapter<char> > >::state_case_type()
FUNC 2ec3c 284 0 __crt_stdio_output::output_processor<char,__crt_stdio_output::stream_output_adapter<char>,__crt_stdio_output::standard_base<char,__crt_stdio_output::stream_output_adapter<char> > >::state_case_type()
FUNC 2ef64 266 0 __crt_stdio_output::output_processor<char,__crt_stdio_output::string_output_adapter<char>,__crt_stdio_output::format_validation_base<char,__crt_stdio_output::string_output_adapter<char> > >::state_case_type()
FUNC 2f264 27c 0 __crt_stdio_output::output_processor<char,__crt_stdio_output::string_output_adapter<char>,__crt_stdio_output::positional_parameter_base<char,__crt_stdio_output::string_output_adapter<char> > >::state_case_type()
FUNC 2f580 266 0 __crt_stdio_output::output_processor<char,__crt_stdio_output::string_output_adapter<char>,__crt_stdio_output::standard_base<char,__crt_stdio_output::string_output_adapter<char> > >::state_case_type()
FUNC 2f880 2dd 0 __crt_stdio_output::output_processor<wchar_t,__crt_stdio_output::stream_output_adapter<wchar_t>,__crt_stdio_output::format_validation_base<wchar_t,__crt_stdio_output::stream_output_adapter<wchar_t> > >::state_case_type()
FUNC 2fc14 2f3 0 __crt_stdio_output::output_processor<wchar_t,__crt_stdio_output::stream_output_adapter<wchar_t>,__crt_stdio_output::positional_parameter_base<wchar_t,__crt_stdio_output::stream_output_adapter<wchar_t> > >::state_case_type()
FUNC 2ffc4 2dd 0 __crt_stdio_output::output_processor<wchar_t,__crt_stdio_output::stream_output_adapter<wchar_t>,__crt_stdio_output::standard_base<wchar_t,__crt_stdio_output::stream_output_adapter<wchar_t> > >::state_case_type()
FUNC 30358 2ca 0 __crt_stdio_output::output_processor<wchar_t,__crt_stdio_output::string_output_adapter<wchar_t>,__crt_stdio_output::format_validation_base<wchar_t,__crt_stdio_output::string_output_adapter<wchar_t> > >::state_case_type()
FUNC 306d4 2e0 0 __crt_stdio_output::output_processor<wchar_t,__crt_stdio_output::string_output_adapter<wchar_t>,__crt_stdio_output::positional_parameter_base<wchar_t,__crt_stdio_output::string_output_adapter<wchar_t> > >::state_case_type()
FUNC 30a6c 2ca 0 __crt_stdio_output::output_processor<wchar_t,__crt_stdio_output::string_output_adapter<wchar_t>,__crt_stdio_output::standard_base<wchar_t,__crt_stdio_output::string_output_adapter<wchar_t> > >::state_case_type()
FUNC 30de8 31 0 __crt_stdio_output::output_processor<char,__crt_stdio_output::stream_output_adapter<char>,__crt_stdio_output::format_validation_base<char,__crt_stdio_output::stream_output_adapter<char> > >::state_case_width()
FUNC 30e28 50 0 __crt_stdio_output::output_processor<char,__crt_stdio_output::stream_output_adapter<char>,__crt_stdio_output::positional_parameter_base<char,__crt_stdio_output::stream_output_adapter<char> > >::state_case_width()
FUNC 30e8c 31 0 __crt_stdio_output::output_processor<char,__crt_stdio_output::stream_output_adapter<char>,__crt_stdio_output::standard_base<char,__crt_stdio_output::stream_output_adapter<char> > >::state_case_width()
FUNC 30ecc 31 0 __crt_stdio_output::output_processor<char,__crt_stdio_output::string_output_adapter<char>,__crt_stdio_output::format_validation_base<char,__crt_stdio_output::string_output_adapter<char> > >::state_case_width()
FUNC 30f0c 50 0 __crt_stdio_output::output_processor<char,__crt_stdio_output::string_output_adapter<char>,__crt_stdio_output::positional_parameter_base<char,__crt_stdio_output::string_output_adapter<char> > >::state_case_width()
FUNC 30f70 31 0 __crt_stdio_output::output_processor<char,__crt_stdio_output::string_output_adapter<char>,__crt_stdio_output::standard_base<char,__crt_stdio_output::string_output_adapter<char> > >::state_case_width()
FUNC 30fb0 32 0 __crt_stdio_output::output_processor<wchar_t,__crt_stdio_output::stream_output_adapter<wchar_t>,__crt_stdio_output::format_validation_base<wchar_t,__crt_stdio_output::stream_output_adapter<wchar_t> > >::state_case_width()
FUNC 30ff0 51 0 __crt_stdio_output::output_processor<wchar_t,__crt_stdio_output::stream_output_adapter<wchar_t>,__crt_stdio_output::positional_parameter_base<wchar_t,__crt_stdio_output::stream_output_adapter<wchar_t> > >::state_case_width()
FUNC 31058 32 0 __crt_stdio_output::output_processor<wchar_t,__crt_stdio_output::stream_output_adapter<wchar_t>,__crt_stdio_output::standard_base<wchar_t,__crt_stdio_output::stream_output_adapter<wchar_t> > >::state_case_width()
FUNC 31098 32 0 __crt_stdio_output::output_processor<wchar_t,__crt_stdio_output::string_output_adapter<wchar_t>,__crt_stdio_output::format_validation_base<wchar_t,__crt_stdio_output::string_output_adapter<wchar_t> > >::state_case_width()
FUNC 310d8 51 0 __crt_stdio_output::output_processor<wchar_t,__crt_stdio_output::string_output_adapter<wchar_t>,__crt_stdio_output::positional_parameter_base<wchar_t,__crt_stdio_output::string_output_adapter<wchar_t> > >::state_case_width()
FUNC 31140 32 0 __crt_stdio_output::output_processor<wchar_t,__crt_stdio_output::string_output_adapter<wchar_t>,__crt_stdio_output::standard_base<wchar_t,__crt_stdio_output::string_output_adapter<wchar_t> > >::state_case_width()
FUNC 31180 6 0 __crt_stdio_output::format_validation_base<char,__crt_stdio_output::stream_output_adapter<char> >::state_count()
FUNC 31188 6 0 __crt_stdio_output::format_validation_base<char,__crt_stdio_output::string_output_adapter<char> >::state_count()
FUNC 31190 6 0 __crt_stdio_output::format_validation_base<wchar_t,__crt_stdio_output::stream_output_adapter<wchar_t> >::state_count()
FUNC 31198 6 0 __crt_stdio_output::format_validation_base<wchar_t,__crt_stdio_output::string_output_adapter<wchar_t> >::state_count()
FUNC 311a0 6 0 __crt_stdio_output::standard_base<char,__crt_stdio_output::stream_output_adapter<char> >::state_count()
FUNC 311a8 6 0 __crt_stdio_output::standard_base<char,__crt_stdio_output::string_output_adapter<char> >::state_count()
FUNC 311b0 6 0 __crt_stdio_output::standard_base<wchar_t,__crt_stdio_output::stream_output_adapter<wchar_t> >::state_count()
FUNC 311b8 6 0 __crt_stdio_output::standard_base<wchar_t,__crt_stdio_output::string_output_adapter<wchar_t> >::state_count()
FUNC 311c0 8 0 __crt_stdio_output::format_validation_base<char,__crt_stdio_output::stream_output_adapter<char> >::state_transition_table()
FUNC 311cc 8 0 __crt_stdio_output::format_validation_base<char,__crt_stdio_output::string_output_adapter<char> >::state_transition_table()
FUNC 311d8 8 0 __crt_stdio_output::format_validation_base<wchar_t,__crt_stdio_output::stream_output_adapter<wchar_t> >::state_transition_table()
FUNC 311e4 8 0 __crt_stdio_output::format_validation_base<wchar_t,__crt_stdio_output::string_output_adapter<wchar_t> >::state_transition_table()
FUNC 311f0 8 0 __crt_stdio_output::standard_base<char,__crt_stdio_output::stream_output_adapter<char> >::state_transition_table()
FUNC 311fc 8 0 __crt_stdio_output::standard_base<char,__crt_stdio_output::string_output_adapter<char> >::state_transition_table()
FUNC 31208 8 0 __crt_stdio_output::standard_base<wchar_t,__crt_stdio_output::stream_output_adapter<wchar_t> >::state_transition_table()
FUNC 31214 8 0 __crt_stdio_output::standard_base<wchar_t,__crt_stdio_output::string_output_adapter<wchar_t> >::state_transition_table()
FUNC 31220 5 0 __crt_stdio_output::common_data<char>::tchar_string(char)
FUNC 31228 5 0 __crt_stdio_output::common_data<char>::tchar_string()
FUNC 31230 5 0 __crt_stdio_output::common_data<wchar_t>::tchar_string()
FUNC 31238 5 0 __crt_stdio_output::common_data<wchar_t>::tchar_string(wchar_t)
FUNC 31240 47 0 __crt_stdio_output::to_integer_size(__crt_stdio_output::length_modifier)
FUNC 31298 d 0 __crt_stdio_output::output_processor<char,__crt_stdio_output::stream_output_adapter<char>,__crt_stdio_output::format_validation_base<char,__crt_stdio_output::stream_output_adapter<char> > >::type_case_X()
FUNC 312a8 d 0 __crt_stdio_output::output_processor<char,__crt_stdio_output::stream_output_adapter<char>,__crt_stdio_output::positional_parameter_base<char,__crt_stdio_output::stream_output_adapter<char> > >::type_case_X()
FUNC 312b8 d 0 __crt_stdio_output::output_processor<char,__crt_stdio_output::stream_output_adapter<char>,__crt_stdio_output::standard_base<char,__crt_stdio_output::stream_output_adapter<char> > >::type_case_X()
FUNC 312c8 d 0 __crt_stdio_output::output_processor<char,__crt_stdio_output::string_output_adapter<char>,__crt_stdio_output::format_validation_base<char,__crt_stdio_output::string_output_adapter<char> > >::type_case_X()
FUNC 312d8 d 0 __crt_stdio_output::output_processor<char,__crt_stdio_output::string_output_adapter<char>,__crt_stdio_output::positional_parameter_base<char,__crt_stdio_output::string_output_adapter<char> > >::type_case_X()
FUNC 312e8 d 0 __crt_stdio_output::output_processor<char,__crt_stdio_output::string_output_adapter<char>,__crt_stdio_output::standard_base<char,__crt_stdio_output::string_output_adapter<char> > >::type_case_X()
FUNC 312f8 d 0 __crt_stdio_output::output_processor<wchar_t,__crt_stdio_output::stream_output_adapter<wchar_t>,__crt_stdio_output::format_validation_base<wchar_t,__crt_stdio_output::stream_output_adapter<wchar_t> > >::type_case_X()
FUNC 31308 d 0 __crt_stdio_output::output_processor<wchar_t,__crt_stdio_output::stream_output_adapter<wchar_t>,__crt_stdio_output::positional_parameter_base<wchar_t,__crt_stdio_output::stream_output_adapter<wchar_t> > >::type_case_X()
FUNC 31318 d 0 __crt_stdio_output::output_processor<wchar_t,__crt_stdio_output::stream_output_adapter<wchar_t>,__crt_stdio_output::standard_base<wchar_t,__crt_stdio_output::stream_output_adapter<wchar_t> > >::type_case_X()
FUNC 31328 d 0 __crt_stdio_output::output_processor<wchar_t,__crt_stdio_output::string_output_adapter<wchar_t>,__crt_stdio_output::format_validation_base<wchar_t,__crt_stdio_output::string_output_adapter<wchar_t> > >::type_case_X()
FUNC 31338 d 0 __crt_stdio_output::output_processor<wchar_t,__crt_stdio_output::string_output_adapter<wchar_t>,__crt_stdio_output::positional_parameter_base<wchar_t,__crt_stdio_output::string_output_adapter<wchar_t> > >::type_case_X()
FUNC 31348 d 0 __crt_stdio_output::output_processor<wchar_t,__crt_stdio_output::string_output_adapter<wchar_t>,__crt_stdio_output::standard_base<wchar_t,__crt_stdio_output::string_output_adapter<wchar_t> > >::type_case_X()
FUNC 31358 73 0 __crt_stdio_output::output_processor<char,__crt_stdio_output::stream_output_adapter<char>,__crt_stdio_output::format_validation_base<char,__crt_stdio_output::stream_output_adapter<char> > >::type_case_Z()
FUNC 313e8 158 0 __crt_stdio_output::output_processor<char,__crt_stdio_output::stream_output_adapter<char>,__crt_stdio_output::positional_parameter_base<char,__crt_stdio_output::stream_output_adapter<char> > >::type_case_Z()
FUNC 31598 73 0 __crt_stdio_output::output_processor<char,__crt_stdio_output::stream_output_adapter<char>,__crt_stdio_output::standard_base<char,__crt_stdio_output::stream_output_adapter<char> > >::type_case_Z()
FUNC 31628 73 0 __crt_stdio_output::output_processor<char,__crt_stdio_output::string_output_adapter<char>,__crt_stdio_output::format_validation_base<char,__crt_stdio_output::string_output_adapter<char> > >::type_case_Z()
FUNC 316b8 158 0 __crt_stdio_output::output_processor<char,__crt_stdio_output::string_output_adapter<char>,__crt_stdio_output::positional_parameter_base<char,__crt_stdio_output::string_output_adapter<char> > >::type_case_Z()
FUNC 31868 73 0 __crt_stdio_output::output_processor<char,__crt_stdio_output::string_output_adapter<char>,__crt_stdio_output::standard_base<char,__crt_stdio_output::string_output_adapter<char> > >::type_case_Z()
FUNC 318f8 79 0 __crt_stdio_output::output_processor<wchar_t,__crt_stdio_output::stream_output_adapter<wchar_t>,__crt_stdio_output::format_validation_base<wchar_t,__crt_stdio_output::stream_output_adapter<wchar_t> > >::type_case_Z()
FUNC 31990 13e 0 __crt_stdio_output::output_processor<wchar_t,__crt_stdio_output::stream_output_adapter<wchar_t>,__crt_stdio_output::positional_parameter_base<wchar_t,__crt_stdio_output::stream_output_adapter<wchar_t> > >::type_case_Z()
FUNC 31b20 79 0 __crt_stdio_output::output_processor<wchar_t,__crt_stdio_output::stream_output_adapter<wchar_t>,__crt_stdio_output::standard_base<wchar_t,__crt_stdio_output::stream_output_adapter<wchar_t> > >::type_case_Z()
FUNC 31bb8 79 0 __crt_stdio_output::output_processor<wchar_t,__crt_stdio_output::string_output_adapter<wchar_t>,__crt_stdio_output::format_validation_base<wchar_t,__crt_stdio_output::string_output_adapter<wchar_t> > >::type_case_Z()
FUNC 31c50 13e 0 __crt_stdio_output::output_processor<wchar_t,__crt_stdio_output::string_output_adapter<wchar_t>,__crt_stdio_output::positional_parameter_base<wchar_t,__crt_stdio_output::string_output_adapter<wchar_t> > >::type_case_Z()
FUNC 31de0 79 0 __crt_stdio_output::output_processor<wchar_t,__crt_stdio_output::string_output_adapter<wchar_t>,__crt_stdio_output::standard_base<wchar_t,__crt_stdio_output::string_output_adapter<wchar_t> > >::type_case_Z()
FUNC 31e78 215 0 __crt_stdio_output::output_processor<char,__crt_stdio_output::stream_output_adapter<char>,__crt_stdio_output::format_validation_base<char,__crt_stdio_output::stream_output_adapter<char> > >::type_case_a()
FUNC 32114 252 0 __crt_stdio_output::output_processor<char,__crt_stdio_output::stream_output_adapter<char>,__crt_stdio_output::positional_parameter_base<char,__crt_stdio_output::stream_output_adapter<char> > >::type_case_a()
FUNC 323fc 215 0 __crt_stdio_output::output_processor<char,__crt_stdio_output::stream_output_adapter<char>,__crt_stdio_output::standard_base<char,__crt_stdio_output::stream_output_adapter<char> > >::type_case_a()
FUNC 32698 215 0 __crt_stdio_output::output_processor<char,__crt_stdio_output::string_output_adapter<char>,__crt_stdio_output::format_validation_base<char,__crt_stdio_output::string_output_adapter<char> > >::type_case_a()
FUNC 32934 252 0 __crt_stdio_output::output_processor<char,__crt_stdio_output::string_output_adapter<char>,__crt_stdio_output::positional_parameter_base<char,__crt_stdio_output::string_output_adapter<char> > >::type_case_a()
FUNC 32c1c 215 0 __crt_stdio_output::output_processor<char,__crt_stdio_output::string_output_adapter<char>,__crt_stdio_output::standard_base<char,__crt_stdio_output::string_output_adapter<char> > >::type_case_a()
FUNC 32eb8 239 0 __crt_stdio_output::output_processor<wchar_t,__crt_stdio_output::stream_output_adapter<wchar_t>,__crt_stdio_output::format_validation_base<wchar_t,__crt_stdio_output::stream_output_adapter<wchar_t> > >::type_case_a()
FUNC 33180 276 0 __crt_stdio_output::output_processor<wchar_t,__crt_stdio_output::stream_output_adapter<wchar_t>,__crt_stdio_output::positional_parameter_base<wchar_t,__crt_stdio_output::stream_output_adapter<wchar_t> > >::type_case_a()
FUNC 33494 239 0 __crt_stdio_output::output_processor<wchar_t,__crt_stdio_output::stream_output_adapter<wchar_t>,__crt_stdio_output::standard_base<wchar_t,__crt_stdio_output::stream_output_adapter<wchar_t> > >::type_case_a()
FUNC 3375c 239 0 __crt_stdio_output::output_processor<wchar_t,__crt_stdio_output::string_output_adapter<wchar_t>,__crt_stdio_output::format_validation_base<wchar_t,__crt_stdio_output::string_output_adapter<wchar_t> > >::type_case_a()
FUNC 33a24 276 0 __crt_stdio_output::output_processor<wchar_t,__crt_stdio_output::string_output_adapter<wchar_t>,__crt_stdio_output::positional_parameter_base<wchar_t,__crt_stdio_output::string_output_adapter<wchar_t> > >::type_case_a()
FUNC 33d38 239 0 __crt_stdio_output::output_processor<wchar_t,__crt_stdio_output::string_output_adapter<wchar_t>,__crt_stdio_output::standard_base<wchar_t,__crt_stdio_output::string_output_adapter<wchar_t> > >::type_case_a()
FUNC 34000 7 0 __crt_stdio_output::output_processor<char,__crt_stdio_output::stream_output_adapter<char>,__crt_stdio_output::format_validation_base<char,__crt_stdio_output::stream_output_adapter<char> > >::type_case_c()
FUNC 34008 7 0 __crt_stdio_output::output_processor<char,__crt_stdio_output::stream_output_adapter<char>,__crt_stdio_output::positional_parameter_base<char,__crt_stdio_output::stream_output_adapter<char> > >::type_case_c()
FUNC 34010 7 0 __crt_stdio_output::output_processor<char,__crt_stdio_output::stream_output_adapter<char>,__crt_stdio_output::standard_base<char,__crt_stdio_output::stream_output_adapter<char> > >::type_case_c()
FUNC 34018 7 0 __crt_stdio_output::output_processor<char,__crt_stdio_output::string_output_adapter<char>,__crt_stdio_output::format_validation_base<char,__crt_stdio_output::string_output_adapter<char> > >::type_case_c()
FUNC 34020 7 0 __crt_stdio_output::output_processor<char,__crt_stdio_output::string_output_adapter<char>,__crt_stdio_output::positional_parameter_base<char,__crt_stdio_output::string_output_adapter<char> > >::type_case_c()
FUNC 34028 7 0 __crt_stdio_output::output_processor<char,__crt_stdio_output::string_output_adapter<char>,__crt_stdio_output::standard_base<char,__crt_stdio_output::string_output_adapter<char> > >::type_case_c()
FUNC 34030 7 0 __crt_stdio_output::output_processor<wchar_t,__crt_stdio_output::stream_output_adapter<wchar_t>,__crt_stdio_output::format_validation_base<wchar_t,__crt_stdio_output::stream_output_adapter<wchar_t> > >::type_case_c()
FUNC 34038 7 0 __crt_stdio_output::output_processor<wchar_t,__crt_stdio_output::stream_output_adapter<wchar_t>,__crt_stdio_output::positional_parameter_base<wchar_t,__crt_stdio_output::stream_output_adapter<wchar_t> > >::type_case_c()
FUNC 34040 7 0 __crt_stdio_output::output_processor<wchar_t,__crt_stdio_output::stream_output_adapter<wchar_t>,__crt_stdio_output::standard_base<wchar_t,__crt_stdio_output::stream_output_adapter<wchar_t> > >::type_case_c()
FUNC 34048 7 0 __crt_stdio_output::output_processor<wchar_t,__crt_stdio_output::string_output_adapter<wchar_t>,__crt_stdio_output::format_validation_base<wchar_t,__crt_stdio_output::string_output_adapter<wchar_t> > >::type_case_c()
FUNC 34050 7 0 __crt_stdio_output::output_processor<wchar_t,__crt_stdio_output::string_output_adapter<wchar_t>,__crt_stdio_output::positional_parameter_base<wchar_t,__crt_stdio_output::string_output_adapter<wchar_t> > >::type_case_c()
FUNC 34058 7 0 __crt_stdio_output::output_processor<wchar_t,__crt_stdio_output::string_output_adapter<wchar_t>,__crt_stdio_output::standard_base<wchar_t,__crt_stdio_output::string_output_adapter<wchar_t> > >::type_case_c()
FUNC 34060 bc 0 __crt_stdio_output::output_processor<char,__crt_stdio_output::stream_output_adapter<char>,__crt_stdio_output::format_validation_base<char,__crt_stdio_output::stream_output_adapter<char> > >::type_case_c_tchar(char)
FUNC 3414c ff 0 __crt_stdio_output::output_processor<char,__crt_stdio_output::stream_output_adapter<char>,__crt_stdio_output::positional_parameter_base<char,__crt_stdio_output::stream_output_adapter<char> > >::type_case_c_tchar(char)
FUNC 3428c bc 0 __crt_stdio_output::output_processor<char,__crt_stdio_output::stream_output_adapter<char>,__crt_stdio_output::standard_base<char,__crt_stdio_output::stream_output_adapter<char> > >::type_case_c_tchar(char)
FUNC 34378 bc 0 __crt_stdio_output::output_processor<char,__crt_stdio_output::string_output_adapter<char>,__crt_stdio_output::format_validation_base<char,__crt_stdio_output::string_output_adapter<char> > >::type_case_c_tchar(char)
FUNC 34464 ff 0 __crt_stdio_output::output_processor<char,__crt_stdio_output::string_output_adapter<char>,__crt_stdio_output::positional_parameter_base<char,__crt_stdio_output::string_output_adapter<char> > >::type_case_c_tchar(char)
FUNC 345a4 bc 0 __crt_stdio_output::output_processor<char,__crt_stdio_output::string_output_adapter<char>,__crt_stdio_output::standard_base<char,__crt_stdio_output::string_output_adapter<char> > >::type_case_c_tchar(char)
FUNC 34690 a6 0 __crt_stdio_output::output_processor<wchar_t,__crt_stdio_output::stream_output_adapter<wchar_t>,__crt_stdio_output::format_validation_base<wchar_t,__crt_stdio_output::stream_output_adapter<wchar_t> > >::type_case_c_tchar(wchar_t)
FUNC 34760 cc 0 __crt_stdio_output::output_processor<wchar_t,__crt_stdio_output::stream_output_adapter<wchar_t>,__crt_stdio_output::positional_parameter_base<wchar_t,__crt_stdio_output::stream_output_adapter<wchar_t> > >::type_case_c_tchar(wchar_t)
FUNC 34860 a6 0 __crt_stdio_output::output_processor<wchar_t,__crt_stdio_output::stream_output_adapter<wchar_t>,__crt_stdio_output::standard_base<wchar_t,__crt_stdio_output::stream_output_adapter<wchar_t> > >::type_case_c_tchar(wchar_t)
FUNC 34930 a6 0 __crt_stdio_output::output_processor<wchar_t,__crt_stdio_output::string_output_adapter<wchar_t>,__crt_stdio_output::format_validation_base<wchar_t,__crt_stdio_output::string_output_adapter<wchar_t> > >::type_case_c_tchar(wchar_t)
FUNC 34a00 cc 0 __crt_stdio_output::output_processor<wchar_t,__crt_stdio_output::string_output_adapter<wchar_t>,__crt_stdio_output::positional_parameter_base<wchar_t,__crt_stdio_output::string_output_adapter<wchar_t> > >::type_case_c_tchar(wchar_t)
FUNC 34b00 a6 0 __crt_stdio_output::output_processor<wchar_t,__crt_stdio_output::string_output_adapter<wchar_t>,__crt_stdio_output::standard_base<wchar_t,__crt_stdio_output::string_output_adapter<wchar_t> > >::type_case_c_tchar(wchar_t)
FUNC 34bd0 10 0 __crt_stdio_output::output_processor<char,__crt_stdio_output::stream_output_adapter<char>,__crt_stdio_output::format_validation_base<char,__crt_stdio_output::stream_output_adapter<char> > >::type_case_d()
FUNC 34be4 10 0 __crt_stdio_output::output_processor<char,__crt_stdio_output::stream_output_adapter<char>,__crt_stdio_output::positional_parameter_base<char,__crt_stdio_output::stream_output_adapter<char> > >::type_case_d()
FUNC 34bf8 10 0 __crt_stdio_output::output_processor<char,__crt_stdio_output::stream_output_adapter<char>,__crt_stdio_output::standard_base<char,__crt_stdio_output::stream_output_adapter<char> > >::type_case_d()
FUNC 34c0c 10 0 __crt_stdio_output::output_processor<char,__crt_stdio_output::string_output_adapter<char>,__crt_stdio_output::format_validation_base<char,__crt_stdio_output::string_output_adapter<char> > >::type_case_d()
FUNC 34c20 10 0 __crt_stdio_output::output_processor<char,__crt_stdio_output::string_output_adapter<char>,__crt_stdio_output::positional_parameter_base<char,__crt_stdio_output::string_output_adapter<char> > >::type_case_d()
FUNC 34c34 10 0 __crt_stdio_output::output_processor<char,__crt_stdio_output::string_output_adapter<char>,__crt_stdio_output::standard_base<char,__crt_stdio_output::string_output_adapter<char> > >::type_case_d()
FUNC 34c48 10 0 __crt_stdio_output::output_processor<wchar_t,__crt_stdio_output::stream_output_adapter<wchar_t>,__crt_stdio_output::format_validation_base<wchar_t,__crt_stdio_output::stream_output_adapter<wchar_t> > >::type_case_d()
FUNC 34c5c 10 0 __crt_stdio_output::output_processor<wchar_t,__crt_stdio_output::stream_output_adapter<wchar_t>,__crt_stdio_output::positional_parameter_base<wchar_t,__crt_stdio_output::stream_output_adapter<wchar_t> > >::type_case_d()
FUNC 34c70 10 0 __crt_stdio_output::output_processor<wchar_t,__crt_stdio_output::stream_output_adapter<wchar_t>,__crt_stdio_output::standard_base<wchar_t,__crt_stdio_output::stream_output_adapter<wchar_t> > >::type_case_d()
FUNC 34c84 10 0 __crt_stdio_output::output_processor<wchar_t,__crt_stdio_output::string_output_adapter<wchar_t>,__crt_stdio_output::format_validation_base<wchar_t,__crt_stdio_output::string_output_adapter<wchar_t> > >::type_case_d()
FUNC 34c98 10 0 __crt_stdio_output::output_processor<wchar_t,__crt_stdio_output::string_output_adapter<wchar_t>,__crt_stdio_output::positional_parameter_base<wchar_t,__crt_stdio_output::string_output_adapter<wchar_t> > >::type_case_d()
FUNC 34cac 10 0 __crt_stdio_output::output_processor<wchar_t,__crt_stdio_output::string_output_adapter<wchar_t>,__crt_stdio_output::standard_base<wchar_t,__crt_stdio_output::string_output_adapter<wchar_t> > >::type_case_d()
FUNC 34cc0 1c5 0 __crt_stdio_output::output_processor<char,__crt_stdio_output::stream_output_adapter<char>,__crt_stdio_output::format_validation_base<char,__crt_stdio_output::stream_output_adapter<char> > >::type_case_integer(unsigned int,bool)
FUNC 34ef8 202 0 __crt_stdio_output::output_processor<char,__crt_stdio_output::stream_output_adapter<char>,__crt_stdio_output::positional_parameter_base<char,__crt_stdio_output::stream_output_adapter<char> > >::type_case_integer(unsigned int,bool)
FUNC 3517c 1c5 0 __crt_stdio_output::output_processor<char,__crt_stdio_output::stream_output_adapter<char>,__crt_stdio_output::standard_base<char,__crt_stdio_output::stream_output_adapter<char> > >::type_case_integer(unsigned int,bool)
FUNC 353b4 1c5 0 __crt_stdio_output::output_processor<char,__crt_stdio_output::string_output_adapter<char>,__crt_stdio_output::format_validation_base<char,__crt_stdio_output::string_output_adapter<char> > >::type_case_integer(unsigned int,bool)
FUNC 355ec 202 0 __crt_stdio_output::output_processor<char,__crt_stdio_output::string_output_adapter<char>,__crt_stdio_output::positional_parameter_base<char,__crt_stdio_output::string_output_adapter<char> > >::type_case_integer(unsigned int,bool)
FUNC 35870 1c5 0 __crt_stdio_output::output_processor<char,__crt_stdio_output::string_output_adapter<char>,__crt_stdio_output::standard_base<char,__crt_stdio_output::string_output_adapter<char> > >::type_case_integer(unsigned int,bool)
FUNC 35aa8 1cb 0 __crt_stdio_output::output_processor<wchar_t,__crt_stdio_output::stream_output_adapter<wchar_t>,__crt_stdio_output::format_validation_base<wchar_t,__crt_stdio_output::stream_output_adapter<wchar_t> > >::type_case_integer(unsigned int,bool)
FUNC 35ce8 208 0 __crt_stdio_output::output_processor<wchar_t,__crt_stdio_output::stream_output_adapter<wchar_t>,__crt_stdio_output::positional_parameter_base<wchar_t,__crt_stdio_output::stream_output_adapter<wchar_t> > >::type_case_integer(unsigned int,bool)
FUNC 35f74 1cb 0 __crt_stdio_output::output_processor<wchar_t,__crt_stdio_output::stream_output_adapter<wchar_t>,__crt_stdio_output::standard_base<wchar_t,__crt_stdio_output::stream_output_adapter<wchar_t> > >::type_case_integer(unsigned int,bool)
FUNC 361b4 1cb 0 __crt_stdio_output::output_processor<wchar_t,__crt_stdio_output::string_output_adapter<wchar_t>,__crt_stdio_output::format_validation_base<wchar_t,__crt_stdio_output::string_output_adapter<wchar_t> > >::type_case_integer(unsigned int,bool)
FUNC 363f4 208 0 __crt_stdio_output::output_processor<wchar_t,__crt_stdio_output::string_output_adapter<wchar_t>,__crt_stdio_output::positional_parameter_base<wchar_t,__crt_stdio_output::string_output_adapter<wchar_t> > >::type_case_integer(unsigned int,bool)
FUNC 36680 1cb 0 __crt_stdio_output::output_processor<wchar_t,__crt_stdio_output::string_output_adapter<wchar_t>,__crt_stdio_output::standard_base<wchar_t,__crt_stdio_output::string_output_adapter<wchar_t> > >::type_case_integer(unsigned int,bool)
FUNC 368c0 db 0 __crt_stdio_output::output_processor<char,__crt_stdio_output::stream_output_adapter<char>,__crt_stdio_output::format_validation_base<char,__crt_stdio_output::stream_output_adapter<char> > >::type_case_n()
FUNC 369d4 104 0 __crt_stdio_output::output_processor<char,__crt_stdio_output::stream_output_adapter<char>,__crt_stdio_output::positional_parameter_base<char,__crt_stdio_output::stream_output_adapter<char> > >::type_case_n()
FUNC 36b1c db 0 __crt_stdio_output::output_processor<char,__crt_stdio_output::stream_output_adapter<char>,__crt_stdio_output::standard_base<char,__crt_stdio_output::stream_output_adapter<char> > >::type_case_n()
FUNC 36c30 db 0 __crt_stdio_output::output_processor<char,__crt_stdio_output::string_output_adapter<char>,__crt_stdio_output::format_validation_base<char,__crt_stdio_output::string_output_adapter<char> > >::type_case_n()
FUNC 36d44 104 0 __crt_stdio_output::output_processor<char,__crt_stdio_output::string_output_adapter<char>,__crt_stdio_output::positional_parameter_base<char,__crt_stdio_output::string_output_adapter<char> > >::type_case_n()
FUNC 36e8c db 0 __crt_stdio_output::output_processor<char,__crt_stdio_output::string_output_adapter<char>,__crt_stdio_output::standard_base<char,__crt_stdio_output::string_output_adapter<char> > >::type_case_n()
FUNC 36fa0 db 0 __crt_stdio_output::output_processor<wchar_t,__crt_stdio_output::stream_output_adapter<wchar_t>,__crt_stdio_output::format_validation_base<wchar_t,__crt_stdio_output::stream_output_adapter<wchar_t> > >::type_case_n()
FUNC 370b4 104 0 __crt_stdio_output::output_processor<wchar_t,__crt_stdio_output::stream_output_adapter<wchar_t>,__crt_stdio_output::positional_parameter_base<wchar_t,__crt_stdio_output::stream_output_adapter<wchar_t> > >::type_case_n()
FUNC 371fc db 0 __crt_stdio_output::output_processor<wchar_t,__crt_stdio_output::stream_output_adapter<wchar_t>,__crt_stdio_output::standard_base<wchar_t,__crt_stdio_output::stream_output_adapter<wchar_t> > >::type_case_n()
FUNC 37310 db 0 __crt_stdio_output::output_processor<wchar_t,__crt_stdio_output::string_output_adapter<wchar_t>,__crt_stdio_output::format_validation_base<wchar_t,__crt_stdio_output::string_output_adapter<wchar_t> > >::type_case_n()
FUNC 37424 104 0 __crt_stdio_output::output_processor<wchar_t,__crt_stdio_output::string_output_adapter<wchar_t>,__crt_stdio_output::positional_parameter_base<wchar_t,__crt_stdio_output::string_output_adapter<wchar_t> > >::type_case_n()
FUNC 3756c db 0 __crt_stdio_output::output_processor<wchar_t,__crt_stdio_output::string_output_adapter<wchar_t>,__crt_stdio_output::standard_base<wchar_t,__crt_stdio_output::string_output_adapter<wchar_t> > >::type_case_n()
FUNC 37680 1f 0 __crt_stdio_output::output_processor<char,__crt_stdio_output::stream_output_adapter<char>,__crt_stdio_output::format_validation_base<char,__crt_stdio_output::stream_output_adapter<char> > >::type_case_o()
FUNC 376a8 1f 0 __crt_stdio_output::output_processor<char,__crt_stdio_output::stream_output_adapter<char>,__crt_stdio_output::positional_parameter_base<char,__crt_stdio_output::stream_output_adapter<char> > >::type_case_o()
FUNC 376d0 1f 0 __crt_stdio_output::output_processor<char,__crt_stdio_output::stream_output_adapter<char>,__crt_stdio_output::standard_base<char,__crt_stdio_output::stream_output_adapter<char> > >::type_case_o()
FUNC 376f8 1f 0 __crt_stdio_output::output_processor<char,__crt_stdio_output::string_output_adapter<char>,__crt_stdio_output::format_validation_base<char,__crt_stdio_output::string_output_adapter<char> > >::type_case_o()
FUNC 37720 1f 0 __crt_stdio_output::output_processor<char,__crt_stdio_output::string_output_adapter<char>,__crt_stdio_output::positional_parameter_base<char,__crt_stdio_output::string_output_adapter<char> > >::type_case_o()
FUNC 37748 1f 0 __crt_stdio_output::output_processor<char,__crt_stdio_output::string_output_adapter<char>,__crt_stdio_output::standard_base<char,__crt_stdio_output::string_output_adapter<char> > >::type_case_o()
FUNC 37770 1f 0 __crt_stdio_output::output_processor<wchar_t,__crt_stdio_output::stream_output_adapter<wchar_t>,__crt_stdio_output::format_validation_base<wchar_t,__crt_stdio_output::stream_output_adapter<wchar_t> > >::type_case_o()
FUNC 37798 1f 0 __crt_stdio_output::output_processor<wchar_t,__crt_stdio_output::stream_output_adapter<wchar_t>,__crt_stdio_output::positional_parameter_base<wchar_t,__crt_stdio_output::stream_output_adapter<wchar_t> > >::type_case_o()
FUNC 377c0 1f 0 __crt_stdio_output::output_processor<wchar_t,__crt_stdio_output::stream_output_adapter<wchar_t>,__crt_stdio_output::standard_base<wchar_t,__crt_stdio_output::stream_output_adapter<wchar_t> > >::type_case_o()
FUNC 377e8 1f 0 __crt_stdio_output::output_processor<wchar_t,__crt_stdio_output::string_output_adapter<wchar_t>,__crt_stdio_output::format_validation_base<wchar_t,__crt_stdio_output::string_output_adapter<wchar_t> > >::type_case_o()
FUNC 37810 1f 0 __crt_stdio_output::output_processor<wchar_t,__crt_stdio_output::string_output_adapter<wchar_t>,__crt_stdio_output::positional_parameter_base<wchar_t,__crt_stdio_output::string_output_adapter<wchar_t> > >::type_case_o()
FUNC 37838 1f 0 __crt_stdio_output::output_processor<wchar_t,__crt_stdio_output::string_output_adapter<wchar_t>,__crt_stdio_output::standard_base<wchar_t,__crt_stdio_output::string_output_adapter<wchar_t> > >::type_case_o()
FUNC 37860 17 0 __crt_stdio_output::output_processor<char,__crt_stdio_output::stream_output_adapter<char>,__crt_stdio_output::format_validation_base<char,__crt_stdio_output::stream_output_adapter<char> > >::type_case_p()
FUNC 3787c 17 0 __crt_stdio_output::output_processor<char,__crt_stdio_output::stream_output_adapter<char>,__crt_stdio_output::positional_parameter_base<char,__crt_stdio_output::stream_output_adapter<char> > >::type_case_p()
FUNC 37898 17 0 __crt_stdio_output::output_processor<char,__crt_stdio_output::stream_output_adapter<char>,__crt_stdio_output::standard_base<char,__crt_stdio_output::stream_output_adapter<char> > >::type_case_p()
FUNC 378b4 17 0 __crt_stdio_output::output_processor<char,__crt_stdio_output::string_output_adapter<char>,__crt_stdio_output::format_validation_base<char,__crt_stdio_output::string_output_adapter<char> > >::type_case_p()
FUNC 378d0 17 0 __crt_stdio_output::output_processor<char,__crt_stdio_output::string_output_adapter<char>,__crt_stdio_output::positional_parameter_base<char,__crt_stdio_output::string_output_adapter<char> > >::type_case_p()
FUNC 378ec 17 0 __crt_stdio_output::output_processor<char,__crt_stdio_output::string_output_adapter<char>,__crt_stdio_output::standard_base<char,__crt_stdio_output::string_output_adapter<char> > >::type_case_p()
FUNC 37908 17 0 __crt_stdio_output::output_processor<wchar_t,__crt_stdio_output::stream_output_adapter<wchar_t>,__crt_stdio_output::format_validation_base<wchar_t,__crt_stdio_output::stream_output_adapter<wchar_t> > >::type_case_p()
FUNC 37924 17 0 __crt_stdio_output::output_processor<wchar_t,__crt_stdio_output::stream_output_adapter<wchar_t>,__crt_stdio_output::positional_parameter_base<wchar_t,__crt_stdio_output::stream_output_adapter<wchar_t> > >::type_case_p()
FUNC 37940 17 0 __crt_stdio_output::output_processor<wchar_t,__crt_stdio_output::stream_output_adapter<wchar_t>,__crt_stdio_output::standard_base<wchar_t,__crt_stdio_output::stream_output_adapter<wchar_t> > >::type_case_p()
FUNC 3795c 17 0 __crt_stdio_output::output_processor<wchar_t,__crt_stdio_output::string_output_adapter<wchar_t>,__crt_stdio_output::format_validation_base<wchar_t,__crt_stdio_output::string_output_adapter<wchar_t> > >::type_case_p()
FUNC 37978 17 0 __crt_stdio_output::output_processor<wchar_t,__crt_stdio_output::string_output_adapter<wchar_t>,__crt_stdio_output::positional_parameter_base<wchar_t,__crt_stdio_output::string_output_adapter<wchar_t> > >::type_case_p()
FUNC 37994 17 0 __crt_stdio_output::output_processor<wchar_t,__crt_stdio_output::string_output_adapter<wchar_t>,__crt_stdio_output::standard_base<wchar_t,__crt_stdio_output::string_output_adapter<wchar_t> > >::type_case_p()
FUNC 379b0 96 0 __crt_stdio_output::output_processor<char,__crt_stdio_output::stream_output_adapter<char>,__crt_stdio_output::format_validation_base<char,__crt_stdio_output::stream_output_adapter<char> > >::type_case_s()
FUNC 37a6c b5 0 __crt_stdio_output::output_processor<char,__crt_stdio_output::stream_output_adapter<char>,__crt_stdio_output::positional_parameter_base<char,__crt_stdio_output::stream_output_adapter<char> > >::type_case_s()
FUNC 37b50 96 0 __crt_stdio_output::output_processor<char,__crt_stdio_output::stream_output_adapter<char>,__crt_stdio_output::standard_base<char,__crt_stdio_output::stream_output_adapter<char> > >::type_case_s()
FUNC 37c0c 96 0 __crt_stdio_output::output_processor<char,__crt_stdio_output::string_output_adapter<char>,__crt_stdio_output::format_validation_base<char,__crt_stdio_output::string_output_adapter<char> > >::type_case_s()
FUNC 37cc8 b5 0 __crt_stdio_output::output_processor<char,__crt_stdio_output::string_output_adapter<char>,__crt_stdio_output::positional_parameter_base<char,__crt_stdio_output::string_output_adapter<char> > >::type_case_s()
FUNC 37dac 96 0 __crt_stdio_output::output_processor<char,__crt_stdio_output::string_output_adapter<char>,__crt_stdio_output::standard_base<char,__crt_stdio_output::string_output_adapter<char> > >::type_case_s()
FUNC 37e68 c7 0 __crt_stdio_output::output_processor<wchar_t,__crt_stdio_output::stream_output_adapter<wchar_t>,__crt_stdio_output::format_validation_base<wchar_t,__crt_stdio_output::stream_output_adapter<wchar_t> > >::type_case_s()
FUNC 37f60 e9 0 __crt_stdio_output::output_processor<wchar_t,__crt_stdio_output::stream_output_adapter<wchar_t>,__crt_stdio_output::positional_parameter_base<wchar_t,__crt_stdio_output::stream_output_adapter<wchar_t> > >::type_case_s()
FUNC 38084 c7 0 __crt_stdio_output::output_processor<wchar_t,__crt_stdio_output::stream_output_adapter<wchar_t>,__crt_stdio_output::standard_base<wchar_t,__crt_stdio_output::stream_output_adapter<wchar_t> > >::type_case_s()
FUNC 3817c c7 0 __crt_stdio_output::output_processor<wchar_t,__crt_stdio_output::string_output_adapter<wchar_t>,__crt_stdio_output::format_validation_base<wchar_t,__crt_stdio_output::string_output_adapter<wchar_t> > >::type_case_s()
FUNC 38274 e9 0 __crt_stdio_output::output_processor<wchar_t,__crt_stdio_output::string_output_adapter<wchar_t>,__crt_stdio_output::positional_parameter_base<wchar_t,__crt_stdio_output::string_output_adapter<wchar_t> > >::type_case_s()
FUNC 38398 c7 0 __crt_stdio_output::output_processor<wchar_t,__crt_stdio_output::string_output_adapter<wchar_t>,__crt_stdio_output::standard_base<wchar_t,__crt_stdio_output::string_output_adapter<wchar_t> > >::type_case_s()
FUNC 38490 c 0 __crt_stdio_output::output_processor<char,__crt_stdio_output::stream_output_adapter<char>,__crt_stdio_output::format_validation_base<char,__crt_stdio_output::stream_output_adapter<char> > >::type_case_s_compute_narrow_string_length(int,char)
FUNC 384a0 c 0 __crt_stdio_output::output_processor<char,__crt_stdio_output::stream_output_adapter<char>,__crt_stdio_output::positional_parameter_base<char,__crt_stdio_output::stream_output_adapter<char> > >::type_case_s_compute_narrow_string_length(int,char)
FUNC 384b0 c 0 __crt_stdio_output::output_processor<char,__crt_stdio_output::stream_output_adapter<char>,__crt_stdio_output::standard_base<char,__crt_stdio_output::stream_output_adapter<char> > >::type_case_s_compute_narrow_string_length(int,char)
FUNC 384c0 c 0 __crt_stdio_output::output_processor<char,__crt_stdio_output::string_output_adapter<char>,__crt_stdio_output::format_validation_base<char,__crt_stdio_output::string_output_adapter<char> > >::type_case_s_compute_narrow_string_length(int,char)
FUNC 384d0 c 0 __crt_stdio_output::output_processor<char,__crt_stdio_output::string_output_adapter<char>,__crt_stdio_output::positional_parameter_base<char,__crt_stdio_output::string_output_adapter<char> > >::type_case_s_compute_narrow_string_length(int,char)
FUNC 384e0 c 0 __crt_stdio_output::output_processor<char,__crt_stdio_output::string_output_adapter<char>,__crt_stdio_output::standard_base<char,__crt_stdio_output::string_output_adapter<char> > >::type_case_s_compute_narrow_string_length(int,char)
FUNC 384f0 53 0 __crt_stdio_output::output_processor<wchar_t,__crt_stdio_output::stream_output_adapter<wchar_t>,__crt_stdio_output::format_validation_base<wchar_t,__crt_stdio_output::stream_output_adapter<wchar_t> > >::type_case_s_compute_narrow_string_length(int,wchar_t)
FUNC 38558 53 0 __crt_stdio_output::output_processor<wchar_t,__crt_stdio_output::stream_output_adapter<wchar_t>,__crt_stdio_output::positional_parameter_base<wchar_t,__crt_stdio_output::stream_output_adapter<wchar_t> > >::type_case_s_compute_narrow_string_length(int,wchar_t)
FUNC 385c0 53 0 __crt_stdio_output::output_processor<wchar_t,__crt_stdio_output::stream_output_adapter<wchar_t>,__crt_stdio_output::standard_base<wchar_t,__crt_stdio_output::stream_output_adapter<wchar_t> > >::type_case_s_compute_narrow_string_length(int,wchar_t)
FUNC 38628 53 0 __crt_stdio_output::output_processor<wchar_t,__crt_stdio_output::string_output_adapter<wchar_t>,__crt_stdio_output::format_validation_base<wchar_t,__crt_stdio_output::string_output_adapter<wchar_t> > >::type_case_s_compute_narrow_string_length(int,wchar_t)
FUNC 38690 53 0 __crt_stdio_output::output_processor<wchar_t,__crt_stdio_output::string_output_adapter<wchar_t>,__crt_stdio_output::positional_parameter_base<wchar_t,__crt_stdio_output::string_output_adapter<wchar_t> > >::type_case_s_compute_narrow_string_length(int,wchar_t)
FUNC 386f8 53 0 __crt_stdio_output::output_processor<wchar_t,__crt_stdio_output::string_output_adapter<wchar_t>,__crt_stdio_output::standard_base<wchar_t,__crt_stdio_output::string_output_adapter<wchar_t> > >::type_case_s_compute_narrow_string_length(int,wchar_t)
FUNC 38760 c 0 __crt_stdio_output::output_processor<char,__crt_stdio_output::stream_output_adapter<char>,__crt_stdio_output::format_validation_base<char,__crt_stdio_output::stream_output_adapter<char> > >::type_case_u()
FUNC 38770 c 0 __crt_stdio_output::output_processor<char,__crt_stdio_output::stream_output_adapter<char>,__crt_stdio_output::positional_parameter_base<char,__crt_stdio_output::stream_output_adapter<char> > >::type_case_u()
FUNC 38780 c 0 __crt_stdio_output::output_processor<char,__crt_stdio_output::stream_output_adapter<char>,__crt_stdio_output::standard_base<char,__crt_stdio_output::stream_output_adapter<char> > >::type_case_u()
FUNC 38790 c 0 __crt_stdio_output::output_processor<char,__crt_stdio_output::string_output_adapter<char>,__crt_stdio_output::format_validation_base<char,__crt_stdio_output::string_output_adapter<char> > >::type_case_u()
FUNC 387a0 c 0 __crt_stdio_output::output_processor<char,__crt_stdio_output::string_output_adapter<char>,__crt_stdio_output::positional_parameter_base<char,__crt_stdio_output::string_output_adapter<char> > >::type_case_u()
FUNC 387b0 c 0 __crt_stdio_output::output_processor<char,__crt_stdio_output::string_output_adapter<char>,__crt_stdio_output::standard_base<char,__crt_stdio_output::string_output_adapter<char> > >::type_case_u()
FUNC 387c0 c 0 __crt_stdio_output::output_processor<wchar_t,__crt_stdio_output::stream_output_adapter<wchar_t>,__crt_stdio_output::format_validation_base<wchar_t,__crt_stdio_output::stream_output_adapter<wchar_t> > >::type_case_u()
FUNC 387d0 c 0 __crt_stdio_output::output_processor<wchar_t,__crt_stdio_output::stream_output_adapter<wchar_t>,__crt_stdio_output::positional_parameter_base<wchar_t,__crt_stdio_output::stream_output_adapter<wchar_t> > >::type_case_u()
FUNC 387e0 c 0 __crt_stdio_output::output_processor<wchar_t,__crt_stdio_output::stream_output_adapter<wchar_t>,__crt_stdio_output::standard_base<wchar_t,__crt_stdio_output::stream_output_adapter<wchar_t> > >::type_case_u()
FUNC 387f0 c 0 __crt_stdio_output::output_processor<wchar_t,__crt_stdio_output::string_output_adapter<wchar_t>,__crt_stdio_output::format_validation_base<wchar_t,__crt_stdio_output::string_output_adapter<wchar_t> > >::type_case_u()
FUNC 38800 c 0 __crt_stdio_output::output_processor<wchar_t,__crt_stdio_output::string_output_adapter<wchar_t>,__crt_stdio_output::positional_parameter_base<wchar_t,__crt_stdio_output::string_output_adapter<wchar_t> > >::type_case_u()
FUNC 38810 c 0 __crt_stdio_output::output_processor<wchar_t,__crt_stdio_output::string_output_adapter<wchar_t>,__crt_stdio_output::standard_base<wchar_t,__crt_stdio_output::string_output_adapter<wchar_t> > >::type_case_u()
FUNC 38820 c 0 __crt_stdio_output::output_processor<char,__crt_stdio_output::stream_output_adapter<char>,__crt_stdio_output::format_validation_base<char,__crt_stdio_output::stream_output_adapter<char> > >::type_case_x()
FUNC 38830 c 0 __crt_stdio_output::output_processor<char,__crt_stdio_output::stream_output_adapter<char>,__crt_stdio_output::positional_parameter_base<char,__crt_stdio_output::stream_output_adapter<char> > >::type_case_x()
FUNC 38840 c 0 __crt_stdio_output::output_processor<char,__crt_stdio_output::stream_output_adapter<char>,__crt_stdio_output::standard_base<char,__crt_stdio_output::stream_output_adapter<char> > >::type_case_x()
FUNC 38850 c 0 __crt_stdio_output::output_processor<char,__crt_stdio_output::string_output_adapter<char>,__crt_stdio_output::format_validation_base<char,__crt_stdio_output::string_output_adapter<char> > >::type_case_x()
FUNC 38860 c 0 __crt_stdio_output::output_processor<char,__crt_stdio_output::string_output_adapter<char>,__crt_stdio_output::positional_parameter_base<char,__crt_stdio_output::string_output_adapter<char> > >::type_case_x()
FUNC 38870 c 0 __crt_stdio_output::output_processor<char,__crt_stdio_output::string_output_adapter<char>,__crt_stdio_output::standard_base<char,__crt_stdio_output::string_output_adapter<char> > >::type_case_x()
FUNC 38880 c 0 __crt_stdio_output::output_processor<wchar_t,__crt_stdio_output::stream_output_adapter<wchar_t>,__crt_stdio_output::format_validation_base<wchar_t,__crt_stdio_output::stream_output_adapter<wchar_t> > >::type_case_x()
FUNC 38890 c 0 __crt_stdio_output::output_processor<wchar_t,__crt_stdio_output::stream_output_adapter<wchar_t>,__crt_stdio_output::positional_parameter_base<wchar_t,__crt_stdio_output::stream_output_adapter<wchar_t> > >::type_case_x()
FUNC 388a0 c 0 __crt_stdio_output::output_processor<wchar_t,__crt_stdio_output::stream_output_adapter<wchar_t>,__crt_stdio_output::standard_base<wchar_t,__crt_stdio_output::stream_output_adapter<wchar_t> > >::type_case_x()
FUNC 388b0 c 0 __crt_stdio_output::output_processor<wchar_t,__crt_stdio_output::string_output_adapter<wchar_t>,__crt_stdio_output::format_validation_base<wchar_t,__crt_stdio_output::string_output_adapter<wchar_t> > >::type_case_x()
FUNC 388c0 c 0 __crt_stdio_output::output_processor<wchar_t,__crt_stdio_output::string_output_adapter<wchar_t>,__crt_stdio_output::positional_parameter_base<wchar_t,__crt_stdio_output::string_output_adapter<wchar_t> > >::type_case_x()
FUNC 388d0 c 0 __crt_stdio_output::output_processor<wchar_t,__crt_stdio_output::string_output_adapter<wchar_t>,__crt_stdio_output::standard_base<wchar_t,__crt_stdio_output::string_output_adapter<wchar_t> > >::type_case_x()
FUNC 388e0 6 0 __crt_stdio_output::output_processor<char,__crt_stdio_output::stream_output_adapter<char>,__crt_stdio_output::format_validation_base<char,__crt_stdio_output::stream_output_adapter<char> > >::unset_flag(unsigned int)
FUNC 388e8 6 0 __crt_stdio_output::output_processor<char,__crt_stdio_output::stream_output_adapter<char>,__crt_stdio_output::positional_parameter_base<char,__crt_stdio_output::stream_output_adapter<char> > >::unset_flag(unsigned int)
FUNC 388f0 6 0 __crt_stdio_output::output_processor<char,__crt_stdio_output::stream_output_adapter<char>,__crt_stdio_output::standard_base<char,__crt_stdio_output::stream_output_adapter<char> > >::unset_flag(unsigned int)
FUNC 388f8 6 0 __crt_stdio_output::output_processor<char,__crt_stdio_output::string_output_adapter<char>,__crt_stdio_output::format_validation_base<char,__crt_stdio_output::string_output_adapter<char> > >::unset_flag(unsigned int)
FUNC 38900 6 0 __crt_stdio_output::output_processor<char,__crt_stdio_output::string_output_adapter<char>,__crt_stdio_output::positional_parameter_base<char,__crt_stdio_output::string_output_adapter<char> > >::unset_flag(unsigned int)
FUNC 38908 6 0 __crt_stdio_output::output_processor<char,__crt_stdio_output::string_output_adapter<char>,__crt_stdio_output::standard_base<char,__crt_stdio_output::string_output_adapter<char> > >::unset_flag(unsigned int)
FUNC 38910 6 0 __crt_stdio_output::output_processor<wchar_t,__crt_stdio_output::stream_output_adapter<wchar_t>,__crt_stdio_output::format_validation_base<wchar_t,__crt_stdio_output::stream_output_adapter<wchar_t> > >::unset_flag(unsigned int)
FUNC 38918 6 0 __crt_stdio_output::output_processor<wchar_t,__crt_stdio_output::stream_output_adapter<wchar_t>,__crt_stdio_output::positional_parameter_base<wchar_t,__crt_stdio_output::stream_output_adapter<wchar_t> > >::unset_flag(unsigned int)
FUNC 38920 6 0 __crt_stdio_output::output_processor<wchar_t,__crt_stdio_output::stream_output_adapter<wchar_t>,__crt_stdio_output::standard_base<wchar_t,__crt_stdio_output::stream_output_adapter<wchar_t> > >::unset_flag(unsigned int)
FUNC 38928 6 0 __crt_stdio_output::output_processor<wchar_t,__crt_stdio_output::string_output_adapter<wchar_t>,__crt_stdio_output::format_validation_base<wchar_t,__crt_stdio_output::string_output_adapter<wchar_t> > >::unset_flag(unsigned int)
FUNC 38930 6 0 __crt_stdio_output::output_processor<wchar_t,__crt_stdio_output::string_output_adapter<wchar_t>,__crt_stdio_output::positional_parameter_base<wchar_t,__crt_stdio_output::string_output_adapter<wchar_t> > >::unset_flag(unsigned int)
FUNC 38938 6 0 __crt_stdio_output::output_processor<wchar_t,__crt_stdio_output::string_output_adapter<wchar_t>,__crt_stdio_output::standard_base<wchar_t,__crt_stdio_output::string_output_adapter<wchar_t> > >::unset_flag(unsigned int)
FUNC 38940 115 0 __crt_stdio_output::positional_parameter_base<char,__crt_stdio_output::stream_output_adapter<char> >::update_field_width()
FUNC 38a9c 115 0 __crt_stdio_output::positional_parameter_base<char,__crt_stdio_output::string_output_adapter<char> >::update_field_width()
FUNC 38bf8 118 0 __crt_stdio_output::positional_parameter_base<wchar_t,__crt_stdio_output::stream_output_adapter<wchar_t> >::update_field_width()
FUNC 38d58 118 0 __crt_stdio_output::positional_parameter_base<wchar_t,__crt_stdio_output::string_output_adapter<wchar_t> >::update_field_width()
FUNC 38eb8 12 0 __crt_stdio_output::standard_base<char,__crt_stdio_output::stream_output_adapter<char> >::update_field_width()
FUNC 38ed0 12 0 __crt_stdio_output::standard_base<char,__crt_stdio_output::string_output_adapter<char> >::update_field_width()
FUNC 38ee8 12 0 __crt_stdio_output::standard_base<wchar_t,__crt_stdio_output::stream_output_adapter<wchar_t> >::update_field_width()
FUNC 38f00 12 0 __crt_stdio_output::standard_base<wchar_t,__crt_stdio_output::string_output_adapter<wchar_t> >::update_field_width()
FUNC 38f18 115 0 __crt_stdio_output::positional_parameter_base<char,__crt_stdio_output::stream_output_adapter<char> >::update_precision()
FUNC 39074 115 0 __crt_stdio_output::positional_parameter_base<char,__crt_stdio_output::string_output_adapter<char> >::update_precision()
FUNC 391d0 118 0 __crt_stdio_output::positional_parameter_base<wchar_t,__crt_stdio_output::stream_output_adapter<wchar_t> >::update_precision()
FUNC 39330 118 0 __crt_stdio_output::positional_parameter_base<wchar_t,__crt_stdio_output::string_output_adapter<wchar_t> >::update_precision()
FUNC 39490 12 0 __crt_stdio_output::standard_base<char,__crt_stdio_output::stream_output_adapter<char> >::update_precision()
FUNC 394a8 12 0 __crt_stdio_output::standard_base<char,__crt_stdio_output::string_output_adapter<char> >::update_precision()
FUNC 394c0 12 0 __crt_stdio_output::standard_base<wchar_t,__crt_stdio_output::stream_output_adapter<wchar_t> >::update_precision()
FUNC 394d8 12 0 __crt_stdio_output::standard_base<wchar_t,__crt_stdio_output::string_output_adapter<wchar_t> >::update_precision()
FUNC 394f0 8 0 __crt_stdio_stream::valid()
FUNC 394fc 2c 0 __crt_stdio_output::stream_output_adapter<char>::validate()
FUNC 39534 25 0 __crt_stdio_output::stream_output_adapter<wchar_t>::validate()
FUNC 39564 25 0 __crt_stdio_output::string_output_adapter<char>::validate()
FUNC 39594 25 0 __crt_stdio_output::string_output_adapter<wchar_t>::validate()
FUNC 395c4 3f 0 __crt_stdio_output::positional_parameter_base<char,__crt_stdio_output::stream_output_adapter<char> >::validate_and_store_parameter_data(__crt_stdio_output::positional_parameter_base<char,__crt_stdio_output::stream_output_adapter<char> >::parameter_data &,__crt_stdio_output::positional_parameter_base<char,__crt_stdio_output::stream_output_adapter<char> >::parameter_type,char,__crt_stdio_output::length_modifier)
FUNC 39614 3f 0 __crt_stdio_output::positional_parameter_base<char,__crt_stdio_output::string_output_adapter<char> >::validate_and_store_parameter_data(__crt_stdio_output::positional_parameter_base<char,__crt_stdio_output::string_output_adapter<char> >::parameter_data &,__crt_stdio_output::positional_parameter_base<char,__crt_stdio_output::string_output_adapter<char> >::parameter_type,char,__crt_stdio_output::length_modifier)
FUNC 39664 40 0 __crt_stdio_output::positional_parameter_base<wchar_t,__crt_stdio_output::stream_output_adapter<wchar_t> >::validate_and_store_parameter_data(__crt_stdio_output::positional_parameter_base<wchar_t,__crt_stdio_output::stream_output_adapter<wchar_t> >::parameter_data &,__crt_stdio_output::positional_parameter_base<wchar_t,__crt_stdio_output::stream_output_adapter<wchar_t> >::parameter_type,wchar_t,__crt_stdio_output::length_modifier)
FUNC 396b4 40 0 __crt_stdio_output::positional_parameter_base<wchar_t,__crt_stdio_output::string_output_adapter<wchar_t> >::validate_and_store_parameter_data(__crt_stdio_output::positional_parameter_base<wchar_t,__crt_stdio_output::string_output_adapter<wchar_t> >::parameter_data &,__crt_stdio_output::positional_parameter_base<wchar_t,__crt_stdio_output::string_output_adapter<wchar_t> >::parameter_type,wchar_t,__crt_stdio_output::length_modifier)
FUNC 39704 10b 0 __crt_stdio_output::positional_parameter_base<char,__crt_stdio_output::stream_output_adapter<char> >::validate_and_update_state_at_beginning_of_format_character()
FUNC 39854 10b 0 __crt_stdio_output::positional_parameter_base<char,__crt_stdio_output::string_output_adapter<char> >::validate_and_update_state_at_beginning_of_format_character()
FUNC 399a4 114 0 __crt_stdio_output::positional_parameter_base<wchar_t,__crt_stdio_output::stream_output_adapter<wchar_t> >::validate_and_update_state_at_beginning_of_format_character()
FUNC 39b00 114 0 __crt_stdio_output::positional_parameter_base<wchar_t,__crt_stdio_output::string_output_adapter<wchar_t> >::validate_and_update_state_at_beginning_of_format_character()
FUNC 39c5c 3 0 __crt_stdio_output::standard_base<char,__crt_stdio_output::stream_output_adapter<char> >::validate_and_update_state_at_beginning_of_format_character()
FUNC 39c60 3 0 __crt_stdio_output::standard_base<char,__crt_stdio_output::string_output_adapter<char> >::validate_and_update_state_at_beginning_of_format_character()
FUNC 39c64 3 0 __crt_stdio_output::standard_base<wchar_t,__crt_stdio_output::stream_output_adapter<wchar_t> >::validate_and_update_state_at_beginning_of_format_character()
FUNC 39c68 3 0 __crt_stdio_output::standard_base<wchar_t,__crt_stdio_output::string_output_adapter<wchar_t> >::validate_and_update_state_at_beginning_of_format_character()
FUNC 39c6c 2b 0 __crt_stdio_output::format_validation_base<char,__crt_stdio_output::stream_output_adapter<char> >::validate_and_update_state_at_end_of_format_string()
FUNC 39ca4 2b 0 __crt_stdio_output::format_validation_base<char,__crt_stdio_output::string_output_adapter<char> >::validate_and_update_state_at_end_of_format_string()
FUNC 39cdc 2b 0 __crt_stdio_output::format_validation_base<wchar_t,__crt_stdio_output::stream_output_adapter<wchar_t> >::validate_and_update_state_at_end_of_format_string()
FUNC 39d14 2b 0 __crt_stdio_output::format_validation_base<wchar_t,__crt_stdio_output::string_output_adapter<wchar_t> >::validate_and_update_state_at_end_of_format_string()
FUNC 39d4c 9b 0 __crt_stdio_output::positional_parameter_base<char,__crt_stdio_output::stream_output_adapter<char> >::validate_and_update_state_at_end_of_format_string()
FUNC 39e10 9b 0 __crt_stdio_output::positional_parameter_base<char,__crt_stdio_output::string_output_adapter<char> >::validate_and_update_state_at_end_of_format_string()
FUNC 39ed4 9b 0 __crt_stdio_output::positional_parameter_base<wchar_t,__crt_stdio_output::stream_output_adapter<wchar_t> >::validate_and_update_state_at_end_of_format_string()
FUNC 39f98 9b 0 __crt_stdio_output::positional_parameter_base<wchar_t,__crt_stdio_output::string_output_adapter<wchar_t> >::validate_and_update_state_at_end_of_format_string()
FUNC 3a05c 3 0 __crt_stdio_output::standard_base<char,__crt_stdio_output::stream_output_adapter<char> >::validate_and_update_state_at_end_of_format_string()
FUNC 3a060 3 0 __crt_stdio_output::standard_base<char,__crt_stdio_output::string_output_adapter<char> >::validate_and_update_state_at_end_of_format_string()
FUNC 3a064 3 0 __crt_stdio_output::standard_base<wchar_t,__crt_stdio_output::stream_output_adapter<wchar_t> >::validate_and_update_state_at_end_of_format_string()
FUNC 3a068 3 0 __crt_stdio_output::standard_base<wchar_t,__crt_stdio_output::string_output_adapter<wchar_t> >::validate_and_update_state_at_end_of_format_string()
FUNC 3a06c 9b 0 __crt_stdio_output::positional_parameter_base<char,__crt_stdio_output::stream_output_adapter<char> >::validate_state_for_type_case_a()
FUNC 3a130 9b 0 __crt_stdio_output::positional_parameter_base<char,__crt_stdio_output::string_output_adapter<char> >::validate_state_for_type_case_a()
FUNC 3a1f4 9d 0 __crt_stdio_output::positional_parameter_base<wchar_t,__crt_stdio_output::stream_output_adapter<wchar_t> >::validate_state_for_type_case_a()
FUNC 3a2b8 9d 0 __crt_stdio_output::positional_parameter_base<wchar_t,__crt_stdio_output::string_output_adapter<wchar_t> >::validate_state_for_type_case_a()
FUNC 3a37c 3 0 __crt_stdio_output::standard_base<char,__crt_stdio_output::stream_output_adapter<char> >::validate_state_for_type_case_a()
FUNC 3a380 3 0 __crt_stdio_output::standard_base<char,__crt_stdio_output::string_output_adapter<char> >::validate_state_for_type_case_a()
FUNC 3a384 3 0 __crt_stdio_output::standard_base<wchar_t,__crt_stdio_output::stream_output_adapter<wchar_t> >::validate_state_for_type_case_a()
FUNC 3a388 3 0 __crt_stdio_output::standard_base<wchar_t,__crt_stdio_output::string_output_adapter<wchar_t> >::validate_state_for_type_case_a()
FUNC 3a38c 9a 0 __acrt_stdio_char_traits<char>::validate_stream_is_ansi_if_required(_iobuf * const)
FUNC 3a44c 3 0 __acrt_stdio_char_traits<wchar_t>::validate_stream_is_ansi_if_required(_iobuf * const)
FUNC 3a450 8 0 __crt_stdio_output::output_processor<char,__crt_stdio_output::stream_output_adapter<char>,__crt_stdio_output::format_validation_base<char,__crt_stdio_output::stream_output_adapter<char> > >::wide_null_string()
FUNC 3a45c 8 0 __crt_stdio_output::output_processor<char,__crt_stdio_output::stream_output_adapter<char>,__crt_stdio_output::positional_parameter_base<char,__crt_stdio_output::stream_output_adapter<char> > >::wide_null_string()
FUNC 3a468 8 0 __crt_stdio_output::output_processor<char,__crt_stdio_output::stream_output_adapter<char>,__crt_stdio_output::standard_base<char,__crt_stdio_output::stream_output_adapter<char> > >::wide_null_string()
FUNC 3a474 8 0 __crt_stdio_output::output_processor<char,__crt_stdio_output::string_output_adapter<char>,__crt_stdio_output::format_validation_base<char,__crt_stdio_output::string_output_adapter<char> > >::wide_null_string()
FUNC 3a480 8 0 __crt_stdio_output::output_processor<char,__crt_stdio_output::string_output_adapter<char>,__crt_stdio_output::positional_parameter_base<char,__crt_stdio_output::string_output_adapter<char> > >::wide_null_string()
FUNC 3a48c 8 0 __crt_stdio_output::output_processor<char,__crt_stdio_output::string_output_adapter<char>,__crt_stdio_output::standard_base<char,__crt_stdio_output::string_output_adapter<char> > >::wide_null_string()
FUNC 3a498 8 0 __crt_stdio_output::output_processor<wchar_t,__crt_stdio_output::stream_output_adapter<wchar_t>,__crt_stdio_output::format_validation_base<wchar_t,__crt_stdio_output::stream_output_adapter<wchar_t> > >::wide_null_string()
FUNC 3a4a4 8 0 __crt_stdio_output::output_processor<wchar_t,__crt_stdio_output::stream_output_adapter<wchar_t>,__crt_stdio_output::positional_parameter_base<wchar_t,__crt_stdio_output::stream_output_adapter<wchar_t> > >::wide_null_string()
FUNC 3a4b0 8 0 __crt_stdio_output::output_processor<wchar_t,__crt_stdio_output::stream_output_adapter<wchar_t>,__crt_stdio_output::standard_base<wchar_t,__crt_stdio_output::stream_output_adapter<wchar_t> > >::wide_null_string()
FUNC 3a4bc 8 0 __crt_stdio_output::output_processor<wchar_t,__crt_stdio_output::string_output_adapter<wchar_t>,__crt_stdio_output::format_validation_base<wchar_t,__crt_stdio_output::string_output_adapter<wchar_t> > >::wide_null_string()
FUNC 3a4c8 8 0 __crt_stdio_output::output_processor<wchar_t,__crt_stdio_output::string_output_adapter<wchar_t>,__crt_stdio_output::positional_parameter_base<wchar_t,__crt_stdio_output::string_output_adapter<wchar_t> > >::wide_null_string()
FUNC 3a4d4 8 0 __crt_stdio_output::output_processor<wchar_t,__crt_stdio_output::string_output_adapter<wchar_t>,__crt_stdio_output::standard_base<wchar_t,__crt_stdio_output::string_output_adapter<wchar_t> > >::wide_null_string()
FUNC 3a4e0 48 0 __crt_stdio_output::output_adapter_common<char,__crt_stdio_output::stream_output_adapter<char> >::write_character(char,int * const)
FUNC 3a53c 4b 0 __crt_stdio_output::output_adapter_common<wchar_t,__crt_stdio_output::stream_output_adapter<wchar_t> >::write_character(wchar_t,int * const)
FUNC 3a59c 45 0 __crt_stdio_output::string_output_adapter<char>::write_character(char,int * const)
FUNC 3a5f4 48 0 __crt_stdio_output::string_output_adapter<wchar_t>::write_character(wchar_t,int * const)
FUNC 3a650 40 0 __crt_stdio_output::stream_output_adapter<char>::write_character_without_count_update(char)
FUNC 3a6a0 43 0 __crt_stdio_output::stream_output_adapter<wchar_t>::write_character_without_count_update(wchar_t)
FUNC 3a6f4 121 0 __crt_stdio_output::output_processor<char,__crt_stdio_output::stream_output_adapter<char>,__crt_stdio_output::format_validation_base<char,__crt_stdio_output::stream_output_adapter<char> > >::write_stored_string_tchar(char)
FUNC 3a860 121 0 __crt_stdio_output::output_processor<char,__crt_stdio_output::stream_output_adapter<char>,__crt_stdio_output::positional_parameter_base<char,__crt_stdio_output::stream_output_adapter<char> > >::write_stored_string_tchar(char)
FUNC 3a9cc 121 0 __crt_stdio_output::output_processor<char,__crt_stdio_output::stream_output_adapter<char>,__crt_stdio_output::standard_base<char,__crt_stdio_output::stream_output_adapter<char> > >::write_stored_string_tchar(char)
FUNC 3ab38 d5 0 __crt_stdio_output::output_processor<char,__crt_stdio_output::string_output_adapter<char>,__crt_stdio_output::format_validation_base<char,__crt_stdio_output::string_output_adapter<char> > >::write_stored_string_tchar(char)
FUNC 3ac44 d5 0 __crt_stdio_output::output_processor<char,__crt_stdio_output::string_output_adapter<char>,__crt_stdio_output::positional_parameter_base<char,__crt_stdio_output::string_output_adapter<char> > >::write_stored_string_tchar(char)
FUNC 3ad50 d5 0 __crt_stdio_output::output_processor<char,__crt_stdio_output::string_output_adapter<char>,__crt_stdio_output::standard_base<char,__crt_stdio_output::string_output_adapter<char> > >::write_stored_string_tchar(char)
FUNC 3ae5c 106 0 __crt_stdio_output::output_processor<wchar_t,__crt_stdio_output::stream_output_adapter<wchar_t>,__crt_stdio_output::format_validation_base<wchar_t,__crt_stdio_output::stream_output_adapter<wchar_t> > >::write_stored_string_tchar(wchar_t)
FUNC 3afa4 106 0 __crt_stdio_output::output_processor<wchar_t,__crt_stdio_output::stream_output_adapter<wchar_t>,__crt_stdio_output::positional_parameter_base<wchar_t,__crt_stdio_output::stream_output_adapter<wchar_t> > >::write_stored_string_tchar(wchar_t)
FUNC 3b0ec 106 0 __crt_stdio_output::output_processor<wchar_t,__crt_stdio_output::stream_output_adapter<wchar_t>,__crt_stdio_output::standard_base<wchar_t,__crt_stdio_output::stream_output_adapter<wchar_t> > >::write_stored_string_tchar(wchar_t)
FUNC 3b234 eb 0 __crt_stdio_output::output_processor<wchar_t,__crt_stdio_output::string_output_adapter<wchar_t>,__crt_stdio_output::format_validation_base<wchar_t,__crt_stdio_output::string_output_adapter<wchar_t> > >::write_stored_string_tchar(wchar_t)
FUNC 3b35c eb 0 __crt_stdio_output::output_processor<wchar_t,__crt_stdio_output::string_output_adapter<wchar_t>,__crt_stdio_output::positional_parameter_base<wchar_t,__crt_stdio_output::string_output_adapter<wchar_t> > >::write_stored_string_tchar(wchar_t)
FUNC 3b484 eb 0 __crt_stdio_output::output_processor<wchar_t,__crt_stdio_output::string_output_adapter<wchar_t>,__crt_stdio_output::standard_base<wchar_t,__crt_stdio_output::string_output_adapter<wchar_t> > >::write_stored_string_tchar(wchar_t)
FUNC 3b5ac 24 0 __crt_stdio_output::stream_output_adapter<char>::write_string(char const * const,int,int * const,__crt_deferred_errno_cache &)
FUNC 3b5dc 24 0 __crt_stdio_output::stream_output_adapter<wchar_t>::write_string(wchar_t const * const,int,int * const,__crt_deferred_errno_cache &)
FUNC 3b60c a3 0 __crt_stdio_output::string_output_adapter<char>::write_string(char const * const,int,int * const,__crt_deferred_errno_cache &)
FUNC 3b6d8 a5 0 __crt_stdio_output::string_output_adapter<wchar_t>::write_string(wchar_t const * const,int,int * const,__crt_deferred_errno_cache &)
FUNC 3b7a8 f5 0 __crt_stdio_output::output_adapter_common<char,__crt_stdio_output::stream_output_adapter<char> >::write_string_impl(char const * const,int,int * const,__crt_deferred_errno_cache &)
FUNC 3b8dc 103 0 __crt_stdio_output::output_adapter_common<wchar_t,__crt_stdio_output::stream_output_adapter<wchar_t> >::write_string_impl(wchar_t const * const,int,int * const,__crt_deferred_errno_cache &)
FUNC 3ba20 21 0 _acrt_isleadbyte_l_noupdate
FUNC 3ba4c b 0 _acrt_locale_changed
FUNC 3ba5c 18 0 _acrt_locale_get_ctype_array_value
FUNC 3ba7c 8b 0 _stdio_common_vfprintf
FUNC 3bb2c 8b 0 _stdio_common_vfprintf_p
FUNC 3bbdc 8b 0 _stdio_common_vfprintf_s
FUNC 3bc8c 8b 0 _stdio_common_vfwprintf
FUNC 3bd3c 8b 0 _stdio_common_vfwprintf_p
FUNC 3bdec 8b 0 _stdio_common_vfwprintf_s
FUNC 3be9c 134 0 _stdio_common_vsnprintf_s
FUNC 3c020 143 0 _stdio_common_vsnwprintf_s
FUNC 3c1b4 5 0 _stdio_common_vsprintf
FUNC 3c1bc 5 0 _stdio_common_vsprintf_p
FUNC 3c1c4 63 0 _stdio_common_vsprintf_s
FUNC 3c240 5 0 _stdio_common_vswprintf
FUNC 3c248 5 0 _stdio_common_vswprintf_p
FUNC 3c250 6e 0 _stdio_common_vswprintf_s
FUNC 3c2dc 13 0 ctype_fast_check_internal
FUNC 3c2f4 14 0 isdigit_fast_internal
FUNC 3c310 11 0 tolower_fast_internal
FUNC 3c328 24 0 __crt_strtox::is_overflow_condition<unsigned long>(unsigned int,unsigned long)
FUNC 3c358 30 0 __crt_strtox::is_overflow_condition<unsigned __int64>(unsigned int,unsigned __int64)
FUNC 3c394 13 0 __crt_strtox::make_c_string_character_source<char,std::nullptr_t>(char const * const,std::nullptr_t)
FUNC 3c3ac 13 0 __crt_strtox::make_c_string_character_source<wchar_t,std::nullptr_t>(wchar_t const * const,std::nullptr_t)
FUNC 3c3c4 305 0 __crt_strtox::parse_integer<unsigned long,__crt_strtox::c_string_character_source<char> >(__crt_locale_pointers * const,__crt_strtox::c_string_character_source<char>,int,bool)
FUNC 3c78c 6a8 0 __crt_strtox::parse_integer<unsigned long,__crt_strtox::c_string_character_source<wchar_t> >(__crt_locale_pointers * const,__crt_strtox::c_string_character_source<wchar_t>,int,bool)
FUNC 3cfe0 2f0 0 __crt_strtox::parse_integer<unsigned __int64,__crt_strtox::c_string_character_source<char> >(__crt_locale_pointers * const,__crt_strtox::c_string_character_source<char>,int,bool)
FUNC 3d38c 758 0 __crt_strtox::parse_integer<unsigned __int64,__crt_strtox::c_string_character_source<wchar_t> >(__crt_locale_pointers * const,__crt_strtox::c_string_character_source<wchar_t>,int,bool)
FUNC 3dcbc 2e 0 __crt_strtox::parse_integer_from_string<long,char,std::nullptr_t>(char const * const,std::nullptr_t,int,__crt_locale_pointers * const)
FUNC 3dcf8 2e 0 __crt_strtox::parse_integer_from_string<long,wchar_t,std::nullptr_t>(wchar_t const * const,std::nullptr_t,int,__crt_locale_pointers * const)
FUNC 3dd34 2e 0 __crt_strtox::parse_integer_from_string<__int64,char,std::nullptr_t>(char const * const,std::nullptr_t,int,__crt_locale_pointers * const)
FUNC 3dd70 2e 0 __crt_strtox::parse_integer_from_string<__int64,wchar_t,std::nullptr_t>(wchar_t const * const,std::nullptr_t,int,__crt_locale_pointers * const)
FUNC 3ddac 13 0 __crt_strtox::c_string_character_source<char>::c_string_character_source<char>(char const * const,char const * * const)
FUNC 3ddc4 13 0 __crt_strtox::c_string_character_source<wchar_t>::c_string_character_source<wchar_t>(wchar_t const * const,wchar_t const * * const)
FUNC 3dddc 10 0 __crt_strtox::c_string_character_source<char>::~c_string_character_source<char>()
FUNC 3ddf0 10 0 __crt_strtox::c_string_character_source<wchar_t>::~c_string_character_source<wchar_t>()
FUNC 3de04 c 0 __crt_strtox::c_string_character_source<char>::get()
FUNC 3de14 e 0 __crt_strtox::c_string_character_source<wchar_t>::get()
FUNC 3de28 1e 0 __crt_strtox::is_space(char,__crt_locale_pointers * const)
FUNC 3de50 18 0 __crt_strtox::is_space(wchar_t,__crt_locale_pointers *)
FUNC 3de70 6 0 __crt_strtox::maximum_signed_value(unsigned long)
FUNC 3de78 b 0 __crt_strtox::maximum_signed_value(unsigned __int64)
FUNC 3de88 6 0 __crt_strtox::minimum_signed_value(unsigned long)
FUNC 3de90 b 0 __crt_strtox::minimum_signed_value(unsigned __int64)
FUNC 3dea0 2e 0 __crt_strtox::parse_digit(char)
FUNC 3dedc 1d0 0 __crt_strtox::parse_digit(wchar_t)
FUNC 3e120 6 0 __crt_strtox::c_string_character_source<char>::restore_state(char const * const)
FUNC 3e128 6 0 __crt_strtox::c_string_character_source<wchar_t>::restore_state(wchar_t const * const)
FUNC 3e130 4 0 __crt_strtox::c_string_character_source<char>::save_state()
FUNC 3e134 4 0 __crt_strtox::c_string_character_source<wchar_t>::save_state()
FUNC 3e138 2a 0 __crt_strtox::c_string_character_source<char>::unget(char)
FUNC 3e16c 2d 0 __crt_strtox::c_string_character_source<wchar_t>::unget(wchar_t)
FUNC 3e1a4 25 0 __crt_strtox::c_string_character_source<char>::validate()
FUNC 3e1d4 25 0 __crt_strtox::c_string_character_source<wchar_t>::validate()
FUNC 3e204 1a0 0 __crt_strtox::wide_character_to_digit(wchar_t)
FUNC 3e40c 4 0 _acrt_get_locale_data_prefix
FUNC 3e410 19 0 _ascii_iswalpha
FUNC 3e430 e 0 _ascii_toupper
FUNC 3e444 d 0 _ascii_towupper
FUNC 3e454 29 0 atoi64
FUNC 3e488 2d 0 atoi64_l
FUNC 3e4c0 2d 0 atoi_l
FUNC 3e4f8 2d 0 atol_l
FUNC 3e530 2d 0 atoll_l
FUNC 3e568 61 0 chvalidchk_l
FUNC 3e5e4 76 0 ischartype_l
FUNC 3e678 29 0 wtoi
FUNC 3e6ac 29 0 wtoi64
FUNC 3e6e0 2d 0 wtoi64_l
FUNC 3e718 2d 0 wtoi_l
FUNC 3e750 29 0 wtol
FUNC 3e784 2d 0 wtol_l
FUNC 3e7bc 29 0 wtoll
FUNC 3e7f0 2d 0 wtoll_l
FUNC 3e828 29 0 atoi
FUNC 3e85c 29 0 atol
FUNC 3e890 29 0 atoll
FUNC 3e8e0 7d 0 strncmp
FUNC 3e980 1c 0 set_abort_behavior
FUNC 3e9a4 56 0 abort
FUNC 3ea10 5 0 calloc
FUNC 3ea18 2c 0 wcsncmp
FUNC 3ea50 8 0 __crt_internal_free_policy::operator()<__acrt_ptd>(__acrt_ptd const * const)
FUNC 3ea5c 3f 0 __crt_seh_guarded_call<void>::operator()<<lambda_0ae27a3a962d80f24befdcbee591983d>,<lambda_8d0ee55de4b1038c4002e0adecdf1839> &,<lambda_dc504788e8f1664fe9b84e20bfb512f2> >
FUNC 3eaac 3d 0 __crt_seh_guarded_call<void>::operator()<<lambda_2d41944a1d46af3157314b8a01080d33>,<lambda_8f455de75cd7d7f24b4096f044d8b9e6> &,<lambda_aa500f224e6afead328df44964fe2772> >
FUNC 3eaf8 45 0 __crt_seh_guarded_call<void>::operator()<<lambda_aa87e3671a710a21b5dc78c0bdf72e11>,<lambda_92619d2358a28f41a33ba319515a20b9> &,<lambda_6992ecaafeb10aed2b74cb1fae11a551> >
FUNC 3eb50 5f 0 __crt_seh_guarded_call<void>::operator()<<lambda_f2e299630e499de9f9a165e60fcd3db5>,<lambda_2ae9d31cdba2644fcbeaf08da7c24588> &,<lambda_40d01ff24d0e7b3814fdbdcee8eab3c7> >
FUNC 3ebc8 26 0 __acrt_lock_and_call<<lambda_2ae9d31cdba2644fcbeaf08da7c24588> >
FUNC 3ebf8 26 0 __acrt_lock_and_call<<lambda_8d0ee55de4b1038c4002e0adecdf1839> >
FUNC 3ec28 26 0 __acrt_lock_and_call<<lambda_8f455de75cd7d7f24b4096f044d8b9e6> >
FUNC 3ec58 26 0 __acrt_lock_and_call<<lambda_92619d2358a28f41a33ba319515a20b9> >
FUNC 3ec88 8 0 <lambda_0ae27a3a962d80f24befdcbee591983d>::<lambda_0ae27a3a962d80f24befdcbee591983d>
FUNC 3ec94 7 0 <lambda_2ae9d31cdba2644fcbeaf08da7c24588>::<lambda_2ae9d31cdba2644fcbeaf08da7c24588>
FUNC 3ec9c 8 0 <lambda_2d41944a1d46af3157314b8a01080d33>::<lambda_2d41944a1d46af3157314b8a01080d33>
FUNC 3eca8 8 0 <lambda_40d01ff24d0e7b3814fdbdcee8eab3c7>::<lambda_40d01ff24d0e7b3814fdbdcee8eab3c7>
FUNC 3ecb4 8 0 <lambda_6992ecaafeb10aed2b74cb1fae11a551>::<lambda_6992ecaafeb10aed2b74cb1fae11a551>
FUNC 3ecc0 7 0 <lambda_8d0ee55de4b1038c4002e0adecdf1839>::<lambda_8d0ee55de4b1038c4002e0adecdf1839>
FUNC 3ecc8 7 0 <lambda_8f455de75cd7d7f24b4096f044d8b9e6>::<lambda_8f455de75cd7d7f24b4096f044d8b9e6>
FUNC 3ecd0 b 0 <lambda_92619d2358a28f41a33ba319515a20b9>::<lambda_92619d2358a28f41a33ba319515a20b9>
FUNC 3ece0 8 0 <lambda_aa500f224e6afead328df44964fe2772>::<lambda_aa500f224e6afead328df44964fe2772>
FUNC 3ecec 8 0 <lambda_aa87e3671a710a21b5dc78c0bdf72e11>::<lambda_aa87e3671a710a21b5dc78c0bdf72e11>
FUNC 3ecf8 8 0 <lambda_dc504788e8f1664fe9b84e20bfb512f2>::<lambda_dc504788e8f1664fe9b84e20bfb512f2>
FUNC 3ed04 8 0 <lambda_f2e299630e499de9f9a165e60fcd3db5>::<lambda_f2e299630e499de9f9a165e60fcd3db5>
FUNC 3ed10 7 0 __crt_unique_heap_ptr<__acrt_ptd,__crt_internal_free_policy>::__crt_unique_heap_ptr<__acrt_ptd,__crt_internal_free_policy>(__acrt_ptd * const)
FUNC 3ed18 1a 0 __crt_scoped_get_last_error_reset::__crt_scoped_get_last_error_reset()
FUNC 3ed38 1b 0 __crt_unique_heap_ptr<__acrt_ptd,__crt_internal_free_policy>::~__crt_unique_heap_ptr<__acrt_ptd,__crt_internal_free_policy>()
FUNC 3ed5c 9 0 __crt_scoped_get_last_error_reset::~__crt_scoped_get_last_error_reset()
FUNC 3ed68 8 0 __crt_unique_heap_ptr<__acrt_ptd,__crt_internal_free_policy>::operator bool()
FUNC 3ed74 7 0 <lambda_0ae27a3a962d80f24befdcbee591983d>::operator()
FUNC 3ed7c 38 0 <lambda_2ae9d31cdba2644fcbeaf08da7c24588>::operator()
FUNC 3edc4 7 0 <lambda_2d41944a1d46af3157314b8a01080d33>::operator()
FUNC 3edcc 7 0 <lambda_40d01ff24d0e7b3814fdbdcee8eab3c7>::operator()
FUNC 3edd4 7 0 <lambda_6992ecaafeb10aed2b74cb1fae11a551>::operator()
FUNC 3eddc 11 0 <lambda_8d0ee55de4b1038c4002e0adecdf1839>::operator()
FUNC 3edf4 d 0 <lambda_8f455de75cd7d7f24b4096f044d8b9e6>::operator()
FUNC 3ee04 15 0 <lambda_92619d2358a28f41a33ba319515a20b9>::operator()
FUNC 3ee20 7 0 <lambda_aa500f224e6afead328df44964fe2772>::operator()
FUNC 3ee28 7 0 <lambda_aa87e3671a710a21b5dc78c0bdf72e11>::operator()
FUNC 3ee30 7 0 <lambda_dc504788e8f1664fe9b84e20bfb512f2>::operator()
FUNC 3ee38 7 0 <lambda_f2e299630e499de9f9a165e60fcd3db5>::operator()
FUNC 3ee40 c5 0 construct_ptd
FUNC 3ef38 cd 0 construct_ptd_array
FUNC 3f038 4 0 __crt_state_management::dual_state_global<__crt_locale_data *>::dangerous_get_state_array
FUNC 3f03c 20 0 destroy_fls
FUNC 3f064 f5 0 destroy_ptd
FUNC 3f198 f5 0 destroy_ptd_array
FUNC 3f2cc 8 0 __crt_unique_heap_ptr<__acrt_ptd,__crt_internal_free_policy>::detach()
FUNC 3f2d8 4 0 __crt_unique_heap_ptr<__acrt_ptd,__crt_internal_free_policy>::get()
FUNC 3f2dc 3 0 __crt_state_management::get_current_state_index(__crt_scoped_get_last_error_reset const &)
FUNC 3f2e0 9f 0 internal_get_ptd_head
FUNC 3f3a8 c8 0 internal_getptd_noexit
FUNC 3f4a4 8 0 __crt_unique_heap_ptr<__acrt_ptd,__crt_internal_free_policy>::is_valid()
FUNC 3f4b0 1b 0 __crt_unique_heap_ptr<__acrt_ptd,__crt_internal_free_policy>::release()
FUNC 3f4d4 67 0 replace_current_thread_locale_nolock
FUNC 3f554 20 0 try_get_ptd_head
FUNC 3f57c 4 0 __crt_state_management::dual_state_global<__crt_locale_data *>::value
FUNC 3f580 41 0 _acrt_freeptd
FUNC 3f5d4 d4 0 _acrt_getptd
FUNC 3f6e0 a7 0 _acrt_getptd_head
FUNC 3f7b0 cc 0 _acrt_getptd_noexit
FUNC 3f8b0 39 0 _acrt_initialize_ptd
FUNC 3f8f8 22 0 _acrt_uninitialize_ptd
FUNC 3f924 7 0 _threadhandle
FUNC 3f92c 7 0 _threadid
FUNC 3f934 8 0 select_heap
FUNC 3f940 3d 0 free_base
FUNC 3f98c 48 0 _acrt_initialize_locks
FUNC 3f9e8 19 0 _acrt_lock
FUNC 3fa08 37 0 _acrt_uninitialize_locks
FUNC 3fa4c 19 0 _acrt_unlock
FUNC 3fa6c 1b 0 lock_locales
FUNC 3fa90 e 0 unlock_locales
FUNC 3faa4 4c 0 get_cached_win_policy<`__acrt_get_begin_thread_init_policy'::`2'::begin_thread_init_policy_properties>
FUNC 3fb04 4c 0 get_cached_win_policy<`__acrt_get_developer_information_policy'::`2'::developer_information_policy_properties>
FUNC 3fb64 69 0 get_cached_win_policy<`__acrt_get_windowing_model_policy'::`2'::windowing_model_policy_properties>
FUNC 3fbe8 38 0 get_win_policy<`__acrt_get_process_end_policy'::`2'::process_end_policy_properties>
FUNC 3fc30 5 0 `__acrt_get_begin_thread_init_policy'::`2'::begin_thread_init_policy_properties::appmodel_get_policy
FUNC 3fc38 5 0 `__acrt_get_developer_information_policy'::`2'::developer_information_policy_properties::appmodel_get_policy
FUNC 3fc40 5 0 `__acrt_get_process_end_policy'::`2'::process_end_policy_properties::appmodel_get_policy
FUNC 3fc48 5 0 `__acrt_get_windowing_model_policy'::`2'::windowing_model_policy_properties::appmodel_get_policy
FUNC 3fc50 b 0 `__acrt_get_begin_thread_init_policy'::`2'::begin_thread_init_policy_properties::appmodel_policy_to_policy_type
FUNC 3fc60 b 0 `__acrt_get_developer_information_policy'::`2'::developer_information_policy_properties::appmodel_policy_to_policy_type
FUNC 3fc70 9 0 `__acrt_get_process_end_policy'::`2'::process_end_policy_properties::appmodel_policy_to_policy_type
FUNC 3fc7c 27 0 `__acrt_get_windowing_model_policy'::`2'::windowing_model_policy_properties::appmodel_policy_to_policy_type
FUNC 3fcac 51 0 _acrt_get_begin_thread_init_policy
FUNC 3fd14 51 0 _acrt_get_developer_information_policy
FUNC 3fd7c 3c 0 _acrt_get_process_end_policy
FUNC 3fdc8 6c 0 _acrt_get_windowing_model_policy
FUNC 3fe50 45 0 _acrt_errno_from_os_error
FUNC 3fea8 4e 0 _acrt_errno_map_os_error
FUNC 3ff0c 20 0 _doserrno
FUNC 3ff34 20 0 errno
FUNC 3ff5c 3b 0 get_doserrno
FUNC 3ffa8 3b 0 get_errno
FUNC 3fff4 3a 0 set_doserrno
FUNC 4003c 3a 0 set_errno
FUNC 40084 75 0 calloc_base
FUNC 40118 12 0 <lambda_861af8918f661c876f88da8747958ced>::<lambda_invoker_cdecl>
FUNC 40130 12 0 <lambda_a1ce4c8ae42411fd470c77163914f50e>::<lambda_invoker_cdecl>
FUNC 40148 179 0 __acrt_convert_wcs_mbs_cp<char,wchar_t,<lambda_7c9dea7b4ca7285d2cdb541a38da6275>,__crt_win32_buffer_internal_dynamic_resizing>
FUNC 40320 18b 0 __acrt_convert_wcs_mbs_cp<wchar_t,char,<lambda_d8593a27d1aa8c02be35c86a17d324c4>,__crt_win32_buffer_internal_dynamic_resizing>
FUNC 40510 176 0 __acrt_mbs_to_wcs_cp<__crt_win32_buffer_internal_dynamic_resizing>(char const * const,__crt_win32_buffer<wchar_t,__crt_win32_buffer_internal_dynamic_resizing> &,unsigned int)
FUNC 406e4 18a 0 __acrt_wcs_to_mbs_cp<__crt_win32_buffer_internal_dynamic_resizing>(wchar_t const * const,__crt_win32_buffer<char,__crt_win32_buffer_internal_dynamic_resizing> &,unsigned int)
FUNC 408d0 209 0 common_expand_argv_wildcards<char>
FUNC 40b5c 3ca 0 common_expand_argv_wildcards<wchar_t>
FUNC 41018 187 0 copy_and_add_argument_to_buffer<char>
FUNC 41200 189 0 copy_and_add_argument_to_buffer<wchar_t>
FUNC 413ec 30e 0 expand_argument_wildcards<char>
FUNC 417c0 19b 0 expand_argument_wildcards<wchar_t>
FUNC 419c4 11 0 __crt_char_traits<char>::tcslen<char const * const &>
FUNC 419dc 12 0 __crt_char_traits<wchar_t>::tcslen<wchar_t const * const &>
FUNC 419f4 11 0 __crt_char_traits<char>::tcsncpy_s<char * &,unsigned __int64,char * &,unsigned __int64 const &>
FUNC 41a0c 11 0 __crt_char_traits<wchar_t>::tcsncpy_s<wchar_t * &,unsigned __int64,wchar_t * &,unsigned __int64 const &>
FUNC 41a24 11 0 __crt_char_traits<char>::tcsncpy_s<char *,unsigned __int64 const &,char const * const &,unsigned __int64 const &>
FUNC 41a3c 11 0 __crt_char_traits<char>::tcsncpy_s<char *,unsigned __int64,char const * const &,unsigned __int64 const &>
FUNC 41a54 11 0 __crt_char_traits<wchar_t>::tcsncpy_s<wchar_t *,unsigned __int64 const &,wchar_t const * const &,unsigned __int64 const &>
FUNC 41a6c 11 0 __crt_char_traits<wchar_t>::tcsncpy_s<wchar_t *,unsigned __int64,wchar_t const * const &,unsigned __int64 const &>
FUNC 41a84 8 0 __crt_char_traits<char>::tcspbrk<char * &,char const (&)[3]>
FUNC 41a90 8 0 __crt_char_traits<wchar_t>::tcspbrk<wchar_t * &,wchar_t const (&)[3]>
FUNC 41a9c 7 0 __crt_unique_handle_t<__crt_findfile_traits>::__crt_unique_handle_t<__crt_findfile_traits>(void * const)
FUNC 41aa4 1c 0 __crt_win32_buffer<char,__crt_win32_buffer_internal_dynamic_resizing>::__crt_win32_buffer<char,__crt_win32_buffer_internal_dynamic_resizing>()
FUNC 41ac8 1c 0 __crt_win32_buffer<wchar_t,__crt_win32_buffer_internal_dynamic_resizing>::__crt_win32_buffer<wchar_t,__crt_win32_buffer_internal_dynamic_resizing>()
FUNC 41aec 11 0 `anonymous namespace'::argument_list<char>::argument_list<char>
FUNC 41b04 11 0 `anonymous namespace'::argument_list<wchar_t>::argument_list<wchar_t>
FUNC 41b1c 22 0 __crt_unique_handle_t<__crt_findfile_traits>::~__crt_unique_handle_t<__crt_findfile_traits>()
FUNC 41b48 22 0 __crt_win32_buffer<char,__crt_win32_buffer_internal_dynamic_resizing>::~__crt_win32_buffer<char,__crt_win32_buffer_internal_dynamic_resizing>()
FUNC 41b74 22 0 __crt_win32_buffer<wchar_t,__crt_win32_buffer_internal_dynamic_resizing>::~__crt_win32_buffer<wchar_t,__crt_win32_buffer_internal_dynamic_resizing>()
FUNC 41ba0 3d 0 `anonymous namespace'::argument_list<char>::~argument_list<char>
FUNC 41bec 3d 0 `anonymous namespace'::argument_list<wchar_t>::~argument_list<wchar_t>
FUNC 41c38 8 0 <lambda_861af8918f661c876f88da8747958ced>::operator int (__cdecl*)(void const *,void const *)
FUNC 41c44 8 0 <lambda_a1ce4c8ae42411fd470c77163914f50e>::operator int (__cdecl*)(void const *,void const *)
FUNC 41c50 25 0 <lambda_7c9dea7b4ca7285d2cdb541a38da6275>::operator()
FUNC 41c80 12 0 <lambda_861af8918f661c876f88da8747958ced>::operator()
FUNC 41c98 12 0 <lambda_a1ce4c8ae42411fd470c77163914f50e>::operator()
FUNC 41cb0 23 0 <lambda_cc44a96f04e0393500626269309609b4>::operator()
FUNC 41cdc 22 0 <lambda_cfae5a0e6efa98e0d1aa03c4cec8f74e>::operator()
FUNC 41d08 2f 0 <lambda_d8593a27d1aa8c02be35c86a17d324c4>::operator()
FUNC 41d44 49 0 __acrt_get_utf8_acp_compatibility_codepage()
FUNC 41da0 22 0 __crt_win32_buffer<char,__crt_win32_buffer_internal_dynamic_resizing>::_deallocate()
FUNC 41dcc 22 0 __crt_win32_buffer<wchar_t,__crt_win32_buffer_internal_dynamic_resizing>::_deallocate()
FUNC 41df8 5b 0 __crt_win32_buffer<char,__crt_win32_buffer_internal_dynamic_resizing>::allocate(unsigned __int64)
FUNC 41e6c 5c 0 __crt_win32_buffer<wchar_t,__crt_win32_buffer_internal_dynamic_resizing>::allocate(unsigned __int64)
FUNC 41ee0 24 0 __crt_win32_buffer_internal_dynamic_resizing::allocate(void * * const,unsigned __int64,__crt_win32_buffer_empty_debug_info const &)
FUNC 41f10 de 0 `anonymous namespace'::argument_list<char>::append
FUNC 42028 de 0 `anonymous namespace'::argument_list<wchar_t>::append
FUNC 42140 4 0 `anonymous namespace'::argument_list<char>::begin
FUNC 42144 4 0 `anonymous namespace'::argument_list<wchar_t>::begin
FUNC 42148 5 0 __crt_win32_buffer<char,__crt_win32_buffer_internal_dynamic_resizing>::capacity()
FUNC 42150 5 0 __crt_win32_buffer<wchar_t,__crt_win32_buffer_internal_dynamic_resizing>::capacity()
FUNC 42158 22 0 __crt_unique_handle_t<__crt_findfile_traits>::close()
FUNC 42184 14 0 __crt_findfile_traits::close(void *)
FUNC 421a0 5 0 __crt_win32_buffer<char,__crt_win32_buffer_internal_dynamic_resizing>::data()
FUNC 421a8 5 0 __crt_win32_buffer<wchar_t,__crt_win32_buffer_internal_dynamic_resizing>::data()
FUNC 421b0 5 0 __crt_win32_buffer_internal_dynamic_resizing::deallocate(void * const,__crt_win32_buffer_empty_debug_info const &)
FUNC 421b8 4 0 __crt_win32_buffer<char,__crt_win32_buffer_internal_dynamic_resizing>::debug_info()
FUNC 421bc 4 0 __crt_win32_buffer<wchar_t,__crt_win32_buffer_internal_dynamic_resizing>::debug_info()
FUNC 421c0 5 0 `anonymous namespace'::argument_list<char>::end
FUNC 421c8 5 0 `anonymous namespace'::argument_list<wchar_t>::end
FUNC 421d0 c7 0 `anonymous namespace'::argument_list<char>::expand_if_necessary
FUNC 422c8 c7 0 `anonymous namespace'::argument_list<wchar_t>::expand_if_necessary
FUNC 423c0 4 0 __crt_unique_handle_t<__crt_findfile_traits>::get()
FUNC 423c4 9d 0 get_file_name
FUNC 42488 4 0 get_file_name
FUNC 4248c 5 0 __crt_findfile_traits::get_invalid_value()
FUNC 42494 4 0 get_wide
FUNC 42498 9d 0 get_wide
FUNC 4255c 5 0 previous_character
FUNC 42564 5 0 previous_character
FUNC 4256c 31 0 __crt_win32_buffer<char,__crt_win32_buffer_internal_dynamic_resizing>::set_to_nullptr()
FUNC 425ac 31 0 __crt_win32_buffer<wchar_t,__crt_win32_buffer_internal_dynamic_resizing>::set_to_nullptr()
FUNC 425ec 5 0 __crt_win32_buffer<char,__crt_win32_buffer_internal_dynamic_resizing>::size(unsigned __int64)
FUNC 425f4 5 0 __crt_win32_buffer<wchar_t,__crt_win32_buffer_internal_dynamic_resizing>::size(unsigned __int64)
FUNC 425fc c 0 `anonymous namespace'::argument_list<char>::size
FUNC 4260c c 0 `anonymous namespace'::argument_list<wchar_t>::size
FUNC 4261c 5 0 strpbrk(char * const,char const * const)
FUNC 42624 5 0 wcspbrk(wchar_t *,wchar_t const *)
FUNC 4262c 5 0 _acrt_expand_narrow_argv_wildcards
FUNC 42634 5 0 _acrt_expand_wide_argv_wildcards
FUNC 4263c 119 0 __acrt_convert_wcs_mbs_cp<wchar_t,char,<lambda_f788ae46380686e8b737efdd8c720d07>,__crt_win32_buffer_no_resizing>
FUNC 4279c 111 0 __acrt_wcs_to_mbs_cp<__crt_win32_buffer_no_resizing>(wchar_t const * const,__crt_win32_buffer<char,__crt_win32_buffer_no_resizing> &,unsigned int)
FUNC 428f4 1c 0 __crt_win32_buffer<char,__crt_win32_buffer_no_resizing>::__crt_win32_buffer<char,__crt_win32_buffer_no_resizing>(char * const,unsigned __int64)
FUNC 42918 b 0 __crt_win32_buffer<char,__crt_win32_buffer_no_resizing>::~__crt_win32_buffer<char,__crt_win32_buffer_no_resizing>()
FUNC 42928 2f 0 <lambda_f788ae46380686e8b737efdd8c720d07>::operator()
FUNC 42964 b 0 __crt_win32_buffer<char,__crt_win32_buffer_no_resizing>::_deallocate()
FUNC 42974 30 0 __crt_win32_buffer<char,__crt_win32_buffer_no_resizing>::allocate(unsigned __int64)
FUNC 429b0 17 0 __crt_win32_buffer_no_resizing::allocate(void * * const,unsigned __int64,__crt_win32_buffer_empty_debug_info const &)
FUNC 429cc 5 0 __crt_win32_buffer<char,__crt_win32_buffer_no_resizing>::capacity()
FUNC 429d4 5 0 __crt_win32_buffer<char,__crt_win32_buffer_no_resizing>::data()
FUNC 429dc 3 0 __crt_win32_buffer_no_resizing::deallocate(void * const,__crt_win32_buffer_empty_debug_info const &)
FUNC 429e0 4 0 __crt_win32_buffer<char,__crt_win32_buffer_no_resizing>::debug_info()
FUNC 429e4 17 0 __crt_win32_buffer<char,__crt_win32_buffer_no_resizing>::set_to_nullptr()
FUNC 42a00 5 0 __crt_win32_buffer<char,__crt_win32_buffer_no_resizing>::size(unsigned __int64)
FUNC 42a08 5 0 __crt_win32_buffer<char,__crt_win32_buffer_no_resizing>::size()
FUNC 42a10 11e 0 _acrt_GetModuleFileNameA
FUNC 42b78 8 0 __crt_internal_free_policy::operator()<__crt_multibyte_data>(__crt_multibyte_data const * const)
FUNC 42b84 1ba 0 __crt_seh_guarded_call<void>::operator()<<lambda_efdfa57d1f175319df784efa44bb7b81>,<lambda_5f0a4c1567f8adc6734073e5d1e1b35c> &,<lambda_2e8a7d3640ea6ccb4c2413664c2db6fd> >
FUNC 42dac 26 0 __acrt_lock_and_call<<lambda_5f0a4c1567f8adc6734073e5d1e1b35c> >
FUNC 42ddc 4 0 __crt_state_management::dual_state_global<unsigned char *>::initialize_from_array<unsigned char [1][256]>
FUNC 42de0 4 0 __crt_state_management::dual_state_global<unsigned char *>::initialize_from_array<unsigned char [1][257]>
FUNC 42de4 8 0 <lambda_2e8a7d3640ea6ccb4c2413664c2db6fd>::<lambda_2e8a7d3640ea6ccb4c2413664c2db6fd>
FUNC 42df0 b 0 <lambda_5f0a4c1567f8adc6734073e5d1e1b35c>::<lambda_5f0a4c1567f8adc6734073e5d1e1b35c>
FUNC 42e00 8 0 <lambda_efdfa57d1f175319df784efa44bb7b81>::<lambda_efdfa57d1f175319df784efa44bb7b81>
FUNC 42e0c 7 0 __crt_unique_heap_ptr<__crt_multibyte_data,__crt_internal_free_policy>::__crt_unique_heap_ptr<__crt_multibyte_data,__crt_internal_free_policy>(__crt_multibyte_data * const)
FUNC 42e14 1b 0 __crt_unique_heap_ptr<__crt_multibyte_data,__crt_internal_free_policy>::~__crt_unique_heap_ptr<__crt_multibyte_data,__crt_internal_free_policy>()
FUNC 42e38 8 0 __crt_unique_heap_ptr<__crt_multibyte_data,__crt_internal_free_policy>::operator bool()
FUNC 42e44 7 0 <lambda_2e8a7d3640ea6ccb4c2413664c2db6fd>::operator()
FUNC 42e4c 1a0 0 <lambda_5f0a4c1567f8adc6734073e5d1e1b35c>::operator()
FUNC 43054 7 0 <lambda_efdfa57d1f175319df784efa44bb7b81>::operator()
FUNC 4305c 3a 0 CPtoLocaleName
FUNC 430a4 4 0 __crt_state_management::dual_state_global<unsigned char *>::dangerous_get_state_array
FUNC 430a8 4 0 __crt_state_management::dual_state_global<__crt_multibyte_data *>::dangerous_get_state_array
FUNC 430ac 8 0 __crt_unique_heap_ptr<__crt_multibyte_data,__crt_internal_free_policy>::detach()
FUNC 430b8 4 0 __crt_unique_heap_ptr<__crt_multibyte_data,__crt_internal_free_policy>::get()
FUNC 430bc 7d 0 getSystemCP
FUNC 43158 27 0 __crt_state_management::dual_state_global<__crt_multibyte_data *>::initialize
FUNC 43188 8 0 __crt_unique_heap_ptr<__crt_multibyte_data,__crt_internal_free_policy>::is_valid()
FUNC 43194 1b 0 __crt_unique_heap_ptr<__crt_multibyte_data,__crt_internal_free_policy>::release()
FUNC 431b8 90 0 setSBCS
FUNC 4326c 1e3 0 setSBUpLow
FUNC 434c8 1c2 0 setmbcp_internal
FUNC 436fc b8 0 update_thread_multibyte_data_internal
FUNC 437e4 4 0 __crt_state_management::dual_state_global<unsigned char *>::value
FUNC 437e8 4 0 __crt_state_management::dual_state_global<__crt_multibyte_data *>::value
FUNC 437ec 60 0 _acrt_initialize_multibyte
FUNC 43864 1c 0 _acrt_update_thread_multibyte_data
FUNC 43888 8 0 _p__mbcasemap
FUNC 43894 8 0 _p__mbctype
FUNC 438a0 3a 0 getmbcp
FUNC 438e8 25 0 setmbcp
FUNC 43918 2b9 0 setmbcp_nolock
FUNC 43c80 87 0 memcpy_s
FUNC 43d28 75 0 x_ismbbtype_l
FUNC 43dbc 15 0 ismbbalnum
FUNC 43dd8 19 0 ismbbalnum_l
FUNC 43df8 15 0 ismbbalpha
FUNC 43e14 19 0 ismbbalpha_l
FUNC 43e34 1c 0 ismbbblank
FUNC 43e58 20 0 ismbbblank_l
FUNC 43e80 15 0 ismbbgraph
FUNC 43e9c 19 0 ismbbgraph_l
FUNC 43ebc 12 0 ismbbkalnum
FUNC 43ed4 16 0 ismbbkalnum_l
FUNC 43ef0 7 0 ismbbkana
FUNC 43ef8 65 0 ismbbkana_l
FUNC 43f78 12 0 ismbbkprint
FUNC 43f90 16 0 ismbbkprint_l
FUNC 43fac 12 0 ismbbkpunct
FUNC 43fc4 16 0 ismbbkpunct_l
FUNC 43fe0 12 0 ismbblead
FUNC 43ff8 16 0 ismbblead_l
FUNC 44014 15 0 ismbbprint
FUNC 44030 19 0 ismbbprint_l
FUNC 44050 13 0 ismbbpunct
FUNC 44068 17 0 ismbbpunct_l
FUNC 44084 12 0 ismbbtrail
FUNC 4409c 16 0 ismbbtrail_l
FUNC 440b8 25 0 _acrt_initialize_command_line
FUNC 440e8 3 0 _acrt_uninitialize_command_line
FUNC 440ec 8 0 _p___argc
FUNC 440f8 8 0 _p___argv
FUNC 44104 8 0 _p___wargv
FUNC 44110 8 0 _p__acmdln
FUNC 4411c 8 0 _p__pgmptr
FUNC 44128 8 0 _p__wcmdln
FUNC 44134 8 0 _p__wpgmptr
FUNC 44140 36 0 get_pgmptr
FUNC 44184 36 0 get_wpgmptr
FUNC 441c8 6c 0 common_tcscpy_s<wchar_t>
FUNC 44250 65 0 wcscpy_s
FUNC 442d0 55 0 filter_mbtowcs_flags
FUNC 4433c 5a 0 _acrt_MultiByteToWideChar
FUNC 443ac 44 0 filter_wcstomb_flags
FUNC 44404 96 0 _acrt_WideCharToMultiByte
FUNC 444c0 7 0 __crt_unique_handle_t<`anonymous namespace'::environment_strings_traits>::__crt_unique_handle_t<`anonymous namespace'::environment_strings_traits>
FUNC 444c8 21 0 __crt_unique_handle_t<`anonymous namespace'::environment_strings_traits>::~__crt_unique_handle_t<`anonymous namespace'::environment_strings_traits>
FUNC 444f4 8 0 __crt_unique_handle_t<`anonymous namespace'::environment_strings_traits>::operator bool
FUNC 44500 21 0 __crt_unique_handle_t<`anonymous namespace'::environment_strings_traits>::close
FUNC 4452c 11 0 `anonymous namespace'::environment_strings_traits::close
FUNC 44544 23 0 find_end_of_double_null_terminated_sequence
FUNC 44570 4 0 __crt_unique_handle_t<`anonymous namespace'::environment_strings_traits>::get
FUNC 44574 3 0 `anonymous namespace'::environment_strings_traits::get_invalid_value
FUNC 44578 8 0 __crt_unique_handle_t<`anonymous namespace'::environment_strings_traits>::is_valid
FUNC 44584 101 0 _dcrt_get_narrow_environment_from_os
FUNC 446c8 9f 0 _dcrt_get_wide_environment_from_os
FUNC 44790 320 0 common_set_variable_in_environment_nolock<char>
FUNC 44b78 322 0 common_set_variable_in_environment_nolock<wchar_t>
FUNC 44f64 e5 0 copy_environment<char>
FUNC 45084 ef 0 copy_environment<wchar_t>
FUNC 451b0 25 0 ensure_current_environment_is_not_initial_environment_nolock<char>
FUNC 451e0 25 0 ensure_current_environment_is_not_initial_environment_nolock<wchar_t>
FUNC 45210 81 0 find_in_environment_nolock<char>
FUNC 452b4 91 0 find_in_environment_nolock<wchar_t>
FUNC 4536c 5 0 __crt_char_traits<char>::get_or_create_environment_nolock<>()
FUNC 45374 5 0 __crt_char_traits<wchar_t>::get_or_create_environment_nolock<>()
FUNC 4537c b 0 __crt_char_traits<char>::set_environment_variable<char * const &,char * const>
FUNC 4538c d 0 __crt_char_traits<wchar_t>::set_environment_variable<wchar_t * const &,wchar_t * const>
FUNC 4539c b 0 __crt_char_traits<char>::tcschr<char * const &,char>
FUNC 453ac b 0 __crt_char_traits<wchar_t>::tcschr<wchar_t * const &,char>
FUNC 453bc e 0 __crt_char_traits<char>::tcscpy_s<char * &,unsigned __int64 const &,char * &>
FUNC 453d0 e 0 __crt_char_traits<wchar_t>::tcscpy_s<wchar_t * &,unsigned __int64 const &,wchar_t * &>
FUNC 453e4 e 0 __crt_char_traits<char>::tcscpy_s<char * const &,unsigned __int64 const &,char * const &>
FUNC 453f8 e 0 __crt_char_traits<wchar_t>::tcscpy_s<wchar_t * const &,unsigned __int64 const &,wchar_t * const &>
FUNC 4540c 11 0 __crt_char_traits<char>::tcslen<char * const &>
FUNC 45424 12 0 __crt_char_traits<wchar_t>::tcslen<wchar_t * const &>
FUNC 4543c e 0 __crt_char_traits<char>::tcsnicoll<char const * const &,char * &,unsigned __int64 const &>
FUNC 45450 e 0 __crt_char_traits<wchar_t>::tcsnicoll<wchar_t const * const &,wchar_t * &,unsigned __int64 const &>
FUNC 45464 8 0 get_environment
FUNC 45470 8 0 get_environment
FUNC 4547c 8 0 get_initial_environment
FUNC 45488 8 0 get_initial_environment
FUNC 45494 8 0 get_other_environment
FUNC 454a0 8 0 get_other_environment
FUNC 454ac 5 0 strchr(char * const,int)
FUNC 454b4 5 0 wcschr(wchar_t *,wchar_t)
FUNC 454bc 5 0 _dcrt_set_variable_in_narrow_environment_nolock
FUNC 454c4 5 0 _dcrt_set_variable_in_wide_environment_nolock
FUNC 454cc 5 0 recalloc
FUNC 454d4 95 0 recalloc_base
FUNC 45590 28 0 <lambda_795c6bd18aed400428efeb9a5f0e1479>::<lambda_invoker_cdecl>
FUNC 455c4 8 0 __crt_fast_encoded_nullptr_t::operator<int __cdecl(wchar_t *,unsigned long,__int64)> int (__cdecl*)(wchar_t *,unsigned long,__int64)
FUNC 455d0 79 0 __crt_seh_guarded_call<int>::operator()<<lambda_48fc4a32460bb0512d3b13f8499328be>,<lambda_6c3dac0a4f3f9cefca9bb494422f9b77> &,<lambda_0a2f2c9f9a56eb2b08bfa6ff61d331c5> >
FUNC 45668 26 0 __acrt_lock_and_call<<lambda_6c3dac0a4f3f9cefca9bb494422f9b77> >
FUNC 45698 16 0 __crt_fast_decode_pointer<int (__cdecl*)(wchar_t *,unsigned long,__int64)>
FUNC 456b4 1e 0 __crt_fast_encode_pointer<int (__cdecl*)(wchar_t *,unsigned long,__int64)>
FUNC 456dc 8 0 <lambda_0a2f2c9f9a56eb2b08bfa6ff61d331c5>::<lambda_0a2f2c9f9a56eb2b08bfa6ff61d331c5>
FUNC 456e8 8 0 <lambda_48fc4a32460bb0512d3b13f8499328be>::<lambda_48fc4a32460bb0512d3b13f8499328be>
FUNC 456f4 7 0 <lambda_6c3dac0a4f3f9cefca9bb494422f9b77>::<lambda_6c3dac0a4f3f9cefca9bb494422f9b77>
FUNC 456fc 8 0 <lambda_795c6bd18aed400428efeb9a5f0e1479>::operator int (__cdecl*)(wchar_t *)
FUNC 45708 7 0 <lambda_0a2f2c9f9a56eb2b08bfa6ff61d331c5>::operator()
FUNC 45710 7 0 <lambda_48fc4a32460bb0512d3b13f8499328be>::operator()
FUNC 45718 53 0 <lambda_6c3dac0a4f3f9cefca9bb494422f9b77>::operator()
FUNC 45780 28 0 <lambda_795c6bd18aed400428efeb9a5f0e1479>::operator()
FUNC 457b4 4d 0 enum_system_locales_ex_nolock
FUNC 45814 5 0 invalid_function_sentinel
FUNC 4581c 1f 0 try_get_AppPolicyGetProcessTerminationMethod
FUNC 45844 1f 0 try_get_AppPolicyGetShowDeveloperDiagnostic
FUNC 4586c 1f 0 try_get_AppPolicyGetThreadInitializationType
FUNC 45894 1f 0 try_get_AppPolicyGetWindowingModel
FUNC 458bc 1c 0 try_get_AreFileApisANSI
FUNC 458e0 1f 0 try_get_CompareStringEx
FUNC 45908 1f 0 try_get_EnumSystemLocalesEx
FUNC 45930 1f 0 try_get_FlsAlloc
FUNC 45958 1f 0 try_get_FlsFree
FUNC 45980 1f 0 try_get_FlsGetValue
FUNC 459a8 1f 0 try_get_FlsSetValue
FUNC 459d0 1f 0 try_get_GetActiveWindow
FUNC 459f8 1f 0 try_get_GetDateFormatEx
FUNC 45a20 1f 0 try_get_GetEnabledXStateFeatures
FUNC 45a48 1f 0 try_get_GetLastActivePopup
FUNC 45a70 1f 0 try_get_GetLocaleInfoEx
FUNC 45a98 1f 0 try_get_GetProcessWindowStation
FUNC 45ac0 1f 0 try_get_GetSystemTimePreciseAsFileTime
FUNC 45ae8 1f 0 try_get_GetTimeFormatEx
FUNC 45b10 1f 0 try_get_GetUserDefaultLocaleName
FUNC 45b38 1f 0 try_get_GetUserObjectInformationW
FUNC 45b60 1f 0 try_get_GetXStateFeaturesMask
FUNC 45b88 1f 0 try_get_InitializeCriticalSectionEx
FUNC 45bb0 1f 0 try_get_IsValidLocaleName
FUNC 45bd8 1f 0 try_get_LCIDToLocaleName
FUNC 45c00 1f 0 try_get_LCMapStringEx
FUNC 45c28 1f 0 try_get_LocaleNameToLCID
FUNC 45c50 1f 0 try_get_LocateXStateFeature
FUNC 45c78 1f 0 try_get_MessageBoxA
FUNC 45ca0 1f 0 try_get_MessageBoxW
FUNC 45cc8 1f 0 try_get_RoInitialize
FUNC 45cf0 1f 0 try_get_RoUninitialize
FUNC 45d18 1f 0 try_get_SetThreadStackGuarantee
FUNC 45d40 1f 0 try_get_SystemFunction036
FUNC 45d68 119 0 try_get_first_available_module
FUNC 45ec8 1d6 0 try_get_function
FUNC 46114 fe 0 try_get_module
FUNC 46254 137 0 try_get_proc_address_from_first_available_module
FUNC 463d8 73 0 try_load_library_from_system_directory
FUNC 46468 8 0 GetCurrentThreadEffectiveToken
FUNC 46474 4e 0 _acrt_AppPolicyGetProcessTerminationMethodInternal
FUNC 464d8 4e 0 _acrt_AppPolicyGetShowDeveloperDiagnosticInternal
FUNC 4653c 4e 0 _acrt_AppPolicyGetThreadInitializationTypeInternal
FUNC 465a0 4e 0 _acrt_AppPolicyGetWindowingModelInternal
FUNC 46604 3a 0 _acrt_AreFileApisANSI
FUNC 4664c dc 0 _acrt_CompareStringEx
FUNC 46760 95 0 _acrt_EnumSystemLocalesEx
FUNC 4681c 48 0 _acrt_FlsAlloc
FUNC 46878 46 0 _acrt_FlsFree
FUNC 468d0 46 0 _acrt_FlsGetValue
FUNC 46928 51 0 _acrt_FlsSetValue
FUNC 46990 b6 0 _acrt_GetDateFormatEx
FUNC 46a74 39 0 _acrt_GetEnabledXStateFeatures
FUNC 46abc 82 0 _acrt_GetLocaleInfoEx
FUNC 46b60 48 0 _acrt_GetSystemTimePreciseAsFileTime
FUNC 46bbc ab 0 _acrt_GetTimeFormatEx
FUNC 46c94 61 0 _acrt_GetUserDefaultLocaleName
FUNC 46d10 51 0 _acrt_GetXStateFeaturesMask
FUNC 46d78 61 0 _acrt_InitializeCriticalSectionEx
FUNC 46df4 56 0 _acrt_IsValidLocaleName
FUNC 46e60 70 0 _acrt_LCIDToLocaleName
FUNC 46eec dc 0 _acrt_LCMapStringEx
FUNC 47000 50 0 _acrt_LocaleNameToLCID
FUNC 47064 5f 0 _acrt_LocateXStateFeature
FUNC 470dc 71 0 _acrt_MessageBoxA
FUNC 4716c 71 0 _acrt_MessageBoxW
FUNC 471fc 40 0 _acrt_RoInitialize
FUNC 4724c 33 0 _acrt_RoUninitialize
FUNC 4728c 4f 0 _acrt_RtlGenRandom
FUNC 472f0 42 0 _acrt_SetThreadStackGuarantee
FUNC 47344 6d 0 _acrt_can_show_message_box
FUNC 473cc 2e 0 _acrt_can_use_vista_locale_apis
FUNC 47408 2e 0 _acrt_can_use_xstate_apis
FUNC 47444 15a 0 _acrt_eagerly_load_locale_apis
FUNC 475f4 78 0 _acrt_get_parent_window
FUNC 4768c 31 0 _acrt_initialize_winapi_thunks
FUNC 476cc c6 0 _acrt_is_interactive
FUNC 477c4 41 0 _acrt_uninitialize_winapi_thunks
FUNC 47818 8 0 _acrt_getheap
FUNC 47824 1c 0 _acrt_initialize_heap
FUNC 47848 b 0 _acrt_uninitialize_heap
FUNC 47858 8 0 get_heap_handle
FUNC 47864 1b 0 get_std_handle_id
FUNC 47888 ed 0 initialize_inherited_file_handles_nolock
FUNC 479b0 10c 0 initialize_stdio_handles_nolock
FUNC 47b00 3b 0 _acrt_initialize_lowio
FUNC 47b4c 40 0 _acrt_uninitialize_lowio
FUNC 47b9c 80 0 _acrt_execute_initializers
FUNC 47c3c 3c 0 _acrt_execute_uninitializers
FUNC 47c88 8 0 __crt_fast_encoded_nullptr_t::operator<int > int (*)(unsigned __int64)()
FUNC 47c94 16 0 __crt_fast_decode_pointer<int (*)(unsigned __int64)>(int (*const)(unsigned __int64))
FUNC 47cb0 1e 0 __crt_fast_encode_pointer<int (*)(unsigned __int64)>(int (*const)(unsigned __int64))
FUNC 47cd8 c 0 _set_new_handler(int)
FUNC 47ce8 27 0 __crt_state_management::dual_state_global<int (*)(unsigned __int64)>::initialize(int (*const)(unsigned __int64))
FUNC 47d18 4 0 __crt_state_management::dual_state_global<int (*)(unsigned __int64)>::value()
FUNC 47d1c 8 0 _acrt_initialize_new_handler
FUNC 47d28 2f 0 callnewh
FUNC 47d64 34 0 query_new_handler
FUNC 47da8 59 0 set_new_handler
FUNC 47e18 8 0 __crt_fast_encoded_nullptr_t::operator<void > void (*)(int)()
FUNC 47e24 45 0 __crt_seh_guarded_call<void (__cdecl*)(int)>::operator()<<lambda_450d765d439847d4c735a33c368b5fc0>,<lambda_44731a7d0e6d81c3e6aa82d741081786> &,<lambda_601a2a7da3b7a96e9554ac7215c4b07c> >
FUNC 47e7c 26 0 __acrt_lock_and_call<<lambda_44731a7d0e6d81c3e6aa82d741081786> >
FUNC 47eac 16 0 __crt_fast_decode_pointer<void (*)(int)>(void (*const)(int))
FUNC 47ec8 1e 0 __crt_fast_encode_pointer<void (*)(int)>(void (*const)(int))
FUNC 47ef0 8 0 <lambda_450d765d439847d4c735a33c368b5fc0>::<lambda_450d765d439847d4c735a33c368b5fc0>
FUNC 47efc 8 0 <lambda_601a2a7da3b7a96e9554ac7215c4b07c>::<lambda_601a2a7da3b7a96e9554ac7215c4b07c>
FUNC 47f08 17 0 <lambda_44731a7d0e6d81c3e6aa82d741081786>::operator()
FUNC 47f24 7 0 <lambda_450d765d439847d4c735a33c368b5fc0>::operator()
FUNC 47f2c 7 0 <lambda_601a2a7da3b7a96e9554ac7215c4b07c>::operator()
FUNC 47f34 92 0 ctrlevent_capture
FUNC 47fec 3c 0 get_global_action_nolock
FUNC 48038 27 0 __crt_state_management::dual_state_global<void (*)(int)>::initialize(void (*const)(int))
FUNC 48068 13 0 is_console_signal
FUNC 48080 e 0 is_unsupported_signal
FUNC 48094 25 0 siglookup
FUNC 480c4 27 0 signal_failed
FUNC 480f4 4 0 __crt_state_management::dual_state_global<void (*)(int)>::value()
FUNC 480f8 2e 0 _acrt_get_sigabrt_handler
FUNC 48134 1d 0 _acrt_initialize_signal_handlers
FUNC 48158 12 0 _fpecode
FUNC 48170 12 0 _pxcptinfoptrs
FUNC 48188 26c 0 raise
FUNC 48490 1da 0 signal
FUNC 486e0 16 0 __crt_fast_decode_pointer<int (__cdecl*)(_exception *)>
FUNC 486fc 1e 0 __crt_fast_encode_pointer<int (__cdecl*)(_exception *)>
FUNC 48724 27 0 __crt_state_management::dual_state_global<int (__cdecl*)(_exception *)>::initialize
FUNC 48754 4 0 __crt_state_management::dual_state_global<int (__cdecl*)(_exception *)>::value
FUNC 48758 1d 0 _acrt_has_user_matherr
FUNC 4877c 8 0 _acrt_initialize_user_matherr
FUNC 48788 2e 0 _acrt_invoke_user_matherr
FUNC 487c4 25 0 _setusermatherr
FUNC 487f4 9a 0 __crt_seh_guarded_call<void>::operator()<<lambda_842d9ff0dc9ef11c61343bbaebe7f885>,<lambda_c5860995281e5c4ce005b3de8f5874ee> &,<lambda_d90129c13df834fdcbf8d2b88dafcf2d> >
FUNC 488b4 e0 0 __crt_seh_guarded_call<void>::operator()<<lambda_886d6c58226a84441f68b9f2b8217b83>,<lambda_ab61a845afdef5b7c387490eaf3616ee> &,<lambda_f7f22ab5edc0698d5f6905b0d3f44752> >
FUNC 489cc 40 0 __crt_seh_guarded_call<int>::operator()<<lambda_c376a267cfb53b6959b3b692ec76b120>,<lambda_9a32fed5bf61b6b509b2d3f6003082a1> &,<lambda_572fbb9fa0ab338edf41edfd4b5fcc8d> >
FUNC 48a1c 26 0 __acrt_lock_and_call<<lambda_ab61a845afdef5b7c387490eaf3616ee> >
FUNC 48a4c 28 0 __acrt_lock_stream_and_call<<lambda_9a32fed5bf61b6b509b2d3f6003082a1> >
FUNC 48a80 28 0 __acrt_lock_stream_and_call<<lambda_c5860995281e5c4ce005b3de8f5874ee> >
FUNC 48ab4 a 0 <lambda_572fbb9fa0ab338edf41edfd4b5fcc8d>::<lambda_572fbb9fa0ab338edf41edfd4b5fcc8d>
FUNC 48ac0 a 0 <lambda_842d9ff0dc9ef11c61343bbaebe7f885>::<lambda_842d9ff0dc9ef11c61343bbaebe7f885>
FUNC 48acc 8 0 <lambda_886d6c58226a84441f68b9f2b8217b83>::<lambda_886d6c58226a84441f68b9f2b8217b83>
FUNC 48ad8 7 0 <lambda_9a32fed5bf61b6b509b2d3f6003082a1>::<lambda_9a32fed5bf61b6b509b2d3f6003082a1>
FUNC 48ae0 f 0 <lambda_ab61a845afdef5b7c387490eaf3616ee>::<lambda_ab61a845afdef5b7c387490eaf3616ee>
FUNC 48af4 a 0 <lambda_c376a267cfb53b6959b3b692ec76b120>::<lambda_c376a267cfb53b6959b3b692ec76b120>
FUNC 48b00 18 0 <lambda_c5860995281e5c4ce005b3de8f5874ee>::<lambda_c5860995281e5c4ce005b3de8f5874ee>
FUNC 48b20 a 0 <lambda_d90129c13df834fdcbf8d2b88dafcf2d>::<lambda_d90129c13df834fdcbf8d2b88dafcf2d>
FUNC 48b2c 8 0 <lambda_f7f22ab5edc0698d5f6905b0d3f44752>::<lambda_f7f22ab5edc0698d5f6905b0d3f44752>
FUNC 48b38 7 0 __crt_stdio_stream::__crt_stdio_stream(__crt_stdio_stream_data * const)
FUNC 48b40 8 0 <lambda_572fbb9fa0ab338edf41edfd4b5fcc8d>::operator()
FUNC 48b4c 8 0 <lambda_842d9ff0dc9ef11c61343bbaebe7f885>::operator()
FUNC 48b58 7 0 <lambda_886d6c58226a84441f68b9f2b8217b83>::operator()
FUNC 48b60 b 0 <lambda_9a32fed5bf61b6b509b2d3f6003082a1>::operator()
FUNC 48b70 ae 0 <lambda_ab61a845afdef5b7c387490eaf3616ee>::operator()
FUNC 48c4c 8 0 <lambda_c376a267cfb53b6959b3b692ec76b120>::operator()
FUNC 48c58 78 0 <lambda_c5860995281e5c4ce005b3de8f5874ee>::operator()
FUNC 48cf0 8 0 <lambda_d90129c13df834fdcbf8d2b88dafcf2d>::operator()
FUNC 48cfc 7 0 <lambda_f7f22ab5edc0698d5f6905b0d3f44752>::operator()
FUNC 48d04 c 0 __acrt_stdio_reset_buffer(__crt_stdio_stream)
FUNC 48d14 5d 0 common_flush_all
FUNC 48d88 31 0 common_flush_all_should_try_to_flush_stream
FUNC 48dc8 e 0 __crt_stdio_stream::has_all_of(long)
FUNC 48ddc 9 0 is_stream_allocated
FUNC 48de8 13 0 is_stream_flushable
FUNC 48e00 19 0 is_stream_flushable_or_commitable
FUNC 48e20 1e 0 __crt_stdio_stream::set_flags(long)
FUNC 48e48 25 0 __crt_stdio_stream::unset_flags(long)
FUNC 48e78 7a 0 _acrt_stdio_flush_nolock
FUNC 48f10 4b 0 fflush_nolock
FUNC 48f70 7 0 flushall
FUNC 48f78 66 0 fflush
FUNC 48ff8 30 0 _p___mb_cur_max
FUNC 49034 8 0 __crt_internal_free_policy::operator()<__crt_stdio_stream_data *>
FUNC 49040 7 0 __crt_unique_heap_ptr<__crt_stdio_stream_data *,__crt_internal_free_policy>::__crt_unique_heap_ptr<__crt_stdio_stream_data *,__crt_internal_free_policy>
FUNC 49048 1b 0 __crt_unique_heap_ptr<__crt_stdio_stream_data *,__crt_internal_free_policy>::~__crt_unique_heap_ptr<__crt_stdio_stream_data *,__crt_internal_free_policy>
FUNC 4906c 8 0 __crt_unique_heap_ptr<__crt_stdio_stream_data *,__crt_internal_free_policy>::detach
FUNC 49078 1b 0 __crt_unique_heap_ptr<__crt_stdio_stream_data *,__crt_internal_free_policy>::release
FUNC 4909c 11f 0 _acrt_initialize_stdio
FUNC 49204 11 0 _acrt_iob_func
FUNC 4921c 5b 0 _acrt_uninitialize_stdio
FUNC 49290 47 0 get_stream_buffer_pointers
FUNC 492e8 b 0 lock_file
FUNC 492f8 b 0 unlock_file
FUNC 49308 10 0 __crt_stdio_stream::has_any_buffer()
FUNC 4931c c 0 __crt_stdio_stream::has_any_of(long)
FUNC 4932c c 0 __crt_stdio_stream::has_temporary_buffer()
FUNC 4933c cf 0 _acrt_stdio_begin_temporary_buffering_nolock
FUNC 49440 39 0 _acrt_stdio_end_temporary_buffering_nolock
FUNC 49488 5e 0 malloc_base
FUNC 49500 13 0 __crt_strtox::make_c_string_character_source<char,char * *>
FUNC 49518 13 0 __crt_strtox::make_c_string_character_source<wchar_t,wchar_t * *>
FUNC 49530 2e 0 __crt_strtox::parse_integer_from_string<long,char,char * *>
FUNC 4956c 2e 0 __crt_strtox::parse_integer_from_string<long,wchar_t,wchar_t * *>
FUNC 495a8 2e 0 __crt_strtox::parse_integer_from_string<unsigned long,char,char * *>
FUNC 495e4 2e 0 __crt_strtox::parse_integer_from_string<unsigned long,wchar_t,wchar_t * *>
FUNC 49620 2e 0 __crt_strtox::parse_integer_from_string<__int64,char,char * *>
FUNC 4965c 2e 0 __crt_strtox::parse_integer_from_string<__int64,wchar_t,wchar_t * *>
FUNC 49698 2e 0 __crt_strtox::parse_integer_from_string<unsigned __int64,char,char * *>
FUNC 496d4 2e 0 __crt_strtox::parse_integer_from_string<unsigned __int64,wchar_t,wchar_t * *>
FUNC 49710 2a 0 strtoi64
FUNC 49744 2e 0 strtoi64_l
FUNC 49780 2e 0 strtoimax_l
FUNC 497bc 2e 0 strtol_l
FUNC 497f8 2e 0 strtoll_l
FUNC 49834 2a 0 strtoui64
FUNC 49868 2e 0 strtoui64_l
FUNC 498a4 2e 0 strtoul_l
FUNC 498e0 2e 0 strtoull_l
FUNC 4991c 2e 0 strtoumax_l
FUNC 49958 2a 0 wcstoi64
FUNC 4998c 2e 0 wcstoi64_l
FUNC 499c8 2e 0 wcstoimax_l
FUNC 49a04 2e 0 wcstol_l
FUNC 49a40 2e 0 wcstoll_l
FUNC 49a7c 2a 0 wcstoui64
FUNC 49ab0 2e 0 wcstoui64_l
FUNC 49aec 2e 0 wcstoul_l
FUNC 49b28 2e 0 wcstoull_l
FUNC 49b64 2e 0 wcstoumax_l
FUNC 49ba0 2a 0 strtoimax
FUNC 49bd4 2a 0 strtol
FUNC 49c08 2a 0 strtoll
FUNC 49c3c 2a 0 strtoul
FUNC 49c70 2a 0 strtoull
FUNC 49ca4 2a 0 strtoumax
FUNC 49cd8 2a 0 wcstoimax
FUNC 49d0c 2a 0 wcstol
FUNC 49d40 2a 0 wcstoll
FUNC 49d74 2a 0 wcstoul
FUNC 49da8 2a 0 wcstoull
FUNC 49ddc 2a 0 wcstoumax
FUNC 49e10 17e 0 mbtowc_l
FUNC 49ff0 8 0 mbtowc
FUNC 49ffc 72 0 wctomb_l
FUNC 4a08c 19c 0 wctomb_s_l
FUNC 4a290 4d 0 wctomb
FUNC 4a2f0 14 0 wctomb_s
FUNC 4a30c 155 0 common_strnlen<1,unsigned short>
FUNC 4a4b8 150 0 common_strnlen<0,unsigned char>
FUNC 4a65c 1c3 0 common_strnlen<0,unsigned short>
FUNC 4a890 16 0 common_strnlen_c<1,unsigned short>
FUNC 4a8ac 1d 0 common_strnlen_c<0,unsigned char>
FUNC 4a8d0 22 0 common_strnlen_c<0,unsigned short>
FUNC 4a8fc 96 0 common_strnlen_simd<1,1,unsigned short>
FUNC 4a9b8 96 0 common_strnlen_simd<1,0,unsigned short>
FUNC 4aa74 88 0 common_strnlen_simd<0,1,unsigned char>
FUNC 4ab20 d0 0 common_strnlen_simd<0,1,unsigned short>
FUNC 4ac24 85 0 common_strnlen_simd<0,0,unsigned char>
FUNC 4accc cd 0 common_strnlen_simd<0,0,unsigned short>
FUNC 4adcc 3 0 last_reached<1>
FUNC 4add0 7 0 last_reached<0>
FUNC 4add8 4 0 __crt_simd_cleanup_guard<1>::~__crt_simd_cleanup_guard<1>()
FUNC 4addc 3 0 __crt_simd_cleanup_guard<0>::~__crt_simd_cleanup_guard<0>()
FUNC 4ade0 9 0 __crt_simd_traits<1,unsigned char>::compare_equals(__m256i,__m256i)
FUNC 4adec 9 0 __crt_simd_traits<1,unsigned short>::compare_equals(__m256i,__m256i)
FUNC 4adf8 9 0 __crt_simd_traits<0,unsigned char>::compare_equals(__m128i,__m128i)
FUNC 4ae04 9 0 __crt_simd_traits<0,unsigned short>::compare_equals(__m128i,__m128i)
FUNC 4ae10 c 0 __crt_simd_pack_traits<1>::compute_byte_mask(__m256i)
FUNC 4ae20 9 0 __crt_simd_pack_traits<0>::compute_byte_mask(__m128i)
FUNC 4ae2c 5 0 __crt_simd_pack_traits<1>::get_zero_pack()
FUNC 4ae34 4 0 __crt_simd_pack_traits<0>::get_zero_pack()
FUNC 4ae38 150 0 strnlen
FUNC 4afdc 129 0 wcslen
FUNC 4b150 1d6 0 wcsnlen
FUNC 4b39c 31 0 _acrt_update_locale_info
FUNC 4b3dc 31 0 _acrt_update_multibyte_info
FUNC 4b41c 5b 0 __acrt_fp_classify(double const &)
FUNC 4b490 8 0 __acrt_fp_is_negative(double const &)
FUNC 4b49c 36d 0 fp_format_a
FUNC 4b8e4 db 0 fp_format_e
FUNC 4b9f8 1d2 0 fp_format_e_internal
FUNC 4bc40 a6 0 fp_format_f
FUNC 4bd10 143 0 fp_format_f_internal
FUNC 4bea4 132 0 fp_format_g
FUNC 4c024 a5 0 fp_format_nan_or_infinity
FUNC 4c0f4 30 0 shift_bytes
FUNC 4c130 5 0 strrchr(char * const,int)
FUNC 4c138 304 0 _acrt_fp_format
FUNC 4c500 1c 0 fputwc_binary_nolock
FUNC 4c524 17c 0 fputwc_nolock
FUNC 4c700 23 0 fputwchar
FUNC 4c72c 5 0 putwc_nolock
FUNC 4c734 5e 0 fputwc
FUNC 4c7ac 5 0 putwc
FUNC 4c7b4 5 0 putwchar
FUNC 4c7bc 7 0 __crt_stdio_stream::lowio_handle()
FUNC 4c7c4 26 0 fileno
FUNC 4c7f4 16 0 fputc_nolock
FUNC 4c810 21 0 fputchar
FUNC 4c83c 16 0 putc_nolock
FUNC 4c858 124 0 fputc
FUNC 4c9c8 5 0 putc
FUNC 4c9d0 5 0 putchar
FUNC 4c9d8 18 0 get_printf_count_output
FUNC 4c9f8 27 0 set_printf_count_output
FUNC 4ca28 3 0 no_op_initialize
FUNC 4ca2c 8 0 __crt_internal_free_policy::operator()<__crt_locale_data>(__crt_locale_data const * const)
FUNC 4ca38 8 0 __crt_internal_free_policy::operator()<__crt_locale_pointers>(__crt_locale_pointers const * const)
FUNC 4ca44 3e 0 __crt_seh_guarded_call<void>::operator()<<lambda_0a55505eb881d180377eb1fc64ffb544>,<lambda_862e9a3f04921db6ca1ce3faa2bf3edf> &,<lambda_c91f0b5e4ab41df1063aa1a95f49bd71> >
FUNC 4ca94 13a 0 __crt_seh_guarded_call<void>::operator()<<lambda_1d892b297fdedeee07ed8124eeb2f2fa>,<lambda_ffc046909424fd52df0ac47e64813305> &,<lambda_01a7098693036236037e7cdb9bca3d73> >
FUNC 4cc1c 6e 0 __crt_seh_guarded_call<void>::operator()<<lambda_410d79af7f07d98d83a3f525b3859a53>,<lambda_3e16ef9562a7dcce91392c22ab16ea36> &,<lambda_38119f0e861e05405d8a144b9b982f0a> >
FUNC 4cca8 29 0 __crt_seh_guarded_call<void>::operator()<<lambda_7f2adfce497ff2baa965cd4f576ecfd1>,<lambda_2a444430fde8c29194d880d93eed5e8f> &,<lambda_8dff2cf36a5417162780cd64fa2883ef> &>
FUNC 4ccdc 41 0 __crt_seh_guarded_call<void>::operator()<<lambda_a48fd90c2dacdd6561e44078457d03a7>,<lambda_ebab98244f73a74f49db879bf13fa982> &,<lambda_8b3bdacfa7480f205f16cb49964db269> >
FUNC 4cd30 26 0 __acrt_lock_and_call<<lambda_3e16ef9562a7dcce91392c22ab16ea36> >
FUNC 4cd60 26 0 __acrt_lock_and_call<<lambda_862e9a3f04921db6ca1ce3faa2bf3edf> >
FUNC 4cd90 26 0 __acrt_lock_and_call<<lambda_ebab98244f73a74f49db879bf13fa982> >
FUNC 4cdc0 26 0 __acrt_lock_and_call<<lambda_ffc046909424fd52df0ac47e64813305> >
FUNC 4cdf0 15 0 __crt_call_and_cleanup<<lambda_2a444430fde8c29194d880d93eed5e8f>,<lambda_8dff2cf36a5417162780cd64fa2883ef> >
FUNC 4ce0c 4e 0 __crt_state_management::dual_state_global<__crt_locale_data *>::uninitialize<<lambda_363eea9039da1e8169e2d060c7fe5cbc> >
FUNC 4ce70 8 0 <lambda_01a7098693036236037e7cdb9bca3d73>::<lambda_01a7098693036236037e7cdb9bca3d73>
FUNC 4ce7c 8 0 <lambda_0a55505eb881d180377eb1fc64ffb544>::<lambda_0a55505eb881d180377eb1fc64ffb544>
FUNC 4ce88 8 0 <lambda_1d892b297fdedeee07ed8124eeb2f2fa>::<lambda_1d892b297fdedeee07ed8124eeb2f2fa>
FUNC 4ce94 21 0 <lambda_2a444430fde8c29194d880d93eed5e8f>::<lambda_2a444430fde8c29194d880d93eed5e8f>
FUNC 4cec0 8 0 <lambda_38119f0e861e05405d8a144b9b982f0a>::<lambda_38119f0e861e05405d8a144b9b982f0a>
FUNC 4cecc 8 0 <lambda_410d79af7f07d98d83a3f525b3859a53>::<lambda_410d79af7f07d98d83a3f525b3859a53>
FUNC 4ced8 7 0 <lambda_862e9a3f04921db6ca1ce3faa2bf3edf>::<lambda_862e9a3f04921db6ca1ce3faa2bf3edf>
FUNC 4cee0 8 0 <lambda_8b3bdacfa7480f205f16cb49964db269>::<lambda_8b3bdacfa7480f205f16cb49964db269>
FUNC 4ceec 7 0 <lambda_8dff2cf36a5417162780cd64fa2883ef>::<lambda_8dff2cf36a5417162780cd64fa2883ef>
FUNC 4cef4 8 0 <lambda_a48fd90c2dacdd6561e44078457d03a7>::<lambda_a48fd90c2dacdd6561e44078457d03a7>
FUNC 4cf00 8 0 <lambda_c91f0b5e4ab41df1063aa1a95f49bd71>::<lambda_c91f0b5e4ab41df1063aa1a95f49bd71>
FUNC 4cf0c 7 0 <lambda_ebab98244f73a74f49db879bf13fa982>::<lambda_ebab98244f73a74f49db879bf13fa982>
FUNC 4cf14 21 0 <lambda_ffc046909424fd52df0ac47e64813305>::<lambda_ffc046909424fd52df0ac47e64813305>
FUNC 4cf40 7 0 __crt_unique_heap_ptr<__crt_locale_data,__crt_internal_free_policy>::__crt_unique_heap_ptr<__crt_locale_data,__crt_internal_free_policy>(__crt_locale_data * const)
FUNC 4cf48 7 0 __crt_unique_heap_ptr<__crt_locale_pointers,__crt_internal_free_policy>::__crt_unique_heap_ptr<__crt_locale_pointers,__crt_internal_free_policy>(__crt_locale_pointers * const)
FUNC 4cf50 59 0 _expandlocale_locale_name_cache::_expandlocale_locale_name_cache(wchar_t * const,unsigned __int64,__crt_qualified_locale_data * const)
FUNC 4cfc0 1b 0 __crt_unique_heap_ptr<__crt_locale_data,__crt_internal_free_policy>::~__crt_unique_heap_ptr<__crt_locale_data,__crt_internal_free_policy>()
FUNC 4cfe4 1b 0 __crt_unique_heap_ptr<__crt_locale_pointers,__crt_internal_free_policy>::~__crt_unique_heap_ptr<__crt_locale_pointers,__crt_internal_free_policy>()
FUNC 4d008 48 0 _expandlocale_locale_name_cache::~_expandlocale_locale_name_cache()
FUNC 4d064 8 0 __crt_unique_heap_ptr<__crt_locale_data,__crt_internal_free_policy>::operator bool()
FUNC 4d070 8 0 __crt_unique_heap_ptr<__crt_locale_pointers,__crt_internal_free_policy>::operator bool()
FUNC 4d07c 7 0 <lambda_01a7098693036236037e7cdb9bca3d73>::operator()
FUNC 4d084 7 0 <lambda_0a55505eb881d180377eb1fc64ffb544>::operator()
FUNC 4d08c 7 0 <lambda_1d892b297fdedeee07ed8124eeb2f2fa>::operator()
FUNC 4d094 8e 0 <lambda_2a444430fde8c29194d880d93eed5e8f>::operator()
FUNC 4d148 26 0 <lambda_363eea9039da1e8169e2d060c7fe5cbc>::operator()
FUNC 4d178 7 0 <lambda_38119f0e861e05405d8a144b9b982f0a>::operator()
FUNC 4d180 2c 0 <lambda_3e16ef9562a7dcce91392c22ab16ea36>::operator()
FUNC 4d1b8 7 0 <lambda_410d79af7f07d98d83a3f525b3859a53>::operator()
FUNC 4d1c0 3 0 <lambda_7f2adfce497ff2baa965cd4f576ecfd1>::operator()
FUNC 4d1c4 e 0 <lambda_862e9a3f04921db6ca1ce3faa2bf3edf>::operator()
FUNC 4d1d8 7 0 <lambda_8b3bdacfa7480f205f16cb49964db269>::operator()
FUNC 4d1e0 e 0 <lambda_8dff2cf36a5417162780cd64fa2883ef>::operator()
FUNC 4d1f4 7 0 <lambda_a48fd90c2dacdd6561e44078457d03a7>::operator()
FUNC 4d1fc 7 0 <lambda_c91f0b5e4ab41df1063aa1a95f49bd71>::operator()
FUNC 4d204 e 0 <lambda_ebab98244f73a74f49db879bf13fa982>::operator()
FUNC 4d218 11d 0 <lambda_ffc046909424fd52df0ac47e64813305>::operator()
FUNC 4d37c 77 0 _expandlocale_locale_name_cache::commit_locale_name(wchar_t const * const,unsigned __int64)
FUNC 4d410 3f 0 _expandlocale_locale_name_cache::commit_locale_name_cache_already_updated(wchar_t const * const,unsigned __int64)
FUNC 4d460 8 0 __crt_unique_heap_ptr<__crt_locale_data,__crt_internal_free_policy>::detach()
FUNC 4d46c 8 0 __crt_unique_heap_ptr<__crt_locale_pointers,__crt_internal_free_policy>::detach()
FUNC 4d478 4 0 __crt_unique_heap_ptr<__crt_locale_data,__crt_internal_free_policy>::get()
FUNC 4d47c 4 0 __crt_unique_heap_ptr<__crt_locale_pointers,__crt_internal_free_policy>::get()
FUNC 4d480 8 0 __crt_unique_heap_ptr<__crt_locale_data,__crt_internal_free_policy>::is_valid()
FUNC 4d48c 8 0 __crt_unique_heap_ptr<__crt_locale_pointers,__crt_internal_free_policy>::is_valid()
FUNC 4d498 1b 0 __crt_unique_heap_ptr<__crt_locale_data,__crt_internal_free_policy>::release()
FUNC 4d4bc 1b 0 __crt_unique_heap_ptr<__crt_locale_pointers,__crt_internal_free_policy>::release()
FUNC 4d4e0 82 0 _acrt_copy_locale_name
FUNC 4d584 c 0 _acrt_set_locale_changed
FUNC 4d594 2e 0 _acrt_uninitialize_locale
FUNC 4d5d0 e 0 _ascii_tolower
FUNC 4d5e4 d 0 _ascii_towlower
FUNC 4d5f4 a2 0 _lc_lctowcs
FUNC 4d6c0 166 0 _lc_wcstolc
FUNC 4d880 69 0 configthreadlocale
FUNC 4d904 be 0 _copytlocinfo_nolock
FUNC 4d9f4 76 0 create_locale
FUNC 4da88 47f 0 _expandlocale
FUNC 4e028 a2 0 free_locale
FUNC 4e0f4 bb 0 get_current_locale
FUNC 4e1e0 148 0 wcreate_locale
FUNC 4e37c 65 0 wcscats
FUNC 4e3fc a1 0 wsetlocale
FUNC 4e4c8 1ea 0 _wsetlocale_get_all
FUNC 4e72c 296 0 _wsetlocale_nolock
FUNC 4ea68 352 0 _wsetlocale_set_cat
FUNC 4ee90 21 0 categorize_delimiter
FUNC 4eebc 34 0 get_default_code_page
FUNC 4ef00 1ff 0 parse_bcp47
FUNC 4f180 47 0 parse_bcp47_code_page
FUNC 4f1d8 89 0 parse_bcp47_language
FUNC 4f284 10a 0 parse_bcp47_region
FUNC 4f3d0 8f 0 parse_bcp47_script
FUNC 4f484 72 0 string_is_alpha
FUNC 4f514 6f 0 string_is_digit
FUNC 4f5a0 29 0 sync_legacy_variables_lk
FUNC 4f5d4 2f 0 _pctype_func
FUNC 4f610 8 0 _pwctype_func
FUNC 4f61c 5 0 iswctype_l
FUNC 4f624 6f 0 iswctype
FUNC 4f6b0 30 0 isctype
FUNC 4f6ec 108 0 isctype_l
FUNC 4f838 18 0 isleadbyte_fast_internal
FUNC 4f858 8b 0 _acrt_add_locale_ref
FUNC 4f908 176 0 _acrt_free_locale
FUNC 4fadc 27 0 _acrt_locale_add_lc_time_reference
FUNC 4fb0c 36 0 _acrt_locale_free_lc_time_if_unreferenced
FUNC 4fb50 25 0 _acrt_locale_release_lc_time_reference
FUNC 4fb80 a8 0 _acrt_release_locale_ref
FUNC 4fc54 6c 0 _acrt_update_thread_locale_data
FUNC 4fcdc 65 0 updatetlocinfoEx_nolock
FUNC 4fd5c 4 0 __crt_state_management::dual_state_global<long>::value()
FUNC 4fd60 7 0 query_new_mode
FUNC 4fd68 2b 0 set_new_mode
FUNC 4fda0 bc 0 shortsort
FUNC 4fe90 29 0 swap
FUNC 4fed0 3ad 0 qsort
FUNC 50368 db 0 common_tcsncpy_s<wchar_t>
FUNC 5047c e4 0 wcsncpy_s
FUNC 5059c 34 0 wcspbrk
FUNC 505e0 c6 0 common_tcsncpy_s<char>
FUNC 506d8 d3 0 strncpy_s
FUNC 507e0 9e 0 fallbackMethod
FUNC 508b0 3e0 0 strpbrk
FUNC 50d88 8 0 mbsdec
FUNC 50d94 94 0 mbsdec_l
FUNC 50e50 7 0 __crt_scoped_stack_ptr<wchar_t>::__crt_scoped_stack_ptr<wchar_t>(__crt_scoped_stack_ptr_tag<wchar_t>)
FUNC 50e58 7 0 __crt_scoped_stack_ptr_tag<wchar_t>::__crt_scoped_stack_ptr_tag<wchar_t>(wchar_t * const)
FUNC 50e60 22 0 __crt_scoped_stack_ptr<wchar_t>::~__crt_scoped_stack_ptr<wchar_t>()
FUNC 50e8c 4 0 __crt_scoped_stack_ptr<wchar_t>::get()
FUNC 50e90 e 0 MallocaComputeSize
FUNC 50ea4 f 0 MarkAllocaS
FUNC 50eb8 18d 0 _acrt_GetStringTypeA
FUNC 510a8 1f 0 freea_crt
FUNC 510d0 8 0 __crt_scoped_stack_ptr<wchar_t>::operator bool()
FUNC 510dc 315 0 __acrt_LCMapStringA_stat
FUNC 514b8 96 0 _acrt_LCMapStringA
FUNC 51574 17 0 initialize_multibyte
FUNC 51590 4f 0 wcsnicoll
FUNC 515f4 f0 0 wcsnicoll_l
FUNC 51720 15 0 strnicoll
FUNC 5173c 100 0 strnicoll_l
FUNC 5187c 179 0 __acrt_convert_wcs_mbs_cp<char,wchar_t,<lambda_7c9dea7b4ca7285d2cdb541a38da6275>,__crt_win32_buffer_internal_dynamic_resizing>
FUNC 51a54 25 0 <lambda_7c9dea7b4ca7285d2cdb541a38da6275>::operator()
FUNC 51a84 197 0 _acrt_SetEnvironmentVariableA
FUNC 51c80 5 0 msize
FUNC 51c88 39 0 msize_base
FUNC 51cd0 7a 0 realloc_base
FUNC 51d68 4b 0 GetTableIndexFromLcid
FUNC 51dc8 87 0 GetTableIndexFromLocaleName
FUNC 51e70 f4 0 _acrt_DownlevelLCIDToLocaleName
FUNC 51fa4 af 0 _acrt_DownlevelLocaleNameToLCID
FUNC 52080 8 0 __crt_internal_free_policy::operator()<__crt_lowio_handle_data>(__crt_lowio_handle_data const * const)
FUNC 5208c 7 0 __crt_unique_heap_ptr<__crt_lowio_handle_data,__crt_internal_free_policy>::__crt_unique_heap_ptr<__crt_lowio_handle_data,__crt_internal_free_policy>(__crt_lowio_handle_data * const)
FUNC 52094 1b 0 __crt_unique_heap_ptr<__crt_lowio_handle_data,__crt_internal_free_policy>::~__crt_unique_heap_ptr<__crt_lowio_handle_data,__crt_internal_free_policy>()
FUNC 520b8 8 0 __crt_unique_heap_ptr<__crt_lowio_handle_data,__crt_internal_free_policy>::operator bool()
FUNC 520c4 8 0 __crt_unique_heap_ptr<__crt_lowio_handle_data,__crt_internal_free_policy>::detach()
FUNC 520d0 4 0 __crt_unique_heap_ptr<__crt_lowio_handle_data,__crt_internal_free_policy>::get()
FUNC 520d4 8 0 __crt_unique_heap_ptr<__crt_lowio_handle_data,__crt_internal_free_policy>::is_valid()
FUNC 520e0 1b 0 __crt_unique_heap_ptr<__crt_lowio_handle_data,__crt_internal_free_policy>::release()
FUNC 52104 a5 0 _acrt_lowio_create_handle_array
FUNC 521d4 50 0 _acrt_lowio_destroy_handle_array
FUNC 52238 a8 0 _acrt_lowio_ensure_fh_exists
FUNC 5230c 27 0 _acrt_lowio_lock_fh
FUNC 5233c bf 0 _acrt_lowio_set_os_handle
FUNC 5242c 27 0 _acrt_lowio_unlock_fh
FUNC 5245c 13e 0 alloc_osfhnd
FUNC 525ec ba 0 free_osfhnd
FUNC 526d4 75 0 get_osfhandle
FUNC 52768 101 0 open_osfhandle
FUNC 528ac 8c 0 __crt_seh_guarded_call<int>::operator()<<lambda_a37b2b86f63e897a80ea819b0eb08c01>,<lambda_38ce7e780aa69e748d6df282ebc68efe> &,<lambda_99fb1378e971ab6e7edea83e3a7a83a2> >
FUNC 5295c 26 0 __acrt_lowio_lock_fh_and_call<<lambda_38ce7e780aa69e748d6df282ebc68efe> >
FUNC 5298c 7 0 <lambda_38ce7e780aa69e748d6df282ebc68efe>::<lambda_38ce7e780aa69e748d6df282ebc68efe>
FUNC 52994 8 0 <lambda_99fb1378e971ab6e7edea83e3a7a83a2>::<lambda_99fb1378e971ab6e7edea83e3a7a83a2>
FUNC 529a0 8 0 <lambda_a37b2b86f63e897a80ea819b0eb08c01>::<lambda_a37b2b86f63e897a80ea819b0eb08c01>
FUNC 529ac 69 0 <lambda_38ce7e780aa69e748d6df282ebc68efe>::operator()
FUNC 52a30 7 0 <lambda_99fb1378e971ab6e7edea83e3a7a83a2>::operator()
FUNC 52a38 7 0 <lambda_a37b2b86f63e897a80ea819b0eb08c01>::operator()
FUNC 52a40 91 0 commit
FUNC 52af8 6c 0 write_binary_nolock
FUNC 52b80 4d0 0 write_double_translated_ansi_nolock
FUNC 53184 95 0 write_double_translated_unicode_nolock
FUNC 53240 8e 0 write_requires_double_translation_nolock
FUNC 532f4 102 0 write_text_ansi_nolock
FUNC 53438 119 0 write_text_utf16le_nolock
FUNC 53598 170 0 write_text_utf8_nolock
FUNC 53764 e 0 utf8_no_of_trailbytes
FUNC 53778 eb 0 write
FUNC 538a0 2da 0 write_nolock
FUNC 53c30 33 0 localeconv
FUNC 53c70 c 0 __crt_stdio_stream::is_in_use()
FUNC 53c80 b1 0 fcloseall
FUNC 53d60 c 0 __crt_stdio_stream::has_crt_buffer()
FUNC 53d70 40 0 _acrt_stdio_free_buffer_nolock
FUNC 53dc0 5f 0 isatty
FUNC 53e38 2c 0 _iswcsym
FUNC 53e70 2c 0 _iswcsymf
FUNC 53ea8 4b 0 isleadbyte_l
FUNC 53f08 a 0 iswalnum_l
FUNC 53f14 a 0 iswalpha_l
FUNC 53f20 16 0 iswblank_l
FUNC 53f3c a 0 iswcntrl_l
FUNC 53f48 2c 0 iswcsym_l
FUNC 53f80 2c 0 iswcsymf_l
FUNC 53fb8 a 0 iswdigit_l
FUNC 53fc4 a 0 iswgraph_l
FUNC 53fd0 a 0 iswlower_l
FUNC 53fdc a 0 iswprint_l
FUNC 53fe8 a 0 iswpunct_l
FUNC 53ff4 a 0 iswspace_l
FUNC 54000 a 0 iswupper_l
FUNC 5400c a 0 iswxdigit_l
FUNC 54018 4d 0 isleadbyte
FUNC 54078 a 0 iswalnum
FUNC 54084 a 0 iswalpha
FUNC 54090 e 0 iswascii
FUNC 540a4 16 0 iswblank
FUNC 540c0 a 0 iswcntrl
FUNC 540cc a 0 iswdigit
FUNC 540d8 a 0 iswgraph
FUNC 540e4 a 0 iswlower
FUNC 540f0 a 0 iswprint
FUNC 540fc a 0 iswpunct
FUNC 54108 a 0 iswspace
FUNC 54114 a 0 iswupper
FUNC 54120 a 0 iswxdigit
FUNC 5412c 27 0 <lambda_88e6d024674186fe9d3f7283b675e4c3>::operator()
FUNC 5415c 39 0 __crt_mbstring::__mbrtowc_utf8(wchar_t *,char const *,unsigned __int64,_Mbstatet *)
FUNC 541a4 176 0 __crt_mbstring::__mbsrtowcs_utf8(wchar_t *,char const * *,unsigned __int64,_Mbstatet *)
FUNC 54378 251 0 _mbrtowc_s_l
FUNC 54660 15e 0 _mbsrtowcs_helper
FUNC 54818 66 0 btowc
FUNC 54898 3e 0 mbrlen
FUNC 548e8 60 0 mbrtowc
FUNC 54960 5 0 mbsrtowcs
FUNC 54968 d1 0 mbsrtowcs_s
FUNC 54a70 8 0 __crt_internal_free_policy::operator()<unsigned short>(unsigned short const * const)
FUNC 54a7c 8 0 __crt_internal_free_policy::operator()<long>(long const * const)
FUNC 54a88 7 0 __crt_unique_heap_ptr<unsigned short,__crt_internal_free_policy>::__crt_unique_heap_ptr<unsigned short,__crt_internal_free_policy>(unsigned short * const)
FUNC 54a90 7 0 __crt_unique_heap_ptr<long,__crt_internal_free_policy>::__crt_unique_heap_ptr<long,__crt_internal_free_policy>(long * const)
FUNC 54a98 1b 0 __crt_unique_heap_ptr<unsigned short,__crt_internal_free_policy>::~__crt_unique_heap_ptr<unsigned short,__crt_internal_free_policy>()
FUNC 54abc 1b 0 __crt_unique_heap_ptr<long,__crt_internal_free_policy>::~__crt_unique_heap_ptr<long,__crt_internal_free_policy>()
FUNC 54ae0 8 0 __crt_unique_heap_ptr<unsigned short,__crt_internal_free_policy>::detach()
FUNC 54aec 8 0 __crt_unique_heap_ptr<long,__crt_internal_free_policy>::detach()
FUNC 54af8 1b 0 __crt_unique_heap_ptr<unsigned short,__crt_internal_free_policy>::release()
FUNC 54b1c 1b 0 __crt_unique_heap_ptr<long,__crt_internal_free_policy>::release()
FUNC 54b40 2f 0 __lc_codepage_func
FUNC 54b7c 2f 0 __lc_collate_cp_func
FUNC 54bb8 32 0 __lc_locale_name_func
FUNC 54bf8 2f 0 __mb_cur_max_func
FUNC 54c34 10 0 __mb_cur_max_l_func
FUNC 54c48 661 0 _acrt_locale_initialize_ctype
FUNC 55444 b3 0 __crt_mbstring::__c32rtomb_utf8(char *,char32_t,_Mbstatet *)
FUNC 55524 8 0 __crt_mbstring::reset_and_return(unsigned __int64,_Mbstatet *)
FUNC 55530 1c 0 __crt_mbstring::return_illegal_sequence(_Mbstatet *)
FUNC 55554 5 0 c32rtomb
FUNC 5555c e2 0 _acrt_fp_strflt_to_string
FUNC 55678 114d 0 convert_to_fos_high_precision<double>
FUNC 56c20 2f 0 __crt_strtox::big_integer::big_integer(__crt_strtox::big_integer const &)
FUNC 56c60 a 0 __crt_strtox::big_integer::big_integer()
FUNC 56c6c 3b 0 `anonymous namespace'::scoped_fp_state_reset::scoped_fp_state_reset
FUNC 56cb8 14 0 `anonymous namespace'::scoped_fp_state_reset::~scoped_fp_state_reset
FUNC 56ce0 2f 0 __crt_strtox::big_integer::operator=(__crt_strtox::big_integer const &)
FUNC 56d20 2a 0 __crt_strtox::operator==(__crt_strtox::big_integer const &,__crt_strtox::big_integer const &)
FUNC 56d60 3e 0 __crt_strtox::operator!=(__crt_strtox::big_integer const &,__crt_strtox::big_integer const &)
FUNC 56db0 14 0 __crt_strtox::add_carry(unsigned int &,unsigned int,unsigned int)
FUNC 56dd0 20 0 __crt_strtox::add_multiply_carry(unsigned int &,unsigned int,unsigned int,unsigned int)
FUNC 56e00 13 0 __crt_strtox::bit_scan_reverse(unsigned int)
FUNC 56e20 13 0 __crt_strtox::count_sequential_high_zeroes(unsigned int)
FUNC 56e40 429 0 __crt_strtox::divide(__crt_strtox::big_integer &,__crt_strtox::big_integer const &)
FUNC 57380 7 0 __crt_strtox::is_zero(__crt_strtox::big_integer const &)
FUNC 57390 19 0 __crt_strtox::make_big_integer(unsigned __int64)
FUNC 573b0 67 0 __crt_strtox::make_big_integer_power_of_two(unsigned int)
FUNC 57430 3a8 0 __crt_strtox::multiply(__crt_strtox::big_integer &,__crt_strtox::big_integer const &)
FUNC 578d0 ed 0 __crt_strtox::multiply(__crt_strtox::big_integer &,unsigned int)
FUNC 57a00 7 0 __crt_strtox::multiply_64_32(unsigned __int64,unsigned int)
FUNC 57a10 5a8 0 __crt_strtox::multiply_by_power_of_ten(__crt_strtox::big_integer &,unsigned int)
FUNC 58130 49 0 __crt_strtox::multiply_core(unsigned int * const,unsigned int,unsigned int)
FUNC 58190 14d 0 __crt_strtox::shift_left(__crt_strtox::big_integer &,unsigned int)
FUNC 58330 1231 0 _acrt_fltout
FUNC 599f0 87 0 memcpy_s
FUNC 59a98 e8 0 common_flush_and_write_nolock<char>
FUNC 59bbc e9 0 common_flush_and_write_nolock<wchar_t>
FUNC 59ce0 e4 0 write_buffer_nolock<char>
FUNC 59e00 e8 0 write_buffer_nolock<wchar_t>
FUNC 59f24 d 0 __crt_stdio_stream::has_big_buffer()
FUNC 59f34 79 0 stream_is_at_end_of_file_nolock
FUNC 59fcc ea 0 _acrt_stdio_flush_and_write_narrow_nolock
FUNC 5a0f0 eb 0 _acrt_stdio_flush_and_write_wide_nolock
FUNC 5a218 8 0 __crt_internal_free_policy::operator()<lconv>(lconv const * const)
FUNC 5a224 7 0 __crt_unique_heap_ptr<lconv,__crt_internal_free_policy>::__crt_unique_heap_ptr<lconv,__crt_internal_free_policy>(lconv * const)
FUNC 5a22c 1b 0 __crt_unique_heap_ptr<lconv,__crt_internal_free_policy>::~__crt_unique_heap_ptr<lconv,__crt_internal_free_policy>()
FUNC 5a250 8 0 __crt_unique_heap_ptr<lconv,__crt_internal_free_policy>::detach()
FUNC 5a25c 1b 0 __crt_unique_heap_ptr<lconv,__crt_internal_free_policy>::release()
FUNC 5a280 10a 0 _acrt_locale_free_monetary
FUNC 5a3cc 533 0 _acrt_locale_initialize_monetary
FUNC 5aa4c 34 0 fix_grouping
FUNC 5aa90 6c 0 _acrt_locale_free_numeric
FUNC 5ab18 2e8 0 _acrt_locale_initialize_numeric
FUNC 5aebc 34 0 fix_grouping
FUNC 5af00 8 0 __crt_internal_free_policy::operator()<__crt_lc_time_data>(__crt_lc_time_data const * const)
FUNC 5af0c a 0 free_crt_array<char,2>
FUNC 5af18 a 0 free_crt_array<char,7>
FUNC 5af24 a 0 free_crt_array<char,12>
FUNC 5af30 a 0 free_crt_array<wchar_t,2>
FUNC 5af3c a 0 free_crt_array<wchar_t,7>
FUNC 5af48 a 0 free_crt_array<wchar_t,12>
FUNC 5af54 7 0 __crt_unique_heap_ptr<__crt_lc_time_data,__crt_internal_free_policy>::__crt_unique_heap_ptr<__crt_lc_time_data,__crt_internal_free_policy>(__crt_lc_time_data * const)
FUNC 5af5c 1b 0 __crt_unique_heap_ptr<__crt_lc_time_data,__crt_internal_free_policy>::~__crt_unique_heap_ptr<__crt_lc_time_data,__crt_internal_free_policy>()
FUNC 5af80 8 0 __crt_unique_heap_ptr<__crt_lc_time_data,__crt_internal_free_policy>::operator bool()
FUNC 5af8c 8 0 __crt_unique_heap_ptr<__crt_lc_time_data,__crt_internal_free_policy>::detach()
FUNC 5af98 58 0 free_crt_array_internal
FUNC 5b008 4 0 __crt_unique_heap_ptr<__crt_lc_time_data,__crt_internal_free_policy>::get()
FUNC 5b00c 77 0 get_or_create_lc_time
FUNC 5b0a0 33e 0 initialize_lc_time
FUNC 5b4b0 8 0 __crt_unique_heap_ptr<__crt_lc_time_data,__crt_internal_free_policy>::is_valid()
FUNC 5b4bc 1b 0 __crt_unique_heap_ptr<__crt_lc_time_data,__crt_internal_free_policy>::release()
FUNC 5b4e0 108 0 _acrt_locale_free_time
FUNC 5b62c 9c 0 _acrt_locale_initialize_time
FUNC 5b6f0 86 0 common_tcscat_s<wchar_t>
FUNC 5b798 7f 0 wcscat_s
FUNC 5b838 f6 0 common_tcsncat_s<wchar_t>
FUNC 5b96c fd 0 wcsncat_s
FUNC 5baa8 3f 0 wcscspn
FUNC 5baf8 a5 0 GetLocaleNameFromDefault
FUNC 5bbc8 cf 0 GetLocaleNameFromLangCountry
FUNC 5bccc 98 0 GetLocaleNameFromLanguage
FUNC 5bd8c 2f 0 GetPrimaryLen
FUNC 5bdc8 2ea 0 LangCountryEnumProcEx
FUNC 5c16c ea 0 LanguageEnumProcEx
FUNC 5c290 c9 0 ProcessCodePage
FUNC 5c38c 63 0 TestDefaultCountry
FUNC 5c408 77 0 TestDefaultLanguage
FUNC 5c49c 99 0 TranslateName
FUNC 5c55c 263 0 _acrt_get_qualified_locale
FUNC 5c858 e8 0 CountryEnumProc
FUNC 5c97c 5f 0 GetLcidFromCountry
FUNC 5c9f4 21 0 GetLcidFromDefault
FUNC 5ca20 cd 0 GetLcidFromLangCountry
FUNC 5cb20 96 0 GetLcidFromLanguage
FUNC 5cbdc 26 0 GetPrimaryLen
FUNC 5cc0c 24a 0 LangCountryEnumProc
FUNC 5cee8 108 0 LanguageEnumProc
FUNC 5d034 4e 0 LcidFromHexString
FUNC 5d098 ae 0 ProcessCodePage
FUNC 5d174 24 0 TestDefaultCountry
FUNC 5d1a4 ab 0 TestDefaultLanguage
FUNC 5d27c 7f 0 TranslateName
FUNC 5d31c 27e 0 _acrt_get_qualified_locale_downlevel
FUNC 5d63c 7 0 _acrt_GetStringTypeW
FUNC 5d644 15 0 _strncnt
FUNC 5d660 bd 0 _acrt_CompareStringW
FUNC 5d74c 4b 0 _ascii_wcsnicmp
FUNC 5d7ac 26 0 towlower_fast_internal
FUNC 5d7dc 34 0 towlower_internal
FUNC 5d820 46 0 wcsnicmp
FUNC 5d878 150 0 wcsnicmp_l
FUNC 5da1c 49 0 _ascii_strnicmp
FUNC 5da78 4f 0 strnicmp
FUNC 5dadc ad 0 strnicmp_l
FUNC 5dbb4 35d 0 InternalCompareStringA
FUNC 5dfe8 89 0 _acrt_CompareStringA
FUNC 5e094 3 0 issue_debug_notification
FUNC 5e098 2b 0 should_write_error_to_console
FUNC 5e0d0 a7 0 write_string_to_console
FUNC 5e1a0 15d 0 _acrt_report_runtime_error
FUNC 5e354 7 0 query_app_type
FUNC 5e35c 7 0 set_app_type
FUNC 5e364 eb 0 common_lseek<long>
FUNC 5e48c ef 0 common_lseek<__int64>
FUNC 5e5b8 f3 0 common_lseek_nolock<long>
FUNC 5e6e8 99 0 common_lseek_nolock<__int64>
FUNC 5e7a8 9e 0 common_lseek_do_seek_nolock
FUNC 5e870 33 0 common_lseek_do_seek_nolock
FUNC 5e8b0 5 0 lseek
FUNC 5e8b8 5 0 lseek_nolock
FUNC 5e8c0 5 0 lseeki64
FUNC 5e8c8 5 0 lseeki64_nolock
FUNC 5e8d0 40 0 __crt_seh_guarded_call<unsigned short>::operator()<<lambda_0384895ae1aa6ccbfe369a30d6ca2ef7>,<lambda_9e0b6ab72a5b3ae37ad997d08b519f50> &,<lambda_7e22f70504d73c22058e5832bde5914f> >
FUNC 5e920 26 0 __acrt_lock_and_call<<lambda_9e0b6ab72a5b3ae37ad997d08b519f50> >
FUNC 5e950 8 0 <lambda_0384895ae1aa6ccbfe369a30d6ca2ef7>::<lambda_0384895ae1aa6ccbfe369a30d6ca2ef7>
FUNC 5e95c 8 0 <lambda_7e22f70504d73c22058e5832bde5914f>::<lambda_7e22f70504d73c22058e5832bde5914f>
FUNC 5e968 7 0 <lambda_9e0b6ab72a5b3ae37ad997d08b519f50>::<lambda_9e0b6ab72a5b3ae37ad997d08b519f50>
FUNC 5e970 7 0 <lambda_0384895ae1aa6ccbfe369a30d6ca2ef7>::operator()
FUNC 5e978 7 0 <lambda_7e22f70504d73c22058e5832bde5914f>::operator()
FUNC 5e980 b 0 <lambda_9e0b6ab72a5b3ae37ad997d08b519f50>::operator()
FUNC 5e990 3b 0 putwch
FUNC 5e9dc 3b 0 putwch_nolock
FUNC 5ea28 1bd 0 translate_text_mode_nolock<char>
FUNC 5ec54 27b 0 translate_text_mode_nolock<wchar_t>
FUNC 5ef70 22 0 store_lookahead
FUNC 5ef9c 43 0 store_lookahead
FUNC 5eff0 19b 0 translate_ansi_or_utf8_nolock
FUNC 5f1f4 8f 0 translate_utf16_from_console_nolock
FUNC 5f2a8 119 0 read
FUNC 5f408 456 0 read_nolock
FUNC 5f974 83 0 fclose_nolock
FUNC 5fa18 62 0 fclose
FUNC 5fa94 1dc 0 __crt_mbstring::__mbrtoc32_utf8(char32_t *,char const *,unsigned __int64,_Mbstatet *)
FUNC 5fce8 5 0 mbrtoc32
FUNC 5fcf0 179 0 InternalGetLocaleInfoA
FUNC 5fec8 1c8 0 _acrt_GetLocaleInfoA
FUNC 60104 20 0 fegetenv
FUNC 6012c 4c 0 fesetenv
FUNC 6018c 50 0 feholdexcept
FUNC 601f0 c2 0 ceil
FUNC 602f0 5ab 0 log10
FUNC 60a08 66 0 _acrt_stdio_allocate_buffer_nolock
FUNC 60a88 c6 0 common_xtox<unsigned long,char>
FUNC 60b80 d4 0 common_xtox<unsigned long,wchar_t>
FUNC 60c8c cb 0 common_xtox<unsigned __int64,char>
FUNC 60d8c d9 0 common_xtox<unsigned __int64,wchar_t>
FUNC 60e9c 67 0 common_xtox_s<unsigned long,char>
FUNC 60f1c 69 0 common_xtox_s<unsigned long,wchar_t>
FUNC 60fa0 67 0 common_xtox_s<unsigned __int64,char>
FUNC 61020 69 0 common_xtox_s<unsigned __int64,wchar_t>
FUNC 610a4 31 0 i64toa
FUNC 610e4 21 0 i64toa_s
FUNC 61110 31 0 i64tow
FUNC 61150 21 0 i64tow_s
FUNC 6117c 30 0 itoa
FUNC 611b8 20 0 itoa_s
FUNC 611e0 30 0 itow
FUNC 6121c 20 0 itow_s
FUNC 61244 30 0 ltoa
FUNC 61280 20 0 ltoa_s
FUNC 612a8 30 0 ltow
FUNC 612e4 20 0 ltow_s
FUNC 6130c 23 0 ui64toa
FUNC 61338 13 0 ui64toa_s
FUNC 61350 23 0 ui64tow
FUNC 6137c 13 0 ui64tow_s
FUNC 61394 23 0 ultoa
FUNC 613c0 13 0 ultoa_s
FUNC 613d8 23 0 ultow
FUNC 61404 13 0 ultow_s
FUNC 6141c 3e 0 _ascii_wcsicmp
FUNC 6146c 46 0 wcsicmp
FUNC 614c4 127 0 wcsicmp_l
FUNC 61634 35 0 wcscmp
FUNC 61678 bb 0 towlower_l
FUNC 61764 7 0 towlower
FUNC 6176c 40 0 set_error_mode
FUNC 617bc a3 0 common_show_message_box<char>
FUNC 61888 a4 0 common_show_message_box<wchar_t>
FUNC 61958 11 0 __crt_char_traits<char>::message_box<std::nullptr_t,char const * const &,char const * const &,unsigned long>
FUNC 61970 11 0 __crt_char_traits<wchar_t>::message_box<std::nullptr_t,wchar_t const * const &,wchar_t const * const &,unsigned long>
FUNC 61988 11 0 __crt_char_traits<char>::message_box<HWND__ *,char const * const &,char const * const &,unsigned int const &>
FUNC 619a0 11 0 __crt_char_traits<wchar_t>::message_box<HWND__ *,wchar_t const * const &,wchar_t const * const &,unsigned int const &>
FUNC 619b8 8 0 __crt_char_traits<char>::output_debug_string<char const * const &>
FUNC 619c4 a 0 __crt_char_traits<wchar_t>::output_debug_string<wchar_t const * const &>
FUNC 619d0 a3 0 _acrt_show_narrow_message_box
FUNC 61a9c a4 0 _acrt_show_wide_message_box
FUNC 61b6c aa 0 console_output_reopen_and_retry<<lambda_61c1b8a38cedca4df5fdc542e6ccae6d> >
FUNC 61c40 17 0 <lambda_61c1b8a38cedca4df5fdc542e6ccae6d>::<lambda_61c1b8a38cedca4df5fdc542e6ccae6d>
FUNC 61c5c 27 0 <lambda_61c1b8a38cedca4df5fdc542e6ccae6d>::operator()
FUNC 61c8c 3b 0 __dcrt_lowio_initialize_console_output
FUNC 61cd8 52 0 _dcrt_lowio_ensure_console_output_initialized
FUNC 61d40 1c 0 _dcrt_terminate_console_output
FUNC 61d64 be 0 _dcrt_write_console
FUNC 61e54 71 0 __crt_seh_guarded_call<int>::operator()<<lambda_751a882b2c74d4b022dec766aa51a29a>,<lambda_628dfdc04ba53c8bfc02c9951375f3f5> &,<lambda_f6c7be5f7998530c34de24c7437d6b54> >
FUNC 61ee4 26 0 __acrt_lowio_lock_fh_and_call<<lambda_628dfdc04ba53c8bfc02c9951375f3f5> >
FUNC 61f14 7 0 <lambda_628dfdc04ba53c8bfc02c9951375f3f5>::<lambda_628dfdc04ba53c8bfc02c9951375f3f5>
FUNC 61f1c 8 0 <lambda_751a882b2c74d4b022dec766aa51a29a>::<lambda_751a882b2c74d4b022dec766aa51a29a>
FUNC 61f28 8 0 <lambda_f6c7be5f7998530c34de24c7437d6b54>::<lambda_f6c7be5f7998530c34de24c7437d6b54>
FUNC 61f34 49 0 <lambda_628dfdc04ba53c8bfc02c9951375f3f5>::operator()
FUNC 61f90 7 0 <lambda_751a882b2c74d4b022dec766aa51a29a>::operator()
FUNC 61f98 7 0 <lambda_f6c7be5f7998530c34de24c7437d6b54>::operator()
FUNC 61fa0 7e 0 close_os_handle_nolock
FUNC 62040 a1 0 close
FUNC 6210c bd 0 close_nolock
FUNC 621f8 8 0 __crt_internal_free_policy::operator()<__crt_stdio_stream_data>(__crt_stdio_stream_data const * const)
FUNC 62204 7 0 __crt_unique_heap_ptr<__crt_stdio_stream_data,__crt_internal_free_policy>::__crt_unique_heap_ptr<__crt_stdio_stream_data,__crt_internal_free_policy>(__crt_stdio_stream_data * const)
FUNC 6220c 8 0 __crt_stdio_stream::__crt_stdio_stream()
FUNC 62218 1b 0 __crt_unique_heap_ptr<__crt_stdio_stream_data,__crt_internal_free_policy>::~__crt_unique_heap_ptr<__crt_stdio_stream_data,__crt_internal_free_policy>()
FUNC 6223c 56 0 __acrt_stdio_allocate_stream()
FUNC 622a8 1c 0 __acrt_stdio_free_stream(__crt_stdio_stream)
FUNC 622cc 9 0 __crt_stdio_stream::deallocate()
FUNC 622d8 8 0 __crt_unique_heap_ptr<__crt_stdio_stream_data,__crt_internal_free_policy>::detach()
FUNC 622e4 ea 0 find_or_allocate_unused_stream_nolock
FUNC 62408 8 0 __crt_stdio_stream::lock()
FUNC 62414 1b 0 __crt_unique_heap_ptr<__crt_stdio_stream_data,__crt_internal_free_policy>::release()
FUNC 62438 1f 0 __crt_stdio_stream::try_allocate()
FUNC 62460 8 0 __crt_stdio_stream::unlock()
FUNC 6246c a 0 __acrt_fenv_shift_bits<__acrt_fenv_abstract_control>(__acrt_fenv_abstract_control,__acrt_fenv_abstract_control,unsigned int)
FUNC 62478 a 0 __acrt_fenv_shift_bits<__acrt_fenv_abstract_status>(__acrt_fenv_abstract_status,__acrt_fenv_abstract_status,unsigned int)
FUNC 62484 b 0 __acrt_fenv_translate_bit<__acrt_fenv_abstract_control,__acrt_fenv_machine_sse_control>(__acrt_fenv_machine_sse_control,__acrt_fenv_machine_sse_control,__acrt_fenv_abstract_control,__acrt_fenv_abstract_control)
FUNC 62494 a 0 __acrt_fenv_translate_bit<__acrt_fenv_abstract_status,__acrt_fenv_machine_sse_status>(__acrt_fenv_machine_sse_status,__acrt_fenv_machine_sse_status,__acrt_fenv_abstract_status,__acrt_fenv_abstract_status)
FUNC 624a0 c 0 __acrt_fenv_translate_bit<__acrt_fenv_machine_sse_control,__acrt_fenv_abstract_control>(__acrt_fenv_abstract_control,__acrt_fenv_abstract_control,__acrt_fenv_machine_sse_control,__acrt_fenv_machine_sse_control)
FUNC 624b0 a 0 __acrt_fenv_translate_bit<__acrt_fenv_machine_sse_status,__acrt_fenv_abstract_status>(__acrt_fenv_abstract_status,__acrt_fenv_abstract_status,__acrt_fenv_machine_sse_status,__acrt_fenv_machine_sse_status)
FUNC 624bc a 0 __acrt_fenv_unshift_bits<__acrt_fenv_abstract_control>(__acrt_fenv_abstract_control,__acrt_fenv_abstract_control,unsigned int)
FUNC 624c8 a 0 __acrt_fenv_unshift_bits<__acrt_fenv_abstract_status>(__acrt_fenv_abstract_status,__acrt_fenv_abstract_status,unsigned int)
FUNC 624d4 4d 0 to_abstract_status<enum __acrt_fenv_machine_sse_status>
FUNC 62534 58 0 translate_control_exception_mask<enum __acrt_fenv_abstract_control,enum __acrt_fenv_machine_sse_control>
FUNC 625a4 99 0 translate_control_exception_mask<enum __acrt_fenv_machine_sse_control,enum __acrt_fenv_abstract_control>
FUNC 62664 33 0 translate_control_rounding_control<enum __acrt_fenv_abstract_control,enum __acrt_fenv_machine_sse_control>
FUNC 626a4 32 0 translate_control_rounding_control<enum __acrt_fenv_machine_sse_control,enum __acrt_fenv_abstract_control>
FUNC 626e4 4d 0 translate_status<enum __acrt_fenv_abstract_status,enum __acrt_fenv_machine_sse_status>
FUNC 62744 4d 0 translate_status<enum __acrt_fenv_machine_sse_status,enum __acrt_fenv_abstract_status>
FUNC 627a4 5 0 operator&(__acrt_fenv_abstract_control,__acrt_fenv_abstract_control)
FUNC 627ac 5 0 operator&(__acrt_fenv_abstract_status,__acrt_fenv_abstract_status)
FUNC 627b4 7 0 operator&(__acrt_fenv_machine_sse_control,__acrt_fenv_machine_sse_control)
FUNC 627bc 5 0 operator&(__acrt_fenv_machine_sse_status,__acrt_fenv_machine_sse_status)
FUNC 627c4 5 0 operator|(__acrt_fenv_abstract_control,__acrt_fenv_abstract_control)
FUNC 627cc 5 0 operator|(__acrt_fenv_abstract_status,__acrt_fenv_abstract_status)
FUNC 627d4 7 0 operator|(__acrt_fenv_machine_sse_control,__acrt_fenv_machine_sse_control)
FUNC 627dc 6 0 operator|=(__acrt_fenv_abstract_control &,__acrt_fenv_abstract_control)
FUNC 627e4 6 0 operator|=(__acrt_fenv_abstract_status &,__acrt_fenv_abstract_status)
FUNC 627ec 7 0 operator|=(__acrt_fenv_machine_sse_control &,__acrt_fenv_machine_sse_control)
FUNC 627f4 6 0 operator|=(__acrt_fenv_machine_sse_status &,__acrt_fenv_machine_sse_status)
FUNC 627fc 13 0 __acrt_fenv_shift_abstract_sse_control(__acrt_fenv_abstract_control)
FUNC 62814 9 0 __acrt_fenv_shift_abstract_sse_status(__acrt_fenv_abstract_status)
FUNC 62820 16 0 __acrt_fenv_unshift_abstract_sse_control(__acrt_fenv_abstract_control)
FUNC 6283c 9 0 __acrt_fenv_unshift_abstract_sse_status(__acrt_fenv_abstract_status)
FUNC 62848 12 0 get_machine_sse_control
FUNC 62860 d 0 get_machine_sse_status
FUNC 62870 23 0 set_machine_sse_control
FUNC 6289c 1b 0 set_machine_sse_status
FUNC 628c0 df 0 to_abstract_control
FUNC 629d8 137 0 to_machine_sse_control
FUNC 62b5c 57 0 to_machine_sse_status
FUNC 62bc8 34 0 translate_control_denormal_control_from_sse
FUNC 62c0c 30 0 translate_control_denormal_control_to_sse
FUNC 62c48 17 0 _acrt_fenv_expand_round_control
FUNC 62c64 9 0 _acrt_fenv_get_common_round_control
FUNC 62c70 f1 0 _acrt_fenv_get_control
FUNC 62da0 b 0 _acrt_fenv_get_fp_status_word_from_exception_mask
FUNC 62db0 53 0 _acrt_fenv_get_status
FUNC 62e18 147 0 _acrt_fenv_set_control
FUNC 62fb0 83 0 _acrt_fenv_set_status
FUNC 63054 c6 0 _abstract_cw
FUNC 6314c 5b 0 _abstract_sw
FUNC 631c0 6e 0 clearfp
FUNC 6324c 5 0 control87
FUNC 63254 9 0 controlfp
FUNC 63260 a 0 fpreset
FUNC 6326c bf 0 _hw_cw
FUNC 6335c 34 0 set_controlfp
FUNC 633a0 62 0 statusfp
FUNC 6341c 2be 0 common_control87
FUNC 6378c 65 0 _call_matherr
FUNC 6380c ba 0 _exception_enabled
FUNC 638f4 127 0 handle_error
FUNC 63a64 133 0 handle_errorf
FUNC 63be4 19 0 handle_nan
FUNC 63c04 f 0 handle_nanf
FUNC 63c20 70 0 _acrt_initialize_fma3
FUNC 63cac 7 0 get_FMA3_enable
FUNC 63cb4 17 0 set_FMA3_enable
FUNC 63cd0 20 0 log10_special
FUNC 63cf8 20 0 log10f_special
FUNC 63d20 20 0 log_special
FUNC 63d48 96 0 _log_special_common
FUNC 63e04 20 0 logf_special
FUNC 63e2c 9c 0 _logf_special_common
FUNC 63ef0 87 0 _acrt_LCMapStringW
FUNC 63f98 9c 0 _acrt_OutputDebugStringA
FUNC 64070 10 0 get_fpsr
FUNC 64080 a 0 set_fpsr
FUNC 6408a 14 0 fclrf
FUNC 6409e 1f 0 frnd
FUNC 640d4 43 0 errcode
FUNC 64128 f1 0 except1
FUNC 64258 106 0 except2
FUNC 643a0 31 0 _get_fname
FUNC 643e0 267 0 handle_exc
FUNC 646e0 5 0 handle_qnan2
FUNC 646e8 27 0 raise_exc
FUNC 64718 30d 0 raise_exc_ex
FUNC 64ae8 2a 0 raise_excf
FUNC 64b1c 2e 0 set_errno_from_matherr
FUNC 64b58 d4 0 umatherr
FUNC 64c64 1d 0 clrfp
FUNC 64c88 7c 0 ctrlfp
FUNC 64d24 1f 0 set_statfp
FUNC 64d4c 11 0 statfp
FUNC 64d64 200 0 _mbstowcs_l_helper
FUNC 64fe4 5 0 mbstowcs_l
FUNC 64fec 133 0 mbstowcs_s_l
FUNC 6516c 1a 0 mbstowcs
FUNC 6518c 1e 0 mbstowcs_s
FUNC 651b4 4e 0 add_exp
FUNC 65218 12e 0 decomp
FUNC 65394 1d 0 get_exp
FUNC 653b8 30 0 set_bexp
FUNC 653f4 38 0 set_exp
FUNC 6543c 74 0 sptype
FUNC 654d0 44 0 FindPESection
FUNC 65530 4d 0 IsNonwritableInCurrentImage
FUNC 65590 2d 0 ValidateImageBase
FUNC 655c8 b 0 type_info::~type_info()
FUNC 655d8 2b 0 type_info::`scalar deleting destructor'(unsigned int)
FUNC 65610 1d 0 _GSHandlerCheck
FUNC 65634 5b 0 _GSHandlerCheckCommon
FUNC 656c0 21 0 _security_check_cookie
FUNC 656f0 85 0 _GSHandlerCheck_SEH
FUNC 65798 34 0 _raise_securityfailure
FUNC 657dc d1 0 _report_gsfailure
FUNC 658e4 13 0 _report_rangecheckfailure
FUNC 658fc 9b 0 _report_securityfailure
FUNC 659c0 10e 0 _report_securityfailureEx
FUNC 65b14 6d 0 capture_current_context
FUNC 65b9c 71 0 capture_previous_context
FUNC 65c40 51 0 _chkstk
PUBLIC 65ca9 0 RtlUnwindEx
PUBLIC 65caf 0 InterlockedPushEntrySList
PUBLIC 65cb5 0 InterlockedFlushSList
PUBLIC 65cbb 0 GetLastError
PUBLIC 65cc1 0 SetLastError
PUBLIC 65cc7 0 EnterCriticalSection
PUBLIC 65ccd 0 LeaveCriticalSection
PUBLIC 65cd3 0 DeleteCriticalSection
PUBLIC 65cd9 0 InitializeCriticalSectionAndSpinCount
PUBLIC 65cdf 0 TlsAlloc
PUBLIC 65ce5 0 TlsGetValue
PUBLIC 65ceb 0 TlsSetValue
PUBLIC 65cf1 0 TlsFree
PUBLIC 65cf7 0 FreeLibrary
PUBLIC 65cfd 0 GetProcAddress
PUBLIC 65d03 0 LoadLibraryExW
PUBLIC 65d09 0 EncodePointer
PUBLIC 65d0f 0 RaiseException
PUBLIC 65d15 0 RtlPcToFileHeader
PUBLIC 65d1b 0 GetCurrentProcess
PUBLIC 65d21 0 TerminateProcess
PUBLIC 65d27 0 ExitProcess
PUBLIC 65d2d 0 GetModuleHandleExW
PUBLIC 65d33 0 GetModuleFileNameW
PUBLIC 65d39 0 GetCurrentThread
PUBLIC 65d3f 0 HeapFree
PUBLIC 65d45 0 HeapAlloc
PUBLIC 65d4b 0 FindClose
PUBLIC 65d51 0 FindFirstFileExW
PUBLIC 65d57 0 FindNextFileW
PUBLIC 65d5d 0 IsValidCodePage
PUBLIC 65d63 0 GetACP
PUBLIC 65d69 0 GetOEMCP
PUBLIC 65d6f 0 GetCPInfo
PUBLIC 65d75 0 GetCommandLineA
PUBLIC 65d7b 0 GetCommandLineW
PUBLIC 65d81 0 MultiByteToWideChar
PUBLIC 65d87 0 WideCharToMultiByte
PUBLIC 65d8d 0 GetEnvironmentStringsW
PUBLIC 65d93 0 FreeEnvironmentStringsW
PUBLIC 65d99 0 SetEnvironmentVariableW
PUBLIC 65d9f 0 GetDateFormatW
PUBLIC 65da5 0 GetTimeFormatW
PUBLIC 65dab 0 CompareStringW
PUBLIC 65db1 0 LCMapStringW
PUBLIC 65db7 0 GetLocaleInfoW
PUBLIC 65dbd 0 IsValidLocale
PUBLIC 65dc3 0 GetUserDefaultLCID
PUBLIC 65dc9 0 EnumSystemLocalesW
PUBLIC 65dcf 0 GetProcessHeap
PUBLIC 65dd5 0 GetStdHandle
PUBLIC 65ddb 0 GetFileType
PUBLIC 65de1 0 SetConsoleCtrlHandler
PUBLIC 65de7 0 GetStringTypeW
PUBLIC 65ded 0 HeapSize
PUBLIC 65df3 0 HeapReAlloc
PUBLIC 65df9 0 SetStdHandle
PUBLIC 65dff 0 FlushFileBuffers
PUBLIC 65e05 0 WriteFile
PUBLIC 65e0b 0 GetConsoleCP
PUBLIC 65e11 0 GetConsoleMode
PUBLIC 65e17 0 GetFileSizeEx
PUBLIC 65e1d 0 SetFilePointerEx
PUBLIC 65e23 0 ReadFile
PUBLIC 65e29 0 ReadConsoleW
PUBLIC 65e2f 0 OutputDebugStringW
PUBLIC 65e35 0 CreateFileW
PUBLIC 65e3b 0 CloseHandle
PUBLIC 65e41 0 WriteConsoleW
FUNC 65e48 89 0 strchr
FUNC 65ef4 91 0 wcschr
FUNC 65fac 149 0 strrchr
FUNC 66148 29 0 local_unwind
FUNC 66190 c7 0 memcmp
PUBLIC 6628c 0 RtlUnwind
FUNC 67df0 2 0 guard_dispatch_icall_nop
FUNC 68e00 17 0 `dllmain_crt_process_attach'::`1'::fin$0
FUNC 68e1c 1c 0 `dllmain_crt_process_detach'::`1'::fin$0
FUNC 68e3f 36 0 `dllmain_dispatch'::`1'::filt$0
FUNC 68e82 18 0 __scrt_is_nonwritable_in_current_image$filt$0
FUNC 68ea0 18 0 __DestructExceptionObject$filt$0
FUNC 68ebe c 0 `UnDecorator::getDecoratedName'::`1'::dtor$0
FUNC 68ecd 16 0 __unDNameEx$fin$0
FUNC 68ee8 91 0 `_CallSETranslator<__FrameHandler3>'::`1'::filt$0
FUNC 68f9d 91 0 `_CallSETranslator<__FrameHandler4>'::`1'::filt$0
FUNC 69052 25 0 `__FrameHandler3::CxxCallCatchBlock'::`1'::filt$0
FUNC 69077 78 0 `__FrameHandler3::CxxCallCatchBlock'::`1'::fin$1
FUNC 69116 3e 0 `__FrameHandler4::CxxCallCatchBlock'::`1'::filt$0
FUNC 69154 94 0 `__FrameHandler4::CxxCallCatchBlock'::`1'::fin$1
FUNC 6921c 16 0 `__FrameHandler3::FrameUnwindToState'::`1'::filt$0
FUNC 69232 23 0 `__FrameHandler3::FrameUnwindToState'::`1'::fin$1
FUNC 69263 16 0 `__FrameHandler4::FrameUnwindToState'::`1'::filt$0
FUNC 69279 23 0 `__FrameHandler4::FrameUnwindToState'::`1'::fin$1
FUNC 692aa 1a 0 `__crt_seh_guarded_call<void>::operator()<<lambda_d80eeec6fff315bfe5c115232f3240e3>,<lambda_6e4b09c48022b2350581041d5f6b0c4c> &,<lambda_2358e3775559c9db80273638284d5e45> >'::`1'::fin$0
FUNC 692ca 1b 0 `<lambda_6e4b09c48022b2350581041d5f6b0c4c>::operator()'::`1'::filt$0
FUNC 692eb 1a 0 `__crt_seh_guarded_call<int>::operator()<<lambda_638799b9deba96c50f710eeac98168cd>,<lambda_22ebabd17bc4fa466a2aca6d8deb888d> &,<lambda_a6f7d7db0129f75315ebf26d50c089f1> >'::`1'::fin$0
FUNC 6930b 1a 0 `__crt_seh_guarded_call<int>::operator()<<lambda_7777bce6b2f8c936911f934f8298dc43>,<lambda_f03950bc5685219e0bcd2087efbe011e> &,<lambda_3883c3dff614d5e0c5f61bb1ac94921c> >'::`1'::fin$0
FUNC 6932b 1b 0 `__crt_seh_guarded_call<int>::operator()<<lambda_63c71d947f2ce890aa4aac7392f1cbed>,<lambda_e3269ba96939e7713c73908c0d757d25> &,<lambda_3776af017df72547960a8ac98bb265e7> >'::`1'::fin$0
FUNC 6934c 1b 0 `__crt_seh_guarded_call<int>::operator()<<lambda_676bd5779251ec186b530f0a904b4b35>,<lambda_b579ea784fd840951dfbcbdaebf709fd> &,<lambda_10027885da78ada7fb00668d7e2e96b5> >'::`1'::fin$0
FUNC 6936d 1b 0 `__crt_seh_guarded_call<int>::operator()<<lambda_8be82e0ce9ca3860586e20edfb7a650e>,<lambda_673ffc0dc9412a0afcf2088e0e1b9bdc> &,<lambda_c997b1ad71a4c19edf3d1d12a5864641> >'::`1'::fin$0
FUNC 6938e 1b 0 `__crt_seh_guarded_call<int>::operator()<<lambda_d1b8e9147f7260ae436300a3cb83e6d4>,<lambda_e638437c4db75b75056fab6aaf7e4f15> &,<lambda_8c9f37a989ed2ac074735e5b535e306a> >'::`1'::fin$0
FUNC 693af 1b 0 `__crt_seh_guarded_call<int>::operator()<<lambda_e746820a99d01fe878d2dbd7f1018dff>,<lambda_a993425e72f5bd8b40f5859286f153c4> &,<lambda_4dad5d88921143c78c186dc2683775b0> >'::`1'::fin$0
FUNC 693d0 1b 0 `__crt_seh_guarded_call<int>::operator()<<lambda_fe5404e9642edbb7c8ae71e1dcfa4018>,<lambda_36eeb330e99a4f0bf8a7da86d0894cb9> &,<lambda_2fa474834de80dc12f7a3c6eddd7a366> >'::`1'::fin$0
FUNC 693f1 1a 0 `__crt_seh_guarded_call<void>::operator()<<lambda_0ae27a3a962d80f24befdcbee591983d>,<lambda_8d0ee55de4b1038c4002e0adecdf1839> &,<lambda_dc504788e8f1664fe9b84e20bfb512f2> >'::`1'::fin$0
FUNC 69411 1a 0 `__crt_seh_guarded_call<void>::operator()<<lambda_2d41944a1d46af3157314b8a01080d33>,<lambda_8f455de75cd7d7f24b4096f044d8b9e6> &,<lambda_aa500f224e6afead328df44964fe2772> >'::`1'::fin$0
FUNC 69431 1a 0 `__crt_seh_guarded_call<void>::operator()<<lambda_aa87e3671a710a21b5dc78c0bdf72e11>,<lambda_92619d2358a28f41a33ba319515a20b9> &,<lambda_6992ecaafeb10aed2b74cb1fae11a551> >'::`1'::fin$0
FUNC 69451 1a 0 `__crt_seh_guarded_call<void>::operator()<<lambda_f2e299630e499de9f9a165e60fcd3db5>,<lambda_2ae9d31cdba2644fcbeaf08da7c24588> &,<lambda_40d01ff24d0e7b3814fdbdcee8eab3c7> >'::`1'::fin$0
FUNC 69471 1a 0 `__crt_seh_guarded_call<void>::operator()<<lambda_efdfa57d1f175319df784efa44bb7b81>,<lambda_5f0a4c1567f8adc6734073e5d1e1b35c> &,<lambda_2e8a7d3640ea6ccb4c2413664c2db6fd> >'::`1'::fin$0
FUNC 69491 19 0 `update_thread_multibyte_data_internal'::`1'::fin$0
FUNC 694b0 1a 0 `__crt_seh_guarded_call<int>::operator()<<lambda_48fc4a32460bb0512d3b13f8499328be>,<lambda_6c3dac0a4f3f9cefca9bb494422f9b77> &,<lambda_0a2f2c9f9a56eb2b08bfa6ff61d331c5> >'::`1'::fin$0
FUNC 694d0 19 0 __acrt_initialize_lowio$fin$0
FUNC 694ef 16 0 _query_new_handler$fin$0
FUNC 6950a 16 0 _set_new_handler$fin$0
FUNC 69525 1a 0 `__crt_seh_guarded_call<void (__cdecl*)(int)>::operator()<<lambda_450d765d439847d4c735a33c368b5fc0>,<lambda_44731a7d0e6d81c3e6aa82d741081786> &,<lambda_601a2a7da3b7a96e9554ac7215c4b07c> >'::`1'::fin$0
FUNC 69545 19 0 `ctrlevent_capture'::`1'::fin$0
FUNC 69564 21 0 raise$fin$0
FUNC 6958d 19 0 signal$fin$0
FUNC 695ac 1b 0 `__crt_seh_guarded_call<void>::operator()<<lambda_842d9ff0dc9ef11c61343bbaebe7f885>,<lambda_c5860995281e5c4ce005b3de8f5874ee> &,<lambda_d90129c13df834fdcbf8d2b88dafcf2d> >'::`1'::fin$0
FUNC 695cd 1d 0 `__crt_seh_guarded_call<void>::operator()<<lambda_886d6c58226a84441f68b9f2b8217b83>,<lambda_ab61a845afdef5b7c387490eaf3616ee> &,<lambda_f7f22ab5edc0698d5f6905b0d3f44752> >'::`1'::fin$0
FUNC 695f1 1b 0 `__crt_seh_guarded_call<int>::operator()<<lambda_c376a267cfb53b6959b3b692ec76b120>,<lambda_9a32fed5bf61b6b509b2d3f6003082a1> &,<lambda_572fbb9fa0ab338edf41edfd4b5fcc8d> >'::`1'::fin$0
FUNC 69612 18 0 fputwc$fin$0
FUNC 69630 1a 0 fputc$fin$0
FUNC 69650 1a 0 `__crt_seh_guarded_call<void>::operator()<<lambda_0a55505eb881d180377eb1fc64ffb544>,<lambda_862e9a3f04921db6ca1ce3faa2bf3edf> &,<lambda_c91f0b5e4ab41df1063aa1a95f49bd71> >'::`1'::fin$0
FUNC 69670 1a 0 `__crt_seh_guarded_call<void>::operator()<<lambda_1d892b297fdedeee07ed8124eeb2f2fa>,<lambda_ffc046909424fd52df0ac47e64813305> &,<lambda_01a7098693036236037e7cdb9bca3d73> >'::`1'::fin$0
FUNC 69690 1a 0 `__crt_seh_guarded_call<void>::operator()<<lambda_410d79af7f07d98d83a3f525b3859a53>,<lambda_3e16ef9562a7dcce91392c22ab16ea36> &,<lambda_38119f0e861e05405d8a144b9b982f0a> >'::`1'::fin$0
FUNC 696b0 21 0 `__crt_seh_guarded_call<void>::operator()<<lambda_7f2adfce497ff2baa965cd4f576ecfd1>,<lambda_2a444430fde8c29194d880d93eed5e8f> &,<lambda_8dff2cf36a5417162780cd64fa2883ef> &>'::`1'::fin$0
FUNC 696d9 1a 0 `__crt_seh_guarded_call<void>::operator()<<lambda_a48fd90c2dacdd6561e44078457d03a7>,<lambda_ebab98244f73a74f49db879bf13fa982> &,<lambda_8b3bdacfa7480f205f16cb49964db269> >'::`1'::fin$0
FUNC 696f9 19 0 _free_locale$fin$1
FUNC 69712 19 0 _free_locale$fin$0
FUNC 69737 19 0 __acrt_update_thread_locale_data$fin$0
FUNC 69756 19 0 __acrt_lowio_ensure_fh_exists$fin$0
FUNC 69775 19 0 _alloc_osfhnd$fin$0
FUNC 69794 41 0 _open_osfhandle$fin$0
FUNC 697e5 1a 0 `__crt_seh_guarded_call<int>::operator()<<lambda_a37b2b86f63e897a80ea819b0eb08c01>,<lambda_38ce7e780aa69e748d6df282ebc68efe> &,<lambda_99fb1378e971ab6e7edea83e3a7a83a2> >'::`1'::fin$0
FUNC 69805 17 0 _write$fin$0
FUNC 69821 19 0 _fcloseall$fin$0
FUNC 69840 17 0 `common_lseek<long>'::`1'::fin$0
FUNC 6985c 17 0 `common_lseek<__int64>'::`1'::fin$0
FUNC 69878 1a 0 `__crt_seh_guarded_call<unsigned short>::operator()<<lambda_0384895ae1aa6ccbfe369a30d6ca2ef7>,<lambda_9e0b6ab72a5b3ae37ad997d08b519f50> &,<lambda_7e22f70504d73c22058e5832bde5914f> >'::`1'::fin$0
FUNC 69898 17 0 _read$fin$0
FUNC 698b4 18 0 fclose$fin$0
FUNC 698d2 1a 0 `__crt_seh_guarded_call<int>::operator()<<lambda_751a882b2c74d4b022dec766aa51a29a>,<lambda_628dfdc04ba53c8bfc02c9951375f3f5> &,<lambda_f6c7be5f7998530c34de24c7437d6b54> >'::`1'::fin$0
FUNC 698f2 19 0 `__acrt_stdio_allocate_stream'::`1'::fin$0
FUNC 69911 2c 0 common_control87$filt$0
FUNC 69948 2c 0 _ctrlfp$filt$0
FUNC 69980 20 0 _IsNonwritableInCurrentImage$filt$0
STACK CFI INIT 6af0 68 .cfa: $rsp .ra: .cfa 8 - ^
STACK CFI 6af0 .cfa: $rsp 48 +
STACK CFI INIT 9378 50 .cfa: $rsp .ra: .cfa 8 - ^
STACK CFI 9378 .cfa: $rsp 48 +
STACK CFI INIT 93dc 119 .cfa: $rsp .ra: .cfa 8 - ^
STACK CFI 93dc .cfa: $rsp 48 +
STACK CFI INIT 953c 8e .cfa: $rsp .ra: .cfa 8 - ^
STACK CFI 953c .cfa: $rsp 48 +
STACK CFI INIT 95f0 133 .cfa: $rsp .ra: .cfa 8 - ^
STACK CFI 95f0 .cfa: $rsp 96 +
STACK CFI INIT 9798 3d .cfa: $rsp .ra: .cfa 8 - ^
STACK CFI 9798 .cfa: $rsp 48 +
STACK CFI INIT 97ec 6b .cfa: $rsp .ra: .cfa 8 - ^
STACK CFI 97ec .cfa: $rsp 48 +
STACK CFI INIT 9874 ac .cfa: $rsp .ra: .cfa 8 - ^
STACK CFI 9874 .cfa: $rsp 48 +
STACK CFI INIT 9990 1b .cfa: $rsp .ra: .cfa 8 - ^
STACK CFI 9990 .cfa: $rsp 48 +
STACK CFI INIT 9a04 14 .cfa: $rsp .ra: .cfa 8 - ^
STACK CFI 9a04 .cfa: $rsp 48 +
STACK CFI INIT 9acc 39 .cfa: $rsp .ra: .cfa 8 - ^
STACK CFI 9acc .cfa: $rsp 48 +
STACK CFI INIT 9b14 34 .cfa: $rsp .ra: .cfa 8 - ^
STACK CFI 9b14 .cfa: $rsp 48 +
STACK CFI INIT 9b58 15 .cfa: $rsp .ra: .cfa 8 - ^
STACK CFI 9b58 .cfa: $rsp 48 +
STACK CFI INIT 9b74 28 .cfa: $rsp .ra: .cfa 8 - ^
STACK CFI 9b74 .cfa: $rsp 48 +
STACK CFI INIT 9ba8 15 .cfa: $rsp .ra: .cfa 8 - ^
STACK CFI 9ba8 .cfa: $rsp 48 +
STACK CFI INIT 9bc4 60 .cfa: $rsp .ra: .cfa 8 - ^
STACK CFI 9bc4 .cfa: $rsp 48 +
STACK CFI INIT 9c3c 30 .cfa: $rsp .ra: .cfa 8 - ^
STACK CFI 9c3c .cfa: $rsp 48 +
STACK CFI INIT 9c78 14 .cfa: $rsp .ra: .cfa 8 - ^
STACK CFI 9c78 .cfa: $rsp 48 +
STACK CFI INIT 9c94 49 .cfa: $rsp .ra: .cfa 8 - ^
STACK CFI 9c94 .cfa: $rsp 48 +
STACK CFI INIT 9cf0 d8 .cfa: $rsp .ra: .cfa 8 - ^
STACK CFI 9cf0 .cfa: $rsp 80 +
STACK CFI INIT 9e00 99 .cfa: $rsp .ra: .cfa 8 - ^
STACK CFI 9e00 .cfa: $rsp 32 +
STACK CFI INIT 9ec0 24 .cfa: $rsp .ra: .cfa 8 - ^
STACK CFI 9ec0 .cfa: $rsp 48 +
STACK CFI INIT 9ef0 2b .cfa: $rsp .ra: .cfa 8 - ^
STACK CFI 9ef0 .cfa: $rsp 48 +
STACK CFI INIT 9f28 4f .cfa: $rsp .ra: .cfa 8 - ^
STACK CFI 9f28 .cfa: $rsp 48 +
STACK CFI INIT 9fd0 17 .cfa: $rsp .ra: .cfa 8 - ^
STACK CFI 9fd0 .cfa: $rsp 48 +
STACK CFI INIT a004 14a .cfa: $rsp .ra: .cfa 8 - ^
STACK CFI a004 .cfa: $rsp 1488 +
STACK CFI INIT a1a0 3a .cfa: $rsp .ra: .cfa 8 - ^
STACK CFI a1a0 .cfa: $rsp 160 +
STACK CFI INIT a1f4 52 .cfa: $rsp .ra: .cfa 8 - ^
STACK CFI a1f4 .cfa: $rsp 48 +
STACK CFI INIT a274 38 .cfa: $rsp .ra: .cfa 8 - ^
STACK CFI a274 .cfa: $rsp 48 +
STACK CFI INIT a2bc 3c .cfa: $rsp .ra: .cfa 8 - ^
STACK CFI a2bc .cfa: $rsp 48 +
STACK CFI INIT a308 3c .cfa: $rsp .ra: .cfa 8 - ^
STACK CFI a308 .cfa: $rsp 48 +
STACK CFI INIT a380 1b9 .cfa: $rsp .ra: .cfa 8 - ^
STACK CFI a380 .cfa: $rsp 48 +
STACK CFI INIT a614 20b .cfa: $rsp .ra: .cfa 8 - ^
STACK CFI a614 .cfa: $rsp 112 +
STACK CFI INIT a8ec 1b .cfa: $rsp .ra: .cfa 8 - ^
STACK CFI a8ec .cfa: $rsp 48 +
STACK CFI INIT a910 1b .cfa: $rsp .ra: .cfa 8 - ^
STACK CFI a910 .cfa: $rsp 48 +
STACK CFI INIT a9ac 1b .cfa: $rsp .ra: .cfa 8 - ^
STACK CFI a9ac .cfa: $rsp 48 +
STACK CFI INIT a9d0 1b .cfa: $rsp .ra: .cfa 8 - ^
STACK CFI a9d0 .cfa: $rsp 48 +
STACK CFI INIT aa24 2a .cfa: $rsp .ra: .cfa 8 - ^
STACK CFI aa24 .cfa: $rsp 48 +
STACK CFI INIT aaa4 11c .cfa: $rsp .ra: .cfa 8 - ^
STACK CFI aaa4 .cfa: $rsp 112 +
STACK CFI INIT ac08 32 .cfa: $rsp .ra: .cfa 8 - ^
STACK CFI ac08 .cfa: $rsp 48 +
STACK CFI INIT ac48 14 .cfa: $rsp .ra: .cfa 8 - ^
STACK CFI ac48 .cfa: $rsp 48 +
STACK CFI INIT ac64 12 .cfa: $rsp .ra: .cfa 8 - ^
STACK CFI ac64 .cfa: $rsp 48 +
STACK CFI INIT ac7c 20 .cfa: $rsp .ra: .cfa 8 - ^
STACK CFI ac7c .cfa: $rsp 48 +
STACK CFI INIT aca4 10 .cfa: $rsp .ra: .cfa 8 - ^
STACK CFI aca4 .cfa: $rsp 48 +
STACK CFI INIT acd0 10 .cfa: $rsp .ra: .cfa 8 - ^
STACK CFI acd0 .cfa: $rsp 16 +
STACK CFI INIT acf0 190 .cfa: $rsp .ra: .cfa 8 - ^
STACK CFI acf0 .cfa: $rsp 8 +
STACK CFI INIT af00 18 .cfa: $rsp .ra: .cfa 8 - ^
STACK CFI af00 .cfa: $rsp 8 +
STACK CFI INIT af20 1 .cfa: $rsp .ra: .cfa 8 - ^
STACK CFI af20 .cfa: $rsp 8 +
STACK CFI INIT af30 1 .cfa: $rsp .ra: .cfa 8 - ^
STACK CFI af30 .cfa: $rsp 8 +
STACK CFI INIT afe0 5b .cfa: $rsp .ra: .cfa 8 - ^
STACK CFI afe0 .cfa: $rsp 48 +
STACK CFI INIT b054 71 .cfa: $rsp .ra: .cfa 8 - ^
STACK CFI b054 .cfa: $rsp 48 +
STACK CFI INIT b0f0 2f .cfa: $rsp .ra: .cfa 8 - ^
STACK CFI b0f0 .cfa: $rsp 48 +
STACK CFI INIT b164 4a .cfa: $rsp .ra: .cfa 8 - ^
STACK CFI b164 .cfa: $rsp 48 +
STACK CFI INIT b1c0 5b .cfa: $rsp .ra: .cfa 8 - ^
STACK CFI b1c0 .cfa: $rsp 64 +
STACK CFI INIT b234 12 .cfa: $rsp .ra: .cfa 8 - ^
STACK CFI b234 .cfa: $rsp 48 +
STACK CFI INIT b24c 12 .cfa: $rsp .ra: .cfa 8 - ^
STACK CFI b24c .cfa: $rsp 48 +
STACK CFI INIT b264 12 .cfa: $rsp .ra: .cfa 8 - ^
STACK CFI b264 .cfa: $rsp 48 +
STACK CFI INIT b27c a .cfa: $rsp .ra: .cfa 8 - ^
STACK CFI b27c .cfa: $rsp 48 +
STACK CFI INIT b288 a5 .cfa: $rsp .ra: .cfa 8 - ^
STACK CFI b288 .cfa: $rsp 48 +
STACK CFI INIT b364 cc .cfa: $rsp .ra: .cfa 8 - ^
STACK CFI b364 .cfa: $rsp 48 +
STACK CFI INIT b478 31 .cfa: $rsp .ra: .cfa 8 - ^
STACK CFI b478 .cfa: $rsp 48 +
STACK CFI INIT b4b8 84 .cfa: $rsp .ra: .cfa 8 - ^
STACK CFI b4b8 .cfa: $rsp 48 +
STACK CFI INIT b560 40 .cfa: $rsp .ra: .cfa 8 - ^
STACK CFI b560 .cfa: $rsp 48 +
STACK CFI INIT b5f8 a6 .cfa: $rsp .ra: .cfa 8 - ^
STACK CFI b5f8 .cfa: $rsp 80 +
STACK CFI INIT b6c8 88 .cfa: $rsp .ra: .cfa 8 - ^
STACK CFI b6c8 .cfa: $rsp 80 +
STACK CFI INIT b868 88 .cfa: $rsp .ra: .cfa 8 - ^
STACK CFI b868 .cfa: $rsp 48 +
STACK CFI INIT b944 31 .cfa: $rsp .ra: .cfa 8 - ^
STACK CFI b944 .cfa: $rsp 48 +
STACK CFI INIT b984 7e .cfa: $rsp .ra: .cfa 8 - ^
STACK CFI b984 .cfa: $rsp 48 +
STACK CFI INIT ba24 36 .cfa: $rsp .ra: .cfa 8 - ^
STACK CFI ba24 .cfa: $rsp 48 +
STACK CFI INIT bae0 36 .cfa: $rsp .ra: .cfa 8 - ^
STACK CFI bae0 .cfa: $rsp 64 +
STACK CFI INIT bb24 36 .cfa: $rsp .ra: .cfa 8 - ^
STACK CFI bb24 .cfa: $rsp 64 +
STACK CFI INIT bb68 49 .cfa: $rsp .ra: .cfa 8 - ^
STACK CFI bb68 .cfa: $rsp 64 +
STACK CFI INIT bbc4 29 .cfa: $rsp .ra: .cfa 8 - ^
STACK CFI bbc4 .cfa: $rsp 48 +
STACK CFI INIT bbf8 29 .cfa: $rsp .ra: .cfa 8 - ^
STACK CFI bbf8 .cfa: $rsp 48 +
STACK CFI INIT bc2c 29 .cfa: $rsp .ra: .cfa 8 - ^
STACK CFI bc2c .cfa: $rsp 48 +
STACK CFI INIT bc60 29 .cfa: $rsp .ra: .cfa 8 - ^
STACK CFI bc60 .cfa: $rsp 48 +
STACK CFI INIT bc94 29 .cfa: $rsp .ra: .cfa 8 - ^
STACK CFI bc94 .cfa: $rsp 48 +
STACK CFI INIT bcc8 44 .cfa: $rsp .ra: .cfa 8 - ^
STACK CFI bcc8 .cfa: $rsp 48 +
STACK CFI INIT bd20 7d .cfa: $rsp .ra: .cfa 8 - ^
STACK CFI bd20 .cfa: $rsp 48 +
STACK CFI INIT bdbc 95 .cfa: $rsp .ra: .cfa 8 - ^
STACK CFI bdbc .cfa: $rsp 48 +
STACK CFI INIT be78 8a .cfa: $rsp .ra: .cfa 8 - ^
STACK CFI be78 .cfa: $rsp 48 +
STACK CFI INIT bf24 6b .cfa: $rsp .ra: .cfa 8 - ^
STACK CFI bf24 .cfa: $rsp 48 +
STACK CFI INIT bfac 67 .cfa: $rsp .ra: .cfa 8 - ^
STACK CFI bfac .cfa: $rsp 48 +
STACK CFI INIT c064 42 .cfa: $rsp .ra: .cfa 8 - ^
STACK CFI c064 .cfa: $rsp 48 +
STACK CFI INIT c0e0 63 .cfa: $rsp .ra: .cfa 8 - ^
STACK CFI c0e0 .cfa: $rsp 48 +
STACK CFI INIT c15c db3 .cfa: $rsp .ra: .cfa 8 - ^
STACK CFI c15c .cfa: $rsp 352 +
STACK CFI INIT d33c a6 .cfa: $rsp .ra: .cfa 8 - ^
STACK CFI d33c .cfa: $rsp 48 +
STACK CFI INIT d480 12b .cfa: $rsp .ra: .cfa 8 - ^
STACK CFI d480 .cfa: $rsp 96 +
STACK CFI INIT d5f8 f3 .cfa: $rsp .ra: .cfa 8 - ^
STACK CFI d5f8 .cfa: $rsp 64 +
STACK CFI INIT d728 253 .cfa: $rsp .ra: .cfa 8 - ^
STACK CFI d728 .cfa: $rsp 160 +
STACK CFI INIT da10 c8 .cfa: $rsp .ra: .cfa 8 - ^
STACK CFI da10 .cfa: $rsp 80 +
STACK CFI INIT db0c 468 .cfa: $rsp .ra: .cfa 8 - ^
STACK CFI db0c .cfa: $rsp 112 +
STACK CFI INIT e090 11d .cfa: $rsp .ra: .cfa 8 - ^
STACK CFI e090 .cfa: $rsp 64 +
STACK CFI INIT e1f4 19 .cfa: $rsp .ra: .cfa 8 - ^
STACK CFI e1f4 .cfa: $rsp 48 +
STACK CFI INIT e214 13e .cfa: $rsp .ra: .cfa 8 - ^
STACK CFI e214 .cfa: $rsp 64 +
STACK CFI INIT e3a4 7b8 .cfa: $rsp .ra: .cfa 8 - ^
STACK CFI e3a4 .cfa: $rsp 288 +
STACK CFI INIT ed4c 3e .cfa: $rsp .ra: .cfa 8 - ^
STACK CFI ed4c .cfa: $rsp 96 +
STACK CFI INIT ed9c e6 .cfa: $rsp .ra: .cfa 8 - ^
STACK CFI ed9c .cfa: $rsp 112 +
STACK CFI INIT eebc 2a8 .cfa: $rsp .ra: .cfa 8 - ^
STACK CFI eebc .cfa: $rsp 144 +
STACK CFI INIT f210 179 .cfa: $rsp .ra: .cfa 8 - ^
STACK CFI f210 .cfa: $rsp 112 +
STACK CFI INIT f448 19 .cfa: $rsp .ra: .cfa 8 - ^
STACK CFI f448 .cfa: $rsp 48 +
STACK CFI INIT f468 160 .cfa: $rsp .ra: .cfa 8 - ^
STACK CFI f468 .cfa: $rsp 112 +
STACK CFI INIT f620 17 .cfa: $rsp .ra: .cfa 8 - ^
STACK CFI f620 .cfa: $rsp 48 +
STACK CFI INIT f63c fc .cfa: $rsp .ra: .cfa 8 - ^
STACK CFI f63c .cfa: $rsp 96 +
STACK CFI INIT f778 214 .cfa: $rsp .ra: .cfa 8 - ^
STACK CFI f778 .cfa: $rsp 112 +
STACK CFI INIT fa14 c6 .cfa: $rsp .ra: .cfa 8 - ^
STACK CFI fa14 .cfa: $rsp 144 +
STACK CFI INIT fb0c 556 .cfa: $rsp .ra: .cfa 8 - ^
STACK CFI fb0c .cfa: $rsp 208 +
STACK CFI INIT 101b8 19 .cfa: $rsp .ra: .cfa 8 - ^
STACK CFI 101b8 .cfa: $rsp 48 +
STACK CFI INIT 1020c 29 .cfa: $rsp .ra: .cfa 8 - ^
STACK CFI 1020c .cfa: $rsp 48 +
STACK CFI INIT 10240 35 .cfa: $rsp .ra: .cfa 8 - ^
STACK CFI 10240 .cfa: $rsp 48 +
STACK CFI INIT 102a0 71 .cfa: $rsp .ra: .cfa 8 - ^
STACK CFI 102a0 .cfa: $rsp 96 +
STACK CFI INIT 10330 a9 .cfa: $rsp .ra: .cfa 8 - ^
STACK CFI 10330 .cfa: $rsp 48 +
STACK CFI INIT 10404 45 .cfa: $rsp .ra: .cfa 8 - ^
STACK CFI 10404 .cfa: $rsp 48 +
STACK CFI INIT 104ec 76d .cfa: $rsp .ra: .cfa 8 - ^
STACK CFI 104ec .cfa: $rsp 160 +
STACK CFI INIT 10e34 1e .cfa: $rsp .ra: .cfa 8 - ^
STACK CFI 10e34 .cfa: $rsp 48 +
STACK CFI INIT 10e5c 1e .cfa: $rsp .ra: .cfa 8 - ^
STACK CFI 10e5c .cfa: $rsp 48 +
STACK CFI INIT 10e84 24d .cfa: $rsp .ra: .cfa 8 - ^
STACK CFI 10e84 .cfa: $rsp 96 +
STACK CFI INIT 11164 162 .cfa: $rsp .ra: .cfa 8 - ^
STACK CFI 11164 .cfa: $rsp 96 +
STACK CFI INIT 11320 136 .cfa: $rsp .ra: .cfa 8 - ^
STACK CFI 11320 .cfa: $rsp 96 +
STACK CFI INIT 114a4 17 .cfa: $rsp .ra: .cfa 8 - ^
STACK CFI 114a4 .cfa: $rsp 48 +
STACK CFI INIT 114c0 13d .cfa: $rsp .ra: .cfa 8 - ^
STACK CFI 114c0 .cfa: $rsp 64 +
STACK CFI INIT 1164c 34 .cfa: $rsp .ra: .cfa 8 - ^
STACK CFI 1164c .cfa: $rsp 48 +
STACK CFI INIT 11690 478 .cfa: $rsp .ra: .cfa 8 - ^
STACK CFI 11690 .cfa: $rsp 544 +
STACK CFI INIT 11c28 103 .cfa: $rsp .ra: .cfa 8 - ^
STACK CFI 11c28 .cfa: $rsp 96 +
STACK CFI INIT 11d6c 94 .cfa: $rsp .ra: .cfa 8 - ^
STACK CFI 11d6c .cfa: $rsp 80 +
STACK CFI INIT 11e28 3e .cfa: $rsp .ra: .cfa 8 - ^
STACK CFI 11e28 .cfa: $rsp 96 +
STACK CFI INIT 11e98 94 .cfa: $rsp .ra: .cfa 8 - ^
STACK CFI 11e98 .cfa: $rsp 48 +
STACK CFI INIT 11fc4 2d .cfa: $rsp .ra: .cfa 8 - ^
STACK CFI 11fc4 .cfa: $rsp 48 +
STACK CFI INIT 11ffc 4b .cfa: $rsp .ra: .cfa 8 - ^
STACK CFI 11ffc .cfa: $rsp 48 +
STACK CFI INIT 120a0 d0 .cfa: $rsp .ra: .cfa 8 - ^
STACK CFI 120a0 .cfa: $rsp 80 +
STACK CFI INIT 121dc 4c .cfa: $rsp .ra: .cfa 8 - ^
STACK CFI 121dc .cfa: $rsp 48 +
STACK CFI INIT 1223c 31a .cfa: $rsp .ra: .cfa 8 - ^
STACK CFI 1223c .cfa: $rsp 288 +
STACK CFI INIT 1261c 3a0 .cfa: $rsp .ra: .cfa 8 - ^
STACK CFI 1261c .cfa: $rsp 256 +
STACK CFI INIT 12aa4 1fa .cfa: $rsp .ra: .cfa 8 - ^
STACK CFI 12aa4 .cfa: $rsp 432 +
STACK CFI INIT 12d1c 42 .cfa: $rsp .ra: .cfa 8 - ^
STACK CFI 12d1c .cfa: $rsp 96 +
STACK CFI INIT 12d9c 35e .cfa: $rsp .ra: .cfa 8 - ^
STACK CFI 12d9c .cfa: $rsp 48 +
STACK CFI INIT 131d4 109 .cfa: $rsp .ra: .cfa 8 - ^
STACK CFI 131d4 .cfa: $rsp 80 +
STACK CFI INIT 13320 58 .cfa: $rsp .ra: .cfa 8 - ^
STACK CFI 13320 .cfa: $rsp 48 +
STACK CFI INIT 13390 17 .cfa: $rsp .ra: .cfa 8 - ^
STACK CFI 13390 .cfa: $rsp 48 +
STACK CFI INIT 133ac 5f .cfa: $rsp .ra: .cfa 8 - ^
STACK CFI 133ac .cfa: $rsp 64 +
STACK CFI INIT 13424 1fd .cfa: $rsp .ra: .cfa 8 - ^
STACK CFI 13424 .cfa: $rsp 144 +
STACK CFI INIT 136a0 2d9 .cfa: $rsp .ra: .cfa 8 - ^
STACK CFI 136a0 .cfa: $rsp 176 +
STACK CFI INIT 13b10 28 .cfa: $rsp .ra: .cfa 8 - ^
STACK CFI 13b10 .cfa: $rsp 48 +
STACK CFI INIT 13b44 53 .cfa: $rsp .ra: .cfa 8 - ^
STACK CFI 13b44 .cfa: $rsp 48 +
STACK CFI INIT 13bd8 f5 .cfa: $rsp .ra: .cfa 8 - ^
STACK CFI 13bd8 .cfa: $rsp 96 +
STACK CFI INIT 13dc8 27 .cfa: $rsp .ra: .cfa 8 - ^
STACK CFI 13dc8 .cfa: $rsp 80 +
STACK CFI INIT 13df8 132 .cfa: $rsp .ra: .cfa 8 - ^
STACK CFI 13df8 .cfa: $rsp 224 +
STACK CFI INIT 13f78 62 .cfa: $rsp .ra: .cfa 8 - ^
STACK CFI 13f78 .cfa: $rsp 64 +
STACK CFI INIT 13ff4 52 .cfa: $rsp .ra: .cfa 8 - ^
STACK CFI 13ff4 .cfa: $rsp 96 +
STACK CFI INIT 1405c 106 .cfa: $rsp .ra: .cfa 8 - ^
STACK CFI 1405c .cfa: $rsp 224 +
STACK CFI INIT 141b8 1a .cfa: $rsp .ra: .cfa 8 - ^
STACK CFI 141b8 .cfa: $rsp 48 +
STACK CFI INIT 141d8 1b .cfa: $rsp .ra: .cfa 8 - ^
STACK CFI 141d8 .cfa: $rsp 48 +
STACK CFI INIT 14230 1b .cfa: $rsp .ra: .cfa 8 - ^
STACK CFI 14230 .cfa: $rsp 48 +
STACK CFI INIT 14254 34 .cfa: $rsp .ra: .cfa 8 - ^
STACK CFI 14254 .cfa: $rsp 48 +
STACK CFI INIT 14298 1f .cfa: $rsp .ra: .cfa 8 - ^
STACK CFI 14298 .cfa: $rsp 48 +
STACK CFI INIT 142c0 4d .cfa: $rsp .ra: .cfa 8 - ^
STACK CFI 142c0 .cfa: $rsp 48 +
STACK CFI INIT 14320 19 .cfa: $rsp .ra: .cfa 8 - ^
STACK CFI 14320 .cfa: $rsp 48 +
STACK CFI INIT 14340 cb .cfa: $rsp .ra: .cfa 8 - ^
STACK CFI 14340 .cfa: $rsp 48 +
STACK CFI INIT 14440 4d .cfa: $rsp .ra: .cfa 8 - ^
STACK CFI 14440 .cfa: $rsp 48 +
STACK CFI INIT 144a0 51 .cfa: $rsp .ra: .cfa 8 - ^
STACK CFI 144a0 .cfa: $rsp 48 +
STACK CFI INIT 14508 22 .cfa: $rsp .ra: .cfa 8 - ^
STACK CFI 14508 .cfa: $rsp 48 +
STACK CFI INIT 14534 46 .cfa: $rsp .ra: .cfa 8 - ^
STACK CFI 14534 .cfa: $rsp 48 +
STACK CFI INIT 145ac 37 .cfa: $rsp .ra: .cfa 8 - ^
STACK CFI 145ac .cfa: $rsp 48 +
STACK CFI INIT 14754 119 .cfa: $rsp .ra: .cfa 8 - ^
STACK CFI 14754 .cfa: $rsp 64 +
STACK CFI INIT 148b4 1d6 .cfa: $rsp .ra: .cfa 8 - ^
STACK CFI 148b4 .cfa: $rsp 80 +
STACK CFI INIT 14b00 fe .cfa: $rsp .ra: .cfa 8 - ^
STACK CFI 14b00 .cfa: $rsp 48 +
STACK CFI INIT 14c40 137 .cfa: $rsp .ra: .cfa 8 - ^
STACK CFI 14c40 .cfa: $rsp 64 +
STACK CFI INIT 14dc4 73 .cfa: $rsp .ra: .cfa 8 - ^
STACK CFI 14dc4 .cfa: $rsp 48 +
STACK CFI INIT 14e54 45 .cfa: $rsp .ra: .cfa 8 - ^
STACK CFI 14e54 .cfa: $rsp 48 +
STACK CFI INIT 14eac 46 .cfa: $rsp .ra: .cfa 8 - ^
STACK CFI 14eac .cfa: $rsp 48 +
STACK CFI INIT 14f04 46 .cfa: $rsp .ra: .cfa 8 - ^
STACK CFI 14f04 .cfa: $rsp 48 +
STACK CFI INIT 14f5c 51 .cfa: $rsp .ra: .cfa 8 - ^
STACK CFI 14f5c .cfa: $rsp 48 +
STACK CFI INIT 14fc4 61 .cfa: $rsp .ra: .cfa 8 - ^
STACK CFI 14fc4 .cfa: $rsp 48 +
STACK CFI INIT 15040 2f .cfa: $rsp .ra: .cfa 8 - ^
STACK CFI 15040 .cfa: $rsp 8 +
STACK CFI INIT 1507c 3e .cfa: $rsp .ra: .cfa 8 - ^
STACK CFI 1507c .cfa: $rsp 48 +
STACK CFI INIT 1515c 2e .cfa: $rsp .ra: .cfa 8 - ^
STACK CFI 1515c .cfa: $rsp 48 +
STACK CFI INIT 15214 95 .cfa: $rsp .ra: .cfa 8 - ^
STACK CFI 15214 .cfa: $rsp 80 +
STACK CFI INIT 152d0 95 .cfa: $rsp .ra: .cfa 8 - ^
STACK CFI 152d0 .cfa: $rsp 80 +
STACK CFI INIT 1538c 51 .cfa: $rsp .ra: .cfa 8 - ^
STACK CFI 1538c .cfa: $rsp 128 +
STACK CFI INIT 153f4 51 .cfa: $rsp .ra: .cfa 8 - ^
STACK CFI 153f4 .cfa: $rsp 128 +
STACK CFI INIT 15594 56 .cfa: $rsp .ra: .cfa 8 - ^
STACK CFI 15594 .cfa: $rsp 48 +
STACK CFI INIT 15784 2a .cfa: $rsp .ra: .cfa 8 - ^
STACK CFI 15784 .cfa: $rsp 48 +
STACK CFI INIT 157c4 64 .cfa: $rsp .ra: .cfa 8 - ^
STACK CFI 157c4 .cfa: $rsp 48 +
STACK CFI INIT 15844 35 .cfa: $rsp .ra: .cfa 8 - ^
STACK CFI 15844 .cfa: $rsp 48 +
STACK CFI INIT 15888 c9 .cfa: $rsp .ra: .cfa 8 - ^
STACK CFI 15888 .cfa: $rsp 80 +
STACK CFI INIT 159b4 159 .cfa: $rsp .ra: .cfa 8 - ^
STACK CFI 159b4 .cfa: $rsp 128 +
STACK CFI INIT 15b64 d3 .cfa: $rsp .ra: .cfa 8 - ^
STACK CFI 15b64 .cfa: $rsp 128 +
STACK CFI INIT 15cb8 121 .cfa: $rsp .ra: .cfa 8 - ^
STACK CFI 15cb8 .cfa: $rsp 1472 +
STACK CFI INIT 15e24 170 .cfa: $rsp .ra: .cfa 8 - ^
STACK CFI 15e24 .cfa: $rsp 1472 +
STACK CFI INIT 16034 175 .cfa: $rsp .ra: .cfa 8 - ^
STACK CFI 16034 .cfa: $rsp 64 +
STACK CFI INIT 16208 3a .cfa: $rsp .ra: .cfa 8 - ^
STACK CFI 16208 .cfa: $rsp 48 +
STACK CFI INIT 16250 53 .cfa: $rsp .ra: .cfa 8 - ^
STACK CFI 16250 .cfa: $rsp 48 +
STACK CFI INIT 162b8 12 .cfa: $rsp .ra: .cfa 8 - ^
STACK CFI 162b8 .cfa: $rsp 48 +
STACK CFI INIT 162d0 12 .cfa: $rsp .ra: .cfa 8 - ^
STACK CFI 162d0 .cfa: $rsp 48 +
STACK CFI INIT 162e8 18 .cfa: $rsp .ra: .cfa 8 - ^
STACK CFI 162e8 .cfa: $rsp 48 +
STACK CFI INIT 16308 18 .cfa: $rsp .ra: .cfa 8 - ^
STACK CFI 16308 .cfa: $rsp 48 +
STACK CFI INIT 16338 7d .cfa: $rsp .ra: .cfa 8 - ^
STACK CFI 16338 .cfa: $rsp 80 +
STACK CFI INIT 163d4 a1 .cfa: $rsp .ra: .cfa 8 - ^
STACK CFI 163d4 .cfa: $rsp 112 +
STACK CFI INIT 164b0 13 .cfa: $rsp .ra: .cfa 8 - ^
STACK CFI 164b0 .cfa: $rsp 24 +
STACK CFI INIT 164d0 435 .cfa: $rsp .ra: .cfa 8 - ^
STACK CFI 164d0 .cfa: $rsp 8 +
STACK CFI INIT 16a20 27 .cfa: $rsp .ra: .cfa 8 - ^
STACK CFI 16a20 .cfa: $rsp 48 +
STACK CFI INIT 16a50 29 .cfa: $rsp .ra: .cfa 8 - ^
STACK CFI 16a50 .cfa: $rsp 48 +
STACK CFI INIT 16a94 3b .cfa: $rsp .ra: .cfa 8 - ^
STACK CFI 16a94 .cfa: $rsp 48 +
STACK CFI INIT 16af8 66 .cfa: $rsp .ra: .cfa 8 - ^
STACK CFI 16af8 .cfa: $rsp 48 +
STACK CFI INIT 16b78 ed .cfa: $rsp .ra: .cfa 8 - ^
STACK CFI 16b78 .cfa: $rsp 80 +
STACK CFI INIT 16ca4 1fd .cfa: $rsp .ra: .cfa 8 - ^
STACK CFI 16ca4 .cfa: $rsp 80 +
STACK CFI INIT 16f20 201 .cfa: $rsp .ra: .cfa 8 - ^
STACK CFI 16f20 .cfa: $rsp 80 +
STACK CFI INIT 171a4 c0 .cfa: $rsp .ra: .cfa 8 - ^
STACK CFI 171a4 .cfa: $rsp 48 +
STACK CFI INIT 17294 c1 .cfa: $rsp .ra: .cfa 8 - ^
STACK CFI 17294 .cfa: $rsp 48 +
STACK CFI INIT 17388 cd .cfa: $rsp .ra: .cfa 8 - ^
STACK CFI 17388 .cfa: $rsp 144 +
STACK CFI INIT 17488 cd .cfa: $rsp .ra: .cfa 8 - ^
STACK CFI 17488 .cfa: $rsp 144 +
STACK CFI INIT 17588 461 .cfa: $rsp .ra: .cfa 8 - ^
STACK CFI 17588 .cfa: $rsp 288 +
STACK CFI INIT 17b04 400 .cfa: $rsp .ra: .cfa 8 - ^
STACK CFI 17b04 .cfa: $rsp 384 +
STACK CFI INIT 18004 22e .cfa: $rsp .ra: .cfa 8 - ^
STACK CFI 18004 .cfa: $rsp 224 +
STACK CFI INIT 182c0 237 .cfa: $rsp .ra: .cfa 8 - ^
STACK CFI 182c0 .cfa: $rsp 352 +
STACK CFI INIT 18584 141 .cfa: $rsp .ra: .cfa 8 - ^
STACK CFI 18584 .cfa: $rsp 48 +
STACK CFI INIT 18718 146 .cfa: $rsp .ra: .cfa 8 - ^
STACK CFI 18718 .cfa: $rsp 48 +
STACK CFI INIT 188b0 246 .cfa: $rsp .ra: .cfa 8 - ^
STACK CFI 188b0 .cfa: $rsp 96 +
STACK CFI INIT 18b88 29f .cfa: $rsp .ra: .cfa 8 - ^
STACK CFI 18b88 .cfa: $rsp 160 +
STACK CFI INIT 18eec 6b .cfa: $rsp .ra: .cfa 8 - ^
STACK CFI 18eec .cfa: $rsp 48 +
STACK CFI INIT 19110 3f .cfa: $rsp .ra: .cfa 8 - ^
STACK CFI 19110 .cfa: $rsp 48 +
STACK CFI INIT 19188 35 .cfa: $rsp .ra: .cfa 8 - ^
STACK CFI 19188 .cfa: $rsp 48 +
STACK CFI INIT 19270 1b .cfa: $rsp .ra: .cfa 8 - ^
STACK CFI 19270 .cfa: $rsp 48 +
STACK CFI INIT 192f8 3c .cfa: $rsp .ra: .cfa 8 - ^
STACK CFI 192f8 .cfa: $rsp 48 +
STACK CFI INIT 1934c 1d .cfa: $rsp .ra: .cfa 8 - ^
STACK CFI 1934c .cfa: $rsp 48 +
STACK CFI INIT 19378 4d .cfa: $rsp .ra: .cfa 8 - ^
STACK CFI 19378 .cfa: $rsp 48 +
STACK CFI INIT 1941c 42 .cfa: $rsp .ra: .cfa 8 - ^
STACK CFI 1941c .cfa: $rsp 48 +
STACK CFI INIT 19470 42 .cfa: $rsp .ra: .cfa 8 - ^
STACK CFI 19470 .cfa: $rsp 48 +
STACK CFI INIT 194e4 1ea .cfa: $rsp .ra: .cfa 8 - ^
STACK CFI 194e4 .cfa: $rsp 176 +
STACK CFI INIT 19748 240 .cfa: $rsp .ra: .cfa 8 - ^
STACK CFI 19748 .cfa: $rsp 224 +
STACK CFI INIT 19bb0 87 .cfa: $rsp .ra: .cfa 8 - ^
STACK CFI 19bb0 .cfa: $rsp 48 +
STACK CFI INIT 19c58 193 .cfa: $rsp .ra: .cfa 8 - ^
STACK CFI 19c58 .cfa: $rsp 112 +
STACK CFI INIT 19e50 2d9 .cfa: $rsp .ra: .cfa 8 - ^
STACK CFI 19e50 .cfa: $rsp 288 +
STACK CFI INIT 1a1e0 96 .cfa: $rsp .ra: .cfa 8 - ^
STACK CFI 1a1e0 .cfa: $rsp 48 +
STACK CFI INIT 1a29c 37 .cfa: $rsp .ra: .cfa 8 - ^
STACK CFI 1a29c .cfa: $rsp 48 +
STACK CFI INIT 1a32c d6 .cfa: $rsp .ra: .cfa 8 - ^
STACK CFI 1a32c .cfa: $rsp 80 +
STACK CFI INIT 1a438 91 .cfa: $rsp .ra: .cfa 8 - ^
STACK CFI 1a438 .cfa: $rsp 48 +
STACK CFI INIT 1a5c0 2e .cfa: $rsp .ra: .cfa 8 - ^
STACK CFI 1a5c0 .cfa: $rsp 48 +
STACK CFI INIT 1a6a4 28 .cfa: $rsp .ra: .cfa 8 - ^
STACK CFI 1a6a4 .cfa: $rsp 48 +
STACK CFI INIT 1a6f4 4e .cfa: $rsp .ra: .cfa 8 - ^
STACK CFI 1a6f4 .cfa: $rsp 48 +
STACK CFI INIT 1a790 a1 .cfa: $rsp .ra: .cfa 8 - ^
STACK CFI 1a790 .cfa: $rsp 96 +
STACK CFI INIT 1a85c 86 .cfa: $rsp .ra: .cfa 8 - ^
STACK CFI 1a85c .cfa: $rsp 48 +
STACK CFI INIT 1a958 39 .cfa: $rsp .ra: .cfa 8 - ^
STACK CFI 1a958 .cfa: $rsp 48 +
STACK CFI INIT 1a9f0 40 .cfa: $rsp .ra: .cfa 8 - ^
STACK CFI 1a9f0 .cfa: $rsp 48 +
STACK CFI INIT 1aa40 47 .cfa: $rsp .ra: .cfa 8 - ^
STACK CFI 1aa40 .cfa: $rsp 48 +
STACK CFI INIT 1aac4 1b .cfa: $rsp .ra: .cfa 8 - ^
STACK CFI 1aac4 .cfa: $rsp 48 +
STACK CFI INIT 1ab10 1b .cfa: $rsp .ra: .cfa 8 - ^
STACK CFI 1ab10 .cfa: $rsp 48 +
STACK CFI INIT 1ab34 8d .cfa: $rsp .ra: .cfa 8 - ^
STACK CFI 1ab34 .cfa: $rsp 48 +
STACK CFI INIT 1abe4 25 .cfa: $rsp .ra: .cfa 8 - ^
STACK CFI 1abe4 .cfa: $rsp 48 +
STACK CFI INIT 1ac14 bf .cfa: $rsp .ra: .cfa 8 - ^
STACK CFI 1ac14 .cfa: $rsp 112 +
STACK CFI INIT 1ad50 6d .cfa: $rsp .ra: .cfa 8 - ^
STACK CFI 1ad50 .cfa: $rsp 80 +
STACK CFI INIT 1ade4 15b .cfa: $rsp .ra: .cfa 8 - ^
STACK CFI 1ade4 .cfa: $rsp 1552 +
STACK CFI INIT 1afc0 1a .cfa: $rsp .ra: .cfa 8 - ^
STACK CFI 1afc0 .cfa: $rsp 48 +
STACK CFI INIT 1afe0 ae .cfa: $rsp .ra: .cfa 8 - ^
STACK CFI 1afe0 .cfa: $rsp 64 +
STACK CFI INIT 1b0bc 1e .cfa: $rsp .ra: .cfa 8 - ^
STACK CFI 1b0bc .cfa: $rsp 64 +
STACK CFI INIT 1b0e4 2f .cfa: $rsp .ra: .cfa 8 - ^
STACK CFI 1b0e4 .cfa: $rsp 64 +
STACK CFI INIT 1b120 47 .cfa: $rsp .ra: .cfa 8 - ^
STACK CFI 1b120 .cfa: $rsp 48 +
STACK CFI INIT 1b1bc 25 .cfa: $rsp .ra: .cfa 8 - ^
STACK CFI 1b1bc .cfa: $rsp 48 +
STACK CFI INIT 1b1ec 64 .cfa: $rsp .ra: .cfa 8 - ^
STACK CFI 1b1ec .cfa: $rsp 48 +
STACK CFI INIT 1b26c 3d .cfa: $rsp .ra: .cfa 8 - ^
STACK CFI 1b26c .cfa: $rsp 48 +
STACK CFI INIT 1b30c 182 .cfa: $rsp .ra: .cfa 8 - ^
STACK CFI 1b30c .cfa: $rsp 48 +
STACK CFI INIT 1b4fc 38 .cfa: $rsp .ra: .cfa 8 - ^
STACK CFI 1b4fc .cfa: $rsp 48 +
STACK CFI INIT 1b544 26 .cfa: $rsp .ra: .cfa 8 - ^
STACK CFI 1b544 .cfa: $rsp 48 +
STACK CFI INIT 1b5f8 21 .cfa: $rsp .ra: .cfa 8 - ^
STACK CFI 1b5f8 .cfa: $rsp 48 +
STACK CFI INIT 1b62c c1 .cfa: $rsp .ra: .cfa 8 - ^
STACK CFI 1b62c .cfa: $rsp 48 +
STACK CFI INIT 1b744 21 .cfa: $rsp .ra: .cfa 8 - ^
STACK CFI 1b744 .cfa: $rsp 48 +
STACK CFI INIT 1b770 14 .cfa: $rsp .ra: .cfa 8 - ^
STACK CFI 1b770 .cfa: $rsp 48 +
STACK CFI INIT 1b78c bc .cfa: $rsp .ra: .cfa 8 - ^
STACK CFI 1b78c .cfa: $rsp 96 +
STACK CFI INIT 1b878 4a .cfa: $rsp .ra: .cfa 8 - ^
STACK CFI 1b878 .cfa: $rsp 48 +
STACK CFI INIT 1b8e0 52 .cfa: $rsp .ra: .cfa 8 - ^
STACK CFI 1b8e0 .cfa: $rsp 48 +
STACK CFI INIT 1b948 30 .cfa: $rsp .ra: .cfa 8 - ^
STACK CFI 1b948 .cfa: $rsp 48 +
STACK CFI INIT 1b984 5b .cfa: $rsp .ra: .cfa 8 - ^
STACK CFI 1b984 .cfa: $rsp 48 +
STACK CFI INIT 1ba50 3c .cfa: $rsp .ra: .cfa 8 - ^
STACK CFI 1ba50 .cfa: $rsp 48 +
STACK CFI INIT 1badc 175 .cfa: $rsp .ra: .cfa 8 - ^
STACK CFI 1badc .cfa: $rsp 96 +
STACK CFI INIT 1bcb0 171 .cfa: $rsp .ra: .cfa 8 - ^
STACK CFI 1bcb0 .cfa: $rsp 96 +
STACK CFI INIT 1bea0 1c3 .cfa: $rsp .ra: .cfa 8 - ^
STACK CFI 1bea0 .cfa: $rsp 64 +
STACK CFI INIT 1c0d4 1a2 .cfa: $rsp .ra: .cfa 8 - ^
STACK CFI 1c0d4 .cfa: $rsp 16 +
STACK CFI INIT 1c328 1b .cfa: $rsp .ra: .cfa 8 - ^
STACK CFI 1c328 .cfa: $rsp 48 +
STACK CFI INIT 1c34c 1b .cfa: $rsp .ra: .cfa 8 - ^
STACK CFI 1c34c .cfa: $rsp 48 +
STACK CFI INIT 1c370 1b .cfa: $rsp .ra: .cfa 8 - ^
STACK CFI 1c370 .cfa: $rsp 48 +
STACK CFI INIT 1c478 1b .cfa: $rsp .ra: .cfa 8 - ^
STACK CFI 1c478 .cfa: $rsp 48 +
STACK CFI INIT 1c49c 1b .cfa: $rsp .ra: .cfa 8 - ^
STACK CFI 1c49c .cfa: $rsp 48 +
STACK CFI INIT 1c4c0 1b .cfa: $rsp .ra: .cfa 8 - ^
STACK CFI 1c4c0 .cfa: $rsp 48 +
STACK CFI INIT 1c4e4 16 .cfa: $rsp .ra: .cfa 8 - ^
STACK CFI 1c4e4 .cfa: $rsp 48 +
STACK CFI INIT 1c504 5d .cfa: $rsp .ra: .cfa 8 - ^
STACK CFI 1c504 .cfa: $rsp 48 +
STACK CFI INIT 1c578 186 .cfa: $rsp .ra: .cfa 8 - ^
STACK CFI 1c578 .cfa: $rsp 96 +
STACK CFI INIT 1c760 182 .cfa: $rsp .ra: .cfa 8 - ^
STACK CFI 1c760 .cfa: $rsp 96 +
STACK CFI INIT 1c968 4e .cfa: $rsp .ra: .cfa 8 - ^
STACK CFI 1c968 .cfa: $rsp 48 +
STACK CFI INIT 1c9cc 4e .cfa: $rsp .ra: .cfa 8 - ^
STACK CFI 1c9cc .cfa: $rsp 48 +
STACK CFI INIT 1ca30 3b .cfa: $rsp .ra: .cfa 8 - ^
STACK CFI 1ca30 .cfa: $rsp 48 +
STACK CFI INIT 1ca7c 3b .cfa: $rsp .ra: .cfa 8 - ^
STACK CFI 1ca7c .cfa: $rsp 48 +
STACK CFI INIT 1cac8 6c .cfa: $rsp .ra: .cfa 8 - ^
STACK CFI 1cac8 .cfa: $rsp 48 +
STACK CFI INIT 1cb50 67 .cfa: $rsp .ra: .cfa 8 - ^
STACK CFI 1cb50 .cfa: $rsp 48 +
STACK CFI INIT 1cc5c 106 .cfa: $rsp .ra: .cfa 8 - ^
STACK CFI 1cc5c .cfa: $rsp 80 +
STACK CFI INIT 1cda4 113 .cfa: $rsp .ra: .cfa 8 - ^
STACK CFI 1cda4 .cfa: $rsp 80 +
STACK CFI INIT 1cefc 41 .cfa: $rsp .ra: .cfa 8 - ^
STACK CFI 1cefc .cfa: $rsp 48 +
STACK CFI INIT 1cf50 41 .cfa: $rsp .ra: .cfa 8 - ^
STACK CFI 1cf50 .cfa: $rsp 48 +
STACK CFI INIT 1cfb4 d1 .cfa: $rsp .ra: .cfa 8 - ^
STACK CFI 1cfb4 .cfa: $rsp 80 +
STACK CFI INIT 1d0bc b1 .cfa: $rsp .ra: .cfa 8 - ^
STACK CFI 1d0bc .cfa: $rsp 64 +
STACK CFI INIT 1d20c 43 .cfa: $rsp .ra: .cfa 8 - ^
STACK CFI 1d20c .cfa: $rsp 48 +
STACK CFI INIT 1d260 43 .cfa: $rsp .ra: .cfa 8 - ^
STACK CFI 1d260 .cfa: $rsp 48 +
STACK CFI INIT 1d2b4 1a .cfa: $rsp .ra: .cfa 8 - ^
STACK CFI 1d2b4 .cfa: $rsp 48 +
STACK CFI INIT 1d2d4 1a .cfa: $rsp .ra: .cfa 8 - ^
STACK CFI 1d2d4 .cfa: $rsp 48 +
STACK CFI INIT 1d2fc 1b .cfa: $rsp .ra: .cfa 8 - ^
STACK CFI 1d2fc .cfa: $rsp 48 +
STACK CFI INIT 1d344 24 .cfa: $rsp .ra: .cfa 8 - ^
STACK CFI 1d344 .cfa: $rsp 64 +
STACK CFI INIT 1d374 2e .cfa: $rsp .ra: .cfa 8 - ^
STACK CFI 1d374 .cfa: $rsp 80 +
STACK CFI INIT 1d3b0 23 .cfa: $rsp .ra: .cfa 8 - ^
STACK CFI 1d3b0 .cfa: $rsp 64 +
STACK CFI INIT 1d3dc 2e .cfa: $rsp .ra: .cfa 8 - ^
STACK CFI 1d3dc .cfa: $rsp 80 +
STACK CFI INIT 1d47c 27 .cfa: $rsp .ra: .cfa 8 - ^
STACK CFI 1d47c .cfa: $rsp 8 +
STACK CFI INIT 1d4ac 27 .cfa: $rsp .ra: .cfa 8 - ^
STACK CFI 1d4ac .cfa: $rsp 8 +
STACK CFI INIT 1d50c 1b .cfa: $rsp .ra: .cfa 8 - ^
STACK CFI 1d50c .cfa: $rsp 48 +
STACK CFI INIT 1d538 3b .cfa: $rsp .ra: .cfa 8 - ^
STACK CFI 1d538 .cfa: $rsp 48 +
STACK CFI INIT 1d584 3b .cfa: $rsp .ra: .cfa 8 - ^
STACK CFI 1d584 .cfa: $rsp 48 +
STACK CFI INIT 1d5d0 38 .cfa: $rsp .ra: .cfa 8 - ^
STACK CFI 1d5d0 .cfa: $rsp 48 +
STACK CFI INIT 1d630 4e .cfa: $rsp .ra: .cfa 8 - ^
STACK CFI 1d630 .cfa: $rsp 48 +
STACK CFI INIT 1d694 4e .cfa: $rsp .ra: .cfa 8 - ^
STACK CFI 1d694 .cfa: $rsp 48 +
STACK CFI INIT 1d708 31 .cfa: $rsp .ra: .cfa 8 - ^
STACK CFI 1d708 .cfa: $rsp 64 +
STACK CFI INIT 1d760 3b .cfa: $rsp .ra: .cfa 8 - ^
STACK CFI 1d760 .cfa: $rsp 48 +
STACK CFI INIT 1d7ac 3b .cfa: $rsp .ra: .cfa 8 - ^
STACK CFI 1d7ac .cfa: $rsp 48 +
STACK CFI INIT 1d7f8 26 .cfa: $rsp .ra: .cfa 8 - ^
STACK CFI 1d7f8 .cfa: $rsp 48 +
STACK CFI INIT 1d828 26 .cfa: $rsp .ra: .cfa 8 - ^
STACK CFI 1d828 .cfa: $rsp 48 +
STACK CFI INIT 1d8d0 1b .cfa: $rsp .ra: .cfa 8 - ^
STACK CFI 1d8d0 .cfa: $rsp 48 +
STACK CFI INIT 1d8f8 1b0 .cfa: $rsp .ra: .cfa 8 - ^
STACK CFI 1d8f8 .cfa: $rsp 64 +
STACK CFI INIT 1db34 116 .cfa: $rsp .ra: .cfa 8 - ^
STACK CFI 1db34 .cfa: $rsp 64 +
STACK CFI INIT 1dc9c 1b .cfa: $rsp .ra: .cfa 8 - ^
STACK CFI 1dc9c .cfa: $rsp 48 +
STACK CFI INIT 1dce8 3a .cfa: $rsp .ra: .cfa 8 - ^
STACK CFI 1dce8 .cfa: $rsp 64 +
STACK CFI INIT 1dd60 48 .cfa: $rsp .ra: .cfa 8 - ^
STACK CFI 1dd60 .cfa: $rsp 80 +
STACK CFI INIT 1ddd4 23 .cfa: $rsp .ra: .cfa 8 - ^
STACK CFI 1ddd4 .cfa: $rsp 48 +
STACK CFI INIT 1de08 10 .cfa: $rsp .ra: .cfa 8 - ^
STACK CFI 1de08 .cfa: $rsp 48 +
STACK CFI INIT 1de24 3d .cfa: $rsp .ra: .cfa 8 - ^
STACK CFI 1de24 .cfa: $rsp 48 +
STACK CFI INIT 1de78 40 .cfa: $rsp .ra: .cfa 8 - ^
STACK CFI 1de78 .cfa: $rsp 48 +
STACK CFI INIT 1dec8 5b .cfa: $rsp .ra: .cfa 8 - ^
STACK CFI 1dec8 .cfa: $rsp 48 +
STACK CFI INIT 1df40 6f .cfa: $rsp .ra: .cfa 8 - ^
STACK CFI 1df40 .cfa: $rsp 48 +
STACK CFI INIT 1dfcc 3e .cfa: $rsp .ra: .cfa 8 - ^
STACK CFI 1dfcc .cfa: $rsp 48 +
STACK CFI INIT 1e02c 27 .cfa: $rsp .ra: .cfa 8 - ^
STACK CFI 1e02c .cfa: $rsp 8 +
STACK CFI INIT 1e074 14 .cfa: $rsp .ra: .cfa 8 - ^
STACK CFI 1e074 .cfa: $rsp 48 +
STACK CFI INIT 1e090 10 .cfa: $rsp .ra: .cfa 8 - ^
STACK CFI 1e090 .cfa: $rsp 48 +
STACK CFI INIT 1e0a4 35 .cfa: $rsp .ra: .cfa 8 - ^
STACK CFI 1e0a4 .cfa: $rsp 48 +
STACK CFI INIT 1e0e8 10 .cfa: $rsp .ra: .cfa 8 - ^
STACK CFI 1e0e8 .cfa: $rsp 48 +
STACK CFI INIT 1e114 22 .cfa: $rsp .ra: .cfa 8 - ^
STACK CFI 1e114 .cfa: $rsp 48 +
STACK CFI INIT 1e140 2c .cfa: $rsp .ra: .cfa 8 - ^
STACK CFI 1e140 .cfa: $rsp 48 +
STACK CFI INIT 1e178 20 .cfa: $rsp .ra: .cfa 8 - ^
STACK CFI 1e178 .cfa: $rsp 48 +
STACK CFI INIT 1e1a8 62 .cfa: $rsp .ra: .cfa 8 - ^
STACK CFI 1e1a8 .cfa: $rsp 48 +
STACK CFI INIT 1e224 5f .cfa: $rsp .ra: .cfa 8 - ^
STACK CFI 1e224 .cfa: $rsp 48 +
STACK CFI INIT 1e29c 81 .cfa: $rsp .ra: .cfa 8 - ^
STACK CFI 1e29c .cfa: $rsp 8 +
STACK CFI INIT 1e340 9e .cfa: $rsp .ra: .cfa 8 - ^
STACK CFI 1e340 .cfa: $rsp 8 +
STACK CFI INIT 1e408 81 .cfa: $rsp .ra: .cfa 8 - ^
STACK CFI 1e408 .cfa: $rsp 8 +
STACK CFI INIT 1e4ac 85 .cfa: $rsp .ra: .cfa 8 - ^
STACK CFI 1e4ac .cfa: $rsp 8 +
STACK CFI INIT 1e554 a2 .cfa: $rsp .ra: .cfa 8 - ^
STACK CFI 1e554 .cfa: $rsp 8 +
STACK CFI INIT 1e620 85 .cfa: $rsp .ra: .cfa 8 - ^
STACK CFI 1e620 .cfa: $rsp 8 +
STACK CFI INIT 1e6c8 81 .cfa: $rsp .ra: .cfa 8 - ^
STACK CFI 1e6c8 .cfa: $rsp 8 +
STACK CFI INIT 1e76c 9e .cfa: $rsp .ra: .cfa 8 - ^
STACK CFI 1e76c .cfa: $rsp 8 +
STACK CFI INIT 1e834 81 .cfa: $rsp .ra: .cfa 8 - ^
STACK CFI 1e834 .cfa: $rsp 8 +
STACK CFI INIT 1e8d8 85 .cfa: $rsp .ra: .cfa 8 - ^
STACK CFI 1e8d8 .cfa: $rsp 8 +
STACK CFI INIT 1e980 a2 .cfa: $rsp .ra: .cfa 8 - ^
STACK CFI 1e980 .cfa: $rsp 8 +
STACK CFI INIT 1ea4c 85 .cfa: $rsp .ra: .cfa 8 - ^
STACK CFI 1ea4c .cfa: $rsp 8 +
STACK CFI INIT 1eaf4 3d .cfa: $rsp .ra: .cfa 8 - ^
STACK CFI 1eaf4 .cfa: $rsp 48 +
STACK CFI INIT 1eb40 3d .cfa: $rsp .ra: .cfa 8 - ^
STACK CFI 1eb40 .cfa: $rsp 48 +
STACK CFI INIT 1eb8c 3d .cfa: $rsp .ra: .cfa 8 - ^
STACK CFI 1eb8c .cfa: $rsp 48 +
STACK CFI INIT 1ebd8 3d .cfa: $rsp .ra: .cfa 8 - ^
STACK CFI 1ebd8 .cfa: $rsp 48 +
STACK CFI INIT 1ec24 3d .cfa: $rsp .ra: .cfa 8 - ^
STACK CFI 1ec24 .cfa: $rsp 48 +
STACK CFI INIT 1ec70 3d .cfa: $rsp .ra: .cfa 8 - ^
STACK CFI 1ec70 .cfa: $rsp 48 +
STACK CFI INIT 1ecbc 28 .cfa: $rsp .ra: .cfa 8 - ^
STACK CFI 1ecbc .cfa: $rsp 48 +
STACK CFI INIT 1ecf0 28 .cfa: $rsp .ra: .cfa 8 - ^
STACK CFI 1ecf0 .cfa: $rsp 48 +
STACK CFI INIT 1ed24 28 .cfa: $rsp .ra: .cfa 8 - ^
STACK CFI 1ed24 .cfa: $rsp 48 +
STACK CFI INIT 1ed58 28 .cfa: $rsp .ra: .cfa 8 - ^
STACK CFI 1ed58 .cfa: $rsp 48 +
STACK CFI INIT 1ed8c 28 .cfa: $rsp .ra: .cfa 8 - ^
STACK CFI 1ed8c .cfa: $rsp 48 +
STACK CFI INIT 1edc0 28 .cfa: $rsp .ra: .cfa 8 - ^
STACK CFI 1edc0 .cfa: $rsp 48 +
STACK CFI INIT 1edf4 85 .cfa: $rsp .ra: .cfa 8 - ^
STACK CFI 1edf4 .cfa: $rsp 112 +
STACK CFI INIT 1ee9c 85 .cfa: $rsp .ra: .cfa 8 - ^
STACK CFI 1ee9c .cfa: $rsp 112 +
STACK CFI INIT 1ef44 85 .cfa: $rsp .ra: .cfa 8 - ^
STACK CFI 1ef44 .cfa: $rsp 112 +
STACK CFI INIT 1efec 85 .cfa: $rsp .ra: .cfa 8 - ^
STACK CFI 1efec .cfa: $rsp 112 +
STACK CFI INIT 1f094 85 .cfa: $rsp .ra: .cfa 8 - ^
STACK CFI 1f094 .cfa: $rsp 112 +
STACK CFI INIT 1f13c 85 .cfa: $rsp .ra: .cfa 8 - ^
STACK CFI 1f13c .cfa: $rsp 112 +
STACK CFI INIT 1f1e4 114 .cfa: $rsp .ra: .cfa 8 - ^
STACK CFI 1f1e4 .cfa: $rsp 64 +
STACK CFI INIT 1f340 117 .cfa: $rsp .ra: .cfa 8 - ^
STACK CFI 1f340 .cfa: $rsp 80 +
STACK CFI INIT 1f49c 1cb .cfa: $rsp .ra: .cfa 8 - ^
STACK CFI 1f49c .cfa: $rsp 1328 +
STACK CFI INIT 1f6dc 1d2 .cfa: $rsp .ra: .cfa 8 - ^
STACK CFI 1f6dc .cfa: $rsp 1328 +
STACK CFI INIT 1f924 1e7 .cfa: $rsp .ra: .cfa 8 - ^
STACK CFI 1f924 .cfa: $rsp 3744 +
STACK CFI INIT 1fb84 1ee .cfa: $rsp .ra: .cfa 8 - ^
STACK CFI 1fb84 .cfa: $rsp 3744 +
STACK CFI INIT 1fdf0 1cb .cfa: $rsp .ra: .cfa 8 - ^
STACK CFI 1fdf0 .cfa: $rsp 1328 +
STACK CFI INIT 20030 1d2 .cfa: $rsp .ra: .cfa 8 - ^
STACK CFI 20030 .cfa: $rsp 1328 +
STACK CFI INIT 20278 63 .cfa: $rsp .ra: .cfa 8 - ^
STACK CFI 20278 .cfa: $rsp 64 +
STACK CFI INIT 202f4 6e .cfa: $rsp .ra: .cfa 8 - ^
STACK CFI 202f4 .cfa: $rsp 64 +
STACK CFI INIT 203f0 a6 .cfa: $rsp .ra: .cfa 8 - ^
STACK CFI 203f0 .cfa: $rsp 48 +
STACK CFI INIT 204c0 a9 .cfa: $rsp .ra: .cfa 8 - ^
STACK CFI 204c0 .cfa: $rsp 48 +
STACK CFI INIT 20594 bc .cfa: $rsp .ra: .cfa 8 - ^
STACK CFI 20594 .cfa: $rsp 64 +
STACK CFI INIT 20680 bc .cfa: $rsp .ra: .cfa 8 - ^
STACK CFI 20680 .cfa: $rsp 64 +
STACK CFI INIT 2076c be .cfa: $rsp .ra: .cfa 8 - ^
STACK CFI 2076c .cfa: $rsp 64 +
STACK CFI INIT 2085c be .cfa: $rsp .ra: .cfa 8 - ^
STACK CFI 2085c .cfa: $rsp 64 +
STACK CFI INIT 209bc bb .cfa: $rsp .ra: .cfa 8 - ^
STACK CFI 209bc .cfa: $rsp 64 +
STACK CFI INIT 20aa8 bb .cfa: $rsp .ra: .cfa 8 - ^
STACK CFI 20aa8 .cfa: $rsp 64 +
STACK CFI INIT 20b94 bd .cfa: $rsp .ra: .cfa 8 - ^
STACK CFI 20b94 .cfa: $rsp 64 +
STACK CFI INIT 20c80 bd .cfa: $rsp .ra: .cfa 8 - ^
STACK CFI 20c80 .cfa: $rsp 64 +
STACK CFI INIT 20dcc bc .cfa: $rsp .ra: .cfa 8 - ^
STACK CFI 20dcc .cfa: $rsp 64 +
STACK CFI INIT 20eb8 bc .cfa: $rsp .ra: .cfa 8 - ^
STACK CFI 20eb8 .cfa: $rsp 64 +
STACK CFI INIT 20fa4 be .cfa: $rsp .ra: .cfa 8 - ^
STACK CFI 20fa4 .cfa: $rsp 64 +
STACK CFI INIT 21094 be .cfa: $rsp .ra: .cfa 8 - ^
STACK CFI 21094 .cfa: $rsp 64 +
STACK CFI INIT 211f4 b8 .cfa: $rsp .ra: .cfa 8 - ^
STACK CFI 211f4 .cfa: $rsp 64 +
STACK CFI INIT 212dc b8 .cfa: $rsp .ra: .cfa 8 - ^
STACK CFI 212dc .cfa: $rsp 64 +
STACK CFI INIT 213f4 bb .cfa: $rsp .ra: .cfa 8 - ^
STACK CFI 213f4 .cfa: $rsp 64 +
STACK CFI INIT 214e0 bb .cfa: $rsp .ra: .cfa 8 - ^
STACK CFI 214e0 .cfa: $rsp 64 +
STACK CFI INIT 215cc bd .cfa: $rsp .ra: .cfa 8 - ^
STACK CFI 215cc .cfa: $rsp 64 +
STACK CFI INIT 216b8 bd .cfa: $rsp .ra: .cfa 8 - ^
STACK CFI 216b8 .cfa: $rsp 64 +
STACK CFI INIT 21804 ba .cfa: $rsp .ra: .cfa 8 - ^
STACK CFI 21804 .cfa: $rsp 64 +
STACK CFI INIT 218ec ba .cfa: $rsp .ra: .cfa 8 - ^
STACK CFI 218ec .cfa: $rsp 64 +
STACK CFI INIT 219d4 bc .cfa: $rsp .ra: .cfa 8 - ^
STACK CFI 219d4 .cfa: $rsp 64 +
STACK CFI INIT 21ac0 bc .cfa: $rsp .ra: .cfa 8 - ^
STACK CFI 21ac0 .cfa: $rsp 64 +
STACK CFI INIT 21c0c b9 .cfa: $rsp .ra: .cfa 8 - ^
STACK CFI 21c0c .cfa: $rsp 64 +
STACK CFI INIT 21cf4 b9 .cfa: $rsp .ra: .cfa 8 - ^
STACK CFI 21cf4 .cfa: $rsp 64 +
STACK CFI INIT 21ddc bb .cfa: $rsp .ra: .cfa 8 - ^
STACK CFI 21ddc .cfa: $rsp 64 +
STACK CFI INIT 21ec8 bb .cfa: $rsp .ra: .cfa 8 - ^
STACK CFI 21ec8 .cfa: $rsp 64 +
STACK CFI INIT 22014 ba .cfa: $rsp .ra: .cfa 8 - ^
STACK CFI 22014 .cfa: $rsp 64 +
STACK CFI INIT 220fc ba .cfa: $rsp .ra: .cfa 8 - ^
STACK CFI 220fc .cfa: $rsp 64 +
STACK CFI INIT 221e4 bc .cfa: $rsp .ra: .cfa 8 - ^
STACK CFI 221e4 .cfa: $rsp 64 +
STACK CFI INIT 222d0 bc .cfa: $rsp .ra: .cfa 8 - ^
STACK CFI 222d0 .cfa: $rsp 64 +
STACK CFI INIT 22434 ba .cfa: $rsp .ra: .cfa 8 - ^
STACK CFI 22434 .cfa: $rsp 64 +
STACK CFI INIT 22564 ba .cfa: $rsp .ra: .cfa 8 - ^
STACK CFI 22564 .cfa: $rsp 64 +
STACK CFI INIT 22694 bc .cfa: $rsp .ra: .cfa 8 - ^
STACK CFI 22694 .cfa: $rsp 64 +
STACK CFI INIT 227c8 bc .cfa: $rsp .ra: .cfa 8 - ^
STACK CFI 227c8 .cfa: $rsp 64 +
STACK CFI INIT 228e4 ba .cfa: $rsp .ra: .cfa 8 - ^
STACK CFI 228e4 .cfa: $rsp 64 +
STACK CFI INIT 229cc ba .cfa: $rsp .ra: .cfa 8 - ^
STACK CFI 229cc .cfa: $rsp 64 +
STACK CFI INIT 22ab4 bc .cfa: $rsp .ra: .cfa 8 - ^
STACK CFI 22ab4 .cfa: $rsp 64 +
STACK CFI INIT 22ba0 bc .cfa: $rsp .ra: .cfa 8 - ^
STACK CFI 22ba0 .cfa: $rsp 64 +
STACK CFI INIT 22cec ba .cfa: $rsp .ra: .cfa 8 - ^
STACK CFI 22cec .cfa: $rsp 64 +
STACK CFI INIT 22dd4 ba .cfa: $rsp .ra: .cfa 8 - ^
STACK CFI 22dd4 .cfa: $rsp 64 +
STACK CFI INIT 22ebc bc .cfa: $rsp .ra: .cfa 8 - ^
STACK CFI 22ebc .cfa: $rsp 64 +
STACK CFI INIT 22fa8 bc .cfa: $rsp .ra: .cfa 8 - ^
STACK CFI 22fa8 .cfa: $rsp 64 +
STACK CFI INIT 23104 ba .cfa: $rsp .ra: .cfa 8 - ^
STACK CFI 23104 .cfa: $rsp 64 +
STACK CFI INIT 231ec ba .cfa: $rsp .ra: .cfa 8 - ^
STACK CFI 231ec .cfa: $rsp 64 +
STACK CFI INIT 232d4 bc .cfa: $rsp .ra: .cfa 8 - ^
STACK CFI 232d4 .cfa: $rsp 64 +
STACK CFI INIT 233c0 bc .cfa: $rsp .ra: .cfa 8 - ^
STACK CFI 233c0 .cfa: $rsp 64 +
STACK CFI INIT 2350c ba .cfa: $rsp .ra: .cfa 8 - ^
STACK CFI 2350c .cfa: $rsp 64 +
STACK CFI INIT 235f4 ba .cfa: $rsp .ra: .cfa 8 - ^
STACK CFI 235f4 .cfa: $rsp 64 +
STACK CFI INIT 236dc bc .cfa: $rsp .ra: .cfa 8 - ^
STACK CFI 236dc .cfa: $rsp 64 +
STACK CFI INIT 237c8 bc .cfa: $rsp .ra: .cfa 8 - ^
STACK CFI 237c8 .cfa: $rsp 64 +
STACK CFI INIT 23914 bc .cfa: $rsp .ra: .cfa 8 - ^
STACK CFI 23914 .cfa: $rsp 64 +
STACK CFI INIT 23a00 bc .cfa: $rsp .ra: .cfa 8 - ^
STACK CFI 23a00 .cfa: $rsp 64 +
STACK CFI INIT 23aec be .cfa: $rsp .ra: .cfa 8 - ^
STACK CFI 23aec .cfa: $rsp 64 +
STACK CFI INIT 23bdc be .cfa: $rsp .ra: .cfa 8 - ^
STACK CFI 23bdc .cfa: $rsp 64 +
STACK CFI INIT 24200 87 .cfa: $rsp .ra: .cfa 8 - ^
STACK CFI 24200 .cfa: $rsp 8 +
STACK CFI INIT 242a8 87 .cfa: $rsp .ra: .cfa 8 - ^
STACK CFI 242a8 .cfa: $rsp 8 +
STACK CFI INIT 24350 87 .cfa: $rsp .ra: .cfa 8 - ^
STACK CFI 24350 .cfa: $rsp 8 +
STACK CFI INIT 243f8 87 .cfa: $rsp .ra: .cfa 8 - ^
STACK CFI 243f8 .cfa: $rsp 8 +
STACK CFI INIT 244a0 87 .cfa: $rsp .ra: .cfa 8 - ^
STACK CFI 244a0 .cfa: $rsp 8 +
STACK CFI INIT 24548 87 .cfa: $rsp .ra: .cfa 8 - ^
STACK CFI 24548 .cfa: $rsp 8 +
STACK CFI INIT 245f0 a3 .cfa: $rsp .ra: .cfa 8 - ^
STACK CFI 245f0 .cfa: $rsp 8 +
STACK CFI INIT 246bc a3 .cfa: $rsp .ra: .cfa 8 - ^
STACK CFI 246bc .cfa: $rsp 8 +
STACK CFI INIT 24788 a3 .cfa: $rsp .ra: .cfa 8 - ^
STACK CFI 24788 .cfa: $rsp 8 +
STACK CFI INIT 24854 a3 .cfa: $rsp .ra: .cfa 8 - ^
STACK CFI 24854 .cfa: $rsp 8 +
STACK CFI INIT 24920 a3 .cfa: $rsp .ra: .cfa 8 - ^
STACK CFI 24920 .cfa: $rsp 8 +
STACK CFI INIT 249ec a3 .cfa: $rsp .ra: .cfa 8 - ^
STACK CFI 249ec .cfa: $rsp 8 +
STACK CFI INIT 24ab8 8d .cfa: $rsp .ra: .cfa 8 - ^
STACK CFI 24ab8 .cfa: $rsp 8 +
STACK CFI INIT 24b68 8d .cfa: $rsp .ra: .cfa 8 - ^
STACK CFI 24b68 .cfa: $rsp 8 +
STACK CFI INIT 24c18 8d .cfa: $rsp .ra: .cfa 8 - ^
STACK CFI 24c18 .cfa: $rsp 8 +
STACK CFI INIT 24cc8 8d .cfa: $rsp .ra: .cfa 8 - ^
STACK CFI 24cc8 .cfa: $rsp 8 +
STACK CFI INIT 24d78 8d .cfa: $rsp .ra: .cfa 8 - ^
STACK CFI 24d78 .cfa: $rsp 8 +
STACK CFI INIT 24e28 8d .cfa: $rsp .ra: .cfa 8 - ^
STACK CFI 24e28 .cfa: $rsp 8 +
STACK CFI INIT 24ed8 a4 .cfa: $rsp .ra: .cfa 8 - ^
STACK CFI 24ed8 .cfa: $rsp 8 +
STACK CFI INIT 24fa8 a4 .cfa: $rsp .ra: .cfa 8 - ^
STACK CFI 24fa8 .cfa: $rsp 8 +
STACK CFI INIT 25078 a4 .cfa: $rsp .ra: .cfa 8 - ^
STACK CFI 25078 .cfa: $rsp 8 +
STACK CFI INIT 25148 a4 .cfa: $rsp .ra: .cfa 8 - ^
STACK CFI 25148 .cfa: $rsp 8 +
STACK CFI INIT 25218 a4 .cfa: $rsp .ra: .cfa 8 - ^
STACK CFI 25218 .cfa: $rsp 8 +
STACK CFI INIT 252e8 a4 .cfa: $rsp .ra: .cfa 8 - ^
STACK CFI 252e8 .cfa: $rsp 8 +
STACK CFI INIT 253b8 8b .cfa: $rsp .ra: .cfa 8 - ^
STACK CFI 253b8 .cfa: $rsp 48 +
STACK CFI INIT 25468 91 .cfa: $rsp .ra: .cfa 8 - ^
STACK CFI 25468 .cfa: $rsp 48 +
STACK CFI INIT 25520 75 .cfa: $rsp .ra: .cfa 8 - ^
STACK CFI 25520 .cfa: $rsp 8 +
STACK CFI INIT 255b4 7a .cfa: $rsp .ra: .cfa 8 - ^
STACK CFI 255b4 .cfa: $rsp 8 +
STACK CFI INIT 26190 9b .cfa: $rsp .ra: .cfa 8 - ^
STACK CFI 26190 .cfa: $rsp 48 +
STACK CFI INIT 26254 20 .cfa: $rsp .ra: .cfa 8 - ^
STACK CFI 26254 .cfa: $rsp 48 +
STACK CFI INIT 262c0 23 .cfa: $rsp .ra: .cfa 8 - ^
STACK CFI 262c0 .cfa: $rsp 48 +
STACK CFI INIT 262ec 23 .cfa: $rsp .ra: .cfa 8 - ^
STACK CFI 262ec .cfa: $rsp 48 +
STACK CFI INIT 26318 23 .cfa: $rsp .ra: .cfa 8 - ^
STACK CFI 26318 .cfa: $rsp 48 +
STACK CFI INIT 26344 23 .cfa: $rsp .ra: .cfa 8 - ^
STACK CFI 26344 .cfa: $rsp 48 +
STACK CFI INIT 26370 23 .cfa: $rsp .ra: .cfa 8 - ^
STACK CFI 26370 .cfa: $rsp 48 +
STACK CFI INIT 2639c 23 .cfa: $rsp .ra: .cfa 8 - ^
STACK CFI 2639c .cfa: $rsp 48 +
STACK CFI INIT 263c8 23 .cfa: $rsp .ra: .cfa 8 - ^
STACK CFI 263c8 .cfa: $rsp 48 +
STACK CFI INIT 263f4 23 .cfa: $rsp .ra: .cfa 8 - ^
STACK CFI 263f4 .cfa: $rsp 48 +
STACK CFI INIT 26420 23 .cfa: $rsp .ra: .cfa 8 - ^
STACK CFI 26420 .cfa: $rsp 48 +
STACK CFI INIT 2644c 23 .cfa: $rsp .ra: .cfa 8 - ^
STACK CFI 2644c .cfa: $rsp 48 +
STACK CFI INIT 26478 23 .cfa: $rsp .ra: .cfa 8 - ^
STACK CFI 26478 .cfa: $rsp 48 +
STACK CFI INIT 264a4 23 .cfa: $rsp .ra: .cfa 8 - ^
STACK CFI 264a4 .cfa: $rsp 48 +
STACK CFI INIT 264d0 23 .cfa: $rsp .ra: .cfa 8 - ^
STACK CFI 264d0 .cfa: $rsp 48 +
STACK CFI INIT 264fc 23 .cfa: $rsp .ra: .cfa 8 - ^
STACK CFI 264fc .cfa: $rsp 48 +
STACK CFI INIT 26528 23 .cfa: $rsp .ra: .cfa 8 - ^
STACK CFI 26528 .cfa: $rsp 48 +
STACK CFI INIT 26554 23 .cfa: $rsp .ra: .cfa 8 - ^
STACK CFI 26554 .cfa: $rsp 48 +
STACK CFI INIT 26580 23 .cfa: $rsp .ra: .cfa 8 - ^
STACK CFI 26580 .cfa: $rsp 48 +
STACK CFI INIT 265ac 23 .cfa: $rsp .ra: .cfa 8 - ^
STACK CFI 265ac .cfa: $rsp 48 +
STACK CFI INIT 265d8 23 .cfa: $rsp .ra: .cfa 8 - ^
STACK CFI 265d8 .cfa: $rsp 48 +
STACK CFI INIT 26604 23 .cfa: $rsp .ra: .cfa 8 - ^
STACK CFI 26604 .cfa: $rsp 48 +
STACK CFI INIT 26630 23 .cfa: $rsp .ra: .cfa 8 - ^
STACK CFI 26630 .cfa: $rsp 48 +
STACK CFI INIT 2665c 23 .cfa: $rsp .ra: .cfa 8 - ^
STACK CFI 2665c .cfa: $rsp 48 +
STACK CFI INIT 26688 23 .cfa: $rsp .ra: .cfa 8 - ^
STACK CFI 26688 .cfa: $rsp 48 +
STACK CFI INIT 266b4 23 .cfa: $rsp .ra: .cfa 8 - ^
STACK CFI 266b4 .cfa: $rsp 48 +
STACK CFI INIT 266e0 23 .cfa: $rsp .ra: .cfa 8 - ^
STACK CFI 266e0 .cfa: $rsp 48 +
STACK CFI INIT 2670c 23 .cfa: $rsp .ra: .cfa 8 - ^
STACK CFI 2670c .cfa: $rsp 48 +
STACK CFI INIT 26738 23 .cfa: $rsp .ra: .cfa 8 - ^
STACK CFI 26738 .cfa: $rsp 48 +
STACK CFI INIT 26764 23 .cfa: $rsp .ra: .cfa 8 - ^
STACK CFI 26764 .cfa: $rsp 48 +
STACK CFI INIT 26790 23 .cfa: $rsp .ra: .cfa 8 - ^
STACK CFI 26790 .cfa: $rsp 48 +
STACK CFI INIT 267bc 23 .cfa: $rsp .ra: .cfa 8 - ^
STACK CFI 267bc .cfa: $rsp 48 +
STACK CFI INIT 26828 23 .cfa: $rsp .ra: .cfa 8 - ^
STACK CFI 26828 .cfa: $rsp 48 +
STACK CFI INIT 26854 34 .cfa: $rsp .ra: .cfa 8 - ^
STACK CFI 26854 .cfa: $rsp 48 +
STACK CFI INIT 268b4 12d .cfa: $rsp .ra: .cfa 8 - ^
STACK CFI 268b4 .cfa: $rsp 1264 +
STACK CFI INIT 26a50 14e .cfa: $rsp .ra: .cfa 8 - ^
STACK CFI 26a50 .cfa: $rsp 3680 +
STACK CFI INIT 26c18 14a .cfa: $rsp .ra: .cfa 8 - ^
STACK CFI 26c18 .cfa: $rsp 3680 +
STACK CFI INIT 26db4 131 .cfa: $rsp .ra: .cfa 8 - ^
STACK CFI 26db4 .cfa: $rsp 1264 +
STACK CFI INIT 26f4c 131 .cfa: $rsp .ra: .cfa 8 - ^
STACK CFI 26f4c .cfa: $rsp 1264 +
STACK CFI INIT 270cc 12d .cfa: $rsp .ra: .cfa 8 - ^
STACK CFI 270cc .cfa: $rsp 1264 +
STACK CFI INIT 2790c 1f .cfa: $rsp .ra: .cfa 8 - ^
STACK CFI 2790c .cfa: $rsp 48 +
STACK CFI INIT 27a9c 230 .cfa: $rsp .ra: .cfa 8 - ^
STACK CFI 27a9c .cfa: $rsp 8 +
STACK CFI INIT 27d58 230 .cfa: $rsp .ra: .cfa 8 - ^
STACK CFI 27d58 .cfa: $rsp 8 +
STACK CFI INIT 28014 200 .cfa: $rsp .ra: .cfa 8 - ^
STACK CFI 28014 .cfa: $rsp 48 +
STACK CFI INIT 28294 200 .cfa: $rsp .ra: .cfa 8 - ^
STACK CFI 28294 .cfa: $rsp 48 +
STACK CFI INIT 285b4 a1 .cfa: $rsp .ra: .cfa 8 - ^
STACK CFI 285b4 .cfa: $rsp 64 +
STACK CFI INIT 28680 a1 .cfa: $rsp .ra: .cfa 8 - ^
STACK CFI 28680 .cfa: $rsp 64 +
STACK CFI INIT 2874c a1 .cfa: $rsp .ra: .cfa 8 - ^
STACK CFI 2874c .cfa: $rsp 64 +
STACK CFI INIT 28818 a1 .cfa: $rsp .ra: .cfa 8 - ^
STACK CFI 28818 .cfa: $rsp 64 +
STACK CFI INIT 288e4 a1 .cfa: $rsp .ra: .cfa 8 - ^
STACK CFI 288e4 .cfa: $rsp 64 +
STACK CFI INIT 289b0 a1 .cfa: $rsp .ra: .cfa 8 - ^
STACK CFI 289b0 .cfa: $rsp 64 +
STACK CFI INIT 28a7c a3 .cfa: $rsp .ra: .cfa 8 - ^
STACK CFI 28a7c .cfa: $rsp 48 +
STACK CFI INIT 28b48 a3 .cfa: $rsp .ra: .cfa 8 - ^
STACK CFI 28b48 .cfa: $rsp 48 +
STACK CFI INIT 28c14 a3 .cfa: $rsp .ra: .cfa 8 - ^
STACK CFI 28c14 .cfa: $rsp 48 +
STACK CFI INIT 28ce0 a3 .cfa: $rsp .ra: .cfa 8 - ^
STACK CFI 28ce0 .cfa: $rsp 48 +
STACK CFI INIT 28dac a3 .cfa: $rsp .ra: .cfa 8 - ^
STACK CFI 28dac .cfa: $rsp 48 +
STACK CFI INIT 28e78 a3 .cfa: $rsp .ra: .cfa 8 - ^
STACK CFI 28e78 .cfa: $rsp 48 +
STACK CFI INIT 28f44 227 .cfa: $rsp .ra: .cfa 8 - ^
STACK CFI 28f44 .cfa: $rsp 48 +
STACK CFI INIT 291f4 2a6 .cfa: $rsp .ra: .cfa 8 - ^
STACK CFI 291f4 .cfa: $rsp 64 +
STACK CFI INIT 29544 216 .cfa: $rsp .ra: .cfa 8 - ^
STACK CFI 29544 .cfa: $rsp 48 +
STACK CFI INIT 297e0 218 .cfa: $rsp .ra: .cfa 8 - ^
STACK CFI 297e0 .cfa: $rsp 48 +
STACK CFI INIT 29a80 295 .cfa: $rsp .ra: .cfa 8 - ^
STACK CFI 29a80 .cfa: $rsp 64 +
STACK CFI INIT 29dbc 20a .cfa: $rsp .ra: .cfa 8 - ^
STACK CFI 29dbc .cfa: $rsp 48 +
STACK CFI INIT 2a048 277 .cfa: $rsp .ra: .cfa 8 - ^
STACK CFI 2a048 .cfa: $rsp 64 +
STACK CFI INIT 2a35c 2b2 .cfa: $rsp .ra: .cfa 8 - ^
STACK CFI 2a35c .cfa: $rsp 80 +
STACK CFI INIT 2a6bc 26a .cfa: $rsp .ra: .cfa 8 - ^
STACK CFI 2a6bc .cfa: $rsp 64 +
STACK CFI INIT 2a9c0 288 .cfa: $rsp .ra: .cfa 8 - ^
STACK CFI 2a9c0 .cfa: $rsp 64 +
STACK CFI INIT 2acec 2b2 .cfa: $rsp .ra: .cfa 8 - ^
STACK CFI 2acec .cfa: $rsp 80 +
STACK CFI INIT 2b04c 27b .cfa: $rsp .ra: .cfa 8 - ^
STACK CFI 2b04c .cfa: $rsp 64 +
STACK CFI INIT 2b9a4 70 .cfa: $rsp .ra: .cfa 8 - ^
STACK CFI 2b9a4 .cfa: $rsp 48 +
STACK CFI INIT 2ba30 94 .cfa: $rsp .ra: .cfa 8 - ^
STACK CFI 2ba30 .cfa: $rsp 48 +
STACK CFI INIT 2baec 70 .cfa: $rsp .ra: .cfa 8 - ^
STACK CFI 2baec .cfa: $rsp 48 +
STACK CFI INIT 2bb78 74 .cfa: $rsp .ra: .cfa 8 - ^
STACK CFI 2bb78 .cfa: $rsp 48 +
STACK CFI INIT 2bc0c 98 .cfa: $rsp .ra: .cfa 8 - ^
STACK CFI 2bc0c .cfa: $rsp 48 +
STACK CFI INIT 2bccc 74 .cfa: $rsp .ra: .cfa 8 - ^
STACK CFI 2bccc .cfa: $rsp 48 +
STACK CFI INIT 2bd60 58 .cfa: $rsp .ra: .cfa 8 - ^
STACK CFI 2bd60 .cfa: $rsp 48 +
STACK CFI INIT 2bdd0 7c .cfa: $rsp .ra: .cfa 8 - ^
STACK CFI 2bdd0 .cfa: $rsp 48 +
STACK CFI INIT 2be6c 58 .cfa: $rsp .ra: .cfa 8 - ^
STACK CFI 2be6c .cfa: $rsp 48 +
STACK CFI INIT 2c04c 5c .cfa: $rsp .ra: .cfa 8 - ^
STACK CFI 2c04c .cfa: $rsp 48 +
STACK CFI INIT 2c0c0 5c .cfa: $rsp .ra: .cfa 8 - ^
STACK CFI 2c0c0 .cfa: $rsp 48 +
STACK CFI INIT 2c134 5c .cfa: $rsp .ra: .cfa 8 - ^
STACK CFI 2c134 .cfa: $rsp 48 +
STACK CFI INIT 2c1a8 60 .cfa: $rsp .ra: .cfa 8 - ^
STACK CFI 2c1a8 .cfa: $rsp 48 +
STACK CFI INIT 2c220 60 .cfa: $rsp .ra: .cfa 8 - ^
STACK CFI 2c220 .cfa: $rsp 48 +
STACK CFI INIT 2c298 60 .cfa: $rsp .ra: .cfa 8 - ^
STACK CFI 2c298 .cfa: $rsp 48 +
STACK CFI INIT 2c310 58 .cfa: $rsp .ra: .cfa 8 - ^
STACK CFI 2c310 .cfa: $rsp 48 +
STACK CFI INIT 2c380 58 .cfa: $rsp .ra: .cfa 8 - ^
STACK CFI 2c380 .cfa: $rsp 48 +
STACK CFI INIT 2c3f0 58 .cfa: $rsp .ra: .cfa 8 - ^
STACK CFI 2c3f0 .cfa: $rsp 48 +
STACK CFI INIT 2c5a4 a2 .cfa: $rsp .ra: .cfa 8 - ^
STACK CFI 2c5a4 .cfa: $rsp 48 +
STACK CFI INIT 2c670 a2 .cfa: $rsp .ra: .cfa 8 - ^
STACK CFI 2c670 .cfa: $rsp 48 +
STACK CFI INIT 2c73c a2 .cfa: $rsp .ra: .cfa 8 - ^
STACK CFI 2c73c .cfa: $rsp 48 +
STACK CFI INIT 2c808 a8 .cfa: $rsp .ra: .cfa 8 - ^
STACK CFI 2c808 .cfa: $rsp 48 +
STACK CFI INIT 2c8dc a8 .cfa: $rsp .ra: .cfa 8 - ^
STACK CFI 2c8dc .cfa: $rsp 48 +
STACK CFI INIT 2c9b0 a8 .cfa: $rsp .ra: .cfa 8 - ^
STACK CFI 2c9b0 .cfa: $rsp 48 +
STACK CFI INIT 2cc34 4a .cfa: $rsp .ra: .cfa 8 - ^
STACK CFI 2cc34 .cfa: $rsp 48 +
STACK CFI INIT 2ccf0 4a .cfa: $rsp .ra: .cfa 8 - ^
STACK CFI 2ccf0 .cfa: $rsp 48 +
STACK CFI INIT 2cdb0 4b .cfa: $rsp .ra: .cfa 8 - ^
STACK CFI 2cdb0 .cfa: $rsp 48 +
STACK CFI INIT 2ce78 4b .cfa: $rsp .ra: .cfa 8 - ^
STACK CFI 2ce78 .cfa: $rsp 48 +
STACK CFI INIT 2cf0c 171 .cfa: $rsp .ra: .cfa 8 - ^
STACK CFI 2cf0c .cfa: $rsp 48 +
STACK CFI INIT 2d0dc 171 .cfa: $rsp .ra: .cfa 8 - ^
STACK CFI 2d0dc .cfa: $rsp 48 +
STACK CFI INIT 2d2ac 171 .cfa: $rsp .ra: .cfa 8 - ^
STACK CFI 2d2ac .cfa: $rsp 48 +
STACK CFI INIT 2d47c 171 .cfa: $rsp .ra: .cfa 8 - ^
STACK CFI 2d47c .cfa: $rsp 48 +
STACK CFI INIT 2d64c 171 .cfa: $rsp .ra: .cfa 8 - ^
STACK CFI 2d64c .cfa: $rsp 48 +
STACK CFI INIT 2d81c 171 .cfa: $rsp .ra: .cfa 8 - ^
STACK CFI 2d81c .cfa: $rsp 48 +
STACK CFI INIT 2d9ec 196 .cfa: $rsp .ra: .cfa 8 - ^
STACK CFI 2d9ec .cfa: $rsp 48 +
STACK CFI INIT 2dbe8 196 .cfa: $rsp .ra: .cfa 8 - ^
STACK CFI 2dbe8 .cfa: $rsp 48 +
STACK CFI INIT 2dde4 196 .cfa: $rsp .ra: .cfa 8 - ^
STACK CFI 2dde4 .cfa: $rsp 48 +
STACK CFI INIT 2dfe0 196 .cfa: $rsp .ra: .cfa 8 - ^
STACK CFI 2dfe0 .cfa: $rsp 48 +
STACK CFI INIT 2e1dc 196 .cfa: $rsp .ra: .cfa 8 - ^
STACK CFI 2e1dc .cfa: $rsp 48 +
STACK CFI INIT 2e3d8 196 .cfa: $rsp .ra: .cfa 8 - ^
STACK CFI 2e3d8 .cfa: $rsp 48 +
STACK CFI INIT 2e5d4 284 .cfa: $rsp .ra: .cfa 8 - ^
STACK CFI 2e5d4 .cfa: $rsp 80 +
STACK CFI INIT 2e8fc 29a .cfa: $rsp .ra: .cfa 8 - ^
STACK CFI 2e8fc .cfa: $rsp 80 +
STACK CFI INIT 2ec3c 284 .cfa: $rsp .ra: .cfa 8 - ^
STACK CFI 2ec3c .cfa: $rsp 80 +
STACK CFI INIT 2ef64 266 .cfa: $rsp .ra: .cfa 8 - ^
STACK CFI 2ef64 .cfa: $rsp 80 +
STACK CFI INIT 2f264 27c .cfa: $rsp .ra: .cfa 8 - ^
STACK CFI 2f264 .cfa: $rsp 80 +
STACK CFI INIT 2f580 266 .cfa: $rsp .ra: .cfa 8 - ^
STACK CFI 2f580 .cfa: $rsp 80 +
STACK CFI INIT 2f880 2dd .cfa: $rsp .ra: .cfa 8 - ^
STACK CFI 2f880 .cfa: $rsp 112 +
STACK CFI INIT 2fc14 2f3 .cfa: $rsp .ra: .cfa 8 - ^
STACK CFI 2fc14 .cfa: $rsp 112 +
STACK CFI INIT 2ffc4 2dd .cfa: $rsp .ra: .cfa 8 - ^
STACK CFI 2ffc4 .cfa: $rsp 112 +
STACK CFI INIT 30358 2ca .cfa: $rsp .ra: .cfa 8 - ^
STACK CFI 30358 .cfa: $rsp 112 +
STACK CFI INIT 306d4 2e0 .cfa: $rsp .ra: .cfa 8 - ^
STACK CFI 306d4 .cfa: $rsp 112 +
STACK CFI INIT 30a6c 2ca .cfa: $rsp .ra: .cfa 8 - ^
STACK CFI 30a6c .cfa: $rsp 112 +
STACK CFI INIT 30e28 50 .cfa: $rsp .ra: .cfa 8 - ^
STACK CFI 30e28 .cfa: $rsp 48 +
STACK CFI INIT 30f0c 50 .cfa: $rsp .ra: .cfa 8 - ^
STACK CFI 30f0c .cfa: $rsp 48 +
STACK CFI INIT 30ff0 51 .cfa: $rsp .ra: .cfa 8 - ^
STACK CFI 30ff0 .cfa: $rsp 48 +
STACK CFI INIT 310d8 51 .cfa: $rsp .ra: .cfa 8 - ^
STACK CFI 310d8 .cfa: $rsp 48 +
STACK CFI INIT 313e8 158 .cfa: $rsp .ra: .cfa 8 - ^
STACK CFI 313e8 .cfa: $rsp 64 +
STACK CFI INIT 316b8 158 .cfa: $rsp .ra: .cfa 8 - ^
STACK CFI 316b8 .cfa: $rsp 64 +
STACK CFI INIT 318f8 79 .cfa: $rsp .ra: .cfa 8 - ^
STACK CFI 318f8 .cfa: $rsp 48 +
STACK CFI INIT 31990 13e .cfa: $rsp .ra: .cfa 8 - ^
STACK CFI 31990 .cfa: $rsp 64 +
STACK CFI INIT 31b20 79 .cfa: $rsp .ra: .cfa 8 - ^
STACK CFI 31b20 .cfa: $rsp 48 +
STACK CFI INIT 31bb8 79 .cfa: $rsp .ra: .cfa 8 - ^
STACK CFI 31bb8 .cfa: $rsp 48 +
STACK CFI INIT 31c50 13e .cfa: $rsp .ra: .cfa 8 - ^
STACK CFI 31c50 .cfa: $rsp 64 +
STACK CFI INIT 31de0 79 .cfa: $rsp .ra: .cfa 8 - ^
STACK CFI 31de0 .cfa: $rsp 48 +
STACK CFI INIT 31e78 215 .cfa: $rsp .ra: .cfa 8 - ^
STACK CFI 31e78 .cfa: $rsp 96 +
STACK CFI INIT 32114 252 .cfa: $rsp .ra: .cfa 8 - ^
STACK CFI 32114 .cfa: $rsp 96 +
STACK CFI INIT 323fc 215 .cfa: $rsp .ra: .cfa 8 - ^
STACK CFI 323fc .cfa: $rsp 96 +
STACK CFI INIT 32698 215 .cfa: $rsp .ra: .cfa 8 - ^
STACK CFI 32698 .cfa: $rsp 96 +
STACK CFI INIT 32934 252 .cfa: $rsp .ra: .cfa 8 - ^
STACK CFI 32934 .cfa: $rsp 96 +
STACK CFI INIT 32c1c 215 .cfa: $rsp .ra: .cfa 8 - ^
STACK CFI 32c1c .cfa: $rsp 96 +
STACK CFI INIT 32eb8 239 .cfa: $rsp .ra: .cfa 8 - ^
STACK CFI 32eb8 .cfa: $rsp 96 +
STACK CFI INIT 33180 276 .cfa: $rsp .ra: .cfa 8 - ^
STACK CFI 33180 .cfa: $rsp 96 +
STACK CFI INIT 33494 239 .cfa: $rsp .ra: .cfa 8 - ^
STACK CFI 33494 .cfa: $rsp 96 +
STACK CFI INIT 3375c 239 .cfa: $rsp .ra: .cfa 8 - ^
STACK CFI 3375c .cfa: $rsp 96 +
STACK CFI INIT 33a24 276 .cfa: $rsp .ra: .cfa 8 - ^
STACK CFI 33a24 .cfa: $rsp 96 +
STACK CFI INIT 33d38 239 .cfa: $rsp .ra: .cfa 8 - ^
STACK CFI 33d38 .cfa: $rsp 96 +
STACK CFI INIT 34060 bc .cfa: $rsp .ra: .cfa 8 - ^
STACK CFI 34060 .cfa: $rsp 48 +
STACK CFI INIT 3414c ff .cfa: $rsp .ra: .cfa 8 - ^
STACK CFI 3414c .cfa: $rsp 48 +
STACK CFI INIT 3428c bc .cfa: $rsp .ra: .cfa 8 - ^
STACK CFI 3428c .cfa: $rsp 48 +
STACK CFI INIT 34378 bc .cfa: $rsp .ra: .cfa 8 - ^
STACK CFI 34378 .cfa: $rsp 48 +
STACK CFI INIT 34464 ff .cfa: $rsp .ra: .cfa 8 - ^
STACK CFI 34464 .cfa: $rsp 48 +
STACK CFI INIT 345a4 bc .cfa: $rsp .ra: .cfa 8 - ^
STACK CFI 345a4 .cfa: $rsp 48 +
STACK CFI INIT 34690 a6 .cfa: $rsp .ra: .cfa 8 - ^
STACK CFI 34690 .cfa: $rsp 48 +
STACK CFI INIT 34760 cc .cfa: $rsp .ra: .cfa 8 - ^
STACK CFI 34760 .cfa: $rsp 48 +
STACK CFI INIT 34860 a6 .cfa: $rsp .ra: .cfa 8 - ^
STACK CFI 34860 .cfa: $rsp 48 +
STACK CFI INIT 34930 a6 .cfa: $rsp .ra: .cfa 8 - ^
STACK CFI 34930 .cfa: $rsp 48 +
STACK CFI INIT 34a00 cc .cfa: $rsp .ra: .cfa 8 - ^
STACK CFI 34a00 .cfa: $rsp 48 +
STACK CFI INIT 34b00 a6 .cfa: $rsp .ra: .cfa 8 - ^
STACK CFI 34b00 .cfa: $rsp 48 +
STACK CFI INIT 34cc0 1c5 .cfa: $rsp .ra: .cfa 8 - ^
STACK CFI 34cc0 .cfa: $rsp 64 +
STACK CFI INIT 34ef8 202 .cfa: $rsp .ra: .cfa 8 - ^
STACK CFI 34ef8 .cfa: $rsp 80 +
STACK CFI INIT 3517c 1c5 .cfa: $rsp .ra: .cfa 8 - ^
STACK CFI 3517c .cfa: $rsp 64 +
STACK CFI INIT 353b4 1c5 .cfa: $rsp .ra: .cfa 8 - ^
STACK CFI 353b4 .cfa: $rsp 64 +
STACK CFI INIT 355ec 202 .cfa: $rsp .ra: .cfa 8 - ^
STACK CFI 355ec .cfa: $rsp 80 +
STACK CFI INIT 35870 1c5 .cfa: $rsp .ra: .cfa 8 - ^
STACK CFI 35870 .cfa: $rsp 64 +
STACK CFI INIT 35aa8 1cb .cfa: $rsp .ra: .cfa 8 - ^
STACK CFI 35aa8 .cfa: $rsp 64 +
STACK CFI INIT 35ce8 208 .cfa: $rsp .ra: .cfa 8 - ^
STACK CFI 35ce8 .cfa: $rsp 80 +
STACK CFI INIT 35f74 1cb .cfa: $rsp .ra: .cfa 8 - ^
STACK CFI 35f74 .cfa: $rsp 64 +
STACK CFI INIT 361b4 1cb .cfa: $rsp .ra: .cfa 8 - ^
STACK CFI 361b4 .cfa: $rsp 64 +
STACK CFI INIT 363f4 208 .cfa: $rsp .ra: .cfa 8 - ^
STACK CFI 363f4 .cfa: $rsp 80 +
STACK CFI INIT 36680 1cb .cfa: $rsp .ra: .cfa 8 - ^
STACK CFI 36680 .cfa: $rsp 64 +
STACK CFI INIT 368c0 db .cfa: $rsp .ra: .cfa 8 - ^
STACK CFI 368c0 .cfa: $rsp 48 +
STACK CFI INIT 369d4 104 .cfa: $rsp .ra: .cfa 8 - ^
STACK CFI 369d4 .cfa: $rsp 48 +
STACK CFI INIT 36b1c db .cfa: $rsp .ra: .cfa 8 - ^
STACK CFI 36b1c .cfa: $rsp 48 +
STACK CFI INIT 36c30 db .cfa: $rsp .ra: .cfa 8 - ^
STACK CFI 36c30 .cfa: $rsp 48 +
STACK CFI INIT 36d44 104 .cfa: $rsp .ra: .cfa 8 - ^
STACK CFI 36d44 .cfa: $rsp 48 +
STACK CFI INIT 36e8c db .cfa: $rsp .ra: .cfa 8 - ^
STACK CFI 36e8c .cfa: $rsp 48 +
STACK CFI INIT 36fa0 db .cfa: $rsp .ra: .cfa 8 - ^
STACK CFI 36fa0 .cfa: $rsp 48 +
STACK CFI INIT 370b4 104 .cfa: $rsp .ra: .cfa 8 - ^
STACK CFI 370b4 .cfa: $rsp 48 +
STACK CFI INIT 371fc db .cfa: $rsp .ra: .cfa 8 - ^
STACK CFI 371fc .cfa: $rsp 48 +
STACK CFI INIT 37310 db .cfa: $rsp .ra: .cfa 8 - ^
STACK CFI 37310 .cfa: $rsp 48 +
STACK CFI INIT 37424 104 .cfa: $rsp .ra: .cfa 8 - ^
STACK CFI 37424 .cfa: $rsp 48 +
STACK CFI INIT 3756c db .cfa: $rsp .ra: .cfa 8 - ^
STACK CFI 3756c .cfa: $rsp 48 +
STACK CFI INIT 379b0 96 .cfa: $rsp .ra: .cfa 8 - ^
STACK CFI 379b0 .cfa: $rsp 48 +
STACK CFI INIT 37a6c b5 .cfa: $rsp .ra: .cfa 8 - ^
STACK CFI 37a6c .cfa: $rsp 48 +
STACK CFI INIT 37b50 96 .cfa: $rsp .ra: .cfa 8 - ^
STACK CFI 37b50 .cfa: $rsp 48 +
STACK CFI INIT 37c0c 96 .cfa: $rsp .ra: .cfa 8 - ^
STACK CFI 37c0c .cfa: $rsp 48 +
STACK CFI INIT 37cc8 b5 .cfa: $rsp .ra: .cfa 8 - ^
STACK CFI 37cc8 .cfa: $rsp 48 +
STACK CFI INIT 37dac 96 .cfa: $rsp .ra: .cfa 8 - ^
STACK CFI 37dac .cfa: $rsp 48 +
STACK CFI INIT 37e68 c7 .cfa: $rsp .ra: .cfa 8 - ^
STACK CFI 37e68 .cfa: $rsp 48 +
STACK CFI INIT 37f60 e9 .cfa: $rsp .ra: .cfa 8 - ^
STACK CFI 37f60 .cfa: $rsp 48 +
STACK CFI INIT 38084 c7 .cfa: $rsp .ra: .cfa 8 - ^
STACK CFI 38084 .cfa: $rsp 48 +
STACK CFI INIT 3817c c7 .cfa: $rsp .ra: .cfa 8 - ^
STACK CFI 3817c .cfa: $rsp 48 +
STACK CFI INIT 38274 e9 .cfa: $rsp .ra: .cfa 8 - ^
STACK CFI 38274 .cfa: $rsp 48 +
STACK CFI INIT 38398 c7 .cfa: $rsp .ra: .cfa 8 - ^
STACK CFI 38398 .cfa: $rsp 48 +
STACK CFI INIT 384f0 53 .cfa: $rsp .ra: .cfa 8 - ^
STACK CFI 384f0 .cfa: $rsp 8 +
STACK CFI INIT 38558 53 .cfa: $rsp .ra: .cfa 8 - ^
STACK CFI 38558 .cfa: $rsp 8 +
STACK CFI INIT 385c0 53 .cfa: $rsp .ra: .cfa 8 - ^
STACK CFI 385c0 .cfa: $rsp 8 +
STACK CFI INIT 38628 53 .cfa: $rsp .ra: .cfa 8 - ^
STACK CFI 38628 .cfa: $rsp 8 +
STACK CFI INIT 38690 53 .cfa: $rsp .ra: .cfa 8 - ^
STACK CFI 38690 .cfa: $rsp 8 +
STACK CFI INIT 386f8 53 .cfa: $rsp .ra: .cfa 8 - ^
STACK CFI 386f8 .cfa: $rsp 8 +
STACK CFI INIT 38940 115 .cfa: $rsp .ra: .cfa 8 - ^
STACK CFI 38940 .cfa: $rsp 64 +
STACK CFI INIT 38a9c 115 .cfa: $rsp .ra: .cfa 8 - ^
STACK CFI 38a9c .cfa: $rsp 64 +
STACK CFI INIT 38bf8 118 .cfa: $rsp .ra: .cfa 8 - ^
STACK CFI 38bf8 .cfa: $rsp 64 +
STACK CFI INIT 38d58 118 .cfa: $rsp .ra: .cfa 8 - ^
STACK CFI 38d58 .cfa: $rsp 64 +
STACK CFI INIT 38f18 115 .cfa: $rsp .ra: .cfa 8 - ^
STACK CFI 38f18 .cfa: $rsp 64 +
STACK CFI INIT 39074 115 .cfa: $rsp .ra: .cfa 8 - ^
STACK CFI 39074 .cfa: $rsp 64 +
STACK CFI INIT 391d0 118 .cfa: $rsp .ra: .cfa 8 - ^
STACK CFI 391d0 .cfa: $rsp 64 +
STACK CFI INIT 39330 118 .cfa: $rsp .ra: .cfa 8 - ^
STACK CFI 39330 .cfa: $rsp 64 +
STACK CFI INIT 394fc 2c .cfa: $rsp .ra: .cfa 8 - ^
STACK CFI 394fc .cfa: $rsp 48 +
STACK CFI INIT 39534 25 .cfa: $rsp .ra: .cfa 8 - ^
STACK CFI 39534 .cfa: $rsp 48 +
STACK CFI INIT 39564 25 .cfa: $rsp .ra: .cfa 8 - ^
STACK CFI 39564 .cfa: $rsp 48 +
STACK CFI INIT 39594 25 .cfa: $rsp .ra: .cfa 8 - ^
STACK CFI 39594 .cfa: $rsp 48 +
STACK CFI INIT 395c4 3f .cfa: $rsp .ra: .cfa 8 - ^
STACK CFI 395c4 .cfa: $rsp 64 +
STACK CFI INIT 39614 3f .cfa: $rsp .ra: .cfa 8 - ^
STACK CFI 39614 .cfa: $rsp 64 +
STACK CFI INIT 39664 40 .cfa: $rsp .ra: .cfa 8 - ^
STACK CFI 39664 .cfa: $rsp 64 +
STACK CFI INIT 396b4 40 .cfa: $rsp .ra: .cfa 8 - ^
STACK CFI 396b4 .cfa: $rsp 64 +
STACK CFI INIT 39704 10b .cfa: $rsp .ra: .cfa 8 - ^
STACK CFI 39704 .cfa: $rsp 48 +
STACK CFI INIT 39854 10b .cfa: $rsp .ra: .cfa 8 - ^
STACK CFI 39854 .cfa: $rsp 48 +
STACK CFI INIT 399a4 114 .cfa: $rsp .ra: .cfa 8 - ^
STACK CFI 399a4 .cfa: $rsp 48 +
STACK CFI INIT 39b00 114 .cfa: $rsp .ra: .cfa 8 - ^
STACK CFI 39b00 .cfa: $rsp 48 +
STACK CFI INIT 39c6c 2b .cfa: $rsp .ra: .cfa 8 - ^
STACK CFI 39c6c .cfa: $rsp 48 +
STACK CFI INIT 39ca4 2b .cfa: $rsp .ra: .cfa 8 - ^
STACK CFI 39ca4 .cfa: $rsp 48 +
STACK CFI INIT 39cdc 2b .cfa: $rsp .ra: .cfa 8 - ^
STACK CFI 39cdc .cfa: $rsp 48 +
STACK CFI INIT 39d14 2b .cfa: $rsp .ra: .cfa 8 - ^
STACK CFI 39d14 .cfa: $rsp 48 +
STACK CFI INIT 39d4c 9b .cfa: $rsp .ra: .cfa 8 - ^
STACK CFI 39d4c .cfa: $rsp 48 +
STACK CFI INIT 39e10 9b .cfa: $rsp .ra: .cfa 8 - ^
STACK CFI 39e10 .cfa: $rsp 48 +
STACK CFI INIT 39ed4 9b .cfa: $rsp .ra: .cfa 8 - ^
STACK CFI 39ed4 .cfa: $rsp 48 +
STACK CFI INIT 39f98 9b .cfa: $rsp .ra: .cfa 8 - ^
STACK CFI 39f98 .cfa: $rsp 48 +
STACK CFI INIT 3a06c 9b .cfa: $rsp .ra: .cfa 8 - ^
STACK CFI 3a06c .cfa: $rsp 64 +
STACK CFI INIT 3a130 9b .cfa: $rsp .ra: .cfa 8 - ^
STACK CFI 3a130 .cfa: $rsp 64 +
STACK CFI INIT 3a1f4 9d .cfa: $rsp .ra: .cfa 8 - ^
STACK CFI 3a1f4 .cfa: $rsp 64 +
STACK CFI INIT 3a2b8 9d .cfa: $rsp .ra: .cfa 8 - ^
STACK CFI 3a2b8 .cfa: $rsp 64 +
STACK CFI INIT 3a38c 9a .cfa: $rsp .ra: .cfa 8 - ^
STACK CFI 3a38c .cfa: $rsp 48 +
STACK CFI INIT 3a4e0 48 .cfa: $rsp .ra: .cfa 8 - ^
STACK CFI 3a4e0 .cfa: $rsp 48 +
STACK CFI INIT 3a53c 4b .cfa: $rsp .ra: .cfa 8 - ^
STACK CFI 3a53c .cfa: $rsp 48 +
STACK CFI INIT 3a650 40 .cfa: $rsp .ra: .cfa 8 - ^
STACK CFI 3a650 .cfa: $rsp 48 +
STACK CFI INIT 3a6a0 43 .cfa: $rsp .ra: .cfa 8 - ^
STACK CFI 3a6a0 .cfa: $rsp 48 +
STACK CFI INIT 3a6f4 121 .cfa: $rsp .ra: .cfa 8 - ^
STACK CFI 3a6f4 .cfa: $rsp 96 +
STACK CFI INIT 3a860 121 .cfa: $rsp .ra: .cfa 8 - ^
STACK CFI 3a860 .cfa: $rsp 96 +
STACK CFI INIT 3a9cc 121 .cfa: $rsp .ra: .cfa 8 - ^
STACK CFI 3a9cc .cfa: $rsp 96 +
STACK CFI INIT 3ab38 d5 .cfa: $rsp .ra: .cfa 8 - ^
STACK CFI 3ab38 .cfa: $rsp 96 +
STACK CFI INIT 3ac44 d5 .cfa: $rsp .ra: .cfa 8 - ^
STACK CFI 3ac44 .cfa: $rsp 96 +
STACK CFI INIT 3ad50 d5 .cfa: $rsp .ra: .cfa 8 - ^
STACK CFI 3ad50 .cfa: $rsp 96 +
STACK CFI INIT 3ae5c 106 .cfa: $rsp .ra: .cfa 8 - ^
STACK CFI 3ae5c .cfa: $rsp 80 +
STACK CFI INIT 3afa4 106 .cfa: $rsp .ra: .cfa 8 - ^
STACK CFI 3afa4 .cfa: $rsp 80 +
STACK CFI INIT 3b0ec 106 .cfa: $rsp .ra: .cfa 8 - ^
STACK CFI 3b0ec .cfa: $rsp 80 +
STACK CFI INIT 3b234 eb .cfa: $rsp .ra: .cfa 8 - ^
STACK CFI 3b234 .cfa: $rsp 64 +
STACK CFI INIT 3b35c eb .cfa: $rsp .ra: .cfa 8 - ^
STACK CFI 3b35c .cfa: $rsp 64 +
STACK CFI INIT 3b484 eb .cfa: $rsp .ra: .cfa 8 - ^
STACK CFI 3b484 .cfa: $rsp 64 +
STACK CFI INIT 3b60c a3 .cfa: $rsp .ra: .cfa 8 - ^
STACK CFI 3b60c .cfa: $rsp 48 +
STACK CFI INIT 3b6d8 a5 .cfa: $rsp .ra: .cfa 8 - ^
STACK CFI 3b6d8 .cfa: $rsp 64 +
STACK CFI INIT 3b7a8 f5 .cfa: $rsp .ra: .cfa 8 - ^
STACK CFI 3b7a8 .cfa: $rsp 64 +
STACK CFI INIT 3b8dc 103 .cfa: $rsp .ra: .cfa 8 - ^
STACK CFI 3b8dc .cfa: $rsp 64 +
STACK CFI INIT 3ba7c 8b .cfa: $rsp .ra: .cfa 8 - ^
STACK CFI 3ba7c .cfa: $rsp 112 +
STACK CFI INIT 3bb2c 8b .cfa: $rsp .ra: .cfa 8 - ^
STACK CFI 3bb2c .cfa: $rsp 112 +
STACK CFI INIT 3bbdc 8b .cfa: $rsp .ra: .cfa 8 - ^
STACK CFI 3bbdc .cfa: $rsp 112 +
STACK CFI INIT 3bc8c 8b .cfa: $rsp .ra: .cfa 8 - ^
STACK CFI 3bc8c .cfa: $rsp 112 +
STACK CFI INIT 3bd3c 8b .cfa: $rsp .ra: .cfa 8 - ^
STACK CFI 3bd3c .cfa: $rsp 112 +
STACK CFI INIT 3bdec 8b .cfa: $rsp .ra: .cfa 8 - ^
STACK CFI 3bdec .cfa: $rsp 112 +
STACK CFI INIT 3be9c 134 .cfa: $rsp .ra: .cfa 8 - ^
STACK CFI 3be9c .cfa: $rsp 80 +
STACK CFI INIT 3c020 143 .cfa: $rsp .ra: .cfa 8 - ^
STACK CFI 3c020 .cfa: $rsp 80 +
STACK CFI INIT 3c1c4 63 .cfa: $rsp .ra: .cfa 8 - ^
STACK CFI 3c1c4 .cfa: $rsp 64 +
STACK CFI INIT 3c250 6e .cfa: $rsp .ra: .cfa 8 - ^
STACK CFI 3c250 .cfa: $rsp 64 +
STACK CFI INIT 3c3c4 305 .cfa: $rsp .ra: .cfa 8 - ^
STACK CFI 3c3c4 .cfa: $rsp 96 +
STACK CFI INIT 3c78c 6a8 .cfa: $rsp .ra: .cfa 8 - ^
STACK CFI 3c78c .cfa: $rsp 112 +
STACK CFI INIT 3cfe0 2f0 .cfa: $rsp .ra: .cfa 8 - ^
STACK CFI 3cfe0 .cfa: $rsp 96 +
STACK CFI INIT 3d38c 758 .cfa: $rsp .ra: .cfa 8 - ^
STACK CFI 3d38c .cfa: $rsp 208 +
STACK CFI INIT 3dcbc 2e .cfa: $rsp .ra: .cfa 8 - ^
STACK CFI 3dcbc .cfa: $rsp 64 +
STACK CFI INIT 3dcf8 2e .cfa: $rsp .ra: .cfa 8 - ^
STACK CFI 3dcf8 .cfa: $rsp 64 +
STACK CFI INIT 3dd34 2e .cfa: $rsp .ra: .cfa 8 - ^
STACK CFI 3dd34 .cfa: $rsp 64 +
STACK CFI INIT 3dd70 2e .cfa: $rsp .ra: .cfa 8 - ^
STACK CFI 3dd70 .cfa: $rsp 64 +
STACK CFI INIT 3de28 1e .cfa: $rsp .ra: .cfa 8 - ^
STACK CFI 3de28 .cfa: $rsp 48 +
STACK CFI INIT 3de50 18 .cfa: $rsp .ra: .cfa 8 - ^
STACK CFI 3de50 .cfa: $rsp 48 +
STACK CFI INIT 3e138 2a .cfa: $rsp .ra: .cfa 8 - ^
STACK CFI 3e138 .cfa: $rsp 48 +
STACK CFI INIT 3e16c 2d .cfa: $rsp .ra: .cfa 8 - ^
STACK CFI 3e16c .cfa: $rsp 48 +
STACK CFI INIT 3e1a4 25 .cfa: $rsp .ra: .cfa 8 - ^
STACK CFI 3e1a4 .cfa: $rsp 48 +
STACK CFI INIT 3e1d4 25 .cfa: $rsp .ra: .cfa 8 - ^
STACK CFI 3e1d4 .cfa: $rsp 48 +
STACK CFI INIT 3e454 29 .cfa: $rsp .ra: .cfa 8 - ^
STACK CFI 3e454 .cfa: $rsp 64 +
STACK CFI INIT 3e488 2d .cfa: $rsp .ra: .cfa 8 - ^
STACK CFI 3e488 .cfa: $rsp 64 +
STACK CFI INIT 3e4c0 2d .cfa: $rsp .ra: .cfa 8 - ^
STACK CFI 3e4c0 .cfa: $rsp 64 +
STACK CFI INIT 3e4f8 2d .cfa: $rsp .ra: .cfa 8 - ^
STACK CFI 3e4f8 .cfa: $rsp 64 +
STACK CFI INIT 3e530 2d .cfa: $rsp .ra: .cfa 8 - ^
STACK CFI 3e530 .cfa: $rsp 64 +
STACK CFI INIT 3e568 61 .cfa: $rsp .ra: .cfa 8 - ^
STACK CFI 3e568 .cfa: $rsp 48 +
STACK CFI INIT 3e5e4 76 .cfa: $rsp .ra: .cfa 8 - ^
STACK CFI 3e5e4 .cfa: $rsp 48 +
STACK CFI INIT 3e678 29 .cfa: $rsp .ra: .cfa 8 - ^
STACK CFI 3e678 .cfa: $rsp 64 +
STACK CFI INIT 3e6ac 29 .cfa: $rsp .ra: .cfa 8 - ^
STACK CFI 3e6ac .cfa: $rsp 64 +
STACK CFI INIT 3e6e0 2d .cfa: $rsp .ra: .cfa 8 - ^
STACK CFI 3e6e0 .cfa: $rsp 64 +
STACK CFI INIT 3e718 2d .cfa: $rsp .ra: .cfa 8 - ^
STACK CFI 3e718 .cfa: $rsp 64 +
STACK CFI INIT 3e750 29 .cfa: $rsp .ra: .cfa 8 - ^
STACK CFI 3e750 .cfa: $rsp 64 +
STACK CFI INIT 3e784 2d .cfa: $rsp .ra: .cfa 8 - ^
STACK CFI 3e784 .cfa: $rsp 64 +
STACK CFI INIT 3e7bc 29 .cfa: $rsp .ra: .cfa 8 - ^
STACK CFI 3e7bc .cfa: $rsp 64 +
STACK CFI INIT 3e7f0 2d .cfa: $rsp .ra: .cfa 8 - ^
STACK CFI 3e7f0 .cfa: $rsp 64 +
STACK CFI INIT 3e828 29 .cfa: $rsp .ra: .cfa 8 - ^
STACK CFI 3e828 .cfa: $rsp 64 +
STACK CFI INIT 3e85c 29 .cfa: $rsp .ra: .cfa 8 - ^
STACK CFI 3e85c .cfa: $rsp 64 +
STACK CFI INIT 3e890 29 .cfa: $rsp .ra: .cfa 8 - ^
STACK CFI 3e890 .cfa: $rsp 64 +
STACK CFI INIT 3e8e0 7d .cfa: $rsp .ra: .cfa 8 - ^
STACK CFI 3e8e0 .cfa: $rsp 8 +
STACK CFI INIT 3e9a4 56 .cfa: $rsp .ra: .cfa 8 - ^
STACK CFI 3e9a4 .cfa: $rsp 48 +
STACK CFI INIT 3ea5c 3f .cfa: $rsp .ra: .cfa 8 - ^
STACK CFI 3ea5c .cfa: $rsp 48 +
STACK CFI INIT 3eaac 3d .cfa: $rsp .ra: .cfa 8 - ^
STACK CFI 3eaac .cfa: $rsp 48 +
STACK CFI INIT 3eaf8 45 .cfa: $rsp .ra: .cfa 8 - ^
STACK CFI 3eaf8 .cfa: $rsp 48 +
STACK CFI INIT 3eb50 5f .cfa: $rsp .ra: .cfa 8 - ^
STACK CFI 3eb50 .cfa: $rsp 48 +
STACK CFI INIT 3ebc8 26 .cfa: $rsp .ra: .cfa 8 - ^
STACK CFI 3ebc8 .cfa: $rsp 48 +
STACK CFI INIT 3ebf8 26 .cfa: $rsp .ra: .cfa 8 - ^
STACK CFI 3ebf8 .cfa: $rsp 48 +
STACK CFI INIT 3ec28 26 .cfa: $rsp .ra: .cfa 8 - ^
STACK CFI 3ec28 .cfa: $rsp 48 +
STACK CFI INIT 3ec58 26 .cfa: $rsp .ra: .cfa 8 - ^
STACK CFI 3ec58 .cfa: $rsp 48 +
STACK CFI INIT 3ed18 1a .cfa: $rsp .ra: .cfa 8 - ^
STACK CFI 3ed18 .cfa: $rsp 48 +
STACK CFI INIT 3ed38 1b .cfa: $rsp .ra: .cfa 8 - ^
STACK CFI 3ed38 .cfa: $rsp 48 +
STACK CFI INIT 3ed7c 38 .cfa: $rsp .ra: .cfa 8 - ^
STACK CFI 3ed7c .cfa: $rsp 48 +
STACK CFI INIT 3ee40 c5 .cfa: $rsp .ra: .cfa 8 - ^
STACK CFI 3ee40 .cfa: $rsp 80 +
STACK CFI INIT 3ef38 cd .cfa: $rsp .ra: .cfa 8 - ^
STACK CFI 3ef38 .cfa: $rsp 96 +
STACK CFI INIT 3f03c 20 .cfa: $rsp .ra: .cfa 8 - ^
STACK CFI 3f03c .cfa: $rsp 48 +
STACK CFI INIT 3f064 f5 .cfa: $rsp .ra: .cfa 8 - ^
STACK CFI 3f064 .cfa: $rsp 64 +
STACK CFI INIT 3f198 f5 .cfa: $rsp .ra: .cfa 8 - ^
STACK CFI 3f198 .cfa: $rsp 80 +
STACK CFI INIT 3f2e0 9f .cfa: $rsp .ra: .cfa 8 - ^
STACK CFI 3f2e0 .cfa: $rsp 48 +
STACK CFI INIT 3f3a8 c8 .cfa: $rsp .ra: .cfa 8 - ^
STACK CFI 3f3a8 .cfa: $rsp 48 +
STACK CFI INIT 3f4b0 1b .cfa: $rsp .ra: .cfa 8 - ^
STACK CFI 3f4b0 .cfa: $rsp 48 +
STACK CFI INIT 3f4d4 67 .cfa: $rsp .ra: .cfa 8 - ^
STACK CFI 3f4d4 .cfa: $rsp 48 +
STACK CFI INIT 3f554 20 .cfa: $rsp .ra: .cfa 8 - ^
STACK CFI 3f554 .cfa: $rsp 48 +
STACK CFI INIT 3f580 41 .cfa: $rsp .ra: .cfa 8 - ^
STACK CFI 3f580 .cfa: $rsp 48 +
STACK CFI INIT 3f5d4 d4 .cfa: $rsp .ra: .cfa 8 - ^
STACK CFI 3f5d4 .cfa: $rsp 48 +
STACK CFI INIT 3f6e0 a7 .cfa: $rsp .ra: .cfa 8 - ^
STACK CFI 3f6e0 .cfa: $rsp 48 +
STACK CFI INIT 3f7b0 cc .cfa: $rsp .ra: .cfa 8 - ^
STACK CFI 3f7b0 .cfa: $rsp 48 +
STACK CFI INIT 3f8b0 39 .cfa: $rsp .ra: .cfa 8 - ^
STACK CFI 3f8b0 .cfa: $rsp 48 +
STACK CFI INIT 3f8f8 22 .cfa: $rsp .ra: .cfa 8 - ^
STACK CFI 3f8f8 .cfa: $rsp 48 +
STACK CFI INIT 3f940 3d .cfa: $rsp .ra: .cfa 8 - ^
STACK CFI 3f940 .cfa: $rsp 48 +
STACK CFI INIT 3f98c 48 .cfa: $rsp .ra: .cfa 8 - ^
STACK CFI 3f98c .cfa: $rsp 48 +
STACK CFI INIT 3fa08 37 .cfa: $rsp .ra: .cfa 8 - ^
STACK CFI 3fa08 .cfa: $rsp 48 +
STACK CFI INIT 3fa6c 1b .cfa: $rsp .ra: .cfa 8 - ^
STACK CFI 3fa6c .cfa: $rsp 48 +
STACK CFI INIT 3faa4 4c .cfa: $rsp .ra: .cfa 8 - ^
STACK CFI 3faa4 .cfa: $rsp 48 +
STACK CFI INIT 3fb04 4c .cfa: $rsp .ra: .cfa 8 - ^
STACK CFI 3fb04 .cfa: $rsp 48 +
STACK CFI INIT 3fb64 69 .cfa: $rsp .ra: .cfa 8 - ^
STACK CFI 3fb64 .cfa: $rsp 48 +
STACK CFI INIT 3fbe8 38 .cfa: $rsp .ra: .cfa 8 - ^
STACK CFI 3fbe8 .cfa: $rsp 48 +
STACK CFI INIT 3fcac 51 .cfa: $rsp .ra: .cfa 8 - ^
STACK CFI 3fcac .cfa: $rsp 48 +
STACK CFI INIT 3fd14 51 .cfa: $rsp .ra: .cfa 8 - ^
STACK CFI 3fd14 .cfa: $rsp 48 +
STACK CFI INIT 3fd7c 3c .cfa: $rsp .ra: .cfa 8 - ^
STACK CFI 3fd7c .cfa: $rsp 48 +
STACK CFI INIT 3fdc8 6c .cfa: $rsp .ra: .cfa 8 - ^
STACK CFI 3fdc8 .cfa: $rsp 48 +
STACK CFI INIT 3fea8 4e .cfa: $rsp .ra: .cfa 8 - ^
STACK CFI 3fea8 .cfa: $rsp 48 +
STACK CFI INIT 3ff0c 20 .cfa: $rsp .ra: .cfa 8 - ^
STACK CFI 3ff0c .cfa: $rsp 48 +
STACK CFI INIT 3ff34 20 .cfa: $rsp .ra: .cfa 8 - ^
STACK CFI 3ff34 .cfa: $rsp 48 +
STACK CFI INIT 3ff5c 3b .cfa: $rsp .ra: .cfa 8 - ^
STACK CFI 3ff5c .cfa: $rsp 48 +
STACK CFI INIT 3ffa8 3b .cfa: $rsp .ra: .cfa 8 - ^
STACK CFI 3ffa8 .cfa: $rsp 48 +
STACK CFI INIT 3fff4 3a .cfa: $rsp .ra: .cfa 8 - ^
STACK CFI 3fff4 .cfa: $rsp 48 +
STACK CFI INIT 4003c 3a .cfa: $rsp .ra: .cfa 8 - ^
STACK CFI 4003c .cfa: $rsp 48 +
STACK CFI INIT 40084 75 .cfa: $rsp .ra: .cfa 8 - ^
STACK CFI 40084 .cfa: $rsp 48 +
STACK CFI INIT 40148 179 .cfa: $rsp .ra: .cfa 8 - ^
STACK CFI 40148 .cfa: $rsp 64 +
STACK CFI INIT 40320 18b .cfa: $rsp .ra: .cfa 8 - ^
STACK CFI 40320 .cfa: $rsp 80 +
STACK CFI INIT 40510 176 .cfa: $rsp .ra: .cfa 8 - ^
STACK CFI 40510 .cfa: $rsp 64 +
STACK CFI INIT 406e4 18a .cfa: $rsp .ra: .cfa 8 - ^
STACK CFI 406e4 .cfa: $rsp 80 +
STACK CFI INIT 408d0 209 .cfa: $rsp .ra: .cfa 8 - ^
STACK CFI 408d0 .cfa: $rsp 160 +
STACK CFI INIT 40b5c 3ca .cfa: $rsp .ra: .cfa 8 - ^
STACK CFI 40b5c .cfa: $rsp 768 +
STACK CFI INIT 41018 187 .cfa: $rsp .ra: .cfa 8 - ^
STACK CFI 41018 .cfa: $rsp 96 +
STACK CFI INIT 41200 189 .cfa: $rsp .ra: .cfa 8 - ^
STACK CFI 41200 .cfa: $rsp 96 +
STACK CFI INIT 413ec 30e .cfa: $rsp .ra: .cfa 8 - ^
STACK CFI 413ec .cfa: $rsp 880 +
STACK CFI INIT 417c0 19b .cfa: $rsp .ra: .cfa 8 - ^
STACK CFI 417c0 .cfa: $rsp 704 +
STACK CFI INIT 41b1c 22 .cfa: $rsp .ra: .cfa 8 - ^
STACK CFI 41b1c .cfa: $rsp 48 +
STACK CFI INIT 41b48 22 .cfa: $rsp .ra: .cfa 8 - ^
STACK CFI 41b48 .cfa: $rsp 48 +
STACK CFI INIT 41b74 22 .cfa: $rsp .ra: .cfa 8 - ^
STACK CFI 41b74 .cfa: $rsp 48 +
STACK CFI INIT 41ba0 3d .cfa: $rsp .ra: .cfa 8 - ^
STACK CFI 41ba0 .cfa: $rsp 48 +
STACK CFI INIT 41bec 3d .cfa: $rsp .ra: .cfa 8 - ^
STACK CFI 41bec .cfa: $rsp 48 +
STACK CFI INIT 41c50 25 .cfa: $rsp .ra: .cfa 8 - ^
STACK CFI 41c50 .cfa: $rsp 64 +
STACK CFI INIT 41d08 2f .cfa: $rsp .ra: .cfa 8 - ^
STACK CFI 41d08 .cfa: $rsp 80 +
STACK CFI INIT 41d44 49 .cfa: $rsp .ra: .cfa 8 - ^
STACK CFI 41d44 .cfa: $rsp 80 +
STACK CFI INIT 41da0 22 .cfa: $rsp .ra: .cfa 8 - ^
STACK CFI 41da0 .cfa: $rsp 48 +
STACK CFI INIT 41dcc 22 .cfa: $rsp .ra: .cfa 8 - ^
STACK CFI 41dcc .cfa: $rsp 48 +
STACK CFI INIT 41df8 5b .cfa: $rsp .ra: .cfa 8 - ^
STACK CFI 41df8 .cfa: $rsp 48 +
STACK CFI INIT 41e6c 5c .cfa: $rsp .ra: .cfa 8 - ^
STACK CFI 41e6c .cfa: $rsp 48 +
STACK CFI INIT 41ee0 24 .cfa: $rsp .ra: .cfa 8 - ^
STACK CFI 41ee0 .cfa: $rsp 48 +
STACK CFI INIT 41f10 de .cfa: $rsp .ra: .cfa 8 - ^
STACK CFI 41f10 .cfa: $rsp 48 +
STACK CFI INIT 42028 de .cfa: $rsp .ra: .cfa 8 - ^
STACK CFI 42028 .cfa: $rsp 48 +
STACK CFI INIT 42158 22 .cfa: $rsp .ra: .cfa 8 - ^
STACK CFI 42158 .cfa: $rsp 48 +
STACK CFI INIT 42184 14 .cfa: $rsp .ra: .cfa 8 - ^
STACK CFI 42184 .cfa: $rsp 48 +
STACK CFI INIT 421d0 c7 .cfa: $rsp .ra: .cfa 8 - ^
STACK CFI 421d0 .cfa: $rsp 48 +
STACK CFI INIT 422c8 c7 .cfa: $rsp .ra: .cfa 8 - ^
STACK CFI 422c8 .cfa: $rsp 48 +
STACK CFI INIT 423c4 9d .cfa: $rsp .ra: .cfa 8 - ^
STACK CFI 423c4 .cfa: $rsp 80 +
STACK CFI INIT 42498 9d .cfa: $rsp .ra: .cfa 8 - ^
STACK CFI 42498 .cfa: $rsp 80 +
STACK CFI INIT 4256c 31 .cfa: $rsp .ra: .cfa 8 - ^
STACK CFI 4256c .cfa: $rsp 48 +
STACK CFI INIT 425ac 31 .cfa: $rsp .ra: .cfa 8 - ^
STACK CFI 425ac .cfa: $rsp 48 +
STACK CFI INIT 4263c 119 .cfa: $rsp .ra: .cfa 8 - ^
STACK CFI 4263c .cfa: $rsp 80 +
STACK CFI INIT 4279c 111 .cfa: $rsp .ra: .cfa 8 - ^
STACK CFI 4279c .cfa: $rsp 80 +
STACK CFI INIT 42928 2f .cfa: $rsp .ra: .cfa 8 - ^
STACK CFI 42928 .cfa: $rsp 80 +
STACK CFI INIT 42974 30 .cfa: $rsp .ra: .cfa 8 - ^
STACK CFI 42974 .cfa: $rsp 48 +
STACK CFI INIT 429b0 17 .cfa: $rsp .ra: .cfa 8 - ^
STACK CFI 429b0 .cfa: $rsp 48 +
STACK CFI INIT 42a10 11e .cfa: $rsp .ra: .cfa 8 - ^
STACK CFI 42a10 .cfa: $rsp 672 +
STACK CFI INIT 42b84 1ba .cfa: $rsp .ra: .cfa 8 - ^
STACK CFI 42b84 .cfa: $rsp 48 +
STACK CFI INIT 42dac 26 .cfa: $rsp .ra: .cfa 8 - ^
STACK CFI 42dac .cfa: $rsp 48 +
STACK CFI INIT 42e14 1b .cfa: $rsp .ra: .cfa 8 - ^
STACK CFI 42e14 .cfa: $rsp 48 +
STACK CFI INIT 42e4c 1a0 .cfa: $rsp .ra: .cfa 8 - ^
STACK CFI 42e4c .cfa: $rsp 48 +
STACK CFI INIT 430bc 7d .cfa: $rsp .ra: .cfa 8 - ^
STACK CFI 430bc .cfa: $rsp 80 +
STACK CFI INIT 43158 27 .cfa: $rsp .ra: .cfa 8 - ^
STACK CFI 43158 .cfa: $rsp 8 +
STACK CFI INIT 43194 1b .cfa: $rsp .ra: .cfa 8 - ^
STACK CFI 43194 .cfa: $rsp 48 +
STACK CFI INIT 431b8 90 .cfa: $rsp .ra: .cfa 8 - ^
STACK CFI 431b8 .cfa: $rsp 48 +
STACK CFI INIT 4326c 1e3 .cfa: $rsp .ra: .cfa 8 - ^
STACK CFI 4326c .cfa: $rsp 1936 +
STACK CFI INIT 434c8 1c2 .cfa: $rsp .ra: .cfa 8 - ^
STACK CFI 434c8 .cfa: $rsp 96 +
STACK CFI INIT 436fc b8 .cfa: $rsp .ra: .cfa 8 - ^
STACK CFI 436fc .cfa: $rsp 48 +
STACK CFI INIT 437ec 60 .cfa: $rsp .ra: .cfa 8 - ^
STACK CFI 437ec .cfa: $rsp 48 +
STACK CFI INIT 43864 1c .cfa: $rsp .ra: .cfa 8 - ^
STACK CFI 43864 .cfa: $rsp 48 +
STACK CFI INIT 438a0 3a .cfa: $rsp .ra: .cfa 8 - ^
STACK CFI 438a0 .cfa: $rsp 80 +
STACK CFI INIT 438e8 25 .cfa: $rsp .ra: .cfa 8 - ^
STACK CFI 438e8 .cfa: $rsp 48 +
STACK CFI INIT 43918 2b9 .cfa: $rsp .ra: .cfa 8 - ^
STACK CFI 43918 .cfa: $rsp 128 +
STACK CFI INIT 43c80 87 .cfa: $rsp .ra: .cfa 8 - ^
STACK CFI 43c80 .cfa: $rsp 48 +
STACK CFI INIT 43d28 75 .cfa: $rsp .ra: .cfa 8 - ^
STACK CFI 43d28 .cfa: $rsp 80 +
STACK CFI INIT 43ef8 65 .cfa: $rsp .ra: .cfa 8 - ^
STACK CFI 43ef8 .cfa: $rsp 80 +
STACK CFI INIT 440b8 25 .cfa: $rsp .ra: .cfa 8 - ^
STACK CFI 440b8 .cfa: $rsp 48 +
STACK CFI INIT 44140 36 .cfa: $rsp .ra: .cfa 8 - ^
STACK CFI 44140 .cfa: $rsp 48 +
STACK CFI INIT 44184 36 .cfa: $rsp .ra: .cfa 8 - ^
STACK CFI 44184 .cfa: $rsp 48 +
STACK CFI INIT 441c8 6c .cfa: $rsp .ra: .cfa 8 - ^
STACK CFI 441c8 .cfa: $rsp 48 +
STACK CFI INIT 44250 65 .cfa: $rsp .ra: .cfa 8 - ^
STACK CFI 44250 .cfa: $rsp 48 +
STACK CFI INIT 44404 96 .cfa: $rsp .ra: .cfa 8 - ^
STACK CFI 44404 .cfa: $rsp 16 +
STACK CFI INIT 444c8 21 .cfa: $rsp .ra: .cfa 8 - ^
STACK CFI 444c8 .cfa: $rsp 48 +
STACK CFI INIT 44500 21 .cfa: $rsp .ra: .cfa 8 - ^
STACK CFI 44500 .cfa: $rsp 48 +
STACK CFI INIT 4452c 11 .cfa: $rsp .ra: .cfa 8 - ^
STACK CFI 4452c .cfa: $rsp 48 +
STACK CFI INIT 44584 101 .cfa: $rsp .ra: .cfa 8 - ^
STACK CFI 44584 .cfa: $rsp 80 +
STACK CFI INIT 446c8 9f .cfa: $rsp .ra: .cfa 8 - ^
STACK CFI 446c8 .cfa: $rsp 48 +
STACK CFI INIT 44790 320 .cfa: $rsp .ra: .cfa 8 - ^
STACK CFI 44790 .cfa: $rsp 112 +
STACK CFI INIT 44b78 322 .cfa: $rsp .ra: .cfa 8 - ^
STACK CFI 44b78 .cfa: $rsp 96 +
STACK CFI INIT 44f64 e5 .cfa: $rsp .ra: .cfa 8 - ^
STACK CFI 44f64 .cfa: $rsp 64 +
STACK CFI INIT 45084 ef .cfa: $rsp .ra: .cfa 8 - ^
STACK CFI 45084 .cfa: $rsp 64 +
STACK CFI INIT 451b0 25 .cfa: $rsp .ra: .cfa 8 - ^
STACK CFI 451b0 .cfa: $rsp 48 +
STACK CFI INIT 451e0 25 .cfa: $rsp .ra: .cfa 8 - ^
STACK CFI 451e0 .cfa: $rsp 48 +
STACK CFI INIT 45210 81 .cfa: $rsp .ra: .cfa 8 - ^
STACK CFI 45210 .cfa: $rsp 48 +
STACK CFI INIT 452b4 91 .cfa: $rsp .ra: .cfa 8 - ^
STACK CFI 452b4 .cfa: $rsp 48 +
STACK CFI INIT 454d4 95 .cfa: $rsp .ra: .cfa 8 - ^
STACK CFI 454d4 .cfa: $rsp 48 +
STACK CFI INIT 455d0 79 .cfa: $rsp .ra: .cfa 8 - ^
STACK CFI 455d0 .cfa: $rsp 48 +
STACK CFI INIT 45668 26 .cfa: $rsp .ra: .cfa 8 - ^
STACK CFI 45668 .cfa: $rsp 48 +
STACK CFI INIT 45718 53 .cfa: $rsp .ra: .cfa 8 - ^
STACK CFI 45718 .cfa: $rsp 48 +
STACK CFI INIT 457b4 4d .cfa: $rsp .ra: .cfa 8 - ^
STACK CFI 457b4 .cfa: $rsp 48 +
STACK CFI INIT 45d68 119 .cfa: $rsp .ra: .cfa 8 - ^
STACK CFI 45d68 .cfa: $rsp 64 +
STACK CFI INIT 45ec8 1d6 .cfa: $rsp .ra: .cfa 8 - ^
STACK CFI 45ec8 .cfa: $rsp 80 +
STACK CFI INIT 46114 fe .cfa: $rsp .ra: .cfa 8 - ^
STACK CFI 46114 .cfa: $rsp 48 +
STACK CFI INIT 46254 137 .cfa: $rsp .ra: .cfa 8 - ^
STACK CFI 46254 .cfa: $rsp 64 +
STACK CFI INIT 463d8 73 .cfa: $rsp .ra: .cfa 8 - ^
STACK CFI 463d8 .cfa: $rsp 48 +
STACK CFI INIT 46474 4e .cfa: $rsp .ra: .cfa 8 - ^
STACK CFI 46474 .cfa: $rsp 48 +
STACK CFI INIT 464d8 4e .cfa: $rsp .ra: .cfa 8 - ^
STACK CFI 464d8 .cfa: $rsp 48 +
STACK CFI INIT 4653c 4e .cfa: $rsp .ra: .cfa 8 - ^
STACK CFI 4653c .cfa: $rsp 48 +
STACK CFI INIT 465a0 4e .cfa: $rsp .ra: .cfa 8 - ^
STACK CFI 465a0 .cfa: $rsp 48 +
STACK CFI INIT 46604 3a .cfa: $rsp .ra: .cfa 8 - ^
STACK CFI 46604 .cfa: $rsp 48 +
STACK CFI INIT 4664c dc .cfa: $rsp .ra: .cfa 8 - ^
STACK CFI 4664c .cfa: $rsp 96 +
STACK CFI INIT 46760 95 .cfa: $rsp .ra: .cfa 8 - ^
STACK CFI 46760 .cfa: $rsp 96 +
STACK CFI INIT 4681c 48 .cfa: $rsp .ra: .cfa 8 - ^
STACK CFI 4681c .cfa: $rsp 48 +
STACK CFI INIT 46878 46 .cfa: $rsp .ra: .cfa 8 - ^
STACK CFI 46878 .cfa: $rsp 48 +
STACK CFI INIT 468d0 46 .cfa: $rsp .ra: .cfa 8 - ^
STACK CFI 468d0 .cfa: $rsp 48 +
STACK CFI INIT 46928 51 .cfa: $rsp .ra: .cfa 8 - ^
STACK CFI 46928 .cfa: $rsp 48 +
STACK CFI INIT 46990 b6 .cfa: $rsp .ra: .cfa 8 - ^
STACK CFI 46990 .cfa: $rsp 80 +
STACK CFI INIT 46a74 39 .cfa: $rsp .ra: .cfa 8 - ^
STACK CFI 46a74 .cfa: $rsp 48 +
STACK CFI INIT 46abc 82 .cfa: $rsp .ra: .cfa 8 - ^
STACK CFI 46abc .cfa: $rsp 64 +
STACK CFI INIT 46b60 48 .cfa: $rsp .ra: .cfa 8 - ^
STACK CFI 46b60 .cfa: $rsp 48 +
STACK CFI INIT 46bbc ab .cfa: $rsp .ra: .cfa 8 - ^
STACK CFI 46bbc .cfa: $rsp 80 +
STACK CFI INIT 46c94 61 .cfa: $rsp .ra: .cfa 8 - ^
STACK CFI 46c94 .cfa: $rsp 48 +
STACK CFI INIT 46d10 51 .cfa: $rsp .ra: .cfa 8 - ^
STACK CFI 46d10 .cfa: $rsp 48 +
STACK CFI INIT 46d78 61 .cfa: $rsp .ra: .cfa 8 - ^
STACK CFI 46d78 .cfa: $rsp 48 +
STACK CFI INIT 46df4 56 .cfa: $rsp .ra: .cfa 8 - ^
STACK CFI 46df4 .cfa: $rsp 48 +
STACK CFI INIT 46e60 70 .cfa: $rsp .ra: .cfa 8 - ^
STACK CFI 46e60 .cfa: $rsp 64 +
STACK CFI INIT 46eec dc .cfa: $rsp .ra: .cfa 8 - ^
STACK CFI 46eec .cfa: $rsp 96 +
STACK CFI INIT 47000 50 .cfa: $rsp .ra: .cfa 8 - ^
STACK CFI 47000 .cfa: $rsp 48 +
STACK CFI INIT 47064 5f .cfa: $rsp .ra: .cfa 8 - ^
STACK CFI 47064 .cfa: $rsp 48 +
STACK CFI INIT 470dc 71 .cfa: $rsp .ra: .cfa 8 - ^
STACK CFI 470dc .cfa: $rsp 64 +
STACK CFI INIT 4716c 71 .cfa: $rsp .ra: .cfa 8 - ^
STACK CFI 4716c .cfa: $rsp 64 +
STACK CFI INIT 471fc 40 .cfa: $rsp .ra: .cfa 8 - ^
STACK CFI 471fc .cfa: $rsp 48 +
STACK CFI INIT 4724c 33 .cfa: $rsp .ra: .cfa 8 - ^
STACK CFI 4724c .cfa: $rsp 48 +
STACK CFI INIT 4728c 4f .cfa: $rsp .ra: .cfa 8 - ^
STACK CFI 4728c .cfa: $rsp 48 +
STACK CFI INIT 472f0 42 .cfa: $rsp .ra: .cfa 8 - ^
STACK CFI 472f0 .cfa: $rsp 48 +
STACK CFI INIT 47344 6d .cfa: $rsp .ra: .cfa 8 - ^
STACK CFI 47344 .cfa: $rsp 48 +
STACK CFI INIT 473cc 2e .cfa: $rsp .ra: .cfa 8 - ^
STACK CFI 473cc .cfa: $rsp 48 +
STACK CFI INIT 47408 2e .cfa: $rsp .ra: .cfa 8 - ^
STACK CFI 47408 .cfa: $rsp 48 +
STACK CFI INIT 47444 15a .cfa: $rsp .ra: .cfa 8 - ^
STACK CFI 47444 .cfa: $rsp 48 +
STACK CFI INIT 475f4 78 .cfa: $rsp .ra: .cfa 8 - ^
STACK CFI 475f4 .cfa: $rsp 48 +
STACK CFI INIT 4768c 31 .cfa: $rsp .ra: .cfa 8 - ^
STACK CFI 4768c .cfa: $rsp 8 +
STACK CFI INIT 476cc c6 .cfa: $rsp .ra: .cfa 8 - ^
STACK CFI 476cc .cfa: $rsp 96 +
STACK CFI INIT 477c4 41 .cfa: $rsp .ra: .cfa 8 - ^
STACK CFI 477c4 .cfa: $rsp 48 +
STACK CFI INIT 47824 1c .cfa: $rsp .ra: .cfa 8 - ^
STACK CFI 47824 .cfa: $rsp 48 +
STACK CFI INIT 47888 ed .cfa: $rsp .ra: .cfa 8 - ^
STACK CFI 47888 .cfa: $rsp 160 +
STACK CFI INIT 479b0 10c .cfa: $rsp .ra: .cfa 8 - ^
STACK CFI 479b0 .cfa: $rsp 48 +
STACK CFI INIT 47b00 3b .cfa: $rsp .ra: .cfa 8 - ^
STACK CFI 47b00 .cfa: $rsp 48 +
STACK CFI INIT 47b4c 40 .cfa: $rsp .ra: .cfa 8 - ^
STACK CFI 47b4c .cfa: $rsp 48 +
STACK CFI INIT 47b9c 80 .cfa: $rsp .ra: .cfa 8 - ^
STACK CFI 47b9c .cfa: $rsp 48 +
STACK CFI INIT 47c3c 3c .cfa: $rsp .ra: .cfa 8 - ^
STACK CFI 47c3c .cfa: $rsp 48 +
STACK CFI INIT 47ce8 27 .cfa: $rsp .ra: .cfa 8 - ^
STACK CFI 47ce8 .cfa: $rsp 8 +
STACK CFI INIT 47d28 2f .cfa: $rsp .ra: .cfa 8 - ^
STACK CFI 47d28 .cfa: $rsp 48 +
STACK CFI INIT 47d64 34 .cfa: $rsp .ra: .cfa 8 - ^
STACK CFI 47d64 .cfa: $rsp 48 +
STACK CFI INIT 47da8 59 .cfa: $rsp .ra: .cfa 8 - ^
STACK CFI 47da8 .cfa: $rsp 48 +
STACK CFI INIT 47e24 45 .cfa: $rsp .ra: .cfa 8 - ^
STACK CFI 47e24 .cfa: $rsp 48 +
STACK CFI INIT 47e7c 26 .cfa: $rsp .ra: .cfa 8 - ^
STACK CFI 47e7c .cfa: $rsp 48 +
STACK CFI INIT 47f34 92 .cfa: $rsp .ra: .cfa 8 - ^
STACK CFI 47f34 .cfa: $rsp 48 +
STACK CFI INIT 48038 27 .cfa: $rsp .ra: .cfa 8 - ^
STACK CFI 48038 .cfa: $rsp 8 +
STACK CFI INIT 480c4 27 .cfa: $rsp .ra: .cfa 8 - ^
STACK CFI 480c4 .cfa: $rsp 48 +
STACK CFI INIT 480f8 2e .cfa: $rsp .ra: .cfa 8 - ^
STACK CFI 480f8 .cfa: $rsp 48 +
STACK CFI INIT 48158 12 .cfa: $rsp .ra: .cfa 8 - ^
STACK CFI 48158 .cfa: $rsp 48 +
STACK CFI INIT 48170 12 .cfa: $rsp .ra: .cfa 8 - ^
STACK CFI 48170 .cfa: $rsp 48 +
STACK CFI INIT 48188 26c .cfa: $rsp .ra: .cfa 8 - ^
STACK CFI 48188 .cfa: $rsp 112 +
STACK CFI INIT 48490 1da .cfa: $rsp .ra: .cfa 8 - ^
STACK CFI 48490 .cfa: $rsp 64 +
STACK CFI INIT 48724 27 .cfa: $rsp .ra: .cfa 8 - ^
STACK CFI 48724 .cfa: $rsp 8 +
STACK CFI INIT 487f4 9a .cfa: $rsp .ra: .cfa 8 - ^
STACK CFI 487f4 .cfa: $rsp 48 +
STACK CFI INIT 488b4 e0 .cfa: $rsp .ra: .cfa 8 - ^
STACK CFI 488b4 .cfa: $rsp 128 +
STACK CFI INIT 489cc 40 .cfa: $rsp .ra: .cfa 8 - ^
STACK CFI 489cc .cfa: $rsp 48 +
STACK CFI INIT 48a1c 26 .cfa: $rsp .ra: .cfa 8 - ^
STACK CFI 48a1c .cfa: $rsp 48 +
STACK CFI INIT 48a4c 28 .cfa: $rsp .ra: .cfa 8 - ^
STACK CFI 48a4c .cfa: $rsp 48 +
STACK CFI INIT 48a80 28 .cfa: $rsp .ra: .cfa 8 - ^
STACK CFI 48a80 .cfa: $rsp 48 +
STACK CFI INIT 48b70 ae .cfa: $rsp .ra: .cfa 8 - ^
STACK CFI 48b70 .cfa: $rsp 112 +
STACK CFI INIT 48c58 78 .cfa: $rsp .ra: .cfa 8 - ^
STACK CFI 48c58 .cfa: $rsp 48 +
STACK CFI INIT 48d14 5d .cfa: $rsp .ra: .cfa 8 - ^
STACK CFI 48d14 .cfa: $rsp 80 +
STACK CFI INIT 48e78 7a .cfa: $rsp .ra: .cfa 8 - ^
STACK CFI 48e78 .cfa: $rsp 48 +
STACK CFI INIT 48f10 4b .cfa: $rsp .ra: .cfa 8 - ^
STACK CFI 48f10 .cfa: $rsp 48 +
STACK CFI INIT 48f78 66 .cfa: $rsp .ra: .cfa 8 - ^
STACK CFI 48f78 .cfa: $rsp 64 +
STACK CFI INIT 48ff8 30 .cfa: $rsp .ra: .cfa 8 - ^
STACK CFI 48ff8 .cfa: $rsp 48 +
STACK CFI INIT 49048 1b .cfa: $rsp .ra: .cfa 8 - ^
STACK CFI 49048 .cfa: $rsp 48 +
STACK CFI INIT 49078 1b .cfa: $rsp .ra: .cfa 8 - ^
STACK CFI 49078 .cfa: $rsp 48 +
STACK CFI INIT 4909c 11f .cfa: $rsp .ra: .cfa 8 - ^
STACK CFI 4909c .cfa: $rsp 48 +
STACK CFI INIT 4921c 5b .cfa: $rsp .ra: .cfa 8 - ^
STACK CFI 4921c .cfa: $rsp 48 +
STACK CFI INIT 49290 47 .cfa: $rsp .ra: .cfa 8 - ^
STACK CFI 49290 .cfa: $rsp 48 +
STACK CFI INIT 4933c cf .cfa: $rsp .ra: .cfa 8 - ^
STACK CFI 4933c .cfa: $rsp 48 +
STACK CFI INIT 49440 39 .cfa: $rsp .ra: .cfa 8 - ^
STACK CFI 49440 .cfa: $rsp 48 +
STACK CFI INIT 49488 5e .cfa: $rsp .ra: .cfa 8 - ^
STACK CFI 49488 .cfa: $rsp 48 +
STACK CFI INIT 49530 2e .cfa: $rsp .ra: .cfa 8 - ^
STACK CFI 49530 .cfa: $rsp 64 +
STACK CFI INIT 4956c 2e .cfa: $rsp .ra: .cfa 8 - ^
STACK CFI 4956c .cfa: $rsp 64 +
STACK CFI INIT 495a8 2e .cfa: $rsp .ra: .cfa 8 - ^
STACK CFI 495a8 .cfa: $rsp 64 +
STACK CFI INIT 495e4 2e .cfa: $rsp .ra: .cfa 8 - ^
STACK CFI 495e4 .cfa: $rsp 64 +
STACK CFI INIT 49620 2e .cfa: $rsp .ra: .cfa 8 - ^
STACK CFI 49620 .cfa: $rsp 64 +
STACK CFI INIT 4965c 2e .cfa: $rsp .ra: .cfa 8 - ^
STACK CFI 4965c .cfa: $rsp 64 +
STACK CFI INIT 49698 2e .cfa: $rsp .ra: .cfa 8 - ^
STACK CFI 49698 .cfa: $rsp 64 +
STACK CFI INIT 496d4 2e .cfa: $rsp .ra: .cfa 8 - ^
STACK CFI 496d4 .cfa: $rsp 64 +
STACK CFI INIT 49710 2a .cfa: $rsp .ra: .cfa 8 - ^
STACK CFI 49710 .cfa: $rsp 64 +
STACK CFI INIT 49744 2e .cfa: $rsp .ra: .cfa 8 - ^
STACK CFI 49744 .cfa: $rsp 64 +
STACK CFI INIT 49780 2e .cfa: $rsp .ra: .cfa 8 - ^
STACK CFI 49780 .cfa: $rsp 64 +
STACK CFI INIT 497bc 2e .cfa: $rsp .ra: .cfa 8 - ^
STACK CFI 497bc .cfa: $rsp 64 +
STACK CFI INIT 497f8 2e .cfa: $rsp .ra: .cfa 8 - ^
STACK CFI 497f8 .cfa: $rsp 64 +
STACK CFI INIT 49834 2a .cfa: $rsp .ra: .cfa 8 - ^
STACK CFI 49834 .cfa: $rsp 64 +
STACK CFI INIT 49868 2e .cfa: $rsp .ra: .cfa 8 - ^
STACK CFI 49868 .cfa: $rsp 64 +
STACK CFI INIT 498a4 2e .cfa: $rsp .ra: .cfa 8 - ^
STACK CFI 498a4 .cfa: $rsp 64 +
STACK CFI INIT 498e0 2e .cfa: $rsp .ra: .cfa 8 - ^
STACK CFI 498e0 .cfa: $rsp 64 +
STACK CFI INIT 4991c 2e .cfa: $rsp .ra: .cfa 8 - ^
STACK CFI 4991c .cfa: $rsp 64 +
STACK CFI INIT 49958 2a .cfa: $rsp .ra: .cfa 8 - ^
STACK CFI 49958 .cfa: $rsp 64 +
STACK CFI INIT 4998c 2e .cfa: $rsp .ra: .cfa 8 - ^
STACK CFI 4998c .cfa: $rsp 64 +
STACK CFI INIT 499c8 2e .cfa: $rsp .ra: .cfa 8 - ^
STACK CFI 499c8 .cfa: $rsp 64 +
STACK CFI INIT 49a04 2e .cfa: $rsp .ra: .cfa 8 - ^
STACK CFI 49a04 .cfa: $rsp 64 +
STACK CFI INIT 49a40 2e .cfa: $rsp .ra: .cfa 8 - ^
STACK CFI 49a40 .cfa: $rsp 64 +
STACK CFI INIT 49a7c 2a .cfa: $rsp .ra: .cfa 8 - ^
STACK CFI 49a7c .cfa: $rsp 64 +
STACK CFI INIT 49ab0 2e .cfa: $rsp .ra: .cfa 8 - ^
STACK CFI 49ab0 .cfa: $rsp 64 +
STACK CFI INIT 49aec 2e .cfa: $rsp .ra: .cfa 8 - ^
STACK CFI 49aec .cfa: $rsp 64 +
STACK CFI INIT 49b28 2e .cfa: $rsp .ra: .cfa 8 - ^
STACK CFI 49b28 .cfa: $rsp 64 +
STACK CFI INIT 49b64 2e .cfa: $rsp .ra: .cfa 8 - ^
STACK CFI 49b64 .cfa: $rsp 64 +
STACK CFI INIT 49ba0 2a .cfa: $rsp .ra: .cfa 8 - ^
STACK CFI 49ba0 .cfa: $rsp 64 +
STACK CFI INIT 49bd4 2a .cfa: $rsp .ra: .cfa 8 - ^
STACK CFI 49bd4 .cfa: $rsp 64 +
STACK CFI INIT 49c08 2a .cfa: $rsp .ra: .cfa 8 - ^
STACK CFI 49c08 .cfa: $rsp 64 +
STACK CFI INIT 49c3c 2a .cfa: $rsp .ra: .cfa 8 - ^
STACK CFI 49c3c .cfa: $rsp 64 +
STACK CFI INIT 49c70 2a .cfa: $rsp .ra: .cfa 8 - ^
STACK CFI 49c70 .cfa: $rsp 64 +
STACK CFI INIT 49ca4 2a .cfa: $rsp .ra: .cfa 8 - ^
STACK CFI 49ca4 .cfa: $rsp 64 +
STACK CFI INIT 49cd8 2a .cfa: $rsp .ra: .cfa 8 - ^
STACK CFI 49cd8 .cfa: $rsp 64 +
STACK CFI INIT 49d0c 2a .cfa: $rsp .ra: .cfa 8 - ^
STACK CFI 49d0c .cfa: $rsp 64 +
STACK CFI INIT 49d40 2a .cfa: $rsp .ra: .cfa 8 - ^
STACK CFI 49d40 .cfa: $rsp 64 +
STACK CFI INIT 49d74 2a .cfa: $rsp .ra: .cfa 8 - ^
STACK CFI 49d74 .cfa: $rsp 64 +
STACK CFI INIT 49da8 2a .cfa: $rsp .ra: .cfa 8 - ^
STACK CFI 49da8 .cfa: $rsp 64 +
STACK CFI INIT 49ddc 2a .cfa: $rsp .ra: .cfa 8 - ^
STACK CFI 49ddc .cfa: $rsp 64 +
STACK CFI INIT 49e10 17e .cfa: $rsp .ra: .cfa 8 - ^
STACK CFI 49e10 .cfa: $rsp 96 +
STACK CFI INIT 49ffc 72 .cfa: $rsp .ra: .cfa 8 - ^
STACK CFI 49ffc .cfa: $rsp 96 +
STACK CFI INIT 4a08c 19c .cfa: $rsp .ra: .cfa 8 - ^
STACK CFI 4a08c .cfa: $rsp 128 +
STACK CFI INIT 4a290 4d .cfa: $rsp .ra: .cfa 8 - ^
STACK CFI 4a290 .cfa: $rsp 64 +
STACK CFI INIT 4a2f0 14 .cfa: $rsp .ra: .cfa 8 - ^
STACK CFI 4a2f0 .cfa: $rsp 64 +
STACK CFI INIT 4b39c 31 .cfa: $rsp .ra: .cfa 8 - ^
STACK CFI 4b39c .cfa: $rsp 48 +
STACK CFI INIT 4b3dc 31 .cfa: $rsp .ra: .cfa 8 - ^
STACK CFI 4b3dc .cfa: $rsp 48 +
STACK CFI INIT 4b49c 36d .cfa: $rsp .ra: .cfa 8 - ^
STACK CFI 4b49c .cfa: $rsp 160 +
STACK CFI INIT 4b8e4 db .cfa: $rsp .ra: .cfa 8 - ^
STACK CFI 4b8e4 .cfa: $rsp 96 +
STACK CFI INIT 4b9f8 1d2 .cfa: $rsp .ra: .cfa 8 - ^
STACK CFI 4b9f8 .cfa: $rsp 96 +
STACK CFI INIT 4bc40 a6 .cfa: $rsp .ra: .cfa 8 - ^
STACK CFI 4bc40 .cfa: $rsp 80 +
STACK CFI INIT 4bd10 143 .cfa: $rsp .ra: .cfa 8 - ^
STACK CFI 4bd10 .cfa: $rsp 80 +
STACK CFI INIT 4bea4 132 .cfa: $rsp .ra: .cfa 8 - ^
STACK CFI 4bea4 .cfa: $rsp 96 +
STACK CFI INIT 4c024 a5 .cfa: $rsp .ra: .cfa 8 - ^
STACK CFI 4c024 .cfa: $rsp 64 +
STACK CFI INIT 4c0f4 30 .cfa: $rsp .ra: .cfa 8 - ^
STACK CFI 4c0f4 .cfa: $rsp 48 +
STACK CFI INIT 4c138 304 .cfa: $rsp .ra: .cfa 8 - ^
STACK CFI 4c138 .cfa: $rsp 112 +
STACK CFI INIT 4c524 17c .cfa: $rsp .ra: .cfa 8 - ^
STACK CFI 4c524 .cfa: $rsp 96 +
STACK CFI INIT 4c700 23 .cfa: $rsp .ra: .cfa 8 - ^
STACK CFI 4c700 .cfa: $rsp 48 +
STACK CFI INIT 4c734 5e .cfa: $rsp .ra: .cfa 8 - ^
STACK CFI 4c734 .cfa: $rsp 48 +
STACK CFI INIT 4c7c4 26 .cfa: $rsp .ra: .cfa 8 - ^
STACK CFI 4c7c4 .cfa: $rsp 48 +
STACK CFI INIT 4c810 21 .cfa: $rsp .ra: .cfa 8 - ^
STACK CFI 4c810 .cfa: $rsp 48 +
STACK CFI INIT 4c858 124 .cfa: $rsp .ra: .cfa 8 - ^
STACK CFI 4c858 .cfa: $rsp 64 +
STACK CFI INIT 4ca44 3e .cfa: $rsp .ra: .cfa 8 - ^
STACK CFI 4ca44 .cfa: $rsp 48 +
STACK CFI INIT 4ca94 13a .cfa: $rsp .ra: .cfa 8 - ^
STACK CFI 4ca94 .cfa: $rsp 48 +
STACK CFI INIT 4cc1c 6e .cfa: $rsp .ra: .cfa 8 - ^
STACK CFI 4cc1c .cfa: $rsp 64 +
STACK CFI INIT 4cca8 29 .cfa: $rsp .ra: .cfa 8 - ^
STACK CFI 4cca8 .cfa: $rsp 48 +
STACK CFI INIT 4ccdc 41 .cfa: $rsp .ra: .cfa 8 - ^
STACK CFI 4ccdc .cfa: $rsp 48 +
STACK CFI INIT 4cd30 26 .cfa: $rsp .ra: .cfa 8 - ^
STACK CFI 4cd30 .cfa: $rsp 48 +
STACK CFI INIT 4cd60 26 .cfa: $rsp .ra: .cfa 8 - ^
STACK CFI 4cd60 .cfa: $rsp 48 +
STACK CFI INIT 4cd90 26 .cfa: $rsp .ra: .cfa 8 - ^
STACK CFI 4cd90 .cfa: $rsp 48 +
STACK CFI INIT 4cdc0 26 .cfa: $rsp .ra: .cfa 8 - ^
STACK CFI 4cdc0 .cfa: $rsp 48 +
STACK CFI INIT 4ce0c 4e .cfa: $rsp .ra: .cfa 8 - ^
STACK CFI 4ce0c .cfa: $rsp 48 +
STACK CFI INIT 4cf50 59 .cfa: $rsp .ra: .cfa 8 - ^
STACK CFI 4cf50 .cfa: $rsp 64 +
STACK CFI INIT 4cfc0 1b .cfa: $rsp .ra: .cfa 8 - ^
STACK CFI 4cfc0 .cfa: $rsp 48 +
STACK CFI INIT 4cfe4 1b .cfa: $rsp .ra: .cfa 8 - ^
STACK CFI 4cfe4 .cfa: $rsp 48 +
STACK CFI INIT 4d008 48 .cfa: $rsp .ra: .cfa 8 - ^
STACK CFI 4d008 .cfa: $rsp 64 +
STACK CFI INIT 4d094 8e .cfa: $rsp .ra: .cfa 8 - ^
STACK CFI 4d094 .cfa: $rsp 96 +
STACK CFI INIT 4d148 26 .cfa: $rsp .ra: .cfa 8 - ^
STACK CFI 4d148 .cfa: $rsp 48 +
STACK CFI INIT 4d180 2c .cfa: $rsp .ra: .cfa 8 - ^
STACK CFI 4d180 .cfa: $rsp 48 +
STACK CFI INIT 4d218 11d .cfa: $rsp .ra: .cfa 8 - ^
STACK CFI 4d218 .cfa: $rsp 48 +
STACK CFI INIT 4d37c 77 .cfa: $rsp .ra: .cfa 8 - ^
STACK CFI 4d37c .cfa: $rsp 64 +
STACK CFI INIT 4d410 3f .cfa: $rsp .ra: .cfa 8 - ^
STACK CFI 4d410 .cfa: $rsp 64 +
STACK CFI INIT 4d498 1b .cfa: $rsp .ra: .cfa 8 - ^
STACK CFI 4d498 .cfa: $rsp 48 +
STACK CFI INIT 4d4bc 1b .cfa: $rsp .ra: .cfa 8 - ^
STACK CFI 4d4bc .cfa: $rsp 48 +
STACK CFI INIT 4d4e0 82 .cfa: $rsp .ra: .cfa 8 - ^
STACK CFI 4d4e0 .cfa: $rsp 64 +
STACK CFI INIT 4d594 2e .cfa: $rsp .ra: .cfa 8 - ^
STACK CFI 4d594 .cfa: $rsp 48 +
STACK CFI INIT 4d5f4 a2 .cfa: $rsp .ra: .cfa 8 - ^
STACK CFI 4d5f4 .cfa: $rsp 64 +
STACK CFI INIT 4d6c0 166 .cfa: $rsp .ra: .cfa 8 - ^
STACK CFI 4d6c0 .cfa: $rsp 80 +
STACK CFI INIT 4d880 69 .cfa: $rsp .ra: .cfa 8 - ^
STACK CFI 4d880 .cfa: $rsp 48 +
STACK CFI INIT 4d904 be .cfa: $rsp .ra: .cfa 8 - ^
STACK CFI 4d904 .cfa: $rsp 48 +
STACK CFI INIT 4d9f4 76 .cfa: $rsp .ra: .cfa 8 - ^
STACK CFI 4d9f4 .cfa: $rsp 352 +
STACK CFI INIT 4da88 47f .cfa: $rsp .ra: .cfa 8 - ^
STACK CFI 4da88 .cfa: $rsp 688 +
STACK CFI INIT 4e028 a2 .cfa: $rsp .ra: .cfa 8 - ^
STACK CFI 4e028 .cfa: $rsp 48 +
STACK CFI INIT 4e0f4 bb .cfa: $rsp .ra: .cfa 8 - ^
STACK CFI 4e0f4 .cfa: $rsp 80 +
STACK CFI INIT 4e1e0 148 .cfa: $rsp .ra: .cfa 8 - ^
STACK CFI 4e1e0 .cfa: $rsp 64 +
STACK CFI INIT 4e37c 65 .cfa: $rsp .ra: .cfa 8 - ^
STACK CFI 4e37c .cfa: $rsp 96 +
STACK CFI INIT 4e3fc a1 .cfa: $rsp .ra: .cfa 8 - ^
STACK CFI 4e3fc .cfa: $rsp 112 +
STACK CFI INIT 4e4c8 1ea .cfa: $rsp .ra: .cfa 8 - ^
STACK CFI 4e4c8 .cfa: $rsp 96 +
STACK CFI INIT 4e72c 296 .cfa: $rsp .ra: .cfa 8 - ^
STACK CFI 4e72c .cfa: $rsp 592 +
STACK CFI INIT 4ea68 352 .cfa: $rsp .ra: .cfa 8 - ^
STACK CFI 4ea68 .cfa: $rsp 880 +
STACK CFI INIT 4eebc 34 .cfa: $rsp .ra: .cfa 8 - ^
STACK CFI 4eebc .cfa: $rsp 48 +
STACK CFI INIT 4ef00 1ff .cfa: $rsp .ra: .cfa 8 - ^
STACK CFI 4ef00 .cfa: $rsp 208 +
STACK CFI INIT 4f180 47 .cfa: $rsp .ra: .cfa 8 - ^
STACK CFI 4f180 .cfa: $rsp 64 +
STACK CFI INIT 4f1d8 89 .cfa: $rsp .ra: .cfa 8 - ^
STACK CFI 4f1d8 .cfa: $rsp 64 +
STACK CFI INIT 4f284 10a .cfa: $rsp .ra: .cfa 8 - ^
STACK CFI 4f284 .cfa: $rsp 64 +
STACK CFI INIT 4f3d0 8f .cfa: $rsp .ra: .cfa 8 - ^
STACK CFI 4f3d0 .cfa: $rsp 64 +
STACK CFI INIT 4f484 72 .cfa: $rsp .ra: .cfa 8 - ^
STACK CFI 4f484 .cfa: $rsp 48 +
STACK CFI INIT 4f514 6f .cfa: $rsp .ra: .cfa 8 - ^
STACK CFI 4f514 .cfa: $rsp 48 +
STACK CFI INIT 4f5d4 2f .cfa: $rsp .ra: .cfa 8 - ^
STACK CFI 4f5d4 .cfa: $rsp 48 +
STACK CFI INIT 4f624 6f .cfa: $rsp .ra: .cfa 8 - ^
STACK CFI 4f624 .cfa: $rsp 48 +
STACK CFI INIT 4f6ec 108 .cfa: $rsp .ra: .cfa 8 - ^
STACK CFI 4f6ec .cfa: $rsp 144 +
STACK CFI INIT 4f908 176 .cfa: $rsp .ra: .cfa 8 - ^
STACK CFI 4f908 .cfa: $rsp 48 +
STACK CFI INIT 4fb0c 36 .cfa: $rsp .ra: .cfa 8 - ^
STACK CFI 4fb0c .cfa: $rsp 48 +
STACK CFI INIT 4fb80 a8 .cfa: $rsp .ra: .cfa 8 - ^
STACK CFI 4fb80 .cfa: $rsp 48 +
STACK CFI INIT 4fc54 6c .cfa: $rsp .ra: .cfa 8 - ^
STACK CFI 4fc54 .cfa: $rsp 48 +
STACK CFI INIT 4fcdc 65 .cfa: $rsp .ra: .cfa 8 - ^
STACK CFI 4fcdc .cfa: $rsp 48 +
STACK CFI INIT 4fd68 2b .cfa: $rsp .ra: .cfa 8 - ^
STACK CFI 4fd68 .cfa: $rsp 48 +
STACK CFI INIT 4fda0 17 .cfa: $rsp .ra: .cfa 8 - ^
STACK CFI 4fda0 .cfa: $rsp 64 +
STACK CFI INIT 4fdb7 a4 .cfa: $rsp .ra: .cfa 8 - ^
STACK CFI 4fdb7 .cfa: $rsp 64 +
STACK CFI INIT 4fe5b 1 .cfa: $rsp .ra: .cfa 8 - ^
STACK CFI 4fe5b .cfa: $rsp 64 +
STACK CFI INIT 4fed0 5b .cfa: $rsp .ra: .cfa 8 - ^
STACK CFI 4fed0 .cfa: $rsp 1136 +
STACK CFI INIT 4ff2b 334 .cfa: $rsp .ra: .cfa 8 - ^
STACK CFI 4ff2b .cfa: $rsp 1136 +
STACK CFI INIT 5025f 1e .cfa: $rsp .ra: .cfa 8 - ^
STACK CFI 5025f .cfa: $rsp 1136 +
STACK CFI INIT 50368 db .cfa: $rsp .ra: .cfa 8 - ^
STACK CFI 50368 .cfa: $rsp 48 +
STACK CFI INIT 5047c e4 .cfa: $rsp .ra: .cfa 8 - ^
STACK CFI 5047c .cfa: $rsp 48 +
STACK CFI INIT 505e0 c6 .cfa: $rsp .ra: .cfa 8 - ^
STACK CFI 505e0 .cfa: $rsp 48 +
STACK CFI INIT 506d8 d3 .cfa: $rsp .ra: .cfa 8 - ^
STACK CFI 506d8 .cfa: $rsp 48 +
STACK CFI INIT 507e0 9e .cfa: $rsp .ra: .cfa 8 - ^
STACK CFI 507e0 .cfa: $rsp 96 +
STACK CFI INIT 508b0 3e0 .cfa: $rsp .ra: .cfa 8 - ^
STACK CFI 508b0 .cfa: $rsp 64 +
STACK CFI INIT 50d94 94 .cfa: $rsp .ra: .cfa 8 - ^
STACK CFI 50d94 .cfa: $rsp 80 +
STACK CFI INIT 50e60 22 .cfa: $rsp .ra: .cfa 8 - ^
STACK CFI 50e60 .cfa: $rsp 48 +
STACK CFI INIT 50eb8 18d .cfa: $rsp .ra: .cfa 8 - ^
STACK CFI 50eb8 .cfa: $rsp 144 +
STACK CFI INIT 510a8 1f .cfa: $rsp .ra: .cfa 8 - ^
STACK CFI 510a8 .cfa: $rsp 48 +
STACK CFI INIT 510dc 315 .cfa: $rsp .ra: .cfa 8 - ^
STACK CFI 510dc .cfa: $rsp 144 +
STACK CFI INIT 514b8 96 .cfa: $rsp .ra: .cfa 8 - ^
STACK CFI 514b8 .cfa: $rsp 128 +
STACK CFI INIT 51574 17 .cfa: $rsp .ra: .cfa 8 - ^
STACK CFI 51574 .cfa: $rsp 48 +
STACK CFI INIT 51590 4f .cfa: $rsp .ra: .cfa 8 - ^
STACK CFI 51590 .cfa: $rsp 48 +
STACK CFI INIT 515f4 f0 .cfa: $rsp .ra: .cfa 8 - ^
STACK CFI 515f4 .cfa: $rsp 96 +
STACK CFI INIT 5173c 100 .cfa: $rsp .ra: .cfa 8 - ^
STACK CFI 5173c .cfa: $rsp 112 +
STACK CFI INIT 5187c 179 .cfa: $rsp .ra: .cfa 8 - ^
STACK CFI 5187c .cfa: $rsp 64 +
STACK CFI INIT 51a54 25 .cfa: $rsp .ra: .cfa 8 - ^
STACK CFI 51a54 .cfa: $rsp 64 +
STACK CFI INIT 51a84 197 .cfa: $rsp .ra: .cfa 8 - ^
STACK CFI 51a84 .cfa: $rsp 192 +
STACK CFI INIT 51c88 39 .cfa: $rsp .ra: .cfa 8 - ^
STACK CFI 51c88 .cfa: $rsp 48 +
STACK CFI INIT 51cd0 7a .cfa: $rsp .ra: .cfa 8 - ^
STACK CFI 51cd0 .cfa: $rsp 48 +
STACK CFI INIT 51dc8 87 .cfa: $rsp .ra: .cfa 8 - ^
STACK CFI 51dc8 .cfa: $rsp 64 +
STACK CFI INIT 51e70 f4 .cfa: $rsp .ra: .cfa 8 - ^
STACK CFI 51e70 .cfa: $rsp 64 +
STACK CFI INIT 51fa4 af .cfa: $rsp .ra: .cfa 8 - ^
STACK CFI 51fa4 .cfa: $rsp 64 +
STACK CFI INIT 52094 1b .cfa: $rsp .ra: .cfa 8 - ^
STACK CFI 52094 .cfa: $rsp 48 +
STACK CFI INIT 520e0 1b .cfa: $rsp .ra: .cfa 8 - ^
STACK CFI 520e0 .cfa: $rsp 48 +
STACK CFI INIT 52104 a5 .cfa: $rsp .ra: .cfa 8 - ^
STACK CFI 52104 .cfa: $rsp 48 +
STACK CFI INIT 521d4 50 .cfa: $rsp .ra: .cfa 8 - ^
STACK CFI 521d4 .cfa: $rsp 48 +
STACK CFI INIT 52238 a8 .cfa: $rsp .ra: .cfa 8 - ^
STACK CFI 52238 .cfa: $rsp 64 +
STACK CFI INIT 5233c bf .cfa: $rsp .ra: .cfa 8 - ^
STACK CFI 5233c .cfa: $rsp 48 +
STACK CFI INIT 5245c 13e .cfa: $rsp .ra: .cfa 8 - ^
STACK CFI 5245c .cfa: $rsp 80 +
STACK CFI INIT 525ec ba .cfa: $rsp .ra: .cfa 8 - ^
STACK CFI 525ec .cfa: $rsp 48 +
STACK CFI INIT 526d4 75 .cfa: $rsp .ra: .cfa 8 - ^
STACK CFI 526d4 .cfa: $rsp 48 +
STACK CFI INIT 52768 101 .cfa: $rsp .ra: .cfa 8 - ^
STACK CFI 52768 .cfa: $rsp 64 +
STACK CFI INIT 528ac 8c .cfa: $rsp .ra: .cfa 8 - ^
STACK CFI 528ac .cfa: $rsp 48 +
STACK CFI INIT 5295c 26 .cfa: $rsp .ra: .cfa 8 - ^
STACK CFI 5295c .cfa: $rsp 48 +
STACK CFI INIT 529ac 69 .cfa: $rsp .ra: .cfa 8 - ^
STACK CFI 529ac .cfa: $rsp 48 +
STACK CFI INIT 52a40 91 .cfa: $rsp .ra: .cfa 8 - ^
STACK CFI 52a40 .cfa: $rsp 64 +
STACK CFI INIT 52af8 6c .cfa: $rsp .ra: .cfa 8 - ^
STACK CFI 52af8 .cfa: $rsp 64 +
STACK CFI INIT 52b80 4d0 .cfa: $rsp .ra: .cfa 8 - ^
STACK CFI 52b80 .cfa: $rsp 320 +
STACK CFI INIT 53184 95 .cfa: $rsp .ra: .cfa 8 - ^
STACK CFI 53184 .cfa: $rsp 48 +
STACK CFI INIT 53240 8e .cfa: $rsp .ra: .cfa 8 - ^
STACK CFI 53240 .cfa: $rsp 48 +
STACK CFI INIT 532f4 102 .cfa: $rsp .ra: .cfa 8 - ^
STACK CFI 532f4 .cfa: $rsp 5232 +
STACK CFI INIT 53438 119 .cfa: $rsp .ra: .cfa 8 - ^
STACK CFI 53438 .cfa: $rsp 5232 +
STACK CFI INIT 53598 170 .cfa: $rsp .ra: .cfa 8 - ^
STACK CFI 53598 .cfa: $rsp 5280 +
STACK CFI INIT 53778 eb .cfa: $rsp .ra: .cfa 8 - ^
STACK CFI 53778 .cfa: $rsp 80 +
STACK CFI INIT 538a0 2da .cfa: $rsp .ra: .cfa 8 - ^
STACK CFI 538a0 .cfa: $rsp 160 +
STACK CFI INIT 53c30 33 .cfa: $rsp .ra: .cfa 8 - ^
STACK CFI 53c30 .cfa: $rsp 48 +
STACK CFI INIT 53c80 b1 .cfa: $rsp .ra: .cfa 8 - ^
STACK CFI 53c80 .cfa: $rsp 64 +
STACK CFI INIT 53d70 40 .cfa: $rsp .ra: .cfa 8 - ^
STACK CFI 53d70 .cfa: $rsp 48 +
STACK CFI INIT 53dc0 5f .cfa: $rsp .ra: .cfa 8 - ^
STACK CFI 53dc0 .cfa: $rsp 48 +
STACK CFI INIT 53e38 2c .cfa: $rsp .ra: .cfa 8 - ^
STACK CFI 53e38 .cfa: $rsp 48 +
STACK CFI INIT 53e70 2c .cfa: $rsp .ra: .cfa 8 - ^
STACK CFI 53e70 .cfa: $rsp 48 +
STACK CFI INIT 53ea8 4b .cfa: $rsp .ra: .cfa 8 - ^
STACK CFI 53ea8 .cfa: $rsp 80 +
STACK CFI INIT 53f48 2c .cfa: $rsp .ra: .cfa 8 - ^
STACK CFI 53f48 .cfa: $rsp 48 +
STACK CFI INIT 53f80 2c .cfa: $rsp .ra: .cfa 8 - ^
STACK CFI 53f80 .cfa: $rsp 48 +
STACK CFI INIT 54018 4d .cfa: $rsp .ra: .cfa 8 - ^
STACK CFI 54018 .cfa: $rsp 80 +
STACK CFI INIT 5415c 39 .cfa: $rsp .ra: .cfa 8 - ^
STACK CFI 5415c .cfa: $rsp 64 +
STACK CFI INIT 541a4 176 .cfa: $rsp .ra: .cfa 8 - ^
STACK CFI 541a4 .cfa: $rsp 80 +
STACK CFI INIT 54378 251 .cfa: $rsp .ra: .cfa 8 - ^
STACK CFI 54378 .cfa: $rsp 112 +
STACK CFI INIT 54660 15e .cfa: $rsp .ra: .cfa 8 - ^
STACK CFI 54660 .cfa: $rsp 144 +
STACK CFI INIT 54818 66 .cfa: $rsp .ra: .cfa 8 - ^
STACK CFI 54818 .cfa: $rsp 64 +
STACK CFI INIT 54898 3e .cfa: $rsp .ra: .cfa 8 - ^
STACK CFI 54898 .cfa: $rsp 64 +
STACK CFI INIT 548e8 60 .cfa: $rsp .ra: .cfa 8 - ^
STACK CFI 548e8 .cfa: $rsp 64 +
STACK CFI INIT 54968 d1 .cfa: $rsp .ra: .cfa 8 - ^
STACK CFI 54968 .cfa: $rsp 48 +
STACK CFI INIT 54a98 1b .cfa: $rsp .ra: .cfa 8 - ^
STACK CFI 54a98 .cfa: $rsp 48 +
STACK CFI INIT 54abc 1b .cfa: $rsp .ra: .cfa 8 - ^
STACK CFI 54abc .cfa: $rsp 48 +
STACK CFI INIT 54af8 1b .cfa: $rsp .ra: .cfa 8 - ^
STACK CFI 54af8 .cfa: $rsp 48 +
STACK CFI INIT 54b1c 1b .cfa: $rsp .ra: .cfa 8 - ^
STACK CFI 54b1c .cfa: $rsp 48 +
STACK CFI INIT 54b40 2f .cfa: $rsp .ra: .cfa 8 - ^
STACK CFI 54b40 .cfa: $rsp 48 +
STACK CFI INIT 54b7c 2f .cfa: $rsp .ra: .cfa 8 - ^
STACK CFI 54b7c .cfa: $rsp 48 +
STACK CFI INIT 54bb8 32 .cfa: $rsp .ra: .cfa 8 - ^
STACK CFI 54bb8 .cfa: $rsp 48 +
STACK CFI INIT 54bf8 2f .cfa: $rsp .ra: .cfa 8 - ^
STACK CFI 54bf8 .cfa: $rsp 48 +
STACK CFI INIT 54c48 661 .cfa: $rsp .ra: .cfa 8 - ^
STACK CFI 54c48 .cfa: $rsp 208 +
STACK CFI INIT 55444 b3 .cfa: $rsp .ra: .cfa 8 - ^
STACK CFI 55444 .cfa: $rsp 48 +
STACK CFI INIT 55530 1c .cfa: $rsp .ra: .cfa 8 - ^
STACK CFI 55530 .cfa: $rsp 48 +
STACK CFI INIT 5555c e2 .cfa: $rsp .ra: .cfa 8 - ^
STACK CFI 5555c .cfa: $rsp 48 +
STACK CFI INIT 55678 114d .cfa: $rsp .ra: .cfa 8 - ^
STACK CFI 55678 .cfa: $rsp 2064 +
STACK CFI INIT 56c20 2f .cfa: $rsp .ra: .cfa 8 - ^
STACK CFI 56c20 .cfa: $rsp 48 +
STACK CFI INIT 56c6c 3b .cfa: $rsp .ra: .cfa 8 - ^
STACK CFI 56c6c .cfa: $rsp 48 +
STACK CFI INIT 56cb8 14 .cfa: $rsp .ra: .cfa 8 - ^
STACK CFI 56cb8 .cfa: $rsp 48 +
STACK CFI INIT 56ce0 2f .cfa: $rsp .ra: .cfa 8 - ^
STACK CFI 56ce0 .cfa: $rsp 48 +
STACK CFI INIT 56e40 22c .cfa: $rsp .ra: .cfa 8 - ^
STACK CFI 56e40 .cfa: $rsp 608 +
STACK CFI INIT 5706c 1b4 .cfa: $rsp .ra: .cfa 8 - ^
STACK CFI 5706c .cfa: $rsp 608 +
STACK CFI INIT 57220 49 .cfa: $rsp .ra: .cfa 8 - ^
STACK CFI 57220 .cfa: $rsp 608 +
STACK CFI INIT 573b0 67 .cfa: $rsp .ra: .cfa 8 - ^
STACK CFI 573b0 .cfa: $rsp 48 +
STACK CFI INIT 57430 e4 .cfa: $rsp .ra: .cfa 8 - ^
STACK CFI 57430 .cfa: $rsp 1056 +
STACK CFI INIT 57514 f4 .cfa: $rsp .ra: .cfa 8 - ^
STACK CFI 57514 .cfa: $rsp 1056 +
STACK CFI INIT 57608 187 .cfa: $rsp .ra: .cfa 8 - ^
STACK CFI 57608 .cfa: $rsp 1056 +
STACK CFI INIT 5778f 10 .cfa: $rsp .ra: .cfa 8 - ^
STACK CFI 5778f .cfa: $rsp 1056 +
STACK CFI INIT 5779f 1b .cfa: $rsp .ra: .cfa 8 - ^
STACK CFI 5779f .cfa: $rsp 1056 +
STACK CFI INIT 577ba 1e .cfa: $rsp .ra: .cfa 8 - ^
STACK CFI 577ba .cfa: $rsp 1056 +
STACK CFI INIT 578d0 39 .cfa: $rsp .ra: .cfa 8 - ^
STACK CFI 578d0 .cfa: $rsp 512 +
STACK CFI INIT 57909 1e .cfa: $rsp .ra: .cfa 8 - ^
STACK CFI 57909 .cfa: $rsp 512 +
STACK CFI INIT 57927 4b .cfa: $rsp .ra: .cfa 8 - ^
STACK CFI 57927 .cfa: $rsp 512 +
STACK CFI INIT 57972 2a .cfa: $rsp .ra: .cfa 8 - ^
STACK CFI 57972 .cfa: $rsp 512 +
STACK CFI INIT 5799c 21 .cfa: $rsp .ra: .cfa 8 - ^
STACK CFI 5799c .cfa: $rsp 512 +
STACK CFI INIT 57a10 5a8 .cfa: $rsp .ra: .cfa 8 - ^
STACK CFI 57a10 .cfa: $rsp 1536 +
STACK CFI INIT 58130 49 .cfa: $rsp .ra: .cfa 8 - ^
STACK CFI 58130 .cfa: $rsp 8 +
STACK CFI INIT 58190 74 .cfa: $rsp .ra: .cfa 8 - ^
STACK CFI 58190 .cfa: $rsp 544 +
STACK CFI INIT 58204 a1 .cfa: $rsp .ra: .cfa 8 - ^
STACK CFI 58204 .cfa: $rsp 544 +
STACK CFI INIT 582a5 38 .cfa: $rsp .ra: .cfa 8 - ^
STACK CFI 582a5 .cfa: $rsp 544 +
STACK CFI INIT 58330 1231 .cfa: $rsp .ra: .cfa 8 - ^
STACK CFI 58330 .cfa: $rsp 2080 +
STACK CFI INIT 599f0 87 .cfa: $rsp .ra: .cfa 8 - ^
STACK CFI 599f0 .cfa: $rsp 48 +
STACK CFI INIT 59a98 e8 .cfa: $rsp .ra: .cfa 8 - ^
STACK CFI 59a98 .cfa: $rsp 48 +
STACK CFI INIT 59bbc e9 .cfa: $rsp .ra: .cfa 8 - ^
STACK CFI 59bbc .cfa: $rsp 48 +
STACK CFI INIT 59ce0 e4 .cfa: $rsp .ra: .cfa 8 - ^
STACK CFI 59ce0 .cfa: $rsp 48 +
STACK CFI INIT 59e00 e8 .cfa: $rsp .ra: .cfa 8 - ^
STACK CFI 59e00 .cfa: $rsp 48 +
STACK CFI INIT 59f34 79 .cfa: $rsp .ra: .cfa 8 - ^
STACK CFI 59f34 .cfa: $rsp 48 +
STACK CFI INIT 59fcc ea .cfa: $rsp .ra: .cfa 8 - ^
STACK CFI 59fcc .cfa: $rsp 48 +
STACK CFI INIT 5a0f0 eb .cfa: $rsp .ra: .cfa 8 - ^
STACK CFI 5a0f0 .cfa: $rsp 48 +
STACK CFI INIT 5a22c 1b .cfa: $rsp .ra: .cfa 8 - ^
STACK CFI 5a22c .cfa: $rsp 48 +
STACK CFI INIT 5a25c 1b .cfa: $rsp .ra: .cfa 8 - ^
STACK CFI 5a25c .cfa: $rsp 48 +
STACK CFI INIT 5a280 10a .cfa: $rsp .ra: .cfa 8 - ^
STACK CFI 5a280 .cfa: $rsp 48 +
STACK CFI INIT 5a3cc 533 .cfa: $rsp .ra: .cfa 8 - ^
STACK CFI 5a3cc .cfa: $rsp 112 +
STACK CFI INIT 5aa90 6c .cfa: $rsp .ra: .cfa 8 - ^
STACK CFI 5aa90 .cfa: $rsp 48 +
STACK CFI INIT 5ab18 2e8 .cfa: $rsp .ra: .cfa 8 - ^
STACK CFI 5ab18 .cfa: $rsp 112 +
STACK CFI INIT 5af5c 1b .cfa: $rsp .ra: .cfa 8 - ^
STACK CFI 5af5c .cfa: $rsp 48 +
STACK CFI INIT 5af98 58 .cfa: $rsp .ra: .cfa 8 - ^
STACK CFI 5af98 .cfa: $rsp 48 +
STACK CFI INIT 5b00c 77 .cfa: $rsp .ra: .cfa 8 - ^
STACK CFI 5b00c .cfa: $rsp 48 +
STACK CFI INIT 5b0a0 33e .cfa: $rsp .ra: .cfa 8 - ^
STACK CFI 5b0a0 .cfa: $rsp 112 +
STACK CFI INIT 5b4bc 1b .cfa: $rsp .ra: .cfa 8 - ^
STACK CFI 5b4bc .cfa: $rsp 48 +
STACK CFI INIT 5b4e0 108 .cfa: $rsp .ra: .cfa 8 - ^
STACK CFI 5b4e0 .cfa: $rsp 48 +
STACK CFI INIT 5b62c 9c .cfa: $rsp .ra: .cfa 8 - ^
STACK CFI 5b62c .cfa: $rsp 48 +
STACK CFI INIT 5b6f0 86 .cfa: $rsp .ra: .cfa 8 - ^
STACK CFI 5b6f0 .cfa: $rsp 48 +
STACK CFI INIT 5b798 7f .cfa: $rsp .ra: .cfa 8 - ^
STACK CFI 5b798 .cfa: $rsp 48 +
STACK CFI INIT 5b838 f6 .cfa: $rsp .ra: .cfa 8 - ^
STACK CFI 5b838 .cfa: $rsp 48 +
STACK CFI INIT 5b96c fd .cfa: $rsp .ra: .cfa 8 - ^
STACK CFI 5b96c .cfa: $rsp 48 +
STACK CFI INIT 5baf8 a5 .cfa: $rsp .ra: .cfa 8 - ^
STACK CFI 5baf8 .cfa: $rsp 256 +
STACK CFI INIT 5bbc8 cf .cfa: $rsp .ra: .cfa 8 - ^
STACK CFI 5bbc8 .cfa: $rsp 48 +
STACK CFI INIT 5bccc 98 .cfa: $rsp .ra: .cfa 8 - ^
STACK CFI 5bccc .cfa: $rsp 48 +
STACK CFI INIT 5bdc8 2ea .cfa: $rsp .ra: .cfa 8 - ^
STACK CFI 5bdc8 .cfa: $rsp 224 +
STACK CFI INIT 5c16c ea .cfa: $rsp .ra: .cfa 8 - ^
STACK CFI 5c16c .cfa: $rsp 320 +
STACK CFI INIT 5c290 c9 .cfa: $rsp .ra: .cfa 8 - ^
STACK CFI 5c290 .cfa: $rsp 48 +
STACK CFI INIT 5c38c 63 .cfa: $rsp .ra: .cfa 8 - ^
STACK CFI 5c38c .cfa: $rsp 80 +
STACK CFI INIT 5c408 77 .cfa: $rsp .ra: .cfa 8 - ^
STACK CFI 5c408 .cfa: $rsp 48 +
STACK CFI INIT 5c49c 99 .cfa: $rsp .ra: .cfa 8 - ^
STACK CFI 5c49c .cfa: $rsp 64 +
STACK CFI INIT 5c55c 263 .cfa: $rsp .ra: .cfa 8 - ^
STACK CFI 5c55c .cfa: $rsp 80 +
STACK CFI INIT 5c858 e8 .cfa: $rsp .ra: .cfa 8 - ^
STACK CFI 5c858 .cfa: $rsp 304 +
STACK CFI INIT 5c97c 5f .cfa: $rsp .ra: .cfa 8 - ^
STACK CFI 5c97c .cfa: $rsp 48 +
STACK CFI INIT 5c9f4 21 .cfa: $rsp .ra: .cfa 8 - ^
STACK CFI 5c9f4 .cfa: $rsp 48 +
STACK CFI INIT 5ca20 cd .cfa: $rsp .ra: .cfa 8 - ^
STACK CFI 5ca20 .cfa: $rsp 48 +
STACK CFI INIT 5cb20 96 .cfa: $rsp .ra: .cfa 8 - ^
STACK CFI 5cb20 .cfa: $rsp 48 +
STACK CFI INIT 5cc0c 24a .cfa: $rsp .ra: .cfa 8 - ^
STACK CFI 5cc0c .cfa: $rsp 320 +
STACK CFI INIT 5cee8 108 .cfa: $rsp .ra: .cfa 8 - ^
STACK CFI 5cee8 .cfa: $rsp 304 +
STACK CFI INIT 5d098 ae .cfa: $rsp .ra: .cfa 8 - ^
STACK CFI 5d098 .cfa: $rsp 48 +
STACK CFI INIT 5d1a4 ab .cfa: $rsp .ra: .cfa 8 - ^
STACK CFI 5d1a4 .cfa: $rsp 48 +
STACK CFI INIT 5d27c 7f .cfa: $rsp .ra: .cfa 8 - ^
STACK CFI 5d27c .cfa: $rsp 64 +
STACK CFI INIT 5d31c 27e .cfa: $rsp .ra: .cfa 8 - ^
STACK CFI 5d31c .cfa: $rsp 128 +
STACK CFI INIT 5d660 bd .cfa: $rsp .ra: .cfa 8 - ^
STACK CFI 5d660 .cfa: $rsp 96 +
STACK CFI INIT 5d820 46 .cfa: $rsp .ra: .cfa 8 - ^
STACK CFI 5d820 .cfa: $rsp 48 +
STACK CFI INIT 5d878 150 .cfa: $rsp .ra: .cfa 8 - ^
STACK CFI 5d878 .cfa: $rsp 96 +
STACK CFI INIT 5da78 4f .cfa: $rsp .ra: .cfa 8 - ^
STACK CFI 5da78 .cfa: $rsp 48 +
STACK CFI INIT 5dadc ad .cfa: $rsp .ra: .cfa 8 - ^
STACK CFI 5dadc .cfa: $rsp 80 +
STACK CFI INIT 5dbb4 35d .cfa: $rsp .ra: .cfa 8 - ^
STACK CFI 5dbb4 .cfa: $rsp 208 +
STACK CFI INIT 5dfe8 89 .cfa: $rsp .ra: .cfa 8 - ^
STACK CFI 5dfe8 .cfa: $rsp 112 +
STACK CFI INIT 5e098 2b .cfa: $rsp .ra: .cfa 8 - ^
STACK CFI 5e098 .cfa: $rsp 48 +
STACK CFI INIT 5e0d0 a7 .cfa: $rsp .ra: .cfa 8 - ^
STACK CFI 5e0d0 .cfa: $rsp 608 +
STACK CFI INIT 5e1a0 15d .cfa: $rsp .ra: .cfa 8 - ^
STACK CFI 5e1a0 .cfa: $rsp 80 +
STACK CFI INIT 5e364 eb .cfa: $rsp .ra: .cfa 8 - ^
STACK CFI 5e364 .cfa: $rsp 80 +
STACK CFI INIT 5e48c ef .cfa: $rsp .ra: .cfa 8 - ^
STACK CFI 5e48c .cfa: $rsp 80 +
STACK CFI INIT 5e5b8 f3 .cfa: $rsp .ra: .cfa 8 - ^
STACK CFI 5e5b8 .cfa: $rsp 64 +
STACK CFI INIT 5e6e8 99 .cfa: $rsp .ra: .cfa 8 - ^
STACK CFI 5e6e8 .cfa: $rsp 48 +
STACK CFI INIT 5e7a8 9e .cfa: $rsp .ra: .cfa 8 - ^
STACK CFI 5e7a8 .cfa: $rsp 64 +
STACK CFI INIT 5e870 33 .cfa: $rsp .ra: .cfa 8 - ^
STACK CFI 5e870 .cfa: $rsp 48 +
STACK CFI INIT 5e8d0 40 .cfa: $rsp .ra: .cfa 8 - ^
STACK CFI 5e8d0 .cfa: $rsp 48 +
STACK CFI INIT 5e920 26 .cfa: $rsp .ra: .cfa 8 - ^
STACK CFI 5e920 .cfa: $rsp 48 +
STACK CFI INIT 5e990 3b .cfa: $rsp .ra: .cfa 8 - ^
STACK CFI 5e990 .cfa: $rsp 64 +
STACK CFI INIT 5e9dc 3b .cfa: $rsp .ra: .cfa 8 - ^
STACK CFI 5e9dc .cfa: $rsp 48 +
STACK CFI INIT 5ea28 1bd .cfa: $rsp .ra: .cfa 8 - ^
STACK CFI 5ea28 .cfa: $rsp 112 +
STACK CFI INIT 5ec54 27b .cfa: $rsp .ra: .cfa 8 - ^
STACK CFI 5ec54 .cfa: $rsp 128 +
STACK CFI INIT 5eff0 19b .cfa: $rsp .ra: .cfa 8 - ^
STACK CFI 5eff0 .cfa: $rsp 80 +
STACK CFI INIT 5f1f4 8f .cfa: $rsp .ra: .cfa 8 - ^
STACK CFI 5f1f4 .cfa: $rsp 8 +
STACK CFI INIT 5f2a8 119 .cfa: $rsp .ra: .cfa 8 - ^
STACK CFI 5f2a8 .cfa: $rsp 64 +
STACK CFI INIT 5f408 456 .cfa: $rsp .ra: .cfa 8 - ^
STACK CFI 5f408 .cfa: $rsp 160 +
STACK CFI INIT 5f974 83 .cfa: $rsp .ra: .cfa 8 - ^
STACK CFI 5f974 .cfa: $rsp 48 +
STACK CFI INIT 5fa18 62 .cfa: $rsp .ra: .cfa 8 - ^
STACK CFI 5fa18 .cfa: $rsp 48 +
STACK CFI INIT 5fa94 1dc .cfa: $rsp .ra: .cfa 8 - ^
STACK CFI 5fa94 .cfa: $rsp 112 +
STACK CFI INIT 5fcf0 179 .cfa: $rsp .ra: .cfa 8 - ^
STACK CFI 5fcf0 .cfa: $rsp 144 +
STACK CFI INIT 5fec8 1c8 .cfa: $rsp .ra: .cfa 8 - ^
STACK CFI 5fec8 .cfa: $rsp 272 +
STACK CFI INIT 60104 20 .cfa: $rsp .ra: .cfa 8 - ^
STACK CFI 60104 .cfa: $rsp 48 +
STACK CFI INIT 6012c 4c .cfa: $rsp .ra: .cfa 8 - ^
STACK CFI 6012c .cfa: $rsp 48 +
STACK CFI INIT 6018c 50 .cfa: $rsp .ra: .cfa 8 - ^
STACK CFI 6018c .cfa: $rsp 48 +
STACK CFI INIT 602f0 5ab .cfa: $rsp .ra: .cfa 8 - ^
STACK CFI 602f0 .cfa: $rsp 96 +
STACK CFI INIT 60a08 66 .cfa: $rsp .ra: .cfa 8 - ^
STACK CFI 60a08 .cfa: $rsp 48 +
STACK CFI INIT 60a88 c6 .cfa: $rsp .ra: .cfa 8 - ^
STACK CFI 60a88 .cfa: $rsp 48 +
STACK CFI INIT 60b80 d4 .cfa: $rsp .ra: .cfa 8 - ^
STACK CFI 60b80 .cfa: $rsp 64 +
STACK CFI INIT 60c8c cb .cfa: $rsp .ra: .cfa 8 - ^
STACK CFI 60c8c .cfa: $rsp 48 +
STACK CFI INIT 60d8c d9 .cfa: $rsp .ra: .cfa 8 - ^
STACK CFI 60d8c .cfa: $rsp 64 +
STACK CFI INIT 60e9c 67 .cfa: $rsp .ra: .cfa 8 - ^
STACK CFI 60e9c .cfa: $rsp 64 +
STACK CFI INIT 60f1c 69 .cfa: $rsp .ra: .cfa 8 - ^
STACK CFI 60f1c .cfa: $rsp 64 +
STACK CFI INIT 60fa0 67 .cfa: $rsp .ra: .cfa 8 - ^
STACK CFI 60fa0 .cfa: $rsp 64 +
STACK CFI INIT 61020 69 .cfa: $rsp .ra: .cfa 8 - ^
STACK CFI 61020 .cfa: $rsp 64 +
STACK CFI INIT 610a4 31 .cfa: $rsp .ra: .cfa 8 - ^
STACK CFI 610a4 .cfa: $rsp 64 +
STACK CFI INIT 610e4 21 .cfa: $rsp .ra: .cfa 8 - ^
STACK CFI 610e4 .cfa: $rsp 64 +
STACK CFI INIT 61110 31 .cfa: $rsp .ra: .cfa 8 - ^
STACK CFI 61110 .cfa: $rsp 64 +
STACK CFI INIT 61150 21 .cfa: $rsp .ra: .cfa 8 - ^
STACK CFI 61150 .cfa: $rsp 64 +
STACK CFI INIT 6117c 30 .cfa: $rsp .ra: .cfa 8 - ^
STACK CFI 6117c .cfa: $rsp 64 +
STACK CFI INIT 611b8 20 .cfa: $rsp .ra: .cfa 8 - ^
STACK CFI 611b8 .cfa: $rsp 64 +
STACK CFI INIT 611e0 30 .cfa: $rsp .ra: .cfa 8 - ^
STACK CFI 611e0 .cfa: $rsp 64 +
STACK CFI INIT 6121c 20 .cfa: $rsp .ra: .cfa 8 - ^
STACK CFI 6121c .cfa: $rsp 64 +
STACK CFI INIT 61244 30 .cfa: $rsp .ra: .cfa 8 - ^
STACK CFI 61244 .cfa: $rsp 64 +
STACK CFI INIT 61280 20 .cfa: $rsp .ra: .cfa 8 - ^
STACK CFI 61280 .cfa: $rsp 64 +
STACK CFI INIT 612a8 30 .cfa: $rsp .ra: .cfa 8 - ^
STACK CFI 612a8 .cfa: $rsp 64 +
STACK CFI INIT 612e4 20 .cfa: $rsp .ra: .cfa 8 - ^
STACK CFI 612e4 .cfa: $rsp 64 +
STACK CFI INIT 6130c 23 .cfa: $rsp .ra: .cfa 8 - ^
STACK CFI 6130c .cfa: $rsp 64 +
STACK CFI INIT 61338 13 .cfa: $rsp .ra: .cfa 8 - ^
STACK CFI 61338 .cfa: $rsp 64 +
STACK CFI INIT 61350 23 .cfa: $rsp .ra: .cfa 8 - ^
STACK CFI 61350 .cfa: $rsp 64 +
STACK CFI INIT 6137c 13 .cfa: $rsp .ra: .cfa 8 - ^
STACK CFI 6137c .cfa: $rsp 64 +
STACK CFI INIT 61394 23 .cfa: $rsp .ra: .cfa 8 - ^
STACK CFI 61394 .cfa: $rsp 64 +
STACK CFI INIT 613c0 13 .cfa: $rsp .ra: .cfa 8 - ^
STACK CFI 613c0 .cfa: $rsp 64 +
STACK CFI INIT 613d8 23 .cfa: $rsp .ra: .cfa 8 - ^
STACK CFI 613d8 .cfa: $rsp 64 +
STACK CFI INIT 61404 13 .cfa: $rsp .ra: .cfa 8 - ^
STACK CFI 61404 .cfa: $rsp 64 +
STACK CFI INIT 6146c 46 .cfa: $rsp .ra: .cfa 8 - ^
STACK CFI 6146c .cfa: $rsp 48 +
STACK CFI INIT 614c4 127 .cfa: $rsp .ra: .cfa 8 - ^
STACK CFI 614c4 .cfa: $rsp 96 +
STACK CFI INIT 61678 bb .cfa: $rsp .ra: .cfa 8 - ^
STACK CFI 61678 .cfa: $rsp 96 +
STACK CFI INIT 6176c 40 .cfa: $rsp .ra: .cfa 8 - ^
STACK CFI 6176c .cfa: $rsp 48 +
STACK CFI INIT 617bc a3 .cfa: $rsp .ra: .cfa 8 - ^
STACK CFI 617bc .cfa: $rsp 48 +
STACK CFI INIT 61888 a4 .cfa: $rsp .ra: .cfa 8 - ^
STACK CFI 61888 .cfa: $rsp 48 +
STACK CFI INIT 619d0 a3 .cfa: $rsp .ra: .cfa 8 - ^
STACK CFI 619d0 .cfa: $rsp 48 +
STACK CFI INIT 61a9c a4 .cfa: $rsp .ra: .cfa 8 - ^
STACK CFI 61a9c .cfa: $rsp 48 +
STACK CFI INIT 61b6c aa .cfa: $rsp .ra: .cfa 8 - ^
STACK CFI 61b6c .cfa: $rsp 80 +
STACK CFI INIT 61c5c 27 .cfa: $rsp .ra: .cfa 8 - ^
STACK CFI 61c5c .cfa: $rsp 64 +
STACK CFI INIT 61c8c 3b .cfa: $rsp .ra: .cfa 8 - ^
STACK CFI 61c8c .cfa: $rsp 80 +
STACK CFI INIT 61cd8 52 .cfa: $rsp .ra: .cfa 8 - ^
STACK CFI 61cd8 .cfa: $rsp 80 +
STACK CFI INIT 61d40 1c .cfa: $rsp .ra: .cfa 8 - ^
STACK CFI 61d40 .cfa: $rsp 48 +
STACK CFI INIT 61d64 be .cfa: $rsp .ra: .cfa 8 - ^
STACK CFI 61d64 .cfa: $rsp 80 +
STACK CFI INIT 61e54 71 .cfa: $rsp .ra: .cfa 8 - ^
STACK CFI 61e54 .cfa: $rsp 48 +
STACK CFI INIT 61ee4 26 .cfa: $rsp .ra: .cfa 8 - ^
STACK CFI 61ee4 .cfa: $rsp 48 +
STACK CFI INIT 61f34 49 .cfa: $rsp .ra: .cfa 8 - ^
STACK CFI 61f34 .cfa: $rsp 48 +
STACK CFI INIT 61fa0 7e .cfa: $rsp .ra: .cfa 8 - ^
STACK CFI 61fa0 .cfa: $rsp 48 +
STACK CFI INIT 62040 a1 .cfa: $rsp .ra: .cfa 8 - ^
STACK CFI 62040 .cfa: $rsp 64 +
STACK CFI INIT 6210c bd .cfa: $rsp .ra: .cfa 8 - ^
STACK CFI 6210c .cfa: $rsp 48 +
STACK CFI INIT 62218 1b .cfa: $rsp .ra: .cfa 8 - ^
STACK CFI 62218 .cfa: $rsp 48 +
STACK CFI INIT 6223c 56 .cfa: $rsp .ra: .cfa 8 - ^
STACK CFI 6223c .cfa: $rsp 48 +
STACK CFI INIT 622e4 ea .cfa: $rsp .ra: .cfa 8 - ^
STACK CFI 622e4 .cfa: $rsp 48 +
STACK CFI INIT 62414 1b .cfa: $rsp .ra: .cfa 8 - ^
STACK CFI 62414 .cfa: $rsp 48 +
STACK CFI INIT 629d8 137 .cfa: $rsp .ra: .cfa 8 - ^
STACK CFI 629d8 .cfa: $rsp 8 +
STACK CFI INIT 62e18 147 .cfa: $rsp .ra: .cfa 8 - ^
STACK CFI 62e18 .cfa: $rsp 8 +
STACK CFI INIT 631c0 6e .cfa: $rsp .ra: .cfa 8 - ^
STACK CFI 631c0 .cfa: $rsp 48 +
STACK CFI INIT 6335c 34 .cfa: $rsp .ra: .cfa 8 - ^
STACK CFI 6335c .cfa: $rsp 48 +
STACK CFI INIT 6341c 2be .cfa: $rsp .ra: .cfa 8 - ^
STACK CFI 6341c .cfa: $rsp 64 +
STACK CFI INIT 6378c 65 .cfa: $rsp .ra: .cfa 8 - ^
STACK CFI 6378c .cfa: $rsp 96 +
STACK CFI INIT 6380c ba .cfa: $rsp .ra: .cfa 8 - ^
STACK CFI 6380c .cfa: $rsp 48 +
STACK CFI INIT 638f4 127 .cfa: $rsp .ra: .cfa 8 - ^
STACK CFI 638f4 .cfa: $rsp 288 +
STACK CFI INIT 63a64 133 .cfa: $rsp .ra: .cfa 8 - ^
STACK CFI 63a64 .cfa: $rsp 288 +
STACK CFI INIT 63c20 70 .cfa: $rsp .ra: .cfa 8 - ^
STACK CFI 63c20 .cfa: $rsp 32 +
STACK CFI INIT 63cd0 20 .cfa: $rsp .ra: .cfa 8 - ^
STACK CFI 63cd0 .cfa: $rsp 64 +
STACK CFI INIT 63cf8 20 .cfa: $rsp .ra: .cfa 8 - ^
STACK CFI 63cf8 .cfa: $rsp 64 +
STACK CFI INIT 63d20 20 .cfa: $rsp .ra: .cfa 8 - ^
STACK CFI 63d20 .cfa: $rsp 64 +
STACK CFI INIT 63d48 96 .cfa: $rsp .ra: .cfa 8 - ^
STACK CFI 63d48 .cfa: $rsp 112 +
STACK CFI INIT 63e04 20 .cfa: $rsp .ra: .cfa 8 - ^
STACK CFI 63e04 .cfa: $rsp 64 +
STACK CFI INIT 63e2c 9c .cfa: $rsp .ra: .cfa 8 - ^
STACK CFI 63e2c .cfa: $rsp 128 +
STACK CFI INIT 63ef0 87 .cfa: $rsp .ra: .cfa 8 - ^
STACK CFI 63ef0 .cfa: $rsp 96 +
STACK CFI INIT 63f98 9c .cfa: $rsp .ra: .cfa 8 - ^
STACK CFI 63f98 .cfa: $rsp 80 +
STACK CFI INIT 64070 10 .cfa: $rsp .ra: .cfa 8 - ^
STACK CFI 64070 .cfa: $rsp 16 +
STACK CFI INIT 64128 f1 .cfa: $rsp .ra: .cfa 8 - ^
STACK CFI 64128 .cfa: $rsp 256 +
STACK CFI INIT 64258 106 .cfa: $rsp .ra: .cfa 8 - ^
STACK CFI 64258 .cfa: $rsp 272 +
STACK CFI INIT 643e0 267 .cfa: $rsp .ra: .cfa 8 - ^
STACK CFI 643e0 .cfa: $rsp 112 +
STACK CFI INIT 646e8 27 .cfa: $rsp .ra: .cfa 8 - ^
STACK CFI 646e8 .cfa: $rsp 80 +
STACK CFI INIT 64718 30d .cfa: $rsp .ra: .cfa 8 - ^
STACK CFI 64718 .cfa: $rsp 48 +
STACK CFI INIT 64ae8 2a .cfa: $rsp .ra: .cfa 8 - ^
STACK CFI 64ae8 .cfa: $rsp 80 +
STACK CFI INIT 64b1c 2e .cfa: $rsp .ra: .cfa 8 - ^
STACK CFI 64b1c .cfa: $rsp 48 +
STACK CFI INIT 64b58 d4 .cfa: $rsp .ra: .cfa 8 - ^
STACK CFI 64b58 .cfa: $rsp 96 +
STACK CFI INIT 64c64 1d .cfa: $rsp .ra: .cfa 8 - ^
STACK CFI 64c64 .cfa: $rsp 48 +
STACK CFI INIT 64c88 7c .cfa: $rsp .ra: .cfa 8 - ^
STACK CFI 64c88 .cfa: $rsp 48 +
STACK CFI INIT 64d24 1f .cfa: $rsp .ra: .cfa 8 - ^
STACK CFI 64d24 .cfa: $rsp 48 +
STACK CFI INIT 64d4c 11 .cfa: $rsp .ra: .cfa 8 - ^
STACK CFI 64d4c .cfa: $rsp 48 +
STACK CFI INIT 64d64 200 .cfa: $rsp .ra: .cfa 8 - ^
STACK CFI 64d64 .cfa: $rsp 128 +
STACK CFI INIT 64fec 133 .cfa: $rsp .ra: .cfa 8 - ^
STACK CFI 64fec .cfa: $rsp 96 +
STACK CFI INIT 6518c 1e .cfa: $rsp .ra: .cfa 8 - ^
STACK CFI 6518c .cfa: $rsp 64 +
STACK CFI INIT 65530 4d .cfa: $rsp .ra: .cfa 8 - ^
STACK CFI 65530 .cfa: $rsp 48 +
STACK CFI INIT 655d8 2b .cfa: $rsp .ra: .cfa 8 - ^
STACK CFI 655d8 .cfa: $rsp 48 +
STACK CFI INIT 65610 1d .cfa: $rsp .ra: .cfa 8 - ^
STACK CFI 65610 .cfa: $rsp 48 +
STACK CFI INIT 65634 5b .cfa: $rsp .ra: .cfa 8 - ^
STACK CFI 65634 .cfa: $rsp 16 +
STACK CFI INIT 656c0 21 .cfa: $rsp .ra: .cfa 8 - ^
STACK CFI 656c0 .cfa: $rsp 8 +
STACK CFI INIT 656f0 85 .cfa: $rsp .ra: .cfa 8 - ^
STACK CFI 656f0 .cfa: $rsp 48 +
STACK CFI INIT 65798 34 .cfa: $rsp .ra: .cfa 8 - ^
STACK CFI 65798 .cfa: $rsp 48 +
STACK CFI INIT 657dc d1 .cfa: $rsp .ra: .cfa 8 - ^
STACK CFI 657dc .cfa: $rsp 64 +
STACK CFI INIT 658e4 13 .cfa: $rsp .ra: .cfa 8 - ^
STACK CFI 658e4 .cfa: $rsp 48 +
STACK CFI INIT 658fc 9b .cfa: $rsp .ra: .cfa 8 - ^
STACK CFI 658fc .cfa: $rsp 48 +
STACK CFI INIT 659c0 10e .cfa: $rsp .ra: .cfa 8 - ^
STACK CFI 659c0 .cfa: $rsp 64 +
STACK CFI INIT 65b14 6d .cfa: $rsp .ra: .cfa 8 - ^
STACK CFI 65b14 .cfa: $rsp 80 +
STACK CFI INIT 65b9c 71 .cfa: $rsp .ra: .cfa 8 - ^
STACK CFI 65b9c .cfa: $rsp 96 +
STACK CFI INIT 65c40 51 .cfa: $rsp .ra: .cfa 8 - ^
STACK CFI 65c40 .cfa: $rsp 24 +
STACK CFI INIT 65e48 89 .cfa: $rsp .ra: .cfa 8 - ^
STACK CFI 65e48 .cfa: $rsp 32 +
STACK CFI INIT 65ef4 91 .cfa: $rsp .ra: .cfa 8 - ^
STACK CFI 65ef4 .cfa: $rsp 32 +
STACK CFI INIT 65fac 149 .cfa: $rsp .ra: .cfa 8 - ^
STACK CFI 65fac .cfa: $rsp 32 +
STACK CFI INIT 66148 29 .cfa: $rsp .ra: .cfa 8 - ^
STACK CFI 66148 .cfa: $rsp 48 +
STACK CFI INIT 66190 c7 .cfa: $rsp .ra: .cfa 8 - ^
STACK CFI 66190 .cfa: $rsp 8 +
STACK CFI INIT 67df0 2 .cfa: $rsp .ra: .cfa 8 - ^
STACK CFI 67df0 .cfa: $rsp 8 +
STACK CFI INIT 68e00 17 .cfa: $rsp .ra: .cfa 8 - ^
STACK CFI 68e00 .cfa: $rsp 48 +
STACK CFI INIT 68e1c 1c .cfa: $rsp .ra: .cfa 8 - ^
STACK CFI 68e1c .cfa: $rsp 48 +
STACK CFI INIT 68e3f 36 .cfa: $rsp .ra: .cfa 8 - ^
STACK CFI 68e3f .cfa: $rsp 64 +
STACK CFI INIT 68e82 18 .cfa: $rsp .ra: .cfa 8 - ^
STACK CFI 68e82 .cfa: $rsp 16 +
STACK CFI INIT 68ea0 18 .cfa: $rsp .ra: .cfa 8 - ^
STACK CFI 68ea0 .cfa: $rsp 48 +
STACK CFI INIT 68ecd 16 .cfa: $rsp .ra: .cfa 8 - ^
STACK CFI 68ecd .cfa: $rsp 48 +
STACK CFI INIT 68ee8 91 .cfa: $rsp .ra: .cfa 8 - ^
STACK CFI 68ee8 .cfa: $rsp 96 +
STACK CFI INIT 68f9d 91 .cfa: $rsp .ra: .cfa 8 - ^
STACK CFI 68f9d .cfa: $rsp 96 +
STACK CFI INIT 69052 25 .cfa: $rsp .ra: .cfa 8 - ^
STACK CFI 69052 .cfa: $rsp 48 +
STACK CFI INIT 69077 78 .cfa: $rsp .ra: .cfa 8 - ^
STACK CFI 69077 .cfa: $rsp 64 +
STACK CFI INIT 69116 3e .cfa: $rsp .ra: .cfa 8 - ^
STACK CFI 69116 .cfa: $rsp 64 +
STACK CFI INIT 69154 94 .cfa: $rsp .ra: .cfa 8 - ^
STACK CFI 69154 .cfa: $rsp 64 +
STACK CFI INIT 6921c 16 .cfa: $rsp .ra: .cfa 8 - ^
STACK CFI 6921c .cfa: $rsp 48 +
STACK CFI INIT 69232 23 .cfa: $rsp .ra: .cfa 8 - ^
STACK CFI 69232 .cfa: $rsp 48 +
STACK CFI INIT 69263 16 .cfa: $rsp .ra: .cfa 8 - ^
STACK CFI 69263 .cfa: $rsp 64 +
STACK CFI INIT 69279 23 .cfa: $rsp .ra: .cfa 8 - ^
STACK CFI 69279 .cfa: $rsp 64 +
STACK CFI INIT 692aa 1a .cfa: $rsp .ra: .cfa 8 - ^
STACK CFI 692aa .cfa: $rsp 48 +
STACK CFI INIT 692ca 1b .cfa: $rsp .ra: .cfa 8 - ^
STACK CFI 692ca .cfa: $rsp 48 +
STACK CFI INIT 692eb 1a .cfa: $rsp .ra: .cfa 8 - ^
STACK CFI 692eb .cfa: $rsp 48 +
STACK CFI INIT 6930b 1a .cfa: $rsp .ra: .cfa 8 - ^
STACK CFI 6930b .cfa: $rsp 48 +
STACK CFI INIT 6932b 1b .cfa: $rsp .ra: .cfa 8 - ^
STACK CFI 6932b .cfa: $rsp 48 +
STACK CFI INIT 6934c 1b .cfa: $rsp .ra: .cfa 8 - ^
STACK CFI 6934c .cfa: $rsp 48 +
STACK CFI INIT 6936d 1b .cfa: $rsp .ra: .cfa 8 - ^
STACK CFI 6936d .cfa: $rsp 48 +
STACK CFI INIT 6938e 1b .cfa: $rsp .ra: .cfa 8 - ^
STACK CFI 6938e .cfa: $rsp 48 +
STACK CFI INIT 693af 1b .cfa: $rsp .ra: .cfa 8 - ^
STACK CFI 693af .cfa: $rsp 48 +
STACK CFI INIT 693d0 1b .cfa: $rsp .ra: .cfa 8 - ^
STACK CFI 693d0 .cfa: $rsp 48 +
STACK CFI INIT 693f1 1a .cfa: $rsp .ra: .cfa 8 - ^
STACK CFI 693f1 .cfa: $rsp 48 +
STACK CFI INIT 69411 1a .cfa: $rsp .ra: .cfa 8 - ^
STACK CFI 69411 .cfa: $rsp 48 +
STACK CFI INIT 69431 1a .cfa: $rsp .ra: .cfa 8 - ^
STACK CFI 69431 .cfa: $rsp 48 +
STACK CFI INIT 69451 1a .cfa: $rsp .ra: .cfa 8 - ^
STACK CFI 69451 .cfa: $rsp 48 +
STACK CFI INIT 69471 1a .cfa: $rsp .ra: .cfa 8 - ^
STACK CFI 69471 .cfa: $rsp 48 +
STACK CFI INIT 69491 19 .cfa: $rsp .ra: .cfa 8 - ^
STACK CFI 69491 .cfa: $rsp 48 +
STACK CFI INIT 694b0 1a .cfa: $rsp .ra: .cfa 8 - ^
STACK CFI 694b0 .cfa: $rsp 48 +
STACK CFI INIT 694d0 19 .cfa: $rsp .ra: .cfa 8 - ^
STACK CFI 694d0 .cfa: $rsp 48 +
STACK CFI INIT 694ef 16 .cfa: $rsp .ra: .cfa 8 - ^
STACK CFI 694ef .cfa: $rsp 48 +
STACK CFI INIT 6950a 16 .cfa: $rsp .ra: .cfa 8 - ^
STACK CFI 6950a .cfa: $rsp 48 +
STACK CFI INIT 69525 1a .cfa: $rsp .ra: .cfa 8 - ^
STACK CFI 69525 .cfa: $rsp 48 +
STACK CFI INIT 69545 19 .cfa: $rsp .ra: .cfa 8 - ^
STACK CFI 69545 .cfa: $rsp 48 +
STACK CFI INIT 69564 21 .cfa: $rsp .ra: .cfa 8 - ^
STACK CFI 69564 .cfa: $rsp 48 +
STACK CFI INIT 6958d 19 .cfa: $rsp .ra: .cfa 8 - ^
STACK CFI 6958d .cfa: $rsp 48 +
STACK CFI INIT 695ac 1b .cfa: $rsp .ra: .cfa 8 - ^
STACK CFI 695ac .cfa: $rsp 48 +
STACK CFI INIT 695cd 1d .cfa: $rsp .ra: .cfa 8 - ^
STACK CFI 695cd .cfa: $rsp 48 +
STACK CFI INIT 695f1 1b .cfa: $rsp .ra: .cfa 8 - ^
STACK CFI 695f1 .cfa: $rsp 48 +
STACK CFI INIT 69612 18 .cfa: $rsp .ra: .cfa 8 - ^
STACK CFI 69612 .cfa: $rsp 48 +
STACK CFI INIT 69630 1a .cfa: $rsp .ra: .cfa 8 - ^
STACK CFI 69630 .cfa: $rsp 48 +
STACK CFI INIT 69650 1a .cfa: $rsp .ra: .cfa 8 - ^
STACK CFI 69650 .cfa: $rsp 48 +
STACK CFI INIT 69670 1a .cfa: $rsp .ra: .cfa 8 - ^
STACK CFI 69670 .cfa: $rsp 48 +
STACK CFI INIT 69690 1a .cfa: $rsp .ra: .cfa 8 - ^
STACK CFI 69690 .cfa: $rsp 48 +
STACK CFI INIT 696b0 21 .cfa: $rsp .ra: .cfa 8 - ^
STACK CFI 696b0 .cfa: $rsp 48 +
STACK CFI INIT 696d9 1a .cfa: $rsp .ra: .cfa 8 - ^
STACK CFI 696d9 .cfa: $rsp 48 +
STACK CFI INIT 696f9 19 .cfa: $rsp .ra: .cfa 8 - ^
STACK CFI 696f9 .cfa: $rsp 48 +
STACK CFI INIT 69712 19 .cfa: $rsp .ra: .cfa 8 - ^
STACK CFI 69712 .cfa: $rsp 48 +
STACK CFI INIT 69737 19 .cfa: $rsp .ra: .cfa 8 - ^
STACK CFI 69737 .cfa: $rsp 48 +
STACK CFI INIT 69756 19 .cfa: $rsp .ra: .cfa 8 - ^
STACK CFI 69756 .cfa: $rsp 48 +
STACK CFI INIT 69775 19 .cfa: $rsp .ra: .cfa 8 - ^
STACK CFI 69775 .cfa: $rsp 48 +
STACK CFI INIT 69794 41 .cfa: $rsp .ra: .cfa 8 - ^
STACK CFI 69794 .cfa: $rsp 48 +
STACK CFI INIT 697e5 1a .cfa: $rsp .ra: .cfa 8 - ^
STACK CFI 697e5 .cfa: $rsp 48 +
STACK CFI INIT 69805 17 .cfa: $rsp .ra: .cfa 8 - ^
STACK CFI 69805 .cfa: $rsp 48 +
STACK CFI INIT 69821 19 .cfa: $rsp .ra: .cfa 8 - ^
STACK CFI 69821 .cfa: $rsp 48 +
STACK CFI INIT 69840 17 .cfa: $rsp .ra: .cfa 8 - ^
STACK CFI 69840 .cfa: $rsp 48 +
STACK CFI INIT 6985c 17 .cfa: $rsp .ra: .cfa 8 - ^
STACK CFI 6985c .cfa: $rsp 48 +
STACK CFI INIT 69878 1a .cfa: $rsp .ra: .cfa 8 - ^
STACK CFI 69878 .cfa: $rsp 48 +
STACK CFI INIT 69898 17 .cfa: $rsp .ra: .cfa 8 - ^
STACK CFI 69898 .cfa: $rsp 48 +
STACK CFI INIT 698b4 18 .cfa: $rsp .ra: .cfa 8 - ^
STACK CFI 698b4 .cfa: $rsp 48 +
STACK CFI INIT 698d2 1a .cfa: $rsp .ra: .cfa 8 - ^
STACK CFI 698d2 .cfa: $rsp 48 +
STACK CFI INIT 698f2 19 .cfa: $rsp .ra: .cfa 8 - ^
STACK CFI 698f2 .cfa: $rsp 48 +
STACK CFI INIT 69911 2c .cfa: $rsp .ra: .cfa 8 - ^
STACK CFI 69911 .cfa: $rsp 48 +
STACK CFI INIT 69948 2c .cfa: $rsp .ra: .cfa 8 - ^
STACK CFI 69948 .cfa: $rsp 48 +
STACK CFI INIT 69980 20 .cfa: $rsp .ra: .cfa 8 - ^
STACK CFI 69980 .cfa: $rsp 48 +
