MODULE windows x86 46CF025259674905B52599977D6EA79D3 basic-opt32.pdb
INFO CODE_ID 5D9C5ECF6C000 basic-opt32.dll
FUNC 6b20 b 0 test1(int *)
FUNC 6b30 1 0 test2(int,unsigned int)
FUNC 6b40 1 0 test3(int,unsigned int,short)
FUNC 6b50 1 0 test4(int,unsigned int,unsigned short,double *)
FUNC 6b60 41 0 test5(int *,unsigned int,unsigned short,double const *,std::basic_string<char,std::char_traits<char>,std::allocator<char> >)
FUNC 6bc0 1 0 test6(double const * const,std::basic_string<char,std::char_traits<char>,std::allocator<char> > const &,std::basic_string<char,std::char_traits<char>,std::allocator<char> > &&)
FUNC 6bd0 3 0 test7(void (*)(int,unsigned int,unsigned short,double *))
FUNC 6be0 3 0 test8(int (*)(void (*)(int,unsigned int,unsigned short,double *)))
FUNC 6bf0 3 0 test9(int (*)(int (*)(void (*)(int,unsigned int,unsigned short,double *))))
FUNC 6c00 3 0 test10(char * &)
FUNC 6c10 3 0 test_array(char * const,int (* const)[34],std::basic_string<char,std::char_traits<char>,std::allocator<char> > (* const)[34][56],double * (* const)[34][56][78])
FUNC 6c20 3 0 A::A()
FUNC 6c30 5 0 A::A(A &&)
FUNC 6c40 1 0 A::~A()
FUNC 6c50 3 0 A::meth1(int)
FUNC 6c60 3 0 A::meth1(double)
FUNC 6c70 3 0 A::meth1(short,signed char)
FUNC 6c80 3 0 A::meth2(int)
FUNC 6c90 5 0 A::meth2(double)
FUNC 6ca0 1 0 A::meth2(short,signed char)
FUNC 6cb0 7 0 A::meth4(A *,A::B &&)
FUNC 93d0 e 0 operator delete(void *,unsigned int)
FUNC 93e1 53 0 dllmain_crt_dispatch
FUNC 9448 10a 0 dllmain_crt_process_attach
FUNC 9594 92 0 dllmain_crt_process_detach
FUNC 964a 106 0 dllmain_dispatch
FUNC 9791 2b 0 dllmain_raw
FUNC 97c6 9 c _CRT_INIT
FUNC 97d1 23 c _DllMainCRTStartup
FUNC 97fc 5 0 operator delete(void *)
FUNC 9801 4d 0 __get_entropy
FUNC 9861 4b 0 __security_init_cookie
FUNC 98be 6 c DllMain
FUNC 98c4 c 0 __scrt_initialize_type_info()
FUNC 98d3 c 0 __scrt_uninitialize_type_info()
FUNC 98e2 6 0 __local_stdio_printf_options
FUNC 98e8 6 0 __local_stdio_scanf_options
FUNC 98ee 1d 0 __scrt_initialize_default_local_stdio_options
FUNC 9912 14 0 __crt_fast_decode_pointer<void (**)(void)>(void (** const)(void))
FUNC 992b 1d 0 __crt_fast_encode_pointer<void (**)(void)>(void (** const)(void))
FUNC 994f d 0 __crt_rotate_pointer_value(unsigned int,int)
FUNC 995f d 0 __scrt_narrow_argv_policy::configure_argv()
FUNC 996f 44 0 find_pe_section
FUNC 99c4 5 0 __scrt_narrow_environment_policy::initialize_environment()
FUNC 99c9 34 0 is_potentially_valid_image_base
FUNC 9a0a 7 0 NtCurrentTeb
FUNC 9a11 32 0 __scrt_acquire_startup_lock
FUNC 9a4f 2b 0 __scrt_dllmain_after_initialize_c
FUNC 9a84 e 0 __scrt_dllmain_before_initialize_c
FUNC 9a95 1f 0 __scrt_dllmain_crt_thread_attach
FUNC 9abb d 0 __scrt_dllmain_crt_thread_detach
FUNC 9acb 34 0 __scrt_dllmain_exception_filter
FUNC 9b0c 23 0 __scrt_dllmain_uninitialize_c
FUNC 9b37 d 0 __scrt_dllmain_uninitialize_critical
FUNC 9b47 39 0 __scrt_initialize_crt
FUNC 9b8e a5 0 __scrt_initialize_onexit_tables
FUNC 9c5c 94 0 __scrt_is_nonwritable_in_current_image
FUNC 9d15 1d 0 __scrt_release_startup_lock
FUNC 9d39 28 0 __scrt_uninitialize_crt
FUNC 9d6b 3b 0 _onexit
FUNC 9db4 31 0 at_quick_exit
FUNC 9df1 15 0 atexit
FUNC 9e0b 6 0 __scrt_get_dyn_tls_init_callback
FUNC 9e11 11a 0 __scrt_fastfail
FUNC 9f71 31 0 __scrt_get_show_window_mode
FUNC 9fae 5 0 __scrt_initialize_mta
FUNC 9fb3 3 0 __scrt_initialize_winrt
FUNC 9fb6 43 0 __scrt_is_managed_app
FUNC a009 c 0 __scrt_set_unhandled_exception_filter
FUNC a018 3 0 __scrt_stub_for_initialize_mta
FUNC a01b 41 4 __scrt_unhandled_exception_filter
FUNC a06c 8 4 _crt_debugger_hook
FUNC a076 2c 0 _RTC_Initialize
FUNC a0ad 2c 0 _RTC_Terminate
FUNC a0f0 46 0 _SEH_prolog4
FUNC a136 15 0 _SEH_epilog4
FUNC a161 1 0 _guard_check_icall_nop
FUNC a162 a 0 ReadNoFence
FUNC a16e a 0 ReadPointerNoFence
FUNC a17a 12 0 _guard_icall_checks_enforced
FUNC a190 197 0 __isa_available_init
FUNC a38c 4 0 _get_startup_argv_mode
FUNC a390 c 0 __scrt_is_ucrt_dll_in_use
FUNC a39f 11 0 __security_check_cookie
FUNC a3b4 28 0 __raise_securityfailure
FUNC a3e6 f9 0 __report_gsfailure
FUNC a51d c 0 __report_rangecheckfailure
FUNC a52c ce 0 __report_securityfailure
FUNC a62d 114 0 __report_securityfailureEx
PUBLIC a786 4 QueryPerformanceCounter
PUBLIC a78c 0 GetCurrentProcessId
PUBLIC a792 0 GetCurrentThreadId
PUBLIC a798 4 GetSystemTimeAsFileTime
PUBLIC a79e 4 InitializeSListHead
PUBLIC a7a4 0 IsDebuggerPresent
PUBLIC a7aa 4 UnhandledExceptionFilter
PUBLIC a7b0 4 SetUnhandledExceptionFilter
PUBLIC a7b6 4 GetStartupInfoW
PUBLIC a7bc 4 IsProcessorFeaturePresent
PUBLIC a7c2 4 GetModuleHandleW
PUBLIC a7c8 0 GetCurrentProcess
PUBLIC a7ce 8 TerminateProcess
FUNC a7e0 32 0 ValidateLocalCookies
FUNC a820 157 0 _except_handler4
FUNC a9cc 5 0 <lambda_02a71323d951a238fa4826e9f186893b>::<lambda_invoker_cdecl>
FUNC a9d1 9 0 <lambda_cea3005bd909f0fdd45a57e92f4e3309>::<lambda_invoker_cdecl>
FUNC a9dc 10 0 __crt_internal_free_policy::operator()<char>(char const * const)
FUNC a9f0 10 0 __crt_internal_free_policy::operator()<void>(void const * const)
FUNC aa04 12 0 __crt_interlocked_compare_exchange_pointer<char const ,char *,std::nullptr_t>(char const * const volatile *,char * const,std::nullptr_t)
FUNC aa1a a 0 __crt_interlocked_read_pointer<char const >(char const * const volatile *)
FUNC aa26 e 0 __crt_unique_heap_ptr<char,__crt_internal_free_policy>::__crt_unique_heap_ptr<char,__crt_internal_free_policy>(char * const)
FUNC aa37 e 0 __crt_unique_heap_ptr<void,__crt_internal_free_policy>::__crt_unique_heap_ptr<void,__crt_internal_free_policy>(void * const)
FUNC aa48 10 0 __crt_unique_heap_ptr<char,__crt_internal_free_policy>::~__crt_unique_heap_ptr<char,__crt_internal_free_policy>()
FUNC aa5c 10 0 __crt_unique_heap_ptr<void,__crt_internal_free_policy>::~__crt_unique_heap_ptr<void,__crt_internal_free_policy>()
FUNC aa70 6 0 <lambda_02a71323d951a238fa4826e9f186893b>::operator void (__cdecl*)(void * const)
FUNC aa76 6 0 <lambda_cea3005bd909f0fdd45a57e92f4e3309>::operator void * (__cdecl*)(unsigned int)
FUNC aa7c 7 0 __crt_unique_heap_ptr<char,__crt_internal_free_policy>::operator bool()
FUNC aa83 7 0 __crt_unique_heap_ptr<void,__crt_internal_free_policy>::operator bool()
FUNC aa8a 10 0 <lambda_02a71323d951a238fa4826e9f186893b>::operator()
FUNC aa9e 10 0 <lambda_cea3005bd909f0fdd45a57e92f4e3309>::operator()
FUNC aab2 a 0 __crt_interlocked_read_32(int const volatile *)
FUNC aabe 6 0 __crt_unique_heap_ptr<void,__crt_internal_free_policy>::detach()
FUNC aac4 3 0 __crt_unique_heap_ptr<char,__crt_internal_free_policy>::get()
FUNC aac7 3 0 __crt_unique_heap_ptr<void,__crt_internal_free_policy>::get()
FUNC aaca 7 0 __crt_unique_heap_ptr<char,__crt_internal_free_policy>::is_valid()
FUNC aad1 7 0 __crt_unique_heap_ptr<void,__crt_internal_free_policy>::is_valid()
FUNC aad8 10 0 __crt_unique_heap_ptr<char,__crt_internal_free_policy>::release()
FUNC aaec 10 0 __crt_unique_heap_ptr<void,__crt_internal_free_policy>::release()
FUNC ab00 3c 0 __std_type_info_compare
FUNC ab4b 23 0 __std_type_info_destroy_list
FUNC ab76 26 0 __std_type_info_hash
FUNC aba5 c3 0 __std_type_info_name
FUNC ac98 29 0 __vcrt_initialize
FUNC accb b 0 __vcrt_thread_attach
FUNC acd8 b 0 __vcrt_thread_detach
FUNC ace5 1f 0 __vcrt_uninitialize
FUNC ad0b 8 0 __vcrt_uninitialize_critical
FUNC ad15 1 0 init_memcpy_functions
FUNC ad20 15a 0 memset
FUNC aed0 90 0 _local_unwind4
FUNC af60 46 0 _unwind_handler4
FUNC afa8 28 4 _seh_longjmp_unwind4
FUNC afd0 17 0 _EH4_CallFilterFunc
FUNC afe8 19 0 _EH4_TransferToHandler
FUNC b004 1a 0 _EH4_GlobalUnwind2
FUNC b020 17 8 _EH4_LocalUnwind
FUNC b090 b 0 __except_get_jumpbuf_sp
FUNC b09d 30 0 __except_validate_context_record
FUNC b0d9 2d 0 __except_validate_jump_buffer
FUNC b111 39 0 __except_validate_jump_buffer_common
FUNC b158 6 0 _HeapManager::Block::Block()
FUNC b15e b2 0 DName::DName(char const * &,char)
FUNC b23c 16 0 DName::DName(DName const &)
FUNC b257 25 0 DName::DName(char)
FUNC b285 48 0 DName::DName(DName *)
FUNC b2df 33 0 DName::DName(char const *)
FUNC b31e 40 0 DName::DName(DNameStatus)
FUNC b36e a 0 DName::DName()
FUNC b37a 8c 0 DName::DName(__int64)
FUNC b429 66 0 DName::DName(unsigned __int64)
FUNC b4a8 9 0 DNameNode::DNameNode()
FUNC b4b3 6 0 Replicator::Replicator()
FUNC b4b9 9 0 `UnDecorator::getDecoratedName'::`2'::TrackRecursion::TrackRecursion
FUNC b4c4 4c 0 UnDecorator::UnDecorator(char const *,char * (*)(long),unsigned long)
FUNC b523 15 0 charNode::charNode(char)
FUNC b53d 28 0 pDNameNode::pDNameNode(DName *)
FUNC b56f 1f 0 pairNode::pairNode(DNameNode const *,DNameNode const *)
FUNC b595 59 0 pcharNode::pcharNode(char const *,int)
FUNC b604 7 0 `UnDecorator::getDecoratedName'::`2'::TrackRecursion::~TrackRecursion
FUNC b60b 15 0 operator new(unsigned int,_HeapManager &,int)
FUNC b625 16 0 DName::operator=(DName const &)
FUNC b640 25 0 DName::operator=(char)
FUNC b66e 42 0 DName::operator=(DName *)
FUNC b6c0 2b 0 DName::operator=(char const *)
FUNC b6f5 32 0 DName::operator=(DNameStatus)
FUNC b733 46 0 Replicator::operator[](int)
FUNC b78a 22 0 operator+(char,DName const &)
FUNC b7b4 22 0 operator+(char const *,DName const &)
FUNC b7de 22 0 operator+(DNameStatus,DName const &)
FUNC b808 22 0 DName::operator+(DName const &)
FUNC b832 22 0 DName::operator+(char)
FUNC b85c 22 0 DName::operator+(DName *)
FUNC b886 22 0 DName::operator+(char const *)
FUNC b8b0 22 0 DName::operator+(DNameStatus)
FUNC b8da 41 0 DName::operator+=(DName const &)
FUNC b92b 50 0 DName::operator+=(char)
FUNC b98f 65 0 DName::operator+=(DName *)
FUNC ba0d 61 0 DName::operator+=(char const *)
FUNC ba86 40 0 DName::operator+=(DNameStatus)
FUNC bad6 4a 0 Replicator::operator+=(DName const &)
FUNC bb32 1c 0 DName::operator|=(DName const &)
FUNC bb55 1d 0 _HeapManager::Constructor(void * (*)(unsigned int),void (*)(void *))
FUNC bb79 38 0 _HeapManager::Destructor()
FUNC bbbf 1f 0 UnDecorator::UScore(Tokens)
FUNC bbe5 46 0 DName::append(DNameNode const *)
FUNC bc3c cdd 0 UnDecorator::composeDeclaration(DName const &)
FUNC cc50 e 0 UnDecorator::doAccessSpecifiers()
FUNC cc61 e 0 UnDecorator::doAllocationLanguage()
FUNC cc72 e 0 UnDecorator::doAllocationModel()
FUNC cc83 e 0 UnDecorator::doEcsu()
FUNC cc94 e 0 UnDecorator::doEllipsis()
FUNC cca5 e 0 UnDecorator::doFunctionReturns()
FUNC ccb6 d 0 UnDecorator::doMSKeywords()
FUNC ccc6 e 0 UnDecorator::doMemberTypes()
FUNC ccd7 b 0 UnDecorator::doNameOnly()
FUNC cce4 b 0 UnDecorator::doNoIdentCharCheck()
FUNC ccf1 86 0 DName::doPchar(char const *,int)
FUNC cd98 e 0 UnDecorator::doPtr64()
FUNC cda9 e 0 UnDecorator::doRestrictionSpec()
FUNC cdba 12 0 UnDecorator::doThisTypes()
FUNC cdd0 e 0 UnDecorator::doThrowTypes()
FUNC cde1 b 0 UnDecorator::doTypeOnly()
FUNC cdee b 0 UnDecorator::doUnderScore()
FUNC cdfb f6 0 UnDecorator::getArgumentList()
FUNC cf2e ca 0 UnDecorator::getArgumentTypes()
FUNC d02a 1b1 0 UnDecorator::getArrayType(DName const &)
FUNC d247 98 0 UnDecorator::getBasedType()
FUNC d305 3df 0 UnDecorator::getBasicDataType(DName const &)
FUNC d7db df 0 UnDecorator::getCHPEName(char *,int)
FUNC d8f1 14 0 UnDecorator::getCallIndex()
FUNC d90a d3 0 UnDecorator::getCallingConvention()
FUNC da11 5ea 0 UnDecorator::getDataIndirectType(DName const &,char const *,DName const &,int)
FUNC e175 32 0 UnDecorator::getDataIndirectType()
FUNC e1b3 c5 0 UnDecorator::getDataType(DName *)
FUNC e2a9 242 0 UnDecorator::getDecoratedName()
FUNC e57b 11f 0 UnDecorator::getDimension(bool)
FUNC e6e1 54 0 UnDecorator::getDispatchTarget()
FUNC e74a 14 0 UnDecorator::getDisplacement()
FUNC e763 118 0 UnDecorator::getECSUDataType()
FUNC e8c1 11 0 UnDecorator::getECSUName()
FUNC e8d6 f0 0 UnDecorator::getEnumType()
FUNC ea02 1b7 0 UnDecorator::getExtendedDataIndirectType(char const * &,bool &,int)
FUNC ec26 67 0 UnDecorator::getExternalDataType(DName const &)
FUNC eca6 3d8 0 UnDecorator::getFunctionIndirectType(DName const &)
FUNC f174 14 0 UnDecorator::getGuardNumber()
FUNC f18d 20 0 DName::getLastChar()
FUNC f1b5 c 0 DNameStatusNode::getLastChar()
FUNC f1c4 4 0 charNode::getLastChar()
FUNC f1c8 e 0 pDNameNode::getLastChar()
FUNC f1d9 35 0 pairNode::getLastChar()
FUNC f21b 12 0 pcharNode::getLastChar()
FUNC f231 3f 0 UnDecorator::getLexicalFrame()
FUNC f27f 87 0 _HeapManager::getMemory(unsigned int,int)
FUNC f327 45 0 UnDecorator::getNoexcept()
FUNC f37d 61 0 UnDecorator::getNumberOfDimensions()
FUNC f3f6 658 0 UnDecorator::getOperatorName(bool,bool *)
FUNC fbe4 1e 0 UnDecorator::getPointerType(DName const &,DName const &)
FUNC fc09 1e 0 UnDecorator::getPointerTypeArray(DName const &,DName const &)
FUNC fc2e 1e4 0 UnDecorator::getPrimaryDataType(DName const &)
FUNC fe8b 129 0 UnDecorator::getPtrRefDataType(DName const &,int)
FUNC fffe fa 0 UnDecorator::getPtrRefType(DName const &,DName const &,char const *)
FUNC 10136 1c 0 UnDecorator::getReferenceType(DName const &,DName const &,char const *)
FUNC 10159 f9 0 UnDecorator::getRestrictionSpec()
FUNC 10290 2f 0 UnDecorator::getReturnType(DName *)
FUNC 102ca 394 0 UnDecorator::getScope()
FUNC 10743 d4 0 UnDecorator::getScopedName()
FUNC 1084c 51 0 UnDecorator::getSignedDimension()
FUNC 108b1 11 0 UnDecorator::getStorageConvention()
FUNC 108c6 2d 0 DName::getString(char *,char *)
FUNC 108fe 56 0 DName::getString(char *,int)
FUNC 10969 27 0 DNameStatusNode::getString(char *,char *)
FUNC 10999 15 0 charNode::getString(char *,char *)
FUNC 109b3 17 0 pDNameNode::getString(char *,char *)
FUNC 109cf 46 0 pairNode::getString(char *,char *)
FUNC 10a26 1b 0 pcharNode::getString(char *,char *)
FUNC 10a47 b0 0 UnDecorator::getStringEncoding(char const *,int)
FUNC 10b23 37 0 getStringHelper(char *,char const *,char const *,int)
FUNC 10b67 48 0 UnDecorator::getSymbolName()
FUNC 10bc1 29d 0 UnDecorator::getTemplateArgumentList()
FUNC 10f05 332 0 UnDecorator::getTemplateConstant()
FUNC 11303 162 0 UnDecorator::getTemplateName(bool)
FUNC 114bd 33 0 UnDecorator::getThisType()
FUNC 114fc 23 0 UnDecorator::getThrowTypes()
FUNC 11527 328 0 UnDecorator::getTypeEncoding()
FUNC 11919 c4 0 UnDecorator::getUndecoratedName(char *,int)
FUNC 11a0e 47 0 UnDecorator::getVCallThunkType()
FUNC 11a66 15 0 UnDecorator::getVbTableType(DName const &)
FUNC 11a80 54 0 UnDecorator::getVdispMapType(DName const &)
FUNC 11ae9 163 0 UnDecorator::getVfTableType(DName const &)
FUNC 11ca4 1ff 0 UnDecorator::getZName(bool,bool)
FUNC 11f22 b 0 UnDecorator::haveTemplateParameters()
FUNC 11f2f a 0 DName::isArray()
FUNC 11f3b a 0 DName::isComArray()
FUNC 11f47 8 0 DName::isEmpty()
FUNC 11f51 9 0 Replicator::isFull()
FUNC 11f5c a 0 DName::isNoTE()
FUNC 11f68 a 0 DName::isPinPtr()
FUNC 11f74 a 0 DName::isPtrRef()
FUNC 11f80 11 0 DName::isUDC()
FUNC 11f95 11 0 DName::isUDTThunk()
FUNC 11faa a 0 DName::isVCallThunk()
FUNC 11fb6 a 0 DName::isValid()
FUNC 11fc2 1f 0 DName::length()
FUNC 11fe8 4 0 DNameStatusNode::length()
FUNC 11fec 4 0 charNode::length()
FUNC 11ff0 e 0 pDNameNode::length()
FUNC 12001 46 0 pairNode::length()
FUNC 12058 4 0 pcharNode::length()
FUNC 1205c 1c 0 DNameStatusNode::make(DNameStatus)
FUNC 1207f ee 0 UnDecorator::parseDecoratedName()
FUNC 121a8 8 0 DName::setIsArray()
FUNC 121b2 8 0 DName::setIsComArray()
FUNC 121bc 8 0 DName::setIsNoTE()
FUNC 121c6 8 0 DName::setIsPinPtr()
FUNC 121d0 d 0 DName::setIsUDC()
FUNC 121e0 8 0 DName::setIsVCallThunk()
FUNC 121ea a 0 DName::setPtrRef()
FUNC 121f6 5 0 DName::status()
FUNC 121fb 21 0 und_memcpy
FUNC 12224 15 0 und_strlen
FUNC 1223e 31 0 und_strncmp
FUNC 1227b 23 0 __unDName
FUNC 122a6 9f 0 __unDNameEx
FUNC 1236c 2d 0 _vsprintf_s_l
FUNC 123a4 1c 0 sprintf_s
FUNC 123c7 5c 0 unDNameGenerateCHPE
FUNC 1243a 10 0 __crt_internal_free_policy::operator()<__vcrt_ptd>(__vcrt_ptd const * const)
FUNC 1244e e 0 __crt_unique_heap_ptr<__vcrt_ptd,__crt_internal_free_policy>::__crt_unique_heap_ptr<__vcrt_ptd,__crt_internal_free_policy>(__vcrt_ptd * const)
FUNC 1245f f 0 `anonymous namespace'::scoped_get_last_error_reset::scoped_get_last_error_reset
FUNC 12471 10 0 __crt_unique_heap_ptr<__vcrt_ptd,__crt_internal_free_policy>::~__crt_unique_heap_ptr<__vcrt_ptd,__crt_internal_free_policy>()
FUNC 12485 9 0 `anonymous namespace'::scoped_get_last_error_reset::~scoped_get_last_error_reset
FUNC 12490 7 0 __crt_unique_heap_ptr<__vcrt_ptd,__crt_internal_free_policy>::operator bool()
FUNC 12497 6 0 __crt_unique_heap_ptr<__vcrt_ptd,__crt_internal_free_policy>::detach()
FUNC 1249d 3 0 __crt_unique_heap_ptr<__vcrt_ptd,__crt_internal_free_policy>::get()
FUNC 124a0 7 0 __crt_unique_heap_ptr<__vcrt_ptd,__crt_internal_free_policy>::is_valid()
FUNC 124a7 10 0 __crt_unique_heap_ptr<__vcrt_ptd,__crt_internal_free_policy>::release()
FUNC 124bb 1a 0 store_and_initialize_ptd
FUNC 124db 1c 4 __vcrt_freefls
FUNC 124fe 36 0 __vcrt_freeptd
FUNC 12541 e 0 __vcrt_getptd
FUNC 12552 92 0 __vcrt_getptd_noexit
FUNC 12608 37 0 __vcrt_getptd_noinit
FUNC 1264c 33 0 __vcrt_initialize_ptd
FUNC 1268b 1b 0 __vcrt_uninitialize_ptd
FUNC 126ac 3c 0 __vcrt_initialize_locks
FUNC 126f7 15 0 __vcrt_lock
FUNC 12711 2f 0 __vcrt_uninitialize_locks
FUNC 1274b 15 0 __vcrt_unlock
FUNC 12765 6 0 __crt_fast_encoded_nullptr_t::operator<void> void *()
FUNC 1276b 14 0 __crt_fast_decode_pointer<void *>(void * const)
FUNC 12784 1d 0 __crt_fast_encode_pointer<void *>(void * const)
FUNC 127a8 d 0 __crt_interlocked_exchange_pointer<HINSTANCE__,HINSTANCE__ *>(HINSTANCE__ * const volatile *,HINSTANCE__ * const)
FUNC 127b8 d 0 __crt_interlocked_exchange_pointer<HINSTANCE__,void *>(HINSTANCE__ * const volatile *,void * const)
FUNC 127c8 d 0 __crt_interlocked_exchange_pointer<void,void *>(void * const volatile *,void * const)
FUNC 127d8 a 0 __crt_interlocked_read_pointer<HINSTANCE__>(HINSTANCE__ * const volatile *)
FUNC 127e4 a 0 __crt_interlocked_read_pointer<void>(void * const volatile *)
FUNC 127f0 9 0 __crt_fast_encode_pointer(std::nullptr_t)
FUNC 127fb 4 0 invalid_function_sentinel
FUNC 127ff 1a 0 try_get_FlsAlloc
FUNC 1281f 1a 0 try_get_FlsFree
FUNC 1283f 1a 0 try_get_FlsGetValue
FUNC 1285f 1a 0 try_get_FlsSetValue
FUNC 1287f 1a 0 try_get_InitializeCriticalSectionEx
FUNC 1289f c4 0 try_get_first_available_module
FUNC 12994 6f 0 try_get_function
FUNC 12a1e 4f 0 try_get_module
FUNC 12a80 22 0 try_get_proc_address_from_first_available_module
FUNC 12aaa 61 0 try_load_library_from_system_directory
FUNC 12b23 3b 0 __vcrt_FlsAlloc
FUNC 12b6c 3b 0 __vcrt_FlsFree
FUNC 12bb5 3b 0 __vcrt_FlsGetValue
FUNC 12bfe 3e 0 __vcrt_FlsSetValue
FUNC 12c4b 47 0 __vcrt_InitializeCriticalSectionEx
FUNC 12ca3 29 0 __vcrt_initialize_winapi_thunks
FUNC 12cd6 32 0 __vcrt_uninitialize_winapi_thunks
FUNC 12d14 6 0 __crt_fast_encoded_nullptr_t::operator<void > void (*)(void)()
FUNC 12d1a 1d 0 __crt_fast_encode_pointer<void (*)(void)>(void (*const)(void))
FUNC 12d3e b 0 __vcrt_initialize_pure_virtual_call_handler
FUNC 12d50 21 0 _global_unwind2
FUNC 12d71 45 0 __unwind_handler
FUNC 12db6 84 0 _local_unwind2
FUNC 12e3a 23 0 _abnormal_termination
FUNC 12e60 9 0 _NLG_Notify1
FUNC 12e6c 1f 0 _NLG_Notify
PUBLIC m 12e83 0 _NLG_Dispatch
FUNC 12e8b 3 0 _NLG_Call
PUBLIC 12e8d 0 _NLG_Return2
FUNC 12edd 14 0 __crt_fast_decode_pointer<void (*)(void)>(void (*const)(void))
FUNC 12ef6 d 0 __crt_interlocked_exchange_pointer<void ,void (*)(void)>(void (*const volatile *)(void),void (*const)(void))
FUNC 12f06 a 0 __crt_interlocked_read_pointer<void >(void (*const volatile *)(void))
FUNC 12f12 15 0 _get_purecall_handler
FUNC 12f2c 1c 0 _purecall
FUNC 12f4f 25 0 _set_purecall_handler
FUNC 12f7d 24 0 std::pair<__FrameHandler3::TryBlockMap::iterator,__FrameHandler3::TryBlockMap::iterator>::pair<__FrameHandler3::TryBlockMap::iterator,__FrameHandler3::TryBlockMap::iterator><__FrameHandler3::TryBlockMap::iterator &,__FrameHandler3::TryBlockMap::iterator &,0>(__FrameHandler3::TryBlockMap::iterator &,__FrameHandler3::TryBlockMap::iterator &)
FUNC 12faa 8 0 std::forward<__FrameHandler3::TryBlockMap::iterator &>(__FrameHandler3::TryBlockMap::iterator &)
FUNC 12fb4 14 0 __FrameHandler3::TryBlockMap::iterator::iterator(__FrameHandler3::TryBlockMap &,unsigned int)
FUNC 12fcd 82 0 __FrameHandler3::GetRangeOfTrysToCheck(__FrameHandler3::TryBlockMap &,int,int)
FUNC 1306f 5e 0 _CallCatchBlock2(EHRegistrationNode *,_s_FuncInfo const *,void *,int,unsigned long)
FUNC 130e4 db 0 _CallSETranslator(EHExceptionRecord *,EHRegistrationNode *,void *,void *,_s_FuncInfo const *,int,EHRegistrationNode *)
FUNC 131f5 30 0 _JumpToContinuation(void *,EHRegistrationNode *)
FUNC 13231 53 0 _UnwindNestedFrames(EHRegistrationNode *,EHExceptionRecord *)
FUNC 13298 3 0 __FrameHandler3::TryBlockMap::getFuncInfo()
FUNC 1329b 31 0 _CatchGuardHandler
FUNC 132d8 24 0 _CreateFrameInfo
FUNC 13305 45 0 _FindAndUnlinkFrame
FUNC 1335b 9d 0 _TranslatorGuardHandler
FUNC 1341f 36 10 __CxxFrameHandler
FUNC 13462 36 10 __CxxFrameHandler2
FUNC 134a5 36 10 __CxxFrameHandler3
FUNC 134e8 25 4 __CxxLongjmpUnwind
FUNC 13520 574 0 memcpy
FUNC 13bf1 13f 0 BuildCatchObjectHelperInternal<_s_HandlerType const >
FUNC 13d7f 99 0 BuildCatchObjectInternal<_s_HandlerType const >
FUNC 13e3e 80 0 CatchIt<__FrameHandler3>
FUNC 13ede 38e 0 FindHandler<__FrameHandler3>
FUNC 1434f 111 0 FindHandlerForForeignException<__FrameHandler3>
FUNC 144a4 8e 0 TypeMatchHelper<_s_HandlerType const >(_s_HandlerType const *,_s_CatchableType const *,_s_ThrowInfo const *)
FUNC 14555 102 0 __InternalCxxFrameHandler<__FrameHandler3>(EHExceptionRecord *,EHRegistrationNode *,_CONTEXT *,void *,_s_FuncInfo const *,int,EHRegistrationNode *,unsigned char)
FUNC 14697 17 0 __FrameHandler3::HandlerMap::HandlerMap(_s_TryBlockMapEntry const *,void *)
FUNC 146b3 14 0 __FrameHandler3::TryBlockMap::TryBlockMap(_s_FuncInfo const *,void *)
FUNC 146cc 1b 0 std::bad_exception::bad_exception(std::bad_exception const &)
FUNC 146ed 18 0 std::bad_exception::bad_exception()
FUNC 1470b 2c 0 std::exception::exception(std::exception const &)
FUNC 14742 1d 0 std::exception::exception(char const * const,int)
FUNC 14766 14 0 __FrameHandler3::HandlerMap::iterator::iterator(__FrameHandler3::HandlerMap &,unsigned int)
FUNC 1477f 11 0 std::bad_exception::~bad_exception()
FUNC 14794 11 0 std::exception::~exception()
FUNC 147a9 13 0 __FrameHandler3::HandlerMap::iterator::operator==(__FrameHandler3::HandlerMap::iterator const &)
FUNC 147c0 1f 0 type_info::operator==(type_info const &)
FUNC 147e6 13 0 __FrameHandler3::HandlerMap::iterator::operator!=(__FrameHandler3::HandlerMap::iterator const &)
FUNC 147fd c 0 __FrameHandler3::HandlerMap::iterator::operator*()
FUNC 1480c c 0 __FrameHandler3::TryBlockMap::iterator::operator*()
FUNC 1481b 6 0 __FrameHandler3::HandlerMap::iterator::operator++()
FUNC 14821 6 0 __FrameHandler3::TryBlockMap::iterator::operator++()
FUNC 14827 13 0 __FrameHandler3::TryBlockMap::iterator::operator<(__FrameHandler3::TryBlockMap::iterator const &)
FUNC 1483e 2d 0 std::bad_exception::`scalar deleting destructor'(unsigned int)
FUNC 14876 2d 0 std::exception::`scalar deleting destructor'(unsigned int)
FUNC 148ae 5 0 __FrameHandler3::BuildCatchObject(EHExceptionRecord *,void *,_s_HandlerType const *,_s_CatchableType const *)
FUNC 148b3 9 0 __FrameHandler3::BuildCatchObjectHelper(EHExceptionRecord *,void *,_s_HandlerType const *,_s_CatchableType const *)
FUNC 148be 1c4 0 CallCatchBlock
FUNC 14af3 3a 0 CallUnexpected
FUNC 14b3b 4a 0 ExFilterRethrow
FUNC 14b97 18 0 __FrameHandler3::FrameUnwindToEmptyState(EHRegistrationNode *,void *,_s_FuncInfo const *)
FUNC 14bb5 e8 0 __FrameHandler3::FrameUnwindToState(EHRegistrationNode *,void *,_s_FuncInfo const *,int)
FUNC 14cd7 b 0 __FrameHandler3::GetMaxState(void *,_s_FuncInfo const *)
FUNC 14ce4 9a 0 IsInExceptionSpec
FUNC 14da4 39 0 Is_bad_exception_allowed
FUNC 14deb 9 0 __FrameHandler3::TypeMatch(_s_HandlerType const *,_s_CatchableType const *,_s_ThrowInfo const *)
FUNC 14df6 10 0 _CallMemberFunction1(void * const,void * const,void * const)
FUNC 14e0a 13 0 _CallMemberFunction2(void * const,void * const,void * const,int)
FUNC 14e21 c 0 _ValidateExecute(int (*)(void))
FUNC 14e30 c 0 _ValidateRead(void const *,unsigned int)
FUNC 14e3f c 0 _ValidateWrite(void *,unsigned int)
FUNC 14e4e 10 0 __FrameHandler3::HandlerMap::begin()
FUNC 14e62 11 0 __FrameHandler3::HandlerMap::end()
FUNC 14e77 b 0 __FrameHandler3::getESTypes(_s_FuncInfo const *)
FUNC 14e84 e 0 __FrameHandler3::HandlerMap::getLastEntry()
FUNC 14e95 f 0 __FrameHandler3::getMagicNum(_s_FuncInfo const *)
FUNC 14ea7 6 0 __FrameHandler3::TryBlockMap::getNumTryBlocks()
FUNC 14ead d 0 __FrameHandler3::isEHs(_s_FuncInfo const *)
FUNC 14ebd 10 0 __FrameHandler3::isNoExcept(_s_FuncInfo const *)
FUNC 14ed1 d 0 std::exception::what()
FUNC 14ee1 5 0 __BuildCatchObject
FUNC 14ee6 9 0 __BuildCatchObjectHelper
FUNC 14ef1 9 0 __TypeMatch
FUNC 14efc e 0 __vcrt_EncodePointer
FUNC 14f10 4c c _CallSettingFrame
PUBLIC 14f37 0 _NLG_Return
FUNC 14f6f 14 0 get_unexpected_or_default
FUNC 14f88 12 0 _get_unexpected
FUNC 14f9e 1e 0 set_unexpected
FUNC 14fc3 1d 0 unexpected
FUNC 14fe7 1d 0 __FrameHandler3::GetCurrentState(EHRegistrationNode *,void *,_s_FuncInfo const *)
FUNC 1500b e 0 __FrameHandler3::SetState(EHRegistrationNode *,_s_FuncInfo const *,int)
FUNC 1501c a0 0 __DestructExceptionObject
FUNC 150e4 d 0 _CallMemberFunction0(void * const,void * const)
FUNC 150f4 4 0 type_info::raw_name()
FUNC 150f8 26 0 _IsExceptionObjectToBeDestroyed
FUNC 15127 d 0 _SetWinRTOutOfMemoryExceptionCallback
FUNC 15137 25 0 __AdjustPointer
FUNC 15165 45 0 __FrameUnwindFilter
FUNC 151bb 4c 0 __GetPlatformExceptionInfo
FUNC 1521a 9 0 __current_exception
FUNC 15225 9 0 __current_exception_context
FUNC 15230 9 0 __processing_throw
FUNC 1523b 5 0 __std_terminate
FUNC 15240 a4 0 _is_exception_typeof
FUNC 1530d 10 0 __crt_public_free_policy::operator()<char>(char const * const)
FUNC 15321 e 0 __crt_unique_heap_ptr<char,__crt_public_free_policy>::__crt_unique_heap_ptr<char,__crt_public_free_policy>(char * const)
FUNC 15332 10 0 __crt_unique_heap_ptr<char,__crt_public_free_policy>::~__crt_unique_heap_ptr<char,__crt_public_free_policy>()
FUNC 15346 7 0 __crt_unique_heap_ptr<char,__crt_public_free_policy>::operator bool()
FUNC 1534d 6 0 __crt_unique_heap_ptr<char,__crt_public_free_policy>::detach()
FUNC 15353 3 0 __crt_unique_heap_ptr<char,__crt_public_free_policy>::get()
FUNC 15356 7 0 __crt_unique_heap_ptr<char,__crt_public_free_policy>::is_valid()
FUNC 1535d 10 0 __crt_unique_heap_ptr<char,__crt_public_free_policy>::release()
FUNC 15371 63 0 __std_exception_copy
FUNC 153ec 1f 0 __std_exception_destroy
FUNC 15412 6d 8 _CxxThrowException
FUNC 154a0 574 0 memmove
FUNC 15b71 16 0 __crt_fast_decode_pointer<void (*)(wchar_t const *,wchar_t const *,wchar_t const *,unsigned int,unsigned int)>(void (*const)(wchar_t const *,wchar_t const *,wchar_t const *,unsigned int,unsigned int))
FUNC 15b8c 1f 0 __crt_fast_encode_pointer<void (*)(wchar_t const *,wchar_t const *,wchar_t const *,unsigned int,unsigned int)>(void (*const)(wchar_t const *,wchar_t const *,wchar_t const *,unsigned int,unsigned int))
FUNC 15bb2 11 0 __crt_state_management::dual_state_global<void (*)(wchar_t const *,wchar_t const *,wchar_t const *,unsigned int,unsigned int)>::initialize_from_array<void (*[1])(wchar_t const *,wchar_t const *,wchar_t const *,unsigned int,unsigned int)>(void (*(&)[1])(wchar_t const *,wchar_t const *,wchar_t const *,unsigned int,unsigned int))
FUNC 15bc7 3 0 __crt_state_management::dual_state_global<void (*)(wchar_t const *,wchar_t const *,wchar_t const *,unsigned int,unsigned int)>::dangerous_get_state_array()
FUNC 15bca 3 0 __crt_state_management::get_current_state_index()
FUNC 15bcd 3 0 __crt_state_management::dual_state_global<void (*)(wchar_t const *,wchar_t const *,wchar_t const *,unsigned int,unsigned int)>::value()
FUNC 15bd0 139 0 __acrt_call_reportfault
FUNC 15d57 f 0 __acrt_initialize_invalid_parameter_handler
FUNC 15d69 13 0 _get_invalid_parameter_handler
FUNC 15d80 11 0 _get_thread_local_invalid_parameter_handler
FUNC 15d95 64 0 _invalid_parameter
FUNC 15e12 10 0 _invalid_parameter_noinfo
FUNC 15e26 1d 0 _invalid_parameter_noinfo_noreturn
FUNC 15e4a 34 14 _invoke_watson
FUNC 15e8b 30 0 _set_invalid_parameter_handler
FUNC 15ec7 1d 0 _set_thread_local_invalid_parameter_handler
FUNC 15eeb 45 0 _initterm
FUNC 15f41 2e 0 _initterm_e
FUNC 15f7a 1b 0 free
FUNC 15f9b 24 0 xcptlookup
FUNC 15fc8 20 0 _seh_filter_dll
FUNC 15ff0 158 0 _seh_filter_exe
FUNC 1619e 6 0 __crt_fast_encoded_nullptr_t::operator<void > void (*)(void *,unsigned long,void *)()
FUNC 161a4 4d 0 __crt_seh_guarded_call<void>::operator()<<lambda_03b1d95aef87969028cfba75ccab2455>,<lambda_6e4b09c48022b2350581041d5f6b0c4c> &,<lambda_22bdf7517842c4b3e53723af5aa32b9e> >
FUNC 16204 26 0 __acrt_lock_and_call<<lambda_6e4b09c48022b2350581041d5f6b0c4c> >
FUNC 16233 16 0 __crt_fast_decode_pointer<void (*)(void *,unsigned long,void *)>(void (*const)(void *,unsigned long,void *))
FUNC 1624e 1f 0 __crt_fast_encode_pointer<void (*)(void *,unsigned long,void *)>(void (*const)(void *,unsigned long,void *))
FUNC 16274 13 0 __crt_get_proc_address<void (*)(unsigned int)>(HINSTANCE__ * const,char const * const)
FUNC 1628b d 0 __crt_interlocked_read<long>(long const volatile *)
FUNC 1629b 12 0 <lambda_03b1d95aef87969028cfba75ccab2455>::<lambda_03b1d95aef87969028cfba75ccab2455>
FUNC 162b1 12 0 <lambda_22bdf7517842c4b3e53723af5aa32b9e>::<lambda_22bdf7517842c4b3e53723af5aa32b9e>
FUNC 162c7 1c 0 <lambda_6e4b09c48022b2350581041d5f6b0c4c>::<lambda_6e4b09c48022b2350581041d5f6b0c4c>
FUNC 162ea 10 0 __crt_unique_handle_t<__crt_hmodule_traits>::__crt_unique_handle_t<__crt_hmodule_traits>(HINSTANCE__ * const)
FUNC 162fe 17 0 __crt_unique_handle_t<__crt_hmodule_traits>::~__crt_unique_handle_t<__crt_hmodule_traits>()
FUNC 1631a 9 0 <lambda_03b1d95aef87969028cfba75ccab2455>::operator()
FUNC 16325 9 0 <lambda_22bdf7517842c4b3e53723af5aa32b9e>::operator()
FUNC 16330 da 0 <lambda_6e4b09c48022b2350581041d5f6b0c4c>::operator()
FUNC 16440 4 0 __acrt_select_exit_lock()
FUNC 16444 13 0 atexit_exception_filter
FUNC 1645b 17 0 __crt_unique_handle_t<__crt_hmodule_traits>::close()
FUNC 16477 15 0 __crt_hmodule_traits::close(HINSTANCE__ *)
FUNC 16491 64 0 common_exit
FUNC 1650e 42 0 exit_or_terminate_process
FUNC 16560 3 0 __crt_unique_handle_t<__crt_hmodule_traits>::get()
FUNC 16563 3 0 __crt_unique_handle_t<__crt_hmodule_traits>::get_address_of()
FUNC 16566 3 0 __crt_hmodule_traits::get_invalid_value()
FUNC 16569 43 0 is_managed_app
FUNC 165bc 22 0 should_call_terminate_process
FUNC 165e6 53 0 try_cor_exit_process
FUNC 1664d 16 0 _Exit
FUNC 16668 f 0 __acrt_initialize_thread_local_exit_callback
FUNC 1667a f 0 _c_exit
FUNC 1668c f 0 _cexit
FUNC 1669e 16 0 _exit
FUNC 166b9 7 0 _is_c_termination_complete
FUNC 166c0 26 0 _register_thread_local_exe_atexit_callback
FUNC 166ef 16 0 exit
FUNC 1670a 16 0 quick_exit
FUNC 16725 12 0 __crt_internal_free_policy::operator()<unsigned char>(unsigned char const * const)
FUNC 1673b 12 0 __crt_internal_free_policy::operator()<char *>(char * const * const)
FUNC 16751 12 0 __crt_internal_free_policy::operator()<wchar_t *>(wchar_t * const * const)
FUNC 16767 136 0 common_configure_argv<char>
FUNC 168ea 12f 0 common_configure_argv<wchar_t>
FUNC 16a64 1c 0 __crt_char_traits<char>::get_module_file_name<std::nullptr_t,char (&)[261],int>(std::nullptr_t &&,char (&)[261],int &&)
FUNC 16a87 1a 0 __crt_char_traits<wchar_t>::get_module_file_name<std::nullptr_t,wchar_t (&)[261],int>(std::nullptr_t &&,wchar_t (&)[261],int &&)
FUNC 16aa7 177 0 parse_command_line<char>
FUNC 16c7b 195 0 parse_command_line<wchar_t>
FUNC 16e75 11 0 __crt_char_traits<char>::set_program_name<char *>(char * &&)
FUNC 16e8a 11 0 __crt_char_traits<wchar_t>::set_program_name<wchar_t *>(wchar_t * &&)
FUNC 16e9f 10 0 <lambda_a36aafc41185bea294aaaa3896c79ecc>::<lambda_a36aafc41185bea294aaaa3896c79ecc>
FUNC 16eb3 10 0 <lambda_df1553121bfa390f1154bd84936f2730>::<lambda_df1553121bfa390f1154bd84936f2730>
FUNC 16ec7 10 0 __crt_unique_heap_ptr<unsigned char,__crt_internal_free_policy>::__crt_unique_heap_ptr<unsigned char,__crt_internal_free_policy>(unsigned char * const)
FUNC 16edb 10 0 __crt_unique_heap_ptr<char *,__crt_internal_free_policy>::__crt_unique_heap_ptr<char *,__crt_internal_free_policy>(char * * const)
FUNC 16eef 10 0 __crt_unique_heap_ptr<wchar_t *,__crt_internal_free_policy>::__crt_unique_heap_ptr<wchar_t *,__crt_internal_free_policy>(wchar_t * * const)
FUNC 16f03 12 0 __crt_unique_heap_ptr<unsigned char,__crt_internal_free_policy>::~__crt_unique_heap_ptr<unsigned char,__crt_internal_free_policy>()
FUNC 16f19 12 0 __crt_unique_heap_ptr<char *,__crt_internal_free_policy>::~__crt_unique_heap_ptr<char *,__crt_internal_free_policy>()
FUNC 16f2f 12 0 __crt_unique_heap_ptr<wchar_t *,__crt_internal_free_policy>::~__crt_unique_heap_ptr<wchar_t *,__crt_internal_free_policy>()
FUNC 16f45 7 0 __crt_unique_heap_ptr<unsigned char,__crt_internal_free_policy>::operator bool()
FUNC 16f4c 16 0 <lambda_a36aafc41185bea294aaaa3896c79ecc>::operator()
FUNC 16f67 16 0 <lambda_df1553121bfa390f1154bd84936f2730>::operator()
FUNC 16f82 6 0 __crt_unique_heap_ptr<unsigned char,__crt_internal_free_policy>::detach()
FUNC 16f88 6 0 __crt_unique_heap_ptr<char *,__crt_internal_free_policy>::detach()
FUNC 16f8e 6 0 __crt_unique_heap_ptr<wchar_t *,__crt_internal_free_policy>::detach()
FUNC 16f94 5 4 do_locale_initialization
FUNC 16f99 3 4 do_locale_initialization
FUNC 16f9c b 0 expand_argv_wildcards
FUNC 16fa9 b 0 expand_argv_wildcards
FUNC 16fb6 3 0 __crt_unique_heap_ptr<unsigned char,__crt_internal_free_policy>::get()
FUNC 16fb9 3 0 __crt_unique_heap_ptr<char *,__crt_internal_free_policy>::get()
FUNC 16fbc 3 0 __crt_unique_heap_ptr<wchar_t *,__crt_internal_free_policy>::get()
FUNC 16fbf 3 0 __crt_unique_heap_ptr<char *,__crt_internal_free_policy>::get_address_of()
FUNC 16fc2 3 0 __crt_unique_heap_ptr<wchar_t *,__crt_internal_free_policy>::get_address_of()
FUNC 16fc5 6 4 get_argv
FUNC 16fcb 6 4 get_argv
FUNC 16fd1 6 4 get_command_line
FUNC 16fd7 6 4 get_command_line
FUNC 16fdd 7 0 __crt_unique_heap_ptr<unsigned char,__crt_internal_free_policy>::is_valid()
FUNC 16fe4 12 0 __crt_unique_heap_ptr<unsigned char,__crt_internal_free_policy>::release()
FUNC 16ffa 12 0 __crt_unique_heap_ptr<char *,__crt_internal_free_policy>::release()
FUNC 17010 12 0 __crt_unique_heap_ptr<wchar_t *,__crt_internal_free_policy>::release()
FUNC 17026 17 0 should_copy_another_character
FUNC 17042 3 4 should_copy_another_character
FUNC 17045 4f 0 __acrt_allocate_buffer_for_argv
FUNC 170a7 b 0 _configure_narrow_argv
FUNC 170b4 b 0 _configure_wide_argv
FUNC 170c1 f 0 _set_pgmptr
FUNC 170d3 f 0 _set_wpgmptr
FUNC 170e5 12 0 __crt_internal_free_policy::operator()<wchar_t>(wchar_t const * const)
FUNC 170fb 14 0 common_get_initial_environment<char>
FUNC 17114 14 0 common_get_initial_environment<wchar_t>
FUNC 1712d 2c 0 common_get_or_create_environment_nolock<char>
FUNC 17164 2c 0 common_get_or_create_environment_nolock<wchar_t>
FUNC 1719b 53 0 common_initialize_environment_nolock<char>
FUNC 17202 4e 0 common_initialize_environment_nolock<wchar_t>
FUNC 17263 34 0 count_variables_in_environment_block<char>
FUNC 172a4 49 0 count_variables_in_environment_block<wchar_t>
FUNC 172ff d0 0 create_environment<char>
FUNC 17403 10d 0 create_environment<wchar_t>
FUNC 17553 2f 0 free_environment<char>
FUNC 1758d 2f 0 free_environment<wchar_t>
FUNC 175c7 5 0 __crt_char_traits<char>::get_environment_from_os<>()
FUNC 175cc 5 0 __crt_char_traits<wchar_t>::get_environment_from_os<>()
FUNC 175d1 83 0 initialize_environment_by_cloning_nolock<char>
FUNC 17674 7d 0 initialize_environment_by_cloning_nolock<wchar_t>
FUNC 17710 18 0 __crt_char_traits<char>::set_variable_in_environment_nolock<char *,int>(char * &&,int &&)
FUNC 1772e 18 0 __crt_char_traits<wchar_t>::set_variable_in_environment_nolock<wchar_t *,int>(wchar_t * &&,int &&)
FUNC 1774c 1e 0 __crt_char_traits<char>::tcscpy_s<char *,unsigned int const &,char * &>(char * &&,unsigned int const &,char * &)
FUNC 17771 1e 0 __crt_char_traits<wchar_t>::tcscpy_s<wchar_t *,unsigned int const &,wchar_t * &>(wchar_t * &&,unsigned int const &,wchar_t * &)
FUNC 17796 18 0 __crt_char_traits<char>::tcslen<char * &>(char * &)
FUNC 177b4 1e 0 __crt_char_traits<wchar_t>::tcslen<wchar_t * &>(wchar_t * &)
FUNC 177d9 29 0 __crt_state_management::dual_state_global<char * *>::uninitialize<void (&)(char * * &)>(void (&)(char * * &))
FUNC 1780c 29 0 __crt_state_management::dual_state_global<wchar_t * *>::uninitialize<void (&)(wchar_t * * &)>(void (&)(wchar_t * * &))
FUNC 1783f 1b 0 uninitialize_environment_internal<char>
FUNC 17860 1b 0 uninitialize_environment_internal<wchar_t>
FUNC 17881 10 0 __crt_unique_heap_ptr<wchar_t,__crt_internal_free_policy>::__crt_unique_heap_ptr<wchar_t,__crt_internal_free_policy>(wchar_t * const)
FUNC 17895 12 0 __crt_unique_heap_ptr<wchar_t,__crt_internal_free_policy>::~__crt_unique_heap_ptr<wchar_t,__crt_internal_free_policy>()
FUNC 178ab 7 0 __crt_unique_heap_ptr<char *,__crt_internal_free_policy>::operator bool()
FUNC 178b2 7 0 __crt_unique_heap_ptr<wchar_t *,__crt_internal_free_policy>::operator bool()
FUNC 178b9 7 0 __crt_unique_heap_ptr<wchar_t,__crt_internal_free_policy>::operator bool()
FUNC 178c0 1c 0 __crt_compute_required_transform_buffer_count(unsigned int,char const * const)
FUNC 178e3 1e 0 __crt_compute_required_transform_buffer_count(unsigned int,wchar_t const * const)
FUNC 17908 1f 0 __crt_transform_string(unsigned int,char const * const,wchar_t * const,unsigned int)
FUNC 1792e 22 0 __crt_transform_string(unsigned int,wchar_t const * const,char * const,unsigned int)
FUNC 17958 6 0 __crt_unique_heap_ptr<char,__crt_internal_free_policy>::detach()
FUNC 1795e 6 0 __crt_unique_heap_ptr<wchar_t,__crt_internal_free_policy>::detach()
FUNC 17964 3 0 __crt_unique_heap_ptr<wchar_t,__crt_internal_free_policy>::get()
FUNC 17967 6 4 get_dual_state_environment_nolock
FUNC 1796d 6 4 get_dual_state_environment_nolock
FUNC 17973 6 4 get_environment_nolock
FUNC 17979 6 4 get_environment_nolock
FUNC 1797f 6 4 get_initial_environment
FUNC 17985 6 4 get_initial_environment
FUNC 1798b 26 0 __crt_state_management::dual_state_global<char * *>::initialize(char * * const)
FUNC 179ba 26 0 __crt_state_management::dual_state_global<wchar_t * *>::initialize(wchar_t * * const)
FUNC 179e9 7 0 __crt_unique_heap_ptr<char *,__crt_internal_free_policy>::is_valid()
FUNC 179f0 7 0 __crt_unique_heap_ptr<wchar_t *,__crt_internal_free_policy>::is_valid()
FUNC 179f7 7 0 __crt_unique_heap_ptr<wchar_t,__crt_internal_free_policy>::is_valid()
FUNC 179fe 5 4 pre_initialize
FUNC 17a03 3 4 pre_initialize
FUNC 17a06 12 0 __crt_unique_heap_ptr<wchar_t,__crt_internal_free_policy>::release()
FUNC 17a1c 3 0 __crt_state_management::dual_state_global<char * *>::value()
FUNC 17a1f 3 0 __crt_state_management::dual_state_global<wchar_t * *>::value()
FUNC 17a22 5 0 __dcrt_get_or_create_narrow_environment_nolock
FUNC 17a27 5 0 __dcrt_get_or_create_wide_environment_nolock
FUNC 17a2c 37 0 __dcrt_uninitialize_environments_nolock
FUNC 17a70 6 0 __p__environ
FUNC 17a76 6 0 __p__wenviron
FUNC 17a7c 14 0 _get_initial_narrow_environment
FUNC 17a95 14 0 _get_initial_wide_environment
FUNC 17aae 5 0 _initialize_narrow_environment
FUNC 17ab3 5 0 _initialize_wide_environment
FUNC 17ab8 22 0 _invoke_watson_if_error
FUNC 17ae2 6 0 __crt_fast_encoded_nullptr_t::operator<void (*)(void)> void (**)(void)()
FUNC 17ae8 12 0 __crt_internal_free_policy::operator()<void (*)(void)>(void (*const * const)(void))
FUNC 17afe 5b 0 __crt_seh_guarded_call<int>::operator()<<lambda_69a2805e680e0e292e8ba93315fe43a8>,<lambda_f03950bc5685219e0bcd2087efbe011e> &,<lambda_03fcd07e894ec930e3f35da366ca99d6> >
FUNC 17b6f 5b 0 __crt_seh_guarded_call<int>::operator()<<lambda_8e746cf0007f6ed984d6f78af1fec997>,<lambda_22ebabd17bc4fa466a2aca6d8deb888d> &,<lambda_18ed0c0b38a6dc0daf1e7ac6d6adf05e> >
FUNC 17be0 26 0 __acrt_lock_and_call<<lambda_22ebabd17bc4fa466a2aca6d8deb888d> >
FUNC 17c0f 26 0 __acrt_lock_and_call<<lambda_f03950bc5685219e0bcd2087efbe011e> >
FUNC 17c3e 1f 0 __crt_fast_encode_pointer<int (*)(void)>(int (*const)(void))
FUNC 17c64 12 0 <lambda_03fcd07e894ec930e3f35da366ca99d6>::<lambda_03fcd07e894ec930e3f35da366ca99d6>
FUNC 17c7a 12 0 <lambda_18ed0c0b38a6dc0daf1e7ac6d6adf05e>::<lambda_18ed0c0b38a6dc0daf1e7ac6d6adf05e>
FUNC 17c90 16 0 <lambda_22ebabd17bc4fa466a2aca6d8deb888d>::<lambda_22ebabd17bc4fa466a2aca6d8deb888d>
FUNC 17cab 12 0 <lambda_69a2805e680e0e292e8ba93315fe43a8>::<lambda_69a2805e680e0e292e8ba93315fe43a8>
FUNC 17cc1 12 0 <lambda_8e746cf0007f6ed984d6f78af1fec997>::<lambda_8e746cf0007f6ed984d6f78af1fec997>
FUNC 17cd7 10 0 <lambda_f03950bc5685219e0bcd2087efbe011e>::<lambda_f03950bc5685219e0bcd2087efbe011e>
FUNC 17ceb 10 0 __crt_unique_heap_ptr<void (*)(void),__crt_internal_free_policy>::__crt_unique_heap_ptr<void (*)(void),__crt_internal_free_policy>(void (** const)(void))
FUNC 17cff 12 0 __crt_unique_heap_ptr<void (*)(void),__crt_internal_free_policy>::~__crt_unique_heap_ptr<void (*)(void),__crt_internal_free_policy>()
FUNC 17d15 3 0 __crt_state_management::scoped_global_state_reset::~scoped_global_state_reset()
FUNC 17d18 9 0 <lambda_03fcd07e894ec930e3f35da366ca99d6>::operator()
FUNC 17d23 9 0 <lambda_18ed0c0b38a6dc0daf1e7ac6d6adf05e>::operator()
FUNC 17d2e 129 0 <lambda_22ebabd17bc4fa466a2aca6d8deb888d>::operator()
FUNC 17ea1 9 0 <lambda_69a2805e680e0e292e8ba93315fe43a8>::operator()
FUNC 17eac 9 0 <lambda_8e746cf0007f6ed984d6f78af1fec997>::operator()
FUNC 17eb7 da 0 <lambda_f03950bc5685219e0bcd2087efbe011e>::operator()
FUNC 17fc7 6 0 __crt_unique_heap_ptr<void (*)(void),__crt_internal_free_policy>::detach()
FUNC 17fcd 12 0 __crt_unique_heap_ptr<void (*)(void),__crt_internal_free_policy>::release()
FUNC 17fe3 16 0 _crt_at_quick_exit
FUNC 17ffe 16 0 _crt_atexit
FUNC 18019 2d 0 _execute_onexit_table
FUNC 18051 29 0 _initialize_onexit_table
FUNC 18084 33 0 _register_onexit_function
FUNC 180c3 3 4 report_memory_leaks
FUNC 180c6 d 0 initialize_global_variables
FUNC 180d6 1a 0 initialize_c
FUNC 180f6 3 4 uninitialize_c
FUNC 180f9 3 0 initialize_environment
FUNC 180fc 8 4 uninitialize_environment
FUNC 18106 3 0 initialize_global_state_isolation
FUNC 18109 3 4 uninitialize_global_state_isolation
FUNC 1810c 2e 0 initialize_pointers
FUNC 18145 9 4 uninitialize_vcruntime
FUNC 18150 17 0 uninitialize_allocated_memory
FUNC 1816c 50 4 uninitialize_allocated_io_buffers
FUNC 181d0 24 0 __crt_state_management::dual_state_global<__crt_multibyte_data *>::uninitialize<<lambda_af42a3ee9806e9a7305d451646e05244> >
FUNC 181fd 2e 0 <lambda_af42a3ee9806e9a7305d451646e05244>::operator()
FUNC 18236 b 0 __acrt_stdio_is_initialized()
FUNC 18243 26 0 __crt_state_management::dual_state_global<__crt_locale_data *>::initialize(__crt_locale_data * const)
FUNC 18272 12 0 __acrt_initialize
FUNC 18288 b 0 __acrt_thread_attach
FUNC 18295 8 0 __acrt_thread_detach
FUNC 1829f 30 0 __acrt_uninitialize
FUNC 182db 12 0 __acrt_uninitialize_critical
FUNC 182f1 16 0 get_terminate_or_default
FUNC 1830c 12 0 _get_terminate
FUNC 18322 20 0 set_terminate
FUNC 1834a 3c 0 terminate
FUNC 18395 b 0 malloc
FUNC 183a2 5a 0 common_tcscpy_s<char>
FUNC 18412 5a 0 strcpy_s
FUNC 18482 23 0 __crt_stdio_output::format_validation_base<char,__crt_stdio_output::stream_output_adapter<char> >::format_validation_base<char,__crt_stdio_output::stream_output_adapter<char> ><__crt_stdio_output::stream_output_adapter<char> const &,unsigned __int64 const &,char const * const &,__crt_locale_pointers * const &,char * const &>(__crt_stdio_output::stream_output_adapter<char> const &,unsigned __int64 const &,char const * const &,__crt_locale_pointers * const &,char * const &)
FUNC 184ad 48 0 __crt_stdio_output::positional_parameter_base<char,__crt_stdio_output::stream_output_adapter<char> >::positional_parameter_base<char,__crt_stdio_output::stream_output_adapter<char> ><__crt_stdio_output::stream_output_adapter<char> const &,unsigned __int64 const &,char const * const &,__crt_locale_pointers * const &,char * const &>(__crt_stdio_output::stream_output_adapter<char> const &,unsigned __int64 const &,char const * const &,__crt_locale_pointers * const &,char * const &)
FUNC 18507 35 0 __crt_stdio_output::standard_base<char,__crt_stdio_output::stream_output_adapter<char> >::standard_base<char,__crt_stdio_output::stream_output_adapter<char> ><__crt_stdio_output::stream_output_adapter<char> const &,unsigned __int64 const &,char const * const &,__crt_locale_pointers * const &,char * const &>(__crt_stdio_output::stream_output_adapter<char> const &,unsigned __int64 const &,char const * const &,__crt_locale_pointers * const &,char * const &)
FUNC 18549 23 0 __crt_stdio_output::format_validation_base<wchar_t,__crt_stdio_output::stream_output_adapter<wchar_t> >::format_validation_base<wchar_t,__crt_stdio_output::stream_output_adapter<wchar_t> ><__crt_stdio_output::stream_output_adapter<wchar_t> const &,unsigned __int64 const &,wchar_t const * const &,__crt_locale_pointers * const &,char * const &>(__crt_stdio_output::stream_output_adapter<wchar_t> const &,unsigned __int64 const &,wchar_t const * const &,__crt_locale_pointers * const &,char * const &)
FUNC 18574 48 0 __crt_stdio_output::positional_parameter_base<wchar_t,__crt_stdio_output::stream_output_adapter<wchar_t> >::positional_parameter_base<wchar_t,__crt_stdio_output::stream_output_adapter<wchar_t> ><__crt_stdio_output::stream_output_adapter<wchar_t> const &,unsigned __int64 const &,wchar_t const * const &,__crt_locale_pointers * const &,char * const &>(__crt_stdio_output::stream_output_adapter<wchar_t> const &,unsigned __int64 const &,wchar_t const * const &,__crt_locale_pointers * const &,char * const &)
FUNC 185ce 35 0 __crt_stdio_output::standard_base<wchar_t,__crt_stdio_output::stream_output_adapter<wchar_t> >::standard_base<wchar_t,__crt_stdio_output::stream_output_adapter<wchar_t> ><__crt_stdio_output::stream_output_adapter<wchar_t> const &,unsigned __int64 const &,wchar_t const * const &,__crt_locale_pointers * const &,char * const &>(__crt_stdio_output::stream_output_adapter<wchar_t> const &,unsigned __int64 const &,wchar_t const * const &,__crt_locale_pointers * const &,char * const &)
FUNC 18610 23 0 __crt_stdio_output::format_validation_base<char,__crt_stdio_output::string_output_adapter<char> >::format_validation_base<char,__crt_stdio_output::string_output_adapter<char> ><__crt_stdio_output::string_output_adapter<char> const &,unsigned __int64 const &,char const * const &,__crt_locale_pointers * const &,char * const &>(__crt_stdio_output::string_output_adapter<char> const &,unsigned __int64 const &,char const * const &,__crt_locale_pointers * const &,char * const &)
FUNC 1863b 48 0 __crt_stdio_output::positional_parameter_base<char,__crt_stdio_output::string_output_adapter<char> >::positional_parameter_base<char,__crt_stdio_output::string_output_adapter<char> ><__crt_stdio_output::string_output_adapter<char> const &,unsigned __int64 const &,char const * const &,__crt_locale_pointers * const &,char * const &>(__crt_stdio_output::string_output_adapter<char> const &,unsigned __int64 const &,char const * const &,__crt_locale_pointers * const &,char * const &)
FUNC 18695 35 0 __crt_stdio_output::standard_base<char,__crt_stdio_output::string_output_adapter<char> >::standard_base<char,__crt_stdio_output::string_output_adapter<char> ><__crt_stdio_output::string_output_adapter<char> const &,unsigned __int64 const &,char const * const &,__crt_locale_pointers * const &,char * const &>(__crt_stdio_output::string_output_adapter<char> const &,unsigned __int64 const &,char const * const &,__crt_locale_pointers * const &,char * const &)
FUNC 186d7 23 0 __crt_stdio_output::format_validation_base<wchar_t,__crt_stdio_output::string_output_adapter<wchar_t> >::format_validation_base<wchar_t,__crt_stdio_output::string_output_adapter<wchar_t> ><__crt_stdio_output::string_output_adapter<wchar_t> const &,unsigned __int64 const &,wchar_t const * const &,__crt_locale_pointers * const &,char * const &>(__crt_stdio_output::string_output_adapter<wchar_t> const &,unsigned __int64 const &,wchar_t const * const &,__crt_locale_pointers * const &,char * const &)
FUNC 18702 48 0 __crt_stdio_output::positional_parameter_base<wchar_t,__crt_stdio_output::string_output_adapter<wchar_t> >::positional_parameter_base<wchar_t,__crt_stdio_output::string_output_adapter<wchar_t> ><__crt_stdio_output::string_output_adapter<wchar_t> const &,unsigned __int64 const &,wchar_t const * const &,__crt_locale_pointers * const &,char * const &>(__crt_stdio_output::string_output_adapter<wchar_t> const &,unsigned __int64 const &,wchar_t const * const &,__crt_locale_pointers * const &,char * const &)
FUNC 1875c 35 0 __crt_stdio_output::standard_base<wchar_t,__crt_stdio_output::string_output_adapter<wchar_t> >::standard_base<wchar_t,__crt_stdio_output::string_output_adapter<wchar_t> ><__crt_stdio_output::string_output_adapter<wchar_t> const &,unsigned __int64 const &,wchar_t const * const &,__crt_locale_pointers * const &,char * const &>(__crt_stdio_output::string_output_adapter<wchar_t> const &,unsigned __int64 const &,wchar_t const * const &,__crt_locale_pointers * const &,char * const &)
FUNC 1879e 5b 0 __crt_seh_guarded_call<int>::operator()<<lambda_3cfd252a7c5e244e8f20fc56fe35ebe9>,<lambda_d7427dbf72509eba5fa970998bac2a27> &,<lambda_8f55a0afecd2292d47fde3ce68e72492> >
FUNC 1880f 5b 0 __crt_seh_guarded_call<int>::operator()<<lambda_5d912c5eb12d68f7685796d855ab8da6>,<lambda_81587a929b95143618da2bd798ca9df2> &,<lambda_bfd63e08e93a545639db6d324cf10d1a> >
FUNC 18880 5b 0 __crt_seh_guarded_call<int>::operator()<<lambda_9b2bd5c6bb91c5c032542faa5c3cb611>,<lambda_be68057ced330f874c40fe9612235e36> &,<lambda_dbd837d1c0b7fc6e2d81c287c81c071b> >
FUNC 188f1 5b 0 __crt_seh_guarded_call<int>::operator()<<lambda_ba8264b40644a42074cedf043e7aa388>,<lambda_9dc9bc4853282e051506c0cc602abcf3> &,<lambda_1c412e3457517a614fb7d0c137686c95> >
FUNC 18962 5b 0 __crt_seh_guarded_call<int>::operator()<<lambda_c29ee0499b841886b80d843682cc403a>,<lambda_0be4ab1c2a6918fda4e39227d83ea893> &,<lambda_5a3ed3da325c8ea037a470278c0f2d16> >
FUNC 189d3 5b 0 __crt_seh_guarded_call<int>::operator()<<lambda_cae121c7667f229345c68b3f32b19755>,<lambda_b09925f738b1434f525bf50d3162636f> &,<lambda_18d67e1eeb4dde13899af949c649d933> >
FUNC 18a44 26 0 __acrt_lock_stream_and_call<<lambda_0be4ab1c2a6918fda4e39227d83ea893> >
FUNC 18a73 26 0 __acrt_lock_stream_and_call<<lambda_81587a929b95143618da2bd798ca9df2> >
FUNC 18aa2 26 0 __acrt_lock_stream_and_call<<lambda_9dc9bc4853282e051506c0cc602abcf3> >
FUNC 18ad1 26 0 __acrt_lock_stream_and_call<<lambda_b09925f738b1434f525bf50d3162636f> >
FUNC 18b00 26 0 __acrt_lock_stream_and_call<<lambda_be68057ced330f874c40fe9612235e36> >
FUNC 18b2f 26 0 __acrt_lock_stream_and_call<<lambda_d7427dbf72509eba5fa970998bac2a27> >
FUNC 18b5e 64 0 common_vfprintf<__crt_stdio_output::format_validation_base,char>
FUNC 18bdb 64 0 common_vfprintf<__crt_stdio_output::format_validation_base,wchar_t>
FUNC 18c58 64 0 common_vfprintf<__crt_stdio_output::positional_parameter_base,char>
FUNC 18cd5 64 0 common_vfprintf<__crt_stdio_output::positional_parameter_base,wchar_t>
FUNC 18d52 64 0 common_vfprintf<__crt_stdio_output::standard_base,char>
FUNC 18dcf 64 0 common_vfprintf<__crt_stdio_output::standard_base,wchar_t>
FUNC 18e4c e8 0 common_vsnprintf_s<char>
FUNC 18f6e ec 0 common_vsnprintf_s<wchar_t>
FUNC 19095 17e 0 common_vsprintf<__crt_stdio_output::format_validation_base,char>
FUNC 19272 187 0 common_vsprintf<__crt_stdio_output::format_validation_base,wchar_t>
FUNC 1945a 1b0 0 common_vsprintf<__crt_stdio_output::positional_parameter_base,char>
FUNC 19676 1b9 0 common_vsprintf<__crt_stdio_output::positional_parameter_base,wchar_t>
FUNC 1989d 17e 0 common_vsprintf<__crt_stdio_output::standard_base,char>
FUNC 19a7a 187 0 common_vsprintf<__crt_stdio_output::standard_base,wchar_t>
FUNC 19c62 78 0 common_vsprintf_s<char>
FUNC 19cf8 7a 0 common_vsprintf_s<wchar_t>
FUNC 19d90 18 0 __crt_stdio_output::formatting_buffer::count<char>()
FUNC 19dae 19 0 __crt_stdio_output::formatting_buffer::count<wchar_t>()
FUNC 19dcd d 0 __crt_stdio_output::formatting_buffer::data<char>()
FUNC 19ddd d 0 __crt_stdio_output::formatting_buffer::data<wchar_t>()
FUNC 19ded 7d 0 __crt_stdio_output::formatting_buffer::ensure_buffer_is_big_enough<char>(unsigned int)
FUNC 19e89 7e 0 __crt_stdio_output::formatting_buffer::ensure_buffer_is_big_enough<wchar_t>(unsigned int)
FUNC 19f26 79 0 __crt_stdio_output::positional_parameter_base<char,__crt_stdio_output::stream_output_adapter<char> >::extract_argument_from_va_list<signed char,__int64>(__int64 &)
FUNC 19fbd 79 0 __crt_stdio_output::positional_parameter_base<char,__crt_stdio_output::string_output_adapter<char> >::extract_argument_from_va_list<signed char,__int64>(__int64 &)
FUNC 1a054 79 0 __crt_stdio_output::positional_parameter_base<wchar_t,__crt_stdio_output::stream_output_adapter<wchar_t> >::extract_argument_from_va_list<signed char,__int64>(__int64 &)
FUNC 1a0eb 79 0 __crt_stdio_output::positional_parameter_base<wchar_t,__crt_stdio_output::string_output_adapter<wchar_t> >::extract_argument_from_va_list<signed char,__int64>(__int64 &)
FUNC 1a182 1f 0 __crt_stdio_output::standard_base<char,__crt_stdio_output::stream_output_adapter<char> >::extract_argument_from_va_list<signed char,__int64>(__int64 &)
FUNC 1a1a8 1f 0 __crt_stdio_output::standard_base<char,__crt_stdio_output::string_output_adapter<char> >::extract_argument_from_va_list<signed char,__int64>(__int64 &)
FUNC 1a1ce 1f 0 __crt_stdio_output::standard_base<wchar_t,__crt_stdio_output::stream_output_adapter<wchar_t> >::extract_argument_from_va_list<signed char,__int64>(__int64 &)
FUNC 1a1f4 1f 0 __crt_stdio_output::standard_base<wchar_t,__crt_stdio_output::string_output_adapter<wchar_t> >::extract_argument_from_va_list<signed char,__int64>(__int64 &)
FUNC 1a21a 79 0 __crt_stdio_output::positional_parameter_base<char,__crt_stdio_output::stream_output_adapter<char> >::extract_argument_from_va_list<unsigned char,__int64>(__int64 &)
FUNC 1a2b1 79 0 __crt_stdio_output::positional_parameter_base<char,__crt_stdio_output::string_output_adapter<char> >::extract_argument_from_va_list<unsigned char,__int64>(__int64 &)
FUNC 1a348 79 0 __crt_stdio_output::positional_parameter_base<wchar_t,__crt_stdio_output::stream_output_adapter<wchar_t> >::extract_argument_from_va_list<unsigned char,__int64>(__int64 &)
FUNC 1a3df 79 0 __crt_stdio_output::positional_parameter_base<wchar_t,__crt_stdio_output::string_output_adapter<wchar_t> >::extract_argument_from_va_list<unsigned char,__int64>(__int64 &)
FUNC 1a476 1f 0 __crt_stdio_output::standard_base<char,__crt_stdio_output::stream_output_adapter<char> >::extract_argument_from_va_list<unsigned char,__int64>(__int64 &)
FUNC 1a49c 1f 0 __crt_stdio_output::standard_base<char,__crt_stdio_output::string_output_adapter<char> >::extract_argument_from_va_list<unsigned char,__int64>(__int64 &)
FUNC 1a4c2 1f 0 __crt_stdio_output::standard_base<wchar_t,__crt_stdio_output::stream_output_adapter<wchar_t> >::extract_argument_from_va_list<unsigned char,__int64>(__int64 &)
FUNC 1a4e8 1f 0 __crt_stdio_output::standard_base<wchar_t,__crt_stdio_output::string_output_adapter<wchar_t> >::extract_argument_from_va_list<unsigned char,__int64>(__int64 &)
FUNC 1a50e 79 0 __crt_stdio_output::positional_parameter_base<char,__crt_stdio_output::stream_output_adapter<char> >::extract_argument_from_va_list<short,__int64>(__int64 &)
FUNC 1a5a5 79 0 __crt_stdio_output::positional_parameter_base<char,__crt_stdio_output::string_output_adapter<char> >::extract_argument_from_va_list<short,__int64>(__int64 &)
FUNC 1a63c 79 0 __crt_stdio_output::positional_parameter_base<wchar_t,__crt_stdio_output::stream_output_adapter<wchar_t> >::extract_argument_from_va_list<short,__int64>(__int64 &)
FUNC 1a6d3 79 0 __crt_stdio_output::positional_parameter_base<wchar_t,__crt_stdio_output::string_output_adapter<wchar_t> >::extract_argument_from_va_list<short,__int64>(__int64 &)
FUNC 1a76a 1f 0 __crt_stdio_output::standard_base<char,__crt_stdio_output::stream_output_adapter<char> >::extract_argument_from_va_list<short,__int64>(__int64 &)
FUNC 1a790 1f 0 __crt_stdio_output::standard_base<char,__crt_stdio_output::string_output_adapter<char> >::extract_argument_from_va_list<short,__int64>(__int64 &)
FUNC 1a7b6 1f 0 __crt_stdio_output::standard_base<wchar_t,__crt_stdio_output::stream_output_adapter<wchar_t> >::extract_argument_from_va_list<short,__int64>(__int64 &)
FUNC 1a7dc 1f 0 __crt_stdio_output::standard_base<wchar_t,__crt_stdio_output::string_output_adapter<wchar_t> >::extract_argument_from_va_list<short,__int64>(__int64 &)
FUNC 1a802 78 0 __crt_stdio_output::positional_parameter_base<char,__crt_stdio_output::stream_output_adapter<char> >::extract_argument_from_va_list<unsigned short,char>(char &)
FUNC 1a898 78 0 __crt_stdio_output::positional_parameter_base<char,__crt_stdio_output::string_output_adapter<char> >::extract_argument_from_va_list<unsigned short,char>(char &)
FUNC 1a92e 1a 0 __crt_stdio_output::standard_base<char,__crt_stdio_output::stream_output_adapter<char> >::extract_argument_from_va_list<unsigned short,char>(char &)
FUNC 1a94e 1a 0 __crt_stdio_output::standard_base<char,__crt_stdio_output::string_output_adapter<char> >::extract_argument_from_va_list<unsigned short,char>(char &)
FUNC 1a96e 79 0 __crt_stdio_output::positional_parameter_base<char,__crt_stdio_output::stream_output_adapter<char> >::extract_argument_from_va_list<unsigned short,__int64>(__int64 &)
FUNC 1aa05 79 0 __crt_stdio_output::positional_parameter_base<char,__crt_stdio_output::string_output_adapter<char> >::extract_argument_from_va_list<unsigned short,__int64>(__int64 &)
FUNC 1aa9c 79 0 __crt_stdio_output::positional_parameter_base<wchar_t,__crt_stdio_output::stream_output_adapter<wchar_t> >::extract_argument_from_va_list<unsigned short,__int64>(__int64 &)
FUNC 1ab33 79 0 __crt_stdio_output::positional_parameter_base<wchar_t,__crt_stdio_output::string_output_adapter<wchar_t> >::extract_argument_from_va_list<unsigned short,__int64>(__int64 &)
FUNC 1abca 1f 0 __crt_stdio_output::standard_base<char,__crt_stdio_output::stream_output_adapter<char> >::extract_argument_from_va_list<unsigned short,__int64>(__int64 &)
FUNC 1abf0 1f 0 __crt_stdio_output::standard_base<char,__crt_stdio_output::string_output_adapter<char> >::extract_argument_from_va_list<unsigned short,__int64>(__int64 &)
FUNC 1ac16 1f 0 __crt_stdio_output::standard_base<wchar_t,__crt_stdio_output::stream_output_adapter<wchar_t> >::extract_argument_from_va_list<unsigned short,__int64>(__int64 &)
FUNC 1ac3c 1f 0 __crt_stdio_output::standard_base<wchar_t,__crt_stdio_output::string_output_adapter<wchar_t> >::extract_argument_from_va_list<unsigned short,__int64>(__int64 &)
FUNC 1ac62 77 0 __crt_stdio_output::positional_parameter_base<char,__crt_stdio_output::stream_output_adapter<char> >::extract_argument_from_va_list<int,__int64>(__int64 &)
FUNC 1acf6 77 0 __crt_stdio_output::positional_parameter_base<char,__crt_stdio_output::string_output_adapter<char> >::extract_argument_from_va_list<int,__int64>(__int64 &)
FUNC 1ad8a 77 0 __crt_stdio_output::positional_parameter_base<wchar_t,__crt_stdio_output::stream_output_adapter<wchar_t> >::extract_argument_from_va_list<int,__int64>(__int64 &)
FUNC 1ae1e 77 0 __crt_stdio_output::positional_parameter_base<wchar_t,__crt_stdio_output::string_output_adapter<wchar_t> >::extract_argument_from_va_list<int,__int64>(__int64 &)
FUNC 1aeb2 1e 0 __crt_stdio_output::standard_base<char,__crt_stdio_output::stream_output_adapter<char> >::extract_argument_from_va_list<int,__int64>(__int64 &)
FUNC 1aed7 1e 0 __crt_stdio_output::standard_base<char,__crt_stdio_output::string_output_adapter<char> >::extract_argument_from_va_list<int,__int64>(__int64 &)
FUNC 1aefc 1e 0 __crt_stdio_output::standard_base<wchar_t,__crt_stdio_output::stream_output_adapter<wchar_t> >::extract_argument_from_va_list<int,__int64>(__int64 &)
FUNC 1af21 1e 0 __crt_stdio_output::standard_base<wchar_t,__crt_stdio_output::string_output_adapter<wchar_t> >::extract_argument_from_va_list<int,__int64>(__int64 &)
FUNC 1af46 80 0 __crt_stdio_output::positional_parameter_base<char,__crt_stdio_output::stream_output_adapter<char> >::extract_argument_from_va_list<unsigned int,__int64>(__int64 &)
FUNC 1afe6 80 0 __crt_stdio_output::positional_parameter_base<char,__crt_stdio_output::string_output_adapter<char> >::extract_argument_from_va_list<unsigned int,__int64>(__int64 &)
FUNC 1b086 80 0 __crt_stdio_output::positional_parameter_base<wchar_t,__crt_stdio_output::stream_output_adapter<wchar_t> >::extract_argument_from_va_list<unsigned int,__int64>(__int64 &)
FUNC 1b126 80 0 __crt_stdio_output::positional_parameter_base<wchar_t,__crt_stdio_output::string_output_adapter<wchar_t> >::extract_argument_from_va_list<unsigned int,__int64>(__int64 &)
FUNC 1b1c6 1e 0 __crt_stdio_output::standard_base<char,__crt_stdio_output::stream_output_adapter<char> >::extract_argument_from_va_list<unsigned int,__int64>(__int64 &)
FUNC 1b1eb 1e 0 __crt_stdio_output::standard_base<char,__crt_stdio_output::string_output_adapter<char> >::extract_argument_from_va_list<unsigned int,__int64>(__int64 &)
FUNC 1b210 1e 0 __crt_stdio_output::standard_base<wchar_t,__crt_stdio_output::stream_output_adapter<wchar_t> >::extract_argument_from_va_list<unsigned int,__int64>(__int64 &)
FUNC 1b235 1e 0 __crt_stdio_output::standard_base<wchar_t,__crt_stdio_output::string_output_adapter<wchar_t> >::extract_argument_from_va_list<unsigned int,__int64>(__int64 &)
FUNC 1b25a 78 0 __crt_stdio_output::positional_parameter_base<char,__crt_stdio_output::stream_output_adapter<char> >::extract_argument_from_va_list<char *,char *>(char * &)
FUNC 1b2f0 78 0 __crt_stdio_output::positional_parameter_base<char,__crt_stdio_output::string_output_adapter<char> >::extract_argument_from_va_list<char *,char *>(char * &)
FUNC 1b386 78 0 __crt_stdio_output::positional_parameter_base<wchar_t,__crt_stdio_output::stream_output_adapter<wchar_t> >::extract_argument_from_va_list<char *,char *>(char * &)
FUNC 1b41c 78 0 __crt_stdio_output::positional_parameter_base<wchar_t,__crt_stdio_output::string_output_adapter<wchar_t> >::extract_argument_from_va_list<char *,char *>(char * &)
FUNC 1b4b2 1a 0 __crt_stdio_output::standard_base<char,__crt_stdio_output::stream_output_adapter<char> >::extract_argument_from_va_list<char *,char *>(char * &)
FUNC 1b4d2 1a 0 __crt_stdio_output::standard_base<char,__crt_stdio_output::string_output_adapter<char> >::extract_argument_from_va_list<char *,char *>(char * &)
FUNC 1b4f2 1a 0 __crt_stdio_output::standard_base<wchar_t,__crt_stdio_output::stream_output_adapter<wchar_t> >::extract_argument_from_va_list<char *,char *>(char * &)
FUNC 1b512 1a 0 __crt_stdio_output::standard_base<wchar_t,__crt_stdio_output::string_output_adapter<wchar_t> >::extract_argument_from_va_list<char *,char *>(char * &)
FUNC 1b532 1a 0 __crt_stdio_output::standard_base<char,__crt_stdio_output::stream_output_adapter<char> >::extract_argument_from_va_list<`__crt_stdio_output::output_processor<char,__crt_stdio_output::stream_output_adapter<char>,__crt_stdio_output::format_validation_base<char,__crt_stdio_output::stream_output_adapter<char> > >::type_case_Z'::`2'::ansi_string *,`__crt_stdio_output::output_processor<char,__crt_stdio_output::stream_output_adapter<char>,__crt_stdio_output::format_validation_base<char,__crt_stdio_output::stream_output_adapter<char> > >::type_case_Z'::`2'::ansi_string *>
FUNC 1b552 78 0 __crt_stdio_output::positional_parameter_base<char,__crt_stdio_output::stream_output_adapter<char> >::extract_argument_from_va_list<`__crt_stdio_output::output_processor<char,__crt_stdio_output::stream_output_adapter<char>,__crt_stdio_output::positional_parameter_base<char,__crt_stdio_output::stream_output_adapter<char> > >::type_case_Z'::`2'::ansi_string *,`__crt_stdio_output::output_processor<char,__crt_stdio_output::stream_output_adapter<char>,__crt_stdio_output::positional_parameter_base<char,__crt_stdio_output::stream_output_adapter<char> > >::type_case_Z'::`2'::ansi_string *>
FUNC 1b5e8 1a 0 __crt_stdio_output::standard_base<char,__crt_stdio_output::stream_output_adapter<char> >::extract_argument_from_va_list<`__crt_stdio_output::output_processor<char,__crt_stdio_output::stream_output_adapter<char>,__crt_stdio_output::positional_parameter_base<char,__crt_stdio_output::stream_output_adapter<char> > >::type_case_Z'::`2'::ansi_string *,`__crt_stdio_output::output_processor<char,__crt_stdio_output::stream_output_adapter<char>,__crt_stdio_output::positional_parameter_base<char,__crt_stdio_output::stream_output_adapter<char> > >::type_case_Z'::`2'::ansi_string *>
FUNC 1b608 1a 0 __crt_stdio_output::standard_base<char,__crt_stdio_output::stream_output_adapter<char> >::extract_argument_from_va_list<`__crt_stdio_output::output_processor<char,__crt_stdio_output::stream_output_adapter<char>,__crt_stdio_output::standard_base<char,__crt_stdio_output::stream_output_adapter<char> > >::type_case_Z'::`2'::ansi_string *,`__crt_stdio_output::output_processor<char,__crt_stdio_output::stream_output_adapter<char>,__crt_stdio_output::standard_base<char,__crt_stdio_output::stream_output_adapter<char> > >::type_case_Z'::`2'::ansi_string *>
FUNC 1b628 1a 0 __crt_stdio_output::standard_base<char,__crt_stdio_output::string_output_adapter<char> >::extract_argument_from_va_list<`__crt_stdio_output::output_processor<char,__crt_stdio_output::string_output_adapter<char>,__crt_stdio_output::format_validation_base<char,__crt_stdio_output::string_output_adapter<char> > >::type_case_Z'::`2'::ansi_string *,`__crt_stdio_output::output_processor<char,__crt_stdio_output::string_output_adapter<char>,__crt_stdio_output::format_validation_base<char,__crt_stdio_output::string_output_adapter<char> > >::type_case_Z'::`2'::ansi_string *>
FUNC 1b648 78 0 __crt_stdio_output::positional_parameter_base<char,__crt_stdio_output::string_output_adapter<char> >::extract_argument_from_va_list<`__crt_stdio_output::output_processor<char,__crt_stdio_output::string_output_adapter<char>,__crt_stdio_output::positional_parameter_base<char,__crt_stdio_output::string_output_adapter<char> > >::type_case_Z'::`2'::ansi_string *,`__crt_stdio_output::output_processor<char,__crt_stdio_output::string_output_adapter<char>,__crt_stdio_output::positional_parameter_base<char,__crt_stdio_output::string_output_adapter<char> > >::type_case_Z'::`2'::ansi_string *>
FUNC 1b6de 1a 0 __crt_stdio_output::standard_base<char,__crt_stdio_output::string_output_adapter<char> >::extract_argument_from_va_list<`__crt_stdio_output::output_processor<char,__crt_stdio_output::string_output_adapter<char>,__crt_stdio_output::positional_parameter_base<char,__crt_stdio_output::string_output_adapter<char> > >::type_case_Z'::`2'::ansi_string *,`__crt_stdio_output::output_processor<char,__crt_stdio_output::string_output_adapter<char>,__crt_stdio_output::positional_parameter_base<char,__crt_stdio_output::string_output_adapter<char> > >::type_case_Z'::`2'::ansi_string *>
FUNC 1b6fe 1a 0 __crt_stdio_output::standard_base<char,__crt_stdio_output::string_output_adapter<char> >::extract_argument_from_va_list<`__crt_stdio_output::output_processor<char,__crt_stdio_output::string_output_adapter<char>,__crt_stdio_output::standard_base<char,__crt_stdio_output::string_output_adapter<char> > >::type_case_Z'::`2'::ansi_string *,`__crt_stdio_output::output_processor<char,__crt_stdio_output::string_output_adapter<char>,__crt_stdio_output::standard_base<char,__crt_stdio_output::string_output_adapter<char> > >::type_case_Z'::`2'::ansi_string *>
FUNC 1b71e 1a 0 __crt_stdio_output::standard_base<wchar_t,__crt_stdio_output::stream_output_adapter<wchar_t> >::extract_argument_from_va_list<`__crt_stdio_output::output_processor<wchar_t,__crt_stdio_output::stream_output_adapter<wchar_t>,__crt_stdio_output::format_validation_base<wchar_t,__crt_stdio_output::stream_output_adapter<wchar_t> > >::type_case_Z'::`2'::ansi_string *,`__crt_stdio_output::output_processor<wchar_t,__crt_stdio_output::stream_output_adapter<wchar_t>,__crt_stdio_output::format_validation_base<wchar_t,__crt_stdio_output::stream_output_adapter<wchar_t> > >::type_case_Z'::`2'::ansi_string *>
FUNC 1b73e 78 0 __crt_stdio_output::positional_parameter_base<wchar_t,__crt_stdio_output::stream_output_adapter<wchar_t> >::extract_argument_from_va_list<`__crt_stdio_output::output_processor<wchar_t,__crt_stdio_output::stream_output_adapter<wchar_t>,__crt_stdio_output::positional_parameter_base<wchar_t,__crt_stdio_output::stream_output_adapter<wchar_t> > >::type_case_Z'::`2'::ansi_string *,`__crt_stdio_output::output_processor<wchar_t,__crt_stdio_output::stream_output_adapter<wchar_t>,__crt_stdio_output::positional_parameter_base<wchar_t,__crt_stdio_output::stream_output_adapter<wchar_t> > >::type_case_Z'::`2'::ansi_string *>
FUNC 1b7d4 1a 0 __crt_stdio_output::standard_base<wchar_t,__crt_stdio_output::stream_output_adapter<wchar_t> >::extract_argument_from_va_list<`__crt_stdio_output::output_processor<wchar_t,__crt_stdio_output::stream_output_adapter<wchar_t>,__crt_stdio_output::positional_parameter_base<wchar_t,__crt_stdio_output::stream_output_adapter<wchar_t> > >::type_case_Z'::`2'::ansi_string *,`__crt_stdio_output::output_processor<wchar_t,__crt_stdio_output::stream_output_adapter<wchar_t>,__crt_stdio_output::positional_parameter_base<wchar_t,__crt_stdio_output::stream_output_adapter<wchar_t> > >::type_case_Z'::`2'::ansi_string *>
FUNC 1b7f4 1a 0 __crt_stdio_output::standard_base<wchar_t,__crt_stdio_output::stream_output_adapter<wchar_t> >::extract_argument_from_va_list<`__crt_stdio_output::output_processor<wchar_t,__crt_stdio_output::stream_output_adapter<wchar_t>,__crt_stdio_output::standard_base<wchar_t,__crt_stdio_output::stream_output_adapter<wchar_t> > >::type_case_Z'::`2'::ansi_string *,`__crt_stdio_output::output_processor<wchar_t,__crt_stdio_output::stream_output_adapter<wchar_t>,__crt_stdio_output::standard_base<wchar_t,__crt_stdio_output::stream_output_adapter<wchar_t> > >::type_case_Z'::`2'::ansi_string *>
FUNC 1b814 1a 0 __crt_stdio_output::standard_base<wchar_t,__crt_stdio_output::string_output_adapter<wchar_t> >::extract_argument_from_va_list<`__crt_stdio_output::output_processor<wchar_t,__crt_stdio_output::string_output_adapter<wchar_t>,__crt_stdio_output::format_validation_base<wchar_t,__crt_stdio_output::string_output_adapter<wchar_t> > >::type_case_Z'::`2'::ansi_string *,`__crt_stdio_output::output_processor<wchar_t,__crt_stdio_output::string_output_adapter<wchar_t>,__crt_stdio_output::format_validation_base<wchar_t,__crt_stdio_output::string_output_adapter<wchar_t> > >::type_case_Z'::`2'::ansi_string *>
FUNC 1b834 78 0 __crt_stdio_output::positional_parameter_base<wchar_t,__crt_stdio_output::string_output_adapter<wchar_t> >::extract_argument_from_va_list<`__crt_stdio_output::output_processor<wchar_t,__crt_stdio_output::string_output_adapter<wchar_t>,__crt_stdio_output::positional_parameter_base<wchar_t,__crt_stdio_output::string_output_adapter<wchar_t> > >::type_case_Z'::`2'::ansi_string *,`__crt_stdio_output::output_processor<wchar_t,__crt_stdio_output::string_output_adapter<wchar_t>,__crt_stdio_output::positional_parameter_base<wchar_t,__crt_stdio_output::string_output_adapter<wchar_t> > >::type_case_Z'::`2'::ansi_string *>
FUNC 1b8ca 1a 0 __crt_stdio_output::standard_base<wchar_t,__crt_stdio_output::string_output_adapter<wchar_t> >::extract_argument_from_va_list<`__crt_stdio_output::output_processor<wchar_t,__crt_stdio_output::string_output_adapter<wchar_t>,__crt_stdio_output::positional_parameter_base<wchar_t,__crt_stdio_output::string_output_adapter<wchar_t> > >::type_case_Z'::`2'::ansi_string *,`__crt_stdio_output::output_processor<wchar_t,__crt_stdio_output::string_output_adapter<wchar_t>,__crt_stdio_output::positional_parameter_base<wchar_t,__crt_stdio_output::string_output_adapter<wchar_t> > >::type_case_Z'::`2'::ansi_string *>
FUNC 1b8ea 1a 0 __crt_stdio_output::standard_base<wchar_t,__crt_stdio_output::string_output_adapter<wchar_t> >::extract_argument_from_va_list<`__crt_stdio_output::output_processor<wchar_t,__crt_stdio_output::string_output_adapter<wchar_t>,__crt_stdio_output::standard_base<wchar_t,__crt_stdio_output::string_output_adapter<wchar_t> > >::type_case_Z'::`2'::ansi_string *,`__crt_stdio_output::output_processor<wchar_t,__crt_stdio_output::string_output_adapter<wchar_t>,__crt_stdio_output::standard_base<wchar_t,__crt_stdio_output::string_output_adapter<wchar_t> > >::type_case_Z'::`2'::ansi_string *>
FUNC 1b90a 78 0 __crt_stdio_output::positional_parameter_base<char,__crt_stdio_output::stream_output_adapter<char> >::extract_argument_from_va_list<void *,void *>(void * &)
FUNC 1b9a0 78 0 __crt_stdio_output::positional_parameter_base<char,__crt_stdio_output::string_output_adapter<char> >::extract_argument_from_va_list<void *,void *>(void * &)
FUNC 1ba36 78 0 __crt_stdio_output::positional_parameter_base<wchar_t,__crt_stdio_output::stream_output_adapter<wchar_t> >::extract_argument_from_va_list<void *,void *>(void * &)
FUNC 1bacc 78 0 __crt_stdio_output::positional_parameter_base<wchar_t,__crt_stdio_output::string_output_adapter<wchar_t> >::extract_argument_from_va_list<void *,void *>(void * &)
FUNC 1bb62 1a 0 __crt_stdio_output::standard_base<char,__crt_stdio_output::stream_output_adapter<char> >::extract_argument_from_va_list<void *,void *>(void * &)
FUNC 1bb82 1a 0 __crt_stdio_output::standard_base<char,__crt_stdio_output::string_output_adapter<char> >::extract_argument_from_va_list<void *,void *>(void * &)
FUNC 1bba2 1a 0 __crt_stdio_output::standard_base<wchar_t,__crt_stdio_output::stream_output_adapter<wchar_t> >::extract_argument_from_va_list<void *,void *>(void * &)
FUNC 1bbc2 1a 0 __crt_stdio_output::standard_base<wchar_t,__crt_stdio_output::string_output_adapter<wchar_t> >::extract_argument_from_va_list<void *,void *>(void * &)
FUNC 1bbe2 86 0 __crt_stdio_output::positional_parameter_base<char,__crt_stdio_output::stream_output_adapter<char> >::extract_argument_from_va_list<_CRT_DOUBLE,_CRT_DOUBLE>(_CRT_DOUBLE &)
FUNC 1bc89 86 0 __crt_stdio_output::positional_parameter_base<char,__crt_stdio_output::string_output_adapter<char> >::extract_argument_from_va_list<_CRT_DOUBLE,_CRT_DOUBLE>(_CRT_DOUBLE &)
FUNC 1bd30 86 0 __crt_stdio_output::positional_parameter_base<wchar_t,__crt_stdio_output::stream_output_adapter<wchar_t> >::extract_argument_from_va_list<_CRT_DOUBLE,_CRT_DOUBLE>(_CRT_DOUBLE &)
FUNC 1bdd7 86 0 __crt_stdio_output::positional_parameter_base<wchar_t,__crt_stdio_output::string_output_adapter<wchar_t> >::extract_argument_from_va_list<_CRT_DOUBLE,_CRT_DOUBLE>(_CRT_DOUBLE &)
FUNC 1be7e 20 0 __crt_stdio_output::standard_base<char,__crt_stdio_output::stream_output_adapter<char> >::extract_argument_from_va_list<_CRT_DOUBLE,_CRT_DOUBLE>(_CRT_DOUBLE &)
FUNC 1bea6 20 0 __crt_stdio_output::standard_base<char,__crt_stdio_output::string_output_adapter<char> >::extract_argument_from_va_list<_CRT_DOUBLE,_CRT_DOUBLE>(_CRT_DOUBLE &)
FUNC 1bece 20 0 __crt_stdio_output::standard_base<wchar_t,__crt_stdio_output::stream_output_adapter<wchar_t> >::extract_argument_from_va_list<_CRT_DOUBLE,_CRT_DOUBLE>(_CRT_DOUBLE &)
FUNC 1bef6 20 0 __crt_stdio_output::standard_base<wchar_t,__crt_stdio_output::string_output_adapter<wchar_t> >::extract_argument_from_va_list<_CRT_DOUBLE,_CRT_DOUBLE>(_CRT_DOUBLE &)
FUNC 1bf1e 86 0 __crt_stdio_output::positional_parameter_base<char,__crt_stdio_output::stream_output_adapter<char> >::extract_argument_from_va_list<__int64,__int64>(__int64 &)
FUNC 1bfc5 86 0 __crt_stdio_output::positional_parameter_base<char,__crt_stdio_output::string_output_adapter<char> >::extract_argument_from_va_list<__int64,__int64>(__int64 &)
FUNC 1c06c 86 0 __crt_stdio_output::positional_parameter_base<wchar_t,__crt_stdio_output::stream_output_adapter<wchar_t> >::extract_argument_from_va_list<__int64,__int64>(__int64 &)
FUNC 1c113 86 0 __crt_stdio_output::positional_parameter_base<wchar_t,__crt_stdio_output::string_output_adapter<wchar_t> >::extract_argument_from_va_list<__int64,__int64>(__int64 &)
FUNC 1c1ba 20 0 __crt_stdio_output::standard_base<char,__crt_stdio_output::stream_output_adapter<char> >::extract_argument_from_va_list<__int64,__int64>(__int64 &)
FUNC 1c1e2 20 0 __crt_stdio_output::standard_base<char,__crt_stdio_output::string_output_adapter<char> >::extract_argument_from_va_list<__int64,__int64>(__int64 &)
FUNC 1c20a 20 0 __crt_stdio_output::standard_base<wchar_t,__crt_stdio_output::stream_output_adapter<wchar_t> >::extract_argument_from_va_list<__int64,__int64>(__int64 &)
FUNC 1c232 20 0 __crt_stdio_output::standard_base<wchar_t,__crt_stdio_output::string_output_adapter<wchar_t> >::extract_argument_from_va_list<__int64,__int64>(__int64 &)
FUNC 1c25a 86 0 __crt_stdio_output::positional_parameter_base<char,__crt_stdio_output::stream_output_adapter<char> >::extract_argument_from_va_list<unsigned __int64,__int64>(__int64 &)
FUNC 1c301 86 0 __crt_stdio_output::positional_parameter_base<char,__crt_stdio_output::string_output_adapter<char> >::extract_argument_from_va_list<unsigned __int64,__int64>(__int64 &)
FUNC 1c3a8 86 0 __crt_stdio_output::positional_parameter_base<wchar_t,__crt_stdio_output::stream_output_adapter<wchar_t> >::extract_argument_from_va_list<unsigned __int64,__int64>(__int64 &)
FUNC 1c44f 86 0 __crt_stdio_output::positional_parameter_base<wchar_t,__crt_stdio_output::string_output_adapter<wchar_t> >::extract_argument_from_va_list<unsigned __int64,__int64>(__int64 &)
FUNC 1c4f6 20 0 __crt_stdio_output::standard_base<char,__crt_stdio_output::stream_output_adapter<char> >::extract_argument_from_va_list<unsigned __int64,__int64>(__int64 &)
FUNC 1c51e 20 0 __crt_stdio_output::standard_base<char,__crt_stdio_output::string_output_adapter<char> >::extract_argument_from_va_list<unsigned __int64,__int64>(__int64 &)
FUNC 1c546 20 0 __crt_stdio_output::standard_base<wchar_t,__crt_stdio_output::stream_output_adapter<wchar_t> >::extract_argument_from_va_list<unsigned __int64,__int64>(__int64 &)
FUNC 1c56e 20 0 __crt_stdio_output::standard_base<wchar_t,__crt_stdio_output::string_output_adapter<wchar_t> >::extract_argument_from_va_list<unsigned __int64,__int64>(__int64 &)
FUNC 1c596 7c 0 __crt_stdio_output::positional_parameter_base<char,__crt_stdio_output::stream_output_adapter<char> >::extract_argument_from_va_list<wchar_t,wchar_t>(wchar_t &)
FUNC 1c631 7c 0 __crt_stdio_output::positional_parameter_base<char,__crt_stdio_output::string_output_adapter<char> >::extract_argument_from_va_list<wchar_t,wchar_t>(wchar_t &)
FUNC 1c6cc 7c 0 __crt_stdio_output::positional_parameter_base<wchar_t,__crt_stdio_output::stream_output_adapter<wchar_t> >::extract_argument_from_va_list<wchar_t,wchar_t>(wchar_t &)
FUNC 1c767 7c 0 __crt_stdio_output::positional_parameter_base<wchar_t,__crt_stdio_output::string_output_adapter<wchar_t> >::extract_argument_from_va_list<wchar_t,wchar_t>(wchar_t &)
FUNC 1c802 1c 0 __crt_stdio_output::standard_base<char,__crt_stdio_output::stream_output_adapter<char> >::extract_argument_from_va_list<wchar_t,wchar_t>(wchar_t &)
FUNC 1c825 1c 0 __crt_stdio_output::standard_base<char,__crt_stdio_output::string_output_adapter<char> >::extract_argument_from_va_list<wchar_t,wchar_t>(wchar_t &)
FUNC 1c848 1c 0 __crt_stdio_output::standard_base<wchar_t,__crt_stdio_output::stream_output_adapter<wchar_t> >::extract_argument_from_va_list<wchar_t,wchar_t>(wchar_t &)
FUNC 1c86b 1c 0 __crt_stdio_output::standard_base<wchar_t,__crt_stdio_output::string_output_adapter<wchar_t> >::extract_argument_from_va_list<wchar_t,wchar_t>(wchar_t &)
FUNC 1c88e 4 4 __crt_stdio_output::positional_parameter_base<char,__crt_stdio_output::stream_output_adapter<char> >::get_parameter_type<char>(char *)
FUNC 1c892 4 4 __crt_stdio_output::positional_parameter_base<char,__crt_stdio_output::string_output_adapter<char> >::get_parameter_type<char>(char *)
FUNC 1c896 4 4 __crt_stdio_output::positional_parameter_base<wchar_t,__crt_stdio_output::stream_output_adapter<wchar_t> >::get_parameter_type<char>(char *)
FUNC 1c89a 4 4 __crt_stdio_output::positional_parameter_base<wchar_t,__crt_stdio_output::string_output_adapter<wchar_t> >::get_parameter_type<char>(char *)
FUNC 1c89e 4 4 __crt_stdio_output::positional_parameter_base<char,__crt_stdio_output::stream_output_adapter<char> >::get_parameter_type<`__crt_stdio_output::output_processor<char,__crt_stdio_output::stream_output_adapter<char>,__crt_stdio_output::positional_parameter_base<char,__crt_stdio_output::stream_output_adapter<char> > >::type_case_Z'::`2'::ansi_string>
FUNC 1c8a2 4 4 __crt_stdio_output::positional_parameter_base<char,__crt_stdio_output::string_output_adapter<char> >::get_parameter_type<`__crt_stdio_output::output_processor<char,__crt_stdio_output::string_output_adapter<char>,__crt_stdio_output::positional_parameter_base<char,__crt_stdio_output::string_output_adapter<char> > >::type_case_Z'::`2'::ansi_string>
FUNC 1c8a6 4 4 __crt_stdio_output::positional_parameter_base<wchar_t,__crt_stdio_output::stream_output_adapter<wchar_t> >::get_parameter_type<`__crt_stdio_output::output_processor<wchar_t,__crt_stdio_output::stream_output_adapter<wchar_t>,__crt_stdio_output::positional_parameter_base<wchar_t,__crt_stdio_output::stream_output_adapter<wchar_t> > >::type_case_Z'::`2'::ansi_string>
FUNC 1c8aa 4 4 __crt_stdio_output::positional_parameter_base<wchar_t,__crt_stdio_output::string_output_adapter<wchar_t> >::get_parameter_type<`__crt_stdio_output::output_processor<wchar_t,__crt_stdio_output::string_output_adapter<wchar_t>,__crt_stdio_output::positional_parameter_base<wchar_t,__crt_stdio_output::string_output_adapter<wchar_t> > >::type_case_Z'::`2'::ansi_string>
FUNC 1c8ae 4 4 __crt_stdio_output::positional_parameter_base<char,__crt_stdio_output::stream_output_adapter<char> >::get_parameter_type<void>(void *)
FUNC 1c8b2 4 4 __crt_stdio_output::positional_parameter_base<char,__crt_stdio_output::string_output_adapter<char> >::get_parameter_type<void>(void *)
FUNC 1c8b6 4 4 __crt_stdio_output::positional_parameter_base<wchar_t,__crt_stdio_output::stream_output_adapter<wchar_t> >::get_parameter_type<void>(void *)
FUNC 1c8ba 4 4 __crt_stdio_output::positional_parameter_base<wchar_t,__crt_stdio_output::string_output_adapter<wchar_t> >::get_parameter_type<void>(void *)
FUNC 1c8be 18 0 __crt_stdio_output::positional_parameter_base<char,__crt_stdio_output::stream_output_adapter<char> >::is_character_specifier<char>(char)
FUNC 1c8dc 18 0 __crt_stdio_output::positional_parameter_base<char,__crt_stdio_output::string_output_adapter<char> >::is_character_specifier<char>(char)
FUNC 1c8fa 1b 0 __crt_stdio_output::positional_parameter_base<wchar_t,__crt_stdio_output::stream_output_adapter<wchar_t> >::is_character_specifier<wchar_t>(wchar_t)
FUNC 1c91b 1b 0 __crt_stdio_output::positional_parameter_base<wchar_t,__crt_stdio_output::string_output_adapter<wchar_t> >::is_character_specifier<wchar_t>(wchar_t)
FUNC 1c93c 2c 0 __crt_stdio_output::positional_parameter_base<char,__crt_stdio_output::stream_output_adapter<char> >::is_integral_specifier<char>(char)
FUNC 1c973 2c 0 __crt_stdio_output::positional_parameter_base<char,__crt_stdio_output::string_output_adapter<char> >::is_integral_specifier<char>(char)
FUNC 1c9aa 3b 0 __crt_stdio_output::positional_parameter_base<wchar_t,__crt_stdio_output::stream_output_adapter<wchar_t> >::is_integral_specifier<wchar_t>(wchar_t)
FUNC 1c9f3 3b 0 __crt_stdio_output::positional_parameter_base<wchar_t,__crt_stdio_output::string_output_adapter<wchar_t> >::is_integral_specifier<wchar_t>(wchar_t)
FUNC 1ca3c e 0 __crt_stdio_output::positional_parameter_base<char,__crt_stdio_output::stream_output_adapter<char> >::is_pointer_specifier<char>(char)
FUNC 1ca4d e 0 __crt_stdio_output::positional_parameter_base<char,__crt_stdio_output::string_output_adapter<char> >::is_pointer_specifier<char>(char)
FUNC 1ca5e f 0 __crt_stdio_output::positional_parameter_base<wchar_t,__crt_stdio_output::stream_output_adapter<wchar_t> >::is_pointer_specifier<wchar_t>(wchar_t)
FUNC 1ca70 f 0 __crt_stdio_output::positional_parameter_base<wchar_t,__crt_stdio_output::string_output_adapter<wchar_t> >::is_pointer_specifier<wchar_t>(wchar_t)
FUNC 1ca82 18 0 __crt_stdio_output::positional_parameter_base<char,__crt_stdio_output::stream_output_adapter<char> >::is_string_specifier<char>(char)
FUNC 1caa0 18 0 __crt_stdio_output::positional_parameter_base<char,__crt_stdio_output::string_output_adapter<char> >::is_string_specifier<char>(char)
FUNC 1cabe 1b 0 __crt_stdio_output::positional_parameter_base<wchar_t,__crt_stdio_output::stream_output_adapter<wchar_t> >::is_string_specifier<wchar_t>(wchar_t)
FUNC 1cadf 1b 0 __crt_stdio_output::positional_parameter_base<wchar_t,__crt_stdio_output::string_output_adapter<wchar_t> >::is_string_specifier<wchar_t>(wchar_t)
FUNC 1cb00 31 0 __crt_stdio_output::is_wide_character_specifier<char>(unsigned __int64,char,__crt_stdio_output::length_modifier)
FUNC 1cb3d 4e 0 __crt_stdio_output::is_wide_character_specifier<wchar_t>(unsigned __int64,wchar_t,__crt_stdio_output::length_modifier)
FUNC 1cb9e c 0 __crt_stdio_output::peek_va_arg<signed char>(char *)
FUNC 1cbad c 0 __crt_stdio_output::peek_va_arg<unsigned char>(char *)
FUNC 1cbbc d 0 __crt_stdio_output::peek_va_arg<short>(char *)
FUNC 1cbcc d 0 __crt_stdio_output::peek_va_arg<unsigned short>(char *)
FUNC 1cbdc c 0 __crt_stdio_output::peek_va_arg<int>(char *)
FUNC 1cbeb c 0 __crt_stdio_output::peek_va_arg<unsigned int>(char *)
FUNC 1cbfa c 0 __crt_stdio_output::peek_va_arg<char *>(char *)
FUNC 1cc09 c 0 __crt_stdio_output::peek_va_arg<`__crt_stdio_output::output_processor<char,__crt_stdio_output::stream_output_adapter<char>,__crt_stdio_output::positional_parameter_base<char,__crt_stdio_output::stream_output_adapter<char> > >::type_case_Z'::`2'::ansi_string *>
FUNC 1cc18 c 0 __crt_stdio_output::peek_va_arg<`__crt_stdio_output::output_processor<char,__crt_stdio_output::string_output_adapter<char>,__crt_stdio_output::positional_parameter_base<char,__crt_stdio_output::string_output_adapter<char> > >::type_case_Z'::`2'::ansi_string *>
FUNC 1cc27 c 0 __crt_stdio_output::peek_va_arg<`__crt_stdio_output::output_processor<wchar_t,__crt_stdio_output::stream_output_adapter<wchar_t>,__crt_stdio_output::positional_parameter_base<wchar_t,__crt_stdio_output::stream_output_adapter<wchar_t> > >::type_case_Z'::`2'::ansi_string *>
FUNC 1cc36 c 0 __crt_stdio_output::peek_va_arg<`__crt_stdio_output::output_processor<wchar_t,__crt_stdio_output::string_output_adapter<wchar_t>,__crt_stdio_output::positional_parameter_base<wchar_t,__crt_stdio_output::string_output_adapter<wchar_t> > >::type_case_Z'::`2'::ansi_string *>
FUNC 1cc45 c 0 __crt_stdio_output::peek_va_arg<void *>(char *)
FUNC 1cc54 f 0 __crt_stdio_output::peek_va_arg<_CRT_DOUBLE>(char *)
FUNC 1cc66 f 0 __crt_stdio_output::peek_va_arg<__int64>(char *)
FUNC 1cc78 f 0 __crt_stdio_output::peek_va_arg<unsigned __int64>(char *)
FUNC 1cc8a d 0 __crt_stdio_output::peek_va_arg<wchar_t>(char *)
FUNC 1cc9a 1a 0 __crt_char_traits<char>::puttc_nolock<char const &,_iobuf *>(char const &,_iobuf * &&)
FUNC 1ccba 1a 0 __crt_char_traits<wchar_t>::puttc_nolock<wchar_t const &,_iobuf *>(wchar_t const &,_iobuf * &&)
FUNC 1ccda 12 0 __crt_stdio_output::read_va_arg<signed char>(char * &)
FUNC 1ccf0 12 0 __crt_stdio_output::read_va_arg<unsigned char>(char * &)
FUNC 1cd06 13 0 __crt_stdio_output::read_va_arg<short>(char * &)
FUNC 1cd1d 13 0 __crt_stdio_output::read_va_arg<unsigned short>(char * &)
FUNC 1cd34 12 0 __crt_stdio_output::read_va_arg<int>(char * &)
FUNC 1cd4a 12 0 __crt_stdio_output::read_va_arg<unsigned int>(char * &)
FUNC 1cd60 12 0 __crt_stdio_output::read_va_arg<char *>(char * &)
FUNC 1cd76 12 0 __crt_stdio_output::read_va_arg<`__crt_stdio_output::output_processor<char,__crt_stdio_output::stream_output_adapter<char>,__crt_stdio_output::format_validation_base<char,__crt_stdio_output::stream_output_adapter<char> > >::type_case_Z'::`2'::ansi_string *>
FUNC 1cd8c 12 0 __crt_stdio_output::read_va_arg<`__crt_stdio_output::output_processor<char,__crt_stdio_output::stream_output_adapter<char>,__crt_stdio_output::positional_parameter_base<char,__crt_stdio_output::stream_output_adapter<char> > >::type_case_Z'::`2'::ansi_string *>
FUNC 1cda2 12 0 __crt_stdio_output::read_va_arg<`__crt_stdio_output::output_processor<char,__crt_stdio_output::stream_output_adapter<char>,__crt_stdio_output::standard_base<char,__crt_stdio_output::stream_output_adapter<char> > >::type_case_Z'::`2'::ansi_string *>
FUNC 1cdb8 12 0 __crt_stdio_output::read_va_arg<`__crt_stdio_output::output_processor<char,__crt_stdio_output::string_output_adapter<char>,__crt_stdio_output::format_validation_base<char,__crt_stdio_output::string_output_adapter<char> > >::type_case_Z'::`2'::ansi_string *>
FUNC 1cdce 12 0 __crt_stdio_output::read_va_arg<`__crt_stdio_output::output_processor<char,__crt_stdio_output::string_output_adapter<char>,__crt_stdio_output::positional_parameter_base<char,__crt_stdio_output::string_output_adapter<char> > >::type_case_Z'::`2'::ansi_string *>
FUNC 1cde4 12 0 __crt_stdio_output::read_va_arg<`__crt_stdio_output::output_processor<char,__crt_stdio_output::string_output_adapter<char>,__crt_stdio_output::standard_base<char,__crt_stdio_output::string_output_adapter<char> > >::type_case_Z'::`2'::ansi_string *>
FUNC 1cdfa 12 0 __crt_stdio_output::read_va_arg<`__crt_stdio_output::output_processor<wchar_t,__crt_stdio_output::stream_output_adapter<wchar_t>,__crt_stdio_output::format_validation_base<wchar_t,__crt_stdio_output::stream_output_adapter<wchar_t> > >::type_case_Z'::`2'::ansi_string *>
FUNC 1ce10 12 0 __crt_stdio_output::read_va_arg<`__crt_stdio_output::output_processor<wchar_t,__crt_stdio_output::stream_output_adapter<wchar_t>,__crt_stdio_output::positional_parameter_base<wchar_t,__crt_stdio_output::stream_output_adapter<wchar_t> > >::type_case_Z'::`2'::ansi_string *>
FUNC 1ce26 12 0 __crt_stdio_output::read_va_arg<`__crt_stdio_output::output_processor<wchar_t,__crt_stdio_output::stream_output_adapter<wchar_t>,__crt_stdio_output::standard_base<wchar_t,__crt_stdio_output::stream_output_adapter<wchar_t> > >::type_case_Z'::`2'::ansi_string *>
FUNC 1ce3c 12 0 __crt_stdio_output::read_va_arg<`__crt_stdio_output::output_processor<wchar_t,__crt_stdio_output::string_output_adapter<wchar_t>,__crt_stdio_output::format_validation_base<wchar_t,__crt_stdio_output::string_output_adapter<wchar_t> > >::type_case_Z'::`2'::ansi_string *>
FUNC 1ce52 12 0 __crt_stdio_output::read_va_arg<`__crt_stdio_output::output_processor<wchar_t,__crt_stdio_output::string_output_adapter<wchar_t>,__crt_stdio_output::positional_parameter_base<wchar_t,__crt_stdio_output::string_output_adapter<wchar_t> > >::type_case_Z'::`2'::ansi_string *>
FUNC 1ce68 12 0 __crt_stdio_output::read_va_arg<`__crt_stdio_output::output_processor<wchar_t,__crt_stdio_output::string_output_adapter<wchar_t>,__crt_stdio_output::standard_base<wchar_t,__crt_stdio_output::string_output_adapter<wchar_t> > >::type_case_Z'::`2'::ansi_string *>
FUNC 1ce7e 12 0 __crt_stdio_output::read_va_arg<void *>(char * &)
FUNC 1ce94 16 0 __crt_stdio_output::read_va_arg<_CRT_DOUBLE>(char * &)
FUNC 1ceaf 15 0 __crt_stdio_output::read_va_arg<__int64>(char * &)
FUNC 1cec9 15 0 __crt_stdio_output::read_va_arg<unsigned __int64>(char * &)
FUNC 1cee3 13 0 __crt_stdio_output::read_va_arg<wchar_t>(char * &)
FUNC 1cefa 5 0 __crt_stdio_output::formatting_buffer::scratch_count<char>()
FUNC 1ceff 1e 0 __crt_stdio_output::formatting_buffer::scratch_data<char>()
FUNC 1cf24 1e 0 __crt_char_traits<char>::tcstol<char const * &,char * *,int>(char const * &,char * * &&,int &&)
FUNC 1cf49 1e 0 __crt_char_traits<wchar_t>::tcstol<wchar_t const * &,wchar_t * *,int>(wchar_t const * &,wchar_t * * &&,int &&)
FUNC 1cf6e 1e 0 __crt_char_traits<char>::tcstol<char const *,char * *,int>(char const * &&,char * * &&,int &&)
FUNC 1cf93 1e 0 __crt_char_traits<wchar_t>::tcstol<wchar_t const *,wchar_t * *,int>(wchar_t const * &&,wchar_t * * &&,int &&)
FUNC 1cfb8 73 0 __crt_stdio_output::output_processor<char,__crt_stdio_output::stream_output_adapter<char>,__crt_stdio_output::format_validation_base<char,__crt_stdio_output::stream_output_adapter<char> > >::type_case_integer_parse_into_buffer<unsigned int>(unsigned int,unsigned int,bool)
FUNC 1d047 73 0 __crt_stdio_output::output_processor<char,__crt_stdio_output::stream_output_adapter<char>,__crt_stdio_output::positional_parameter_base<char,__crt_stdio_output::stream_output_adapter<char> > >::type_case_integer_parse_into_buffer<unsigned int>(unsigned int,unsigned int,bool)
FUNC 1d0d6 73 0 __crt_stdio_output::output_processor<char,__crt_stdio_output::stream_output_adapter<char>,__crt_stdio_output::standard_base<char,__crt_stdio_output::stream_output_adapter<char> > >::type_case_integer_parse_into_buffer<unsigned int>(unsigned int,unsigned int,bool)
FUNC 1d165 73 0 __crt_stdio_output::output_processor<char,__crt_stdio_output::string_output_adapter<char>,__crt_stdio_output::format_validation_base<char,__crt_stdio_output::string_output_adapter<char> > >::type_case_integer_parse_into_buffer<unsigned int>(unsigned int,unsigned int,bool)
FUNC 1d1f4 73 0 __crt_stdio_output::output_processor<char,__crt_stdio_output::string_output_adapter<char>,__crt_stdio_output::positional_parameter_base<char,__crt_stdio_output::string_output_adapter<char> > >::type_case_integer_parse_into_buffer<unsigned int>(unsigned int,unsigned int,bool)
FUNC 1d283 73 0 __crt_stdio_output::output_processor<char,__crt_stdio_output::string_output_adapter<char>,__crt_stdio_output::standard_base<char,__crt_stdio_output::string_output_adapter<char> > >::type_case_integer_parse_into_buffer<unsigned int>(unsigned int,unsigned int,bool)
FUNC 1d312 87 0 __crt_stdio_output::output_processor<wchar_t,__crt_stdio_output::stream_output_adapter<wchar_t>,__crt_stdio_output::format_validation_base<wchar_t,__crt_stdio_output::stream_output_adapter<wchar_t> > >::type_case_integer_parse_into_buffer<unsigned int>(unsigned int,unsigned int,bool)
FUNC 1d3ba 87 0 __crt_stdio_output::output_processor<wchar_t,__crt_stdio_output::stream_output_adapter<wchar_t>,__crt_stdio_output::positional_parameter_base<wchar_t,__crt_stdio_output::stream_output_adapter<wchar_t> > >::type_case_integer_parse_into_buffer<unsigned int>(unsigned int,unsigned int,bool)
FUNC 1d462 87 0 __crt_stdio_output::output_processor<wchar_t,__crt_stdio_output::stream_output_adapter<wchar_t>,__crt_stdio_output::standard_base<wchar_t,__crt_stdio_output::stream_output_adapter<wchar_t> > >::type_case_integer_parse_into_buffer<unsigned int>(unsigned int,unsigned int,bool)
FUNC 1d50a 87 0 __crt_stdio_output::output_processor<wchar_t,__crt_stdio_output::string_output_adapter<wchar_t>,__crt_stdio_output::format_validation_base<wchar_t,__crt_stdio_output::string_output_adapter<wchar_t> > >::type_case_integer_parse_into_buffer<unsigned int>(unsigned int,unsigned int,bool)
FUNC 1d5b2 87 0 __crt_stdio_output::output_processor<wchar_t,__crt_stdio_output::string_output_adapter<wchar_t>,__crt_stdio_output::positional_parameter_base<wchar_t,__crt_stdio_output::string_output_adapter<wchar_t> > >::type_case_integer_parse_into_buffer<unsigned int>(unsigned int,unsigned int,bool)
FUNC 1d65a 87 0 __crt_stdio_output::output_processor<wchar_t,__crt_stdio_output::string_output_adapter<wchar_t>,__crt_stdio_output::standard_base<wchar_t,__crt_stdio_output::string_output_adapter<wchar_t> > >::type_case_integer_parse_into_buffer<unsigned int>(unsigned int,unsigned int,bool)
FUNC 1d702 8e 0 __crt_stdio_output::output_processor<char,__crt_stdio_output::stream_output_adapter<char>,__crt_stdio_output::format_validation_base<char,__crt_stdio_output::stream_output_adapter<char> > >::type_case_integer_parse_into_buffer<unsigned __int64>(unsigned __int64,unsigned int,bool)
FUNC 1d7b3 8e 0 __crt_stdio_output::output_processor<char,__crt_stdio_output::stream_output_adapter<char>,__crt_stdio_output::positional_parameter_base<char,__crt_stdio_output::stream_output_adapter<char> > >::type_case_integer_parse_into_buffer<unsigned __int64>(unsigned __int64,unsigned int,bool)
FUNC 1d864 8e 0 __crt_stdio_output::output_processor<char,__crt_stdio_output::stream_output_adapter<char>,__crt_stdio_output::standard_base<char,__crt_stdio_output::stream_output_adapter<char> > >::type_case_integer_parse_into_buffer<unsigned __int64>(unsigned __int64,unsigned int,bool)
FUNC 1d915 8e 0 __crt_stdio_output::output_processor<char,__crt_stdio_output::string_output_adapter<char>,__crt_stdio_output::format_validation_base<char,__crt_stdio_output::string_output_adapter<char> > >::type_case_integer_parse_into_buffer<unsigned __int64>(unsigned __int64,unsigned int,bool)
FUNC 1d9c6 8e 0 __crt_stdio_output::output_processor<char,__crt_stdio_output::string_output_adapter<char>,__crt_stdio_output::positional_parameter_base<char,__crt_stdio_output::string_output_adapter<char> > >::type_case_integer_parse_into_buffer<unsigned __int64>(unsigned __int64,unsigned int,bool)
FUNC 1da77 8e 0 __crt_stdio_output::output_processor<char,__crt_stdio_output::string_output_adapter<char>,__crt_stdio_output::standard_base<char,__crt_stdio_output::string_output_adapter<char> > >::type_case_integer_parse_into_buffer<unsigned __int64>(unsigned __int64,unsigned int,bool)
FUNC 1db28 a2 0 __crt_stdio_output::output_processor<wchar_t,__crt_stdio_output::stream_output_adapter<wchar_t>,__crt_stdio_output::format_validation_base<wchar_t,__crt_stdio_output::stream_output_adapter<wchar_t> > >::type_case_integer_parse_into_buffer<unsigned __int64>(unsigned __int64,unsigned int,bool)
FUNC 1dbf2 a2 0 __crt_stdio_output::output_processor<wchar_t,__crt_stdio_output::stream_output_adapter<wchar_t>,__crt_stdio_output::positional_parameter_base<wchar_t,__crt_stdio_output::stream_output_adapter<wchar_t> > >::type_case_integer_parse_into_buffer<unsigned __int64>(unsigned __int64,unsigned int,bool)
FUNC 1dcbc a2 0 __crt_stdio_output::output_processor<wchar_t,__crt_stdio_output::stream_output_adapter<wchar_t>,__crt_stdio_output::standard_base<wchar_t,__crt_stdio_output::stream_output_adapter<wchar_t> > >::type_case_integer_parse_into_buffer<unsigned __int64>(unsigned __int64,unsigned int,bool)
FUNC 1dd86 a2 0 __crt_stdio_output::output_processor<wchar_t,__crt_stdio_output::string_output_adapter<wchar_t>,__crt_stdio_output::format_validation_base<wchar_t,__crt_stdio_output::string_output_adapter<wchar_t> > >::type_case_integer_parse_into_buffer<unsigned __int64>(unsigned __int64,unsigned int,bool)
FUNC 1de50 a2 0 __crt_stdio_output::output_processor<wchar_t,__crt_stdio_output::string_output_adapter<wchar_t>,__crt_stdio_output::positional_parameter_base<wchar_t,__crt_stdio_output::string_output_adapter<wchar_t> > >::type_case_integer_parse_into_buffer<unsigned __int64>(unsigned __int64,unsigned int,bool)
FUNC 1df1a a2 0 __crt_stdio_output::output_processor<wchar_t,__crt_stdio_output::string_output_adapter<wchar_t>,__crt_stdio_output::standard_base<wchar_t,__crt_stdio_output::string_output_adapter<wchar_t> > >::type_case_integer_parse_into_buffer<unsigned __int64>(unsigned __int64,unsigned int,bool)
FUNC 1dfe4 3b 0 __crt_stdio_output::write_multiple_characters<__crt_stdio_output::stream_output_adapter<char>,char>(__crt_stdio_output::stream_output_adapter<char> const &,char,int,int * const)
FUNC 1e02d 40 0 __crt_stdio_output::write_multiple_characters<__crt_stdio_output::stream_output_adapter<wchar_t>,char>(__crt_stdio_output::stream_output_adapter<wchar_t> const &,char,int,int * const)
FUNC 1e07d 2c 0 __crt_stdio_output::write_multiple_characters<__crt_stdio_output::string_output_adapter<char>,char>(__crt_stdio_output::string_output_adapter<char> const &,char,int,int * const)
FUNC 1e0b4 31 0 __crt_stdio_output::write_multiple_characters<__crt_stdio_output::string_output_adapter<wchar_t>,char>(__crt_stdio_output::string_output_adapter<wchar_t> const &,char,int,int * const)
FUNC 1e0f1 28 0 <lambda_0be4ab1c2a6918fda4e39227d83ea893>::<lambda_0be4ab1c2a6918fda4e39227d83ea893>
FUNC 1e123 12 0 <lambda_18d67e1eeb4dde13899af949c649d933>::<lambda_18d67e1eeb4dde13899af949c649d933>
FUNC 1e139 12 0 <lambda_1c412e3457517a614fb7d0c137686c95>::<lambda_1c412e3457517a614fb7d0c137686c95>
FUNC 1e14f 12 0 <lambda_3cfd252a7c5e244e8f20fc56fe35ebe9>::<lambda_3cfd252a7c5e244e8f20fc56fe35ebe9>
FUNC 1e165 12 0 <lambda_5a3ed3da325c8ea037a470278c0f2d16>::<lambda_5a3ed3da325c8ea037a470278c0f2d16>
FUNC 1e17b 12 0 <lambda_5d912c5eb12d68f7685796d855ab8da6>::<lambda_5d912c5eb12d68f7685796d855ab8da6>
FUNC 1e191 28 0 <lambda_81587a929b95143618da2bd798ca9df2>::<lambda_81587a929b95143618da2bd798ca9df2>
FUNC 1e1c3 12 0 <lambda_8f55a0afecd2292d47fde3ce68e72492>::<lambda_8f55a0afecd2292d47fde3ce68e72492>
FUNC 1e1d9 12 0 <lambda_9b2bd5c6bb91c5c032542faa5c3cb611>::<lambda_9b2bd5c6bb91c5c032542faa5c3cb611>
FUNC 1e1ef 28 0 <lambda_9dc9bc4853282e051506c0cc602abcf3>::<lambda_9dc9bc4853282e051506c0cc602abcf3>
FUNC 1e221 28 0 <lambda_b09925f738b1434f525bf50d3162636f>::<lambda_b09925f738b1434f525bf50d3162636f>
FUNC 1e253 12 0 <lambda_ba8264b40644a42074cedf043e7aa388>::<lambda_ba8264b40644a42074cedf043e7aa388>
FUNC 1e269 28 0 <lambda_be68057ced330f874c40fe9612235e36>::<lambda_be68057ced330f874c40fe9612235e36>
FUNC 1e29b 12 0 <lambda_bfd63e08e93a545639db6d324cf10d1a>::<lambda_bfd63e08e93a545639db6d324cf10d1a>
FUNC 1e2b1 12 0 <lambda_c29ee0499b841886b80d843682cc403a>::<lambda_c29ee0499b841886b80d843682cc403a>
FUNC 1e2c7 12 0 <lambda_cae121c7667f229345c68b3f32b19755>::<lambda_cae121c7667f229345c68b3f32b19755>
FUNC 1e2dd 28 0 <lambda_d7427dbf72509eba5fa970998bac2a27>::<lambda_d7427dbf72509eba5fa970998bac2a27>
FUNC 1e30f 12 0 <lambda_dbd837d1c0b7fc6e2d81c287c81c071b>::<lambda_dbd837d1c0b7fc6e2d81c287c81c071b>
FUNC 1e325 45 0 __crt_stdio_output::common_data<char>::common_data<char>()
FUNC 1e37b 4a 0 __crt_stdio_output::common_data<wchar_t>::common_data<wchar_t>()
FUNC 1e3d7 3c 0 __crt_stdio_output::output_adapter_data<char,__crt_stdio_output::stream_output_adapter<char> >::output_adapter_data<char,__crt_stdio_output::stream_output_adapter<char> >(__crt_stdio_output::stream_output_adapter<char> const &,unsigned __int64,char const * const,__crt_locale_pointers * const,char * const)
FUNC 1e422 3c 0 __crt_stdio_output::output_adapter_data<char,__crt_stdio_output::string_output_adapter<char> >::output_adapter_data<char,__crt_stdio_output::string_output_adapter<char> >(__crt_stdio_output::string_output_adapter<char> const &,unsigned __int64,char const * const,__crt_locale_pointers * const,char * const)
FUNC 1e46d 3c 0 __crt_stdio_output::output_adapter_data<wchar_t,__crt_stdio_output::stream_output_adapter<wchar_t> >::output_adapter_data<wchar_t,__crt_stdio_output::stream_output_adapter<wchar_t> >(__crt_stdio_output::stream_output_adapter<wchar_t> const &,unsigned __int64,wchar_t const * const,__crt_locale_pointers * const,char * const)
FUNC 1e4b8 3c 0 __crt_stdio_output::output_adapter_data<wchar_t,__crt_stdio_output::string_output_adapter<wchar_t> >::output_adapter_data<wchar_t,__crt_stdio_output::string_output_adapter<wchar_t> >(__crt_stdio_output::string_output_adapter<wchar_t> const &,unsigned __int64,wchar_t const * const,__crt_locale_pointers * const,char * const)
FUNC 1e503 2d 0 __crt_stdio_output::output_processor<char,__crt_stdio_output::stream_output_adapter<char>,__crt_stdio_output::format_validation_base<char,__crt_stdio_output::stream_output_adapter<char> > >::output_processor<char,__crt_stdio_output::stream_output_adapter<char>,__crt_stdio_output::format_validation_base<char,__crt_stdio_output::stream_output_adapter<char> > >(__crt_stdio_output::stream_output_adapter<char> const &,unsigned __int64,char const * const,__crt_locale_pointers * const,char * const)
FUNC 1e53b 27 0 __crt_stdio_output::output_processor<char,__crt_stdio_output::stream_output_adapter<char>,__crt_stdio_output::positional_parameter_base<char,__crt_stdio_output::stream_output_adapter<char> > >::output_processor<char,__crt_stdio_output::stream_output_adapter<char>,__crt_stdio_output::positional_parameter_base<char,__crt_stdio_output::stream_output_adapter<char> > >(__crt_stdio_output::stream_output_adapter<char> const &,unsigned __int64,char const * const,__crt_locale_pointers * const,char * const)
FUNC 1e56b 2d 0 __crt_stdio_output::output_processor<char,__crt_stdio_output::stream_output_adapter<char>,__crt_stdio_output::standard_base<char,__crt_stdio_output::stream_output_adapter<char> > >::output_processor<char,__crt_stdio_output::stream_output_adapter<char>,__crt_stdio_output::standard_base<char,__crt_stdio_output::stream_output_adapter<char> > >(__crt_stdio_output::stream_output_adapter<char> const &,unsigned __int64,char const * const,__crt_locale_pointers * const,char * const)
FUNC 1e5a3 2d 0 __crt_stdio_output::output_processor<char,__crt_stdio_output::string_output_adapter<char>,__crt_stdio_output::format_validation_base<char,__crt_stdio_output::string_output_adapter<char> > >::output_processor<char,__crt_stdio_output::string_output_adapter<char>,__crt_stdio_output::format_validation_base<char,__crt_stdio_output::string_output_adapter<char> > >(__crt_stdio_output::string_output_adapter<char> const &,unsigned __int64,char const * const,__crt_locale_pointers * const,char * const)
FUNC 1e5db 27 0 __crt_stdio_output::output_processor<char,__crt_stdio_output::string_output_adapter<char>,__crt_stdio_output::positional_parameter_base<char,__crt_stdio_output::string_output_adapter<char> > >::output_processor<char,__crt_stdio_output::string_output_adapter<char>,__crt_stdio_output::positional_parameter_base<char,__crt_stdio_output::string_output_adapter<char> > >(__crt_stdio_output::string_output_adapter<char> const &,unsigned __int64,char const * const,__crt_locale_pointers * const,char * const)
FUNC 1e60b 2d 0 __crt_stdio_output::output_processor<char,__crt_stdio_output::string_output_adapter<char>,__crt_stdio_output::standard_base<char,__crt_stdio_output::string_output_adapter<char> > >::output_processor<char,__crt_stdio_output::string_output_adapter<char>,__crt_stdio_output::standard_base<char,__crt_stdio_output::string_output_adapter<char> > >(__crt_stdio_output::string_output_adapter<char> const &,unsigned __int64,char const * const,__crt_locale_pointers * const,char * const)
FUNC 1e643 2d 0 __crt_stdio_output::output_processor<wchar_t,__crt_stdio_output::stream_output_adapter<wchar_t>,__crt_stdio_output::format_validation_base<wchar_t,__crt_stdio_output::stream_output_adapter<wchar_t> > >::output_processor<wchar_t,__crt_stdio_output::stream_output_adapter<wchar_t>,__crt_stdio_output::format_validation_base<wchar_t,__crt_stdio_output::stream_output_adapter<wchar_t> > >(__crt_stdio_output::stream_output_adapter<wchar_t> const &,unsigned __int64,wchar_t const * const,__crt_locale_pointers * const,char * const)
FUNC 1e67b 27 0 __crt_stdio_output::output_processor<wchar_t,__crt_stdio_output::stream_output_adapter<wchar_t>,__crt_stdio_output::positional_parameter_base<wchar_t,__crt_stdio_output::stream_output_adapter<wchar_t> > >::output_processor<wchar_t,__crt_stdio_output::stream_output_adapter<wchar_t>,__crt_stdio_output::positional_parameter_base<wchar_t,__crt_stdio_output::stream_output_adapter<wchar_t> > >(__crt_stdio_output::stream_output_adapter<wchar_t> const &,unsigned __int64,wchar_t const * const,__crt_locale_pointers * const,char * const)
FUNC 1e6ab 2d 0 __crt_stdio_output::output_processor<wchar_t,__crt_stdio_output::stream_output_adapter<wchar_t>,__crt_stdio_output::standard_base<wchar_t,__crt_stdio_output::stream_output_adapter<wchar_t> > >::output_processor<wchar_t,__crt_stdio_output::stream_output_adapter<wchar_t>,__crt_stdio_output::standard_base<wchar_t,__crt_stdio_output::stream_output_adapter<wchar_t> > >(__crt_stdio_output::stream_output_adapter<wchar_t> const &,unsigned __int64,wchar_t const * const,__crt_locale_pointers * const,char * const)
FUNC 1e6e3 2d 0 __crt_stdio_output::output_processor<wchar_t,__crt_stdio_output::string_output_adapter<wchar_t>,__crt_stdio_output::format_validation_base<wchar_t,__crt_stdio_output::string_output_adapter<wchar_t> > >::output_processor<wchar_t,__crt_stdio_output::string_output_adapter<wchar_t>,__crt_stdio_output::format_validation_base<wchar_t,__crt_stdio_output::string_output_adapter<wchar_t> > >(__crt_stdio_output::string_output_adapter<wchar_t> const &,unsigned __int64,wchar_t const * const,__crt_locale_pointers * const,char * const)
FUNC 1e71b 27 0 __crt_stdio_output::output_processor<wchar_t,__crt_stdio_output::string_output_adapter<wchar_t>,__crt_stdio_output::positional_parameter_base<wchar_t,__crt_stdio_output::string_output_adapter<wchar_t> > >::output_processor<wchar_t,__crt_stdio_output::string_output_adapter<wchar_t>,__crt_stdio_output::positional_parameter_base<wchar_t,__crt_stdio_output::string_output_adapter<wchar_t> > >(__crt_stdio_output::string_output_adapter<wchar_t> const &,unsigned __int64,wchar_t const * const,__crt_locale_pointers * const,char * const)
FUNC 1e74b 2d 0 __crt_stdio_output::output_processor<wchar_t,__crt_stdio_output::string_output_adapter<wchar_t>,__crt_stdio_output::standard_base<wchar_t,__crt_stdio_output::string_output_adapter<wchar_t> > >::output_processor<wchar_t,__crt_stdio_output::string_output_adapter<wchar_t>,__crt_stdio_output::standard_base<wchar_t,__crt_stdio_output::string_output_adapter<wchar_t> > >(__crt_stdio_output::string_output_adapter<wchar_t> const &,unsigned __int64,wchar_t const * const,__crt_locale_pointers * const,char * const)
FUNC 1e783 10 0 __crt_stdio_output::stream_output_adapter<char>::stream_output_adapter<char>(_iobuf * const)
FUNC 1e797 10 0 __crt_stdio_output::stream_output_adapter<wchar_t>::stream_output_adapter<wchar_t>(_iobuf * const)
FUNC 1e7ab 10 0 __crt_stdio_output::string_output_adapter<char>::string_output_adapter<char>(__crt_stdio_output::string_output_adapter_context<char> * const)
FUNC 1e7bf 10 0 __crt_stdio_output::string_output_adapter<wchar_t>::string_output_adapter<wchar_t>(__crt_stdio_output::string_output_adapter_context<wchar_t> * const)
FUNC 1e7d3 83 0 _LocaleUpdate::_LocaleUpdate(__crt_locale_pointers * const)
FUNC 1e876 1e 0 __acrt_stdio_temporary_buffering_guard::__acrt_stdio_temporary_buffering_guard(_iobuf * const)
FUNC 1e89b 6 0 __crt_deferred_errno_cache::__crt_deferred_errno_cache()
FUNC 1e8a1 18 0 __crt_errno_guard::__crt_errno_guard(int * const)
FUNC 1e8bf 10 0 __crt_stdio_stream::__crt_stdio_stream(_iobuf * const)
FUNC 1e8d3 11 0 __crt_stdio_output::formatting_buffer::formatting_buffer()
FUNC 1e8e8 8 0 __crt_stdio_output::common_data<char>::~common_data<char>()
FUNC 1e8f2 8 0 __crt_stdio_output::common_data<wchar_t>::~common_data<wchar_t>()
FUNC 1e8fc 8 0 __crt_stdio_output::format_validation_base<char,__crt_stdio_output::stream_output_adapter<char> >::~format_validation_base<char,__crt_stdio_output::stream_output_adapter<char> >()
FUNC 1e906 8 0 __crt_stdio_output::format_validation_base<char,__crt_stdio_output::string_output_adapter<char> >::~format_validation_base<char,__crt_stdio_output::string_output_adapter<char> >()
FUNC 1e910 8 0 __crt_stdio_output::format_validation_base<wchar_t,__crt_stdio_output::stream_output_adapter<wchar_t> >::~format_validation_base<wchar_t,__crt_stdio_output::stream_output_adapter<wchar_t> >()
FUNC 1e91a 8 0 __crt_stdio_output::format_validation_base<wchar_t,__crt_stdio_output::string_output_adapter<wchar_t> >::~format_validation_base<wchar_t,__crt_stdio_output::string_output_adapter<wchar_t> >()
FUNC 1e924 8 0 __crt_stdio_output::output_adapter_data<char,__crt_stdio_output::stream_output_adapter<char> >::~output_adapter_data<char,__crt_stdio_output::stream_output_adapter<char> >()
FUNC 1e92e 8 0 __crt_stdio_output::output_adapter_data<char,__crt_stdio_output::string_output_adapter<char> >::~output_adapter_data<char,__crt_stdio_output::string_output_adapter<char> >()
FUNC 1e938 8 0 __crt_stdio_output::output_adapter_data<wchar_t,__crt_stdio_output::stream_output_adapter<wchar_t> >::~output_adapter_data<wchar_t,__crt_stdio_output::stream_output_adapter<wchar_t> >()
FUNC 1e942 8 0 __crt_stdio_output::output_adapter_data<wchar_t,__crt_stdio_output::string_output_adapter<wchar_t> >::~output_adapter_data<wchar_t,__crt_stdio_output::string_output_adapter<wchar_t> >()
FUNC 1e94c 8 0 __crt_stdio_output::output_processor<char,__crt_stdio_output::stream_output_adapter<char>,__crt_stdio_output::format_validation_base<char,__crt_stdio_output::stream_output_adapter<char> > >::~output_processor<char,__crt_stdio_output::stream_output_adapter<char>,__crt_stdio_output::format_validation_base<char,__crt_stdio_output::stream_output_adapter<char> > >()
FUNC 1e956 8 0 __crt_stdio_output::output_processor<char,__crt_stdio_output::stream_output_adapter<char>,__crt_stdio_output::positional_parameter_base<char,__crt_stdio_output::stream_output_adapter<char> > >::~output_processor<char,__crt_stdio_output::stream_output_adapter<char>,__crt_stdio_output::positional_parameter_base<char,__crt_stdio_output::stream_output_adapter<char> > >()
FUNC 1e960 8 0 __crt_stdio_output::output_processor<char,__crt_stdio_output::stream_output_adapter<char>,__crt_stdio_output::standard_base<char,__crt_stdio_output::stream_output_adapter<char> > >::~output_processor<char,__crt_stdio_output::stream_output_adapter<char>,__crt_stdio_output::standard_base<char,__crt_stdio_output::stream_output_adapter<char> > >()
FUNC 1e96a 8 0 __crt_stdio_output::output_processor<char,__crt_stdio_output::string_output_adapter<char>,__crt_stdio_output::format_validation_base<char,__crt_stdio_output::string_output_adapter<char> > >::~output_processor<char,__crt_stdio_output::string_output_adapter<char>,__crt_stdio_output::format_validation_base<char,__crt_stdio_output::string_output_adapter<char> > >()
FUNC 1e974 8 0 __crt_stdio_output::output_processor<char,__crt_stdio_output::string_output_adapter<char>,__crt_stdio_output::positional_parameter_base<char,__crt_stdio_output::string_output_adapter<char> > >::~output_processor<char,__crt_stdio_output::string_output_adapter<char>,__crt_stdio_output::positional_parameter_base<char,__crt_stdio_output::string_output_adapter<char> > >()
FUNC 1e97e 8 0 __crt_stdio_output::output_processor<char,__crt_stdio_output::string_output_adapter<char>,__crt_stdio_output::standard_base<char,__crt_stdio_output::string_output_adapter<char> > >::~output_processor<char,__crt_stdio_output::string_output_adapter<char>,__crt_stdio_output::standard_base<char,__crt_stdio_output::string_output_adapter<char> > >()
FUNC 1e988 8 0 __crt_stdio_output::output_processor<wchar_t,__crt_stdio_output::stream_output_adapter<wchar_t>,__crt_stdio_output::format_validation_base<wchar_t,__crt_stdio_output::stream_output_adapter<wchar_t> > >::~output_processor<wchar_t,__crt_stdio_output::stream_output_adapter<wchar_t>,__crt_stdio_output::format_validation_base<wchar_t,__crt_stdio_output::stream_output_adapter<wchar_t> > >()
FUNC 1e992 8 0 __crt_stdio_output::output_processor<wchar_t,__crt_stdio_output::stream_output_adapter<wchar_t>,__crt_stdio_output::positional_parameter_base<wchar_t,__crt_stdio_output::stream_output_adapter<wchar_t> > >::~output_processor<wchar_t,__crt_stdio_output::stream_output_adapter<wchar_t>,__crt_stdio_output::positional_parameter_base<wchar_t,__crt_stdio_output::stream_output_adapter<wchar_t> > >()
FUNC 1e99c 8 0 __crt_stdio_output::output_processor<wchar_t,__crt_stdio_output::stream_output_adapter<wchar_t>,__crt_stdio_output::standard_base<wchar_t,__crt_stdio_output::stream_output_adapter<wchar_t> > >::~output_processor<wchar_t,__crt_stdio_output::stream_output_adapter<wchar_t>,__crt_stdio_output::standard_base<wchar_t,__crt_stdio_output::stream_output_adapter<wchar_t> > >()
FUNC 1e9a6 8 0 __crt_stdio_output::output_processor<wchar_t,__crt_stdio_output::string_output_adapter<wchar_t>,__crt_stdio_output::format_validation_base<wchar_t,__crt_stdio_output::string_output_adapter<wchar_t> > >::~output_processor<wchar_t,__crt_stdio_output::string_output_adapter<wchar_t>,__crt_stdio_output::format_validation_base<wchar_t,__crt_stdio_output::string_output_adapter<wchar_t> > >()
FUNC 1e9b0 8 0 __crt_stdio_output::output_processor<wchar_t,__crt_stdio_output::string_output_adapter<wchar_t>,__crt_stdio_output::positional_parameter_base<wchar_t,__crt_stdio_output::string_output_adapter<wchar_t> > >::~output_processor<wchar_t,__crt_stdio_output::string_output_adapter<wchar_t>,__crt_stdio_output::positional_parameter_base<wchar_t,__crt_stdio_output::string_output_adapter<wchar_t> > >()
FUNC 1e9ba 8 0 __crt_stdio_output::output_processor<wchar_t,__crt_stdio_output::string_output_adapter<wchar_t>,__crt_stdio_output::standard_base<wchar_t,__crt_stdio_output::string_output_adapter<wchar_t> > >::~output_processor<wchar_t,__crt_stdio_output::string_output_adapter<wchar_t>,__crt_stdio_output::standard_base<wchar_t,__crt_stdio_output::string_output_adapter<wchar_t> > >()
FUNC 1e9c4 8 0 __crt_stdio_output::positional_parameter_base<char,__crt_stdio_output::stream_output_adapter<char> >::~positional_parameter_base<char,__crt_stdio_output::stream_output_adapter<char> >()
FUNC 1e9ce 8 0 __crt_stdio_output::positional_parameter_base<char,__crt_stdio_output::string_output_adapter<char> >::~positional_parameter_base<char,__crt_stdio_output::string_output_adapter<char> >()
FUNC 1e9d8 8 0 __crt_stdio_output::positional_parameter_base<wchar_t,__crt_stdio_output::stream_output_adapter<wchar_t> >::~positional_parameter_base<wchar_t,__crt_stdio_output::stream_output_adapter<wchar_t> >()
FUNC 1e9e2 8 0 __crt_stdio_output::positional_parameter_base<wchar_t,__crt_stdio_output::string_output_adapter<wchar_t> >::~positional_parameter_base<wchar_t,__crt_stdio_output::string_output_adapter<wchar_t> >()
FUNC 1e9ec 8 0 __crt_stdio_output::standard_base<char,__crt_stdio_output::stream_output_adapter<char> >::~standard_base<char,__crt_stdio_output::stream_output_adapter<char> >()
FUNC 1e9f6 8 0 __crt_stdio_output::standard_base<char,__crt_stdio_output::string_output_adapter<char> >::~standard_base<char,__crt_stdio_output::string_output_adapter<char> >()
FUNC 1ea00 8 0 __crt_stdio_output::standard_base<wchar_t,__crt_stdio_output::stream_output_adapter<wchar_t> >::~standard_base<wchar_t,__crt_stdio_output::stream_output_adapter<wchar_t> >()
FUNC 1ea0a 8 0 __crt_stdio_output::standard_base<wchar_t,__crt_stdio_output::string_output_adapter<wchar_t> >::~standard_base<wchar_t,__crt_stdio_output::string_output_adapter<wchar_t> >()
FUNC 1ea14 10 0 _LocaleUpdate::~_LocaleUpdate()
FUNC 1ea28 f 0 __acrt_stdio_temporary_buffering_guard::~__acrt_stdio_temporary_buffering_guard()
FUNC 1ea3a 11 0 __crt_errno_guard::~__crt_errno_guard()
FUNC 1ea4f 1a 0 __crt_stdio_output::formatting_buffer::~formatting_buffer()
FUNC 1ea6f 24 0 __crt_unique_heap_ptr<char,__crt_internal_free_policy>::operator=(__crt_unique_heap_ptr<char,__crt_internal_free_policy> &&)
FUNC 1ea9c 3 0 __crt_stdio_stream::operator->()
FUNC 1ea9f bf 0 <lambda_0be4ab1c2a6918fda4e39227d83ea893>::operator()
FUNC 1eb8d 9 0 <lambda_18d67e1eeb4dde13899af949c649d933>::operator()
FUNC 1eb98 9 0 <lambda_1c412e3457517a614fb7d0c137686c95>::operator()
FUNC 1eba3 9 0 <lambda_3cfd252a7c5e244e8f20fc56fe35ebe9>::operator()
FUNC 1ebae 9 0 <lambda_5a3ed3da325c8ea037a470278c0f2d16>::operator()
FUNC 1ebb9 9 0 <lambda_5d912c5eb12d68f7685796d855ab8da6>::operator()
FUNC 1ebc4 bf 0 <lambda_81587a929b95143618da2bd798ca9df2>::operator()
FUNC 1ecb2 9 0 <lambda_8f55a0afecd2292d47fde3ce68e72492>::operator()
FUNC 1ecbd 9 0 <lambda_9b2bd5c6bb91c5c032542faa5c3cb611>::operator()
FUNC 1ecc8 f4 0 <lambda_9dc9bc4853282e051506c0cc602abcf3>::operator()
FUNC 1edf9 f4 0 <lambda_b09925f738b1434f525bf50d3162636f>::operator()
FUNC 1ef2a 9 0 <lambda_ba8264b40644a42074cedf043e7aa388>::operator()
FUNC 1ef35 bf 0 <lambda_be68057ced330f874c40fe9612235e36>::operator()
FUNC 1f023 9 0 <lambda_bfd63e08e93a545639db6d324cf10d1a>::operator()
FUNC 1f02e 9 0 <lambda_c29ee0499b841886b80d843682cc403a>::operator()
FUNC 1f039 9 0 <lambda_cae121c7667f229345c68b3f32b19755>::operator()
FUNC 1f044 bf 0 <lambda_d7427dbf72509eba5fa970998bac2a27>::operator()
FUNC 1f132 9 0 <lambda_dbd837d1c0b7fc6e2d81c287c81c071b>::operator()
FUNC 1f13d 4 0 _LocaleUpdate::GetLocaleT()
FUNC 1f141 14 0 __crt_stdio_output::output_processor<char,__crt_stdio_output::stream_output_adapter<char>,__crt_stdio_output::format_validation_base<char,__crt_stdio_output::stream_output_adapter<char> > >::adjust_hexit(int,bool)
FUNC 1f15a 14 0 __crt_stdio_output::output_processor<char,__crt_stdio_output::stream_output_adapter<char>,__crt_stdio_output::positional_parameter_base<char,__crt_stdio_output::stream_output_adapter<char> > >::adjust_hexit(int,bool)
FUNC 1f173 14 0 __crt_stdio_output::output_processor<char,__crt_stdio_output::stream_output_adapter<char>,__crt_stdio_output::standard_base<char,__crt_stdio_output::stream_output_adapter<char> > >::adjust_hexit(int,bool)
FUNC 1f18c 14 0 __crt_stdio_output::output_processor<char,__crt_stdio_output::string_output_adapter<char>,__crt_stdio_output::format_validation_base<char,__crt_stdio_output::string_output_adapter<char> > >::adjust_hexit(int,bool)
FUNC 1f1a5 14 0 __crt_stdio_output::output_processor<char,__crt_stdio_output::string_output_adapter<char>,__crt_stdio_output::positional_parameter_base<char,__crt_stdio_output::string_output_adapter<char> > >::adjust_hexit(int,bool)
FUNC 1f1be 14 0 __crt_stdio_output::output_processor<char,__crt_stdio_output::string_output_adapter<char>,__crt_stdio_output::standard_base<char,__crt_stdio_output::string_output_adapter<char> > >::adjust_hexit(int,bool)
FUNC 1f1d7 14 0 __crt_stdio_output::output_processor<wchar_t,__crt_stdio_output::stream_output_adapter<wchar_t>,__crt_stdio_output::format_validation_base<wchar_t,__crt_stdio_output::stream_output_adapter<wchar_t> > >::adjust_hexit(int,bool)
FUNC 1f1f0 14 0 __crt_stdio_output::output_processor<wchar_t,__crt_stdio_output::stream_output_adapter<wchar_t>,__crt_stdio_output::positional_parameter_base<wchar_t,__crt_stdio_output::stream_output_adapter<wchar_t> > >::adjust_hexit(int,bool)
FUNC 1f209 14 0 __crt_stdio_output::output_processor<wchar_t,__crt_stdio_output::stream_output_adapter<wchar_t>,__crt_stdio_output::standard_base<wchar_t,__crt_stdio_output::stream_output_adapter<wchar_t> > >::adjust_hexit(int,bool)
FUNC 1f222 14 0 __crt_stdio_output::output_processor<wchar_t,__crt_stdio_output::string_output_adapter<wchar_t>,__crt_stdio_output::format_validation_base<wchar_t,__crt_stdio_output::string_output_adapter<wchar_t> > >::adjust_hexit(int,bool)
FUNC 1f23b 14 0 __crt_stdio_output::output_processor<wchar_t,__crt_stdio_output::string_output_adapter<wchar_t>,__crt_stdio_output::positional_parameter_base<wchar_t,__crt_stdio_output::string_output_adapter<wchar_t> > >::adjust_hexit(int,bool)
FUNC 1f254 14 0 __crt_stdio_output::output_processor<wchar_t,__crt_stdio_output::string_output_adapter<wchar_t>,__crt_stdio_output::standard_base<wchar_t,__crt_stdio_output::string_output_adapter<wchar_t> > >::adjust_hexit(int,bool)
FUNC 1f26d 4c 0 __crt_stdio_output::positional_parameter_base<char,__crt_stdio_output::stream_output_adapter<char> >::advance_to_next_pass()
FUNC 1f2cc 4c 0 __crt_stdio_output::positional_parameter_base<char,__crt_stdio_output::string_output_adapter<char> >::advance_to_next_pass()
FUNC 1f32b 4c 0 __crt_stdio_output::positional_parameter_base<wchar_t,__crt_stdio_output::stream_output_adapter<wchar_t> >::advance_to_next_pass()
FUNC 1f38a 4c 0 __crt_stdio_output::positional_parameter_base<wchar_t,__crt_stdio_output::string_output_adapter<wchar_t> >::advance_to_next_pass()
FUNC 1f3e9 11 0 __crt_stdio_output::standard_base<char,__crt_stdio_output::stream_output_adapter<char> >::advance_to_next_pass()
FUNC 1f3fe 11 0 __crt_stdio_output::standard_base<char,__crt_stdio_output::string_output_adapter<char> >::advance_to_next_pass()
FUNC 1f413 11 0 __crt_stdio_output::standard_base<wchar_t,__crt_stdio_output::stream_output_adapter<wchar_t> >::advance_to_next_pass()
FUNC 1f428 11 0 __crt_stdio_output::standard_base<wchar_t,__crt_stdio_output::string_output_adapter<wchar_t> >::advance_to_next_pass()
FUNC 1f43d 60 0 __crt_stdio_output::crop_zeroes(char *,__crt_locale_pointers * const)
FUNC 1f4b5 40 0 __crt_stdio_output::output_processor<char,__crt_stdio_output::stream_output_adapter<char>,__crt_stdio_output::format_validation_base<char,__crt_stdio_output::stream_output_adapter<char> > >::find_next_state(char,__crt_stdio_output::state)
FUNC 1f505 40 0 __crt_stdio_output::output_processor<char,__crt_stdio_output::stream_output_adapter<char>,__crt_stdio_output::positional_parameter_base<char,__crt_stdio_output::stream_output_adapter<char> > >::find_next_state(char,__crt_stdio_output::state)
FUNC 1f555 3d 0 __crt_stdio_output::output_processor<char,__crt_stdio_output::stream_output_adapter<char>,__crt_stdio_output::standard_base<char,__crt_stdio_output::stream_output_adapter<char> > >::find_next_state(char,__crt_stdio_output::state)
FUNC 1f5a1 40 0 __crt_stdio_output::output_processor<char,__crt_stdio_output::string_output_adapter<char>,__crt_stdio_output::format_validation_base<char,__crt_stdio_output::string_output_adapter<char> > >::find_next_state(char,__crt_stdio_output::state)
FUNC 1f5f1 40 0 __crt_stdio_output::output_processor<char,__crt_stdio_output::string_output_adapter<char>,__crt_stdio_output::positional_parameter_base<char,__crt_stdio_output::string_output_adapter<char> > >::find_next_state(char,__crt_stdio_output::state)
FUNC 1f641 3d 0 __crt_stdio_output::output_processor<char,__crt_stdio_output::string_output_adapter<char>,__crt_stdio_output::standard_base<char,__crt_stdio_output::string_output_adapter<char> > >::find_next_state(char,__crt_stdio_output::state)
FUNC 1f68d 42 0 __crt_stdio_output::output_processor<wchar_t,__crt_stdio_output::stream_output_adapter<wchar_t>,__crt_stdio_output::format_validation_base<wchar_t,__crt_stdio_output::stream_output_adapter<wchar_t> > >::find_next_state(wchar_t,__crt_stdio_output::state)
FUNC 1f6df 42 0 __crt_stdio_output::output_processor<wchar_t,__crt_stdio_output::stream_output_adapter<wchar_t>,__crt_stdio_output::positional_parameter_base<wchar_t,__crt_stdio_output::stream_output_adapter<wchar_t> > >::find_next_state(wchar_t,__crt_stdio_output::state)
FUNC 1f731 3f 0 __crt_stdio_output::output_processor<wchar_t,__crt_stdio_output::stream_output_adapter<wchar_t>,__crt_stdio_output::standard_base<wchar_t,__crt_stdio_output::stream_output_adapter<wchar_t> > >::find_next_state(wchar_t,__crt_stdio_output::state)
FUNC 1f77f 42 0 __crt_stdio_output::output_processor<wchar_t,__crt_stdio_output::string_output_adapter<wchar_t>,__crt_stdio_output::format_validation_base<wchar_t,__crt_stdio_output::string_output_adapter<wchar_t> > >::find_next_state(wchar_t,__crt_stdio_output::state)
FUNC 1f7d1 42 0 __crt_stdio_output::output_processor<wchar_t,__crt_stdio_output::string_output_adapter<wchar_t>,__crt_stdio_output::positional_parameter_base<wchar_t,__crt_stdio_output::string_output_adapter<wchar_t> > >::find_next_state(wchar_t,__crt_stdio_output::state)
FUNC 1f823 3f 0 __crt_stdio_output::output_processor<wchar_t,__crt_stdio_output::string_output_adapter<wchar_t>,__crt_stdio_output::standard_base<wchar_t,__crt_stdio_output::string_output_adapter<wchar_t> > >::find_next_state(wchar_t,__crt_stdio_output::state)
FUNC 1f871 5c 0 __crt_stdio_output::force_decimal_point(char *,__crt_locale_pointers * const)
FUNC 1f8e4 14 0 __crt_deferred_errno_cache::get()
FUNC 1f8fd 7 0 __crt_stdio_stream::get_flags()
FUNC 1f904 4 4 __crt_stdio_output::positional_parameter_base<char,__crt_stdio_output::stream_output_adapter<char> >::get_parameter_type(short)
FUNC 1f908 4 4 __crt_stdio_output::positional_parameter_base<char,__crt_stdio_output::stream_output_adapter<char> >::get_parameter_type(unsigned short)
FUNC 1f90c 4 4 __crt_stdio_output::positional_parameter_base<char,__crt_stdio_output::stream_output_adapter<char> >::get_parameter_type(int)
FUNC 1f910 4 4 __crt_stdio_output::positional_parameter_base<char,__crt_stdio_output::stream_output_adapter<char> >::get_parameter_type(unsigned int)
FUNC 1f914 4 8 __crt_stdio_output::positional_parameter_base<char,__crt_stdio_output::stream_output_adapter<char> >::get_parameter_type(_CRT_DOUBLE)
FUNC 1f918 4 8 __crt_stdio_output::positional_parameter_base<char,__crt_stdio_output::stream_output_adapter<char> >::get_parameter_type(__int64)
FUNC 1f91c 4 8 __crt_stdio_output::positional_parameter_base<char,__crt_stdio_output::stream_output_adapter<char> >::get_parameter_type(unsigned __int64)
FUNC 1f920 4 4 __crt_stdio_output::positional_parameter_base<char,__crt_stdio_output::stream_output_adapter<char> >::get_parameter_type(wchar_t)
FUNC 1f924 4 4 __crt_stdio_output::positional_parameter_base<char,__crt_stdio_output::string_output_adapter<char> >::get_parameter_type(short)
FUNC 1f928 4 4 __crt_stdio_output::positional_parameter_base<char,__crt_stdio_output::string_output_adapter<char> >::get_parameter_type(unsigned short)
FUNC 1f92c 4 4 __crt_stdio_output::positional_parameter_base<char,__crt_stdio_output::string_output_adapter<char> >::get_parameter_type(int)
FUNC 1f930 4 4 __crt_stdio_output::positional_parameter_base<char,__crt_stdio_output::string_output_adapter<char> >::get_parameter_type(unsigned int)
FUNC 1f934 4 8 __crt_stdio_output::positional_parameter_base<char,__crt_stdio_output::string_output_adapter<char> >::get_parameter_type(_CRT_DOUBLE)
FUNC 1f938 4 8 __crt_stdio_output::positional_parameter_base<char,__crt_stdio_output::string_output_adapter<char> >::get_parameter_type(__int64)
FUNC 1f93c 4 8 __crt_stdio_output::positional_parameter_base<char,__crt_stdio_output::string_output_adapter<char> >::get_parameter_type(unsigned __int64)
FUNC 1f940 4 4 __crt_stdio_output::positional_parameter_base<char,__crt_stdio_output::string_output_adapter<char> >::get_parameter_type(wchar_t)
FUNC 1f944 4 4 __crt_stdio_output::positional_parameter_base<wchar_t,__crt_stdio_output::stream_output_adapter<wchar_t> >::get_parameter_type(short)
FUNC 1f948 4 4 __crt_stdio_output::positional_parameter_base<wchar_t,__crt_stdio_output::stream_output_adapter<wchar_t> >::get_parameter_type(unsigned short)
FUNC 1f94c 4 4 __crt_stdio_output::positional_parameter_base<wchar_t,__crt_stdio_output::stream_output_adapter<wchar_t> >::get_parameter_type(int)
FUNC 1f950 4 4 __crt_stdio_output::positional_parameter_base<wchar_t,__crt_stdio_output::stream_output_adapter<wchar_t> >::get_parameter_type(unsigned int)
FUNC 1f954 4 8 __crt_stdio_output::positional_parameter_base<wchar_t,__crt_stdio_output::stream_output_adapter<wchar_t> >::get_parameter_type(_CRT_DOUBLE)
FUNC 1f958 4 8 __crt_stdio_output::positional_parameter_base<wchar_t,__crt_stdio_output::stream_output_adapter<wchar_t> >::get_parameter_type(__int64)
FUNC 1f95c 4 8 __crt_stdio_output::positional_parameter_base<wchar_t,__crt_stdio_output::stream_output_adapter<wchar_t> >::get_parameter_type(unsigned __int64)
FUNC 1f960 4 4 __crt_stdio_output::positional_parameter_base<wchar_t,__crt_stdio_output::stream_output_adapter<wchar_t> >::get_parameter_type(wchar_t)
FUNC 1f964 4 4 __crt_stdio_output::positional_parameter_base<wchar_t,__crt_stdio_output::string_output_adapter<wchar_t> >::get_parameter_type(short)
FUNC 1f968 4 4 __crt_stdio_output::positional_parameter_base<wchar_t,__crt_stdio_output::string_output_adapter<wchar_t> >::get_parameter_type(unsigned short)
FUNC 1f96c 4 4 __crt_stdio_output::positional_parameter_base<wchar_t,__crt_stdio_output::string_output_adapter<wchar_t> >::get_parameter_type(int)
FUNC 1f970 4 4 __crt_stdio_output::positional_parameter_base<wchar_t,__crt_stdio_output::string_output_adapter<wchar_t> >::get_parameter_type(unsigned int)
FUNC 1f974 4 8 __crt_stdio_output::positional_parameter_base<wchar_t,__crt_stdio_output::string_output_adapter<wchar_t> >::get_parameter_type(_CRT_DOUBLE)
FUNC 1f978 4 8 __crt_stdio_output::positional_parameter_base<wchar_t,__crt_stdio_output::string_output_adapter<wchar_t> >::get_parameter_type(__int64)
FUNC 1f97c 4 8 __crt_stdio_output::positional_parameter_base<wchar_t,__crt_stdio_output::string_output_adapter<wchar_t> >::get_parameter_type(unsigned __int64)
FUNC 1f980 4 4 __crt_stdio_output::positional_parameter_base<wchar_t,__crt_stdio_output::string_output_adapter<wchar_t> >::get_parameter_type(wchar_t)
FUNC 1f984 12 0 __crt_stdio_output::output_processor<char,__crt_stdio_output::stream_output_adapter<char>,__crt_stdio_output::format_validation_base<char,__crt_stdio_output::stream_output_adapter<char> > >::has_flag(unsigned int)
FUNC 1f99a 12 0 __crt_stdio_output::output_processor<char,__crt_stdio_output::stream_output_adapter<char>,__crt_stdio_output::positional_parameter_base<char,__crt_stdio_output::stream_output_adapter<char> > >::has_flag(unsigned int)
FUNC 1f9b0 12 0 __crt_stdio_output::output_processor<char,__crt_stdio_output::stream_output_adapter<char>,__crt_stdio_output::standard_base<char,__crt_stdio_output::stream_output_adapter<char> > >::has_flag(unsigned int)
FUNC 1f9c6 12 0 __crt_stdio_output::output_processor<char,__crt_stdio_output::string_output_adapter<char>,__crt_stdio_output::format_validation_base<char,__crt_stdio_output::string_output_adapter<char> > >::has_flag(unsigned int)
FUNC 1f9dc 12 0 __crt_stdio_output::output_processor<char,__crt_stdio_output::string_output_adapter<char>,__crt_stdio_output::positional_parameter_base<char,__crt_stdio_output::string_output_adapter<char> > >::has_flag(unsigned int)
FUNC 1f9f2 12 0 __crt_stdio_output::output_processor<char,__crt_stdio_output::string_output_adapter<char>,__crt_stdio_output::standard_base<char,__crt_stdio_output::string_output_adapter<char> > >::has_flag(unsigned int)
FUNC 1fa08 12 0 __crt_stdio_output::output_processor<wchar_t,__crt_stdio_output::stream_output_adapter<wchar_t>,__crt_stdio_output::format_validation_base<wchar_t,__crt_stdio_output::stream_output_adapter<wchar_t> > >::has_flag(unsigned int)
FUNC 1fa1e 12 0 __crt_stdio_output::output_processor<wchar_t,__crt_stdio_output::stream_output_adapter<wchar_t>,__crt_stdio_output::positional_parameter_base<wchar_t,__crt_stdio_output::stream_output_adapter<wchar_t> > >::has_flag(unsigned int)
FUNC 1fa34 12 0 __crt_stdio_output::output_processor<wchar_t,__crt_stdio_output::stream_output_adapter<wchar_t>,__crt_stdio_output::standard_base<wchar_t,__crt_stdio_output::stream_output_adapter<wchar_t> > >::has_flag(unsigned int)
FUNC 1fa4a 12 0 __crt_stdio_output::output_processor<wchar_t,__crt_stdio_output::string_output_adapter<wchar_t>,__crt_stdio_output::format_validation_base<wchar_t,__crt_stdio_output::string_output_adapter<wchar_t> > >::has_flag(unsigned int)
FUNC 1fa60 12 0 __crt_stdio_output::output_processor<wchar_t,__crt_stdio_output::string_output_adapter<wchar_t>,__crt_stdio_output::positional_parameter_base<wchar_t,__crt_stdio_output::string_output_adapter<wchar_t> > >::has_flag(unsigned int)
FUNC 1fa76 12 0 __crt_stdio_output::output_processor<wchar_t,__crt_stdio_output::string_output_adapter<wchar_t>,__crt_stdio_output::standard_base<wchar_t,__crt_stdio_output::string_output_adapter<wchar_t> > >::has_flag(unsigned int)
FUNC 1fa8c 118 0 __crt_stdio_output::positional_parameter_base<char,__crt_stdio_output::stream_output_adapter<char> >::is_positional_parameter_reappearance_consistent(__crt_stdio_output::positional_parameter_base<char,__crt_stdio_output::stream_output_adapter<char> >::parameter_data const &,__crt_stdio_output::positional_parameter_base<char,__crt_stdio_output::stream_output_adapter<char> >::parameter_type,char,__crt_stdio_output::length_modifier)
FUNC 1fbea 118 0 __crt_stdio_output::positional_parameter_base<char,__crt_stdio_output::string_output_adapter<char> >::is_positional_parameter_reappearance_consistent(__crt_stdio_output::positional_parameter_base<char,__crt_stdio_output::string_output_adapter<char> >::parameter_data const &,__crt_stdio_output::positional_parameter_base<char,__crt_stdio_output::string_output_adapter<char> >::parameter_type,char,__crt_stdio_output::length_modifier)
FUNC 1fd48 118 0 __crt_stdio_output::positional_parameter_base<wchar_t,__crt_stdio_output::stream_output_adapter<wchar_t> >::is_positional_parameter_reappearance_consistent(__crt_stdio_output::positional_parameter_base<wchar_t,__crt_stdio_output::stream_output_adapter<wchar_t> >::parameter_data const &,__crt_stdio_output::positional_parameter_base<wchar_t,__crt_stdio_output::stream_output_adapter<wchar_t> >::parameter_type,wchar_t,__crt_stdio_output::length_modifier)
FUNC 1fea6 118 0 __crt_stdio_output::positional_parameter_base<wchar_t,__crt_stdio_output::string_output_adapter<wchar_t> >::is_positional_parameter_reappearance_consistent(__crt_stdio_output::positional_parameter_base<wchar_t,__crt_stdio_output::string_output_adapter<wchar_t> >::parameter_data const &,__crt_stdio_output::positional_parameter_base<wchar_t,__crt_stdio_output::string_output_adapter<wchar_t> >::parameter_type,wchar_t,__crt_stdio_output::length_modifier)
FUNC 20004 c 0 __crt_stdio_stream::is_string_backed()
FUNC 20013 6 0 __crt_stdio_output::output_processor<char,__crt_stdio_output::stream_output_adapter<char>,__crt_stdio_output::format_validation_base<char,__crt_stdio_output::stream_output_adapter<char> > >::narrow_null_string()
FUNC 20019 6 0 __crt_stdio_output::output_processor<char,__crt_stdio_output::stream_output_adapter<char>,__crt_stdio_output::positional_parameter_base<char,__crt_stdio_output::stream_output_adapter<char> > >::narrow_null_string()
FUNC 2001f 6 0 __crt_stdio_output::output_processor<char,__crt_stdio_output::stream_output_adapter<char>,__crt_stdio_output::standard_base<char,__crt_stdio_output::stream_output_adapter<char> > >::narrow_null_string()
FUNC 20025 6 0 __crt_stdio_output::output_processor<char,__crt_stdio_output::string_output_adapter<char>,__crt_stdio_output::format_validation_base<char,__crt_stdio_output::string_output_adapter<char> > >::narrow_null_string()
FUNC 2002b 6 0 __crt_stdio_output::output_processor<char,__crt_stdio_output::string_output_adapter<char>,__crt_stdio_output::positional_parameter_base<char,__crt_stdio_output::string_output_adapter<char> > >::narrow_null_string()
FUNC 20031 6 0 __crt_stdio_output::output_processor<char,__crt_stdio_output::string_output_adapter<char>,__crt_stdio_output::standard_base<char,__crt_stdio_output::string_output_adapter<char> > >::narrow_null_string()
FUNC 20037 6 0 __crt_stdio_output::output_processor<wchar_t,__crt_stdio_output::stream_output_adapter<wchar_t>,__crt_stdio_output::format_validation_base<wchar_t,__crt_stdio_output::stream_output_adapter<wchar_t> > >::narrow_null_string()
FUNC 2003d 6 0 __crt_stdio_output::output_processor<wchar_t,__crt_stdio_output::stream_output_adapter<wchar_t>,__crt_stdio_output::positional_parameter_base<wchar_t,__crt_stdio_output::stream_output_adapter<wchar_t> > >::narrow_null_string()
FUNC 20043 6 0 __crt_stdio_output::output_processor<wchar_t,__crt_stdio_output::stream_output_adapter<wchar_t>,__crt_stdio_output::standard_base<wchar_t,__crt_stdio_output::stream_output_adapter<wchar_t> > >::narrow_null_string()
FUNC 20049 6 0 __crt_stdio_output::output_processor<wchar_t,__crt_stdio_output::string_output_adapter<wchar_t>,__crt_stdio_output::format_validation_base<wchar_t,__crt_stdio_output::string_output_adapter<wchar_t> > >::narrow_null_string()
FUNC 2004f 6 0 __crt_stdio_output::output_processor<wchar_t,__crt_stdio_output::string_output_adapter<wchar_t>,__crt_stdio_output::positional_parameter_base<wchar_t,__crt_stdio_output::string_output_adapter<wchar_t> > >::narrow_null_string()
FUNC 20055 6 0 __crt_stdio_output::output_processor<wchar_t,__crt_stdio_output::string_output_adapter<wchar_t>,__crt_stdio_output::standard_base<wchar_t,__crt_stdio_output::string_output_adapter<wchar_t> > >::narrow_null_string()
FUNC 2005b 74 0 __crt_stdio_output::output_processor<char,__crt_stdio_output::stream_output_adapter<char>,__crt_stdio_output::format_validation_base<char,__crt_stdio_output::stream_output_adapter<char> > >::parse_int_from_format_string(int * const)
FUNC 200ec 74 0 __crt_stdio_output::output_processor<char,__crt_stdio_output::stream_output_adapter<char>,__crt_stdio_output::positional_parameter_base<char,__crt_stdio_output::stream_output_adapter<char> > >::parse_int_from_format_string(int * const)
FUNC 2017d 74 0 __crt_stdio_output::output_processor<char,__crt_stdio_output::stream_output_adapter<char>,__crt_stdio_output::standard_base<char,__crt_stdio_output::stream_output_adapter<char> > >::parse_int_from_format_string(int * const)
FUNC 2020e 74 0 __crt_stdio_output::output_processor<char,__crt_stdio_output::string_output_adapter<char>,__crt_stdio_output::format_validation_base<char,__crt_stdio_output::string_output_adapter<char> > >::parse_int_from_format_string(int * const)
FUNC 2029f 74 0 __crt_stdio_output::output_processor<char,__crt_stdio_output::string_output_adapter<char>,__crt_stdio_output::positional_parameter_base<char,__crt_stdio_output::string_output_adapter<char> > >::parse_int_from_format_string(int * const)
FUNC 20330 74 0 __crt_stdio_output::output_processor<char,__crt_stdio_output::string_output_adapter<char>,__crt_stdio_output::standard_base<char,__crt_stdio_output::string_output_adapter<char> > >::parse_int_from_format_string(int * const)
FUNC 203c1 76 0 __crt_stdio_output::output_processor<wchar_t,__crt_stdio_output::stream_output_adapter<wchar_t>,__crt_stdio_output::format_validation_base<wchar_t,__crt_stdio_output::stream_output_adapter<wchar_t> > >::parse_int_from_format_string(int * const)
FUNC 20454 76 0 __crt_stdio_output::output_processor<wchar_t,__crt_stdio_output::stream_output_adapter<wchar_t>,__crt_stdio_output::positional_parameter_base<wchar_t,__crt_stdio_output::stream_output_adapter<wchar_t> > >::parse_int_from_format_string(int * const)
FUNC 204e7 76 0 __crt_stdio_output::output_processor<wchar_t,__crt_stdio_output::stream_output_adapter<wchar_t>,__crt_stdio_output::standard_base<wchar_t,__crt_stdio_output::stream_output_adapter<wchar_t> > >::parse_int_from_format_string(int * const)
FUNC 2057a 76 0 __crt_stdio_output::output_processor<wchar_t,__crt_stdio_output::string_output_adapter<wchar_t>,__crt_stdio_output::format_validation_base<wchar_t,__crt_stdio_output::string_output_adapter<wchar_t> > >::parse_int_from_format_string(int * const)
FUNC 2060d 76 0 __crt_stdio_output::output_processor<wchar_t,__crt_stdio_output::string_output_adapter<wchar_t>,__crt_stdio_output::positional_parameter_base<wchar_t,__crt_stdio_output::string_output_adapter<wchar_t> > >::parse_int_from_format_string(int * const)
FUNC 206a0 76 0 __crt_stdio_output::output_processor<wchar_t,__crt_stdio_output::string_output_adapter<wchar_t>,__crt_stdio_output::standard_base<wchar_t,__crt_stdio_output::string_output_adapter<wchar_t> > >::parse_int_from_format_string(int * const)
FUNC 20733 124 0 __crt_stdio_output::output_processor<char,__crt_stdio_output::stream_output_adapter<char>,__crt_stdio_output::format_validation_base<char,__crt_stdio_output::stream_output_adapter<char> > >::process()
FUNC 208a0 130 0 __crt_stdio_output::output_processor<char,__crt_stdio_output::stream_output_adapter<char>,__crt_stdio_output::positional_parameter_base<char,__crt_stdio_output::stream_output_adapter<char> > >::process()
FUNC 20a1c 114 0 __crt_stdio_output::output_processor<char,__crt_stdio_output::stream_output_adapter<char>,__crt_stdio_output::standard_base<char,__crt_stdio_output::stream_output_adapter<char> > >::process()
FUNC 20b75 124 0 __crt_stdio_output::output_processor<char,__crt_stdio_output::string_output_adapter<char>,__crt_stdio_output::format_validation_base<char,__crt_stdio_output::string_output_adapter<char> > >::process()
FUNC 20ce2 130 0 __crt_stdio_output::output_processor<char,__crt_stdio_output::string_output_adapter<char>,__crt_stdio_output::positional_parameter_base<char,__crt_stdio_output::string_output_adapter<char> > >::process()
FUNC 20e5e 114 0 __crt_stdio_output::output_processor<char,__crt_stdio_output::string_output_adapter<char>,__crt_stdio_output::standard_base<char,__crt_stdio_output::string_output_adapter<char> > >::process()
FUNC 20fb7 128 0 __crt_stdio_output::output_processor<wchar_t,__crt_stdio_output::stream_output_adapter<wchar_t>,__crt_stdio_output::format_validation_base<wchar_t,__crt_stdio_output::stream_output_adapter<wchar_t> > >::process()
FUNC 21129 134 0 __crt_stdio_output::output_processor<wchar_t,__crt_stdio_output::stream_output_adapter<wchar_t>,__crt_stdio_output::positional_parameter_base<wchar_t,__crt_stdio_output::stream_output_adapter<wchar_t> > >::process()
FUNC 212aa 11c 0 __crt_stdio_output::output_processor<wchar_t,__crt_stdio_output::stream_output_adapter<wchar_t>,__crt_stdio_output::standard_base<wchar_t,__crt_stdio_output::stream_output_adapter<wchar_t> > >::process()
FUNC 2140d 128 0 __crt_stdio_output::output_processor<wchar_t,__crt_stdio_output::string_output_adapter<wchar_t>,__crt_stdio_output::format_validation_base<wchar_t,__crt_stdio_output::string_output_adapter<wchar_t> > >::process()
FUNC 2157f 134 0 __crt_stdio_output::output_processor<wchar_t,__crt_stdio_output::string_output_adapter<wchar_t>,__crt_stdio_output::positional_parameter_base<wchar_t,__crt_stdio_output::string_output_adapter<wchar_t> > >::process()
FUNC 21700 11c 0 __crt_stdio_output::output_processor<wchar_t,__crt_stdio_output::string_output_adapter<wchar_t>,__crt_stdio_output::standard_base<wchar_t,__crt_stdio_output::string_output_adapter<wchar_t> > >::process()
FUNC 21863 3 0 __crt_stdio_stream::public_stream()
FUNC 21866 f 0 __crt_stdio_output::output_processor<char,__crt_stdio_output::stream_output_adapter<char>,__crt_stdio_output::format_validation_base<char,__crt_stdio_output::stream_output_adapter<char> > >::set_flag(unsigned int)
FUNC 21878 f 0 __crt_stdio_output::output_processor<char,__crt_stdio_output::stream_output_adapter<char>,__crt_stdio_output::positional_parameter_base<char,__crt_stdio_output::stream_output_adapter<char> > >::set_flag(unsigned int)
FUNC 2188a f 0 __crt_stdio_output::output_processor<char,__crt_stdio_output::stream_output_adapter<char>,__crt_stdio_output::standard_base<char,__crt_stdio_output::stream_output_adapter<char> > >::set_flag(unsigned int)
FUNC 2189c f 0 __crt_stdio_output::output_processor<char,__crt_stdio_output::string_output_adapter<char>,__crt_stdio_output::format_validation_base<char,__crt_stdio_output::string_output_adapter<char> > >::set_flag(unsigned int)
FUNC 218ae f 0 __crt_stdio_output::output_processor<char,__crt_stdio_output::string_output_adapter<char>,__crt_stdio_output::positional_parameter_base<char,__crt_stdio_output::string_output_adapter<char> > >::set_flag(unsigned int)
FUNC 218c0 f 0 __crt_stdio_output::output_processor<char,__crt_stdio_output::string_output_adapter<char>,__crt_stdio_output::standard_base<char,__crt_stdio_output::string_output_adapter<char> > >::set_flag(unsigned int)
FUNC 218d2 f 0 __crt_stdio_output::output_processor<wchar_t,__crt_stdio_output::stream_output_adapter<wchar_t>,__crt_stdio_output::format_validation_base<wchar_t,__crt_stdio_output::stream_output_adapter<wchar_t> > >::set_flag(unsigned int)
FUNC 218e4 f 0 __crt_stdio_output::output_processor<wchar_t,__crt_stdio_output::stream_output_adapter<wchar_t>,__crt_stdio_output::positional_parameter_base<wchar_t,__crt_stdio_output::stream_output_adapter<wchar_t> > >::set_flag(unsigned int)
FUNC 218f6 f 0 __crt_stdio_output::output_processor<wchar_t,__crt_stdio_output::stream_output_adapter<wchar_t>,__crt_stdio_output::standard_base<wchar_t,__crt_stdio_output::stream_output_adapter<wchar_t> > >::set_flag(unsigned int)
FUNC 21908 f 0 __crt_stdio_output::output_processor<wchar_t,__crt_stdio_output::string_output_adapter<wchar_t>,__crt_stdio_output::format_validation_base<wchar_t,__crt_stdio_output::string_output_adapter<wchar_t> > >::set_flag(unsigned int)
FUNC 2191a f 0 __crt_stdio_output::output_processor<wchar_t,__crt_stdio_output::string_output_adapter<wchar_t>,__crt_stdio_output::positional_parameter_base<wchar_t,__crt_stdio_output::string_output_adapter<wchar_t> > >::set_flag(unsigned int)
FUNC 2192c f 0 __crt_stdio_output::output_processor<wchar_t,__crt_stdio_output::string_output_adapter<wchar_t>,__crt_stdio_output::standard_base<wchar_t,__crt_stdio_output::string_output_adapter<wchar_t> > >::set_flag(unsigned int)
FUNC 2193e 16 0 __crt_stdio_output::positional_parameter_base<char,__crt_stdio_output::stream_output_adapter<char> >::should_format()
FUNC 21959 16 0 __crt_stdio_output::positional_parameter_base<char,__crt_stdio_output::string_output_adapter<char> >::should_format()
FUNC 21974 16 0 __crt_stdio_output::positional_parameter_base<wchar_t,__crt_stdio_output::stream_output_adapter<wchar_t> >::should_format()
FUNC 2198f 16 0 __crt_stdio_output::positional_parameter_base<wchar_t,__crt_stdio_output::string_output_adapter<wchar_t> >::should_format()
FUNC 219aa 3 0 __crt_stdio_output::standard_base<char,__crt_stdio_output::stream_output_adapter<char> >::should_format()
FUNC 219ad 3 0 __crt_stdio_output::standard_base<char,__crt_stdio_output::string_output_adapter<char> >::should_format()
FUNC 219b0 3 0 __crt_stdio_output::standard_base<wchar_t,__crt_stdio_output::stream_output_adapter<wchar_t> >::should_format()
FUNC 219b3 3 0 __crt_stdio_output::standard_base<wchar_t,__crt_stdio_output::string_output_adapter<wchar_t> >::should_format()
FUNC 219b6 28 0 __crt_stdio_output::positional_parameter_base<char,__crt_stdio_output::stream_output_adapter<char> >::should_skip_normal_state_processing()
FUNC 219e8 28 0 __crt_stdio_output::positional_parameter_base<char,__crt_stdio_output::string_output_adapter<char> >::should_skip_normal_state_processing()
FUNC 21a1a 28 0 __crt_stdio_output::positional_parameter_base<wchar_t,__crt_stdio_output::stream_output_adapter<wchar_t> >::should_skip_normal_state_processing()
FUNC 21a4c 28 0 __crt_stdio_output::positional_parameter_base<wchar_t,__crt_stdio_output::string_output_adapter<wchar_t> >::should_skip_normal_state_processing()
FUNC 21a7e 3 0 __crt_stdio_output::standard_base<char,__crt_stdio_output::stream_output_adapter<char> >::should_skip_normal_state_processing()
FUNC 21a81 3 0 __crt_stdio_output::standard_base<char,__crt_stdio_output::string_output_adapter<char> >::should_skip_normal_state_processing()
FUNC 21a84 3 0 __crt_stdio_output::standard_base<wchar_t,__crt_stdio_output::stream_output_adapter<wchar_t> >::should_skip_normal_state_processing()
FUNC 21a87 3 0 __crt_stdio_output::standard_base<wchar_t,__crt_stdio_output::string_output_adapter<wchar_t> >::should_skip_normal_state_processing()
FUNC 21a8a 17 0 __crt_stdio_output::positional_parameter_base<char,__crt_stdio_output::stream_output_adapter<char> >::should_skip_type_state_output()
FUNC 21aa6 17 0 __crt_stdio_output::positional_parameter_base<char,__crt_stdio_output::string_output_adapter<char> >::should_skip_type_state_output()
FUNC 21ac2 17 0 __crt_stdio_output::positional_parameter_base<wchar_t,__crt_stdio_output::stream_output_adapter<wchar_t> >::should_skip_type_state_output()
FUNC 21ade 17 0 __crt_stdio_output::positional_parameter_base<wchar_t,__crt_stdio_output::string_output_adapter<wchar_t> >::should_skip_type_state_output()
FUNC 21afa 3 0 __crt_stdio_output::standard_base<char,__crt_stdio_output::stream_output_adapter<char> >::should_skip_type_state_output()
FUNC 21afd 3 0 __crt_stdio_output::standard_base<char,__crt_stdio_output::string_output_adapter<char> >::should_skip_type_state_output()
FUNC 21b00 3 0 __crt_stdio_output::standard_base<wchar_t,__crt_stdio_output::stream_output_adapter<wchar_t> >::should_skip_type_state_output()
FUNC 21b03 3 0 __crt_stdio_output::standard_base<wchar_t,__crt_stdio_output::string_output_adapter<wchar_t> >::should_skip_type_state_output()
FUNC 21b06 7 0 __crt_stdio_output::output_processor<char,__crt_stdio_output::stream_output_adapter<char>,__crt_stdio_output::format_validation_base<char,__crt_stdio_output::stream_output_adapter<char> > >::state_case_dot()
FUNC 21b0d 7 0 __crt_stdio_output::output_processor<char,__crt_stdio_output::stream_output_adapter<char>,__crt_stdio_output::positional_parameter_base<char,__crt_stdio_output::stream_output_adapter<char> > >::state_case_dot()
FUNC 21b14 7 0 __crt_stdio_output::output_processor<char,__crt_stdio_output::stream_output_adapter<char>,__crt_stdio_output::standard_base<char,__crt_stdio_output::stream_output_adapter<char> > >::state_case_dot()
FUNC 21b1b 7 0 __crt_stdio_output::output_processor<char,__crt_stdio_output::string_output_adapter<char>,__crt_stdio_output::format_validation_base<char,__crt_stdio_output::string_output_adapter<char> > >::state_case_dot()
FUNC 21b22 7 0 __crt_stdio_output::output_processor<char,__crt_stdio_output::string_output_adapter<char>,__crt_stdio_output::positional_parameter_base<char,__crt_stdio_output::string_output_adapter<char> > >::state_case_dot()
FUNC 21b29 7 0 __crt_stdio_output::output_processor<char,__crt_stdio_output::string_output_adapter<char>,__crt_stdio_output::standard_base<char,__crt_stdio_output::string_output_adapter<char> > >::state_case_dot()
FUNC 21b30 7 0 __crt_stdio_output::output_processor<wchar_t,__crt_stdio_output::stream_output_adapter<wchar_t>,__crt_stdio_output::format_validation_base<wchar_t,__crt_stdio_output::stream_output_adapter<wchar_t> > >::state_case_dot()
FUNC 21b37 7 0 __crt_stdio_output::output_processor<wchar_t,__crt_stdio_output::stream_output_adapter<wchar_t>,__crt_stdio_output::positional_parameter_base<wchar_t,__crt_stdio_output::stream_output_adapter<wchar_t> > >::state_case_dot()
FUNC 21b3e 7 0 __crt_stdio_output::output_processor<wchar_t,__crt_stdio_output::stream_output_adapter<wchar_t>,__crt_stdio_output::standard_base<wchar_t,__crt_stdio_output::stream_output_adapter<wchar_t> > >::state_case_dot()
FUNC 21b45 7 0 __crt_stdio_output::output_processor<wchar_t,__crt_stdio_output::string_output_adapter<wchar_t>,__crt_stdio_output::format_validation_base<wchar_t,__crt_stdio_output::string_output_adapter<wchar_t> > >::state_case_dot()
FUNC 21b4c 7 0 __crt_stdio_output::output_processor<wchar_t,__crt_stdio_output::string_output_adapter<wchar_t>,__crt_stdio_output::positional_parameter_base<wchar_t,__crt_stdio_output::string_output_adapter<wchar_t> > >::state_case_dot()
FUNC 21b53 7 0 __crt_stdio_output::output_processor<wchar_t,__crt_stdio_output::string_output_adapter<wchar_t>,__crt_stdio_output::standard_base<wchar_t,__crt_stdio_output::string_output_adapter<wchar_t> > >::state_case_dot()
FUNC 21b5a 3d 0 __crt_stdio_output::output_processor<char,__crt_stdio_output::stream_output_adapter<char>,__crt_stdio_output::format_validation_base<char,__crt_stdio_output::stream_output_adapter<char> > >::state_case_flag()
FUNC 21ba6 3d 0 __crt_stdio_output::output_processor<char,__crt_stdio_output::stream_output_adapter<char>,__crt_stdio_output::positional_parameter_base<char,__crt_stdio_output::stream_output_adapter<char> > >::state_case_flag()
FUNC 21bf2 3d 0 __crt_stdio_output::output_processor<char,__crt_stdio_output::stream_output_adapter<char>,__crt_stdio_output::standard_base<char,__crt_stdio_output::stream_output_adapter<char> > >::state_case_flag()
FUNC 21c3e 3d 0 __crt_stdio_output::output_processor<char,__crt_stdio_output::string_output_adapter<char>,__crt_stdio_output::format_validation_base<char,__crt_stdio_output::string_output_adapter<char> > >::state_case_flag()
FUNC 21c8a 3d 0 __crt_stdio_output::output_processor<char,__crt_stdio_output::string_output_adapter<char>,__crt_stdio_output::positional_parameter_base<char,__crt_stdio_output::string_output_adapter<char> > >::state_case_flag()
FUNC 21cd6 3d 0 __crt_stdio_output::output_processor<char,__crt_stdio_output::string_output_adapter<char>,__crt_stdio_output::standard_base<char,__crt_stdio_output::string_output_adapter<char> > >::state_case_flag()
FUNC 21d22 3d 0 __crt_stdio_output::output_processor<wchar_t,__crt_stdio_output::stream_output_adapter<wchar_t>,__crt_stdio_output::format_validation_base<wchar_t,__crt_stdio_output::stream_output_adapter<wchar_t> > >::state_case_flag()
FUNC 21d6e 3d 0 __crt_stdio_output::output_processor<wchar_t,__crt_stdio_output::stream_output_adapter<wchar_t>,__crt_stdio_output::positional_parameter_base<wchar_t,__crt_stdio_output::stream_output_adapter<wchar_t> > >::state_case_flag()
FUNC 21dba 3d 0 __crt_stdio_output::output_processor<wchar_t,__crt_stdio_output::stream_output_adapter<wchar_t>,__crt_stdio_output::standard_base<wchar_t,__crt_stdio_output::stream_output_adapter<wchar_t> > >::state_case_flag()
FUNC 21e06 3d 0 __crt_stdio_output::output_processor<wchar_t,__crt_stdio_output::string_output_adapter<wchar_t>,__crt_stdio_output::format_validation_base<wchar_t,__crt_stdio_output::string_output_adapter<wchar_t> > >::state_case_flag()
FUNC 21e52 3d 0 __crt_stdio_output::output_processor<wchar_t,__crt_stdio_output::string_output_adapter<wchar_t>,__crt_stdio_output::positional_parameter_base<wchar_t,__crt_stdio_output::string_output_adapter<wchar_t> > >::state_case_flag()
FUNC 21e9e 3d 0 __crt_stdio_output::output_processor<wchar_t,__crt_stdio_output::string_output_adapter<wchar_t>,__crt_stdio_output::standard_base<wchar_t,__crt_stdio_output::string_output_adapter<wchar_t> > >::state_case_flag()
FUNC 21eea 1f 0 __crt_stdio_output::output_processor<char,__crt_stdio_output::stream_output_adapter<char>,__crt_stdio_output::format_validation_base<char,__crt_stdio_output::stream_output_adapter<char> > >::state_case_normal()
FUNC 21f10 31 0 __crt_stdio_output::output_processor<char,__crt_stdio_output::stream_output_adapter<char>,__crt_stdio_output::positional_parameter_base<char,__crt_stdio_output::stream_output_adapter<char> > >::state_case_normal()
FUNC 21f4d 1f 0 __crt_stdio_output::output_processor<char,__crt_stdio_output::stream_output_adapter<char>,__crt_stdio_output::standard_base<char,__crt_stdio_output::stream_output_adapter<char> > >::state_case_normal()
FUNC 21f73 1f 0 __crt_stdio_output::output_processor<char,__crt_stdio_output::string_output_adapter<char>,__crt_stdio_output::format_validation_base<char,__crt_stdio_output::string_output_adapter<char> > >::state_case_normal()
FUNC 21f99 31 0 __crt_stdio_output::output_processor<char,__crt_stdio_output::string_output_adapter<char>,__crt_stdio_output::positional_parameter_base<char,__crt_stdio_output::string_output_adapter<char> > >::state_case_normal()
FUNC 21fd6 1f 0 __crt_stdio_output::output_processor<char,__crt_stdio_output::string_output_adapter<char>,__crt_stdio_output::standard_base<char,__crt_stdio_output::string_output_adapter<char> > >::state_case_normal()
FUNC 21ffc 1f 0 __crt_stdio_output::output_processor<wchar_t,__crt_stdio_output::stream_output_adapter<wchar_t>,__crt_stdio_output::format_validation_base<wchar_t,__crt_stdio_output::stream_output_adapter<wchar_t> > >::state_case_normal()
FUNC 22022 31 0 __crt_stdio_output::output_processor<wchar_t,__crt_stdio_output::stream_output_adapter<wchar_t>,__crt_stdio_output::positional_parameter_base<wchar_t,__crt_stdio_output::stream_output_adapter<wchar_t> > >::state_case_normal()
FUNC 2205f 1f 0 __crt_stdio_output::output_processor<wchar_t,__crt_stdio_output::stream_output_adapter<wchar_t>,__crt_stdio_output::standard_base<wchar_t,__crt_stdio_output::stream_output_adapter<wchar_t> > >::state_case_normal()
FUNC 22085 1f 0 __crt_stdio_output::output_processor<wchar_t,__crt_stdio_output::string_output_adapter<wchar_t>,__crt_stdio_output::format_validation_base<wchar_t,__crt_stdio_output::string_output_adapter<wchar_t> > >::state_case_normal()
FUNC 220ab 31 0 __crt_stdio_output::output_processor<wchar_t,__crt_stdio_output::string_output_adapter<wchar_t>,__crt_stdio_output::positional_parameter_base<wchar_t,__crt_stdio_output::string_output_adapter<wchar_t> > >::state_case_normal()
FUNC 220e8 1f 0 __crt_stdio_output::output_processor<wchar_t,__crt_stdio_output::string_output_adapter<wchar_t>,__crt_stdio_output::standard_base<wchar_t,__crt_stdio_output::string_output_adapter<wchar_t> > >::state_case_normal()
FUNC 2210e 3a 0 __crt_stdio_output::output_processor<char,__crt_stdio_output::stream_output_adapter<char>,__crt_stdio_output::format_validation_base<char,__crt_stdio_output::stream_output_adapter<char> > >::state_case_normal_common()
FUNC 22156 3a 0 __crt_stdio_output::output_processor<char,__crt_stdio_output::stream_output_adapter<char>,__crt_stdio_output::positional_parameter_base<char,__crt_stdio_output::stream_output_adapter<char> > >::state_case_normal_common()
FUNC 2219e 3a 0 __crt_stdio_output::output_processor<char,__crt_stdio_output::stream_output_adapter<char>,__crt_stdio_output::standard_base<char,__crt_stdio_output::stream_output_adapter<char> > >::state_case_normal_common()
FUNC 221e6 2a 0 __crt_stdio_output::output_processor<char,__crt_stdio_output::string_output_adapter<char>,__crt_stdio_output::format_validation_base<char,__crt_stdio_output::string_output_adapter<char> > >::state_case_normal_common()
FUNC 2221a 2a 0 __crt_stdio_output::output_processor<char,__crt_stdio_output::string_output_adapter<char>,__crt_stdio_output::positional_parameter_base<char,__crt_stdio_output::string_output_adapter<char> > >::state_case_normal_common()
FUNC 2224e 2a 0 __crt_stdio_output::output_processor<char,__crt_stdio_output::string_output_adapter<char>,__crt_stdio_output::standard_base<char,__crt_stdio_output::string_output_adapter<char> > >::state_case_normal_common()
FUNC 22282 2a 0 __crt_stdio_output::output_processor<wchar_t,__crt_stdio_output::stream_output_adapter<wchar_t>,__crt_stdio_output::format_validation_base<wchar_t,__crt_stdio_output::stream_output_adapter<wchar_t> > >::state_case_normal_common()
FUNC 222b6 2a 0 __crt_stdio_output::output_processor<wchar_t,__crt_stdio_output::stream_output_adapter<wchar_t>,__crt_stdio_output::positional_parameter_base<wchar_t,__crt_stdio_output::stream_output_adapter<wchar_t> > >::state_case_normal_common()
FUNC 222ea 2a 0 __crt_stdio_output::output_processor<wchar_t,__crt_stdio_output::stream_output_adapter<wchar_t>,__crt_stdio_output::standard_base<wchar_t,__crt_stdio_output::stream_output_adapter<wchar_t> > >::state_case_normal_common()
FUNC 2231e 1b 0 __crt_stdio_output::output_processor<wchar_t,__crt_stdio_output::string_output_adapter<wchar_t>,__crt_stdio_output::format_validation_base<wchar_t,__crt_stdio_output::string_output_adapter<wchar_t> > >::state_case_normal_common()
FUNC 2233f 1b 0 __crt_stdio_output::output_processor<wchar_t,__crt_stdio_output::string_output_adapter<wchar_t>,__crt_stdio_output::positional_parameter_base<wchar_t,__crt_stdio_output::string_output_adapter<wchar_t> > >::state_case_normal_common()
FUNC 22360 1b 0 __crt_stdio_output::output_processor<wchar_t,__crt_stdio_output::string_output_adapter<wchar_t>,__crt_stdio_output::standard_base<wchar_t,__crt_stdio_output::string_output_adapter<wchar_t> > >::state_case_normal_common()
FUNC 22381 6d 4 __crt_stdio_output::output_processor<char,__crt_stdio_output::stream_output_adapter<char>,__crt_stdio_output::format_validation_base<char,__crt_stdio_output::stream_output_adapter<char> > >::state_case_normal_tchar(char)
FUNC 22409 6d 4 __crt_stdio_output::output_processor<char,__crt_stdio_output::stream_output_adapter<char>,__crt_stdio_output::positional_parameter_base<char,__crt_stdio_output::stream_output_adapter<char> > >::state_case_normal_tchar(char)
FUNC 22491 6d 4 __crt_stdio_output::output_processor<char,__crt_stdio_output::stream_output_adapter<char>,__crt_stdio_output::standard_base<char,__crt_stdio_output::stream_output_adapter<char> > >::state_case_normal_tchar(char)
FUNC 22519 64 4 __crt_stdio_output::output_processor<char,__crt_stdio_output::string_output_adapter<char>,__crt_stdio_output::format_validation_base<char,__crt_stdio_output::string_output_adapter<char> > >::state_case_normal_tchar(char)
FUNC 22596 64 4 __crt_stdio_output::output_processor<char,__crt_stdio_output::string_output_adapter<char>,__crt_stdio_output::positional_parameter_base<char,__crt_stdio_output::string_output_adapter<char> > >::state_case_normal_tchar(char)
FUNC 22613 64 4 __crt_stdio_output::output_processor<char,__crt_stdio_output::string_output_adapter<char>,__crt_stdio_output::standard_base<char,__crt_stdio_output::string_output_adapter<char> > >::state_case_normal_tchar(char)
FUNC 22690 9 4 __crt_stdio_output::output_processor<wchar_t,__crt_stdio_output::stream_output_adapter<wchar_t>,__crt_stdio_output::format_validation_base<wchar_t,__crt_stdio_output::stream_output_adapter<wchar_t> > >::state_case_normal_tchar(wchar_t)
FUNC 2269b 9 4 __crt_stdio_output::output_processor<wchar_t,__crt_stdio_output::stream_output_adapter<wchar_t>,__crt_stdio_output::positional_parameter_base<wchar_t,__crt_stdio_output::stream_output_adapter<wchar_t> > >::state_case_normal_tchar(wchar_t)
FUNC 226a6 9 4 __crt_stdio_output::output_processor<wchar_t,__crt_stdio_output::stream_output_adapter<wchar_t>,__crt_stdio_output::standard_base<wchar_t,__crt_stdio_output::stream_output_adapter<wchar_t> > >::state_case_normal_tchar(wchar_t)
FUNC 226b1 9 4 __crt_stdio_output::output_processor<wchar_t,__crt_stdio_output::string_output_adapter<wchar_t>,__crt_stdio_output::format_validation_base<wchar_t,__crt_stdio_output::string_output_adapter<wchar_t> > >::state_case_normal_tchar(wchar_t)
FUNC 226bc 9 4 __crt_stdio_output::output_processor<wchar_t,__crt_stdio_output::string_output_adapter<wchar_t>,__crt_stdio_output::positional_parameter_base<wchar_t,__crt_stdio_output::string_output_adapter<wchar_t> > >::state_case_normal_tchar(wchar_t)
FUNC 226c7 9 4 __crt_stdio_output::output_processor<wchar_t,__crt_stdio_output::string_output_adapter<wchar_t>,__crt_stdio_output::standard_base<wchar_t,__crt_stdio_output::string_output_adapter<wchar_t> > >::state_case_normal_tchar(wchar_t)
FUNC 226d2 18 0 __crt_stdio_output::output_processor<char,__crt_stdio_output::stream_output_adapter<char>,__crt_stdio_output::format_validation_base<char,__crt_stdio_output::stream_output_adapter<char> > >::state_case_percent()
FUNC 226f0 18 0 __crt_stdio_output::output_processor<char,__crt_stdio_output::stream_output_adapter<char>,__crt_stdio_output::positional_parameter_base<char,__crt_stdio_output::stream_output_adapter<char> > >::state_case_percent()
FUNC 2270e 18 0 __crt_stdio_output::output_processor<char,__crt_stdio_output::stream_output_adapter<char>,__crt_stdio_output::standard_base<char,__crt_stdio_output::stream_output_adapter<char> > >::state_case_percent()
FUNC 2272c 18 0 __crt_stdio_output::output_processor<char,__crt_stdio_output::string_output_adapter<char>,__crt_stdio_output::format_validation_base<char,__crt_stdio_output::string_output_adapter<char> > >::state_case_percent()
FUNC 2274a 18 0 __crt_stdio_output::output_processor<char,__crt_stdio_output::string_output_adapter<char>,__crt_stdio_output::positional_parameter_base<char,__crt_stdio_output::string_output_adapter<char> > >::state_case_percent()
FUNC 22768 18 0 __crt_stdio_output::output_processor<char,__crt_stdio_output::string_output_adapter<char>,__crt_stdio_output::standard_base<char,__crt_stdio_output::string_output_adapter<char> > >::state_case_percent()
FUNC 22786 18 0 __crt_stdio_output::output_processor<wchar_t,__crt_stdio_output::stream_output_adapter<wchar_t>,__crt_stdio_output::format_validation_base<wchar_t,__crt_stdio_output::stream_output_adapter<wchar_t> > >::state_case_percent()
FUNC 227a4 18 0 __crt_stdio_output::output_processor<wchar_t,__crt_stdio_output::stream_output_adapter<wchar_t>,__crt_stdio_output::positional_parameter_base<wchar_t,__crt_stdio_output::stream_output_adapter<wchar_t> > >::state_case_percent()
FUNC 227c2 18 0 __crt_stdio_output::output_processor<wchar_t,__crt_stdio_output::stream_output_adapter<wchar_t>,__crt_stdio_output::standard_base<wchar_t,__crt_stdio_output::stream_output_adapter<wchar_t> > >::state_case_percent()
FUNC 227e0 18 0 __crt_stdio_output::output_processor<wchar_t,__crt_stdio_output::string_output_adapter<wchar_t>,__crt_stdio_output::format_validation_base<wchar_t,__crt_stdio_output::string_output_adapter<wchar_t> > >::state_case_percent()
FUNC 227fe 18 0 __crt_stdio_output::output_processor<wchar_t,__crt_stdio_output::string_output_adapter<wchar_t>,__crt_stdio_output::positional_parameter_base<wchar_t,__crt_stdio_output::string_output_adapter<wchar_t> > >::state_case_percent()
FUNC 2281c 18 0 __crt_stdio_output::output_processor<wchar_t,__crt_stdio_output::string_output_adapter<wchar_t>,__crt_stdio_output::standard_base<wchar_t,__crt_stdio_output::string_output_adapter<wchar_t> > >::state_case_percent()
FUNC 2283a 26 0 __crt_stdio_output::output_processor<char,__crt_stdio_output::stream_output_adapter<char>,__crt_stdio_output::format_validation_base<char,__crt_stdio_output::stream_output_adapter<char> > >::state_case_precision()
FUNC 22869 3a 0 __crt_stdio_output::output_processor<char,__crt_stdio_output::stream_output_adapter<char>,__crt_stdio_output::positional_parameter_base<char,__crt_stdio_output::stream_output_adapter<char> > >::state_case_precision()
FUNC 228b1 26 0 __crt_stdio_output::output_processor<char,__crt_stdio_output::stream_output_adapter<char>,__crt_stdio_output::standard_base<char,__crt_stdio_output::stream_output_adapter<char> > >::state_case_precision()
FUNC 228e0 26 0 __crt_stdio_output::output_processor<char,__crt_stdio_output::string_output_adapter<char>,__crt_stdio_output::format_validation_base<char,__crt_stdio_output::string_output_adapter<char> > >::state_case_precision()
FUNC 2290f 3a 0 __crt_stdio_output::output_processor<char,__crt_stdio_output::string_output_adapter<char>,__crt_stdio_output::positional_parameter_base<char,__crt_stdio_output::string_output_adapter<char> > >::state_case_precision()
FUNC 22957 26 0 __crt_stdio_output::output_processor<char,__crt_stdio_output::string_output_adapter<char>,__crt_stdio_output::standard_base<char,__crt_stdio_output::string_output_adapter<char> > >::state_case_precision()
FUNC 22986 27 0 __crt_stdio_output::output_processor<wchar_t,__crt_stdio_output::stream_output_adapter<wchar_t>,__crt_stdio_output::format_validation_base<wchar_t,__crt_stdio_output::stream_output_adapter<wchar_t> > >::state_case_precision()
FUNC 229b6 3b 0 __crt_stdio_output::output_processor<wchar_t,__crt_stdio_output::stream_output_adapter<wchar_t>,__crt_stdio_output::positional_parameter_base<wchar_t,__crt_stdio_output::stream_output_adapter<wchar_t> > >::state_case_precision()
FUNC 229ff 27 0 __crt_stdio_output::output_processor<wchar_t,__crt_stdio_output::stream_output_adapter<wchar_t>,__crt_stdio_output::standard_base<wchar_t,__crt_stdio_output::stream_output_adapter<wchar_t> > >::state_case_precision()
FUNC 22a2f 27 0 __crt_stdio_output::output_processor<wchar_t,__crt_stdio_output::string_output_adapter<wchar_t>,__crt_stdio_output::format_validation_base<wchar_t,__crt_stdio_output::string_output_adapter<wchar_t> > >::state_case_precision()
FUNC 22a5f 3b 0 __crt_stdio_output::output_processor<wchar_t,__crt_stdio_output::string_output_adapter<wchar_t>,__crt_stdio_output::positional_parameter_base<wchar_t,__crt_stdio_output::string_output_adapter<wchar_t> > >::state_case_precision()
FUNC 22aa8 27 0 __crt_stdio_output::output_processor<wchar_t,__crt_stdio_output::string_output_adapter<wchar_t>,__crt_stdio_output::standard_base<wchar_t,__crt_stdio_output::string_output_adapter<wchar_t> > >::state_case_precision()
FUNC 22ad8 14e 0 __crt_stdio_output::output_processor<char,__crt_stdio_output::stream_output_adapter<char>,__crt_stdio_output::format_validation_base<char,__crt_stdio_output::stream_output_adapter<char> > >::state_case_size()
FUNC 22c79 14e 0 __crt_stdio_output::output_processor<char,__crt_stdio_output::stream_output_adapter<char>,__crt_stdio_output::positional_parameter_base<char,__crt_stdio_output::stream_output_adapter<char> > >::state_case_size()
FUNC 22e1a 14e 0 __crt_stdio_output::output_processor<char,__crt_stdio_output::stream_output_adapter<char>,__crt_stdio_output::standard_base<char,__crt_stdio_output::stream_output_adapter<char> > >::state_case_size()
FUNC 22fbb 14e 0 __crt_stdio_output::output_processor<char,__crt_stdio_output::string_output_adapter<char>,__crt_stdio_output::format_validation_base<char,__crt_stdio_output::string_output_adapter<char> > >::state_case_size()
FUNC 2315c 14e 0 __crt_stdio_output::output_processor<char,__crt_stdio_output::string_output_adapter<char>,__crt_stdio_output::positional_parameter_base<char,__crt_stdio_output::string_output_adapter<char> > >::state_case_size()
FUNC 232fd 14e 0 __crt_stdio_output::output_processor<char,__crt_stdio_output::string_output_adapter<char>,__crt_stdio_output::standard_base<char,__crt_stdio_output::string_output_adapter<char> > >::state_case_size()
FUNC 2349e 178 0 __crt_stdio_output::output_processor<wchar_t,__crt_stdio_output::stream_output_adapter<wchar_t>,__crt_stdio_output::format_validation_base<wchar_t,__crt_stdio_output::stream_output_adapter<wchar_t> > >::state_case_size()
FUNC 23674 178 0 __crt_stdio_output::output_processor<wchar_t,__crt_stdio_output::stream_output_adapter<wchar_t>,__crt_stdio_output::positional_parameter_base<wchar_t,__crt_stdio_output::stream_output_adapter<wchar_t> > >::state_case_size()
FUNC 2384a 178 0 __crt_stdio_output::output_processor<wchar_t,__crt_stdio_output::stream_output_adapter<wchar_t>,__crt_stdio_output::standard_base<wchar_t,__crt_stdio_output::stream_output_adapter<wchar_t> > >::state_case_size()
FUNC 23a20 178 0 __crt_stdio_output::output_processor<wchar_t,__crt_stdio_output::string_output_adapter<wchar_t>,__crt_stdio_output::format_validation_base<wchar_t,__crt_stdio_output::string_output_adapter<wchar_t> > >::state_case_size()
FUNC 23bf6 178 0 __crt_stdio_output::output_processor<wchar_t,__crt_stdio_output::string_output_adapter<wchar_t>,__crt_stdio_output::positional_parameter_base<wchar_t,__crt_stdio_output::string_output_adapter<wchar_t> > >::state_case_size()
FUNC 23dcc 178 0 __crt_stdio_output::output_processor<wchar_t,__crt_stdio_output::string_output_adapter<wchar_t>,__crt_stdio_output::standard_base<wchar_t,__crt_stdio_output::string_output_adapter<wchar_t> > >::state_case_size()
FUNC 23fa2 232 0 __crt_stdio_output::output_processor<char,__crt_stdio_output::stream_output_adapter<char>,__crt_stdio_output::format_validation_base<char,__crt_stdio_output::stream_output_adapter<char> > >::state_case_type()
FUNC 24260 241 0 __crt_stdio_output::output_processor<char,__crt_stdio_output::stream_output_adapter<char>,__crt_stdio_output::positional_parameter_base<char,__crt_stdio_output::stream_output_adapter<char> > >::state_case_type()
FUNC 24531 232 0 __crt_stdio_output::output_processor<char,__crt_stdio_output::stream_output_adapter<char>,__crt_stdio_output::standard_base<char,__crt_stdio_output::stream_output_adapter<char> > >::state_case_type()
FUNC 247ef 232 0 __crt_stdio_output::output_processor<char,__crt_stdio_output::string_output_adapter<char>,__crt_stdio_output::format_validation_base<char,__crt_stdio_output::string_output_adapter<char> > >::state_case_type()
FUNC 24aad 241 0 __crt_stdio_output::output_processor<char,__crt_stdio_output::string_output_adapter<char>,__crt_stdio_output::positional_parameter_base<char,__crt_stdio_output::string_output_adapter<char> > >::state_case_type()
FUNC 24d7e 232 0 __crt_stdio_output::output_processor<char,__crt_stdio_output::string_output_adapter<char>,__crt_stdio_output::standard_base<char,__crt_stdio_output::string_output_adapter<char> > >::state_case_type()
FUNC 2503c 265 0 __crt_stdio_output::output_processor<wchar_t,__crt_stdio_output::stream_output_adapter<wchar_t>,__crt_stdio_output::format_validation_base<wchar_t,__crt_stdio_output::stream_output_adapter<wchar_t> > >::state_case_type()
FUNC 2533a 274 0 __crt_stdio_output::output_processor<wchar_t,__crt_stdio_output::stream_output_adapter<wchar_t>,__crt_stdio_output::positional_parameter_base<wchar_t,__crt_stdio_output::stream_output_adapter<wchar_t> > >::state_case_type()
FUNC 2564b 265 0 __crt_stdio_output::output_processor<wchar_t,__crt_stdio_output::stream_output_adapter<wchar_t>,__crt_stdio_output::standard_base<wchar_t,__crt_stdio_output::stream_output_adapter<wchar_t> > >::state_case_type()
FUNC 25949 265 0 __crt_stdio_output::output_processor<wchar_t,__crt_stdio_output::string_output_adapter<wchar_t>,__crt_stdio_output::format_validation_base<wchar_t,__crt_stdio_output::string_output_adapter<wchar_t> > >::state_case_type()
FUNC 25c47 274 0 __crt_stdio_output::output_processor<wchar_t,__crt_stdio_output::string_output_adapter<wchar_t>,__crt_stdio_output::positional_parameter_base<wchar_t,__crt_stdio_output::string_output_adapter<wchar_t> > >::state_case_type()
FUNC 25f58 265 0 __crt_stdio_output::output_processor<wchar_t,__crt_stdio_output::string_output_adapter<wchar_t>,__crt_stdio_output::standard_base<wchar_t,__crt_stdio_output::string_output_adapter<wchar_t> > >::state_case_type()
FUNC 26256 2b 0 __crt_stdio_output::output_processor<char,__crt_stdio_output::stream_output_adapter<char>,__crt_stdio_output::format_validation_base<char,__crt_stdio_output::stream_output_adapter<char> > >::state_case_width()
FUNC 2628b 40 0 __crt_stdio_output::output_processor<char,__crt_stdio_output::stream_output_adapter<char>,__crt_stdio_output::positional_parameter_base<char,__crt_stdio_output::stream_output_adapter<char> > >::state_case_width()
FUNC 262db 2b 0 __crt_stdio_output::output_processor<char,__crt_stdio_output::stream_output_adapter<char>,__crt_stdio_output::standard_base<char,__crt_stdio_output::stream_output_adapter<char> > >::state_case_width()
FUNC 26310 2b 0 __crt_stdio_output::output_processor<char,__crt_stdio_output::string_output_adapter<char>,__crt_stdio_output::format_validation_base<char,__crt_stdio_output::string_output_adapter<char> > >::state_case_width()
FUNC 26345 40 0 __crt_stdio_output::output_processor<char,__crt_stdio_output::string_output_adapter<char>,__crt_stdio_output::positional_parameter_base<char,__crt_stdio_output::string_output_adapter<char> > >::state_case_width()
FUNC 26395 2b 0 __crt_stdio_output::output_processor<char,__crt_stdio_output::string_output_adapter<char>,__crt_stdio_output::standard_base<char,__crt_stdio_output::string_output_adapter<char> > >::state_case_width()
FUNC 263ca 2c 0 __crt_stdio_output::output_processor<wchar_t,__crt_stdio_output::stream_output_adapter<wchar_t>,__crt_stdio_output::format_validation_base<wchar_t,__crt_stdio_output::stream_output_adapter<wchar_t> > >::state_case_width()
FUNC 26401 41 0 __crt_stdio_output::output_processor<wchar_t,__crt_stdio_output::stream_output_adapter<wchar_t>,__crt_stdio_output::positional_parameter_base<wchar_t,__crt_stdio_output::stream_output_adapter<wchar_t> > >::state_case_width()
FUNC 26452 2c 0 __crt_stdio_output::output_processor<wchar_t,__crt_stdio_output::stream_output_adapter<wchar_t>,__crt_stdio_output::standard_base<wchar_t,__crt_stdio_output::stream_output_adapter<wchar_t> > >::state_case_width()
FUNC 26489 2c 0 __crt_stdio_output::output_processor<wchar_t,__crt_stdio_output::string_output_adapter<wchar_t>,__crt_stdio_output::format_validation_base<wchar_t,__crt_stdio_output::string_output_adapter<wchar_t> > >::state_case_width()
FUNC 264c0 41 0 __crt_stdio_output::output_processor<wchar_t,__crt_stdio_output::string_output_adapter<wchar_t>,__crt_stdio_output::positional_parameter_base<wchar_t,__crt_stdio_output::string_output_adapter<wchar_t> > >::state_case_width()
FUNC 26511 2c 0 __crt_stdio_output::output_processor<wchar_t,__crt_stdio_output::string_output_adapter<wchar_t>,__crt_stdio_output::standard_base<wchar_t,__crt_stdio_output::string_output_adapter<wchar_t> > >::state_case_width()
FUNC 26548 4 0 __crt_stdio_output::format_validation_base<char,__crt_stdio_output::stream_output_adapter<char> >::state_count()
FUNC 2654c 4 0 __crt_stdio_output::format_validation_base<char,__crt_stdio_output::string_output_adapter<char> >::state_count()
FUNC 26550 4 0 __crt_stdio_output::format_validation_base<wchar_t,__crt_stdio_output::stream_output_adapter<wchar_t> >::state_count()
FUNC 26554 4 0 __crt_stdio_output::format_validation_base<wchar_t,__crt_stdio_output::string_output_adapter<wchar_t> >::state_count()
FUNC 26558 4 0 __crt_stdio_output::standard_base<char,__crt_stdio_output::stream_output_adapter<char> >::state_count()
FUNC 2655c 4 0 __crt_stdio_output::standard_base<char,__crt_stdio_output::string_output_adapter<char> >::state_count()
FUNC 26560 4 0 __crt_stdio_output::standard_base<wchar_t,__crt_stdio_output::stream_output_adapter<wchar_t> >::state_count()
FUNC 26564 4 0 __crt_stdio_output::standard_base<wchar_t,__crt_stdio_output::string_output_adapter<wchar_t> >::state_count()
FUNC 26568 6 0 __crt_stdio_output::format_validation_base<char,__crt_stdio_output::stream_output_adapter<char> >::state_transition_table()
FUNC 2656e 6 0 __crt_stdio_output::format_validation_base<char,__crt_stdio_output::string_output_adapter<char> >::state_transition_table()
FUNC 26574 6 0 __crt_stdio_output::format_validation_base<wchar_t,__crt_stdio_output::stream_output_adapter<wchar_t> >::state_transition_table()
FUNC 2657a 6 0 __crt_stdio_output::format_validation_base<wchar_t,__crt_stdio_output::string_output_adapter<wchar_t> >::state_transition_table()
FUNC 26580 6 0 __crt_stdio_output::standard_base<char,__crt_stdio_output::stream_output_adapter<char> >::state_transition_table()
FUNC 26586 6 0 __crt_stdio_output::standard_base<char,__crt_stdio_output::string_output_adapter<char> >::state_transition_table()
FUNC 2658c 6 0 __crt_stdio_output::standard_base<wchar_t,__crt_stdio_output::stream_output_adapter<wchar_t> >::state_transition_table()
FUNC 26592 6 0 __crt_stdio_output::standard_base<wchar_t,__crt_stdio_output::string_output_adapter<wchar_t> >::state_transition_table()
FUNC 26598 6 4 __crt_stdio_output::common_data<char>::tchar_string(char)
FUNC 2659e 4 0 __crt_stdio_output::common_data<char>::tchar_string()
FUNC 265a2 4 0 __crt_stdio_output::common_data<wchar_t>::tchar_string()
FUNC 265a6 6 4 __crt_stdio_output::common_data<wchar_t>::tchar_string(wchar_t)
FUNC 265ac 54 0 __crt_stdio_output::to_integer_size(__crt_stdio_output::length_modifier)
FUNC 26615 a 0 __crt_stdio_output::output_processor<char,__crt_stdio_output::stream_output_adapter<char>,__crt_stdio_output::format_validation_base<char,__crt_stdio_output::stream_output_adapter<char> > >::type_case_X()
FUNC 26621 a 0 __crt_stdio_output::output_processor<char,__crt_stdio_output::stream_output_adapter<char>,__crt_stdio_output::positional_parameter_base<char,__crt_stdio_output::stream_output_adapter<char> > >::type_case_X()
FUNC 2662d a 0 __crt_stdio_output::output_processor<char,__crt_stdio_output::stream_output_adapter<char>,__crt_stdio_output::standard_base<char,__crt_stdio_output::stream_output_adapter<char> > >::type_case_X()
FUNC 26639 a 0 __crt_stdio_output::output_processor<char,__crt_stdio_output::string_output_adapter<char>,__crt_stdio_output::format_validation_base<char,__crt_stdio_output::string_output_adapter<char> > >::type_case_X()
FUNC 26645 a 0 __crt_stdio_output::output_processor<char,__crt_stdio_output::string_output_adapter<char>,__crt_stdio_output::positional_parameter_base<char,__crt_stdio_output::string_output_adapter<char> > >::type_case_X()
FUNC 26651 a 0 __crt_stdio_output::output_processor<char,__crt_stdio_output::string_output_adapter<char>,__crt_stdio_output::standard_base<char,__crt_stdio_output::string_output_adapter<char> > >::type_case_X()
FUNC 2665d a 0 __crt_stdio_output::output_processor<wchar_t,__crt_stdio_output::stream_output_adapter<wchar_t>,__crt_stdio_output::format_validation_base<wchar_t,__crt_stdio_output::stream_output_adapter<wchar_t> > >::type_case_X()
FUNC 26669 a 0 __crt_stdio_output::output_processor<wchar_t,__crt_stdio_output::stream_output_adapter<wchar_t>,__crt_stdio_output::positional_parameter_base<wchar_t,__crt_stdio_output::stream_output_adapter<wchar_t> > >::type_case_X()
FUNC 26675 a 0 __crt_stdio_output::output_processor<wchar_t,__crt_stdio_output::stream_output_adapter<wchar_t>,__crt_stdio_output::standard_base<wchar_t,__crt_stdio_output::stream_output_adapter<wchar_t> > >::type_case_X()
FUNC 26681 a 0 __crt_stdio_output::output_processor<wchar_t,__crt_stdio_output::string_output_adapter<wchar_t>,__crt_stdio_output::format_validation_base<wchar_t,__crt_stdio_output::string_output_adapter<wchar_t> > >::type_case_X()
FUNC 2668d a 0 __crt_stdio_output::output_processor<wchar_t,__crt_stdio_output::string_output_adapter<wchar_t>,__crt_stdio_output::positional_parameter_base<wchar_t,__crt_stdio_output::string_output_adapter<wchar_t> > >::type_case_X()
FUNC 26699 a 0 __crt_stdio_output::output_processor<wchar_t,__crt_stdio_output::string_output_adapter<wchar_t>,__crt_stdio_output::standard_base<wchar_t,__crt_stdio_output::string_output_adapter<wchar_t> > >::type_case_X()
FUNC 266a5 5a 0 __crt_stdio_output::output_processor<char,__crt_stdio_output::stream_output_adapter<char>,__crt_stdio_output::format_validation_base<char,__crt_stdio_output::stream_output_adapter<char> > >::type_case_Z()
FUNC 26715 d8 0 __crt_stdio_output::output_processor<char,__crt_stdio_output::stream_output_adapter<char>,__crt_stdio_output::positional_parameter_base<char,__crt_stdio_output::stream_output_adapter<char> > >::type_case_Z()
FUNC 26823 5a 0 __crt_stdio_output::output_processor<char,__crt_stdio_output::stream_output_adapter<char>,__crt_stdio_output::standard_base<char,__crt_stdio_output::stream_output_adapter<char> > >::type_case_Z()
FUNC 26893 5a 0 __crt_stdio_output::output_processor<char,__crt_stdio_output::string_output_adapter<char>,__crt_stdio_output::format_validation_base<char,__crt_stdio_output::string_output_adapter<char> > >::type_case_Z()
FUNC 26903 d8 0 __crt_stdio_output::output_processor<char,__crt_stdio_output::string_output_adapter<char>,__crt_stdio_output::positional_parameter_base<char,__crt_stdio_output::string_output_adapter<char> > >::type_case_Z()
FUNC 26a11 5a 0 __crt_stdio_output::output_processor<char,__crt_stdio_output::string_output_adapter<char>,__crt_stdio_output::standard_base<char,__crt_stdio_output::string_output_adapter<char> > >::type_case_Z()
FUNC 26a81 5a 0 __crt_stdio_output::output_processor<wchar_t,__crt_stdio_output::stream_output_adapter<wchar_t>,__crt_stdio_output::format_validation_base<wchar_t,__crt_stdio_output::stream_output_adapter<wchar_t> > >::type_case_Z()
FUNC 26af1 d8 0 __crt_stdio_output::output_processor<wchar_t,__crt_stdio_output::stream_output_adapter<wchar_t>,__crt_stdio_output::positional_parameter_base<wchar_t,__crt_stdio_output::stream_output_adapter<wchar_t> > >::type_case_Z()
FUNC 26bff 5a 0 __crt_stdio_output::output_processor<wchar_t,__crt_stdio_output::stream_output_adapter<wchar_t>,__crt_stdio_output::standard_base<wchar_t,__crt_stdio_output::stream_output_adapter<wchar_t> > >::type_case_Z()
FUNC 26c6f 5a 0 __crt_stdio_output::output_processor<wchar_t,__crt_stdio_output::string_output_adapter<wchar_t>,__crt_stdio_output::format_validation_base<wchar_t,__crt_stdio_output::string_output_adapter<wchar_t> > >::type_case_Z()
FUNC 26cdf d8 0 __crt_stdio_output::output_processor<wchar_t,__crt_stdio_output::string_output_adapter<wchar_t>,__crt_stdio_output::positional_parameter_base<wchar_t,__crt_stdio_output::string_output_adapter<wchar_t> > >::type_case_Z()
FUNC 26ded 5a 0 __crt_stdio_output::output_processor<wchar_t,__crt_stdio_output::string_output_adapter<wchar_t>,__crt_stdio_output::standard_base<wchar_t,__crt_stdio_output::string_output_adapter<wchar_t> > >::type_case_Z()
FUNC 26e5d 14f 0 __crt_stdio_output::output_processor<char,__crt_stdio_output::stream_output_adapter<char>,__crt_stdio_output::format_validation_base<char,__crt_stdio_output::stream_output_adapter<char> > >::type_case_a()
FUNC 26fff 17b 0 __crt_stdio_output::output_processor<char,__crt_stdio_output::stream_output_adapter<char>,__crt_stdio_output::positional_parameter_base<char,__crt_stdio_output::stream_output_adapter<char> > >::type_case_a()
FUNC 271d8 14f 0 __crt_stdio_output::output_processor<char,__crt_stdio_output::stream_output_adapter<char>,__crt_stdio_output::standard_base<char,__crt_stdio_output::stream_output_adapter<char> > >::type_case_a()
FUNC 2737a 14f 0 __crt_stdio_output::output_processor<char,__crt_stdio_output::string_output_adapter<char>,__crt_stdio_output::format_validation_base<char,__crt_stdio_output::string_output_adapter<char> > >::type_case_a()
FUNC 2751c 17b 0 __crt_stdio_output::output_processor<char,__crt_stdio_output::string_output_adapter<char>,__crt_stdio_output::positional_parameter_base<char,__crt_stdio_output::string_output_adapter<char> > >::type_case_a()
FUNC 276f5 14f 0 __crt_stdio_output::output_processor<char,__crt_stdio_output::string_output_adapter<char>,__crt_stdio_output::standard_base<char,__crt_stdio_output::string_output_adapter<char> > >::type_case_a()
FUNC 27897 165 0 __crt_stdio_output::output_processor<wchar_t,__crt_stdio_output::stream_output_adapter<wchar_t>,__crt_stdio_output::format_validation_base<wchar_t,__crt_stdio_output::stream_output_adapter<wchar_t> > >::type_case_a()
FUNC 27a55 191 0 __crt_stdio_output::output_processor<wchar_t,__crt_stdio_output::stream_output_adapter<wchar_t>,__crt_stdio_output::positional_parameter_base<wchar_t,__crt_stdio_output::stream_output_adapter<wchar_t> > >::type_case_a()
FUNC 27c4a 165 0 __crt_stdio_output::output_processor<wchar_t,__crt_stdio_output::stream_output_adapter<wchar_t>,__crt_stdio_output::standard_base<wchar_t,__crt_stdio_output::stream_output_adapter<wchar_t> > >::type_case_a()
FUNC 27e08 165 0 __crt_stdio_output::output_processor<wchar_t,__crt_stdio_output::string_output_adapter<wchar_t>,__crt_stdio_output::format_validation_base<wchar_t,__crt_stdio_output::string_output_adapter<wchar_t> > >::type_case_a()
FUNC 27fc6 191 0 __crt_stdio_output::output_processor<wchar_t,__crt_stdio_output::string_output_adapter<wchar_t>,__crt_stdio_output::positional_parameter_base<wchar_t,__crt_stdio_output::string_output_adapter<wchar_t> > >::type_case_a()
FUNC 281bb 165 0 __crt_stdio_output::output_processor<wchar_t,__crt_stdio_output::string_output_adapter<wchar_t>,__crt_stdio_output::standard_base<wchar_t,__crt_stdio_output::string_output_adapter<wchar_t> > >::type_case_a()
FUNC 28379 8 0 __crt_stdio_output::output_processor<char,__crt_stdio_output::stream_output_adapter<char>,__crt_stdio_output::format_validation_base<char,__crt_stdio_output::stream_output_adapter<char> > >::type_case_c()
FUNC 28383 8 0 __crt_stdio_output::output_processor<char,__crt_stdio_output::stream_output_adapter<char>,__crt_stdio_output::positional_parameter_base<char,__crt_stdio_output::stream_output_adapter<char> > >::type_case_c()
FUNC 2838d 8 0 __crt_stdio_output::output_processor<char,__crt_stdio_output::stream_output_adapter<char>,__crt_stdio_output::standard_base<char,__crt_stdio_output::stream_output_adapter<char> > >::type_case_c()
FUNC 28397 8 0 __crt_stdio_output::output_processor<char,__crt_stdio_output::string_output_adapter<char>,__crt_stdio_output::format_validation_base<char,__crt_stdio_output::string_output_adapter<char> > >::type_case_c()
FUNC 283a1 8 0 __crt_stdio_output::output_processor<char,__crt_stdio_output::string_output_adapter<char>,__crt_stdio_output::positional_parameter_base<char,__crt_stdio_output::string_output_adapter<char> > >::type_case_c()
FUNC 283ab 8 0 __crt_stdio_output::output_processor<char,__crt_stdio_output::string_output_adapter<char>,__crt_stdio_output::standard_base<char,__crt_stdio_output::string_output_adapter<char> > >::type_case_c()
FUNC 283b5 8 0 __crt_stdio_output::output_processor<wchar_t,__crt_stdio_output::stream_output_adapter<wchar_t>,__crt_stdio_output::format_validation_base<wchar_t,__crt_stdio_output::stream_output_adapter<wchar_t> > >::type_case_c()
FUNC 283bf 8 0 __crt_stdio_output::output_processor<wchar_t,__crt_stdio_output::stream_output_adapter<wchar_t>,__crt_stdio_output::positional_parameter_base<wchar_t,__crt_stdio_output::stream_output_adapter<wchar_t> > >::type_case_c()
FUNC 283c9 8 0 __crt_stdio_output::output_processor<wchar_t,__crt_stdio_output::stream_output_adapter<wchar_t>,__crt_stdio_output::standard_base<wchar_t,__crt_stdio_output::stream_output_adapter<wchar_t> > >::type_case_c()
FUNC 283d3 8 0 __crt_stdio_output::output_processor<wchar_t,__crt_stdio_output::string_output_adapter<wchar_t>,__crt_stdio_output::format_validation_base<wchar_t,__crt_stdio_output::string_output_adapter<wchar_t> > >::type_case_c()
FUNC 283dd 8 0 __crt_stdio_output::output_processor<wchar_t,__crt_stdio_output::string_output_adapter<wchar_t>,__crt_stdio_output::positional_parameter_base<wchar_t,__crt_stdio_output::string_output_adapter<wchar_t> > >::type_case_c()
FUNC 283e7 8 0 __crt_stdio_output::output_processor<wchar_t,__crt_stdio_output::string_output_adapter<wchar_t>,__crt_stdio_output::standard_base<wchar_t,__crt_stdio_output::string_output_adapter<wchar_t> > >::type_case_c()
FUNC 283f1 90 4 __crt_stdio_output::output_processor<char,__crt_stdio_output::stream_output_adapter<char>,__crt_stdio_output::format_validation_base<char,__crt_stdio_output::stream_output_adapter<char> > >::type_case_c_tchar(char)
FUNC 284a5 be 0 __crt_stdio_output::output_processor<char,__crt_stdio_output::stream_output_adapter<char>,__crt_stdio_output::positional_parameter_base<char,__crt_stdio_output::stream_output_adapter<char> > >::type_case_c_tchar(char)
FUNC 28592 90 4 __crt_stdio_output::output_processor<char,__crt_stdio_output::stream_output_adapter<char>,__crt_stdio_output::standard_base<char,__crt_stdio_output::stream_output_adapter<char> > >::type_case_c_tchar(char)
FUNC 28646 90 4 __crt_stdio_output::output_processor<char,__crt_stdio_output::string_output_adapter<char>,__crt_stdio_output::format_validation_base<char,__crt_stdio_output::string_output_adapter<char> > >::type_case_c_tchar(char)
FUNC 286fa be 0 __crt_stdio_output::output_processor<char,__crt_stdio_output::string_output_adapter<char>,__crt_stdio_output::positional_parameter_base<char,__crt_stdio_output::string_output_adapter<char> > >::type_case_c_tchar(char)
FUNC 287e7 90 4 __crt_stdio_output::output_processor<char,__crt_stdio_output::string_output_adapter<char>,__crt_stdio_output::standard_base<char,__crt_stdio_output::string_output_adapter<char> > >::type_case_c_tchar(char)
FUNC 2889b 96 0 __crt_stdio_output::output_processor<wchar_t,__crt_stdio_output::stream_output_adapter<wchar_t>,__crt_stdio_output::format_validation_base<wchar_t,__crt_stdio_output::stream_output_adapter<wchar_t> > >::type_case_c_tchar(wchar_t)
FUNC 28956 ad 0 __crt_stdio_output::output_processor<wchar_t,__crt_stdio_output::stream_output_adapter<wchar_t>,__crt_stdio_output::positional_parameter_base<wchar_t,__crt_stdio_output::stream_output_adapter<wchar_t> > >::type_case_c_tchar(wchar_t)
FUNC 28a2e 96 0 __crt_stdio_output::output_processor<wchar_t,__crt_stdio_output::stream_output_adapter<wchar_t>,__crt_stdio_output::standard_base<wchar_t,__crt_stdio_output::stream_output_adapter<wchar_t> > >::type_case_c_tchar(wchar_t)
FUNC 28ae9 96 0 __crt_stdio_output::output_processor<wchar_t,__crt_stdio_output::string_output_adapter<wchar_t>,__crt_stdio_output::format_validation_base<wchar_t,__crt_stdio_output::string_output_adapter<wchar_t> > >::type_case_c_tchar(wchar_t)
FUNC 28ba4 ad 0 __crt_stdio_output::output_processor<wchar_t,__crt_stdio_output::string_output_adapter<wchar_t>,__crt_stdio_output::positional_parameter_base<wchar_t,__crt_stdio_output::string_output_adapter<wchar_t> > >::type_case_c_tchar(wchar_t)
FUNC 28c7c 96 0 __crt_stdio_output::output_processor<wchar_t,__crt_stdio_output::string_output_adapter<wchar_t>,__crt_stdio_output::standard_base<wchar_t,__crt_stdio_output::string_output_adapter<wchar_t> > >::type_case_c_tchar(wchar_t)
FUNC 28d37 e 0 __crt_stdio_output::output_processor<char,__crt_stdio_output::stream_output_adapter<char>,__crt_stdio_output::format_validation_base<char,__crt_stdio_output::stream_output_adapter<char> > >::type_case_d()
FUNC 28d48 e 0 __crt_stdio_output::output_processor<char,__crt_stdio_output::stream_output_adapter<char>,__crt_stdio_output::positional_parameter_base<char,__crt_stdio_output::stream_output_adapter<char> > >::type_case_d()
FUNC 28d59 e 0 __crt_stdio_output::output_processor<char,__crt_stdio_output::stream_output_adapter<char>,__crt_stdio_output::standard_base<char,__crt_stdio_output::stream_output_adapter<char> > >::type_case_d()
FUNC 28d6a e 0 __crt_stdio_output::output_processor<char,__crt_stdio_output::string_output_adapter<char>,__crt_stdio_output::format_validation_base<char,__crt_stdio_output::string_output_adapter<char> > >::type_case_d()
FUNC 28d7b e 0 __crt_stdio_output::output_processor<char,__crt_stdio_output::string_output_adapter<char>,__crt_stdio_output::positional_parameter_base<char,__crt_stdio_output::string_output_adapter<char> > >::type_case_d()
FUNC 28d8c e 0 __crt_stdio_output::output_processor<char,__crt_stdio_output::string_output_adapter<char>,__crt_stdio_output::standard_base<char,__crt_stdio_output::string_output_adapter<char> > >::type_case_d()
FUNC 28d9d e 0 __crt_stdio_output::output_processor<wchar_t,__crt_stdio_output::stream_output_adapter<wchar_t>,__crt_stdio_output::format_validation_base<wchar_t,__crt_stdio_output::stream_output_adapter<wchar_t> > >::type_case_d()
FUNC 28dae e 0 __crt_stdio_output::output_processor<wchar_t,__crt_stdio_output::stream_output_adapter<wchar_t>,__crt_stdio_output::positional_parameter_base<wchar_t,__crt_stdio_output::stream_output_adapter<wchar_t> > >::type_case_d()
FUNC 28dbf e 0 __crt_stdio_output::output_processor<wchar_t,__crt_stdio_output::stream_output_adapter<wchar_t>,__crt_stdio_output::standard_base<wchar_t,__crt_stdio_output::stream_output_adapter<wchar_t> > >::type_case_d()
FUNC 28dd0 e 0 __crt_stdio_output::output_processor<wchar_t,__crt_stdio_output::string_output_adapter<wchar_t>,__crt_stdio_output::format_validation_base<wchar_t,__crt_stdio_output::string_output_adapter<wchar_t> > >::type_case_d()
FUNC 28de1 e 0 __crt_stdio_output::output_processor<wchar_t,__crt_stdio_output::string_output_adapter<wchar_t>,__crt_stdio_output::positional_parameter_base<wchar_t,__crt_stdio_output::string_output_adapter<wchar_t> > >::type_case_d()
FUNC 28df2 e 0 __crt_stdio_output::output_processor<wchar_t,__crt_stdio_output::string_output_adapter<wchar_t>,__crt_stdio_output::standard_base<wchar_t,__crt_stdio_output::string_output_adapter<wchar_t> > >::type_case_d()
FUNC 28e03 151 0 __crt_stdio_output::output_processor<char,__crt_stdio_output::stream_output_adapter<char>,__crt_stdio_output::format_validation_base<char,__crt_stdio_output::stream_output_adapter<char> > >::type_case_integer(unsigned int,bool)
FUNC 28fa8 181 0 __crt_stdio_output::output_processor<char,__crt_stdio_output::stream_output_adapter<char>,__crt_stdio_output::positional_parameter_base<char,__crt_stdio_output::stream_output_adapter<char> > >::type_case_integer(unsigned int,bool)
FUNC 29189 151 0 __crt_stdio_output::output_processor<char,__crt_stdio_output::stream_output_adapter<char>,__crt_stdio_output::standard_base<char,__crt_stdio_output::stream_output_adapter<char> > >::type_case_integer(unsigned int,bool)
FUNC 2932e 151 0 __crt_stdio_output::output_processor<char,__crt_stdio_output::string_output_adapter<char>,__crt_stdio_output::format_validation_base<char,__crt_stdio_output::string_output_adapter<char> > >::type_case_integer(unsigned int,bool)
FUNC 294d3 181 0 __crt_stdio_output::output_processor<char,__crt_stdio_output::string_output_adapter<char>,__crt_stdio_output::positional_parameter_base<char,__crt_stdio_output::string_output_adapter<char> > >::type_case_integer(unsigned int,bool)
FUNC 296b4 151 0 __crt_stdio_output::output_processor<char,__crt_stdio_output::string_output_adapter<char>,__crt_stdio_output::standard_base<char,__crt_stdio_output::string_output_adapter<char> > >::type_case_integer(unsigned int,bool)
FUNC 29859 155 0 __crt_stdio_output::output_processor<wchar_t,__crt_stdio_output::stream_output_adapter<wchar_t>,__crt_stdio_output::format_validation_base<wchar_t,__crt_stdio_output::stream_output_adapter<wchar_t> > >::type_case_integer(unsigned int,bool)
FUNC 29a03 185 0 __crt_stdio_output::output_processor<wchar_t,__crt_stdio_output::stream_output_adapter<wchar_t>,__crt_stdio_output::positional_parameter_base<wchar_t,__crt_stdio_output::stream_output_adapter<wchar_t> > >::type_case_integer(unsigned int,bool)
FUNC 29be9 155 0 __crt_stdio_output::output_processor<wchar_t,__crt_stdio_output::stream_output_adapter<wchar_t>,__crt_stdio_output::standard_base<wchar_t,__crt_stdio_output::stream_output_adapter<wchar_t> > >::type_case_integer(unsigned int,bool)
FUNC 29d93 155 0 __crt_stdio_output::output_processor<wchar_t,__crt_stdio_output::string_output_adapter<wchar_t>,__crt_stdio_output::format_validation_base<wchar_t,__crt_stdio_output::string_output_adapter<wchar_t> > >::type_case_integer(unsigned int,bool)
FUNC 29f3d 185 0 __crt_stdio_output::output_processor<wchar_t,__crt_stdio_output::string_output_adapter<wchar_t>,__crt_stdio_output::positional_parameter_base<wchar_t,__crt_stdio_output::string_output_adapter<wchar_t> > >::type_case_integer(unsigned int,bool)
FUNC 2a123 155 0 __crt_stdio_output::output_processor<wchar_t,__crt_stdio_output::string_output_adapter<wchar_t>,__crt_stdio_output::standard_base<wchar_t,__crt_stdio_output::string_output_adapter<wchar_t> > >::type_case_integer(unsigned int,bool)
FUNC 2a2cd 74 0 __crt_stdio_output::output_processor<char,__crt_stdio_output::stream_output_adapter<char>,__crt_stdio_output::format_validation_base<char,__crt_stdio_output::stream_output_adapter<char> > >::type_case_n()
FUNC 2a35e 97 0 __crt_stdio_output::output_processor<char,__crt_stdio_output::stream_output_adapter<char>,__crt_stdio_output::positional_parameter_base<char,__crt_stdio_output::stream_output_adapter<char> > >::type_case_n()
FUNC 2a41a 74 0 __crt_stdio_output::output_processor<char,__crt_stdio_output::stream_output_adapter<char>,__crt_stdio_output::standard_base<char,__crt_stdio_output::stream_output_adapter<char> > >::type_case_n()
FUNC 2a4ab 74 0 __crt_stdio_output::output_processor<char,__crt_stdio_output::string_output_adapter<char>,__crt_stdio_output::format_validation_base<char,__crt_stdio_output::string_output_adapter<char> > >::type_case_n()
FUNC 2a53c 97 0 __crt_stdio_output::output_processor<char,__crt_stdio_output::string_output_adapter<char>,__crt_stdio_output::positional_parameter_base<char,__crt_stdio_output::string_output_adapter<char> > >::type_case_n()
FUNC 2a5f8 74 0 __crt_stdio_output::output_processor<char,__crt_stdio_output::string_output_adapter<char>,__crt_stdio_output::standard_base<char,__crt_stdio_output::string_output_adapter<char> > >::type_case_n()
FUNC 2a689 74 0 __crt_stdio_output::output_processor<wchar_t,__crt_stdio_output::stream_output_adapter<wchar_t>,__crt_stdio_output::format_validation_base<wchar_t,__crt_stdio_output::stream_output_adapter<wchar_t> > >::type_case_n()
FUNC 2a71a 97 0 __crt_stdio_output::output_processor<wchar_t,__crt_stdio_output::stream_output_adapter<wchar_t>,__crt_stdio_output::positional_parameter_base<wchar_t,__crt_stdio_output::stream_output_adapter<wchar_t> > >::type_case_n()
FUNC 2a7d6 74 0 __crt_stdio_output::output_processor<wchar_t,__crt_stdio_output::stream_output_adapter<wchar_t>,__crt_stdio_output::standard_base<wchar_t,__crt_stdio_output::stream_output_adapter<wchar_t> > >::type_case_n()
FUNC 2a867 74 0 __crt_stdio_output::output_processor<wchar_t,__crt_stdio_output::string_output_adapter<wchar_t>,__crt_stdio_output::format_validation_base<wchar_t,__crt_stdio_output::string_output_adapter<wchar_t> > >::type_case_n()
FUNC 2a8f8 97 0 __crt_stdio_output::output_processor<wchar_t,__crt_stdio_output::string_output_adapter<wchar_t>,__crt_stdio_output::positional_parameter_base<wchar_t,__crt_stdio_output::string_output_adapter<wchar_t> > >::type_case_n()
FUNC 2a9b4 74 0 __crt_stdio_output::output_processor<wchar_t,__crt_stdio_output::string_output_adapter<wchar_t>,__crt_stdio_output::standard_base<wchar_t,__crt_stdio_output::string_output_adapter<wchar_t> > >::type_case_n()
FUNC 2aa45 1f 0 __crt_stdio_output::output_processor<char,__crt_stdio_output::stream_output_adapter<char>,__crt_stdio_output::format_validation_base<char,__crt_stdio_output::stream_output_adapter<char> > >::type_case_o()
FUNC 2aa6b 1f 0 __crt_stdio_output::output_processor<char,__crt_stdio_output::stream_output_adapter<char>,__crt_stdio_output::positional_parameter_base<char,__crt_stdio_output::stream_output_adapter<char> > >::type_case_o()
FUNC 2aa91 1f 0 __crt_stdio_output::output_processor<char,__crt_stdio_output::stream_output_adapter<char>,__crt_stdio_output::standard_base<char,__crt_stdio_output::stream_output_adapter<char> > >::type_case_o()
FUNC 2aab7 1f 0 __crt_stdio_output::output_processor<char,__crt_stdio_output::string_output_adapter<char>,__crt_stdio_output::format_validation_base<char,__crt_stdio_output::string_output_adapter<char> > >::type_case_o()
FUNC 2aadd 1f 0 __crt_stdio_output::output_processor<char,__crt_stdio_output::string_output_adapter<char>,__crt_stdio_output::positional_parameter_base<char,__crt_stdio_output::string_output_adapter<char> > >::type_case_o()
FUNC 2ab03 1f 0 __crt_stdio_output::output_processor<char,__crt_stdio_output::string_output_adapter<char>,__crt_stdio_output::standard_base<char,__crt_stdio_output::string_output_adapter<char> > >::type_case_o()
FUNC 2ab29 1f 0 __crt_stdio_output::output_processor<wchar_t,__crt_stdio_output::stream_output_adapter<wchar_t>,__crt_stdio_output::format_validation_base<wchar_t,__crt_stdio_output::stream_output_adapter<wchar_t> > >::type_case_o()
FUNC 2ab4f 1f 0 __crt_stdio_output::output_processor<wchar_t,__crt_stdio_output::stream_output_adapter<wchar_t>,__crt_stdio_output::positional_parameter_base<wchar_t,__crt_stdio_output::stream_output_adapter<wchar_t> > >::type_case_o()
FUNC 2ab75 1f 0 __crt_stdio_output::output_processor<wchar_t,__crt_stdio_output::stream_output_adapter<wchar_t>,__crt_stdio_output::standard_base<wchar_t,__crt_stdio_output::stream_output_adapter<wchar_t> > >::type_case_o()
FUNC 2ab9b 1f 0 __crt_stdio_output::output_processor<wchar_t,__crt_stdio_output::string_output_adapter<wchar_t>,__crt_stdio_output::format_validation_base<wchar_t,__crt_stdio_output::string_output_adapter<wchar_t> > >::type_case_o()
FUNC 2abc1 1f 0 __crt_stdio_output::output_processor<wchar_t,__crt_stdio_output::string_output_adapter<wchar_t>,__crt_stdio_output::positional_parameter_base<wchar_t,__crt_stdio_output::string_output_adapter<wchar_t> > >::type_case_o()
FUNC 2abe7 1f 0 __crt_stdio_output::output_processor<wchar_t,__crt_stdio_output::string_output_adapter<wchar_t>,__crt_stdio_output::standard_base<wchar_t,__crt_stdio_output::string_output_adapter<wchar_t> > >::type_case_o()
FUNC 2ac0d 18 0 __crt_stdio_output::output_processor<char,__crt_stdio_output::stream_output_adapter<char>,__crt_stdio_output::format_validation_base<char,__crt_stdio_output::stream_output_adapter<char> > >::type_case_p()
FUNC 2ac2b 18 0 __crt_stdio_output::output_processor<char,__crt_stdio_output::stream_output_adapter<char>,__crt_stdio_output::positional_parameter_base<char,__crt_stdio_output::stream_output_adapter<char> > >::type_case_p()
FUNC 2ac49 18 0 __crt_stdio_output::output_processor<char,__crt_stdio_output::stream_output_adapter<char>,__crt_stdio_output::standard_base<char,__crt_stdio_output::stream_output_adapter<char> > >::type_case_p()
FUNC 2ac67 18 0 __crt_stdio_output::output_processor<char,__crt_stdio_output::string_output_adapter<char>,__crt_stdio_output::format_validation_base<char,__crt_stdio_output::string_output_adapter<char> > >::type_case_p()
FUNC 2ac85 18 0 __crt_stdio_output::output_processor<char,__crt_stdio_output::string_output_adapter<char>,__crt_stdio_output::positional_parameter_base<char,__crt_stdio_output::string_output_adapter<char> > >::type_case_p()
FUNC 2aca3 18 0 __crt_stdio_output::output_processor<char,__crt_stdio_output::string_output_adapter<char>,__crt_stdio_output::standard_base<char,__crt_stdio_output::string_output_adapter<char> > >::type_case_p()
FUNC 2acc1 18 0 __crt_stdio_output::output_processor<wchar_t,__crt_stdio_output::stream_output_adapter<wchar_t>,__crt_stdio_output::format_validation_base<wchar_t,__crt_stdio_output::stream_output_adapter<wchar_t> > >::type_case_p()
FUNC 2acdf 18 0 __crt_stdio_output::output_processor<wchar_t,__crt_stdio_output::stream_output_adapter<wchar_t>,__crt_stdio_output::positional_parameter_base<wchar_t,__crt_stdio_output::stream_output_adapter<wchar_t> > >::type_case_p()
FUNC 2acfd 18 0 __crt_stdio_output::output_processor<wchar_t,__crt_stdio_output::stream_output_adapter<wchar_t>,__crt_stdio_output::standard_base<wchar_t,__crt_stdio_output::stream_output_adapter<wchar_t> > >::type_case_p()
FUNC 2ad1b 18 0 __crt_stdio_output::output_processor<wchar_t,__crt_stdio_output::string_output_adapter<wchar_t>,__crt_stdio_output::format_validation_base<wchar_t,__crt_stdio_output::string_output_adapter<wchar_t> > >::type_case_p()
FUNC 2ad39 18 0 __crt_stdio_output::output_processor<wchar_t,__crt_stdio_output::string_output_adapter<wchar_t>,__crt_stdio_output::positional_parameter_base<wchar_t,__crt_stdio_output::string_output_adapter<wchar_t> > >::type_case_p()
FUNC 2ad57 18 0 __crt_stdio_output::output_processor<wchar_t,__crt_stdio_output::string_output_adapter<wchar_t>,__crt_stdio_output::standard_base<wchar_t,__crt_stdio_output::string_output_adapter<wchar_t> > >::type_case_p()
FUNC 2ad75 71 0 __crt_stdio_output::output_processor<char,__crt_stdio_output::stream_output_adapter<char>,__crt_stdio_output::format_validation_base<char,__crt_stdio_output::stream_output_adapter<char> > >::type_case_s()
FUNC 2ae02 7e 0 __crt_stdio_output::output_processor<char,__crt_stdio_output::stream_output_adapter<char>,__crt_stdio_output::positional_parameter_base<char,__crt_stdio_output::stream_output_adapter<char> > >::type_case_s()
FUNC 2ae9f 71 0 __crt_stdio_output::output_processor<char,__crt_stdio_output::stream_output_adapter<char>,__crt_stdio_output::standard_base<char,__crt_stdio_output::stream_output_adapter<char> > >::type_case_s()
FUNC 2af2c 71 0 __crt_stdio_output::output_processor<char,__crt_stdio_output::string_output_adapter<char>,__crt_stdio_output::format_validation_base<char,__crt_stdio_output::string_output_adapter<char> > >::type_case_s()
FUNC 2afb9 7e 0 __crt_stdio_output::output_processor<char,__crt_stdio_output::string_output_adapter<char>,__crt_stdio_output::positional_parameter_base<char,__crt_stdio_output::string_output_adapter<char> > >::type_case_s()
FUNC 2b056 71 0 __crt_stdio_output::output_processor<char,__crt_stdio_output::string_output_adapter<char>,__crt_stdio_output::standard_base<char,__crt_stdio_output::string_output_adapter<char> > >::type_case_s()
FUNC 2b0e3 73 0 __crt_stdio_output::output_processor<wchar_t,__crt_stdio_output::stream_output_adapter<wchar_t>,__crt_stdio_output::format_validation_base<wchar_t,__crt_stdio_output::stream_output_adapter<wchar_t> > >::type_case_s()
FUNC 2b172 80 0 __crt_stdio_output::output_processor<wchar_t,__crt_stdio_output::stream_output_adapter<wchar_t>,__crt_stdio_output::positional_parameter_base<wchar_t,__crt_stdio_output::stream_output_adapter<wchar_t> > >::type_case_s()
FUNC 2b212 73 0 __crt_stdio_output::output_processor<wchar_t,__crt_stdio_output::stream_output_adapter<wchar_t>,__crt_stdio_output::standard_base<wchar_t,__crt_stdio_output::stream_output_adapter<wchar_t> > >::type_case_s()
FUNC 2b2a1 73 0 __crt_stdio_output::output_processor<wchar_t,__crt_stdio_output::string_output_adapter<wchar_t>,__crt_stdio_output::format_validation_base<wchar_t,__crt_stdio_output::string_output_adapter<wchar_t> > >::type_case_s()
FUNC 2b330 80 0 __crt_stdio_output::output_processor<wchar_t,__crt_stdio_output::string_output_adapter<wchar_t>,__crt_stdio_output::positional_parameter_base<wchar_t,__crt_stdio_output::string_output_adapter<wchar_t> > >::type_case_s()
FUNC 2b3d0 73 0 __crt_stdio_output::output_processor<wchar_t,__crt_stdio_output::string_output_adapter<wchar_t>,__crt_stdio_output::standard_base<wchar_t,__crt_stdio_output::string_output_adapter<wchar_t> > >::type_case_s()
FUNC 2b45f 16 0 __crt_stdio_output::output_processor<char,__crt_stdio_output::stream_output_adapter<char>,__crt_stdio_output::format_validation_base<char,__crt_stdio_output::stream_output_adapter<char> > >::type_case_s_compute_narrow_string_length(int,char)
FUNC 2b47a 16 0 __crt_stdio_output::output_processor<char,__crt_stdio_output::stream_output_adapter<char>,__crt_stdio_output::positional_parameter_base<char,__crt_stdio_output::stream_output_adapter<char> > >::type_case_s_compute_narrow_string_length(int,char)
FUNC 2b495 16 0 __crt_stdio_output::output_processor<char,__crt_stdio_output::stream_output_adapter<char>,__crt_stdio_output::standard_base<char,__crt_stdio_output::stream_output_adapter<char> > >::type_case_s_compute_narrow_string_length(int,char)
FUNC 2b4b0 16 0 __crt_stdio_output::output_processor<char,__crt_stdio_output::string_output_adapter<char>,__crt_stdio_output::format_validation_base<char,__crt_stdio_output::string_output_adapter<char> > >::type_case_s_compute_narrow_string_length(int,char)
FUNC 2b4cb 16 0 __crt_stdio_output::output_processor<char,__crt_stdio_output::string_output_adapter<char>,__crt_stdio_output::positional_parameter_base<char,__crt_stdio_output::string_output_adapter<char> > >::type_case_s_compute_narrow_string_length(int,char)
FUNC 2b4e6 16 0 __crt_stdio_output::output_processor<char,__crt_stdio_output::string_output_adapter<char>,__crt_stdio_output::standard_base<char,__crt_stdio_output::string_output_adapter<char> > >::type_case_s_compute_narrow_string_length(int,char)
FUNC 2b501 47 0 __crt_stdio_output::output_processor<wchar_t,__crt_stdio_output::stream_output_adapter<wchar_t>,__crt_stdio_output::format_validation_base<wchar_t,__crt_stdio_output::stream_output_adapter<wchar_t> > >::type_case_s_compute_narrow_string_length(int,wchar_t)
FUNC 2b559 47 0 __crt_stdio_output::output_processor<wchar_t,__crt_stdio_output::stream_output_adapter<wchar_t>,__crt_stdio_output::positional_parameter_base<wchar_t,__crt_stdio_output::stream_output_adapter<wchar_t> > >::type_case_s_compute_narrow_string_length(int,wchar_t)
FUNC 2b5b1 47 0 __crt_stdio_output::output_processor<wchar_t,__crt_stdio_output::stream_output_adapter<wchar_t>,__crt_stdio_output::standard_base<wchar_t,__crt_stdio_output::stream_output_adapter<wchar_t> > >::type_case_s_compute_narrow_string_length(int,wchar_t)
FUNC 2b609 47 0 __crt_stdio_output::output_processor<wchar_t,__crt_stdio_output::string_output_adapter<wchar_t>,__crt_stdio_output::format_validation_base<wchar_t,__crt_stdio_output::string_output_adapter<wchar_t> > >::type_case_s_compute_narrow_string_length(int,wchar_t)
FUNC 2b661 47 0 __crt_stdio_output::output_processor<wchar_t,__crt_stdio_output::string_output_adapter<wchar_t>,__crt_stdio_output::positional_parameter_base<wchar_t,__crt_stdio_output::string_output_adapter<wchar_t> > >::type_case_s_compute_narrow_string_length(int,wchar_t)
FUNC 2b6b9 47 0 __crt_stdio_output::output_processor<wchar_t,__crt_stdio_output::string_output_adapter<wchar_t>,__crt_stdio_output::standard_base<wchar_t,__crt_stdio_output::string_output_adapter<wchar_t> > >::type_case_s_compute_narrow_string_length(int,wchar_t)
FUNC 2b711 a 0 __crt_stdio_output::output_processor<char,__crt_stdio_output::stream_output_adapter<char>,__crt_stdio_output::format_validation_base<char,__crt_stdio_output::stream_output_adapter<char> > >::type_case_u()
FUNC 2b71d a 0 __crt_stdio_output::output_processor<char,__crt_stdio_output::stream_output_adapter<char>,__crt_stdio_output::positional_parameter_base<char,__crt_stdio_output::stream_output_adapter<char> > >::type_case_u()
FUNC 2b729 a 0 __crt_stdio_output::output_processor<char,__crt_stdio_output::stream_output_adapter<char>,__crt_stdio_output::standard_base<char,__crt_stdio_output::stream_output_adapter<char> > >::type_case_u()
FUNC 2b735 a 0 __crt_stdio_output::output_processor<char,__crt_stdio_output::string_output_adapter<char>,__crt_stdio_output::format_validation_base<char,__crt_stdio_output::string_output_adapter<char> > >::type_case_u()
FUNC 2b741 a 0 __crt_stdio_output::output_processor<char,__crt_stdio_output::string_output_adapter<char>,__crt_stdio_output::positional_parameter_base<char,__crt_stdio_output::string_output_adapter<char> > >::type_case_u()
FUNC 2b74d a 0 __crt_stdio_output::output_processor<char,__crt_stdio_output::string_output_adapter<char>,__crt_stdio_output::standard_base<char,__crt_stdio_output::string_output_adapter<char> > >::type_case_u()
FUNC 2b759 a 0 __crt_stdio_output::output_processor<wchar_t,__crt_stdio_output::stream_output_adapter<wchar_t>,__crt_stdio_output::format_validation_base<wchar_t,__crt_stdio_output::stream_output_adapter<wchar_t> > >::type_case_u()
FUNC 2b765 a 0 __crt_stdio_output::output_processor<wchar_t,__crt_stdio_output::stream_output_adapter<wchar_t>,__crt_stdio_output::positional_parameter_base<wchar_t,__crt_stdio_output::stream_output_adapter<wchar_t> > >::type_case_u()
FUNC 2b771 a 0 __crt_stdio_output::output_processor<wchar_t,__crt_stdio_output::stream_output_adapter<wchar_t>,__crt_stdio_output::standard_base<wchar_t,__crt_stdio_output::stream_output_adapter<wchar_t> > >::type_case_u()
FUNC 2b77d a 0 __crt_stdio_output::output_processor<wchar_t,__crt_stdio_output::string_output_adapter<wchar_t>,__crt_stdio_output::format_validation_base<wchar_t,__crt_stdio_output::string_output_adapter<wchar_t> > >::type_case_u()
FUNC 2b789 a 0 __crt_stdio_output::output_processor<wchar_t,__crt_stdio_output::string_output_adapter<wchar_t>,__crt_stdio_output::positional_parameter_base<wchar_t,__crt_stdio_output::string_output_adapter<wchar_t> > >::type_case_u()
FUNC 2b795 a 0 __crt_stdio_output::output_processor<wchar_t,__crt_stdio_output::string_output_adapter<wchar_t>,__crt_stdio_output::standard_base<wchar_t,__crt_stdio_output::string_output_adapter<wchar_t> > >::type_case_u()
FUNC 2b7a1 a 0 __crt_stdio_output::output_processor<char,__crt_stdio_output::stream_output_adapter<char>,__crt_stdio_output::format_validation_base<char,__crt_stdio_output::stream_output_adapter<char> > >::type_case_x()
FUNC 2b7ad a 0 __crt_stdio_output::output_processor<char,__crt_stdio_output::stream_output_adapter<char>,__crt_stdio_output::positional_parameter_base<char,__crt_stdio_output::stream_output_adapter<char> > >::type_case_x()
FUNC 2b7b9 a 0 __crt_stdio_output::output_processor<char,__crt_stdio_output::stream_output_adapter<char>,__crt_stdio_output::standard_base<char,__crt_stdio_output::stream_output_adapter<char> > >::type_case_x()
FUNC 2b7c5 a 0 __crt_stdio_output::output_processor<char,__crt_stdio_output::string_output_adapter<char>,__crt_stdio_output::format_validation_base<char,__crt_stdio_output::string_output_adapter<char> > >::type_case_x()
FUNC 2b7d1 a 0 __crt_stdio_output::output_processor<char,__crt_stdio_output::string_output_adapter<char>,__crt_stdio_output::positional_parameter_base<char,__crt_stdio_output::string_output_adapter<char> > >::type_case_x()
FUNC 2b7dd a 0 __crt_stdio_output::output_processor<char,__crt_stdio_output::string_output_adapter<char>,__crt_stdio_output::standard_base<char,__crt_stdio_output::string_output_adapter<char> > >::type_case_x()
FUNC 2b7e9 a 0 __crt_stdio_output::output_processor<wchar_t,__crt_stdio_output::stream_output_adapter<wchar_t>,__crt_stdio_output::format_validation_base<wchar_t,__crt_stdio_output::stream_output_adapter<wchar_t> > >::type_case_x()
FUNC 2b7f5 a 0 __crt_stdio_output::output_processor<wchar_t,__crt_stdio_output::stream_output_adapter<wchar_t>,__crt_stdio_output::positional_parameter_base<wchar_t,__crt_stdio_output::stream_output_adapter<wchar_t> > >::type_case_x()
FUNC 2b801 a 0 __crt_stdio_output::output_processor<wchar_t,__crt_stdio_output::stream_output_adapter<wchar_t>,__crt_stdio_output::standard_base<wchar_t,__crt_stdio_output::stream_output_adapter<wchar_t> > >::type_case_x()
FUNC 2b80d a 0 __crt_stdio_output::output_processor<wchar_t,__crt_stdio_output::string_output_adapter<wchar_t>,__crt_stdio_output::format_validation_base<wchar_t,__crt_stdio_output::string_output_adapter<wchar_t> > >::type_case_x()
FUNC 2b819 a 0 __crt_stdio_output::output_processor<wchar_t,__crt_stdio_output::string_output_adapter<wchar_t>,__crt_stdio_output::positional_parameter_base<wchar_t,__crt_stdio_output::string_output_adapter<wchar_t> > >::type_case_x()
FUNC 2b825 a 0 __crt_stdio_output::output_processor<wchar_t,__crt_stdio_output::string_output_adapter<wchar_t>,__crt_stdio_output::standard_base<wchar_t,__crt_stdio_output::string_output_adapter<wchar_t> > >::type_case_x()
FUNC 2b831 11 0 __crt_stdio_output::output_processor<char,__crt_stdio_output::stream_output_adapter<char>,__crt_stdio_output::format_validation_base<char,__crt_stdio_output::stream_output_adapter<char> > >::unset_flag(unsigned int)
FUNC 2b846 11 0 __crt_stdio_output::output_processor<char,__crt_stdio_output::stream_output_adapter<char>,__crt_stdio_output::positional_parameter_base<char,__crt_stdio_output::stream_output_adapter<char> > >::unset_flag(unsigned int)
FUNC 2b85b 11 0 __crt_stdio_output::output_processor<char,__crt_stdio_output::stream_output_adapter<char>,__crt_stdio_output::standard_base<char,__crt_stdio_output::stream_output_adapter<char> > >::unset_flag(unsigned int)
FUNC 2b870 11 0 __crt_stdio_output::output_processor<char,__crt_stdio_output::string_output_adapter<char>,__crt_stdio_output::format_validation_base<char,__crt_stdio_output::string_output_adapter<char> > >::unset_flag(unsigned int)
FUNC 2b885 11 0 __crt_stdio_output::output_processor<char,__crt_stdio_output::string_output_adapter<char>,__crt_stdio_output::positional_parameter_base<char,__crt_stdio_output::string_output_adapter<char> > >::unset_flag(unsigned int)
FUNC 2b89a 11 0 __crt_stdio_output::output_processor<char,__crt_stdio_output::string_output_adapter<char>,__crt_stdio_output::standard_base<char,__crt_stdio_output::string_output_adapter<char> > >::unset_flag(unsigned int)
FUNC 2b8af 11 0 __crt_stdio_output::output_processor<wchar_t,__crt_stdio_output::stream_output_adapter<wchar_t>,__crt_stdio_output::format_validation_base<wchar_t,__crt_stdio_output::stream_output_adapter<wchar_t> > >::unset_flag(unsigned int)
FUNC 2b8c4 11 0 __crt_stdio_output::output_processor<wchar_t,__crt_stdio_output::stream_output_adapter<wchar_t>,__crt_stdio_output::positional_parameter_base<wchar_t,__crt_stdio_output::stream_output_adapter<wchar_t> > >::unset_flag(unsigned int)
FUNC 2b8d9 11 0 __crt_stdio_output::output_processor<wchar_t,__crt_stdio_output::stream_output_adapter<wchar_t>,__crt_stdio_output::standard_base<wchar_t,__crt_stdio_output::stream_output_adapter<wchar_t> > >::unset_flag(unsigned int)
FUNC 2b8ee 11 0 __crt_stdio_output::output_processor<wchar_t,__crt_stdio_output::string_output_adapter<wchar_t>,__crt_stdio_output::format_validation_base<wchar_t,__crt_stdio_output::string_output_adapter<wchar_t> > >::unset_flag(unsigned int)
FUNC 2b903 11 0 __crt_stdio_output::output_processor<wchar_t,__crt_stdio_output::string_output_adapter<wchar_t>,__crt_stdio_output::positional_parameter_base<wchar_t,__crt_stdio_output::string_output_adapter<wchar_t> > >::unset_flag(unsigned int)
FUNC 2b918 11 0 __crt_stdio_output::output_processor<wchar_t,__crt_stdio_output::string_output_adapter<wchar_t>,__crt_stdio_output::standard_base<wchar_t,__crt_stdio_output::string_output_adapter<wchar_t> > >::unset_flag(unsigned int)
FUNC 2b92d b4 0 __crt_stdio_output::positional_parameter_base<char,__crt_stdio_output::stream_output_adapter<char> >::update_field_width()
FUNC 2ba0e b4 0 __crt_stdio_output::positional_parameter_base<char,__crt_stdio_output::string_output_adapter<char> >::update_field_width()
FUNC 2baef b5 0 __crt_stdio_output::positional_parameter_base<wchar_t,__crt_stdio_output::stream_output_adapter<wchar_t> >::update_field_width()
FUNC 2bbd1 b5 0 __crt_stdio_output::positional_parameter_base<wchar_t,__crt_stdio_output::string_output_adapter<wchar_t> >::update_field_width()
FUNC 2bcb3 10 0 __crt_stdio_output::standard_base<char,__crt_stdio_output::stream_output_adapter<char> >::update_field_width()
FUNC 2bcc7 10 0 __crt_stdio_output::standard_base<char,__crt_stdio_output::string_output_adapter<char> >::update_field_width()
FUNC 2bcdb 10 0 __crt_stdio_output::standard_base<wchar_t,__crt_stdio_output::stream_output_adapter<wchar_t> >::update_field_width()
FUNC 2bcef 10 0 __crt_stdio_output::standard_base<wchar_t,__crt_stdio_output::string_output_adapter<wchar_t> >::update_field_width()
FUNC 2bd03 b4 0 __crt_stdio_output::positional_parameter_base<char,__crt_stdio_output::stream_output_adapter<char> >::update_precision()
FUNC 2bde4 b4 0 __crt_stdio_output::positional_parameter_base<char,__crt_stdio_output::string_output_adapter<char> >::update_precision()
FUNC 2bec5 b5 0 __crt_stdio_output::positional_parameter_base<wchar_t,__crt_stdio_output::stream_output_adapter<wchar_t> >::update_precision()
FUNC 2bfa7 b5 0 __crt_stdio_output::positional_parameter_base<wchar_t,__crt_stdio_output::string_output_adapter<wchar_t> >::update_precision()
FUNC 2c089 10 0 __crt_stdio_output::standard_base<char,__crt_stdio_output::stream_output_adapter<char> >::update_precision()
FUNC 2c09d 10 0 __crt_stdio_output::standard_base<char,__crt_stdio_output::string_output_adapter<char> >::update_precision()
FUNC 2c0b1 10 0 __crt_stdio_output::standard_base<wchar_t,__crt_stdio_output::stream_output_adapter<wchar_t> >::update_precision()
FUNC 2c0c5 10 0 __crt_stdio_output::standard_base<wchar_t,__crt_stdio_output::string_output_adapter<wchar_t> >::update_precision()
FUNC 2c0d9 7 0 __crt_stdio_stream::valid()
FUNC 2c0e0 21 0 __crt_stdio_output::stream_output_adapter<char>::validate()
FUNC 2c109 1b 0 __crt_stdio_output::stream_output_adapter<wchar_t>::validate()
FUNC 2c12a 1b 0 __crt_stdio_output::string_output_adapter<char>::validate()
FUNC 2c14b 1b 0 __crt_stdio_output::string_output_adapter<wchar_t>::validate()
FUNC 2c16c 4b 0 __crt_stdio_output::positional_parameter_base<char,__crt_stdio_output::stream_output_adapter<char> >::validate_and_store_parameter_data(__crt_stdio_output::positional_parameter_base<char,__crt_stdio_output::stream_output_adapter<char> >::parameter_data &,__crt_stdio_output::positional_parameter_base<char,__crt_stdio_output::stream_output_adapter<char> >::parameter_type,char,__crt_stdio_output::length_modifier)
FUNC 2c1c9 4b 0 __crt_stdio_output::positional_parameter_base<char,__crt_stdio_output::string_output_adapter<char> >::validate_and_store_parameter_data(__crt_stdio_output::positional_parameter_base<char,__crt_stdio_output::string_output_adapter<char> >::parameter_data &,__crt_stdio_output::positional_parameter_base<char,__crt_stdio_output::string_output_adapter<char> >::parameter_type,char,__crt_stdio_output::length_modifier)
FUNC 2c226 4d 0 __crt_stdio_output::positional_parameter_base<wchar_t,__crt_stdio_output::stream_output_adapter<wchar_t> >::validate_and_store_parameter_data(__crt_stdio_output::positional_parameter_base<wchar_t,__crt_stdio_output::stream_output_adapter<wchar_t> >::parameter_data &,__crt_stdio_output::positional_parameter_base<wchar_t,__crt_stdio_output::stream_output_adapter<wchar_t> >::parameter_type,wchar_t,__crt_stdio_output::length_modifier)
FUNC 2c286 4d 0 __crt_stdio_output::positional_parameter_base<wchar_t,__crt_stdio_output::string_output_adapter<wchar_t> >::validate_and_store_parameter_data(__crt_stdio_output::positional_parameter_base<wchar_t,__crt_stdio_output::string_output_adapter<wchar_t> >::parameter_data &,__crt_stdio_output::positional_parameter_base<wchar_t,__crt_stdio_output::string_output_adapter<wchar_t> >::parameter_type,wchar_t,__crt_stdio_output::length_modifier)
FUNC 2c2e6 f8 0 __crt_stdio_output::positional_parameter_base<char,__crt_stdio_output::stream_output_adapter<char> >::validate_and_update_state_at_beginning_of_format_character()
FUNC 2c41c f8 0 __crt_stdio_output::positional_parameter_base<char,__crt_stdio_output::string_output_adapter<char> >::validate_and_update_state_at_beginning_of_format_character()
FUNC 2c552 101 0 __crt_stdio_output::positional_parameter_base<wchar_t,__crt_stdio_output::stream_output_adapter<wchar_t> >::validate_and_update_state_at_beginning_of_format_character()
FUNC 2c693 101 0 __crt_stdio_output::positional_parameter_base<wchar_t,__crt_stdio_output::string_output_adapter<wchar_t> >::validate_and_update_state_at_beginning_of_format_character()
FUNC 2c7d4 3 0 __crt_stdio_output::standard_base<char,__crt_stdio_output::stream_output_adapter<char> >::validate_and_update_state_at_beginning_of_format_character()
FUNC 2c7d7 3 0 __crt_stdio_output::standard_base<char,__crt_stdio_output::string_output_adapter<char> >::validate_and_update_state_at_beginning_of_format_character()
FUNC 2c7da 3 0 __crt_stdio_output::standard_base<wchar_t,__crt_stdio_output::stream_output_adapter<wchar_t> >::validate_and_update_state_at_beginning_of_format_character()
FUNC 2c7dd 3 0 __crt_stdio_output::standard_base<wchar_t,__crt_stdio_output::string_output_adapter<wchar_t> >::validate_and_update_state_at_beginning_of_format_character()
FUNC 2c7e0 22 0 __crt_stdio_output::format_validation_base<char,__crt_stdio_output::stream_output_adapter<char> >::validate_and_update_state_at_end_of_format_string()
FUNC 2c80a 22 0 __crt_stdio_output::format_validation_base<char,__crt_stdio_output::string_output_adapter<char> >::validate_and_update_state_at_end_of_format_string()
FUNC 2c834 22 0 __crt_stdio_output::format_validation_base<wchar_t,__crt_stdio_output::stream_output_adapter<wchar_t> >::validate_and_update_state_at_end_of_format_string()
FUNC 2c85e 22 0 __crt_stdio_output::format_validation_base<wchar_t,__crt_stdio_output::string_output_adapter<wchar_t> >::validate_and_update_state_at_end_of_format_string()
FUNC 2c888 90 0 __crt_stdio_output::positional_parameter_base<char,__crt_stdio_output::stream_output_adapter<char> >::validate_and_update_state_at_end_of_format_string()
FUNC 2c93c 90 0 __crt_stdio_output::positional_parameter_base<char,__crt_stdio_output::string_output_adapter<char> >::validate_and_update_state_at_end_of_format_string()
FUNC 2c9f0 90 0 __crt_stdio_output::positional_parameter_base<wchar_t,__crt_stdio_output::stream_output_adapter<wchar_t> >::validate_and_update_state_at_end_of_format_string()
FUNC 2caa4 90 0 __crt_stdio_output::positional_parameter_base<wchar_t,__crt_stdio_output::string_output_adapter<wchar_t> >::validate_and_update_state_at_end_of_format_string()
FUNC 2cb58 3 0 __crt_stdio_output::standard_base<char,__crt_stdio_output::stream_output_adapter<char> >::validate_and_update_state_at_end_of_format_string()
FUNC 2cb5b 3 0 __crt_stdio_output::standard_base<char,__crt_stdio_output::string_output_adapter<char> >::validate_and_update_state_at_end_of_format_string()
FUNC 2cb5e 3 0 __crt_stdio_output::standard_base<wchar_t,__crt_stdio_output::stream_output_adapter<wchar_t> >::validate_and_update_state_at_end_of_format_string()
FUNC 2cb61 3 0 __crt_stdio_output::standard_base<wchar_t,__crt_stdio_output::string_output_adapter<wchar_t> >::validate_and_update_state_at_end_of_format_string()
FUNC 2cb64 4f 0 __crt_stdio_output::positional_parameter_base<char,__crt_stdio_output::stream_output_adapter<char> >::validate_state_for_type_case_a()
FUNC 2cbc6 4f 0 __crt_stdio_output::positional_parameter_base<char,__crt_stdio_output::string_output_adapter<char> >::validate_state_for_type_case_a()
FUNC 2cc28 4f 0 __crt_stdio_output::positional_parameter_base<wchar_t,__crt_stdio_output::stream_output_adapter<wchar_t> >::validate_state_for_type_case_a()
FUNC 2cc8a 4f 0 __crt_stdio_output::positional_parameter_base<wchar_t,__crt_stdio_output::string_output_adapter<wchar_t> >::validate_state_for_type_case_a()
FUNC 2ccec 3 0 __crt_stdio_output::standard_base<char,__crt_stdio_output::stream_output_adapter<char> >::validate_state_for_type_case_a()
FUNC 2ccef 3 0 __crt_stdio_output::standard_base<char,__crt_stdio_output::string_output_adapter<char> >::validate_state_for_type_case_a()
FUNC 2ccf2 3 0 __crt_stdio_output::standard_base<wchar_t,__crt_stdio_output::stream_output_adapter<wchar_t> >::validate_state_for_type_case_a()
FUNC 2ccf5 3 0 __crt_stdio_output::standard_base<wchar_t,__crt_stdio_output::string_output_adapter<wchar_t> >::validate_state_for_type_case_a()
FUNC 2ccf8 87 0 __acrt_stdio_char_traits<char>::validate_stream_is_ansi_if_required(_iobuf * const)
FUNC 2cda0 3 4 __acrt_stdio_char_traits<wchar_t>::validate_stream_is_ansi_if_required(_iobuf * const)
FUNC 2cda3 6 0 __crt_stdio_output::output_processor<char,__crt_stdio_output::stream_output_adapter<char>,__crt_stdio_output::format_validation_base<char,__crt_stdio_output::stream_output_adapter<char> > >::wide_null_string()
FUNC 2cda9 6 0 __crt_stdio_output::output_processor<char,__crt_stdio_output::stream_output_adapter<char>,__crt_stdio_output::positional_parameter_base<char,__crt_stdio_output::stream_output_adapter<char> > >::wide_null_string()
FUNC 2cdaf 6 0 __crt_stdio_output::output_processor<char,__crt_stdio_output::stream_output_adapter<char>,__crt_stdio_output::standard_base<char,__crt_stdio_output::stream_output_adapter<char> > >::wide_null_string()
FUNC 2cdb5 6 0 __crt_stdio_output::output_processor<char,__crt_stdio_output::string_output_adapter<char>,__crt_stdio_output::format_validation_base<char,__crt_stdio_output::string_output_adapter<char> > >::wide_null_string()
FUNC 2cdbb 6 0 __crt_stdio_output::output_processor<char,__crt_stdio_output::string_output_adapter<char>,__crt_stdio_output::positional_parameter_base<char,__crt_stdio_output::string_output_adapter<char> > >::wide_null_string()
FUNC 2cdc1 6 0 __crt_stdio_output::output_processor<char,__crt_stdio_output::string_output_adapter<char>,__crt_stdio_output::standard_base<char,__crt_stdio_output::string_output_adapter<char> > >::wide_null_string()
FUNC 2cdc7 6 0 __crt_stdio_output::output_processor<wchar_t,__crt_stdio_output::stream_output_adapter<wchar_t>,__crt_stdio_output::format_validation_base<wchar_t,__crt_stdio_output::stream_output_adapter<wchar_t> > >::wide_null_string()
FUNC 2cdcd 6 0 __crt_stdio_output::output_processor<wchar_t,__crt_stdio_output::stream_output_adapter<wchar_t>,__crt_stdio_output::positional_parameter_base<wchar_t,__crt_stdio_output::stream_output_adapter<wchar_t> > >::wide_null_string()
FUNC 2cdd3 6 0 __crt_stdio_output::output_processor<wchar_t,__crt_stdio_output::stream_output_adapter<wchar_t>,__crt_stdio_output::standard_base<wchar_t,__crt_stdio_output::stream_output_adapter<wchar_t> > >::wide_null_string()
FUNC 2cdd9 6 0 __crt_stdio_output::output_processor<wchar_t,__crt_stdio_output::string_output_adapter<wchar_t>,__crt_stdio_output::format_validation_base<wchar_t,__crt_stdio_output::string_output_adapter<wchar_t> > >::wide_null_string()
FUNC 2cddf 6 0 __crt_stdio_output::output_processor<wchar_t,__crt_stdio_output::string_output_adapter<wchar_t>,__crt_stdio_output::positional_parameter_base<wchar_t,__crt_stdio_output::string_output_adapter<wchar_t> > >::wide_null_string()
FUNC 2cde5 6 0 __crt_stdio_output::output_processor<wchar_t,__crt_stdio_output::string_output_adapter<wchar_t>,__crt_stdio_output::standard_base<wchar_t,__crt_stdio_output::string_output_adapter<wchar_t> > >::wide_null_string()
FUNC 2cdeb 1f 0 __crt_stdio_output::output_adapter_common<char,__crt_stdio_output::stream_output_adapter<char> >::write_character(char,int * const)
FUNC 2ce11 1f 0 __crt_stdio_output::output_adapter_common<wchar_t,__crt_stdio_output::stream_output_adapter<wchar_t> >::write_character(wchar_t,int * const)
FUNC 2ce37 42 0 __crt_stdio_output::string_output_adapter<char>::write_character(char,int * const)
FUNC 2ce89 45 0 __crt_stdio_output::string_output_adapter<wchar_t>::write_character(wchar_t,int * const)
FUNC 2cedf 36 0 __crt_stdio_output::stream_output_adapter<char>::write_character_without_count_update(char)
FUNC 2cf22 39 0 __crt_stdio_output::stream_output_adapter<wchar_t>::write_character_without_count_update(wchar_t)
FUNC 2cf69 a7 0 __crt_stdio_output::output_processor<char,__crt_stdio_output::stream_output_adapter<char>,__crt_stdio_output::format_validation_base<char,__crt_stdio_output::stream_output_adapter<char> > >::write_stored_string_tchar(char)
FUNC 2d039 a7 0 __crt_stdio_output::output_processor<char,__crt_stdio_output::stream_output_adapter<char>,__crt_stdio_output::positional_parameter_base<char,__crt_stdio_output::stream_output_adapter<char> > >::write_stored_string_tchar(char)
FUNC 2d109 a7 0 __crt_stdio_output::output_processor<char,__crt_stdio_output::stream_output_adapter<char>,__crt_stdio_output::standard_base<char,__crt_stdio_output::stream_output_adapter<char> > >::write_stored_string_tchar(char)
FUNC 2d1d9 a7 0 __crt_stdio_output::output_processor<char,__crt_stdio_output::string_output_adapter<char>,__crt_stdio_output::format_validation_base<char,__crt_stdio_output::string_output_adapter<char> > >::write_stored_string_tchar(char)
FUNC 2d2a9 a7 0 __crt_stdio_output::output_processor<char,__crt_stdio_output::string_output_adapter<char>,__crt_stdio_output::positional_parameter_base<char,__crt_stdio_output::string_output_adapter<char> > >::write_stored_string_tchar(char)
FUNC 2d379 a7 0 __crt_stdio_output::output_processor<char,__crt_stdio_output::string_output_adapter<char>,__crt_stdio_output::standard_base<char,__crt_stdio_output::string_output_adapter<char> > >::write_stored_string_tchar(char)
FUNC 2d449 93 0 __crt_stdio_output::output_processor<wchar_t,__crt_stdio_output::stream_output_adapter<wchar_t>,__crt_stdio_output::format_validation_base<wchar_t,__crt_stdio_output::stream_output_adapter<wchar_t> > >::write_stored_string_tchar(wchar_t)
FUNC 2d500 93 0 __crt_stdio_output::output_processor<wchar_t,__crt_stdio_output::stream_output_adapter<wchar_t>,__crt_stdio_output::positional_parameter_base<wchar_t,__crt_stdio_output::stream_output_adapter<wchar_t> > >::write_stored_string_tchar(wchar_t)
FUNC 2d5b7 93 0 __crt_stdio_output::output_processor<wchar_t,__crt_stdio_output::stream_output_adapter<wchar_t>,__crt_stdio_output::standard_base<wchar_t,__crt_stdio_output::stream_output_adapter<wchar_t> > >::write_stored_string_tchar(wchar_t)
FUNC 2d66e 93 0 __crt_stdio_output::output_processor<wchar_t,__crt_stdio_output::string_output_adapter<wchar_t>,__crt_stdio_output::format_validation_base<wchar_t,__crt_stdio_output::string_output_adapter<wchar_t> > >::write_stored_string_tchar(wchar_t)
FUNC 2d725 93 0 __crt_stdio_output::output_processor<wchar_t,__crt_stdio_output::string_output_adapter<wchar_t>,__crt_stdio_output::positional_parameter_base<wchar_t,__crt_stdio_output::string_output_adapter<wchar_t> > >::write_stored_string_tchar(wchar_t)
FUNC 2d7dc 93 0 __crt_stdio_output::output_processor<wchar_t,__crt_stdio_output::string_output_adapter<wchar_t>,__crt_stdio_output::standard_base<wchar_t,__crt_stdio_output::string_output_adapter<wchar_t> > >::write_stored_string_tchar(wchar_t)
FUNC 2d893 2c 0 __crt_stdio_output::stream_output_adapter<char>::write_string(char const * const,int,int * const,__crt_deferred_errno_cache &)
FUNC 2d8ca 2c 0 __crt_stdio_output::stream_output_adapter<wchar_t>::write_string(wchar_t const * const,int,int * const,__crt_deferred_errno_cache &)
FUNC 2d901 67 0 __crt_stdio_output::string_output_adapter<char>::write_string(char const * const,int,int * const,__crt_deferred_errno_cache &)
FUNC 2d981 71 0 __crt_stdio_output::string_output_adapter<wchar_t>::write_string(wchar_t const * const,int,int * const,__crt_deferred_errno_cache &)
FUNC 2da0e 9e 0 __crt_stdio_output::output_adapter_common<char,__crt_stdio_output::stream_output_adapter<char> >::write_string_impl(char const * const,int,int * const,__crt_deferred_errno_cache &)
FUNC 2dad3 a1 0 __crt_stdio_output::output_adapter_common<wchar_t,__crt_stdio_output::stream_output_adapter<wchar_t> >::write_string_impl(wchar_t const * const,int,int * const,__crt_deferred_errno_cache &)
FUNC 2db9c 1e 0 __acrt_isleadbyte_l_noupdate
FUNC 2dbc1 b 0 __acrt_locale_changed
FUNC 2dbce 22 0 __acrt_locale_get_ctype_array_value
FUNC 2dbf8 83 0 __stdio_common_vfprintf
FUNC 2dc9b 83 0 __stdio_common_vfprintf_p
FUNC 2dd3e 83 0 __stdio_common_vfprintf_s
FUNC 2dde1 83 0 __stdio_common_vfwprintf
FUNC 2de84 83 0 __stdio_common_vfwprintf_p
FUNC 2df27 83 0 __stdio_common_vfwprintf_s
FUNC 2dfca 27 0 __stdio_common_vsnprintf_s
FUNC 2dffa 27 0 __stdio_common_vsnwprintf_s
FUNC 2e02a 24 0 __stdio_common_vsprintf
FUNC 2e057 24 0 __stdio_common_vsprintf_p
FUNC 2e084 24 0 __stdio_common_vsprintf_s
FUNC 2e0b1 24 0 __stdio_common_vswprintf
FUNC 2e0de 24 0 __stdio_common_vswprintf_p
FUNC 2e10b 24 0 __stdio_common_vswprintf_s
FUNC 2e138 1a 0 _ctype_fast_check_internal
FUNC 2e158 1a 0 _isdigit_fast_internal
FUNC 2e178 19 0 _tolower_fast_internal
FUNC 2e197 31 0 __crt_strtox::is_overflow_condition<unsigned long>(unsigned int,unsigned long)
FUNC 2e1d4 41 0 __crt_strtox::is_overflow_condition<unsigned __int64>(unsigned int,unsigned __int64)
FUNC 2e225 1b 0 __crt_strtox::make_c_string_character_source<char,std::nullptr_t>(char const * const,std::nullptr_t)
FUNC 2e246 1b 0 __crt_strtox::make_c_string_character_source<wchar_t,std::nullptr_t>(wchar_t const * const,std::nullptr_t)
FUNC 2e267 225 0 __crt_strtox::parse_integer<unsigned long,__crt_strtox::c_string_character_source<char> >(__crt_locale_pointers * const,__crt_strtox::c_string_character_source<char>,int,bool)
FUNC 2e515 608 0 __crt_strtox::parse_integer<unsigned long,__crt_strtox::c_string_character_source<wchar_t> >(__crt_locale_pointers * const,__crt_strtox::c_string_character_source<wchar_t>,int,bool)
FUNC 2ec9f 2a6 0 __crt_strtox::parse_integer<unsigned __int64,__crt_strtox::c_string_character_source<char> >(__crt_locale_pointers * const,__crt_strtox::c_string_character_source<char>,int,bool)
FUNC 2efee 6d1 0 __crt_strtox::parse_integer<unsigned __int64,__crt_strtox::c_string_character_source<wchar_t> >(__crt_locale_pointers * const,__crt_strtox::c_string_character_source<wchar_t>,int,bool)
FUNC 2f873 2b 0 __crt_strtox::parse_integer_from_string<long,char,std::nullptr_t>(char const * const,std::nullptr_t,int,__crt_locale_pointers * const)
FUNC 2f8a8 2b 0 __crt_strtox::parse_integer_from_string<long,wchar_t,std::nullptr_t>(wchar_t const * const,std::nullptr_t,int,__crt_locale_pointers * const)
FUNC 2f8dd 2b 0 __crt_strtox::parse_integer_from_string<__int64,char,std::nullptr_t>(char const * const,std::nullptr_t,int,__crt_locale_pointers * const)
FUNC 2f912 2b 0 __crt_strtox::parse_integer_from_string<__int64,wchar_t,std::nullptr_t>(wchar_t const * const,std::nullptr_t,int,__crt_locale_pointers * const)
FUNC 2f947 1c 0 __crt_strtox::c_string_character_source<char>::c_string_character_source<char>(char const * const,char const * * const)
FUNC 2f96a 1c 0 __crt_strtox::c_string_character_source<wchar_t>::c_string_character_source<wchar_t>(wchar_t const * const,wchar_t const * * const)
FUNC 2f98d c 0 __crt_strtox::c_string_character_source<char>::~c_string_character_source<char>()
FUNC 2f99c c 0 __crt_strtox::c_string_character_source<wchar_t>::~c_string_character_source<wchar_t>()
FUNC 2f9ab 8 0 __crt_strtox::c_string_character_source<char>::get()
FUNC 2f9b5 b 0 __crt_strtox::c_string_character_source<wchar_t>::get()
FUNC 2f9c2 1e 0 __crt_strtox::is_space(char,__crt_locale_pointers * const)
FUNC 2f9e7 18 0 __crt_strtox::is_space(wchar_t,__crt_locale_pointers *)
FUNC 2fa05 6 4 __crt_strtox::maximum_signed_value(unsigned long)
FUNC 2fa0b 9 8 __crt_strtox::maximum_signed_value(unsigned __int64)
FUNC 2fa16 6 4 __crt_strtox::minimum_signed_value(unsigned long)
FUNC 2fa1c 8 8 __crt_strtox::minimum_signed_value(unsigned __int64)
FUNC 2fa26 3a 0 __crt_strtox::parse_digit(char)
FUNC 2fa6e 1df 0 __crt_strtox::parse_digit(wchar_t)
FUNC 2fcc4 10 0 __crt_strtox::c_string_character_source<char>::restore_state(char const * const)
FUNC 2fcd8 10 0 __crt_strtox::c_string_character_source<wchar_t>::restore_state(wchar_t const * const)
FUNC 2fcec 3 0 __crt_strtox::c_string_character_source<char>::save_state()
FUNC 2fcef 3 0 __crt_strtox::c_string_character_source<wchar_t>::save_state()
FUNC 2fcf2 29 0 __crt_strtox::c_string_character_source<char>::unget(char)
FUNC 2fd25 2e 0 __crt_strtox::c_string_character_source<wchar_t>::unget(wchar_t)
FUNC 2fd5e 1b 0 __crt_strtox::c_string_character_source<char>::validate()
FUNC 2fd7f 1b 0 __crt_strtox::c_string_character_source<wchar_t>::validate()
FUNC 2fda0 1a1 0 __crt_strtox::wide_character_to_digit(wchar_t)
FUNC 2ffa9 c 0 __acrt_get_locale_data_prefix
FUNC 2ffb8 23 0 __ascii_iswalpha
FUNC 2ffe3 17 0 __ascii_toupper
FUNC 2ffff 17 0 __ascii_towupper
FUNC 3001b 23 0 _atoi64
FUNC 30046 24 0 _atoi64_l
FUNC 30073 24 0 _atoi_l
FUNC 300a0 24 0 _atol_l
FUNC 300cd 24 0 _atoll_l
FUNC 300fa 28 0 _chvalidchk_l
FUNC 3012c 54 0 _ischartype_l
FUNC 30195 23 0 _wtoi
FUNC 301c0 23 0 _wtoi64
FUNC 301eb 24 0 _wtoi64_l
FUNC 30218 24 0 _wtoi_l
FUNC 30245 23 0 _wtol
FUNC 30270 24 0 _wtol_l
FUNC 3029d 23 0 _wtoll
FUNC 302c8 24 0 _wtoll_l
FUNC 302f5 23 0 atoi
FUNC 30320 23 0 atol
FUNC 3034b 23 0 atoll
FUNC 30380 78 0 strncmp
FUNC 30416 21 0 _set_abort_behavior
FUNC 3043f 44 0 abort
FUNC 30494 b 0 calloc
FUNC 304a1 3a 0 wcsncmp
FUNC 304e9 12 0 __crt_internal_free_policy::operator()<__acrt_ptd>(__acrt_ptd const * const)
FUNC 304ff 52 0 __crt_seh_guarded_call<void>::operator()<<lambda_15ade71b0218206bbe3333a0c9b79046>,<lambda_da44e0f8b0f19ba52fefafb335991732> &,<lambda_207f2d024fc103971653565357d6cd41> >
FUNC 30565 6b 0 __crt_seh_guarded_call<void>::operator()<<lambda_38edbb1296d33220d7e4dd0ed76b244a>,<lambda_5ce1d447e08cb34b2473517608e21441> &,<lambda_fb385d3da700c9147fc39e65dd577a8c> >
FUNC 305ea 55 0 __crt_seh_guarded_call<void>::operator()<<lambda_6affb1475c98b40b75cdec977db92e3c>,<lambda_b8d4b9c228a6ecc3f80208dbb4b4a104> &,<lambda_608742c3c92a14382c1684fc64f96c88> >
FUNC 30654 5a 0 __crt_seh_guarded_call<void>::operator()<<lambda_a7e850c220f1c8d1e6efeecdedd162c6>,<lambda_46720907175c18b6c9d2717bc0d2d362> &,<lambda_9048902d66e8d99359bc9897bbb930a8> >
FUNC 306c4 26 0 __acrt_lock_and_call<<lambda_46720907175c18b6c9d2717bc0d2d362> >
FUNC 306f3 26 0 __acrt_lock_and_call<<lambda_5ce1d447e08cb34b2473517608e21441> >
FUNC 30722 26 0 __acrt_lock_and_call<<lambda_b8d4b9c228a6ecc3f80208dbb4b4a104> >
FUNC 30751 26 0 __acrt_lock_and_call<<lambda_da44e0f8b0f19ba52fefafb335991732> >
FUNC 30780 12 0 <lambda_15ade71b0218206bbe3333a0c9b79046>::<lambda_15ade71b0218206bbe3333a0c9b79046>
FUNC 30796 12 0 <lambda_207f2d024fc103971653565357d6cd41>::<lambda_207f2d024fc103971653565357d6cd41>
FUNC 307ac 12 0 <lambda_38edbb1296d33220d7e4dd0ed76b244a>::<lambda_38edbb1296d33220d7e4dd0ed76b244a>
FUNC 307c2 16 0 <lambda_46720907175c18b6c9d2717bc0d2d362>::<lambda_46720907175c18b6c9d2717bc0d2d362>
FUNC 307dd 10 0 <lambda_5ce1d447e08cb34b2473517608e21441>::<lambda_5ce1d447e08cb34b2473517608e21441>
FUNC 307f1 12 0 <lambda_608742c3c92a14382c1684fc64f96c88>::<lambda_608742c3c92a14382c1684fc64f96c88>
FUNC 30807 12 0 <lambda_6affb1475c98b40b75cdec977db92e3c>::<lambda_6affb1475c98b40b75cdec977db92e3c>
FUNC 3081d 12 0 <lambda_9048902d66e8d99359bc9897bbb930a8>::<lambda_9048902d66e8d99359bc9897bbb930a8>
FUNC 30833 12 0 <lambda_a7e850c220f1c8d1e6efeecdedd162c6>::<lambda_a7e850c220f1c8d1e6efeecdedd162c6>
FUNC 30849 10 0 <lambda_b8d4b9c228a6ecc3f80208dbb4b4a104>::<lambda_b8d4b9c228a6ecc3f80208dbb4b4a104>
FUNC 3085d 10 0 <lambda_da44e0f8b0f19ba52fefafb335991732>::<lambda_da44e0f8b0f19ba52fefafb335991732>
FUNC 30871 12 0 <lambda_fb385d3da700c9147fc39e65dd577a8c>::<lambda_fb385d3da700c9147fc39e65dd577a8c>
FUNC 30887 10 0 __crt_unique_heap_ptr<__acrt_ptd,__crt_internal_free_policy>::__crt_unique_heap_ptr<__acrt_ptd,__crt_internal_free_policy>(__acrt_ptd * const)
FUNC 3089b 11 0 __crt_scoped_get_last_error_reset::__crt_scoped_get_last_error_reset()
FUNC 308b0 12 0 __crt_unique_heap_ptr<__acrt_ptd,__crt_internal_free_policy>::~__crt_unique_heap_ptr<__acrt_ptd,__crt_internal_free_policy>()
FUNC 308c6 9 0 __crt_scoped_get_last_error_reset::~__crt_scoped_get_last_error_reset()
FUNC 308d1 7 0 __crt_unique_heap_ptr<__acrt_ptd,__crt_internal_free_policy>::operator bool()
FUNC 308d8 9 0 <lambda_15ade71b0218206bbe3333a0c9b79046>::operator()
FUNC 308e3 9 0 <lambda_207f2d024fc103971653565357d6cd41>::operator()
FUNC 308ee 9 0 <lambda_38edbb1296d33220d7e4dd0ed76b244a>::operator()
FUNC 308f9 13 0 <lambda_46720907175c18b6c9d2717bc0d2d362>::operator()
FUNC 30910 24 0 <lambda_5ce1d447e08cb34b2473517608e21441>::operator()
FUNC 3093d 9 0 <lambda_608742c3c92a14382c1684fc64f96c88>::operator()
FUNC 30948 9 0 <lambda_6affb1475c98b40b75cdec977db92e3c>::operator()
FUNC 30953 9 0 <lambda_9048902d66e8d99359bc9897bbb930a8>::operator()
FUNC 3095e 9 0 <lambda_a7e850c220f1c8d1e6efeecdedd162c6>::operator()
FUNC 30969 e 0 <lambda_b8d4b9c228a6ecc3f80208dbb4b4a104>::operator()
FUNC 3097a b 0 <lambda_da44e0f8b0f19ba52fefafb335991732>::operator()
FUNC 30987 9 0 <lambda_fb385d3da700c9147fc39e65dd577a8c>::operator()
FUNC 30992 99 0 construct_ptd
FUNC 30a51 16 0 construct_ptd_array
FUNC 30a6c 3 0 __crt_state_management::dual_state_global<__crt_locale_data *>::dangerous_get_state_array()
FUNC 30a6f 21 0 destroy_fls
FUNC 30a98 cd 0 destroy_ptd
FUNC 30b98 5 0 destroy_ptd_array
FUNC 30b9d 6 0 __crt_unique_heap_ptr<__acrt_ptd,__crt_internal_free_policy>::detach()
FUNC 30ba3 3 0 __crt_unique_heap_ptr<__acrt_ptd,__crt_internal_free_policy>::get()
FUNC 30ba6 3 4 __crt_state_management::get_current_state_index(__crt_scoped_get_last_error_reset const &)
FUNC 30ba9 81 0 internal_get_ptd_head
FUNC 30c4a b1 0 internal_getptd_noexit
FUNC 30d27 7 0 __crt_unique_heap_ptr<__acrt_ptd,__crt_internal_free_policy>::is_valid()
FUNC 30d2e 12 0 __crt_unique_heap_ptr<__acrt_ptd,__crt_internal_free_policy>::release()
FUNC 30d44 4b 0 replace_current_thread_locale_nolock
FUNC 30da1 17 0 try_get_ptd_head
FUNC 30dbd 3 0 __crt_state_management::dual_state_global<__crt_locale_data *>::value()
FUNC 30dc0 2c 0 __acrt_freeptd
FUNC 30df7 bd 0 __acrt_getptd
FUNC 30ee3 9a 0 __acrt_getptd_head
FUNC 30fa3 b5 0 __acrt_getptd_noexit
FUNC 31085 2c 0 __acrt_initialize_ptd
FUNC 310bc 1a 4 __acrt_uninitialize_ptd
FUNC 310dc 6 0 __threadhandle
FUNC 310e2 6 0 __threadid
FUNC 310e8 6 4 select_heap
FUNC 310ee 3a 0 _free_base
FUNC 31136 41 0 __acrt_initialize_locks
FUNC 31187 17 0 __acrt_lock
FUNC 311a3 31 4 __acrt_uninitialize_locks
FUNC 311e0 17 0 __acrt_unlock
FUNC 311fc e 0 _lock_locales
FUNC 3120d 9 0 _unlock_locales
FUNC 31218 43 0 get_cached_win_policy<`__acrt_get_begin_thread_init_policy'::`2'::begin_thread_init_policy_properties>
FUNC 3126b 43 0 get_cached_win_policy<`__acrt_get_developer_information_policy'::`2'::developer_information_policy_properties>
FUNC 312be 5b 0 get_cached_win_policy<`__acrt_get_windowing_model_policy'::`2'::windowing_model_policy_properties>
FUNC 3132f 2f 0 get_win_policy<`__acrt_get_process_end_policy'::`2'::process_end_policy_properties>
FUNC 31369 f 0 `__acrt_get_begin_thread_init_policy'::`2'::begin_thread_init_policy_properties::appmodel_get_policy
FUNC 3137b f 0 `__acrt_get_developer_information_policy'::`2'::developer_information_policy_properties::appmodel_get_policy
FUNC 3138d f 0 `__acrt_get_process_end_policy'::`2'::process_end_policy_properties::appmodel_get_policy
FUNC 3139f f 0 `__acrt_get_windowing_model_policy'::`2'::windowing_model_policy_properties::appmodel_get_policy
FUNC 313b1 11 0 `__acrt_get_begin_thread_init_policy'::`2'::begin_thread_init_policy_properties::appmodel_policy_to_policy_type
FUNC 313c6 11 0 `__acrt_get_developer_information_policy'::`2'::developer_information_policy_properties::appmodel_policy_to_policy_type
FUNC 313db 10 0 `__acrt_get_process_end_policy'::`2'::process_end_policy_properties::appmodel_policy_to_policy_type
FUNC 313ef 29 0 `__acrt_get_windowing_model_policy'::`2'::windowing_model_policy_properties::appmodel_policy_to_policy_type
FUNC 31422 44 0 __acrt_get_begin_thread_init_policy
FUNC 31477 44 0 __acrt_get_developer_information_policy
FUNC 314cc 31 0 __acrt_get_process_end_policy
FUNC 31509 5c 0 __acrt_get_windowing_model_policy
FUNC 3157c 43 0 __acrt_errno_from_os_error
FUNC 315cf 23 0 __acrt_errno_map_os_error
FUNC 315fa 13 0 __doserrno
FUNC 31611 13 0 _errno
FUNC 31628 25 0 _get_doserrno
FUNC 31656 25 0 _get_errno
FUNC 31684 21 0 _set_doserrno
FUNC 316ad 21 0 _set_errno
FUNC 316d6 5d 0 _calloc_base
FUNC 3174a 18 0 <lambda_838c7f62c73c983481e27c09e84b0b5d>::<lambda_invoker_cdecl>
FUNC 31768 18 0 <lambda_d388dc2bcbe6079ffc891eec49d9b3b2>::<lambda_invoker_cdecl>
FUNC 31786 b2 0 __acrt_convert_wcs_mbs_cp<char,wchar_t,<lambda_62f6974d9771e494a5ea317cc32e971c>,__crt_win32_buffer_internal_dynamic_resizing>
FUNC 31864 cf 0 __acrt_convert_wcs_mbs_cp<wchar_t,char,<lambda_28bda7af82a03b66c1cb3803a755f95d>,__crt_win32_buffer_internal_dynamic_resizing>
FUNC 31966 1d 0 __acrt_mbs_to_wcs_cp<__crt_win32_buffer_internal_dynamic_resizing>(char const * const,__crt_win32_buffer<wchar_t,__crt_win32_buffer_internal_dynamic_resizing> &,unsigned int)
FUNC 3198a 1d 0 __acrt_wcs_to_mbs_cp<__crt_win32_buffer_internal_dynamic_resizing>(wchar_t const * const,__crt_win32_buffer<char,__crt_win32_buffer_internal_dynamic_resizing> &,unsigned int)
FUNC 319ae 1ef 0 common_expand_argv_wildcards<char>
FUNC 31c18 228 0 common_expand_argv_wildcards<wchar_t>
FUNC 31eca b1 0 copy_and_add_argument_to_buffer<char>
FUNC 31fa7 b4 0 copy_and_add_argument_to_buffer<wchar_t>
FUNC 32088 257 0 expand_argument_wildcards<char>
FUNC 32374 172 0 expand_argument_wildcards<wchar_t>
FUNC 32542 18 0 __crt_char_traits<char>::tcslen<char const * const &>(char const * const &)
FUNC 32560 1e 0 __crt_char_traits<wchar_t>::tcslen<wchar_t const * const &>(wchar_t const * const &)
FUNC 32585 23 0 __crt_char_traits<char>::tcsncpy_s<char * &,unsigned int,char * &,unsigned int const &>(char * &,unsigned int &&,char * &,unsigned int const &)
FUNC 325b0 23 0 __crt_char_traits<wchar_t>::tcsncpy_s<wchar_t * &,unsigned int,wchar_t * &,unsigned int const &>(wchar_t * &,unsigned int &&,wchar_t * &,unsigned int const &)
FUNC 325db 23 0 __crt_char_traits<char>::tcsncpy_s<char *,unsigned int const &,char const * const &,unsigned int const &>(char * &&,unsigned int const &,char const * const &,unsigned int const &)
FUNC 32606 23 0 __crt_char_traits<char>::tcsncpy_s<char *,unsigned int,char const * const &,unsigned int const &>(char * &&,unsigned int &&,char const * const &,unsigned int const &)
FUNC 32631 23 0 __crt_char_traits<wchar_t>::tcsncpy_s<wchar_t *,unsigned int const &,wchar_t const * const &,unsigned int const &>(wchar_t * &&,unsigned int const &,wchar_t const * const &,unsigned int const &)
FUNC 3265c 23 0 __crt_char_traits<wchar_t>::tcsncpy_s<wchar_t *,unsigned int,wchar_t const * const &,unsigned int const &>(wchar_t * &&,unsigned int &&,wchar_t const * const &,unsigned int const &)
FUNC 32687 16 0 __crt_char_traits<char>::tcspbrk<char * &,char const (&)[3]>(char * &,char const (&)[3])
FUNC 326a2 16 0 __crt_char_traits<wchar_t>::tcspbrk<wchar_t * &,wchar_t const (&)[3]>(wchar_t * &,wchar_t const (&)[3])
FUNC 326bd 10 0 __crt_unique_handle_t<__crt_findfile_traits>::__crt_unique_handle_t<__crt_findfile_traits>(void * const)
FUNC 326d1 16 0 __crt_win32_buffer<char,__crt_win32_buffer_internal_dynamic_resizing>::__crt_win32_buffer<char,__crt_win32_buffer_internal_dynamic_resizing>()
FUNC 326ec 16 0 __crt_win32_buffer<wchar_t,__crt_win32_buffer_internal_dynamic_resizing>::__crt_win32_buffer<wchar_t,__crt_win32_buffer_internal_dynamic_resizing>()
FUNC 32707 d 0 `anonymous namespace'::argument_list<char>::argument_list<char>
FUNC 32717 d 0 `anonymous namespace'::argument_list<wchar_t>::argument_list<wchar_t>
FUNC 32727 17 0 __crt_unique_handle_t<__crt_findfile_traits>::~__crt_unique_handle_t<__crt_findfile_traits>()
FUNC 32743 5 0 __crt_win32_buffer<char,__crt_win32_buffer_internal_dynamic_resizing>::~__crt_win32_buffer<char,__crt_win32_buffer_internal_dynamic_resizing>()
FUNC 32748 5 0 __crt_win32_buffer<wchar_t,__crt_win32_buffer_internal_dynamic_resizing>::~__crt_win32_buffer<wchar_t,__crt_win32_buffer_internal_dynamic_resizing>()
FUNC 3274d 29 0 `anonymous namespace'::argument_list<char>::~argument_list<char>
FUNC 32780 29 0 `anonymous namespace'::argument_list<wchar_t>::~argument_list<wchar_t>
FUNC 327b3 6 0 <lambda_838c7f62c73c983481e27c09e84b0b5d>::operator int (__cdecl*)(void const *,void const *)
FUNC 327b9 6 0 <lambda_d388dc2bcbe6079ffc891eec49d9b3b2>::operator int (__cdecl*)(void const *,void const *)
FUNC 327bf 24 0 <lambda_28bda7af82a03b66c1cb3803a755f95d>::operator()
FUNC 327ec 1e 0 <lambda_594f614a8947934b886943aa86a6498d>::operator()
FUNC 32811 21 0 <lambda_62f6974d9771e494a5ea317cc32e971c>::operator()
FUNC 3283a 1a 0 <lambda_838c7f62c73c983481e27c09e84b0b5d>::operator()
FUNC 3285a 1a 0 <lambda_d388dc2bcbe6079ffc891eec49d9b3b2>::operator()
FUNC 3287a 24 0 <lambda_d734a73e0f649ebd9d9b0eca0b8ca86a>::operator()
FUNC 328a7 3f 0 __acrt_get_utf8_acp_compatibility_codepage()
FUNC 328f5 1a 0 __crt_win32_buffer<char,__crt_win32_buffer_internal_dynamic_resizing>::_deallocate()
FUNC 32915 1a 0 __crt_win32_buffer<wchar_t,__crt_win32_buffer_internal_dynamic_resizing>::_deallocate()
FUNC 32935 3c 0 __crt_win32_buffer<char,__crt_win32_buffer_internal_dynamic_resizing>::allocate(unsigned int)
FUNC 32980 3f 0 __crt_win32_buffer<wchar_t,__crt_win32_buffer_internal_dynamic_resizing>::allocate(unsigned int)
FUNC 329ce 1f 0 __crt_win32_buffer_internal_dynamic_resizing::allocate(void * * const,unsigned int,__crt_win32_buffer_empty_debug_info const &)
FUNC 329f4 35 0 `anonymous namespace'::argument_list<char>::append
FUNC 32a36 35 0 `anonymous namespace'::argument_list<wchar_t>::append
FUNC 32a78 3 0 `anonymous namespace'::argument_list<char>::begin
FUNC 32a7b 3 0 `anonymous namespace'::argument_list<wchar_t>::begin
FUNC 32a7e 4 0 __crt_win32_buffer<char,__crt_win32_buffer_internal_dynamic_resizing>::capacity()
FUNC 32a82 4 0 __crt_win32_buffer<wchar_t,__crt_win32_buffer_internal_dynamic_resizing>::capacity()
FUNC 32a86 17 0 __crt_unique_handle_t<__crt_findfile_traits>::close()
FUNC 32aa2 15 0 __crt_findfile_traits::close(void *)
FUNC 32abc 4 0 __crt_win32_buffer<char,__crt_win32_buffer_internal_dynamic_resizing>::data()
FUNC 32ac0 4 0 __crt_win32_buffer<wchar_t,__crt_win32_buffer_internal_dynamic_resizing>::data()
FUNC 32ac4 10 0 __crt_win32_buffer_internal_dynamic_resizing::deallocate(void * const,__crt_win32_buffer_empty_debug_info const &)
FUNC 32ad8 3 0 __crt_win32_buffer<char,__crt_win32_buffer_internal_dynamic_resizing>::debug_info()
FUNC 32adb 3 0 __crt_win32_buffer<wchar_t,__crt_win32_buffer_internal_dynamic_resizing>::debug_info()
FUNC 32ade 4 0 `anonymous namespace'::argument_list<char>::end
FUNC 32ae2 4 0 `anonymous namespace'::argument_list<wchar_t>::end
FUNC 32ae6 87 0 `anonymous namespace'::argument_list<char>::expand_if_necessary
FUNC 32b8e 87 0 `anonymous namespace'::argument_list<wchar_t>::expand_if_necessary
FUNC 32c36 3 0 __crt_unique_handle_t<__crt_findfile_traits>::get()
FUNC 32c39 29 0 get_file_name
FUNC 32c6c a 0 get_file_name
FUNC 32c78 4 0 __crt_findfile_traits::get_invalid_value()
FUNC 32c7c a 0 get_wide
FUNC 32c88 29 0 get_wide
FUNC 32cbb b 0 previous_character
FUNC 32cc8 d 0 previous_character
FUNC 32cd8 17 0 __crt_win32_buffer<char,__crt_win32_buffer_internal_dynamic_resizing>::set_to_nullptr()
FUNC 32cf4 17 0 __crt_win32_buffer<wchar_t,__crt_win32_buffer_internal_dynamic_resizing>::set_to_nullptr()
FUNC 32d10 f 0 __crt_win32_buffer<char,__crt_win32_buffer_internal_dynamic_resizing>::size(unsigned int)
FUNC 32d22 f 0 __crt_win32_buffer<wchar_t,__crt_win32_buffer_internal_dynamic_resizing>::size(unsigned int)
FUNC 32d34 9 0 `anonymous namespace'::argument_list<char>::size
FUNC 32d3f 9 0 `anonymous namespace'::argument_list<wchar_t>::size
FUNC 32d4a b 0 strpbrk(char * const,char const * const)
FUNC 32d57 b 0 wcspbrk(wchar_t *,wchar_t const *)
FUNC 32d64 b 0 __acrt_expand_narrow_argv_wildcards
FUNC 32d71 b 0 __acrt_expand_wide_argv_wildcards
FUNC 32d7e c7 0 __acrt_convert_wcs_mbs_cp<wchar_t,char,<lambda_0fec1a7b3f42a53036604e18c2d5e07e>,__crt_win32_buffer_no_resizing>
FUNC 32e76 1d 0 __acrt_wcs_to_mbs_cp<__crt_win32_buffer_no_resizing>(wchar_t const * const,__crt_win32_buffer<char,__crt_win32_buffer_no_resizing> &,unsigned int)
FUNC 32e9a 24 0 __crt_win32_buffer<char,__crt_win32_buffer_no_resizing>::__crt_win32_buffer<char,__crt_win32_buffer_no_resizing>(char * const,unsigned int)
FUNC 32ec7 b 0 __crt_win32_buffer<char,__crt_win32_buffer_no_resizing>::~__crt_win32_buffer<char,__crt_win32_buffer_no_resizing>()
FUNC 32ed4 24 0 <lambda_0fec1a7b3f42a53036604e18c2d5e07e>::operator()
FUNC 32f01 b 0 __crt_win32_buffer<char,__crt_win32_buffer_no_resizing>::_deallocate()
FUNC 32f0e 27 4 __crt_win32_buffer<char,__crt_win32_buffer_no_resizing>::allocate(unsigned int)
FUNC 32f3e d c __crt_win32_buffer_no_resizing::allocate(void * * const,unsigned int,__crt_win32_buffer_empty_debug_info const &)
FUNC 32f4e 4 0 __crt_win32_buffer<char,__crt_win32_buffer_no_resizing>::capacity()
FUNC 32f52 4 0 __crt_win32_buffer<char,__crt_win32_buffer_no_resizing>::data()
FUNC 32f56 3 8 __crt_win32_buffer_no_resizing::deallocate(void * const,__crt_win32_buffer_empty_debug_info const &)
FUNC 32f59 3 0 __crt_win32_buffer<char,__crt_win32_buffer_no_resizing>::debug_info()
FUNC 32f5c 14 0 __crt_win32_buffer<char,__crt_win32_buffer_no_resizing>::set_to_nullptr()
FUNC 32f75 f 0 __crt_win32_buffer<char,__crt_win32_buffer_no_resizing>::size(unsigned int)
FUNC 32f87 4 0 __crt_win32_buffer<char,__crt_win32_buffer_no_resizing>::size()
FUNC 32f8b a1 0 __acrt_GetModuleFileNameA
FUNC 33054 12 0 __crt_internal_free_policy::operator()<__crt_multibyte_data>(__crt_multibyte_data const * const)
FUNC 3306a 4d 0 __crt_seh_guarded_call<void>::operator()<<lambda_ceb1ee4838e85a9d631eb091e2fbe199>,<lambda_ae742caa10f662c28703da3d2ea5e57e> &,<lambda_cd08b5d6af4937fe54fc07d0c9bf6b37> >
FUNC 330ca 26 0 __acrt_lock_and_call<<lambda_ae742caa10f662c28703da3d2ea5e57e> >
FUNC 330f9 f 0 __crt_state_management::dual_state_global<unsigned char *>::initialize_from_array<unsigned char [1][256]>(unsigned char (&)[1][256])
FUNC 3310b f 0 __crt_state_management::dual_state_global<unsigned char *>::initialize_from_array<unsigned char [1][257]>(unsigned char (&)[1][257])
FUNC 3311d 16 0 <lambda_ae742caa10f662c28703da3d2ea5e57e>::<lambda_ae742caa10f662c28703da3d2ea5e57e>
FUNC 33138 12 0 <lambda_cd08b5d6af4937fe54fc07d0c9bf6b37>::<lambda_cd08b5d6af4937fe54fc07d0c9bf6b37>
FUNC 3314e 12 0 <lambda_ceb1ee4838e85a9d631eb091e2fbe199>::<lambda_ceb1ee4838e85a9d631eb091e2fbe199>
FUNC 33164 10 0 __crt_unique_heap_ptr<__crt_multibyte_data,__crt_internal_free_policy>::__crt_unique_heap_ptr<__crt_multibyte_data,__crt_internal_free_policy>(__crt_multibyte_data * const)
FUNC 33178 12 0 __crt_unique_heap_ptr<__crt_multibyte_data,__crt_internal_free_policy>::~__crt_unique_heap_ptr<__crt_multibyte_data,__crt_internal_free_policy>()
FUNC 3318e 7 0 __crt_unique_heap_ptr<__crt_multibyte_data,__crt_internal_free_policy>::operator bool()
FUNC 33195 83 0 <lambda_ae742caa10f662c28703da3d2ea5e57e>::operator()
FUNC 33238 9 0 <lambda_cd08b5d6af4937fe54fc07d0c9bf6b37>::operator()
FUNC 33243 9 0 <lambda_ceb1ee4838e85a9d631eb091e2fbe199>::operator()
FUNC 3324e 3e 0 CPtoLocaleName
FUNC 3329b 3 0 __crt_state_management::dual_state_global<unsigned char *>::dangerous_get_state_array()
FUNC 3329e 3 0 __crt_state_management::dual_state_global<__crt_multibyte_data *>::dangerous_get_state_array()
FUNC 332a1 6 0 __crt_unique_heap_ptr<__crt_multibyte_data,__crt_internal_free_policy>::detach()
FUNC 332a7 3 0 __crt_unique_heap_ptr<__crt_multibyte_data,__crt_internal_free_policy>::get()
FUNC 332aa 71 0 getSystemCP
FUNC 33337 26 0 __crt_state_management::dual_state_global<__crt_multibyte_data *>::initialize(__crt_multibyte_data * const)
FUNC 33366 7 0 __crt_unique_heap_ptr<__crt_multibyte_data,__crt_internal_free_policy>::is_valid()
FUNC 3336d 12 0 __crt_unique_heap_ptr<__crt_multibyte_data,__crt_internal_free_policy>::release()
FUNC 33383 65 0 setSBCS
FUNC 33401 181 0 setSBUpLow
FUNC 335e2 119 0 setmbcp_internal
FUNC 33741 a0 0 update_thread_multibyte_data_internal
FUNC 33809 3 0 __crt_state_management::dual_state_global<unsigned char *>::value()
FUNC 3380c 3 0 __crt_state_management::dual_state_global<__crt_multibyte_data *>::value()
FUNC 3380f 48 0 __acrt_initialize_multibyte
FUNC 33869 13 0 __acrt_update_thread_multibyte_data
FUNC 33880 6 0 __p__mbcasemap
FUNC 33886 6 0 __p__mbctype
FUNC 3388c 34 0 _getmbcp
FUNC 338cd 1f 0 _setmbcp
FUNC 338f3 1f3 0 _setmbcp_nolock
FUNC 33b62 81 0 memcpy_s
FUNC 33c03 57 0 x_ismbbtype_l
FUNC 33c6f 1b 0 _ismbbalnum
FUNC 33c90 1c 0 _ismbbalnum_l
FUNC 33cb3 1b 0 _ismbbalpha
FUNC 33cd4 1c 0 _ismbbalpha_l
FUNC 33cf7 23 0 _ismbbblank
FUNC 33d22 24 0 _ismbbblank_l
FUNC 33d4f 1b 0 _ismbbgraph
FUNC 33d70 1c 0 _ismbbgraph_l
FUNC 33d93 18 0 _ismbbkalnum
FUNC 33db1 19 0 _ismbbkalnum_l
FUNC 33dd0 13 0 _ismbbkana
FUNC 33de7 4f 0 _ismbbkana_l
FUNC 33e49 18 0 _ismbbkprint
FUNC 33e67 19 0 _ismbbkprint_l
FUNC 33e86 18 0 _ismbbkpunct
FUNC 33ea4 19 0 _ismbbkpunct_l
FUNC 33ec3 18 0 _ismbblead
FUNC 33ee1 19 0 _ismbblead_l
FUNC 33f00 1b 0 _ismbbprint
FUNC 33f21 1c 0 _ismbbprint_l
FUNC 33f44 18 0 _ismbbpunct
FUNC 33f62 19 0 _ismbbpunct_l
FUNC 33f81 18 0 _ismbbtrail
FUNC 33f9f 19 0 _ismbbtrail_l
FUNC 33fbe 19 0 __acrt_initialize_command_line
FUNC 33fdd 3 4 __acrt_uninitialize_command_line
FUNC 33fe0 6 0 __p___argc
FUNC 33fe6 6 0 __p___argv
FUNC 33fec 6 0 __p___wargv
FUNC 33ff2 6 0 __p__acmdln
FUNC 33ff8 6 0 __p__pgmptr
FUNC 33ffe 6 0 __p__wcmdln
FUNC 34004 6 0 __p__wpgmptr
FUNC 3400a 31 0 _get_pgmptr
FUNC 34047 31 0 _get_wpgmptr
FUNC 34084 60 0 common_tcscpy_s<wchar_t>
FUNC 340fc 64 0 wcscpy_s
FUNC 34179 68 0 filter_mbtowcs_flags
FUNC 341fb 7c 0 __acrt_MultiByteToWideChar
FUNC 34296 65 0 filter_wcstomb_flags
FUNC 34314 ad 0 __acrt_WideCharToMultiByte
FUNC 343ec 10 0 __crt_unique_handle_t<`anonymous namespace'::environment_strings_traits>::__crt_unique_handle_t<`anonymous namespace'::environment_strings_traits>
FUNC 34400 17 0 __crt_unique_handle_t<`anonymous namespace'::environment_strings_traits>::~__crt_unique_handle_t<`anonymous namespace'::environment_strings_traits>
FUNC 3441c 7 0 __crt_unique_handle_t<`anonymous namespace'::environment_strings_traits>::operator bool
FUNC 34423 17 0 __crt_unique_handle_t<`anonymous namespace'::environment_strings_traits>::close
FUNC 3443f 12 0 `anonymous namespace'::environment_strings_traits::close
FUNC 34455 37 0 find_end_of_double_null_terminated_sequence
FUNC 34499 3 0 __crt_unique_handle_t<`anonymous namespace'::environment_strings_traits>::get
FUNC 3449c 3 0 `anonymous namespace'::environment_strings_traits::get_invalid_value
FUNC 3449f 7 0 __crt_unique_handle_t<`anonymous namespace'::environment_strings_traits>::is_valid
FUNC 344a6 84 0 __dcrt_get_narrow_environment_from_os
FUNC 3454b 50 0 __dcrt_get_wide_environment_from_os
FUNC 345af 23e 0 common_set_variable_in_environment_nolock<char>
FUNC 3487c 253 0 common_set_variable_in_environment_nolock<wchar_t>
FUNC 34b63 b0 0 copy_environment<char>
FUNC 34c3f be 0 copy_environment<wchar_t>
FUNC 34d2c 1a 0 ensure_current_environment_is_not_initial_environment_nolock<char>
FUNC 34d4c 1a 0 ensure_current_environment_is_not_initial_environment_nolock<wchar_t>
FUNC 34d6c 55 0 find_in_environment_nolock<char>
FUNC 34dd6 58 0 find_in_environment_nolock<wchar_t>
FUNC 34e44 5 0 __crt_char_traits<char>::get_or_create_environment_nolock<>()
FUNC 34e49 5 0 __crt_char_traits<wchar_t>::get_or_create_environment_nolock<>()
FUNC 34e4e 18 0 __crt_char_traits<char>::set_environment_variable<char * const &,char * const>(char * const &,char * const &&)
FUNC 34e6c 17 0 __crt_char_traits<wchar_t>::set_environment_variable<wchar_t * const &,wchar_t * const>(wchar_t * const &,wchar_t * const &&)
FUNC 34e88 1a 0 __crt_char_traits<char>::tcschr<char * const &,char>(char * const &,char &&)
FUNC 34ea8 1e 0 __crt_char_traits<wchar_t>::tcschr<wchar_t * const &,char>(wchar_t * const &,char &&)
FUNC 34ecd 1e 0 __crt_char_traits<char>::tcscpy_s<char * &,unsigned int const &,char * &>(char * &,unsigned int const &,char * &)
FUNC 34ef2 1e 0 __crt_char_traits<wchar_t>::tcscpy_s<wchar_t * &,unsigned int const &,wchar_t * &>(wchar_t * &,unsigned int const &,wchar_t * &)
FUNC 34f17 1e 0 __crt_char_traits<char>::tcscpy_s<char * const &,unsigned int const &,char * const &>(char * const &,unsigned int const &,char * const &)
FUNC 34f3c 1e 0 __crt_char_traits<wchar_t>::tcscpy_s<wchar_t * const &,unsigned int const &,wchar_t * const &>(wchar_t * const &,unsigned int const &,wchar_t * const &)
FUNC 34f61 18 0 __crt_char_traits<char>::tcslen<char * const &>(char * const &)
FUNC 34f7f 1e 0 __crt_char_traits<wchar_t>::tcslen<wchar_t * const &>(wchar_t * const &)
FUNC 34fa4 1e 0 __crt_char_traits<char>::tcsnicoll<char const * const &,char * &,unsigned int const &>(char const * const &,char * &,unsigned int const &)
FUNC 34fc9 1e 0 __crt_char_traits<wchar_t>::tcsnicoll<wchar_t const * const &,wchar_t * &,unsigned int const &>(wchar_t const * const &,wchar_t * &,unsigned int const &)
FUNC 34fee 6 4 get_environment
FUNC 34ff4 6 4 get_environment
FUNC 34ffa 6 4 get_initial_environment
FUNC 35000 6 4 get_initial_environment
FUNC 35006 6 4 get_other_environment
FUNC 3500c 6 4 get_other_environment
FUNC 35012 b 0 strchr(char * const,int)
FUNC 3501f b 0 wcschr(wchar_t *,wchar_t)
FUNC 3502c b 0 __dcrt_set_variable_in_narrow_environment_nolock
FUNC 35039 b 0 __dcrt_set_variable_in_wide_environment_nolock
FUNC 35046 b 0 _recalloc
FUNC 35053 6d 0 _recalloc_base
FUNC 350db d 0 <lambda_29d3c280b90b41c2ae070ffca879996a>::<lambda_invoker_stdcall>
FUNC 350eb 6 0 __crt_fast_encoded_nullptr_t::operator<int > int (*)(wchar_t *,unsigned long,long)()
FUNC 350f1 7c 0 __crt_seh_guarded_call<int>::operator()<<lambda_6b4b7855443974f2b4b77000ea21c99c>,<lambda_8f7d3b162ab39427f4fa9995c67a7986> &,<lambda_cc9a5ba8a5d8428b9634eab82665e5dc> >
FUNC 3518c 26 0 __acrt_lock_and_call<<lambda_8f7d3b162ab39427f4fa9995c67a7986> >
FUNC 351bb 16 0 __crt_fast_decode_pointer<int (*)(wchar_t *,unsigned long,long)>(int (*const)(wchar_t *,unsigned long,long))
FUNC 351d6 1f 0 __crt_fast_encode_pointer<int (*)(wchar_t *,unsigned long,long)>(int (*const)(wchar_t *,unsigned long,long))
FUNC 351fc 12 0 <lambda_6b4b7855443974f2b4b77000ea21c99c>::<lambda_6b4b7855443974f2b4b77000ea21c99c>
FUNC 35212 10 0 <lambda_8f7d3b162ab39427f4fa9995c67a7986>::<lambda_8f7d3b162ab39427f4fa9995c67a7986>
FUNC 35226 12 0 <lambda_cc9a5ba8a5d8428b9634eab82665e5dc>::<lambda_cc9a5ba8a5d8428b9634eab82665e5dc>
FUNC 3523c 6 0 <lambda_29d3c280b90b41c2ae070ffca879996a>::operator int (__stdcall*)(wchar_t *)
FUNC 35242 2f 0 <lambda_29d3c280b90b41c2ae070ffca879996a>::operator()
FUNC 3527c 9 0 <lambda_6b4b7855443974f2b4b77000ea21c99c>::operator()
FUNC 35287 29 0 <lambda_8f7d3b162ab39427f4fa9995c67a7986>::operator()
FUNC 352ba 9 0 <lambda_cc9a5ba8a5d8428b9634eab82665e5dc>::operator()
FUNC 352c5 2e 0 enum_system_locales_ex_nolock
FUNC 352fe 4 0 invalid_function_sentinel
FUNC 35302 1a 0 try_get_AppPolicyGetProcessTerminationMethod
FUNC 35322 1a 0 try_get_AppPolicyGetShowDeveloperDiagnostic
FUNC 35342 1a 0 try_get_AppPolicyGetThreadInitializationType
FUNC 35362 1a 0 try_get_AppPolicyGetWindowingModel
FUNC 35382 1a 0 try_get_AreFileApisANSI
FUNC 353a2 1a 0 try_get_CompareStringEx
FUNC 353c2 1a 0 try_get_EnumSystemLocalesEx
FUNC 353e2 1a 0 try_get_FlsAlloc
FUNC 35402 1a 0 try_get_FlsFree
FUNC 35422 1a 0 try_get_FlsGetValue
FUNC 35442 1a 0 try_get_FlsSetValue
FUNC 35462 1a 0 try_get_GetActiveWindow
FUNC 35482 1a 0 try_get_GetDateFormatEx
FUNC 354a2 1a 0 try_get_GetEnabledXStateFeatures
FUNC 354c2 1a 0 try_get_GetLastActivePopup
FUNC 354e2 1a 0 try_get_GetLocaleInfoEx
FUNC 35502 1a 0 try_get_GetProcessWindowStation
FUNC 35522 1a 0 try_get_GetSystemTimePreciseAsFileTime
FUNC 35542 1a 0 try_get_GetTimeFormatEx
FUNC 35562 1a 0 try_get_GetUserDefaultLocaleName
FUNC 35582 1a 0 try_get_GetUserObjectInformationW
FUNC 355a2 1a 0 try_get_GetXStateFeaturesMask
FUNC 355c2 1a 0 try_get_InitializeCriticalSectionEx
FUNC 355e2 1a 0 try_get_IsValidLocaleName
FUNC 35602 1a 0 try_get_LCIDToLocaleName
FUNC 35622 1a 0 try_get_LCMapStringEx
FUNC 35642 1a 0 try_get_LocaleNameToLCID
FUNC 35662 1a 0 try_get_LocateXStateFeature
FUNC 35682 1a 0 try_get_MessageBoxA
FUNC 356a2 1a 0 try_get_MessageBoxW
FUNC 356c2 1a 0 try_get_RoInitialize
FUNC 356e2 1a 0 try_get_RoUninitialize
FUNC 35702 1a 0 try_get_SetThreadStackGuarantee
FUNC 35722 1a 0 try_get_SystemFunction036
FUNC 35742 c7 0 try_get_first_available_module
FUNC 3583a 83 0 try_get_function
FUNC 358dd 52 0 try_get_module
FUNC 35943 24 0 try_get_proc_address_from_first_available_module
FUNC 35970 63 0 try_load_library_from_system_directory
FUNC 359eb 4 0 GetCurrentThreadEffectiveToken
FUNC 359ef 40 4 __acrt_AppPolicyGetProcessTerminationMethodInternal
FUNC 35a3f 40 4 __acrt_AppPolicyGetShowDeveloperDiagnosticInternal
FUNC 35a8f 40 4 __acrt_AppPolicyGetThreadInitializationTypeInternal
FUNC 35adf 40 4 __acrt_AppPolicyGetWindowingModelInternal
FUNC 35b2f 1f 0 __acrt_AreFileApisANSI
FUNC 35b55 5d 24 __acrt_CompareStringEx
FUNC 35bc9 54 10 __acrt_EnumSystemLocalesEx
FUNC 35c32 3f 4 __acrt_FlsAlloc
FUNC 35c80 3f 4 __acrt_FlsFree
FUNC 35cce 3f 4 __acrt_FlsGetValue
FUNC 35d1c 42 8 __acrt_FlsSetValue
FUNC 35d6e 57 1c __acrt_GetDateFormatEx
FUNC 35dda 34 0 __acrt_GetEnabledXStateFeatures
FUNC 35e1b 3f 10 __acrt_GetLocaleInfoEx
FUNC 35e69 3f 4 __acrt_GetSystemTimePreciseAsFileTime
FUNC 35eb7 45 18 __acrt_GetTimeFormatEx
FUNC 35f0d 3c 8 __acrt_GetUserDefaultLocaleName
FUNC 35f58 40 8 __acrt_GetXStateFeaturesMask
FUNC 35fa8 4b c __acrt_InitializeCriticalSectionEx
FUNC 36005 38 4 __acrt_IsValidLocaleName
FUNC 3604b 3f 10 __acrt_LCIDToLocaleName
FUNC 36099 5d 24 __acrt_LCMapStringEx
FUNC 3610d 31 8 __acrt_LocaleNameToLCID
FUNC 3614a 2f c __acrt_LocateXStateFeature
FUNC 36184 32 10 __acrt_MessageBoxA
FUNC 361c2 32 10 __acrt_MessageBoxW
FUNC 36200 3b 4 __acrt_RoInitialize
FUNC 36249 2e 0 __acrt_RoUninitialize
FUNC 36282 40 8 __acrt_RtlGenRandom
FUNC 362d2 3b 4 __acrt_SetThreadStackGuarantee
FUNC 3631b 27 0 __acrt_can_show_message_box
FUNC 3634b b 0 __acrt_can_use_vista_locale_apis
FUNC 36358 b 0 __acrt_can_use_xstate_apis
FUNC 36365 37 0 __acrt_eagerly_load_locale_apis
FUNC 363a9 68 0 __acrt_get_parent_window
FUNC 3642b 2b 0 __acrt_initialize_winapi_thunks
FUNC 36460 9f 0 __acrt_is_interactive
FUNC 36526 36 0 __acrt_uninitialize_winapi_thunks
FUNC 36569 6 0 __acrt_getheap
FUNC 3656f 11 0 __acrt_initialize_heap
FUNC 36584 a 4 __acrt_uninitialize_heap
FUNC 36590 6 0 _get_heap_handle
FUNC 36596 22 0 get_std_handle_id
FUNC 365c0 b6 0 initialize_inherited_file_handles_nolock
FUNC 366a3 b4 0 initialize_stdio_handles_nolock
FUNC 36784 60 0 __acrt_initialize_lowio
FUNC 367fc 2c 4 __acrt_uninitialize_lowio
FUNC 36833 68 0 __acrt_execute_initializers
FUNC 368b5 31 0 __acrt_execute_uninitializers
FUNC 368f2 6 0 __crt_fast_encoded_nullptr_t::operator<int > int (*)(unsigned int)()
FUNC 368f8 16 0 __crt_fast_decode_pointer<int (*)(unsigned int)>(int (*const)(unsigned int))
FUNC 36913 1f 0 __crt_fast_encode_pointer<int (*)(unsigned int)>(int (*const)(unsigned int))
FUNC 36939 d 4 _set_new_handler(int)
FUNC 36949 26 0 __crt_state_management::dual_state_global<int (*)(unsigned int)>::initialize(int (*const)(unsigned int))
FUNC 36978 3 0 __crt_state_management::dual_state_global<int (*)(unsigned int)>::value()
FUNC 3697b f 0 __acrt_initialize_new_handler
FUNC 3698d 2d 0 _callnewh
FUNC 369c5 5c 0 _query_new_handler
FUNC 36a38 6a 0 _set_new_handler
FUNC 36abc 6 0 __crt_fast_encoded_nullptr_t::operator<void > void (*)(int)()
FUNC 36ac2 64 0 __crt_seh_guarded_call<void (__cdecl*)(int)>::operator()<<lambda_cbab9ec6f41b0180b23cc171c22676b0>,<lambda_44731a7d0e6d81c3e6aa82d741081786> &,<lambda_4b292cb8dd18144e164572427af410ab> >
FUNC 36b3f 26 0 __acrt_lock_and_call<<lambda_44731a7d0e6d81c3e6aa82d741081786> >
FUNC 36b6e 16 0 __crt_fast_decode_pointer<void (*)(int)>(void (*const)(int))
FUNC 36b89 1f 0 __crt_fast_encode_pointer<void (*)(int)>(void (*const)(int))
FUNC 36baf 12 0 <lambda_4b292cb8dd18144e164572427af410ab>::<lambda_4b292cb8dd18144e164572427af410ab>
FUNC 36bc5 12 0 <lambda_cbab9ec6f41b0180b23cc171c22676b0>::<lambda_cbab9ec6f41b0180b23cc171c22676b0>
FUNC 36bdb 13 0 <lambda_44731a7d0e6d81c3e6aa82d741081786>::operator()
FUNC 36bf2 9 0 <lambda_4b292cb8dd18144e164572427af410ab>::operator()
FUNC 36bfd 9 0 <lambda_cbab9ec6f41b0180b23cc171c22676b0>::operator()
FUNC 36c08 aa 0 ctrlevent_capture
FUNC 36cdc 42 0 get_global_action_nolock
FUNC 36d2e 26 0 __crt_state_management::dual_state_global<void (*)(int)>::initialize(void (*const)(int))
FUNC 36d5d 1a 0 is_console_signal
FUNC 36d7d 1a 0 is_unsupported_signal
FUNC 36d9d 28 0 siglookup
FUNC 36dcf 31 0 signal_failed
FUNC 36e0c 3 0 __crt_state_management::dual_state_global<void (*)(int)>::value()
FUNC 36e0f 27 0 __acrt_get_sigabrt_handler
FUNC 36e3f 1e 0 __acrt_initialize_signal_handlers
FUNC 36e64 9 0 __fpecode
FUNC 36e6f 9 0 __pxcptinfoptrs
FUNC 36e7a 1fb 0 raise
FUNC 370f3 1bf 0 signal
FUNC 37321 16 0 __crt_fast_decode_pointer<int (*)(_exception *)>(int (*const)(_exception *))
FUNC 3733c 1f 0 __crt_fast_encode_pointer<int (*)(_exception *)>(int (*const)(_exception *))
FUNC 37362 26 0 __crt_state_management::dual_state_global<int (*)(_exception *)>::initialize(int (*const)(_exception *))
FUNC 37391 3 0 __crt_state_management::dual_state_global<int (*)(_exception *)>::value()
FUNC 37394 18 0 __acrt_has_user_matherr
FUNC 373b2 f 0 __acrt_initialize_user_matherr
FUNC 373c4 32 0 __acrt_invoke_user_matherr
FUNC 37402 15 0 __setusermatherr
FUNC 3741c 8c 0 __crt_seh_guarded_call<void>::operator()<<lambda_2866be3712abc81a800a822484c830d8>,<lambda_39ca0ed439415581b5b15c265174cece> &,<lambda_2b24c74d71094a6cd0cb82e44167d71b> >
FUNC 374cb ac 0 __crt_seh_guarded_call<void>::operator()<<lambda_2cc53f568c5a2bb6f192f930a45d44ea>,<lambda_ab61a845afdef5b7c387490eaf3616ee> &,<lambda_c2ffc0b7726aa6be21d5f0026187e748> >
FUNC 375a2 60 0 __crt_seh_guarded_call<int>::operator()<<lambda_6d20deecaf4856105ebacbad442d1079>,<lambda_9a32fed5bf61b6b509b2d3f6003082a1> &,<lambda_63ea2239ed67c638ddbae41947fdf875> >
FUNC 3761a 26 0 __acrt_lock_and_call<<lambda_ab61a845afdef5b7c387490eaf3616ee> >
FUNC 37649 26 0 __acrt_lock_stream_and_call<<lambda_39ca0ed439415581b5b15c265174cece> >
FUNC 37678 26 0 __acrt_lock_stream_and_call<<lambda_9a32fed5bf61b6b509b2d3f6003082a1> >
FUNC 376a7 12 0 <lambda_2866be3712abc81a800a822484c830d8>::<lambda_2866be3712abc81a800a822484c830d8>
FUNC 376bd 12 0 <lambda_2b24c74d71094a6cd0cb82e44167d71b>::<lambda_2b24c74d71094a6cd0cb82e44167d71b>
FUNC 376d3 12 0 <lambda_2cc53f568c5a2bb6f192f930a45d44ea>::<lambda_2cc53f568c5a2bb6f192f930a45d44ea>
FUNC 376e9 22 0 <lambda_39ca0ed439415581b5b15c265174cece>::<lambda_39ca0ed439415581b5b15c265174cece>
FUNC 37713 12 0 <lambda_63ea2239ed67c638ddbae41947fdf875>::<lambda_63ea2239ed67c638ddbae41947fdf875>
FUNC 37729 12 0 <lambda_6d20deecaf4856105ebacbad442d1079>::<lambda_6d20deecaf4856105ebacbad442d1079>
FUNC 3773f 10 0 <lambda_9a32fed5bf61b6b509b2d3f6003082a1>::<lambda_9a32fed5bf61b6b509b2d3f6003082a1>
FUNC 37753 1c 0 <lambda_ab61a845afdef5b7c387490eaf3616ee>::<lambda_ab61a845afdef5b7c387490eaf3616ee>
FUNC 37776 12 0 <lambda_c2ffc0b7726aa6be21d5f0026187e748>::<lambda_c2ffc0b7726aa6be21d5f0026187e748>
FUNC 3778c 10 0 __crt_stdio_stream::__crt_stdio_stream(__crt_stdio_stream_data * const)
FUNC 377a0 9 0 <lambda_2866be3712abc81a800a822484c830d8>::operator()
FUNC 377ab 9 0 <lambda_2b24c74d71094a6cd0cb82e44167d71b>::operator()
FUNC 377b6 9 0 <lambda_2cc53f568c5a2bb6f192f930a45d44ea>::operator()
FUNC 377c1 4b 0 <lambda_39ca0ed439415581b5b15c265174cece>::operator()
FUNC 3781e 9 0 <lambda_63ea2239ed67c638ddbae41947fdf875>::operator()
FUNC 37829 9 0 <lambda_6d20deecaf4856105ebacbad442d1079>::operator()
FUNC 37834 b 0 <lambda_9a32fed5bf61b6b509b2d3f6003082a1>::operator()
FUNC 37841 88 0 <lambda_ab61a845afdef5b7c387490eaf3616ee>::operator()
FUNC 378eb 9 0 <lambda_c2ffc0b7726aa6be21d5f0026187e748>::operator()
FUNC 378f6 16 0 __acrt_stdio_reset_buffer(__crt_stdio_stream)
FUNC 37911 4d 0 common_flush_all
FUNC 37971 33 0 common_flush_all_should_try_to_flush_stream
FUNC 379b0 18 0 __crt_stdio_stream::has_all_of(long)
FUNC 379ce f 0 is_stream_allocated
FUNC 379e0 1c 0 is_stream_flushable
FUNC 37a03 25 0 is_stream_flushable_or_commitable
FUNC 37a31 24 0 __crt_stdio_stream::set_flags(long)
FUNC 37a5e 29 0 __crt_stdio_stream::unset_flags(long)
FUNC 37a91 65 0 __acrt_stdio_flush_nolock
FUNC 37b0f 48 0 _fflush_nolock
FUNC 37b69 9 0 _flushall
FUNC 37b74 55 0 fflush
FUNC 37bde 25 0 __p___mb_cur_max
FUNC 37c0c 12 0 __crt_internal_free_policy::operator()<__crt_stdio_stream_data *>(__crt_stdio_stream_data * const * const)
FUNC 37c22 10 0 __crt_unique_heap_ptr<__crt_stdio_stream_data *,__crt_internal_free_policy>::__crt_unique_heap_ptr<__crt_stdio_stream_data *,__crt_internal_free_policy>(__crt_stdio_stream_data * * const)
FUNC 37c36 12 0 __crt_unique_heap_ptr<__crt_stdio_stream_data *,__crt_internal_free_policy>::~__crt_unique_heap_ptr<__crt_stdio_stream_data *,__crt_internal_free_policy>()
FUNC 37c4c 6 0 __crt_unique_heap_ptr<__crt_stdio_stream_data *,__crt_internal_free_policy>::detach()
FUNC 37c52 12 0 __crt_unique_heap_ptr<__crt_stdio_stream_data *,__crt_internal_free_policy>::release()
FUNC 37c68 c8 0 __acrt_initialize_stdio
FUNC 37d62 10 0 __acrt_iob_func
FUNC 37d76 4c 0 __acrt_uninitialize_stdio
FUNC 37dd5 46 0 _get_stream_buffer_pointers
FUNC 37e2c 14 0 _lock_file
FUNC 37e45 14 0 _unlock_file
FUNC 37e5e f 0 __crt_stdio_stream::has_any_buffer()
FUNC 37e70 15 0 __crt_stdio_stream::has_any_of(long)
FUNC 37e8a c 0 __crt_stdio_stream::has_temporary_buffer()
FUNC 37e99 b3 0 __acrt_stdio_begin_temporary_buffering_nolock
FUNC 37f78 3a 0 __acrt_stdio_end_temporary_buffering_nolock
FUNC 37fc0 4e 0 _malloc_base
FUNC 38021 1b 0 __crt_strtox::make_c_string_character_source<char,char * *>(char const * const,char * * const)
FUNC 38042 1b 0 __crt_strtox::make_c_string_character_source<wchar_t,wchar_t * *>(wchar_t const * const,wchar_t * * const)
FUNC 38063 2b 0 __crt_strtox::parse_integer_from_string<long,char,char * *>(char const * const,char * * const,int,__crt_locale_pointers * const)
FUNC 38098 2b 0 __crt_strtox::parse_integer_from_string<long,wchar_t,wchar_t * *>(wchar_t const * const,wchar_t * * const,int,__crt_locale_pointers * const)
FUNC 380cd 2b 0 __crt_strtox::parse_integer_from_string<unsigned long,char,char * *>(char const * const,char * * const,int,__crt_locale_pointers * const)
FUNC 38102 2b 0 __crt_strtox::parse_integer_from_string<unsigned long,wchar_t,wchar_t * *>(wchar_t const * const,wchar_t * * const,int,__crt_locale_pointers * const)
FUNC 38137 2b 0 __crt_strtox::parse_integer_from_string<__int64,char,char * *>(char const * const,char * * const,int,__crt_locale_pointers * const)
FUNC 3816c 2b 0 __crt_strtox::parse_integer_from_string<__int64,wchar_t,wchar_t * *>(wchar_t const * const,wchar_t * * const,int,__crt_locale_pointers * const)
FUNC 381a1 2b 0 __crt_strtox::parse_integer_from_string<unsigned __int64,char,char * *>(char const * const,char * * const,int,__crt_locale_pointers * const)
FUNC 381d6 2b 0 __crt_strtox::parse_integer_from_string<unsigned __int64,wchar_t,wchar_t * *>(wchar_t const * const,wchar_t * * const,int,__crt_locale_pointers * const)
FUNC 3820b 2a 0 _strtoi64
FUNC 3823f 2b 0 _strtoi64_l
FUNC 38274 2b 0 _strtoimax_l
FUNC 382a9 2b 0 _strtol_l
FUNC 382de 2b 0 _strtoll_l
FUNC 38313 2a 0 _strtoui64
FUNC 38347 2b 0 _strtoui64_l
FUNC 3837c 2b 0 _strtoul_l
FUNC 383b1 2b 0 _strtoull_l
FUNC 383e6 2b 0 _strtoumax_l
FUNC 3841b 2a 0 _wcstoi64
FUNC 3844f 2b 0 _wcstoi64_l
FUNC 38484 2b 0 _wcstoimax_l
FUNC 384b9 2b 0 _wcstol_l
FUNC 384ee 2b 0 _wcstoll_l
FUNC 38523 2a 0 _wcstoui64
FUNC 38557 2b 0 _wcstoui64_l
FUNC 3858c 2b 0 _wcstoul_l
FUNC 385c1 2b 0 _wcstoull_l
FUNC 385f6 2b 0 _wcstoumax_l
FUNC 3862b 2a 0 strtoimax
FUNC 3865f 2a 0 strtol
FUNC 38693 2a 0 strtoll
FUNC 386c7 2a 0 strtoul
FUNC 386fb 2a 0 strtoull
FUNC 3872f 2a 0 strtoumax
FUNC 38763 2a 0 wcstoimax
FUNC 38797 2a 0 wcstol
FUNC 387cb 2a 0 wcstoll
FUNC 387ff 2a 0 wcstoul
FUNC 38833 2a 0 wcstoull
FUNC 38867 2a 0 wcstoumax
FUNC 3889b 142 0 _mbtowc_l
FUNC 38a2d 1a 0 mbtowc
FUNC 38a4d 51 0 _wctomb_l
FUNC 38ab2 15b 0 _wctomb_s_l
FUNC 38c63 32 0 wctomb
FUNC 38ca1 1d 0 wctomb_s
FUNC 38cc5 136 8 common_strnlen<1,unsigned short>
FUNC 38e48 11e 8 common_strnlen<0,unsigned char>
FUNC 38fad 1a9 8 common_strnlen<0,unsigned short>
FUNC 391c0 1a 0 common_strnlen_c<1,unsigned short>
FUNC 391e0 21 0 common_strnlen_c<0,unsigned char>
FUNC 39209 27 0 common_strnlen_c<0,unsigned short>
FUNC 39239 8c 8 common_strnlen_simd<1,1,unsigned short>
FUNC 392e8 8b 8 common_strnlen_simd<1,0,unsigned short>
FUNC 39395 7a 8 common_strnlen_simd<0,1,unsigned char>
FUNC 3942d c0 8 common_strnlen_simd<0,1,unsigned short>
FUNC 3951d 79 8 common_strnlen_simd<0,0,unsigned char>
FUNC 395b4 bf 8 common_strnlen_simd<0,0,unsigned short>
FUNC 396a2 3 8 last_reached<1>
FUNC 396a5 10 0 last_reached<0>
FUNC 396b9 4 0 __crt_simd_cleanup_guard<1>::~__crt_simd_cleanup_guard<1>()
FUNC 396bd 3 0 __crt_simd_cleanup_guard<0>::~__crt_simd_cleanup_guard<0>()
FUNC 396c0 5 0 __crt_simd_traits<1,unsigned char>::compare_equals(__m256i,__m256i)
FUNC 396c5 5 0 __crt_simd_traits<1,unsigned short>::compare_equals(__m256i,__m256i)
FUNC 396ca 5 0 __crt_simd_traits<0,unsigned char>::compare_equals(__m128i,__m128i)
FUNC 396cf 5 0 __crt_simd_traits<0,unsigned short>::compare_equals(__m128i,__m128i)
FUNC 396d4 5 0 __crt_simd_pack_traits<1>::compute_byte_mask(__m256i)
FUNC 396d9 5 0 __crt_simd_pack_traits<0>::compute_byte_mask(__m128i)
FUNC 396de 5 0 __crt_simd_pack_traits<1>::get_zero_pack()
FUNC 396e3 4 0 __crt_simd_pack_traits<0>::get_zero_pack()
FUNC 396e7 122 8 strnlen
FUNC 39851 128 4 wcslen
FUNC 399c3 1b0 8 wcsnlen
FUNC 39bdf 2d 0 __acrt_update_locale_info
FUNC 39c17 2d 0 __acrt_update_multibyte_info
FUNC 39c4f 62 0 __acrt_fp_classify(double const &)
FUNC 39cc9 19 0 __acrt_fp_is_negative(double const &)
FUNC 39ce8 319 0 fp_format_a
FUNC 3a0c7 a2 0 fp_format_e
FUNC 3a191 148 0 fp_format_e_internal
FUNC 3a32b 8b 0 fp_format_f
FUNC 3a3d8 d1 0 fp_format_f_internal
FUNC 3a4dd c1 0 fp_format_g
FUNC 3a5ce 95 0 fp_format_nan_or_infinity
FUNC 3a688 34 0 shift_bytes
FUNC 3a6c9 b 0 strrchr(char * const,int)
FUNC 3a6d6 13b 0 __acrt_fp_format
FUNC 3a85f 30 0 fputwc_binary_nolock
FUNC 3a89b 129 0 _fputwc_nolock
FUNC 3aa0e 1a 0 _fputwchar
FUNC 3aa2e b 0 _putwc_nolock
FUNC 3aa3b 7e 0 fputwc
FUNC 3aad8 b 0 putwc
FUNC 3aae5 b 0 putwchar
FUNC 3aaf2 7 0 __crt_stdio_stream::lowio_handle()
FUNC 3aaf9 27 0 _fileno
FUNC 3ab29 29 0 _fputc_nolock
FUNC 3ab5c 1a 0 _fputchar
FUNC 3ab7c b 0 _putc_nolock
FUNC 3ab89 10a 0 fputc
FUNC 3acd5 b 0 putc
FUNC 3ace2 b 0 putchar
FUNC 3acef 15 0 _get_printf_count_output
FUNC 3ad09 2a 0 _set_printf_count_output
FUNC 3ad3d 3 4 no_op_initialize
FUNC 3ad40 12 0 __crt_internal_free_policy::operator()<__crt_locale_data>(__crt_locale_data const * const)
FUNC 3ad56 12 0 __crt_internal_free_policy::operator()<__crt_locale_pointers>(__crt_locale_pointers const * const)
FUNC 3ad6c 45 0 __crt_seh_guarded_call<void>::operator()<<lambda_135d2772fca65dc1248eeaa1b56e886a>,<lambda_2a444430fde8c29194d880d93eed5e8f> &,<lambda_8dff2cf36a5417162780cd64fa2883ef> &>
FUNC 3adc2 4d 0 __crt_seh_guarded_call<void>::operator()<<lambda_4fdada1b837b2abbf20876fac97688ad>,<lambda_b57350f2640456a0859d250846f69caf> &,<lambda_eed5e4f92b5b7d55fa22c48c484aaa54> >
FUNC 3ae22 52 0 __crt_seh_guarded_call<void>::operator()<<lambda_6673f7c4c09a5d469d0c27ae364621ce>,<lambda_ebab98244f73a74f49db879bf13fa982> &,<lambda_be20789b7a146653eab82509ec35b419> >
FUNC 3ae88 54 0 __crt_seh_guarded_call<void>::operator()<<lambda_82aef432098b982f9ede325b418aa67a>,<lambda_862e9a3f04921db6ca1ce3faa2bf3edf> &,<lambda_ffabc152e504b53d7492b9889b10c020> >
FUNC 3aef1 6e 0 __crt_seh_guarded_call<void>::operator()<<lambda_e5124f882df8998aaf41531e079ba474>,<lambda_3e16ef9562a7dcce91392c22ab16ea36> &,<lambda_e25ca0880e6ef98be67edffd8c599615> >
FUNC 3af7a 26 0 __acrt_lock_and_call<<lambda_3e16ef9562a7dcce91392c22ab16ea36> >
FUNC 3afa9 26 0 __acrt_lock_and_call<<lambda_862e9a3f04921db6ca1ce3faa2bf3edf> >
FUNC 3afd8 26 0 __acrt_lock_and_call<<lambda_b57350f2640456a0859d250846f69caf> >
FUNC 3b007 26 0 __acrt_lock_and_call<<lambda_ebab98244f73a74f49db879bf13fa982> >
FUNC 3b036 1a 0 __crt_call_and_cleanup<<lambda_2a444430fde8c29194d880d93eed5e8f>,<lambda_8dff2cf36a5417162780cd64fa2883ef> >
FUNC 3b056 2f 4 __crt_state_management::dual_state_global<__crt_locale_data *>::uninitialize<<lambda_88ce03f932007f29bf8b8056cbaba4f3> >
FUNC 3b090 28 0 <lambda_2a444430fde8c29194d880d93eed5e8f>::<lambda_2a444430fde8c29194d880d93eed5e8f>
FUNC 3b0c2 12 0 <lambda_4fdada1b837b2abbf20876fac97688ad>::<lambda_4fdada1b837b2abbf20876fac97688ad>
FUNC 3b0d8 12 0 <lambda_6673f7c4c09a5d469d0c27ae364621ce>::<lambda_6673f7c4c09a5d469d0c27ae364621ce>
FUNC 3b0ee 12 0 <lambda_82aef432098b982f9ede325b418aa67a>::<lambda_82aef432098b982f9ede325b418aa67a>
FUNC 3b104 10 0 <lambda_862e9a3f04921db6ca1ce3faa2bf3edf>::<lambda_862e9a3f04921db6ca1ce3faa2bf3edf>
FUNC 3b118 10 0 <lambda_8dff2cf36a5417162780cd64fa2883ef>::<lambda_8dff2cf36a5417162780cd64fa2883ef>
FUNC 3b12c 28 0 <lambda_b57350f2640456a0859d250846f69caf>::<lambda_b57350f2640456a0859d250846f69caf>
FUNC 3b15e 12 0 <lambda_be20789b7a146653eab82509ec35b419>::<lambda_be20789b7a146653eab82509ec35b419>
FUNC 3b174 12 0 <lambda_e25ca0880e6ef98be67edffd8c599615>::<lambda_e25ca0880e6ef98be67edffd8c599615>
FUNC 3b18a 12 0 <lambda_e5124f882df8998aaf41531e079ba474>::<lambda_e5124f882df8998aaf41531e079ba474>
FUNC 3b1a0 10 0 <lambda_ebab98244f73a74f49db879bf13fa982>::<lambda_ebab98244f73a74f49db879bf13fa982>
FUNC 3b1b4 12 0 <lambda_eed5e4f92b5b7d55fa22c48c484aaa54>::<lambda_eed5e4f92b5b7d55fa22c48c484aaa54>
FUNC 3b1ca 12 0 <lambda_ffabc152e504b53d7492b9889b10c020>::<lambda_ffabc152e504b53d7492b9889b10c020>
FUNC 3b1e0 10 0 __crt_unique_heap_ptr<__crt_locale_data,__crt_internal_free_policy>::__crt_unique_heap_ptr<__crt_locale_data,__crt_internal_free_policy>(__crt_locale_data * const)
FUNC 3b1f4 10 0 __crt_unique_heap_ptr<__crt_locale_pointers,__crt_internal_free_policy>::__crt_unique_heap_ptr<__crt_locale_pointers,__crt_internal_free_policy>(__crt_locale_pointers * const)
FUNC 3b208 4a 0 _expandlocale_locale_name_cache::_expandlocale_locale_name_cache(wchar_t * const,unsigned int,__crt_qualified_locale_data * const)
FUNC 3b264 12 0 __crt_unique_heap_ptr<__crt_locale_data,__crt_internal_free_policy>::~__crt_unique_heap_ptr<__crt_locale_data,__crt_internal_free_policy>()
FUNC 3b27a 12 0 __crt_unique_heap_ptr<__crt_locale_pointers,__crt_internal_free_policy>::~__crt_unique_heap_ptr<__crt_locale_pointers,__crt_internal_free_policy>()
FUNC 3b290 30 0 _expandlocale_locale_name_cache::~_expandlocale_locale_name_cache()
FUNC 3b2cc 7 0 __crt_unique_heap_ptr<__crt_locale_data,__crt_internal_free_policy>::operator bool()
FUNC 3b2d3 7 0 __crt_unique_heap_ptr<__crt_locale_pointers,__crt_internal_free_policy>::operator bool()
FUNC 3b2da 3 0 <lambda_135d2772fca65dc1248eeaa1b56e886a>::operator()
FUNC 3b2dd 6a 0 <lambda_2a444430fde8c29194d880d93eed5e8f>::operator()
FUNC 3b361 20 0 <lambda_3e16ef9562a7dcce91392c22ab16ea36>::operator()
FUNC 3b389 9 0 <lambda_4fdada1b837b2abbf20876fac97688ad>::operator()
FUNC 3b394 9 0 <lambda_6673f7c4c09a5d469d0c27ae364621ce>::operator()
FUNC 3b39f 9 0 <lambda_82aef432098b982f9ede325b418aa67a>::operator()
FUNC 3b3aa d 0 <lambda_862e9a3f04921db6ca1ce3faa2bf3edf>::operator()
FUNC 3b3ba 22 0 <lambda_88ce03f932007f29bf8b8056cbaba4f3>::operator()
FUNC 3b3e4 c 0 <lambda_8dff2cf36a5417162780cd64fa2883ef>::operator()
FUNC 3b3f3 fe 0 <lambda_b57350f2640456a0859d250846f69caf>::operator()
FUNC 3b530 9 0 <lambda_be20789b7a146653eab82509ec35b419>::operator()
FUNC 3b53b 9 0 <lambda_e25ca0880e6ef98be67edffd8c599615>::operator()
FUNC 3b546 9 0 <lambda_e5124f882df8998aaf41531e079ba474>::operator()
FUNC 3b551 b 0 <lambda_ebab98244f73a74f49db879bf13fa982>::operator()
FUNC 3b55e 9 0 <lambda_eed5e4f92b5b7d55fa22c48c484aaa54>::operator()
FUNC 3b569 9 0 <lambda_ffabc152e504b53d7492b9889b10c020>::operator()
FUNC 3b574 44 0 _expandlocale_locale_name_cache::commit_locale_name(wchar_t const * const,unsigned int)
FUNC 3b5c9 35 0 _expandlocale_locale_name_cache::commit_locale_name_cache_already_updated(wchar_t const * const,unsigned int)
FUNC 3b60b 6 0 __crt_unique_heap_ptr<__crt_locale_data,__crt_internal_free_policy>::detach()
FUNC 3b611 6 0 __crt_unique_heap_ptr<__crt_locale_pointers,__crt_internal_free_policy>::detach()
FUNC 3b617 3 0 __crt_unique_heap_ptr<__crt_locale_data,__crt_internal_free_policy>::get()
FUNC 3b61a 3 0 __crt_unique_heap_ptr<__crt_locale_pointers,__crt_internal_free_policy>::get()
FUNC 3b61d 7 0 __crt_unique_heap_ptr<__crt_locale_data,__crt_internal_free_policy>::is_valid()
FUNC 3b624 7 0 __crt_unique_heap_ptr<__crt_locale_pointers,__crt_internal_free_policy>::is_valid()
FUNC 3b62b 12 0 __crt_unique_heap_ptr<__crt_locale_data,__crt_internal_free_policy>::release()
FUNC 3b641 12 0 __crt_unique_heap_ptr<__crt_locale_pointers,__crt_internal_free_policy>::release()
FUNC 3b657 60 0 __acrt_copy_locale_name
FUNC 3b6cf b 0 __acrt_set_locale_changed
FUNC 3b6dc 27 0 __acrt_uninitialize_locale
FUNC 3b70c 17 0 __ascii_tolower
FUNC 3b728 17 0 __ascii_towlower
FUNC 3b744 70 0 __lc_lctowcs
FUNC 3b7d0 150 0 __lc_wcstolc
FUNC 3b974 62 0 _configthreadlocale
FUNC 3b9ee 2f 0 _copytlocinfo_nolock
FUNC 3ba28 64 0 _create_locale
FUNC 3baa5 3c6 0 _expandlocale
FUNC 3bf5c c2 0 _free_locale
FUNC 3c04e 9b 0 _get_current_locale
FUNC 3c10f 107 0 _wcreate_locale
FUNC 3c257 41 0 _wcscats
FUNC 3c2a8 83 0 _wsetlocale
FUNC 3c34b 19b 0 _wsetlocale_get_all
FUNC 3c54c 2f0 0 _wsetlocale_nolock
FUNC 3c8f8 3c7 0 _wsetlocale_set_cat
FUNC 3cdb0 26 0 categorize_delimiter
FUNC 3cddf 2f 0 get_default_code_page
FUNC 3ce19 1ea 0 parse_bcp47
FUNC 3d07d 3f 0 parse_bcp47_code_page
FUNC 3d0cb 72 0 parse_bcp47_language
FUNC 3d159 b9 0 parse_bcp47_region
FUNC 3d240 70 0 parse_bcp47_script
FUNC 3d2cc 3d 0 string_is_alpha
FUNC 3d318 3a 0 string_is_digit
FUNC 3d360 22 0 sync_legacy_variables_lk
FUNC 3d38a 24 0 __pctype_func
FUNC 3d3b7 6 0 __pwctype_func
FUNC 3d3bd 14 0 _iswctype_l
FUNC 3d3d6 69 0 iswctype
FUNC 3d459 33 0 _isctype
FUNC 3d498 cb 0 _isctype_l
FUNC 3d595 1e 0 _isleadbyte_fast_internal
FUNC 3d5ba 7d 0 __acrt_add_locale_ref
FUNC 3d656 148 0 __acrt_free_locale
FUNC 3d7f0 29 0 __acrt_locale_add_lc_time_reference
FUNC 3d823 31 0 __acrt_locale_free_lc_time_if_unreferenced
FUNC 3d860 29 0 __acrt_locale_release_lc_time_reference
FUNC 3d893 81 0 __acrt_release_locale_ref
FUNC 3d934 81 0 __acrt_update_thread_locale_data
FUNC 3d9d5 50 0 _updatetlocinfoEx_nolock
FUNC 3da39 3 0 __crt_state_management::dual_state_global<long>::value()
FUNC 3da3c 7 0 _query_new_mode
FUNC 3da43 2f 0 _set_new_mode
FUNC 3da80 7a 0 shortsort
FUNC 3db20 39 0 swap
FUNC 3db70 444 0 qsort
FUNC 3e0c5 cb 0 common_tcsncpy_s<wchar_t>
FUNC 3e1c2 b 0 wcsncpy_s
FUNC 3e1cf 4e 0 wcspbrk
FUNC 3e230 b3 0 common_tcsncpy_s<char>
FUNC 3e30f b 0 strncpy_s
FUNC 3e320 40 0 strpbrk
FUNC 3e370 17 0 _mbsdec
FUNC 3e38c 8d 0 _mbsdec_l
FUNC 3e43c 10 0 __crt_scoped_stack_ptr<wchar_t>::__crt_scoped_stack_ptr<wchar_t>(__crt_scoped_stack_ptr_tag<wchar_t>)
FUNC 3e450 10 0 __crt_scoped_stack_ptr_tag<wchar_t>::__crt_scoped_stack_ptr_tag<wchar_t>(wchar_t * const)
FUNC 3e464 9 0 __crt_scoped_stack_ptr<wchar_t>::~__crt_scoped_stack_ptr<wchar_t>()
FUNC 3e46f 3 0 __crt_scoped_stack_ptr<wchar_t>::get()
FUNC 3e472 13 0 _MallocaComputeSize
FUNC 3e489 16 0 _MarkAllocaS
FUNC 3e4a4 103 0 __acrt_GetStringTypeA
FUNC 3e5e7 20 0 _freea_crt
FUNC 3e60f 7 0 __crt_scoped_stack_ptr<wchar_t>::operator bool()
FUNC 3e616 1ea 0 __acrt_LCMapStringA_stat
FUNC 3e87a 49 0 __acrt_LCMapStringA
FUNC 3e8d5 f 0 initialize_multibyte
FUNC 3e8e7 6d 0 _wcsnicoll
FUNC 3e96f c0 0 _wcsnicoll_l
FUNC 3ea5f 29 0 _strnicoll
FUNC 3ea92 c8 0 _strnicoll_l
FUNC 3eb8c b2 0 __acrt_convert_wcs_mbs_cp<char,wchar_t,<lambda_62f6974d9771e494a5ea317cc32e971c>,__crt_win32_buffer_internal_dynamic_resizing>
FUNC 3ec6a 21 0 <lambda_62f6974d9771e494a5ea317cc32e971c>::operator()
FUNC 3ec93 95 0 __acrt_SetEnvironmentVariableA
FUNC 3ed4d b 0 _msize
FUNC 3ed5a 33 0 _msize_base
FUNC 3ed99 69 0 _realloc_base
FUNC 3ee1c 37 0 GetTableIndexFromLcid
FUNC 3ee60 50 0 GetTableIndexFromLocaleName
FUNC 3eec4 aa 0 __acrt_DownlevelLCIDToLocaleName
FUNC 3ef98 2c 0 __acrt_DownlevelLocaleNameToLCID
FUNC 3efcf 12 0 __crt_internal_free_policy::operator()<__crt_lowio_handle_data>(__crt_lowio_handle_data const * const)
FUNC 3efe5 10 0 __crt_unique_heap_ptr<__crt_lowio_handle_data,__crt_internal_free_policy>::__crt_unique_heap_ptr<__crt_lowio_handle_data,__crt_internal_free_policy>(__crt_lowio_handle_data * const)
FUNC 3eff9 12 0 __crt_unique_heap_ptr<__crt_lowio_handle_data,__crt_internal_free_policy>::~__crt_unique_heap_ptr<__crt_lowio_handle_data,__crt_internal_free_policy>()
FUNC 3f00f 7 0 __crt_unique_heap_ptr<__crt_lowio_handle_data,__crt_internal_free_policy>::operator bool()
FUNC 3f016 6 0 __crt_unique_heap_ptr<__crt_lowio_handle_data,__crt_internal_free_policy>::detach()
FUNC 3f01c 3 0 __crt_unique_heap_ptr<__crt_lowio_handle_data,__crt_internal_free_policy>::get()
FUNC 3f01f 7 0 __crt_unique_heap_ptr<__crt_lowio_handle_data,__crt_internal_free_policy>::is_valid()
FUNC 3f026 12 0 __crt_unique_heap_ptr<__crt_lowio_handle_data,__crt_internal_free_policy>::release()
FUNC 3f03c 7b 0 __acrt_lowio_create_handle_array
FUNC 3f0d5 35 0 __acrt_lowio_destroy_handle_array
FUNC 3f117 9e 0 __acrt_lowio_ensure_fh_exists
FUNC 3f1dc 23 0 __acrt_lowio_lock_fh
FUNC 3f207 92 0 __acrt_lowio_set_os_handle
FUNC 3f2bd 23 0 __acrt_lowio_unlock_fh
FUNC 3f2e8 113 0 _alloc_osfhnd
FUNC 3f43f 91 0 _free_osfhnd
FUNC 3f4f4 6a 0 _get_osfhandle
FUNC 3f578 116 0 _open_osfhandle
FUNC 3f6d3 a2 0 __crt_seh_guarded_call<int>::operator()<<lambda_9e9de3de5fa147e2223d7db92bc10aa6>,<lambda_38ce7e780aa69e748d6df282ebc68efe> &,<lambda_8ca6da459f0f6780f1cff60fdc3d00e5> >
FUNC 3f79d 26 0 __acrt_lowio_lock_fh_and_call<<lambda_38ce7e780aa69e748d6df282ebc68efe> >
FUNC 3f7cc 10 0 <lambda_38ce7e780aa69e748d6df282ebc68efe>::<lambda_38ce7e780aa69e748d6df282ebc68efe>
FUNC 3f7e0 12 0 <lambda_8ca6da459f0f6780f1cff60fdc3d00e5>::<lambda_8ca6da459f0f6780f1cff60fdc3d00e5>
FUNC 3f7f6 12 0 <lambda_9e9de3de5fa147e2223d7db92bc10aa6>::<lambda_9e9de3de5fa147e2223d7db92bc10aa6>
FUNC 3f80c 55 0 <lambda_38ce7e780aa69e748d6df282ebc68efe>::operator()
FUNC 3f876 9 0 <lambda_8ca6da459f0f6780f1cff60fdc3d00e5>::operator()
FUNC 3f881 9 0 <lambda_9e9de3de5fa147e2223d7db92bc10aa6>::operator()
FUNC 3f88c 7d 0 _commit
FUNC 3f928 4f 0 write_binary_nolock
FUNC 3f98a 3aa 0 write_double_translated_ansi_nolock
FUNC 3fe1e 68 0 write_double_translated_unicode_nolock
FUNC 3fea0 71 0 write_requires_double_translation_nolock
FUNC 3ff2d db 0 write_text_ansi_nolock
FUNC 4003e e9 0 write_text_utf16le_nolock
FUNC 40161 132 0 write_text_utf8_nolock
FUNC 402df 11 0 _utf8_no_of_trailbytes
FUNC 402f4 f2 0 _write
FUNC 40422 1e2 0 _write_nolock
FUNC 4067c 28 0 localeconv
FUNC 406ae c 0 __crt_stdio_stream::is_in_use()
FUNC 406bd ab 0 _fcloseall
FUNC 40792 c 0 __crt_stdio_stream::has_crt_buffer()
FUNC 407a1 40 0 __acrt_stdio_free_buffer_nolock
FUNC 407f1 56 0 _isatty
FUNC 4085c 26 0 __iswcsym
FUNC 4088b 26 0 __iswcsymf
FUNC 408ba 3a 0 _isleadbyte_l
FUNC 40902 16 0 _iswalnum_l
FUNC 4091d 16 0 _iswalpha_l
FUNC 40938 1d 0 _iswblank_l
FUNC 4095c 13 0 _iswcntrl_l
FUNC 40973 26 0 _iswcsym_l
FUNC 409a2 26 0 _iswcsymf_l
FUNC 409d1 13 0 _iswdigit_l
FUNC 409e8 16 0 _iswgraph_l
FUNC 40a03 13 0 _iswlower_l
FUNC 40a1a 16 0 _iswprint_l
FUNC 40a35 13 0 _iswpunct_l
FUNC 40a4c 13 0 _iswspace_l
FUNC 40a63 13 0 _iswupper_l
FUNC 40a7a 16 0 _iswxdigit_l
FUNC 40a95 13 0 isleadbyte
FUNC 40aac 16 0 iswalnum
FUNC 40ac7 16 0 iswalpha
FUNC 40ae2 14 0 iswascii
FUNC 40afb 1d 0 iswblank
FUNC 40b1f 13 0 iswcntrl
FUNC 40b36 13 0 iswdigit
FUNC 40b4d 16 0 iswgraph
FUNC 40b68 13 0 iswlower
FUNC 40b7f 16 0 iswprint
FUNC 40b9a 13 0 iswpunct
FUNC 40bb1 13 0 iswspace
FUNC 40bc8 13 0 iswupper
FUNC 40bdf 16 0 iswxdigit
FUNC 40bfa 2c 0 <lambda_3d301b9e52f5099be73030e1f0bf487e>::operator()
FUNC 40c31 40 0 __crt_mbstring::__mbrtowc_utf8(wchar_t *,char const *,unsigned int,_Mbstatet *)
FUNC 40c81 fb 0 __crt_mbstring::__mbsrtowcs_utf8(wchar_t *,char const * *,unsigned int,_Mbstatet *)
FUNC 40dba 1ed 0 _mbrtowc_s_l
FUNC 41022 12a 0 _mbsrtowcs_helper
FUNC 41196 58 0 btowc
FUNC 41204 32 0 mbrlen
FUNC 41242 51 0 mbrtowc
FUNC 412a7 b 0 mbsrtowcs
FUNC 412b4 a3 0 mbsrtowcs_s
FUNC 4137f 12 0 __crt_internal_free_policy::operator()<unsigned short>(unsigned short const * const)
FUNC 41395 12 0 __crt_internal_free_policy::operator()<long>(long const * const)
FUNC 413ab 10 0 __crt_unique_heap_ptr<unsigned short,__crt_internal_free_policy>::__crt_unique_heap_ptr<unsigned short,__crt_internal_free_policy>(unsigned short * const)
FUNC 413bf 10 0 __crt_unique_heap_ptr<long,__crt_internal_free_policy>::__crt_unique_heap_ptr<long,__crt_internal_free_policy>(long * const)
FUNC 413d3 12 0 __crt_unique_heap_ptr<unsigned short,__crt_internal_free_policy>::~__crt_unique_heap_ptr<unsigned short,__crt_internal_free_policy>()
FUNC 413e9 12 0 __crt_unique_heap_ptr<long,__crt_internal_free_policy>::~__crt_unique_heap_ptr<long,__crt_internal_free_policy>()
FUNC 413ff 6 0 __crt_unique_heap_ptr<unsigned short,__crt_internal_free_policy>::detach()
FUNC 41405 6 0 __crt_unique_heap_ptr<long,__crt_internal_free_policy>::detach()
FUNC 4140b 12 0 __crt_unique_heap_ptr<unsigned short,__crt_internal_free_policy>::release()
FUNC 41421 12 0 __crt_unique_heap_ptr<long,__crt_internal_free_policy>::release()
FUNC 41437 25 0 ___lc_codepage_func
FUNC 41465 25 0 ___lc_collate_cp_func
FUNC 41493 27 0 ___lc_locale_name_func
FUNC 414c3 25 0 ___mb_cur_max_func
FUNC 414f1 19 0 ___mb_cur_max_l_func
FUNC 41510 45e 0 __acrt_locale_initialize_ctype
FUNC 41a85 ab 0 __crt_mbstring::__c32rtomb_utf8(char *,char32_t,_Mbstatet *)
FUNC 41b5a 14 0 __crt_mbstring::reset_and_return(unsigned int,_Mbstatet *)
FUNC 41b73 1f 0 __crt_mbstring::return_illegal_sequence(_Mbstatet *)
FUNC 41b99 b 0 c32rtomb
FUNC 41ba6 c0 0 __acrt_fp_strflt_to_string
FUNC 41c96 11dc 0 convert_to_fos_high_precision<double>
FUNC 432f0 31 0 __crt_strtox::big_integer::big_integer(__crt_strtox::big_integer const &)
FUNC 43330 9 0 __crt_strtox::big_integer::big_integer()
FUNC 4333b 2c 0 `anonymous namespace'::scoped_fp_state_reset::scoped_fp_state_reset
FUNC 43372 e 0 `anonymous namespace'::scoped_fp_state_reset::~scoped_fp_state_reset
FUNC 43390 31 0 __crt_strtox::big_integer::operator=(__crt_strtox::big_integer const &)
FUNC 433d0 3b 0 __crt_strtox::operator==(__crt_strtox::big_integer const &,__crt_strtox::big_integer const &)
FUNC 43420 39 0 __crt_strtox::operator!=(__crt_strtox::big_integer const &,__crt_strtox::big_integer const &)
FUNC 43470 1b 0 __crt_strtox::add_carry(unsigned int &,unsigned int,unsigned int)
FUNC 434a0 24 0 __crt_strtox::add_multiply_carry(unsigned int &,unsigned int,unsigned int,unsigned int)
FUNC 434d0 1e 0 __crt_strtox::bit_scan_reverse(unsigned int)
FUNC 43500 1b 0 __crt_strtox::count_sequential_high_zeroes(unsigned int)
FUNC 43530 498 0 __crt_strtox::divide(__crt_strtox::big_integer &,__crt_strtox::big_integer const &)
FUNC 43af0 10 0 __crt_strtox::is_zero(__crt_strtox::big_integer const &)
FUNC 43b10 20 0 __crt_strtox::make_big_integer(unsigned __int64)
FUNC 43b40 4c 0 __crt_strtox::make_big_integer_power_of_two(unsigned int)
FUNC 43ba0 33d 0 __crt_strtox::multiply(__crt_strtox::big_integer &,__crt_strtox::big_integer const &)
FUNC 43fb0 c3 0 __crt_strtox::multiply(__crt_strtox::big_integer &,unsigned int)
FUNC 440b0 17 0 __crt_strtox::multiply_64_32(unsigned __int64,unsigned int)
FUNC 440d0 523 0 __crt_strtox::multiply_by_power_of_ten(__crt_strtox::big_integer &,unsigned int)
FUNC 44740 3e 0 __crt_strtox::multiply_core(unsigned int * const,unsigned int,unsigned int)
FUNC 44790 156 0 __crt_strtox::shift_left(__crt_strtox::big_integer &,unsigned int)
FUNC 4493b 134a 0 __acrt_fltout
FUNC 46157 81 0 memcpy_s
FUNC 461f8 115 0 common_flush_and_write_nolock<char>
FUNC 46352 119 0 common_flush_and_write_nolock<wchar_t>
FUNC 464b1 cc 0 write_buffer_nolock<char>
FUNC 465b0 ce 0 write_buffer_nolock<wchar_t>
FUNC 466b1 c 0 __crt_stdio_stream::has_big_buffer()
FUNC 466c0 85 0 stream_is_at_end_of_file_nolock
FUNC 46766 b 0 __acrt_stdio_flush_and_write_narrow_nolock
FUNC 46773 b 0 __acrt_stdio_flush_and_write_wide_nolock
FUNC 46780 12 0 __crt_internal_free_policy::operator()<lconv>(lconv const * const)
FUNC 46796 10 0 __crt_unique_heap_ptr<lconv,__crt_internal_free_policy>::__crt_unique_heap_ptr<lconv,__crt_internal_free_policy>(lconv * const)
FUNC 467aa 12 0 __crt_unique_heap_ptr<lconv,__crt_internal_free_policy>::~__crt_unique_heap_ptr<lconv,__crt_internal_free_policy>()
FUNC 467c0 6 0 __crt_unique_heap_ptr<lconv,__crt_internal_free_policy>::detach()
FUNC 467c6 12 0 __crt_unique_heap_ptr<lconv,__crt_internal_free_policy>::release()
FUNC 467dc fe 0 __acrt_locale_free_monetary
FUNC 46919 3b7 0 __acrt_locale_initialize_monetary
FUNC 46dbd 38 0 fix_grouping
FUNC 46e03 69 0 __acrt_locale_free_numeric
FUNC 46e86 20f 0 __acrt_locale_initialize_numeric
FUNC 47118 38 0 fix_grouping
FUNC 4715e 12 0 __crt_internal_free_policy::operator()<__crt_lc_time_data>(__crt_lc_time_data const * const)
FUNC 47174 13 0 free_crt_array<char,2>
FUNC 4718b 13 0 free_crt_array<char,7>
FUNC 471a2 13 0 free_crt_array<char,12>
FUNC 471b9 13 0 free_crt_array<wchar_t,2>
FUNC 471d0 13 0 free_crt_array<wchar_t,7>
FUNC 471e7 13 0 free_crt_array<wchar_t,12>
FUNC 471fe 10 0 __crt_unique_heap_ptr<__crt_lc_time_data,__crt_internal_free_policy>::__crt_unique_heap_ptr<__crt_lc_time_data,__crt_internal_free_policy>(__crt_lc_time_data * const)
FUNC 47212 12 0 __crt_unique_heap_ptr<__crt_lc_time_data,__crt_internal_free_policy>::~__crt_unique_heap_ptr<__crt_lc_time_data,__crt_internal_free_policy>()
FUNC 47228 7 0 __crt_unique_heap_ptr<__crt_lc_time_data,__crt_internal_free_policy>::operator bool()
FUNC 4722f 6 0 __crt_unique_heap_ptr<__crt_lc_time_data,__crt_internal_free_policy>::detach()
FUNC 47235 38 0 free_crt_array_internal
FUNC 4727b 3 0 __crt_unique_heap_ptr<__crt_lc_time_data,__crt_internal_free_policy>::get()
FUNC 4727e 61 0 get_or_create_lc_time
FUNC 472f7 27c 0 initialize_lc_time
FUNC 47612 7 0 __crt_unique_heap_ptr<__crt_lc_time_data,__crt_internal_free_policy>::is_valid()
FUNC 47619 12 0 __crt_unique_heap_ptr<__crt_lc_time_data,__crt_internal_free_policy>::release()
FUNC 4762f e4 0 __acrt_locale_free_time
FUNC 4774c 7b 0 __acrt_locale_initialize_time
FUNC 477e5 72 0 common_tcscat_s<wchar_t>
FUNC 47873 75 0 wcscat_s
FUNC 47905 e7 0 common_tcsncat_s<wchar_t>
FUNC 47a25 b 0 wcsncat_s
FUNC 47a32 59 0 wcscspn
FUNC 47aa1 87 0 GetLocaleNameFromDefault
FUNC 47b49 99 0 GetLocaleNameFromLangCountry
FUNC 47c08 59 0 GetLocaleNameFromLanguage
FUNC 47c77 34 0 GetPrimaryLen
FUNC 47cb8 2e0 0 LangCountryEnumProcEx
FUNC 48050 bf 0 LanguageEnumProcEx
FUNC 4813e f6 0 ProcessCodePage
FUNC 48271 4d 0 TestDefaultCountry
FUNC 482d1 46 0 TestDefaultLanguage
FUNC 48328 6d 0 TranslateName
FUNC 483b0 1fb 0 __acrt_get_qualified_locale
FUNC 48629 a7 0 CountryEnumProc
FUNC 486f9 4b 0 GetLcidFromCountry
FUNC 48756 1e 0 GetLcidFromDefault
FUNC 4877b 9b 0 GetLcidFromLangCountry
FUNC 4883c 5f 0 GetLcidFromLanguage
FUNC 488b2 2c 0 GetPrimaryLen
FUNC 488e9 253 0 LangCountryEnumProc
FUNC 48bd0 d5 0 LanguageEnumProc
FUNC 48cda 51 0 LcidFromHexString
FUNC 48d3f e1 0 ProcessCodePage
FUNC 48e58 25 0 TestDefaultCountry
FUNC 48e86 6e 0 TestDefaultLanguage
FUNC 48f0f 61 0 TranslateName
FUNC 48f88 1f5 0 __acrt_get_qualified_locale_downlevel
FUNC 491fa 19 0 __acrt_GetStringTypeW
FUNC 49219 1c 0 __strncnt
FUNC 4923c 65 0 __acrt_CompareStringW
FUNC 492ba 4f 0 __ascii_wcsnicmp
FUNC 4931c 2b 0 _towlower_fast_internal
FUNC 49351 3f 0 _towlower_internal
FUNC 4939f 4c 0 _wcsnicmp
FUNC 493fe d3 0 _wcsnicmp_l
FUNC 49505 6d 0 _strnicmp
FUNC 4958d c9 0 _strnicmp_l
FUNC 49688 28b 0 InternalCompareStringA
FUNC 499b5 46 0 __acrt_CompareStringA
FUNC 49a0c 3 4 issue_debug_notification
FUNC 49a0f 20 0 should_write_error_to_console
FUNC 49a37 7b 0 write_string_to_console
FUNC 49ad0 115 0 __acrt_report_runtime_error
FUNC 49c2a 6 0 _query_app_type
FUNC 49c30 f 0 _set_app_type
FUNC 49c42 f2 0 common_lseek<long>
FUNC 49d70 10c 0 common_lseek<__int64>
FUNC 49ebf 57 0 common_lseek_nolock<long>
FUNC 49f2b 7c 0 common_lseek_nolock<__int64>
FUNC 49fc6 82 0 common_lseek_do_seek_nolock
FUNC 4a068 3d 0 common_lseek_do_seek_nolock
FUNC 4a0b4 b 0 _lseek
FUNC 4a0c1 b 0 _lseek_nolock
FUNC 4a0ce 1b 0 _lseeki64
FUNC 4a0ef 1b 0 _lseeki64_nolock
FUNC 4a110 68 0 __crt_seh_guarded_call<unsigned short>::operator()<<lambda_f828341fbe69b7c0d4c527b01f22877f>,<lambda_9e0b6ab72a5b3ae37ad997d08b519f50> &,<lambda_f01deac0a8d65d6e0411edf7e0af5775> >
FUNC 4a192 26 0 __acrt_lock_and_call<<lambda_9e0b6ab72a5b3ae37ad997d08b519f50> >
FUNC 4a1c1 10 0 <lambda_9e0b6ab72a5b3ae37ad997d08b519f50>::<lambda_9e0b6ab72a5b3ae37ad997d08b519f50>
FUNC 4a1d5 12 0 <lambda_f01deac0a8d65d6e0411edf7e0af5775>::<lambda_f01deac0a8d65d6e0411edf7e0af5775>
FUNC 4a1eb 12 0 <lambda_f828341fbe69b7c0d4c527b01f22877f>::<lambda_f828341fbe69b7c0d4c527b01f22877f>
FUNC 4a201 d 0 <lambda_9e0b6ab72a5b3ae37ad997d08b519f50>::operator()
FUNC 4a211 9 0 <lambda_f01deac0a8d65d6e0411edf7e0af5775>::operator()
FUNC 4a21c 9 0 <lambda_f828341fbe69b7c0d4c527b01f22877f>::operator()
FUNC 4a227 2d 0 _putwch
FUNC 4a25f 32 0 _putwch_nolock
FUNC 4a29d 161 0 translate_text_mode_nolock<char>
FUNC 4a456 1d1 0 translate_text_mode_nolock<wchar_t>
FUNC 4a69b 23 0 store_lookahead
FUNC 4a6c6 41 0 store_lookahead
FUNC 4a717 157 0 translate_ansi_or_utf8_nolock
FUNC 4a8c3 7b 0 translate_utf16_from_console_nolock
FUNC 4a95c 114 0 _read
FUNC 4aab5 3b0 0 _read_nolock
FUNC 4af51 77 0 _fclose_nolock
FUNC 4afe5 84 0 fclose
FUNC 4b08a 1a7 0 __crt_mbstring::__mbrtoc32_utf8(char32_t *,char const *,unsigned int,_Mbstatet *)
FUNC 4b29a b 0 mbrtoc32
FUNC 4b2a7 df 0 InternalGetLocaleInfoA
FUNC 4b3bd 1b0 0 __acrt_GetLocaleInfoA
FUNC 4b5d9 1d 0 fegetenv
FUNC 4b5fd 4b 0 fesetenv
FUNC 4b65a 4d 0 feholdexcept
FUNC 4b6c0 3b 0 _CIlog10
FUNC 4b6fb d5 0 _CIlog10_default
PUBLIC 4b70f 0 _log10_default
FUNC 4b820 40 0 ceil
FUNC 4b860 dd 0 _ceil_pentium4
FUNC 4b984 59 0 __acrt_stdio_allocate_buffer_nolock
FUNC 4b9f3 a0 0 common_xtox<unsigned long,char>
FUNC 4babb b3 0 common_xtox<unsigned long,wchar_t>
FUNC 4bb9a c7 0 common_xtox<unsigned __int64,char>
FUNC 4bc92 dc 0 common_xtox<unsigned __int64,wchar_t>
FUNC 4bda5 70 0 common_xtox_s<unsigned long,char>
FUNC 4be31 72 0 common_xtox_s<unsigned long,wchar_t>
FUNC 4bebf 73 0 common_xtox_s<unsigned __int64,char>
FUNC 4bf4e 75 0 common_xtox_s<unsigned __int64,wchar_t>
FUNC 4bfe0 41 0 _i64toa
FUNC 4c031 3f 0 _i64toa_s
FUNC 4c07f 41 0 _i64tow
FUNC 4c0d0 3f 0 _i64tow_s
FUNC 4c11e 35 0 _itoa
FUNC 4c160 33 0 _itoa_s
FUNC 4c19f 35 0 _itow
FUNC 4c1e1 33 0 _itow_s
FUNC 4c220 35 0 _ltoa
FUNC 4c262 33 0 _ltoa_s
FUNC 4c2a1 35 0 _ltow
FUNC 4c2e3 33 0 _ltow_s
FUNC 4c322 22 0 _ui64toa
FUNC 4c34c 20 0 _ui64toa_s
FUNC 4c374 22 0 _ui64tow
FUNC 4c39e 20 0 _ui64tow_s
FUNC 4c3c6 1f 0 _ultoa
FUNC 4c3ec 1d 0 _ultoa_s
FUNC 4c410 1f 0 _ultow
FUNC 4c436 1d 0 _ultow_s
FUNC 4c45a 3d 0 __ascii_wcsicmp
FUNC 4c4a6 49 0 _wcsicmp
FUNC 4c501 b8 0 _wcsicmp_l
FUNC 4c5e7 a2 0 _towlower_l
FUNC 4c6b1 13 0 towlower
FUNC 4c6d0 61 0 __ascii_strnicmp
FUNC 4c749 3f 0 _set_error_mode
FUNC 4c797 7d 0 common_show_message_box<char>
FUNC 4c833 7e 0 common_show_message_box<wchar_t>
FUNC 4c8d0 20 0 __crt_char_traits<char>::message_box<std::nullptr_t,char const * const &,char const * const &,unsigned long>(std::nullptr_t &&,char const * const &,char const * const &,unsigned long &&)
FUNC 4c8f8 20 0 __crt_char_traits<wchar_t>::message_box<std::nullptr_t,wchar_t const * const &,wchar_t const * const &,unsigned long>(std::nullptr_t &&,wchar_t const * const &,wchar_t const * const &,unsigned long &&)
FUNC 4c920 20 0 __crt_char_traits<char>::message_box<HWND__ *,char const * const &,char const * const &,unsigned int const &>(HWND__ * &&,char const * const &,char const * const &,unsigned int const &)
FUNC 4c948 20 0 __crt_char_traits<wchar_t>::message_box<HWND__ *,wchar_t const * const &,wchar_t const * const &,unsigned int const &>(HWND__ * &&,wchar_t const * const &,wchar_t const * const &,unsigned int const &)
FUNC 4c970 11 0 __crt_char_traits<char>::output_debug_string<char const * const &>(char const * const &)
FUNC 4c985 12 0 __crt_char_traits<wchar_t>::output_debug_string<wchar_t const * const &>(wchar_t const * const &)
FUNC 4c99b b 0 __acrt_show_narrow_message_box
FUNC 4c9a8 b 0 __acrt_show_wide_message_box
FUNC 4c9b5 58 0 console_output_reopen_and_retry<<lambda_61c1b8a38cedca4df5fdc542e6ccae6d> >
FUNC 4ca23 22 0 <lambda_61c1b8a38cedca4df5fdc542e6ccae6d>::<lambda_61c1b8a38cedca4df5fdc542e6ccae6d>
FUNC 4ca4d 17 0 <lambda_61c1b8a38cedca4df5fdc542e6ccae6d>::operator()
FUNC 4ca69 1f 0 __dcrt_lowio_initialize_console_output
FUNC 4ca8f 1f 0 __dcrt_lowio_ensure_console_output_initialized
FUNC 4cab5 17 0 __dcrt_terminate_console_output
FUNC 4cad1 55 0 __dcrt_write_console
FUNC 4cb3b 8c 0 __crt_seh_guarded_call<int>::operator()<<lambda_218ce3db14220d0be481dae8ef3383b6>,<lambda_628dfdc04ba53c8bfc02c9951375f3f5> &,<lambda_57dc472bd5c9d5f3b2cbca59b8a843ae> >
FUNC 4cbea 26 0 __acrt_lowio_lock_fh_and_call<<lambda_628dfdc04ba53c8bfc02c9951375f3f5> >
FUNC 4cc19 12 0 <lambda_218ce3db14220d0be481dae8ef3383b6>::<lambda_218ce3db14220d0be481dae8ef3383b6>
FUNC 4cc2f 12 0 <lambda_57dc472bd5c9d5f3b2cbca59b8a843ae>::<lambda_57dc472bd5c9d5f3b2cbca59b8a843ae>
FUNC 4cc45 10 0 <lambda_628dfdc04ba53c8bfc02c9951375f3f5>::<lambda_628dfdc04ba53c8bfc02c9951375f3f5>
FUNC 4cc59 9 0 <lambda_218ce3db14220d0be481dae8ef3383b6>::operator()
FUNC 4cc64 9 0 <lambda_57dc472bd5c9d5f3b2cbca59b8a843ae>::operator()
FUNC 4cc6f 39 0 <lambda_628dfdc04ba53c8bfc02c9951375f3f5>::operator()
FUNC 4ccb6 6a 0 close_os_handle_nolock
FUNC 4cd3a 8d 0 _close
FUNC 4cdea 9c 0 _close_nolock
FUNC 4cead 12 0 __crt_internal_free_policy::operator()<__crt_stdio_stream_data>(__crt_stdio_stream_data const * const)
FUNC 4cec3 10 0 __crt_unique_heap_ptr<__crt_stdio_stream_data,__crt_internal_free_policy>::__crt_unique_heap_ptr<__crt_stdio_stream_data,__crt_internal_free_policy>(__crt_stdio_stream_data * const)
FUNC 4ced7 6 0 __crt_stdio_stream::__crt_stdio_stream()
FUNC 4cedd 12 0 __crt_unique_heap_ptr<__crt_stdio_stream_data,__crt_internal_free_policy>::~__crt_unique_heap_ptr<__crt_stdio_stream_data,__crt_internal_free_policy>()
FUNC 4cef3 69 0 __acrt_stdio_allocate_stream()
FUNC 4cf76 3b 0 __acrt_stdio_free_stream(__crt_stdio_stream)
FUNC 4cfbf a 0 __crt_stdio_stream::deallocate()
FUNC 4cfcb 6 0 __crt_unique_heap_ptr<__crt_stdio_stream_data,__crt_internal_free_policy>::detach()
FUNC 4cfd1 c2 0 find_or_allocate_unused_stream_nolock
FUNC 4d0c3 9 0 __crt_stdio_stream::lock()
FUNC 4d0ce 12 0 __crt_unique_heap_ptr<__crt_stdio_stream_data,__crt_internal_free_policy>::release()
FUNC 4d0e4 20 0 __crt_stdio_stream::try_allocate()
FUNC 4d10c 9 0 __crt_stdio_stream::unlock()
FUNC 4d117 12 0 __acrt_fenv_shift_bits<__acrt_fenv_abstract_control>(__acrt_fenv_abstract_control,__acrt_fenv_abstract_control,unsigned int)
FUNC 4d12d 12 0 __acrt_fenv_shift_bits<__acrt_fenv_abstract_status>(__acrt_fenv_abstract_status,__acrt_fenv_abstract_status,unsigned int)
FUNC 4d143 18 0 __acrt_fenv_translate_bit<__acrt_fenv_abstract_control,__acrt_fenv_machine_sse_control>(__acrt_fenv_machine_sse_control,__acrt_fenv_machine_sse_control,__acrt_fenv_abstract_control,__acrt_fenv_abstract_control)
FUNC 4d161 18 0 __acrt_fenv_translate_bit<__acrt_fenv_abstract_control,__acrt_fenv_machine_x87_control>(__acrt_fenv_machine_x87_control,__acrt_fenv_machine_x87_control,__acrt_fenv_abstract_control,__acrt_fenv_abstract_control)
FUNC 4d17f 15 0 __acrt_fenv_translate_bit<__acrt_fenv_abstract_status,__acrt_fenv_machine_sse_status>(__acrt_fenv_machine_sse_status,__acrt_fenv_machine_sse_status,__acrt_fenv_abstract_status,__acrt_fenv_abstract_status)
FUNC 4d199 15 0 __acrt_fenv_translate_bit<__acrt_fenv_abstract_status,__acrt_fenv_machine_x87_status>(__acrt_fenv_machine_x87_status,__acrt_fenv_machine_x87_status,__acrt_fenv_abstract_status,__acrt_fenv_abstract_status)
FUNC 4d1b3 17 0 __acrt_fenv_translate_bit<__acrt_fenv_machine_sse_control,__acrt_fenv_abstract_control>(__acrt_fenv_abstract_control,__acrt_fenv_abstract_control,__acrt_fenv_machine_sse_control,__acrt_fenv_machine_sse_control)
FUNC 4d1cf 15 0 __acrt_fenv_translate_bit<__acrt_fenv_machine_sse_status,__acrt_fenv_abstract_status>(__acrt_fenv_abstract_status,__acrt_fenv_abstract_status,__acrt_fenv_machine_sse_status,__acrt_fenv_machine_sse_status)
FUNC 4d1e9 17 0 __acrt_fenv_translate_bit<__acrt_fenv_machine_x87_control,__acrt_fenv_abstract_control>(__acrt_fenv_abstract_control,__acrt_fenv_abstract_control,__acrt_fenv_machine_x87_control,__acrt_fenv_machine_x87_control)
FUNC 4d205 15 0 __acrt_fenv_translate_bit<__acrt_fenv_machine_x87_status,__acrt_fenv_abstract_status>(__acrt_fenv_abstract_status,__acrt_fenv_abstract_status,__acrt_fenv_machine_x87_status,__acrt_fenv_machine_x87_status)
FUNC 4d21f 12 0 __acrt_fenv_unshift_bits<__acrt_fenv_abstract_control>(__acrt_fenv_abstract_control,__acrt_fenv_abstract_control,unsigned int)
FUNC 4d235 12 0 __acrt_fenv_unshift_bits<__acrt_fenv_abstract_status>(__acrt_fenv_abstract_status,__acrt_fenv_abstract_status,unsigned int)
FUNC 4d24b 4e 0 to_abstract_status<enum __acrt_fenv_machine_sse_status>
FUNC 4d2ac 4e 0 to_abstract_status<enum __acrt_fenv_machine_x87_status>
FUNC 4d30d 51 0 translate_control_exception_mask<enum __acrt_fenv_abstract_control,enum __acrt_fenv_machine_sse_control>
FUNC 4d372 4e 0 translate_control_exception_mask<enum __acrt_fenv_abstract_control,enum __acrt_fenv_machine_x87_control>
FUNC 4d3d3 60 0 translate_control_exception_mask<enum __acrt_fenv_machine_sse_control,enum __acrt_fenv_abstract_control>
FUNC 4d44b 54 0 translate_control_exception_mask<enum __acrt_fenv_machine_x87_control,enum __acrt_fenv_abstract_control>
FUNC 4d4b4 13 0 translate_control_infinity_control<enum __acrt_fenv_abstract_control,enum __acrt_fenv_machine_x87_control>
FUNC 4d4cb 19 0 translate_control_infinity_control<enum __acrt_fenv_machine_x87_control,enum __acrt_fenv_abstract_control>
FUNC 4d4ea 28 0 translate_control_precision_control<enum __acrt_fenv_abstract_control,enum __acrt_fenv_machine_x87_control>
FUNC 4d51c 28 0 translate_control_precision_control<enum __acrt_fenv_machine_x87_control,enum __acrt_fenv_abstract_control>
FUNC 4d54e 3c 0 translate_control_rounding_control<enum __acrt_fenv_abstract_control,enum __acrt_fenv_machine_sse_control>
FUNC 4d599 3c 0 translate_control_rounding_control<enum __acrt_fenv_abstract_control,enum __acrt_fenv_machine_x87_control>
FUNC 4d5e4 3c 0 translate_control_rounding_control<enum __acrt_fenv_machine_sse_control,enum __acrt_fenv_abstract_control>
FUNC 4d62f 3c 0 translate_control_rounding_control<enum __acrt_fenv_machine_x87_control,enum __acrt_fenv_abstract_control>
FUNC 4d67a 4e 0 translate_status<enum __acrt_fenv_abstract_status,enum __acrt_fenv_machine_sse_status>
FUNC 4d6db 4e 0 translate_status<enum __acrt_fenv_abstract_status,enum __acrt_fenv_machine_x87_status>
FUNC 4d73c 4e 0 translate_status<enum __acrt_fenv_machine_sse_status,enum __acrt_fenv_abstract_status>
FUNC 4d79d 4e 0 translate_status<enum __acrt_fenv_machine_x87_status,enum __acrt_fenv_abstract_status>
FUNC 4d7fe d 0 operator&(__acrt_fenv_abstract_control,__acrt_fenv_abstract_control)
FUNC 4d80e d 0 operator&(__acrt_fenv_abstract_status,__acrt_fenv_abstract_status)
FUNC 4d81e d 0 operator&(__acrt_fenv_machine_sse_control,__acrt_fenv_machine_sse_control)
FUNC 4d82e d 0 operator&(__acrt_fenv_machine_sse_status,__acrt_fenv_machine_sse_status)
FUNC 4d83e d 0 operator&(__acrt_fenv_machine_x87_control,__acrt_fenv_machine_x87_control)
FUNC 4d84e d 0 operator&(__acrt_fenv_machine_x87_status,__acrt_fenv_machine_x87_status)
FUNC 4d85e d 0 operator|(__acrt_fenv_abstract_control,__acrt_fenv_abstract_control)
FUNC 4d86e d 0 operator|(__acrt_fenv_abstract_status,__acrt_fenv_abstract_status)
FUNC 4d87e d 0 operator|(__acrt_fenv_machine_sse_control,__acrt_fenv_machine_sse_control)
FUNC 4d88e d 0 operator|(__acrt_fenv_machine_x87_control,__acrt_fenv_machine_x87_control)
FUNC 4d89e f 0 operator|=(__acrt_fenv_abstract_control &,__acrt_fenv_abstract_control)
FUNC 4d8b0 f 0 operator|=(__acrt_fenv_abstract_status &,__acrt_fenv_abstract_status)
FUNC 4d8c2 11 0 operator|=(__acrt_fenv_machine_sse_control &,__acrt_fenv_machine_sse_control)
FUNC 4d8d7 f 0 operator|=(__acrt_fenv_machine_sse_status &,__acrt_fenv_machine_sse_status)
FUNC 4d8e9 11 0 operator|=(__acrt_fenv_machine_x87_control &,__acrt_fenv_machine_x87_control)
FUNC 4d8fe f 0 operator|=(__acrt_fenv_machine_x87_status &,__acrt_fenv_machine_x87_status)
FUNC 4d910 1d 0 __acrt_fenv_shift_abstract_sse_control(__acrt_fenv_abstract_control)
FUNC 4d934 10 0 __acrt_fenv_shift_abstract_sse_status(__acrt_fenv_abstract_status)
FUNC 4d948 1d 0 __acrt_fenv_shift_abstract_x87_control(__acrt_fenv_abstract_control)
FUNC 4d96c 10 0 __acrt_fenv_shift_abstract_x87_status(__acrt_fenv_abstract_status)
FUNC 4d980 1f 0 __acrt_fenv_unshift_abstract_sse_control(__acrt_fenv_abstract_control)
FUNC 4d9a6 10 0 __acrt_fenv_unshift_abstract_sse_status(__acrt_fenv_abstract_status)
FUNC 4d9ba 1f 0 __acrt_fenv_unshift_abstract_x87_control(__acrt_fenv_abstract_control)
FUNC 4d9e0 10 0 __acrt_fenv_unshift_abstract_x87_status(__acrt_fenv_abstract_status)
FUNC 4d9f4 21 0 get_machine_sse_control
FUNC 4da1d 1f 0 get_machine_sse_status
FUNC 4da43 24 0 get_machine_x87_control
FUNC 4da70 18 0 get_machine_x87_status
FUNC 4da8e 2f 0 set_machine_sse_control
FUNC 4dac8 2a 0 set_machine_sse_status
FUNC 4dafc 2e 0 set_machine_x87_control
FUNC 4db35 2c 0 set_machine_x87_status
FUNC 4db6c bc 0 to_abstract_control
FUNC 4dc57 b9 0 to_abstract_control
FUNC 4dd3e cd 0 to_machine_sse_control
FUNC 4de3e 50 0 to_machine_sse_status
FUNC 4dea2 cb 0 to_machine_x87_control
FUNC 4df9f 50 0 to_machine_x87_status
FUNC 4e003 3b 0 translate_control_denormal_control_from_sse
FUNC 4e04c 38 0 translate_control_denormal_control_to_sse
FUNC 4e092 36 0 __acrt_fenv_expand_round_control
FUNC 4e0d5 22 0 __acrt_fenv_get_common_round_control
FUNC 4e0ff 80 0 __acrt_fenv_get_control
FUNC 4e19f 1a 0 __acrt_fenv_get_fp_status_word_from_exception_mask
FUNC 4e1bf b8 0 __acrt_fenv_get_status
FUNC 4e2a5 68 0 __acrt_fenv_set_control
FUNC 4e327 f7 0 __acrt_fenv_set_status
FUNC 4e45b aa 0 __abstract_cw_sse2
FUNC 4e52f 43 0 __abstract_sw_sse2
FUNC 4e582 56 0 __clearfp_sse2
FUNC 4e5ed 318 0 __control87_2
FUNC 4e9cb 180 0 __control87_sse2
FUNC 4ebab c 0 __fpreset_sse2
FUNC 4ebba a7 0 __hw_cw_sse2
FUNC 4ec8a 41 0 __statusfp_sse2
FUNC 4ecdb 9f 0 _abstract_cw
FUNC 4eda1 43 0 _abstract_sw
FUNC 4edf4 de 0 _clearfp
FUNC 4ef09 301 0 _control87
FUNC 4f2ca 1a 0 _controlfp
FUNC 4f2ea 32 0 _fpreset
FUNC 4f328 9e 0 _hw_cw
FUNC 4f3ed 73 0 _set_controlfp
FUNC 4f47c 9b 0 _statusfp
FUNC 4f53d 63 0 _statusfp2
FUNC 4f5b8 10 0 __acrt_initialize_sse2
FUNC 4f5cc 21 0 _set_SSE2_enable
FUNC 4f600 284 0 _CIlog10_pentium4
PUBLIC 4f618 0 _log10_pentium4
FUNC 4f960 d 0 _fFEXP
PUBLIC 4f9b7 0 _rtinfpopse
PUBLIC 4f9b9 0 _rtinfnpopse
PUBLIC 4f9c9 0 _fFLN
PUBLIC 4fa7e 0 _rtinfpop
PUBLIC 4fa80 0 _rtinfnpop
FUNC 4fa90 d 0 _rtforexpinf
PUBLIC 4fa9d 0 _ffexpm1
FUNC 4fbd0 75 0 _trandisp1
FUNC 4fc45 9a 0 _trandisp2
PUBLIC 4fcdf 0 _rttospopde
PUBLIC 4fce4 0 _rttospop
FUNC 4fcf0 2 0 _rtnospop
FUNC 4fd00 1 0 _rttosnpop
PUBLIC 4fd01 0 _rtnospopde
PUBLIC 4fd08 0 _rtzeropop
PUBLIC 4fd0a 0 _rtzeronpop
FUNC 4fd10 c 0 _rtzerospop
PUBLIC 4fd1d 0 _rtonepop
FUNC 4fd20 5 0 _rtonenpop
FUNC 4fd30 1d 0 _tosnan1
FUNC 4fd60 2 0 _nosnan2
FUNC 4fd70 28 0 _tosnan2
FUNC 4fda0 3f 0 _nan2
FUNC 4fde0 2 0 _rtindfpop
PUBLIC 4fde2 0 _rtindfnpop
PUBLIC 4fdf3 0 _rttosnpopde
FUNC 4fe00 1d 0 _rtatan2inf
PUBLIC 4fe1d 0 _rtchsifneg
FUNC 4feb9 15 0 __setfflag
FUNC 4fee0 15 0 _twoToTOS
FUNC 4fef5 17 0 _load_CW
FUNC 4ff0c 19 0 _convertTOStoQNaN
FUNC 4ff25 43 0 _fload_withFB
FUNC 4ff68 16 0 _checkTOS_withFB
FUNC 4ff7e d 0 _fast_exit
FUNC 4ff8b 2a 0 _math_exit
FUNC 4ffb5 14 0 _check_overflow_exit
FUNC 4ffc9 a3 0 _check_range_exit
FUNC 500d0 17 0 _startTwoArgErrorHandling
FUNC 500e7 3c 0 _startOneArgErrorHandling
FUNC 50137 1f4 0 __libm_error_support
FUNC 503a8 27 0 __libm_setusermatherr
FUNC 503d8 b5 0 _ceil_default
FUNC 504ba 3e 0 __acrt_LCMapStringW
FUNC 50507 6f 4 __acrt_OutputDebugStringA
FUNC 50591 5f 0 _controlfp_s
FUNC 50607 21 0 __clrfp_sse2
FUNC 50630 3b 0 __ctrlfp_sse2
FUNC 50679 1d 0 __fclrf_sse2
FUNC 5069d 1c 0 __get_fpsr_sse2
FUNC 506c0 80 0 __set_fpsr_sse2
FUNC 50760 1b 0 __set_statfp_sse2
FUNC 50781 15 0 __statfp_sse2
FUNC 5079b 11 0 _clrfp
FUNC 507b0 2a 0 _ctrlfp
FUNC 507e4 59 0 _set_statfp
FUNC 50853 10 0 _statfp
FUNC 50867 68 0 _d_inttype
FUNC 508e9 12b 0 _powhlp
FUNC 50a5e 10a 0 _87except
FUNC 50baa 14 0 _frnd
FUNC 50bc3 34 0 _errcode
FUNC 50c04 ce 0 _except1
FUNC 50d05 e2 0 _except2
FUNC 50e1f 26 0 _get_fname
FUNC 50e4e 1eb 0 _handle_exc
FUNC 510b3 d 0 _handle_qnan2
FUNC 510c3 23 0 _raise_exc
FUNC 510ee 2f6 0 _raise_exc_ex
FUNC 514a1 23 0 _raise_excf
FUNC 514cc 2f 0 _set_errno_from_matherr
FUNC 51506 a0 0 _umatherr
FUNC 515ce 2f 0 _add_exp
FUNC 51608 d2 0 _decomp
FUNC 5170e 18 0 _get_exp
FUNC 5172c 27 0 _set_bexp
FUNC 5175c 2d 0 _set_exp
FUNC 51794 5e 0 _sptype
FUNC 51809 1a3 0 _mbstowcs_l_helper
FUNC 51a14 b 0 _mbstowcs_l
FUNC 51a21 e0 0 _mbstowcs_s_l
FUNC 51b39 2a 0 mbstowcs
FUNC 51b6d 20 0 mbstowcs_s
FUNC 51b95 28 0 _chgsign
FUNC 51bc7 21 0 _chgsignf
FUNC 51bf0 23 0 _copysign
FUNC 51c1b 1c 0 _copysignf
FUNC 51c3e 1a 0 _finite
FUNC 51c5e a4 0 _fpclass
FUNC 51d2b 36 0 _isnan
FUNC 51d6e cf 0 _logb
FUNC 51e70 1f 0 _nextafter
FUNC 51e96 1a 0 _scalb
FUNC 51eb6 1f2 0 ldexp
FUNC 52124 1f 0 nextafter
FUNC 5214a 159 0 nexttoward
FUNC 522f9 78 0 fperrraise_with
FUNC 5238f 106 0 _d_int
FUNC 524d6 64 0 _dtest
FUNC 52553 cd 0 _fd_int
FUNC 52653 4e 0 _fdtest
FUNC 526b4 21 0 _fperrraise
FUNC 526dd b 0 _ld_int
FUNC 526ea b 0 _ldtest
FUNC 526f7 f 0 operator&=(__acrt_fenv_abstract_status &,__acrt_fenv_abstract_status)
FUNC 52709 31 0 fegetexceptflag
FUNC 52746 c 0 operator~(__acrt_fenv_abstract_status)
FUNC 52755 59 0 fesetexceptflag
FUNC 527c4 20 0 fetestexcept
FUNC 527f0 43 0 _FindPESection
FUNC 52850 ba 0 _IsNonwritableInCurrentImage
FUNC 52940 33 0 _ValidateImageBase
FUNC 5297f 15 0 _EH_epilog3
FUNC 52999 11 0 _EH_epilog3_GS
FUNC 529ae 11 0 _EH_epilog3_catch_GS
FUNC 529c3 34 4 _EH_prolog3
FUNC 52a04 37 4 _EH_prolog3_GS
FUNC 52a48 37 4 _EH_prolog3_catch
FUNC 52a8c 3a 4 _EH_prolog3_catch_GS
FUNC 52ae0 95 0 _aulldvrm
FUNC 52b9a 7 0 type_info::~type_info()
FUNC 52ba1 23 0 type_info::`scalar deleting destructor'(unsigned int)
FUNC 52bd0 34 0 _allmul
FUNC 52c20 df 0 _alldvrm
FUNC 52d40 1f 0 _aullshr
FUNC 52d70 2c 0 _alloca_probe_16
PUBLIC 52d86 0 _alloca_probe_8
FUNC 52db0 2d 0 _chkstk
FUNC 52df0 1f 0 _allshl
FUNC 52e20 9 0 _ftol2_sse
FUNC 52e29 13 0 _ftol2_pentium4
FUNC 52e3c 1a 0 _ftol2_sse_excpt
FUNC 52e60 75 0 _ftol2
FUNC 52f02 21 0 _initialize_default_precision
PUBLIC 52f2b 8 InterlockedPushEntrySList
PUBLIC 52f31 4 InterlockedFlushSList
PUBLIC 52f37 10 RtlUnwind
PUBLIC 52f3d 0 GetLastError
PUBLIC 52f43 4 SetLastError
PUBLIC 52f49 4 EnterCriticalSection
PUBLIC 52f4f 4 LeaveCriticalSection
PUBLIC 52f55 4 DeleteCriticalSection
PUBLIC 52f5b 8 InitializeCriticalSectionAndSpinCount
PUBLIC 52f61 0 TlsAlloc
PUBLIC 52f67 4 TlsGetValue
PUBLIC 52f6d 8 TlsSetValue
PUBLIC 52f73 4 TlsFree
PUBLIC 52f79 4 FreeLibrary
PUBLIC 52f7f 8 GetProcAddress
PUBLIC 52f85 c LoadLibraryExW
PUBLIC 52f8b 4 EncodePointer
PUBLIC 52f91 10 RaiseException
PUBLIC 52f97 4 ExitProcess
PUBLIC 52f9d c GetModuleHandleExW
PUBLIC 52fa3 c GetModuleFileNameW
PUBLIC 52fa9 0 GetCurrentThread
PUBLIC 52faf c HeapFree
PUBLIC 52fb5 c HeapAlloc
PUBLIC 52fbb 4 FindClose
PUBLIC 52fc1 18 FindFirstFileExW
PUBLIC 52fc7 8 FindNextFileW
PUBLIC 52fcd 4 IsValidCodePage
PUBLIC 52fd3 0 GetACP
PUBLIC 52fd9 0 GetOEMCP
PUBLIC 52fdf 8 GetCPInfo
PUBLIC 52fe5 0 GetCommandLineA
PUBLIC 52feb 0 GetCommandLineW
PUBLIC 52ff1 18 MultiByteToWideChar
PUBLIC 52ff7 20 WideCharToMultiByte
PUBLIC 52ffd 0 GetEnvironmentStringsW
PUBLIC 53003 4 FreeEnvironmentStringsW
PUBLIC 53009 8 SetEnvironmentVariableW
PUBLIC 5300f 18 GetDateFormatW
PUBLIC 53015 18 GetTimeFormatW
PUBLIC 5301b 18 CompareStringW
PUBLIC 53021 18 LCMapStringW
PUBLIC 53027 10 GetLocaleInfoW
PUBLIC 5302d 8 IsValidLocale
PUBLIC 53033 0 GetUserDefaultLCID
PUBLIC 53039 8 EnumSystemLocalesW
PUBLIC 5303f 0 GetProcessHeap
PUBLIC 53045 4 GetStdHandle
PUBLIC 5304b 4 GetFileType
PUBLIC 53051 8 SetConsoleCtrlHandler
PUBLIC 53057 10 GetStringTypeW
PUBLIC 5305d c HeapSize
PUBLIC 53063 10 HeapReAlloc
PUBLIC 53069 8 SetStdHandle
PUBLIC 5306f 4 FlushFileBuffers
PUBLIC 53075 14 WriteFile
PUBLIC 5307b 0 GetConsoleCP
PUBLIC 53081 8 GetConsoleMode
PUBLIC 53087 8 GetFileSizeEx
PUBLIC 5308d 14 SetFilePointerEx
PUBLIC 53093 14 ReadFile
PUBLIC 53099 14 ReadConsoleW
PUBLIC 5309f 4 OutputDebugStringW
PUBLIC 530a5 1c CreateFileW
PUBLIC 530ab 4 CloseHandle
PUBLIC 530b1 14 WriteConsoleW
PUBLIC 530b7 4 DecodePointer
FUNC 530c0 12b 0 strchr
PUBLIC 5312e 0 __from_strstr_to_strchr
FUNC 53235 c7 0 wcschr
FUNC 53330 137 0 strrchr
FUNC 534b4 25 0 cmpBYTE
FUNC 534e2 65 0 cmpDWORD
FUNC 53560 1c 0 cmpResult
FUNC 53583 4f 0 cmpWORD
FUNC 535e5 fa4 0 memcmp
FUNC 54972 de0 0 unaligned_memcmp
STACK WIN 4 6b20 b 0 0 4 0 0 0 1 $T0 .raSearch = $eip $T0 ^ = $esp $T0 4 + = 
STACK WIN 4 6b30 1 0 0 8 0 0 0 1 $T0 .raSearch = $eip $T0 ^ = $esp $T0 4 + = 
STACK WIN 4 6b40 1 0 0 c 0 0 0 1 $T0 .raSearch = $eip $T0 ^ = $esp $T0 4 + = 
STACK WIN 4 6b50 1 0 0 10 0 0 0 1 $T0 .raSearch = $eip $T0 ^ = $esp $T0 4 + = 
STACK WIN 4 6b60 41 1 0 28 0 0 0 1 $T0 .raSearch = $eip $T0 ^ = $esp $T0 4 + = 
STACK WIN 4 6b61 40 0 0 28 4 0 0 1 $T0 .raSearch = $eip $T0 ^ = $esp $T0 4 + = $esi $T0 4 - ^ = 
STACK WIN 4 6bc0 1 0 0 c 0 0 0 1 $T0 .raSearch = $eip $T0 ^ = $esp $T0 4 + = 
STACK WIN 4 6bd0 3 0 0 4 0 0 0 1 $T0 .raSearch = $eip $T0 ^ = $esp $T0 4 + = 
STACK WIN 4 6be0 3 0 0 4 0 0 0 1 $T0 .raSearch = $eip $T0 ^ = $esp $T0 4 + = 
STACK WIN 4 6bf0 3 0 0 4 0 0 0 1 $T0 .raSearch = $eip $T0 ^ = $esp $T0 4 + = 
STACK WIN 4 6c00 3 0 0 4 0 0 0 1 $T0 .raSearch = $eip $T0 ^ = $esp $T0 4 + = 
STACK WIN 4 6c10 3 0 0 10 0 0 0 1 $T0 .raSearch = $eip $T0 ^ = $esp $T0 4 + = 
STACK WIN 4 6c20 3 0 0 0 0 0 0 1 $T0 .raSearch = $eip $T0 ^ = $esp $T0 4 + = 
STACK WIN 4 6c30 5 0 0 4 0 0 0 1 $T0 .raSearch = $eip $T0 ^ = $esp $T0 4 + = 
STACK WIN 4 6c40 1 0 0 0 0 0 0 1 $T0 .raSearch = $eip $T0 ^ = $esp $T0 4 + = 
STACK WIN 4 6c50 3 0 0 4 0 0 0 1 $T0 .raSearch = $eip $T0 ^ = $esp $T0 4 + = 
STACK WIN 4 6c60 3 0 0 8 0 0 0 1 $T0 .raSearch = $eip $T0 ^ = $esp $T0 4 + = 
STACK WIN 4 6c70 3 0 0 8 0 0 0 1 $T0 .raSearch = $eip $T0 ^ = $esp $T0 4 + = 
STACK WIN 4 6c80 3 0 0 4 0 0 0 1 $T0 .raSearch = $eip $T0 ^ = $esp $T0 4 + = 
STACK WIN 4 6c90 5 0 0 8 0 0 0 1 $T0 .raSearch = $eip $T0 ^ = $esp $T0 4 + = 
STACK WIN 4 6ca0 1 0 0 8 0 0 0 1 $T0 .raSearch = $eip $T0 ^ = $esp $T0 4 + = 
STACK WIN 4 6cb0 7 0 0 c 0 0 0 1 $T0 .raSearch = $eip $T0 ^ = $esp $T0 4 + = 
STACK WIN 4 93d0 e 3 0 8 0 0 0 1 $T0 $ebp = $eip $T0 4 + ^ = $ebp $T0 ^ = $esp $T0 8 + = 
STACK WIN 4 93e1 53 3 0 c 0 0 0 1 $T0 $ebp = $eip $T0 4 + ^ = $ebp $T0 ^ = $esp $T0 8 + = 
STACK WIN 4 9448 10a c 0 8 10 20 0 1 $T0 $ebp = $eip $T0 4 + ^ = $ebp $T0 ^ = $esp $T0 8 + =  $20 $T0 36 - ^ =  $23 $T0 40 - ^ =  $24 $T0 44 - ^ = 
STACK WIN 4 953d c 0 0 8 10 20 0 1 $T0 $ebp = $T2 $esp = $T1 .raSearchStart = $eip $T1 ^ = $ebp $T0 = $esp $T1 4 + = 
STACK WIN 4 9594 92 c 0 4 10 1c 0 1 $T0 $ebp = $eip $T0 4 + ^ = $ebp $T0 ^ = $esp $T0 8 + =  $20 $T0 32 - ^ =  $23 $T0 36 - ^ =  $24 $T0 40 - ^ = 
STACK WIN 4 960f e 0 0 4 10 1c 0 1 $T0 $ebp = $T2 $esp = $T1 .raSearchStart = $eip $T1 ^ = $ebp $T0 = $esp $T1 4 + = 
STACK WIN 4 964a 106 c 0 c 10 1c 0 1 $T0 $ebp = $eip $T0 4 + ^ = $ebp $T0 ^ = $esp $T0 8 + =  $20 $T0 32 - ^ =  $23 $T0 36 - ^ =  $24 $T0 40 - ^ = 
STACK WIN 4 9710 1f 0 0 c 10 1c 0 1 $T0 $ebp = $T2 $esp = $T1 .raSearchStart = $eip $T1 ^ = $ebp $T0 = $esp $T1 4 + = 
STACK WIN 4 9791 2b 4 0 c 0 0 0 1 $T0 $ebp = $eip $T0 4 + ^ = $ebp $T0 ^ = $esp $T0 8 + = 
STACK WIN 4 9795 23 0 0 c 4 0 0 1 $T0 $ebp = $eip $T0 4 + ^ = $ebp $T0 ^ = $esp $T0 8 + =  $23 $T0 4 - ^ = 
STACK WIN 4 97c6 9 3 0 c 0 0 0 1 $T0 $ebp = $eip $T0 4 + ^ = $ebp $T0 ^ = $esp $T0 8 + = 
STACK WIN 4 97d1 23 3 0 c 0 0 0 1 $T0 $ebp = $eip $T0 4 + ^ = $ebp $T0 ^ = $esp $T0 8 + = 
STACK WIN 4 97fc 5 0 0 4 0 0 0 1 $T0 $ebp = $eip $T0 4 + ^ = $ebp $T0 ^ = $esp $T0 8 + = 
STACK WIN 4 9801 4d 6 0 0 0 14 0 1 $T0 $ebp = $eip $T0 4 + ^ = $ebp $T0 ^ = $esp $T0 8 + = 
STACK WIN 4 9861 4b 8 0 0 0 0 0 1 $T0 .raSearch = $eip $T0 ^ = $esp $T0 4 + = 
STACK WIN 4 9868 43 1 0 0 4 0 0 1 $T0 .raSearch = $eip $T0 ^ = $esp $T0 4 + =  $23 $T0 4 - ^ = 
STACK WIN 4 9869 3b 0 0 0 8 0 0 1 $T0 .raSearch = $eip $T0 ^ = $esp $T0 4 + =  $23 $T0 4 - ^ =  $24 $T0 8 - ^ = 
STACK WIN 4 98be 6 0 0 c 0 0 0 1 $T0 .raSearch = $eip $T0 ^ = $esp $T0 4 + = 
STACK WIN 4 98c4 c 0 0 0 0 0 0 1 $T0 .raSearch = $eip $T0 ^ = $esp $T0 4 + = 
STACK WIN 4 98d3 c 0 0 0 0 0 0 1 $T0 .raSearch = $eip $T0 ^ = $esp $T0 4 + = 
STACK WIN 4 98e2 6 0 0 0 0 0 0 1 $T0 .raSearch = $eip $T0 ^ = $esp $T0 4 + = 
STACK WIN 4 98e8 6 0 0 0 0 0 0 1 $T0 .raSearch = $eip $T0 ^ = $esp $T0 4 + = 
STACK WIN 4 98ee 1d 0 0 0 0 0 0 1 $T0 .raSearch = $eip $T0 ^ = $esp $T0 4 + = 
STACK WIN 4 9912 14 3 0 4 0 0 0 1 $T0 $ebp = $eip $T0 4 + ^ = $ebp $T0 ^ = $esp $T0 8 + = 
STACK WIN 4 992b 1d 3 0 4 0 0 0 1 $T0 $ebp = $eip $T0 4 + ^ = $ebp $T0 ^ = $esp $T0 8 + = 
STACK WIN 4 994f d 3 0 8 0 0 0 1 $T0 $ebp = $eip $T0 4 + ^ = $ebp $T0 ^ = $esp $T0 8 + = 
STACK WIN 4 995f d 0 0 0 0 0 0 1 $T0 .raSearch = $eip $T0 ^ = $esp $T0 4 + = 
STACK WIN 4 996f 44 7 0 8 0 0 0 1 $T0 $ebp = $eip $T0 4 + ^ = $ebp $T0 ^ = $esp $T0 8 + = 
STACK WIN 4 9976 37 0 0 8 4 0 0 1 $T0 $ebp = $eip $T0 4 + ^ = $ebp $T0 ^ = $esp $T0 8 + =  $23 $T0 4 - ^ = 
STACK WIN 4 99c4 5 0 0 0 0 0 0 1 $T0 .raSearch = $eip $T0 ^ = $esp $T0 4 + = 
STACK WIN 4 99c9 34 3 0 4 0 0 0 1 $T0 $ebp = $eip $T0 4 + ^ = $ebp $T0 ^ = $esp $T0 8 + = 
STACK WIN 4 9a0a 7 0 0 0 0 0 0 1 $T0 .raSearch = $eip $T0 ^ = $esp $T0 4 + = 
STACK WIN 4 9a11 32 1 0 0 0 0 0 1 $T0 .raSearch = $eip $T0 ^ = $esp $T0 4 + = 
STACK WIN 4 9a12 30 0 0 0 4 0 0 1 $T0 .raSearch = $eip $T0 ^ = $esp $T0 4 + =  $23 $T0 4 - ^ = 
STACK WIN 4 9a4f 2b 0 0 0 0 0 0 1 $T0 .raSearch = $eip $T0 ^ = $esp $T0 4 + = 
STACK WIN 4 9a84 e 0 0 0 0 0 0 1 $T0 .raSearch = $eip $T0 ^ = $esp $T0 4 + = 
STACK WIN 4 9a95 1f 0 0 0 0 0 0 1 $T0 .raSearch = $eip $T0 ^ = $esp $T0 4 + = 
STACK WIN 4 9abb d 0 0 0 0 0 0 1 $T0 .raSearch = $eip $T0 ^ = $esp $T0 4 + = 
STACK WIN 4 9acb 34 3 0 18 0 0 0 1 $T0 $ebp = $eip $T0 4 + ^ = $ebp $T0 ^ = $esp $T0 8 + = 
STACK WIN 4 9b0c 23 0 0 0 0 0 0 1 $T0 .raSearch = $eip $T0 ^ = $esp $T0 4 + = 
STACK WIN 4 9b37 d 0 0 0 0 0 0 1 $T0 .raSearch = $eip $T0 ^ = $esp $T0 4 + = 
STACK WIN 4 9b47 39 3 0 4 0 0 0 1 $T0 $ebp = $eip $T0 4 + ^ = $ebp $T0 ^ = $esp $T0 8 + = 
STACK WIN 4 9b8e a5 6 0 4 0 c 0 1 $T0 $ebp = $eip $T0 4 + ^ = $ebp $T0 ^ = $esp $T0 8 + = 
STACK WIN 4 9ba2 87 0 0 4 4 c 0 1 $T0 $ebp = $eip $T0 4 + ^ = $ebp $T0 ^ = $esp $T0 8 + =  $23 $T0 16 - ^ = 
STACK WIN 4 9be6 39 0 0 4 8 c 0 1 $T0 $ebp = $eip $T0 4 + ^ = $ebp $T0 ^ = $esp $T0 8 + =  $23 $T0 16 - ^ =  $24 $T0 20 - ^ = 
STACK WIN 4 9c5c 94 c 0 4 10 18 0 1 $T0 $ebp = $eip $T0 4 + ^ = $ebp $T0 ^ = $esp $T0 8 + =  $20 $T0 28 - ^ =  $23 $T0 32 - ^ =  $24 $T0 36 - ^ = 
STACK WIN 4 9cc1 13 0 0 4 10 18 0 1 $T0 $ebp = $T2 $esp = $T1 .raSearchStart = $eip $T1 ^ = $ebp $T0 = $esp $T1 4 + = 
STACK WIN 4 9d15 1d 3 0 4 0 0 0 1 $T0 $ebp = $eip $T0 4 + ^ = $ebp $T0 ^ = $esp $T0 8 + = 
STACK WIN 4 9d39 28 3 0 8 0 0 0 1 $T0 $ebp = $eip $T0 4 + ^ = $ebp $T0 ^ = $esp $T0 8 + = 
STACK WIN 4 9d6b 3b 3 0 4 0 0 0 1 $T0 $ebp = $eip $T0 4 + ^ = $ebp $T0 ^ = $esp $T0 8 + = 
STACK WIN 4 9db4 31 3 0 4 0 0 0 1 $T0 $ebp = $eip $T0 4 + ^ = $ebp $T0 ^ = $esp $T0 8 + = 
STACK WIN 4 9df1 15 3 0 4 0 0 0 1 $T0 $ebp = $eip $T0 4 + ^ = $ebp $T0 ^ = $esp $T0 8 + = 
STACK WIN 4 9e0b 6 0 0 0 0 0 0 1 $T0 .raSearch = $eip $T0 ^ = $esp $T0 4 + = 
STACK WIN 4 9e11 11a a 0 4 4 324 0 1 $T0 $ebp = $eip $T0 4 + ^ = $ebp $T0 ^ = $esp $T0 8 + =  $20 $T0 808 - ^ = 
STACK WIN 4 9f71 31 6 0 0 0 44 0 1 $T0 $ebp = $eip $T0 4 + ^ = $ebp $T0 ^ = $esp $T0 8 + = 
STACK WIN 4 9fae 5 0 0 0 0 0 0 1 $T0 .raSearch = $eip $T0 ^ = $esp $T0 4 + = 
STACK WIN 4 9fb3 3 0 0 0 0 0 0 1 $T0 .raSearch = $eip $T0 ^ = $esp $T0 4 + = 
STACK WIN 4 9fb6 43 0 0 0 0 0 0 1 $T0 .raSearch = $eip $T0 ^ = $esp $T0 4 + = 
STACK WIN 4 a009 c 0 0 0 0 0 0 1 $T0 .raSearch = $eip $T0 ^ = $esp $T0 4 + = 
STACK WIN 4 a018 3 0 0 0 0 0 0 1 $T0 .raSearch = $eip $T0 ^ = $esp $T0 4 + = 
STACK WIN 4 a01b 41 3 0 4 0 0 0 1 $T0 $ebp = $eip $T0 4 + ^ = $ebp $T0 ^ = $esp $T0 8 + = 
STACK WIN 4 a06c 8 0 0 4 0 0 0 1 $T0 .raSearch = $eip $T0 ^ = $esp $T0 4 + = 
STACK WIN 4 a076 2c 2 0 0 0 0 0 1 $T0 .raSearch = $eip $T0 ^ = $esp $T0 4 + = 
STACK WIN 4 a077 2a 1 0 0 4 0 0 1 $T0 .raSearch = $eip $T0 ^ = $esp $T0 4 + =  $20 $T0 4 - ^ = 
STACK WIN 4 a078 28 0 0 0 8 0 0 1 $T0 .raSearch = $eip $T0 ^ = $esp $T0 4 + =  $20 $T0 4 - ^ =  $23 $T0 8 - ^ = 
STACK WIN 4 a087 18 0 0 0 c 0 0 1 $T0 .raSearch = $eip $T0 ^ = $esp $T0 4 + =  $20 $T0 4 - ^ =  $23 $T0 8 - ^ =  $24 $T0 12 - ^ = 
STACK WIN 4 a0ad 2c 2 0 0 0 0 0 1 $T0 .raSearch = $eip $T0 ^ = $esp $T0 4 + = 
STACK WIN 4 a0ae 2a 1 0 0 4 0 0 1 $T0 .raSearch = $eip $T0 ^ = $esp $T0 4 + =  $20 $T0 4 - ^ = 
STACK WIN 4 a0af 28 0 0 0 8 0 0 1 $T0 .raSearch = $eip $T0 ^ = $esp $T0 4 + =  $20 $T0 4 - ^ =  $23 $T0 8 - ^ = 
STACK WIN 4 a0be 18 0 0 0 c 0 0 1 $T0 .raSearch = $eip $T0 ^ = $esp $T0 4 + =  $20 $T0 4 - ^ =  $23 $T0 8 - ^ =  $24 $T0 12 - ^ = 
STACK WIN 4 a161 1 0 0 0 0 0 0 1 $T0 .raSearch = $eip $T0 ^ = $esp $T0 4 + = 
STACK WIN 4 a162 a 3 0 4 0 0 0 1 $T0 $ebp = $eip $T0 4 + ^ = $ebp $T0 ^ = $esp $T0 8 + = 
STACK WIN 4 a16e a 3 0 4 0 0 0 1 $T0 $ebp = $eip $T0 4 + ^ = $ebp $T0 ^ = $esp $T0 8 + = 
STACK WIN 4 a17a 12 0 0 0 0 0 0 1 $T0 .raSearch = $eip $T0 ^ = $esp $T0 4 + = 
STACK WIN 4 a190 197 e 0 0 0 24 0 1 $T0 $ebp = $eip $T0 4 + ^ = $ebp $T0 ^ = $esp $T0 8 + = 
STACK WIN 4 a19e 187 0 0 0 4 24 0 1 $T0 $ebp = $eip $T0 4 + ^ = $ebp $T0 ^ = $esp $T0 8 + =  $20 $T0 40 - ^ = 
STACK WIN 4 a1c6 ef 0 0 0 8 24 0 1 $T0 $ebp = $eip $T0 4 + ^ = $ebp $T0 ^ = $esp $T0 8 + =  $20 $T0 40 - ^ =  $23 $T0 44 - ^ = 
STACK WIN 4 a1c7 ed 0 0 0 c 24 0 1 $T0 $ebp = $eip $T0 4 + ^ = $ebp $T0 ^ = $esp $T0 8 + =  $20 $T0 40 - ^ =  $23 $T0 44 - ^ =  $24 $T0 48 - ^ = 
STACK WIN 4 a38c 4 0 0 0 0 0 0 1 $T0 .raSearch = $eip $T0 ^ = $esp $T0 4 + = 
STACK WIN 4 a390 c 0 0 0 0 0 0 1 $T0 .raSearch = $eip $T0 ^ = $esp $T0 4 + = 
STACK WIN 4 a39f 11 0 0 0 0 0 0 1 $T0 .raSearch = $eip $T0 ^ = $esp $T0 4 + = 
STACK WIN 4 a3b4 28 3 0 4 0 0 0 1 $T0 $ebp = $eip $T0 4 + ^ = $ebp $T0 ^ = $esp $T0 8 + = 
STACK WIN 4 a3e6 f9 9 0 0 0 324 0 1 $T0 $ebp = $eip $T0 4 + ^ = $ebp $T0 ^ = $esp $T0 8 + = 
STACK WIN 4 a51d c 3 0 0 0 0 0 1 $T0 $ebp = $eip $T0 4 + ^ = $ebp $T0 ^ = $esp $T0 8 + = 
STACK WIN 4 a52c ce 9 0 4 0 31c 0 1 $T0 $ebp = $eip $T0 4 + ^ = $ebp $T0 ^ = $esp $T0 8 + = 
STACK WIN 4 a62d 114 9 0 c 0 320 0 1 $T0 $ebp = $eip $T0 4 + ^ = $ebp $T0 ^ = $esp $T0 8 + = 
STACK WIN 4 a7e0 32 8 0 8 0 0 0 1 $T0 $ebp = $eip $T0 4 + ^ = $ebp $T0 ^ = $esp $T0 8 + = 
STACK WIN 4 a7e4 28 4 0 8 4 0 0 1 $T0 $ebp = $eip $T0 4 + ^ = $ebp $T0 ^ = $esp $T0 8 + =  $23 $T0 4 - ^ = 
STACK WIN 4 a7e8 23 0 0 8 8 0 0 1 $T0 $ebp = $eip $T0 4 + ^ = $ebp $T0 ^ = $esp $T0 8 + =  $23 $T0 4 - ^ =  $24 $T0 8 - ^ = 
STACK WIN 4 a820 157 c 0 10 0 1c 0 1 $T0 $ebp = $eip $T0 4 + ^ = $ebp $T0 ^ = $esp $T0 8 + = 
STACK WIN 4 a827 c8 5 0 10 4 1c 0 1 $T0 $ebp = $eip $T0 4 + ^ = $ebp $T0 ^ = $esp $T0 8 + =  $20 $T0 32 - ^ = 
STACK WIN 4 a82b c3 1 0 10 8 1c 0 1 $T0 $ebp = $eip $T0 4 + ^ = $ebp $T0 ^ = $esp $T0 8 + =  $20 $T0 32 - ^ =  $23 $T0 36 - ^ = 
STACK WIN 4 a82c c1 0 0 10 c 1c 0 1 $T0 $ebp = $eip $T0 4 + ^ = $ebp $T0 ^ = $esp $T0 8 + =  $20 $T0 32 - ^ =  $23 $T0 36 - ^ =  $24 $T0 40 - ^ = 
STACK WIN 4 a9cc 5 0 0 4 0 0 0 1 $T0 $ebp = $eip $T0 4 + ^ = $ebp $T0 ^ = $esp $T0 8 + = 
STACK WIN 4 a9d1 9 3 0 4 0 0 0 1 $T0 $ebp = $eip $T0 4 + ^ = $ebp $T0 ^ = $esp $T0 8 + = 
STACK WIN 4 a9dc 10 3 0 4 0 0 0 1 $T0 $ebp = $eip $T0 4 + ^ = $ebp $T0 ^ = $esp $T0 8 + = 
STACK WIN 4 a9f0 10 3 0 4 0 0 0 1 $T0 $ebp = $eip $T0 4 + ^ = $ebp $T0 ^ = $esp $T0 8 + = 
STACK WIN 4 aa04 12 3 0 c 0 0 0 1 $T0 $ebp = $eip $T0 4 + ^ = $ebp $T0 ^ = $esp $T0 8 + = 
STACK WIN 4 aa1a a 3 0 4 0 0 0 1 $T0 $ebp = $eip $T0 4 + ^ = $ebp $T0 ^ = $esp $T0 8 + = 
STACK WIN 4 aa26 e 3 0 4 0 0 0 1 $T0 $ebp = $eip $T0 4 + ^ = $ebp $T0 ^ = $esp $T0 8 + = 
STACK WIN 4 aa37 e 3 0 4 0 0 0 1 $T0 $ebp = $eip $T0 4 + ^ = $ebp $T0 ^ = $esp $T0 8 + = 
STACK WIN 4 aa48 10 3 0 0 0 0 0 1 $T0 .raSearch = $eip $T0 ^ = $esp $T0 4 + = 
STACK WIN 4 aa49 e 2 0 0 4 0 0 1 $T0 .raSearch = $eip $T0 ^ = $esp $T0 4 + =  $23 $T0 4 - ^ = 
STACK WIN 4 aa5c 10 3 0 0 0 0 0 1 $T0 .raSearch = $eip $T0 ^ = $esp $T0 4 + = 
STACK WIN 4 aa5d e 2 0 0 4 0 0 1 $T0 .raSearch = $eip $T0 ^ = $esp $T0 4 + =  $23 $T0 4 - ^ = 
STACK WIN 4 aa70 6 0 0 0 0 0 0 1 $T0 .raSearch = $eip $T0 ^ = $esp $T0 4 + = 
STACK WIN 4 aa76 6 0 0 0 0 0 0 1 $T0 .raSearch = $eip $T0 ^ = $esp $T0 4 + = 
STACK WIN 4 aa7c 7 0 0 0 0 0 0 1 $T0 .raSearch = $eip $T0 ^ = $esp $T0 4 + = 
STACK WIN 4 aa83 7 0 0 0 0 0 0 1 $T0 .raSearch = $eip $T0 ^ = $esp $T0 4 + = 
STACK WIN 4 aa8a 10 3 0 4 0 0 0 1 $T0 $ebp = $eip $T0 4 + ^ = $ebp $T0 ^ = $esp $T0 8 + = 
STACK WIN 4 aa9e 10 3 0 4 0 0 0 1 $T0 $ebp = $eip $T0 4 + ^ = $ebp $T0 ^ = $esp $T0 8 + = 
STACK WIN 4 aab2 a 3 0 4 0 0 0 1 $T0 $ebp = $eip $T0 4 + ^ = $ebp $T0 ^ = $esp $T0 8 + = 
STACK WIN 4 aabe 6 0 0 0 0 0 0 1 $T0 .raSearch = $eip $T0 ^ = $esp $T0 4 + = 
STACK WIN 4 aac4 3 0 0 0 0 0 0 1 $T0 .raSearch = $eip $T0 ^ = $esp $T0 4 + = 
STACK WIN 4 aac7 3 0 0 0 0 0 0 1 $T0 .raSearch = $eip $T0 ^ = $esp $T0 4 + = 
STACK WIN 4 aaca 7 0 0 0 0 0 0 1 $T0 .raSearch = $eip $T0 ^ = $esp $T0 4 + = 
STACK WIN 4 aad1 7 0 0 0 0 0 0 1 $T0 .raSearch = $eip $T0 ^ = $esp $T0 4 + = 
STACK WIN 4 aad8 10 3 0 0 0 0 0 1 $T0 .raSearch = $eip $T0 ^ = $esp $T0 4 + = 
STACK WIN 4 aad9 e 2 0 0 4 0 0 1 $T0 .raSearch = $eip $T0 ^ = $esp $T0 4 + =  $23 $T0 4 - ^ = 
STACK WIN 4 aaec 10 3 0 0 0 0 0 1 $T0 .raSearch = $eip $T0 ^ = $esp $T0 4 + = 
STACK WIN 4 aaed e 2 0 0 4 0 0 1 $T0 .raSearch = $eip $T0 ^ = $esp $T0 4 + =  $23 $T0 4 - ^ = 
STACK WIN 4 ab00 3c 3 0 8 0 0 0 1 $T0 $ebp = $eip $T0 4 + ^ = $ebp $T0 ^ = $esp $T0 8 + = 
STACK WIN 4 ab4b 23 3 0 4 0 0 0 1 $T0 $ebp = $eip $T0 4 + ^ = $ebp $T0 ^ = $esp $T0 8 + = 
STACK WIN 4 ab5c 10 0 0 4 4 0 0 1 $T0 $ebp = $eip $T0 4 + ^ = $ebp $T0 ^ = $esp $T0 8 + =  $23 $T0 4 - ^ = 
STACK WIN 4 ab76 26 3 0 4 0 0 0 1 $T0 $ebp = $eip $T0 4 + ^ = $ebp $T0 ^ = $esp $T0 8 + = 
STACK WIN 4 aba5 c3 9 0 8 0 c 0 1 $T0 $ebp = $eip $T0 4 + ^ = $ebp $T0 ^ = $esp $T0 8 + = 
STACK WIN 4 abb9 ad 0 0 8 4 c 0 1 $T0 $ebp = $eip $T0 4 + ^ = $ebp $T0 ^ = $esp $T0 8 + =  $20 $T0 16 - ^ = 
STACK WIN 4 abba a9 0 0 8 8 c 0 1 $T0 $ebp = $eip $T0 4 + ^ = $ebp $T0 ^ = $esp $T0 8 + =  $20 $T0 16 - ^ =  $23 $T0 20 - ^ = 
STACK WIN 4 ac09 52 0 0 8 c c 0 1 $T0 $ebp = $eip $T0 4 + ^ = $ebp $T0 ^ = $esp $T0 8 + =  $20 $T0 16 - ^ =  $23 $T0 20 - ^ =  $24 $T0 24 - ^ = 
STACK WIN 4 ac98 29 0 0 0 0 0 0 1 $T0 .raSearch = $eip $T0 ^ = $esp $T0 4 + = 
STACK WIN 4 accb b 0 0 0 0 0 0 1 $T0 .raSearch = $eip $T0 ^ = $esp $T0 4 + = 
STACK WIN 4 acd8 b 0 0 0 0 0 0 1 $T0 .raSearch = $eip $T0 ^ = $esp $T0 4 + = 
STACK WIN 4 ace5 1f 3 0 4 0 0 0 1 $T0 $ebp = $eip $T0 4 + ^ = $ebp $T0 ^ = $esp $T0 8 + = 
STACK WIN 4 ad0b 8 0 0 0 0 0 0 1 $T0 .raSearch = $eip $T0 ^ = $esp $T0 4 + = 
STACK WIN 4 ad15 1 0 0 0 0 0 0 1 $T0 .raSearch = $eip $T0 ^ = $esp $T0 4 + = 
STACK WIN 4 b090 b 3 0 4 0 0 0 1 $T0 $ebp = $eip $T0 4 + ^ = $ebp $T0 ^ = $esp $T0 8 + = 
STACK WIN 4 b09d 30 3 0 4 0 0 0 1 $T0 $ebp = $eip $T0 4 + ^ = $ebp $T0 ^ = $esp $T0 8 + = 
STACK WIN 4 b0d9 2d 3 0 4 0 0 0 1 $T0 $ebp = $eip $T0 4 + ^ = $ebp $T0 ^ = $esp $T0 8 + = 
STACK WIN 4 b111 39 3 0 8 0 0 0 1 $T0 $ebp = $eip $T0 4 + ^ = $ebp $T0 ^ = $esp $T0 8 + = 
STACK WIN 4 b124 24 0 0 8 4 0 0 1 $T0 $ebp = $eip $T0 4 + ^ = $ebp $T0 ^ = $esp $T0 8 + =  $23 $T0 4 - ^ = 
STACK WIN 4 b158 6 0 0 0 0 0 0 1 $T0 .raSearch = $eip $T0 ^ = $esp $T0 4 + = 
STACK WIN 4 b15e b2 7 0 8 0 0 0 1 $T0 $ebp = $eip $T0 4 + ^ = $ebp $T0 ^ = $esp $T0 8 + = 
STACK WIN 4 b162 aa 3 0 8 4 0 0 1 $T0 $ebp = $eip $T0 4 + ^ = $ebp $T0 ^ = $esp $T0 8 + =  $20 $T0 4 - ^ = 
STACK WIN 4 b163 a8 2 0 8 8 0 0 1 $T0 $ebp = $eip $T0 4 + ^ = $ebp $T0 ^ = $esp $T0 8 + =  $20 $T0 4 - ^ =  $23 $T0 8 - ^ = 
STACK WIN 4 b166 a2 0 0 8 c 0 0 1 $T0 $ebp = $eip $T0 4 + ^ = $ebp $T0 ^ = $esp $T0 8 + =  $20 $T0 4 - ^ =  $23 $T0 8 - ^ =  $24 $T0 12 - ^ = 
STACK WIN 4 b23c 16 3 0 4 0 0 0 1 $T0 $ebp = $eip $T0 4 + ^ = $ebp $T0 ^ = $esp $T0 8 + = 
STACK WIN 4 b257 25 6 0 4 0 0 0 1 $T0 $ebp = $eip $T0 4 + ^ = $ebp $T0 ^ = $esp $T0 8 + = 
STACK WIN 4 b25b 1d 2 0 4 4 0 0 1 $T0 $ebp = $eip $T0 4 + ^ = $ebp $T0 ^ = $esp $T0 8 + =  $23 $T0 4 - ^ = 
STACK WIN 4 b285 48 7 0 4 0 0 0 1 $T0 $ebp = $eip $T0 4 + ^ = $ebp $T0 ^ = $esp $T0 8 + = 
STACK WIN 4 b289 40 3 0 4 4 0 0 1 $T0 $ebp = $eip $T0 4 + ^ = $ebp $T0 ^ = $esp $T0 8 + =  $20 $T0 4 - ^ = 
STACK WIN 4 b28a 3e 2 0 4 8 0 0 1 $T0 $ebp = $eip $T0 4 + ^ = $ebp $T0 ^ = $esp $T0 8 + =  $20 $T0 4 - ^ =  $23 $T0 8 - ^ = 
STACK WIN 4 b2df 33 6 0 4 0 0 0 1 $T0 $ebp = $eip $T0 4 + ^ = $ebp $T0 ^ = $esp $T0 8 + = 
STACK WIN 4 b2e3 2b 2 0 4 4 0 0 1 $T0 $ebp = $eip $T0 4 + ^ = $ebp $T0 ^ = $esp $T0 8 + =  $23 $T0 4 - ^ = 
STACK WIN 4 b31e 40 9 0 4 0 0 0 1 $T0 $ebp = $eip $T0 4 + ^ = $ebp $T0 ^ = $esp $T0 8 + = 
STACK WIN 4 b325 35 2 0 4 4 0 0 1 $T0 $ebp = $eip $T0 4 + ^ = $ebp $T0 ^ = $esp $T0 8 + =  $23 $T0 4 - ^ = 
STACK WIN 4 b36e a 0 0 0 0 0 0 1 $T0 .raSearch = $eip $T0 ^ = $esp $T0 4 + = 
STACK WIN 4 b37a 8c 1a 0 8 0 2c 0 1 $T0 $ebp = $eip $T0 4 + ^ = $ebp $T0 ^ = $esp $T0 8 + = 
STACK WIN 4 b3a0 5d 0 0 8 4 2c 0 1 $T0 $ebp = $eip $T0 4 + ^ = $ebp $T0 ^ = $esp $T0 8 + =  $23 $T0 48 - ^ = 
STACK WIN 4 b3a4 58 0 0 8 8 2c 0 1 $T0 $ebp = $eip $T0 4 + ^ = $ebp $T0 ^ = $esp $T0 8 + =  $23 $T0 48 - ^ =  $24 $T0 52 - ^ = 
STACK WIN 4 b3bc 1f 0 0 8 c 2c 0 1 $T0 $ebp = $eip $T0 4 + ^ = $ebp $T0 ^ = $esp $T0 8 + =  $23 $T0 48 - ^ =  $24 $T0 52 - ^ =  $20 $T0 56 - ^ = 
STACK WIN 4 b429 66 1a 0 8 0 24 0 1 $T0 $ebp = $eip $T0 4 + ^ = $ebp $T0 ^ = $esp $T0 8 + = 
STACK WIN 4 b43d 49 6 0 8 4 24 0 1 $T0 $ebp = $eip $T0 4 + ^ = $ebp $T0 ^ = $esp $T0 8 + =  $20 $T0 40 - ^ = 
STACK WIN 4 b441 42 2 0 8 8 24 0 1 $T0 $ebp = $eip $T0 4 + ^ = $ebp $T0 ^ = $esp $T0 8 + =  $20 $T0 40 - ^ =  $23 $T0 44 - ^ = 
STACK WIN 4 b448 3a 0 0 8 c 24 0 1 $T0 $ebp = $eip $T0 4 + ^ = $ebp $T0 ^ = $esp $T0 8 + =  $20 $T0 40 - ^ =  $23 $T0 44 - ^ =  $24 $T0 48 - ^ = 
STACK WIN 4 b4a8 9 0 0 0 0 0 0 1 $T0 .raSearch = $eip $T0 ^ = $esp $T0 4 + = 
STACK WIN 4 b4b3 6 0 0 0 0 0 0 1 $T0 .raSearch = $eip $T0 ^ = $esp $T0 4 + = 
STACK WIN 4 b4b9 9 0 0 0 0 0 0 1 $T0 .raSearch = $eip $T0 ^ = $esp $T0 4 + = 
STACK WIN 4 b4c4 4c 3 0 c 0 0 0 1 $T0 $ebp = $eip $T0 4 + ^ = $ebp $T0 ^ = $esp $T0 8 + = 
STACK WIN 4 b523 15 3 0 4 0 0 0 1 $T0 $ebp = $eip $T0 4 + ^ = $ebp $T0 ^ = $esp $T0 8 + = 
STACK WIN 4 b53d 28 3 0 4 0 0 0 1 $T0 $ebp = $eip $T0 4 + ^ = $ebp $T0 ^ = $esp $T0 8 + = 
STACK WIN 4 b56f 1f 3 0 8 0 0 0 1 $T0 $ebp = $eip $T0 4 + ^ = $ebp $T0 ^ = $esp $T0 8 + = 
STACK WIN 4 b595 59 7 0 8 0 0 0 1 $T0 $ebp = $eip $T0 4 + ^ = $ebp $T0 ^ = $esp $T0 8 + = 
STACK WIN 4 b599 51 3 0 8 4 0 0 1 $T0 $ebp = $eip $T0 4 + ^ = $ebp $T0 ^ = $esp $T0 8 + =  $20 $T0 4 - ^ = 
STACK WIN 4 b59a 4f 2 0 8 8 0 0 1 $T0 $ebp = $eip $T0 4 + ^ = $ebp $T0 ^ = $esp $T0 8 + =  $20 $T0 4 - ^ =  $23 $T0 8 - ^ = 
STACK WIN 4 b59d 49 0 0 8 c 0 0 1 $T0 $ebp = $eip $T0 4 + ^ = $ebp $T0 ^ = $esp $T0 8 + =  $20 $T0 4 - ^ =  $23 $T0 8 - ^ =  $24 $T0 12 - ^ = 
STACK WIN 4 b604 7 0 0 0 0 0 0 1 $T0 .raSearch = $eip $T0 ^ = $esp $T0 4 + = 
STACK WIN 4 b60b 15 3 0 c 0 0 0 1 $T0 $ebp = $eip $T0 4 + ^ = $ebp $T0 ^ = $esp $T0 8 + = 
STACK WIN 4 b625 16 3 0 4 0 0 0 1 $T0 $ebp = $eip $T0 4 + ^ = $ebp $T0 ^ = $esp $T0 8 + = 
STACK WIN 4 b640 25 6 0 4 0 0 0 1 $T0 $ebp = $eip $T0 4 + ^ = $ebp $T0 ^ = $esp $T0 8 + = 
STACK WIN 4 b644 1d 2 0 4 4 0 0 1 $T0 $ebp = $eip $T0 4 + ^ = $ebp $T0 ^ = $esp $T0 8 + =  $23 $T0 4 - ^ = 
STACK WIN 4 b66e 42 6 0 4 0 0 0 1 $T0 $ebp = $eip $T0 4 + ^ = $ebp $T0 ^ = $esp $T0 8 + = 
STACK WIN 4 b672 3a 2 0 4 4 0 0 1 $T0 $ebp = $eip $T0 4 + ^ = $ebp $T0 ^ = $esp $T0 8 + =  $23 $T0 4 - ^ = 
STACK WIN 4 b675 34 0 0 4 8 0 0 1 $T0 $ebp = $eip $T0 4 + ^ = $ebp $T0 ^ = $esp $T0 8 + =  $23 $T0 4 - ^ =  $24 $T0 8 - ^ = 
STACK WIN 4 b6c0 2b 6 0 4 0 0 0 1 $T0 $ebp = $eip $T0 4 + ^ = $ebp $T0 ^ = $esp $T0 8 + = 
STACK WIN 4 b6c4 23 2 0 4 4 0 0 1 $T0 $ebp = $eip $T0 4 + ^ = $ebp $T0 ^ = $esp $T0 8 + =  $23 $T0 4 - ^ = 
STACK WIN 4 b6f5 32 9 0 4 0 0 0 1 $T0 $ebp = $eip $T0 4 + ^ = $ebp $T0 ^ = $esp $T0 8 + = 
STACK WIN 4 b6fc 27 2 0 4 4 0 0 1 $T0 $ebp = $eip $T0 4 + ^ = $ebp $T0 ^ = $esp $T0 8 + =  $23 $T0 4 - ^ = 
STACK WIN 4 b733 46 3 0 8 0 0 0 1 $T0 $ebp = $eip $T0 4 + ^ = $ebp $T0 ^ = $esp $T0 8 + = 
STACK WIN 4 b78a 22 5 0 c 0 8 0 1 $T0 $ebp = $eip $T0 4 + ^ = $ebp $T0 ^ = $esp $T0 8 + = 
STACK WIN 4 b7b4 22 5 0 c 0 8 0 1 $T0 $ebp = $eip $T0 4 + ^ = $ebp $T0 ^ = $esp $T0 8 + = 
STACK WIN 4 b7de 22 5 0 c 0 8 0 1 $T0 $ebp = $eip $T0 4 + ^ = $ebp $T0 ^ = $esp $T0 8 + = 
STACK WIN 4 b808 22 6 0 8 0 0 0 1 $T0 $ebp = $eip $T0 4 + ^ = $ebp $T0 ^ = $esp $T0 8 + = 
STACK WIN 4 b80e 18 0 0 8 4 0 0 1 $T0 $ebp = $eip $T0 4 + ^ = $ebp $T0 ^ = $esp $T0 8 + =  $23 $T0 4 - ^ = 
STACK WIN 4 b832 22 6 0 8 0 0 0 1 $T0 $ebp = $eip $T0 4 + ^ = $ebp $T0 ^ = $esp $T0 8 + = 
STACK WIN 4 b838 18 0 0 8 4 0 0 1 $T0 $ebp = $eip $T0 4 + ^ = $ebp $T0 ^ = $esp $T0 8 + =  $23 $T0 4 - ^ = 
STACK WIN 4 b85c 22 6 0 8 0 0 0 1 $T0 $ebp = $eip $T0 4 + ^ = $ebp $T0 ^ = $esp $T0 8 + = 
STACK WIN 4 b862 18 0 0 8 4 0 0 1 $T0 $ebp = $eip $T0 4 + ^ = $ebp $T0 ^ = $esp $T0 8 + =  $23 $T0 4 - ^ = 
STACK WIN 4 b886 22 6 0 8 0 0 0 1 $T0 $ebp = $eip $T0 4 + ^ = $ebp $T0 ^ = $esp $T0 8 + = 
STACK WIN 4 b88c 18 0 0 8 4 0 0 1 $T0 $ebp = $eip $T0 4 + ^ = $ebp $T0 ^ = $esp $T0 8 + =  $23 $T0 4 - ^ = 
STACK WIN 4 b8b0 22 6 0 8 0 0 0 1 $T0 $ebp = $eip $T0 4 + ^ = $ebp $T0 ^ = $esp $T0 8 + = 
STACK WIN 4 b8b6 18 0 0 8 4 0 0 1 $T0 $ebp = $eip $T0 4 + ^ = $ebp $T0 ^ = $esp $T0 8 + =  $23 $T0 4 - ^ = 
STACK WIN 4 b8da 41 6 0 4 0 0 0 1 $T0 $ebp = $eip $T0 4 + ^ = $ebp $T0 ^ = $esp $T0 8 + = 
STACK WIN 4 b8de 39 2 0 4 4 0 0 1 $T0 $ebp = $eip $T0 4 + ^ = $ebp $T0 ^ = $esp $T0 8 + =  $23 $T0 4 - ^ = 
STACK WIN 4 b92b 50 6 0 4 0 0 0 1 $T0 $ebp = $eip $T0 4 + ^ = $ebp $T0 ^ = $esp $T0 8 + = 
STACK WIN 4 b92f 48 2 0 4 4 0 0 1 $T0 $ebp = $eip $T0 4 + ^ = $ebp $T0 ^ = $esp $T0 8 + =  $23 $T0 4 - ^ = 
STACK WIN 4 b938 3c 0 0 4 8 0 0 1 $T0 $ebp = $eip $T0 4 + ^ = $ebp $T0 ^ = $esp $T0 8 + =  $23 $T0 4 - ^ =  $20 $T0 8 - ^ = 
STACK WIN 4 b98f 65 6 0 4 0 0 0 1 $T0 $ebp = $eip $T0 4 + ^ = $ebp $T0 ^ = $esp $T0 8 + = 
STACK WIN 4 b993 5d 2 0 4 4 0 0 1 $T0 $ebp = $eip $T0 4 + ^ = $ebp $T0 ^ = $esp $T0 8 + =  $23 $T0 4 - ^ = 
STACK WIN 4 b99c 51 0 0 4 8 0 0 1 $T0 $ebp = $eip $T0 4 + ^ = $ebp $T0 ^ = $esp $T0 8 + =  $23 $T0 4 - ^ =  $24 $T0 8 - ^ = 
STACK WIN 4 b9a4 48 0 0 4 c 0 0 1 $T0 $ebp = $eip $T0 4 + ^ = $ebp $T0 ^ = $esp $T0 8 + =  $23 $T0 4 - ^ =  $24 $T0 8 - ^ =  $20 $T0 12 - ^ = 
STACK WIN 4 ba0d 61 6 0 4 0 0 0 1 $T0 $ebp = $eip $T0 4 + ^ = $ebp $T0 ^ = $esp $T0 8 + = 
STACK WIN 4 ba11 59 2 0 4 4 0 0 1 $T0 $ebp = $eip $T0 4 + ^ = $ebp $T0 ^ = $esp $T0 8 + =  $20 $T0 4 - ^ = 
STACK WIN 4 ba1a 4d 0 0 4 8 0 0 1 $T0 $ebp = $eip $T0 4 + ^ = $ebp $T0 ^ = $esp $T0 8 + =  $20 $T0 4 - ^ =  $24 $T0 8 - ^ = 
STACK WIN 4 ba27 3f 0 0 4 c 0 0 1 $T0 $ebp = $eip $T0 4 + ^ = $ebp $T0 ^ = $esp $T0 8 + =  $20 $T0 4 - ^ =  $24 $T0 8 - ^ =  $23 $T0 12 - ^ = 
STACK WIN 4 ba86 40 6 0 4 0 0 0 1 $T0 $ebp = $eip $T0 4 + ^ = $ebp $T0 ^ = $esp $T0 8 + = 
STACK WIN 4 ba8a 38 2 0 4 4 0 0 1 $T0 $ebp = $eip $T0 4 + ^ = $ebp $T0 ^ = $esp $T0 8 + =  $23 $T0 4 - ^ = 
STACK WIN 4 bad6 4a 6 0 4 0 0 0 1 $T0 $ebp = $eip $T0 4 + ^ = $ebp $T0 ^ = $esp $T0 8 + = 
STACK WIN 4 bada 42 2 0 4 4 0 0 1 $T0 $ebp = $eip $T0 4 + ^ = $ebp $T0 ^ = $esp $T0 8 + =  $23 $T0 4 - ^ = 
STACK WIN 4 bae2 37 0 0 4 8 0 0 1 $T0 $ebp = $eip $T0 4 + ^ = $ebp $T0 ^ = $esp $T0 8 + =  $23 $T0 4 - ^ =  $24 $T0 8 - ^ = 
STACK WIN 4 bb32 1c 3 0 4 0 0 0 1 $T0 $ebp = $eip $T0 4 + ^ = $ebp $T0 ^ = $esp $T0 8 + = 
STACK WIN 4 bb55 1d 3 0 8 0 0 0 1 $T0 $ebp = $eip $T0 4 + ^ = $ebp $T0 ^ = $esp $T0 8 + = 
STACK WIN 4 bb79 38 3 0 0 0 0 0 1 $T0 .raSearch = $eip $T0 ^ = $esp $T0 4 + = 
STACK WIN 4 bb7a 36 2 0 0 4 0 0 1 $T0 .raSearch = $eip $T0 ^ = $esp $T0 4 + =  $24 $T0 4 - ^ = 
STACK WIN 4 bb8d 22 0 0 0 8 0 0 1 $T0 .raSearch = $eip $T0 ^ = $esp $T0 4 + =  $24 $T0 4 - ^ =  $23 $T0 8 - ^ = 
STACK WIN 4 bbbf 1f 3 0 4 0 0 0 1 $T0 $ebp = $eip $T0 4 + ^ = $ebp $T0 ^ = $esp $T0 8 + = 
STACK WIN 4 bbe5 46 a 0 4 0 0 0 1 $T0 $ebp = $eip $T0 4 + ^ = $ebp $T0 ^ = $esp $T0 8 + = 
STACK WIN 4 bbe9 3e 6 0 4 4 0 0 1 $T0 $ebp = $eip $T0 4 + ^ = $ebp $T0 ^ = $esp $T0 8 + =  $23 $T0 4 - ^ = 
STACK WIN 4 bbea 3c 5 0 4 8 0 0 1 $T0 $ebp = $eip $T0 4 + ^ = $ebp $T0 ^ = $esp $T0 8 + =  $23 $T0 4 - ^ =  $24 $T0 8 - ^ = 
STACK WIN 4 bc3c cdd 17 0 8 0 90 0 1 $T0 $ebp = $eip $T0 4 + ^ = $ebp $T0 ^ = $esp $T0 8 + = 
STACK WIN 4 bc51 cc6 2 0 8 4 90 0 1 $T0 $ebp = $eip $T0 4 + ^ = $ebp $T0 ^ = $esp $T0 8 + =  $20 $T0 148 - ^ = 
STACK WIN 4 bc52 cc4 1 0 8 8 90 0 1 $T0 $ebp = $eip $T0 4 + ^ = $ebp $T0 ^ = $esp $T0 8 + =  $20 $T0 148 - ^ =  $23 $T0 152 - ^ = 
STACK WIN 4 bc53 cc2 0 0 8 c 90 0 1 $T0 $ebp = $eip $T0 4 + ^ = $ebp $T0 ^ = $esp $T0 8 + =  $20 $T0 148 - ^ =  $23 $T0 152 - ^ =  $24 $T0 156 - ^ = 
STACK WIN 4 cc50 e 0 0 0 0 0 0 1 $T0 .raSearch = $eip $T0 ^ = $esp $T0 4 + = 
STACK WIN 4 cc61 e 0 0 0 0 0 0 1 $T0 .raSearch = $eip $T0 ^ = $esp $T0 4 + = 
STACK WIN 4 cc72 e 0 0 0 0 0 0 1 $T0 .raSearch = $eip $T0 ^ = $esp $T0 4 + = 
STACK WIN 4 cc83 e 0 0 0 0 0 0 1 $T0 .raSearch = $eip $T0 ^ = $esp $T0 4 + = 
STACK WIN 4 cc94 e 0 0 0 0 0 0 1 $T0 .raSearch = $eip $T0 ^ = $esp $T0 4 + = 
STACK WIN 4 cca5 e 0 0 0 0 0 0 1 $T0 .raSearch = $eip $T0 ^ = $esp $T0 4 + = 
STACK WIN 4 ccb6 d 0 0 0 0 0 0 1 $T0 .raSearch = $eip $T0 ^ = $esp $T0 4 + = 
STACK WIN 4 ccc6 e 0 0 0 0 0 0 1 $T0 .raSearch = $eip $T0 ^ = $esp $T0 4 + = 
STACK WIN 4 ccd7 b 0 0 0 0 0 0 1 $T0 .raSearch = $eip $T0 ^ = $esp $T0 4 + = 
STACK WIN 4 cce4 b 0 0 0 0 0 0 1 $T0 .raSearch = $eip $T0 ^ = $esp $T0 4 + = 
STACK WIN 4 ccf1 86 6 0 8 0 0 0 1 $T0 $ebp = $eip $T0 4 + ^ = $ebp $T0 ^ = $esp $T0 8 + = 
STACK WIN 4 ccf5 7e 2 0 8 4 0 0 1 $T0 $ebp = $eip $T0 4 + ^ = $ebp $T0 ^ = $esp $T0 8 + =  $23 $T0 4 - ^ = 
STACK WIN 4 ccf8 7a 0 0 8 8 0 0 1 $T0 $ebp = $eip $T0 4 + ^ = $ebp $T0 ^ = $esp $T0 8 + =  $23 $T0 4 - ^ =  $24 $T0 8 - ^ = 
STACK WIN 4 cd0a 67 0 0 8 c 0 0 1 $T0 $ebp = $eip $T0 4 + ^ = $ebp $T0 ^ = $esp $T0 8 + =  $23 $T0 4 - ^ =  $24 $T0 8 - ^ =  $20 $T0 12 - ^ = 
STACK WIN 4 cd98 e 0 0 0 0 0 0 1 $T0 .raSearch = $eip $T0 ^ = $esp $T0 4 + = 
STACK WIN 4 cda9 e 0 0 0 0 0 0 1 $T0 .raSearch = $eip $T0 ^ = $esp $T0 4 + = 
STACK WIN 4 cdba 12 0 0 0 0 0 0 1 $T0 .raSearch = $eip $T0 ^ = $esp $T0 4 + = 
STACK WIN 4 cdd0 e 0 0 0 0 0 0 1 $T0 .raSearch = $eip $T0 ^ = $esp $T0 4 + = 
STACK WIN 4 cde1 b 0 0 0 0 0 0 1 $T0 .raSearch = $eip $T0 ^ = $esp $T0 4 + = 
STACK WIN 4 cdee b 0 0 0 0 0 0 1 $T0 .raSearch = $eip $T0 ^ = $esp $T0 4 + = 
STACK WIN 4 cdfb f6 f 0 4 0 18 0 1 $T0 $ebp = $eip $T0 4 + ^ = $ebp $T0 ^ = $esp $T0 8 + = 
STACK WIN 4 ce02 ed 8 0 4 4 18 0 1 $T0 $ebp = $eip $T0 4 + ^ = $ebp $T0 ^ = $esp $T0 8 + =  $20 $T0 28 - ^ = 
STACK WIN 4 ce03 eb 7 0 4 8 18 0 1 $T0 $ebp = $eip $T0 4 + ^ = $ebp $T0 ^ = $esp $T0 8 + =  $20 $T0 28 - ^ =  $23 $T0 32 - ^ = 
STACK WIN 4 ce0a e1 0 0 4 c 18 0 1 $T0 $ebp = $eip $T0 4 + ^ = $ebp $T0 ^ = $esp $T0 8 + =  $20 $T0 28 - ^ =  $23 $T0 32 - ^ =  $24 $T0 36 - ^ = 
STACK WIN 4 cf2e ca 5 0 4 0 8 0 1 $T0 $ebp = $eip $T0 4 + ^ = $ebp $T0 ^ = $esp $T0 8 + = 
STACK WIN 4 d02a 1b1 10 0 8 0 30 0 1 $T0 $ebp = $eip $T0 4 + ^ = $ebp $T0 ^ = $esp $T0 8 + = 
STACK WIN 4 d039 1a0 1 0 8 4 30 0 1 $T0 $ebp = $eip $T0 4 + ^ = $ebp $T0 ^ = $esp $T0 8 + =  $23 $T0 52 - ^ = 
STACK WIN 4 d03a 19e 0 0 8 8 30 0 1 $T0 $ebp = $eip $T0 4 + ^ = $ebp $T0 ^ = $esp $T0 8 + =  $23 $T0 52 - ^ =  $24 $T0 56 - ^ = 
STACK WIN 4 d07e e7 0 0 8 c 30 0 1 $T0 $ebp = $eip $T0 4 + ^ = $ebp $T0 ^ = $esp $T0 8 + =  $23 $T0 52 - ^ =  $24 $T0 56 - ^ =  $20 $T0 60 - ^ = 
STACK WIN 4 d247 98 6 0 4 0 10 0 1 $T0 $ebp = $eip $T0 4 + ^ = $ebp $T0 ^ = $esp $T0 8 + = 
STACK WIN 4 d305 3df f 0 8 0 1c 0 1 $T0 $ebp = $eip $T0 4 + ^ = $ebp $T0 ^ = $esp $T0 8 + = 
STACK WIN 4 d313 3a9 1 0 8 4 1c 0 1 $T0 $ebp = $eip $T0 4 + ^ = $ebp $T0 ^ = $esp $T0 8 + =  $20 $T0 32 - ^ = 
STACK WIN 4 d314 3a7 0 0 8 8 1c 0 1 $T0 $ebp = $eip $T0 4 + ^ = $ebp $T0 ^ = $esp $T0 8 + =  $20 $T0 32 - ^ =  $23 $T0 36 - ^ = 
STACK WIN 4 d7db df c 0 8 0 c 0 1 $T0 $ebp = $eip $T0 4 + ^ = $ebp $T0 ^ = $esp $T0 8 + = 
STACK WIN 4 d7e2 79 5 0 8 4 c 0 1 $T0 $ebp = $eip $T0 4 + ^ = $ebp $T0 ^ = $esp $T0 8 + =  $20 $T0 16 - ^ = 
STACK WIN 4 d7e3 77 4 0 8 8 c 0 1 $T0 $ebp = $eip $T0 4 + ^ = $ebp $T0 ^ = $esp $T0 8 + =  $20 $T0 16 - ^ =  $23 $T0 20 - ^ = 
STACK WIN 4 d7e7 72 0 0 8 c c 0 1 $T0 $ebp = $eip $T0 4 + ^ = $ebp $T0 ^ = $esp $T0 8 + =  $20 $T0 16 - ^ =  $23 $T0 20 - ^ =  $24 $T0 24 - ^ = 
STACK WIN 4 d8f1 14 3 0 4 0 0 0 1 $T0 $ebp = $eip $T0 4 + ^ = $ebp $T0 ^ = $esp $T0 8 + = 
STACK WIN 4 d90a d3 5 0 4 0 8 0 1 $T0 $ebp = $eip $T0 4 + ^ = $ebp $T0 ^ = $esp $T0 8 + = 
STACK WIN 4 da11 5ea e 0 14 0 4c 0 1 $T0 $ebp = $eip $T0 4 + ^ = $ebp $T0 ^ = $esp $T0 8 + = 
STACK WIN 4 da1d 5dc 2 0 14 4 4c 0 1 $T0 $ebp = $eip $T0 4 + ^ = $ebp $T0 ^ = $esp $T0 8 + =  $20 $T0 80 - ^ = 
STACK WIN 4 da1e 5da 1 0 14 8 4c 0 1 $T0 $ebp = $eip $T0 4 + ^ = $ebp $T0 ^ = $esp $T0 8 + =  $20 $T0 80 - ^ =  $23 $T0 84 - ^ = 
STACK WIN 4 da1f 5d8 0 0 14 c 4c 0 1 $T0 $ebp = $eip $T0 4 + ^ = $ebp $T0 ^ = $esp $T0 8 + =  $20 $T0 80 - ^ =  $23 $T0 84 - ^ =  $24 $T0 88 - ^ = 
STACK WIN 4 e175 32 6 0 4 0 10 0 1 $T0 $ebp = $eip $T0 4 + ^ = $ebp $T0 ^ = $esp $T0 8 + = 
STACK WIN 4 e1b3 c5 6 0 8 0 18 0 1 $T0 $ebp = $eip $T0 4 + ^ = $ebp $T0 ^ = $esp $T0 8 + = 
STACK WIN 4 e2a9 242 c 0 4 10 2c 0 1 $T0 $ebp = $eip $T0 4 + ^ = $ebp $T0 ^ = $esp $T0 8 + =  $20 $T0 48 - ^ =  $23 $T0 52 - ^ =  $24 $T0 56 - ^ = 
STACK WIN 4 e57b 11f 14 0 8 0 18 0 1 $T0 $ebp = $eip $T0 4 + ^ = $ebp $T0 ^ = $esp $T0 8 + = 
STACK WIN 4 e588 110 7 0 8 4 18 0 1 $T0 $ebp = $eip $T0 4 + ^ = $ebp $T0 ^ = $esp $T0 8 + =  $20 $T0 28 - ^ = 
STACK WIN 4 e589 10e 6 0 8 8 18 0 1 $T0 $ebp = $eip $T0 4 + ^ = $ebp $T0 ^ = $esp $T0 8 + =  $20 $T0 28 - ^ =  $23 $T0 32 - ^ = 
STACK WIN 4 e58f 107 0 0 8 c 18 0 1 $T0 $ebp = $eip $T0 4 + ^ = $ebp $T0 ^ = $esp $T0 8 + =  $20 $T0 28 - ^ =  $23 $T0 32 - ^ =  $24 $T0 36 - ^ = 
STACK WIN 4 e6e1 54 3 0 4 0 0 0 1 $T0 $ebp = $eip $T0 4 + ^ = $ebp $T0 ^ = $esp $T0 8 + = 
STACK WIN 4 e74a 14 3 0 4 0 0 0 1 $T0 $ebp = $eip $T0 4 + ^ = $ebp $T0 ^ = $esp $T0 8 + = 
STACK WIN 4 e763 118 14 0 4 0 20 0 1 $T0 $ebp = $eip $T0 4 + ^ = $ebp $T0 ^ = $esp $T0 8 + = 
STACK WIN 4 e776 103 1 0 4 4 20 0 1 $T0 $ebp = $eip $T0 4 + ^ = $ebp $T0 ^ = $esp $T0 8 + =  $20 $T0 36 - ^ = 
STACK WIN 4 e777 101 0 0 4 8 20 0 1 $T0 $ebp = $eip $T0 4 + ^ = $ebp $T0 ^ = $esp $T0 8 + =  $20 $T0 36 - ^ =  $24 $T0 40 - ^ = 
STACK WIN 4 e7d8 30 0 0 4 c 20 0 1 $T0 $ebp = $eip $T0 4 + ^ = $ebp $T0 ^ = $esp $T0 8 + =  $20 $T0 36 - ^ =  $24 $T0 40 - ^ =  $23 $T0 44 - ^ = 
STACK WIN 4 e8c1 11 3 0 4 0 0 0 1 $T0 $ebp = $eip $T0 4 + ^ = $ebp $T0 ^ = $esp $T0 8 + = 
STACK WIN 4 e8d6 f0 6 0 4 0 18 0 1 $T0 $ebp = $eip $T0 4 + ^ = $ebp $T0 ^ = $esp $T0 8 + = 
STACK WIN 4 ea02 1b7 1d 0 10 0 1c 0 1 $T0 $ebp = $eip $T0 4 + ^ = $ebp $T0 ^ = $esp $T0 8 + = 
STACK WIN 4 ea10 1a7 f 0 10 4 1c 0 1 $T0 $ebp = $eip $T0 4 + ^ = $ebp $T0 ^ = $esp $T0 8 + =  $20 $T0 32 - ^ = 
STACK WIN 4 ea17 19f 8 0 10 8 1c 0 1 $T0 $ebp = $eip $T0 4 + ^ = $ebp $T0 ^ = $esp $T0 8 + =  $20 $T0 32 - ^ =  $23 $T0 36 - ^ = 
STACK WIN 4 ea1f 196 0 0 10 c 1c 0 1 $T0 $ebp = $eip $T0 4 + ^ = $ebp $T0 ^ = $esp $T0 8 + =  $20 $T0 32 - ^ =  $23 $T0 36 - ^ =  $24 $T0 40 - ^ = 
STACK WIN 4 ec26 67 c 0 8 0 18 0 1 $T0 $ebp = $eip $T0 4 + ^ = $ebp $T0 ^ = $esp $T0 8 + = 
STACK WIN 4 ec32 59 0 0 8 4 18 0 1 $T0 $ebp = $eip $T0 4 + ^ = $ebp $T0 ^ = $esp $T0 8 + =  $23 $T0 28 - ^ = 
STACK WIN 4 eca6 3d8 11 0 8 0 3c 0 1 $T0 $ebp = $eip $T0 4 + ^ = $ebp $T0 ^ = $esp $T0 8 + = 
STACK WIN 4 ecb5 3c7 2 0 8 4 3c 0 1 $T0 $ebp = $eip $T0 4 + ^ = $ebp $T0 ^ = $esp $T0 8 + =  $20 $T0 64 - ^ = 
STACK WIN 4 ecb6 3c5 1 0 8 8 3c 0 1 $T0 $ebp = $eip $T0 4 + ^ = $ebp $T0 ^ = $esp $T0 8 + =  $20 $T0 64 - ^ =  $23 $T0 68 - ^ = 
STACK WIN 4 ecb7 3c3 0 0 8 c 3c 0 1 $T0 $ebp = $eip $T0 4 + ^ = $ebp $T0 ^ = $esp $T0 8 + =  $20 $T0 64 - ^ =  $23 $T0 68 - ^ =  $24 $T0 72 - ^ = 
STACK WIN 4 f174 14 3 0 4 0 0 0 1 $T0 $ebp = $eip $T0 4 + ^ = $ebp $T0 ^ = $esp $T0 8 + = 
STACK WIN 4 f18d 20 1 0 0 0 0 0 1 $T0 .raSearch = $eip $T0 ^ = $esp $T0 4 + = 
STACK WIN 4 f18e 1e 0 0 0 4 0 0 1 $T0 .raSearch = $eip $T0 ^ = $esp $T0 4 + =  $24 $T0 4 - ^ = 
STACK WIN 4 f19b 10 0 0 0 8 0 0 1 $T0 .raSearch = $eip $T0 ^ = $esp $T0 4 + =  $24 $T0 4 - ^ =  $23 $T0 8 - ^ = 
STACK WIN 4 f1b5 c 0 0 0 0 0 0 1 $T0 .raSearch = $eip $T0 ^ = $esp $T0 4 + = 
STACK WIN 4 f1c4 4 0 0 0 0 0 0 1 $T0 .raSearch = $eip $T0 ^ = $esp $T0 4 + = 
STACK WIN 4 f1c8 e 0 0 0 0 0 0 1 $T0 .raSearch = $eip $T0 ^ = $esp $T0 4 + = 
STACK WIN 4 f1d9 35 3 0 0 0 0 0 1 $T0 .raSearch = $eip $T0 ^ = $esp $T0 4 + = 
STACK WIN 4 f1da 33 2 0 0 4 0 0 1 $T0 .raSearch = $eip $T0 ^ = $esp $T0 4 + =  $20 $T0 4 - ^ = 
STACK WIN 4 f1dd 2f 0 0 0 8 0 0 1 $T0 .raSearch = $eip $T0 ^ = $esp $T0 4 + =  $20 $T0 4 - ^ =  $23 $T0 8 - ^ = 
STACK WIN 4 f1de 2d 0 0 0 c 0 0 1 $T0 .raSearch = $eip $T0 ^ = $esp $T0 4 + =  $20 $T0 4 - ^ =  $23 $T0 8 - ^ =  $24 $T0 12 - ^ = 
STACK WIN 4 f21b 12 0 0 0 0 0 0 1 $T0 .raSearch = $eip $T0 ^ = $esp $T0 4 + = 
STACK WIN 4 f231 3f a 0 4 0 18 0 1 $T0 $ebp = $eip $T0 4 + ^ = $ebp $T0 ^ = $esp $T0 8 + = 
STACK WIN 4 f23b 33 0 0 4 4 18 0 1 $T0 $ebp = $eip $T0 4 + ^ = $ebp $T0 ^ = $esp $T0 8 + =  $23 $T0 28 - ^ = 
STACK WIN 4 f27f 87 b 0 8 0 0 0 1 $T0 $ebp = $eip $T0 4 + ^ = $ebp $T0 ^ = $esp $T0 8 + = 
STACK WIN 4 f283 7b 7 0 8 4 0 0 1 $T0 $ebp = $eip $T0 4 + ^ = $ebp $T0 ^ = $esp $T0 8 + =  $20 $T0 4 - ^ = 
STACK WIN 4 f284 79 6 0 8 8 0 0 1 $T0 $ebp = $eip $T0 4 + ^ = $ebp $T0 ^ = $esp $T0 8 + =  $20 $T0 4 - ^ =  $23 $T0 8 - ^ = 
STACK WIN 4 f285 77 5 0 8 c 0 0 1 $T0 $ebp = $eip $T0 4 + ^ = $ebp $T0 ^ = $esp $T0 8 + =  $20 $T0 4 - ^ =  $23 $T0 8 - ^ =  $24 $T0 12 - ^ = 
STACK WIN 4 f327 45 3 0 4 0 0 0 1 $T0 $ebp = $eip $T0 4 + ^ = $ebp $T0 ^ = $esp $T0 8 + = 
STACK WIN 4 f37d 61 0 0 0 0 0 0 1 $T0 .raSearch = $eip $T0 ^ = $esp $T0 4 + = 
STACK WIN 4 f3f6 658 e 0 c 0 28 0 1 $T0 $ebp = $eip $T0 4 + ^ = $ebp $T0 ^ = $esp $T0 8 + = 
STACK WIN 4 f402 9b 2 0 c 4 28 0 1 $T0 $ebp = $eip $T0 4 + ^ = $ebp $T0 ^ = $esp $T0 8 + =  $20 $T0 44 - ^ = 
STACK WIN 4 f403 99 1 0 c 8 28 0 1 $T0 $ebp = $eip $T0 4 + ^ = $ebp $T0 ^ = $esp $T0 8 + =  $20 $T0 44 - ^ =  $23 $T0 48 - ^ = 
STACK WIN 4 f404 97 0 0 c c 28 0 1 $T0 $ebp = $eip $T0 4 + ^ = $ebp $T0 ^ = $esp $T0 8 + =  $20 $T0 44 - ^ =  $23 $T0 48 - ^ =  $24 $T0 52 - ^ = 
STACK WIN 4 fbe4 1e 3 0 c 0 0 0 1 $T0 $ebp = $eip $T0 4 + ^ = $ebp $T0 ^ = $esp $T0 8 + = 
STACK WIN 4 fc09 1e 3 0 c 0 0 0 1 $T0 $ebp = $eip $T0 4 + ^ = $ebp $T0 ^ = $esp $T0 8 + = 
STACK WIN 4 fc2e 1e4 e 0 8 0 10 0 1 $T0 $ebp = $eip $T0 4 + ^ = $ebp $T0 ^ = $esp $T0 8 + = 
STACK WIN 4 fc3b a9 1 0 8 4 10 0 1 $T0 $ebp = $eip $T0 4 + ^ = $ebp $T0 ^ = $esp $T0 8 + =  $23 $T0 20 - ^ = 
STACK WIN 4 fc3c a7 0 0 8 8 10 0 1 $T0 $ebp = $eip $T0 4 + ^ = $ebp $T0 ^ = $esp $T0 8 + =  $23 $T0 20 - ^ =  $24 $T0 24 - ^ = 
STACK WIN 4 fe8b 129 b 0 c 0 18 0 1 $T0 $ebp = $eip $T0 4 + ^ = $ebp $T0 ^ = $esp $T0 8 + = 
STACK WIN 4 ff42 56 0 0 c 4 18 0 1 $T0 $ebp = $eip $T0 4 + ^ = $ebp $T0 ^ = $esp $T0 8 + =  $23 $T0 28 - ^ = 
STACK WIN 4 fffe fa c 0 10 0 8 0 1 $T0 $ebp = $eip $T0 4 + ^ = $ebp $T0 ^ = $esp $T0 8 + = 
STACK WIN 4 10009 ed 1 0 10 4 8 0 1 $T0 $ebp = $eip $T0 4 + ^ = $ebp $T0 ^ = $esp $T0 8 + =  $23 $T0 12 - ^ = 
STACK WIN 4 1000a eb 0 0 10 8 8 0 1 $T0 $ebp = $eip $T0 4 + ^ = $ebp $T0 ^ = $esp $T0 8 + =  $23 $T0 12 - ^ =  $24 $T0 16 - ^ = 
STACK WIN 4 100c7 25 0 0 10 c 8 0 1 $T0 $ebp = $eip $T0 4 + ^ = $ebp $T0 ^ = $esp $T0 8 + =  $23 $T0 12 - ^ =  $24 $T0 16 - ^ =  $20 $T0 20 - ^ = 
STACK WIN 4 10136 1c 3 0 10 0 0 0 1 $T0 $ebp = $eip $T0 4 + ^ = $ebp $T0 ^ = $esp $T0 8 + = 
STACK WIN 4 10159 f9 e 0 4 0 8 0 1 $T0 $ebp = $eip $T0 4 + ^ = $ebp $T0 ^ = $esp $T0 8 + = 
STACK WIN 4 10165 eb 2 0 4 4 8 0 1 $T0 $ebp = $eip $T0 4 + ^ = $ebp $T0 ^ = $esp $T0 8 + =  $20 $T0 12 - ^ = 
STACK WIN 4 10166 e9 1 0 4 8 8 0 1 $T0 $ebp = $eip $T0 4 + ^ = $ebp $T0 ^ = $esp $T0 8 + =  $20 $T0 12 - ^ =  $23 $T0 16 - ^ = 
STACK WIN 4 10167 e5 0 0 4 c 8 0 1 $T0 $ebp = $eip $T0 4 + ^ = $ebp $T0 ^ = $esp $T0 8 + =  $20 $T0 12 - ^ =  $23 $T0 16 - ^ =  $24 $T0 20 - ^ = 
STACK WIN 4 10290 2f 3 0 8 0 0 0 1 $T0 $ebp = $eip $T0 4 + ^ = $ebp $T0 ^ = $esp $T0 8 + = 
STACK WIN 4 102ca 394 c 0 4 0 f0 0 1 $T0 $ebp = $eip $T0 4 + ^ = $ebp $T0 ^ = $esp $T0 8 + = 
STACK WIN 4 102d4 388 2 0 4 4 f0 0 1 $T0 $ebp = $eip $T0 4 + ^ = $ebp $T0 ^ = $esp $T0 8 + =  $20 $T0 244 - ^ = 
STACK WIN 4 102d5 386 1 0 4 8 f0 0 1 $T0 $ebp = $eip $T0 4 + ^ = $ebp $T0 ^ = $esp $T0 8 + =  $20 $T0 244 - ^ =  $23 $T0 248 - ^ = 
STACK WIN 4 102d6 384 0 0 4 c f0 0 1 $T0 $ebp = $eip $T0 4 + ^ = $ebp $T0 ^ = $esp $T0 8 + =  $20 $T0 244 - ^ =  $23 $T0 248 - ^ =  $24 $T0 252 - ^ = 
STACK WIN 4 10743 d4 f 0 4 0 18 0 1 $T0 $ebp = $eip $T0 4 + ^ = $ebp $T0 ^ = $esp $T0 8 + = 
STACK WIN 4 1074d c8 5 0 4 4 18 0 1 $T0 $ebp = $eip $T0 4 + ^ = $ebp $T0 ^ = $esp $T0 8 + =  $20 $T0 28 - ^ = 
STACK WIN 4 1074e c6 4 0 4 8 18 0 1 $T0 $ebp = $eip $T0 4 + ^ = $ebp $T0 ^ = $esp $T0 8 + =  $20 $T0 28 - ^ =  $23 $T0 32 - ^ = 
STACK WIN 4 10752 bf 0 0 4 c 18 0 1 $T0 $ebp = $eip $T0 4 + ^ = $ebp $T0 ^ = $esp $T0 8 + =  $20 $T0 28 - ^ =  $23 $T0 32 - ^ =  $24 $T0 36 - ^ = 
STACK WIN 4 1084c 51 5 0 4 0 8 0 1 $T0 $ebp = $eip $T0 4 + ^ = $ebp $T0 ^ = $esp $T0 8 + = 
STACK WIN 4 108b1 11 3 0 4 0 0 0 1 $T0 $ebp = $eip $T0 4 + ^ = $ebp $T0 ^ = $esp $T0 8 + = 
STACK WIN 4 108c6 2d 4 0 8 0 0 0 1 $T0 $ebp = $eip $T0 4 + ^ = $ebp $T0 ^ = $esp $T0 8 + = 
STACK WIN 4 108ca 25 0 0 8 4 0 0 1 $T0 $ebp = $eip $T0 4 + ^ = $ebp $T0 ^ = $esp $T0 8 + =  $24 $T0 4 - ^ = 
STACK WIN 4 108d8 16 0 0 8 8 0 0 1 $T0 $ebp = $eip $T0 4 + ^ = $ebp $T0 ^ = $esp $T0 8 + =  $24 $T0 4 - ^ =  $23 $T0 8 - ^ = 
STACK WIN 4 108fe 56 6 0 8 0 0 0 1 $T0 $ebp = $eip $T0 4 + ^ = $ebp $T0 ^ = $esp $T0 8 + = 
STACK WIN 4 10902 4e 2 0 8 4 0 0 1 $T0 $ebp = $eip $T0 4 + ^ = $ebp $T0 ^ = $esp $T0 8 + =  $20 $T0 4 - ^ = 
STACK WIN 4 10905 4a 0 0 8 8 0 0 1 $T0 $ebp = $eip $T0 4 + ^ = $ebp $T0 ^ = $esp $T0 8 + =  $20 $T0 4 - ^ =  $23 $T0 8 - ^ = 
STACK WIN 4 10909 43 0 0 8 c 0 0 1 $T0 $ebp = $eip $T0 4 + ^ = $ebp $T0 ^ = $esp $T0 8 + =  $20 $T0 4 - ^ =  $23 $T0 8 - ^ =  $24 $T0 12 - ^ = 
STACK WIN 4 10969 27 3 0 8 0 0 0 1 $T0 $ebp = $eip $T0 4 + ^ = $ebp $T0 ^ = $esp $T0 8 + = 
STACK WIN 4 10999 15 3 0 8 0 0 0 1 $T0 $ebp = $eip $T0 4 + ^ = $ebp $T0 ^ = $esp $T0 8 + = 
STACK WIN 4 109b3 17 3 0 8 0 0 0 1 $T0 $ebp = $eip $T0 4 + ^ = $ebp $T0 ^ = $esp $T0 8 + = 
STACK WIN 4 109cf 46 7 0 8 0 0 0 1 $T0 $ebp = $eip $T0 4 + ^ = $ebp $T0 ^ = $esp $T0 8 + = 
STACK WIN 4 109d3 3e 3 0 8 4 0 0 1 $T0 $ebp = $eip $T0 4 + ^ = $ebp $T0 ^ = $esp $T0 8 + =  $20 $T0 4 - ^ = 
STACK WIN 4 109d4 3c 2 0 8 8 0 0 1 $T0 $ebp = $eip $T0 4 + ^ = $ebp $T0 ^ = $esp $T0 8 + =  $20 $T0 4 - ^ =  $23 $T0 8 - ^ = 
STACK WIN 4 109d7 38 0 0 8 c 0 0 1 $T0 $ebp = $eip $T0 4 + ^ = $ebp $T0 ^ = $esp $T0 8 + =  $20 $T0 4 - ^ =  $23 $T0 8 - ^ =  $24 $T0 12 - ^ = 
STACK WIN 4 10a26 1b 3 0 8 0 0 0 1 $T0 $ebp = $eip $T0 4 + ^ = $ebp $T0 ^ = $esp $T0 8 + = 
STACK WIN 4 10a47 b0 6 0 c 0 10 0 1 $T0 $ebp = $eip $T0 4 + ^ = $ebp $T0 ^ = $esp $T0 8 + = 
STACK WIN 4 10b23 37 3 0 10 0 0 0 1 $T0 $ebp = $eip $T0 4 + ^ = $ebp $T0 ^ = $esp $T0 8 + = 
STACK WIN 4 10b3c 19 0 0 10 4 0 0 1 $T0 $ebp = $eip $T0 4 + ^ = $ebp $T0 ^ = $esp $T0 8 + =  $20 $T0 4 - ^ = 
STACK WIN 4 10b3d 17 0 0 10 8 0 0 1 $T0 $ebp = $eip $T0 4 + ^ = $ebp $T0 ^ = $esp $T0 8 + =  $20 $T0 4 - ^ =  $23 $T0 8 - ^ = 
STACK WIN 4 10b3e 15 0 0 10 c 0 0 1 $T0 $ebp = $eip $T0 4 + ^ = $ebp $T0 ^ = $esp $T0 8 + =  $20 $T0 4 - ^ =  $23 $T0 8 - ^ =  $24 $T0 12 - ^ = 
STACK WIN 4 10b67 48 3 0 4 0 0 0 1 $T0 $ebp = $eip $T0 4 + ^ = $ebp $T0 ^ = $esp $T0 8 + = 
STACK WIN 4 10bc1 29d 12 0 4 0 78 0 1 $T0 $ebp = $eip $T0 4 + ^ = $ebp $T0 ^ = $esp $T0 8 + = 
STACK WIN 4 10bd2 285 1 0 4 4 78 0 1 $T0 $ebp = $eip $T0 4 + ^ = $ebp $T0 ^ = $esp $T0 8 + =  $20 $T0 124 - ^ = 
STACK WIN 4 10bd3 27b 0 0 4 8 78 0 1 $T0 $ebp = $eip $T0 4 + ^ = $ebp $T0 ^ = $esp $T0 8 + =  $20 $T0 124 - ^ =  $24 $T0 128 - ^ = 
STACK WIN 4 10bf8 250 0 0 4 c 78 0 1 $T0 $ebp = $eip $T0 4 + ^ = $ebp $T0 ^ = $esp $T0 8 + =  $20 $T0 124 - ^ =  $24 $T0 128 - ^ =  $23 $T0 132 - ^ = 
STACK WIN 4 10f05 332 21 0 4 0 94 0 1 $T0 $ebp = $eip $T0 4 + ^ = $ebp $T0 ^ = $esp $T0 8 + = 
STACK WIN 4 10f1e 227 8 0 4 4 94 0 1 $T0 $ebp = $eip $T0 4 + ^ = $ebp $T0 ^ = $esp $T0 8 + =  $20 $T0 152 - ^ = 
STACK WIN 4 10f22 220 4 0 4 8 94 0 1 $T0 $ebp = $eip $T0 4 + ^ = $ebp $T0 ^ = $esp $T0 8 + =  $20 $T0 152 - ^ =  $23 $T0 156 - ^ = 
STACK WIN 4 10f26 21b 0 0 4 c 94 0 1 $T0 $ebp = $eip $T0 4 + ^ = $ebp $T0 ^ = $esp $T0 8 + =  $20 $T0 152 - ^ =  $23 $T0 156 - ^ =  $24 $T0 160 - ^ = 
STACK WIN 4 11303 162 e 0 8 0 b0 0 1 $T0 $ebp = $eip $T0 4 + ^ = $ebp $T0 ^ = $esp $T0 8 + = 
STACK WIN 4 11349 102 0 0 8 4 b0 0 1 $T0 $ebp = $eip $T0 4 + ^ = $ebp $T0 ^ = $esp $T0 8 + =  $20 $T0 180 - ^ = 
STACK WIN 4 11357 f3 0 0 8 8 b0 0 1 $T0 $ebp = $eip $T0 4 + ^ = $ebp $T0 ^ = $esp $T0 8 + =  $20 $T0 180 - ^ =  $24 $T0 184 - ^ = 
STACK WIN 4 113cb 34 0 0 8 c b0 0 1 $T0 $ebp = $eip $T0 4 + ^ = $ebp $T0 ^ = $esp $T0 8 + =  $20 $T0 180 - ^ =  $24 $T0 184 - ^ =  $23 $T0 188 - ^ = 
STACK WIN 4 114bd 33 6 0 4 0 10 0 1 $T0 $ebp = $eip $T0 4 + ^ = $ebp $T0 ^ = $esp $T0 8 + = 
STACK WIN 4 114fc 23 3 0 4 0 0 0 1 $T0 $ebp = $eip $T0 4 + ^ = $ebp $T0 ^ = $esp $T0 8 + = 
STACK WIN 4 11527 328 9 0 0 0 0 0 1 $T0 .raSearch = $eip $T0 ^ = $esp $T0 4 + = 
STACK WIN 4 1152e 2fb 2 0 0 4 0 0 1 $T0 .raSearch = $eip $T0 ^ = $esp $T0 4 + =  $20 $T0 4 - ^ = 
STACK WIN 4 1152f 2f9 1 0 0 8 0 0 1 $T0 .raSearch = $eip $T0 ^ = $esp $T0 4 + =  $20 $T0 4 - ^ =  $23 $T0 8 - ^ = 
STACK WIN 4 11530 2f7 0 0 0 c 0 0 1 $T0 .raSearch = $eip $T0 ^ = $esp $T0 4 + =  $20 $T0 4 - ^ =  $23 $T0 8 - ^ =  $24 $T0 12 - ^ = 
STACK WIN 4 11919 c4 6 0 8 0 10 0 1 $T0 $ebp = $eip $T0 4 + ^ = $ebp $T0 ^ = $esp $T0 8 + = 
STACK WIN 4 11975 64 0 0 8 4 10 0 1 $T0 $ebp = $eip $T0 4 + ^ = $ebp $T0 ^ = $esp $T0 8 + =  $23 $T0 20 - ^ = 
STACK WIN 4 11979 5d 0 0 8 8 10 0 1 $T0 $ebp = $eip $T0 4 + ^ = $ebp $T0 ^ = $esp $T0 8 + =  $23 $T0 20 - ^ =  $24 $T0 24 - ^ = 
STACK WIN 4 11a0e 47 3 0 4 0 0 0 1 $T0 $ebp = $eip $T0 4 + ^ = $ebp $T0 ^ = $esp $T0 8 + = 
STACK WIN 4 11a66 15 3 0 8 0 0 0 1 $T0 $ebp = $eip $T0 4 + ^ = $ebp $T0 ^ = $esp $T0 8 + = 
STACK WIN 4 11a80 54 9 0 8 0 8 0 1 $T0 $ebp = $eip $T0 4 + ^ = $ebp $T0 ^ = $esp $T0 8 + = 
STACK WIN 4 11a89 49 0 0 8 4 8 0 1 $T0 $ebp = $eip $T0 4 + ^ = $ebp $T0 ^ = $esp $T0 8 + =  $23 $T0 12 - ^ = 
STACK WIN 4 11ae9 163 c 0 8 0 20 0 1 $T0 $ebp = $eip $T0 4 + ^ = $ebp $T0 ^ = $esp $T0 8 + = 
STACK WIN 4 11af5 155 0 0 8 4 20 0 1 $T0 $ebp = $eip $T0 4 + ^ = $ebp $T0 ^ = $esp $T0 8 + =  $24 $T0 36 - ^ = 
STACK WIN 4 11b5d 9b 0 0 8 8 20 0 1 $T0 $ebp = $eip $T0 4 + ^ = $ebp $T0 ^ = $esp $T0 8 + =  $24 $T0 36 - ^ =  $20 $T0 40 - ^ = 
STACK WIN 4 11b5e 99 0 0 8 c 20 0 1 $T0 $ebp = $eip $T0 4 + ^ = $ebp $T0 ^ = $esp $T0 8 + =  $24 $T0 36 - ^ =  $20 $T0 40 - ^ =  $23 $T0 44 - ^ = 
STACK WIN 4 11ca4 1ff 18 0 c 0 40 0 1 $T0 $ebp = $eip $T0 4 + ^ = $ebp $T0 ^ = $esp $T0 8 + = 
STACK WIN 4 11cb5 1e7 7 0 c 4 40 0 1 $T0 $ebp = $eip $T0 4 + ^ = $ebp $T0 ^ = $esp $T0 8 + =  $23 $T0 68 - ^ = 
STACK WIN 4 11cbc 1dd 0 0 c 8 40 0 1 $T0 $ebp = $eip $T0 4 + ^ = $ebp $T0 ^ = $esp $T0 8 + =  $23 $T0 68 - ^ =  $24 $T0 72 - ^ = 
STACK WIN 4 11d3f 12f 0 0 c c 40 0 1 $T0 $ebp = $eip $T0 4 + ^ = $ebp $T0 ^ = $esp $T0 8 + =  $23 $T0 68 - ^ =  $24 $T0 72 - ^ =  $20 $T0 76 - ^ = 
STACK WIN 4 11f22 b 0 0 0 0 0 0 1 $T0 .raSearch = $eip $T0 ^ = $esp $T0 4 + = 
STACK WIN 4 11f2f a 0 0 0 0 0 0 1 $T0 .raSearch = $eip $T0 ^ = $esp $T0 4 + = 
STACK WIN 4 11f3b a 0 0 0 0 0 0 1 $T0 .raSearch = $eip $T0 ^ = $esp $T0 4 + = 
STACK WIN 4 11f47 8 0 0 0 0 0 0 1 $T0 .raSearch = $eip $T0 ^ = $esp $T0 4 + = 
STACK WIN 4 11f51 9 0 0 0 0 0 0 1 $T0 .raSearch = $eip $T0 ^ = $esp $T0 4 + = 
STACK WIN 4 11f5c a 0 0 0 0 0 0 1 $T0 .raSearch = $eip $T0 ^ = $esp $T0 4 + = 
STACK WIN 4 11f68 a 0 0 0 0 0 0 1 $T0 .raSearch = $eip $T0 ^ = $esp $T0 4 + = 
STACK WIN 4 11f74 a 0 0 0 0 0 0 1 $T0 .raSearch = $eip $T0 ^ = $esp $T0 4 + = 
STACK WIN 4 11f80 11 0 0 0 0 0 0 1 $T0 .raSearch = $eip $T0 ^ = $esp $T0 4 + = 
STACK WIN 4 11f95 11 0 0 0 0 0 0 1 $T0 .raSearch = $eip $T0 ^ = $esp $T0 4 + = 
STACK WIN 4 11faa a 0 0 0 0 0 0 1 $T0 .raSearch = $eip $T0 ^ = $esp $T0 4 + = 
STACK WIN 4 11fb6 a 0 0 0 0 0 0 1 $T0 .raSearch = $eip $T0 ^ = $esp $T0 4 + = 
STACK WIN 4 11fc2 1f 1 0 0 0 0 0 1 $T0 .raSearch = $eip $T0 ^ = $esp $T0 4 + = 
STACK WIN 4 11fc3 1d 0 0 0 4 0 0 1 $T0 .raSearch = $eip $T0 ^ = $esp $T0 4 + =  $24 $T0 4 - ^ = 
STACK WIN 4 11fd0 f 0 0 0 8 0 0 1 $T0 .raSearch = $eip $T0 ^ = $esp $T0 4 + =  $24 $T0 4 - ^ =  $23 $T0 8 - ^ = 
STACK WIN 4 11fe8 4 0 0 0 0 0 0 1 $T0 .raSearch = $eip $T0 ^ = $esp $T0 4 + = 
STACK WIN 4 11fec 4 0 0 0 0 0 0 1 $T0 .raSearch = $eip $T0 ^ = $esp $T0 4 + = 
STACK WIN 4 11ff0 e 0 0 0 0 0 0 1 $T0 .raSearch = $eip $T0 ^ = $esp $T0 4 + = 
STACK WIN 4 12001 46 a 0 0 0 4 0 1 $T0 $ebp = $eip $T0 4 + ^ = $ebp $T0 ^ = $esp $T0 8 + = 
STACK WIN 4 12010 32 0 0 0 4 4 0 1 $T0 $ebp = $eip $T0 4 + ^ = $ebp $T0 ^ = $esp $T0 8 + =  $20 $T0 8 - ^ = 
STACK WIN 4 12014 2d 0 0 0 8 4 0 1 $T0 $ebp = $eip $T0 4 + ^ = $ebp $T0 ^ = $esp $T0 8 + =  $20 $T0 8 - ^ =  $23 $T0 12 - ^ = 
STACK WIN 4 12015 2b 0 0 0 c 4 0 1 $T0 $ebp = $eip $T0 4 + ^ = $ebp $T0 ^ = $esp $T0 8 + =  $20 $T0 8 - ^ =  $23 $T0 12 - ^ =  $24 $T0 16 - ^ = 
STACK WIN 4 12058 4 0 0 0 0 0 0 1 $T0 .raSearch = $eip $T0 ^ = $esp $T0 4 + = 
STACK WIN 4 1205c 1c 3 0 4 0 0 0 1 $T0 $ebp = $eip $T0 4 + ^ = $ebp $T0 ^ = $esp $T0 8 + = 
STACK WIN 4 1207f ee e 0 4 0 18 0 1 $T0 $ebp = $eip $T0 4 + ^ = $ebp $T0 ^ = $esp $T0 8 + = 
STACK WIN 4 1208d de 0 0 4 4 18 0 1 $T0 $ebp = $eip $T0 4 + ^ = $ebp $T0 ^ = $esp $T0 8 + =  $24 $T0 28 - ^ = 
STACK WIN 4 120b9 2f 0 0 4 8 18 0 1 $T0 $ebp = $eip $T0 4 + ^ = $ebp $T0 ^ = $esp $T0 8 + =  $24 $T0 28 - ^ =  $23 $T0 32 - ^ = 
STACK WIN 4 121a8 8 0 0 0 0 0 0 1 $T0 .raSearch = $eip $T0 ^ = $esp $T0 4 + = 
STACK WIN 4 121b2 8 0 0 0 0 0 0 1 $T0 .raSearch = $eip $T0 ^ = $esp $T0 4 + = 
STACK WIN 4 121bc 8 0 0 0 0 0 0 1 $T0 .raSearch = $eip $T0 ^ = $esp $T0 4 + = 
STACK WIN 4 121c6 8 0 0 0 0 0 0 1 $T0 .raSearch = $eip $T0 ^ = $esp $T0 4 + = 
STACK WIN 4 121d0 d 0 0 0 0 0 0 1 $T0 .raSearch = $eip $T0 ^ = $esp $T0 4 + = 
STACK WIN 4 121e0 8 0 0 0 0 0 0 1 $T0 .raSearch = $eip $T0 ^ = $esp $T0 4 + = 
STACK WIN 4 121ea a 0 0 0 0 0 0 1 $T0 .raSearch = $eip $T0 ^ = $esp $T0 4 + = 
STACK WIN 4 121f6 5 0 0 0 0 0 0 1 $T0 .raSearch = $eip $T0 ^ = $esp $T0 4 + = 
STACK WIN 4 121fb 21 3 0 c 0 0 0 1 $T0 $ebp = $eip $T0 4 + ^ = $ebp $T0 ^ = $esp $T0 8 + = 
STACK WIN 4 12209 11 0 0 c 4 0 0 1 $T0 $ebp = $eip $T0 4 + ^ = $ebp $T0 ^ = $esp $T0 8 + =  $23 $T0 4 - ^ = 
STACK WIN 4 12224 15 3 0 4 0 0 0 1 $T0 $ebp = $eip $T0 4 + ^ = $ebp $T0 ^ = $esp $T0 8 + = 
STACK WIN 4 1223e 31 3 0 c 0 0 0 1 $T0 $ebp = $eip $T0 4 + ^ = $ebp $T0 ^ = $esp $T0 8 + = 
STACK WIN 4 12251 1c 0 0 c 4 0 0 1 $T0 $ebp = $eip $T0 4 + ^ = $ebp $T0 ^ = $esp $T0 8 + =  $20 $T0 4 - ^ = 
STACK WIN 4 1227b 23 3 0 18 0 0 0 1 $T0 $ebp = $eip $T0 4 + ^ = $ebp $T0 ^ = $esp $T0 8 + = 
STACK WIN 4 122a6 9f c 0 1c 10 74 0 1 $T0 $ebp = $eip $T0 4 + ^ = $ebp $T0 ^ = $esp $T0 8 + =  $20 $T0 120 - ^ =  $23 $T0 124 - ^ =  $24 $T0 128 - ^ = 
STACK WIN 4 12338 c 0 0 1c 10 74 0 1 $T0 $ebp = $T2 $esp = $T1 .raSearchStart = $eip $T1 ^ = $ebp $T0 = $esp $T1 4 + = 
STACK WIN 4 1236c 2d 3 0 14 0 0 0 1 $T0 $ebp = $eip $T0 4 + ^ = $ebp $T0 ^ = $esp $T0 8 + = 
STACK WIN 4 123a4 1c 3 0 c 0 0 0 1 $T0 $ebp = $eip $T0 4 + ^ = $ebp $T0 ^ = $esp $T0 8 + = 
STACK WIN 4 123c7 5c 9 0 18 0 58 0 1 $T0 $ebp = $eip $T0 4 + ^ = $ebp $T0 ^ = $esp $T0 8 + = 
STACK WIN 4 123d7 4a 0 0 18 4 58 0 1 $T0 $ebp = $eip $T0 4 + ^ = $ebp $T0 ^ = $esp $T0 8 + =  $23 $T0 92 - ^ = 
STACK WIN 4 1243a 10 3 0 4 0 0 0 1 $T0 $ebp = $eip $T0 4 + ^ = $ebp $T0 ^ = $esp $T0 8 + = 
STACK WIN 4 1244e e 3 0 4 0 0 0 1 $T0 $ebp = $eip $T0 4 + ^ = $ebp $T0 ^ = $esp $T0 8 + = 
STACK WIN 4 1245f f 3 0 0 0 0 0 1 $T0 .raSearch = $eip $T0 ^ = $esp $T0 4 + = 
STACK WIN 4 12460 d 2 0 0 4 0 0 1 $T0 .raSearch = $eip $T0 ^ = $esp $T0 4 + =  $23 $T0 4 - ^ = 
STACK WIN 4 12471 10 3 0 0 0 0 0 1 $T0 .raSearch = $eip $T0 ^ = $esp $T0 4 + = 
STACK WIN 4 12472 e 2 0 0 4 0 0 1 $T0 .raSearch = $eip $T0 ^ = $esp $T0 4 + =  $23 $T0 4 - ^ = 
STACK WIN 4 12485 9 0 0 0 0 0 0 1 $T0 .raSearch = $eip $T0 ^ = $esp $T0 4 + = 
STACK WIN 4 12490 7 0 0 0 0 0 0 1 $T0 .raSearch = $eip $T0 ^ = $esp $T0 4 + = 
STACK WIN 4 12497 6 0 0 0 0 0 0 1 $T0 .raSearch = $eip $T0 ^ = $esp $T0 4 + = 
STACK WIN 4 1249d 3 0 0 0 0 0 0 1 $T0 .raSearch = $eip $T0 ^ = $esp $T0 4 + = 
STACK WIN 4 124a0 7 0 0 0 0 0 0 1 $T0 .raSearch = $eip $T0 ^ = $esp $T0 4 + = 
STACK WIN 4 124a7 10 3 0 0 0 0 0 1 $T0 .raSearch = $eip $T0 ^ = $esp $T0 4 + = 
STACK WIN 4 124a8 e 2 0 0 4 0 0 1 $T0 .raSearch = $eip $T0 ^ = $esp $T0 4 + =  $23 $T0 4 - ^ = 
STACK WIN 4 124bb 1a 3 0 4 0 0 0 1 $T0 $ebp = $eip $T0 4 + ^ = $ebp $T0 ^ = $esp $T0 8 + = 
STACK WIN 4 124db 1c 3 0 4 0 0 0 1 $T0 $ebp = $eip $T0 4 + ^ = $ebp $T0 ^ = $esp $T0 8 + = 
STACK WIN 4 124fe 36 3 0 4 0 0 0 1 $T0 $ebp = $eip $T0 4 + ^ = $ebp $T0 ^ = $esp $T0 8 + = 
STACK WIN 4 1250c 26 0 0 4 4 0 0 1 $T0 $ebp = $eip $T0 4 + ^ = $ebp $T0 ^ = $esp $T0 8 + =  $23 $T0 4 - ^ = 
STACK WIN 4 12541 e 0 0 0 0 0 0 1 $T0 .raSearch = $eip $T0 ^ = $esp $T0 4 + = 
STACK WIN 4 12552 92 0 0 0 0 0 0 1 $T0 .raSearch = $eip $T0 ^ = $esp $T0 4 + = 
STACK WIN 4 1255f 84 0 0 0 4 0 0 1 $T0 .raSearch = $eip $T0 ^ = $esp $T0 4 + =  $20 $T0 4 - ^ = 
STACK WIN 4 12560 80 0 0 0 8 0 0 1 $T0 .raSearch = $eip $T0 ^ = $esp $T0 4 + =  $20 $T0 4 - ^ =  $24 $T0 8 - ^ = 
STACK WIN 4 12597 41 0 0 0 c 0 0 1 $T0 .raSearch = $eip $T0 ^ = $esp $T0 4 + =  $20 $T0 4 - ^ =  $24 $T0 8 - ^ =  $23 $T0 12 - ^ = 
STACK WIN 4 12608 37 0 0 0 0 0 0 1 $T0 .raSearch = $eip $T0 ^ = $esp $T0 4 + = 
STACK WIN 4 12615 29 0 0 0 4 0 0 1 $T0 .raSearch = $eip $T0 ^ = $esp $T0 4 + =  $23 $T0 4 - ^ = 
STACK WIN 4 12616 27 0 0 0 8 0 0 1 $T0 .raSearch = $eip $T0 ^ = $esp $T0 4 + =  $23 $T0 4 - ^ =  $24 $T0 8 - ^ = 
STACK WIN 4 1264c 33 0 0 0 0 0 0 1 $T0 .raSearch = $eip $T0 ^ = $esp $T0 4 + = 
STACK WIN 4 1268b 1b 0 0 0 0 0 0 1 $T0 .raSearch = $eip $T0 ^ = $esp $T0 4 + = 
STACK WIN 4 126ac 3c 2 0 0 0 0 0 1 $T0 .raSearch = $eip $T0 ^ = $esp $T0 4 + = 
STACK WIN 4 126ad 3a 1 0 0 4 0 0 1 $T0 .raSearch = $eip $T0 ^ = $esp $T0 4 + =  $23 $T0 4 - ^ = 
STACK WIN 4 126ae 38 0 0 0 8 0 0 1 $T0 .raSearch = $eip $T0 ^ = $esp $T0 4 + =  $23 $T0 4 - ^ =  $24 $T0 8 - ^ = 
STACK WIN 4 126f7 15 3 0 4 0 0 0 1 $T0 $ebp = $eip $T0 4 + ^ = $ebp $T0 ^ = $esp $T0 8 + = 
STACK WIN 4 12711 2f 1 0 0 0 0 0 1 $T0 .raSearch = $eip $T0 ^ = $esp $T0 4 + = 
STACK WIN 4 12712 2d 0 0 0 4 0 0 1 $T0 .raSearch = $eip $T0 ^ = $esp $T0 4 + =  $23 $T0 4 - ^ = 
STACK WIN 4 12720 1c 0 0 0 8 0 0 1 $T0 .raSearch = $eip $T0 ^ = $esp $T0 4 + =  $23 $T0 4 - ^ =  $24 $T0 8 - ^ = 
STACK WIN 4 1274b 15 3 0 4 0 0 0 1 $T0 $ebp = $eip $T0 4 + ^ = $ebp $T0 ^ = $esp $T0 8 + = 
STACK WIN 4 12765 6 0 0 0 0 0 0 1 $T0 .raSearch = $eip $T0 ^ = $esp $T0 4 + = 
STACK WIN 4 1276b 14 3 0 4 0 0 0 1 $T0 $ebp = $eip $T0 4 + ^ = $ebp $T0 ^ = $esp $T0 8 + = 
STACK WIN 4 12784 1d 3 0 4 0 0 0 1 $T0 $ebp = $eip $T0 4 + ^ = $ebp $T0 ^ = $esp $T0 8 + = 
STACK WIN 4 127a8 d 3 0 8 0 0 0 1 $T0 $ebp = $eip $T0 4 + ^ = $ebp $T0 ^ = $esp $T0 8 + = 
STACK WIN 4 127b8 d 3 0 8 0 0 0 1 $T0 $ebp = $eip $T0 4 + ^ = $ebp $T0 ^ = $esp $T0 8 + = 
STACK WIN 4 127c8 d 3 0 8 0 0 0 1 $T0 $ebp = $eip $T0 4 + ^ = $ebp $T0 ^ = $esp $T0 8 + = 
STACK WIN 4 127d8 a 3 0 4 0 0 0 1 $T0 $ebp = $eip $T0 4 + ^ = $ebp $T0 ^ = $esp $T0 8 + = 
STACK WIN 4 127e4 a 3 0 4 0 0 0 1 $T0 $ebp = $eip $T0 4 + ^ = $ebp $T0 ^ = $esp $T0 8 + = 
STACK WIN 4 127f0 9 4 0 4 0 4 0 1 $T0 $ebp = $eip $T0 4 + ^ = $ebp $T0 ^ = $esp $T0 8 + = 
STACK WIN 4 127fb 4 0 0 0 0 0 0 1 $T0 .raSearch = $eip $T0 ^ = $esp $T0 4 + = 
STACK WIN 4 127ff 1a 0 0 0 0 0 0 1 $T0 .raSearch = $eip $T0 ^ = $esp $T0 4 + = 
STACK WIN 4 1281f 1a 0 0 0 0 0 0 1 $T0 .raSearch = $eip $T0 ^ = $esp $T0 4 + = 
STACK WIN 4 1283f 1a 0 0 0 0 0 0 1 $T0 .raSearch = $eip $T0 ^ = $esp $T0 4 + = 
STACK WIN 4 1285f 1a 0 0 0 0 0 0 1 $T0 .raSearch = $eip $T0 ^ = $esp $T0 4 + = 
STACK WIN 4 1287f 1a 0 0 0 0 0 0 1 $T0 .raSearch = $eip $T0 ^ = $esp $T0 4 + = 
STACK WIN 4 1289f c4 7 0 8 0 4 0 1 $T0 $ebp = $eip $T0 4 + ^ = $ebp $T0 ^ = $esp $T0 8 + = 
STACK WIN 4 128a4 b9 2 0 8 4 4 0 1 $T0 $ebp = $eip $T0 4 + ^ = $ebp $T0 ^ = $esp $T0 8 + =  $20 $T0 8 - ^ = 
STACK WIN 4 128a5 b7 1 0 8 8 4 0 1 $T0 $ebp = $eip $T0 4 + ^ = $ebp $T0 ^ = $esp $T0 8 + =  $20 $T0 8 - ^ =  $23 $T0 12 - ^ = 
STACK WIN 4 128a6 b5 0 0 8 c 4 0 1 $T0 $ebp = $eip $T0 4 + ^ = $ebp $T0 ^ = $esp $T0 8 + =  $20 $T0 8 - ^ =  $23 $T0 12 - ^ =  $24 $T0 16 - ^ = 
STACK WIN 4 12994 6f 7 0 10 0 0 0 1 $T0 $ebp = $eip $T0 4 + ^ = $ebp $T0 ^ = $esp $T0 8 + = 
STACK WIN 4 1299b 66 0 0 10 4 0 0 1 $T0 $ebp = $eip $T0 4 + ^ = $ebp $T0 ^ = $esp $T0 8 + =  $24 $T0 4 - ^ = 
STACK WIN 4 129c5 3b 0 0 10 8 0 0 1 $T0 $ebp = $eip $T0 4 + ^ = $ebp $T0 ^ = $esp $T0 8 + =  $24 $T0 4 - ^ =  $23 $T0 8 - ^ = 
STACK WIN 4 12a1e 4f 7 0 4 0 0 0 1 $T0 $ebp = $eip $T0 4 + ^ = $ebp $T0 ^ = $esp $T0 8 + = 
STACK WIN 4 12a25 46 0 0 4 4 0 0 1 $T0 $ebp = $eip $T0 4 + ^ = $ebp $T0 ^ = $esp $T0 8 + =  $24 $T0 4 - ^ = 
STACK WIN 4 12a3e 2c 0 0 4 8 0 0 1 $T0 $ebp = $eip $T0 4 + ^ = $ebp $T0 ^ = $esp $T0 8 + =  $24 $T0 4 - ^ =  $23 $T0 8 - ^ = 
STACK WIN 4 12a80 22 3 0 c 0 0 0 1 $T0 $ebp = $eip $T0 4 + ^ = $ebp $T0 ^ = $esp $T0 8 + = 
STACK WIN 4 12aaa 61 3 0 4 0 0 0 1 $T0 $ebp = $eip $T0 4 + ^ = $ebp $T0 ^ = $esp $T0 8 + = 
STACK WIN 4 12b23 3b 4 0 4 0 0 0 1 $T0 $ebp = $eip $T0 4 + ^ = $ebp $T0 ^ = $esp $T0 8 + = 
STACK WIN 4 12b27 30 0 0 4 4 0 0 1 $T0 $ebp = $eip $T0 4 + ^ = $ebp $T0 ^ = $esp $T0 8 + =  $23 $T0 4 - ^ = 
STACK WIN 4 12b6c 3b 4 0 4 0 0 0 1 $T0 $ebp = $eip $T0 4 + ^ = $ebp $T0 ^ = $esp $T0 8 + = 
STACK WIN 4 12b70 35 0 0 4 4 0 0 1 $T0 $ebp = $eip $T0 4 + ^ = $ebp $T0 ^ = $esp $T0 8 + =  $23 $T0 4 - ^ = 
STACK WIN 4 12bb5 3b 4 0 4 0 0 0 1 $T0 $ebp = $eip $T0 4 + ^ = $ebp $T0 ^ = $esp $T0 8 + = 
STACK WIN 4 12bb9 35 0 0 4 4 0 0 1 $T0 $ebp = $eip $T0 4 + ^ = $ebp $T0 ^ = $esp $T0 8 + =  $23 $T0 4 - ^ = 
STACK WIN 4 12bfe 3e 4 0 8 0 0 0 1 $T0 $ebp = $eip $T0 4 + ^ = $ebp $T0 ^ = $esp $T0 8 + = 
STACK WIN 4 12c02 38 0 0 8 4 0 0 1 $T0 $ebp = $eip $T0 4 + ^ = $ebp $T0 ^ = $esp $T0 8 + =  $23 $T0 4 - ^ = 
STACK WIN 4 12c4b 47 4 0 c 0 0 0 1 $T0 $ebp = $eip $T0 4 + ^ = $ebp $T0 ^ = $esp $T0 8 + = 
STACK WIN 4 12c4f 41 0 0 c 4 0 0 1 $T0 $ebp = $eip $T0 4 + ^ = $ebp $T0 ^ = $esp $T0 8 + =  $23 $T0 4 - ^ = 
STACK WIN 4 12ca3 29 f 0 0 0 0 0 1 $T0 .raSearch = $eip $T0 ^ = $esp $T0 4 + = 
STACK WIN 4 12cb2 19 0 0 0 4 0 0 1 $T0 .raSearch = $eip $T0 ^ = $esp $T0 4 + =  $23 $T0 4 - ^ = 
STACK WIN 4 12cd6 32 3 0 4 0 0 0 1 $T0 $ebp = $eip $T0 4 + ^ = $ebp $T0 ^ = $esp $T0 8 + = 
STACK WIN 4 12ce0 26 0 0 4 4 0 0 1 $T0 $ebp = $eip $T0 4 + ^ = $ebp $T0 ^ = $esp $T0 8 + =  $23 $T0 4 - ^ = 
STACK WIN 4 12d14 6 0 0 0 0 0 0 1 $T0 .raSearch = $eip $T0 ^ = $esp $T0 4 + = 
STACK WIN 4 12d1a 1d 3 0 4 0 0 0 1 $T0 $ebp = $eip $T0 4 + ^ = $ebp $T0 ^ = $esp $T0 8 + = 
STACK WIN 4 12d3e b 0 0 0 0 0 0 1 $T0 .raSearch = $eip $T0 ^ = $esp $T0 4 + = 
STACK WIN 4 12edd 14 3 0 4 0 0 0 1 $T0 $ebp = $eip $T0 4 + ^ = $ebp $T0 ^ = $esp $T0 8 + = 
STACK WIN 4 12ef6 d 3 0 8 0 0 0 1 $T0 $ebp = $eip $T0 4 + ^ = $ebp $T0 ^ = $esp $T0 8 + = 
STACK WIN 4 12f06 a 3 0 4 0 0 0 1 $T0 $ebp = $eip $T0 4 + ^ = $ebp $T0 ^ = $esp $T0 8 + = 
STACK WIN 4 12f12 15 0 0 0 0 0 0 1 $T0 .raSearch = $eip $T0 ^ = $esp $T0 4 + = 
STACK WIN 4 12f2c 1c 1 0 0 4 0 0 1 $T0 .raSearch = $eip $T0 ^ = $esp $T0 4 + =  $23 $T0 4 - ^ = 
STACK WIN 4 12f4f 25 3 0 4 0 0 0 1 $T0 $ebp = $eip $T0 4 + ^ = $ebp $T0 ^ = $esp $T0 8 + = 
STACK WIN 4 12f7d 24 3 0 8 0 0 0 1 $T0 $ebp = $eip $T0 4 + ^ = $ebp $T0 ^ = $esp $T0 8 + = 
STACK WIN 4 12faa 8 3 0 4 0 0 0 1 $T0 $ebp = $eip $T0 4 + ^ = $ebp $T0 ^ = $esp $T0 8 + = 
STACK WIN 4 12fb4 14 3 0 8 0 0 0 1 $T0 $ebp = $eip $T0 4 + ^ = $ebp $T0 ^ = $esp $T0 8 + = 
STACK WIN 4 12fcd 82 e 0 10 0 8 0 1 $T0 $ebp = $eip $T0 4 + ^ = $ebp $T0 ^ = $esp $T0 8 + = 
STACK WIN 4 12fd3 74 8 0 10 4 8 0 1 $T0 $ebp = $eip $T0 4 + ^ = $ebp $T0 ^ = $esp $T0 8 + =  $20 $T0 12 - ^ = 
STACK WIN 4 12fd7 64 4 0 10 8 8 0 1 $T0 $ebp = $eip $T0 4 + ^ = $ebp $T0 ^ = $esp $T0 8 + =  $20 $T0 12 - ^ =  $23 $T0 16 - ^ = 
STACK WIN 4 12fdb 5f 0 0 10 c 8 0 1 $T0 $ebp = $eip $T0 4 + ^ = $ebp $T0 ^ = $esp $T0 8 + =  $20 $T0 12 - ^ =  $23 $T0 16 - ^ =  $24 $T0 20 - ^ = 
STACK WIN 4 13049 6 0 0 10 c 8 0 1 $T0 $ebp = $eip $T0 4 + ^ = $ebp $T0 ^ = $esp $T0 8 + =  $20 $T0 12 - ^ =  $23 $T0 16 - ^ =  $24 $T0 20 - ^ = 
STACK WIN 4 1306f 5e 6 0 14 0 18 0 1 $T0 $ebp = $eip $T0 4 + ^ = $ebp $T0 ^ = $esp $T0 8 + = 
STACK WIN 4 130e4 db 7 0 1c 4 38 0 1 $T0 $ebp = $eip $T0 4 + ^ = $ebp $T0 ^ = $esp $T0 8 + =  $20 $T0 60 - ^ = 
STACK WIN 4 131f5 30 5 0 8 4 4 0 1 $T0 $ebp = $eip $T0 4 + ^ = $ebp $T0 ^ = $esp $T0 8 + =  $20 $T0 8 - ^ = 
STACK WIN 4 13231 53 8 0 8 c 8 0 1 $T0 $ebp = $eip $T0 4 + ^ = $ebp $T0 ^ = $esp $T0 8 + =  $20 $T0 12 - ^ =  $23 $T0 16 - ^ =  $24 $T0 20 - ^ = 
STACK WIN 4 13298 3 0 0 0 0 0 0 1 $T0 .raSearch = $eip $T0 ^ = $esp $T0 4 + = 
STACK WIN 4 1329b 31 4 0 10 0 0 0 1 $T0 $ebp = $eip $T0 4 + ^ = $ebp $T0 ^ = $esp $T0 8 + = 
STACK WIN 4 1329f 2b 0 0 10 4 0 0 1 $T0 $ebp = $eip $T0 4 + ^ = $ebp $T0 ^ = $esp $T0 8 + =  $23 $T0 4 - ^ = 
STACK WIN 4 132d8 24 7 0 8 0 0 0 1 $T0 $ebp = $eip $T0 4 + ^ = $ebp $T0 ^ = $esp $T0 8 + = 
STACK WIN 4 132df 1b 0 0 8 4 0 0 1 $T0 $ebp = $eip $T0 4 + ^ = $ebp $T0 ^ = $esp $T0 8 + =  $23 $T0 4 - ^ = 
STACK WIN 4 13305 45 4 0 4 0 0 0 1 $T0 $ebp = $eip $T0 4 + ^ = $ebp $T0 ^ = $esp $T0 8 + = 
STACK WIN 4 13309 13 0 0 4 4 0 0 1 $T0 $ebp = $eip $T0 4 + ^ = $ebp $T0 ^ = $esp $T0 8 + =  $23 $T0 4 - ^ = 
STACK WIN 4 1335b 9d 5 0 10 4 4 0 1 $T0 $ebp = $eip $T0 4 + ^ = $ebp $T0 ^ = $esp $T0 8 + =  $20 $T0 8 - ^ = 
STACK WIN 4 1341f 36 0 0 10 0 0 0 1 $T0 .raSearch = $eip $T0 ^ = $esp $T0 4 + = 
STACK WIN 4 13462 36 0 0 10 0 0 0 1 $T0 .raSearch = $eip $T0 ^ = $esp $T0 4 + = 
STACK WIN 4 134a5 36 0 0 10 0 0 0 1 $T0 .raSearch = $eip $T0 ^ = $esp $T0 4 + = 
STACK WIN 4 134e8 25 4 0 4 0 0 0 1 $T0 $ebp = $eip $T0 4 + ^ = $ebp $T0 ^ = $esp $T0 8 + = 
STACK WIN 4 134ec 1d 0 0 4 4 0 0 1 $T0 $ebp = $eip $T0 4 + ^ = $ebp $T0 ^ = $esp $T0 8 + =  $23 $T0 4 - ^ = 
STACK WIN 4 13bf1 13f c 0 10 10 20 0 1 $T0 $ebp = $eip $T0 4 + ^ = $ebp $T0 ^ = $esp $T0 8 + =  $20 $T0 36 - ^ =  $23 $T0 40 - ^ =  $24 $T0 44 - ^ = 
STACK WIN 4 13d0f 4 0 0 10 10 20 0 1 $T0 $ebp = $T2 $esp = $T1 .raSearchStart = $eip $T1 ^ = $ebp $T0 = $esp $T1 4 + = 
STACK WIN 4 13d7f 99 c 0 10 10 18 0 1 $T0 $ebp = $eip $T0 4 + ^ = $ebp $T0 ^ = $esp $T0 8 + =  $20 $T0 28 - ^ =  $23 $T0 32 - ^ =  $24 $T0 36 - ^ = 
STACK WIN 4 13e0b 4 0 0 10 10 18 0 1 $T0 $ebp = $T2 $esp = $T1 .raSearchStart = $eip $T1 ^ = $ebp $T0 = $esp $T1 4 + = 
STACK WIN 4 13e3e 80 d 0 2c 0 0 0 1 $T0 $ebp = $eip $T0 4 + ^ = $ebp $T0 ^ = $esp $T0 8 + = 
STACK WIN 4 13e46 76 5 0 2c 4 0 0 1 $T0 $ebp = $eip $T0 4 + ^ = $ebp $T0 ^ = $esp $T0 8 + =  $20 $T0 4 - ^ = 
STACK WIN 4 13e4a 71 1 0 2c 8 0 0 1 $T0 $ebp = $eip $T0 4 + ^ = $ebp $T0 ^ = $esp $T0 8 + =  $20 $T0 4 - ^ =  $23 $T0 8 - ^ = 
STACK WIN 4 13e4b 6f 0 0 2c c 0 0 1 $T0 $ebp = $eip $T0 4 + ^ = $ebp $T0 ^ = $esp $T0 8 + =  $20 $T0 4 - ^ =  $23 $T0 8 - ^ =  $24 $T0 12 - ^ = 
STACK WIN 4 13ede 38e 9 0 20 0 54 0 1 $T0 $ebp = $eip $T0 4 + ^ = $ebp $T0 ^ = $esp $T0 8 + = 
STACK WIN 4 13ee5 320 2 0 20 4 54 0 1 $T0 $ebp = $eip $T0 4 + ^ = $ebp $T0 ^ = $esp $T0 8 + =  $20 $T0 88 - ^ = 
STACK WIN 4 13ee6 31e 1 0 20 8 54 0 1 $T0 $ebp = $eip $T0 4 + ^ = $ebp $T0 ^ = $esp $T0 8 + =  $20 $T0 88 - ^ =  $23 $T0 92 - ^ = 
STACK WIN 4 13ee7 31c 0 0 20 c 54 0 1 $T0 $ebp = $eip $T0 4 + ^ = $ebp $T0 ^ = $esp $T0 8 + =  $20 $T0 88 - ^ =  $23 $T0 92 - ^ =  $24 $T0 96 - ^ = 
STACK WIN 4 1434f 111 7 0 20 0 20 0 1 $T0 $ebp = $eip $T0 4 + ^ = $ebp $T0 ^ = $esp $T0 8 + = 
STACK WIN 4 14356 60 0 0 20 4 20 0 1 $T0 $ebp = $eip $T0 4 + ^ = $ebp $T0 ^ = $esp $T0 8 + =  $24 $T0 36 - ^ = 
STACK WIN 4 14362 53 0 0 20 8 20 0 1 $T0 $ebp = $eip $T0 4 + ^ = $ebp $T0 ^ = $esp $T0 8 + =  $24 $T0 36 - ^ =  $20 $T0 40 - ^ = 
STACK WIN 4 14363 51 0 0 20 c 20 0 1 $T0 $ebp = $eip $T0 4 + ^ = $ebp $T0 ^ = $esp $T0 8 + =  $24 $T0 36 - ^ =  $20 $T0 40 - ^ =  $23 $T0 44 - ^ = 
STACK WIN 4 144a4 8e 9 0 c 0 0 0 1 $T0 $ebp = $eip $T0 4 + ^ = $ebp $T0 ^ = $esp $T0 8 + = 
STACK WIN 4 144ab 85 2 0 c 4 0 0 1 $T0 $ebp = $eip $T0 4 + ^ = $ebp $T0 ^ = $esp $T0 8 + =  $20 $T0 4 - ^ = 
STACK WIN 4 144ac 83 1 0 c 8 0 0 1 $T0 $ebp = $eip $T0 4 + ^ = $ebp $T0 ^ = $esp $T0 8 + =  $20 $T0 4 - ^ =  $23 $T0 8 - ^ = 
STACK WIN 4 144ad 81 0 0 c c 0 0 1 $T0 $ebp = $eip $T0 4 + ^ = $ebp $T0 ^ = $esp $T0 8 + =  $20 $T0 4 - ^ =  $23 $T0 8 - ^ =  $24 $T0 12 - ^ = 
STACK WIN 4 14555 102 6 0 20 0 0 0 1 $T0 $ebp = $eip $T0 4 + ^ = $ebp $T0 ^ = $esp $T0 8 + = 
STACK WIN 4 14559 fc 2 0 20 4 0 0 1 $T0 $ebp = $eip $T0 4 + ^ = $ebp $T0 ^ = $esp $T0 8 + =  $20 $T0 4 - ^ = 
STACK WIN 4 1455a fa 1 0 20 8 0 0 1 $T0 $ebp = $eip $T0 4 + ^ = $ebp $T0 ^ = $esp $T0 8 + =  $20 $T0 4 - ^ =  $23 $T0 8 - ^ = 
STACK WIN 4 1455b f8 0 0 20 c 0 0 1 $T0 $ebp = $eip $T0 4 + ^ = $ebp $T0 ^ = $esp $T0 8 + =  $20 $T0 4 - ^ =  $23 $T0 8 - ^ =  $24 $T0 12 - ^ = 
STACK WIN 4 14697 17 3 0 8 0 0 0 1 $T0 $ebp = $eip $T0 4 + ^ = $ebp $T0 ^ = $esp $T0 8 + = 
STACK WIN 4 146b3 14 3 0 8 0 0 0 1 $T0 $ebp = $eip $T0 4 + ^ = $ebp $T0 ^ = $esp $T0 8 + = 
STACK WIN 4 146cc 1b 9 0 4 0 0 0 1 $T0 $ebp = $eip $T0 4 + ^ = $ebp $T0 ^ = $esp $T0 8 + = 
STACK WIN 4 146d0 13 5 0 4 4 0 0 1 $T0 $ebp = $eip $T0 4 + ^ = $ebp $T0 ^ = $esp $T0 8 + =  $23 $T0 4 - ^ = 
STACK WIN 4 146ed 18 0 0 0 0 0 0 1 $T0 .raSearch = $eip $T0 ^ = $esp $T0 4 + = 
STACK WIN 4 1470b 2c 6 0 4 0 0 0 1 $T0 $ebp = $eip $T0 4 + ^ = $ebp $T0 ^ = $esp $T0 8 + = 
STACK WIN 4 1470f 24 2 0 4 4 0 0 1 $T0 $ebp = $eip $T0 4 + ^ = $ebp $T0 ^ = $esp $T0 8 + =  $23 $T0 4 - ^ = 
STACK WIN 4 14742 1d 3 0 8 0 0 0 1 $T0 $ebp = $eip $T0 4 + ^ = $ebp $T0 ^ = $esp $T0 8 + = 
STACK WIN 4 14766 14 3 0 8 0 0 0 1 $T0 $ebp = $eip $T0 4 + ^ = $ebp $T0 ^ = $esp $T0 8 + = 
STACK WIN 4 1477f 11 0 0 0 0 0 0 1 $T0 .raSearch = $eip $T0 ^ = $esp $T0 4 + = 
STACK WIN 4 14794 11 0 0 0 0 0 0 1 $T0 .raSearch = $eip $T0 ^ = $esp $T0 4 + = 
STACK WIN 4 147a9 13 3 0 4 0 0 0 1 $T0 $ebp = $eip $T0 4 + ^ = $ebp $T0 ^ = $esp $T0 8 + = 
STACK WIN 4 147c0 1f 3 0 4 0 0 0 1 $T0 $ebp = $eip $T0 4 + ^ = $ebp $T0 ^ = $esp $T0 8 + = 
STACK WIN 4 147e6 13 3 0 4 0 0 0 1 $T0 $ebp = $eip $T0 4 + ^ = $ebp $T0 ^ = $esp $T0 8 + = 
STACK WIN 4 147fd c 0 0 0 0 0 0 1 $T0 .raSearch = $eip $T0 ^ = $esp $T0 4 + = 
STACK WIN 4 1480c c 0 0 0 0 0 0 1 $T0 .raSearch = $eip $T0 ^ = $esp $T0 4 + = 
STACK WIN 4 1481b 6 0 0 0 0 0 0 1 $T0 .raSearch = $eip $T0 ^ = $esp $T0 4 + = 
STACK WIN 4 14821 6 0 0 0 0 0 0 1 $T0 .raSearch = $eip $T0 ^ = $esp $T0 4 + = 
STACK WIN 4 14827 13 3 0 4 0 0 0 1 $T0 $ebp = $eip $T0 4 + ^ = $ebp $T0 ^ = $esp $T0 8 + = 
STACK WIN 4 1483e 2d 6 0 4 0 0 0 1 $T0 $ebp = $eip $T0 4 + ^ = $ebp $T0 ^ = $esp $T0 8 + = 
STACK WIN 4 14842 25 2 0 4 4 0 0 1 $T0 $ebp = $eip $T0 4 + ^ = $ebp $T0 ^ = $esp $T0 8 + =  $23 $T0 4 - ^ = 
STACK WIN 4 14876 2d 6 0 4 0 0 0 1 $T0 $ebp = $eip $T0 4 + ^ = $ebp $T0 ^ = $esp $T0 8 + = 
STACK WIN 4 1487a 25 2 0 4 4 0 0 1 $T0 $ebp = $eip $T0 4 + ^ = $ebp $T0 ^ = $esp $T0 8 + =  $23 $T0 4 - ^ = 
STACK WIN 4 148ae 5 0 0 10 0 0 0 1 $T0 $ebp = $eip $T0 4 + ^ = $ebp $T0 ^ = $esp $T0 8 + = 
STACK WIN 4 148b3 9 3 0 10 0 0 0 1 $T0 $ebp = $eip $T0 4 + ^ = $ebp $T0 ^ = $esp $T0 8 + = 
STACK WIN 4 148be 1c4 c 0 1c 10 4c 0 1 $T0 $ebp = $eip $T0 4 + ^ = $ebp $T0 ^ = $esp $T0 8 + =  $20 $T0 80 - ^ =  $23 $T0 84 - ^ =  $24 $T0 88 - ^ = 
STACK WIN 4 1494a a 0 0 1c 10 4c 0 1 $T0 $ebp = $T2 $esp = $T1 .raSearchStart = $eip $T1 ^ = $ebp $T0 = $esp $T1 4 + = 
STACK WIN 4 14a00 81 0 0 1c 10 4c 0 1 $T0 $ebp = $T2 $esp = $T1 .raSearchStart = $eip $T1 ^ = $ebp $T0 = $esp $T1 4 + = 
STACK WIN 4 14af3 3a c 0 4 10 10 0 1 $T0 $ebp = $eip $T0 4 + ^ = $ebp $T0 ^ = $esp $T0 8 + =  $20 $T0 20 - ^ =  $23 $T0 24 - ^ =  $24 $T0 28 - ^ = 
STACK WIN 4 14b3b 4a 3 0 4 0 0 0 1 $T0 $ebp = $eip $T0 4 + ^ = $ebp $T0 ^ = $esp $T0 8 + = 
STACK WIN 4 14b97 18 3 0 c 0 0 0 1 $T0 $ebp = $eip $T0 4 + ^ = $ebp $T0 ^ = $esp $T0 8 + = 
STACK WIN 4 14bb5 e8 c 0 10 10 20 0 1 $T0 $ebp = $eip $T0 4 + ^ = $ebp $T0 ^ = $esp $T0 8 + =  $20 $T0 36 - ^ =  $23 $T0 40 - ^ =  $24 $T0 44 - ^ = 
STACK WIN 4 14c37 a 0 0 10 10 20 0 1 $T0 $ebp = $T2 $esp = $T1 .raSearchStart = $eip $T1 ^ = $ebp $T0 = $esp $T1 4 + = 
STACK WIN 4 14c80 16 0 0 10 10 20 0 1 $T0 $ebp = $T2 $esp = $T1 .raSearchStart = $eip $T1 ^ = $ebp $T0 = $esp $T1 4 + = 
STACK WIN 4 14cd7 b 3 0 8 0 0 0 1 $T0 $ebp = $eip $T0 4 + ^ = $ebp $T0 ^ = $esp $T0 8 + = 
STACK WIN 4 14ce4 9a c 0 8 0 18 0 1 $T0 $ebp = $eip $T0 4 + ^ = $ebp $T0 ^ = $esp $T0 8 + = 
STACK WIN 4 14ceb 8b 5 0 8 4 18 0 1 $T0 $ebp = $eip $T0 4 + ^ = $ebp $T0 ^ = $esp $T0 8 + =  $20 $T0 28 - ^ = 
STACK WIN 4 14cec 87 4 0 8 8 18 0 1 $T0 $ebp = $eip $T0 4 + ^ = $ebp $T0 ^ = $esp $T0 8 + =  $20 $T0 28 - ^ =  $23 $T0 32 - ^ = 
STACK WIN 4 14cf0 82 0 0 8 c 18 0 1 $T0 $ebp = $eip $T0 4 + ^ = $ebp $T0 ^ = $esp $T0 8 + =  $20 $T0 28 - ^ =  $23 $T0 32 - ^ =  $24 $T0 36 - ^ = 
STACK WIN 4 14da4 39 6 0 4 0 0 0 1 $T0 $ebp = $eip $T0 4 + ^ = $ebp $T0 ^ = $esp $T0 8 + = 
STACK WIN 4 14da8 2f 2 0 4 4 0 0 1 $T0 $ebp = $eip $T0 4 + ^ = $ebp $T0 ^ = $esp $T0 8 + =  $20 $T0 4 - ^ = 
STACK WIN 4 14da9 2d 1 0 4 8 0 0 1 $T0 $ebp = $eip $T0 4 + ^ = $ebp $T0 ^ = $esp $T0 8 + =  $20 $T0 4 - ^ =  $23 $T0 8 - ^ = 
STACK WIN 4 14daa 2b 0 0 4 c 0 0 1 $T0 $ebp = $eip $T0 4 + ^ = $ebp $T0 ^ = $esp $T0 8 + =  $20 $T0 4 - ^ =  $23 $T0 8 - ^ =  $24 $T0 12 - ^ = 
STACK WIN 4 14deb 9 3 0 c 0 0 0 1 $T0 $ebp = $eip $T0 4 + ^ = $ebp $T0 ^ = $esp $T0 8 + = 
STACK WIN 4 14df6 10 3 0 c 0 0 0 1 $T0 $ebp = $eip $T0 4 + ^ = $ebp $T0 ^ = $esp $T0 8 + = 
STACK WIN 4 14e0a 13 3 0 10 0 0 0 1 $T0 $ebp = $eip $T0 4 + ^ = $ebp $T0 ^ = $esp $T0 8 + = 
STACK WIN 4 14e21 c 3 0 4 0 0 0 1 $T0 $ebp = $eip $T0 4 + ^ = $ebp $T0 ^ = $esp $T0 8 + = 
STACK WIN 4 14e30 c 3 0 8 0 0 0 1 $T0 $ebp = $eip $T0 4 + ^ = $ebp $T0 ^ = $esp $T0 8 + = 
STACK WIN 4 14e3f c 3 0 8 0 0 0 1 $T0 $ebp = $eip $T0 4 + ^ = $ebp $T0 ^ = $esp $T0 8 + = 
STACK WIN 4 14e4e 10 3 0 4 0 0 0 1 $T0 $ebp = $eip $T0 4 + ^ = $ebp $T0 ^ = $esp $T0 8 + = 
STACK WIN 4 14e62 11 3 0 4 0 0 0 1 $T0 $ebp = $eip $T0 4 + ^ = $ebp $T0 ^ = $esp $T0 8 + = 
STACK WIN 4 14e77 b 3 0 4 0 0 0 1 $T0 $ebp = $eip $T0 4 + ^ = $ebp $T0 ^ = $esp $T0 8 + = 
STACK WIN 4 14e84 e 0 0 0 0 0 0 1 $T0 .raSearch = $eip $T0 ^ = $esp $T0 4 + = 
STACK WIN 4 14e95 f 3 0 4 0 0 0 1 $T0 $ebp = $eip $T0 4 + ^ = $ebp $T0 ^ = $esp $T0 8 + = 
STACK WIN 4 14ea7 6 0 0 0 0 0 0 1 $T0 .raSearch = $eip $T0 ^ = $esp $T0 4 + = 
STACK WIN 4 14ead d 3 0 4 0 0 0 1 $T0 $ebp = $eip $T0 4 + ^ = $ebp $T0 ^ = $esp $T0 8 + = 
STACK WIN 4 14ebd 10 3 0 4 0 0 0 1 $T0 $ebp = $eip $T0 4 + ^ = $ebp $T0 ^ = $esp $T0 8 + = 
STACK WIN 4 14ed1 d 0 0 0 0 0 0 1 $T0 .raSearch = $eip $T0 ^ = $esp $T0 4 + = 
STACK WIN 4 14ee1 5 0 0 10 0 0 0 1 $T0 $ebp = $eip $T0 4 + ^ = $ebp $T0 ^ = $esp $T0 8 + = 
STACK WIN 4 14ee6 9 3 0 10 0 0 0 1 $T0 $ebp = $eip $T0 4 + ^ = $ebp $T0 ^ = $esp $T0 8 + = 
STACK WIN 4 14ef1 9 3 0 c 0 0 0 1 $T0 $ebp = $eip $T0 4 + ^ = $ebp $T0 ^ = $esp $T0 8 + = 
STACK WIN 4 14efc e 3 0 4 0 0 0 1 $T0 $ebp = $eip $T0 4 + ^ = $ebp $T0 ^ = $esp $T0 8 + = 
STACK WIN 4 14f6f 14 3 0 4 0 0 0 1 $T0 $ebp = $eip $T0 4 + ^ = $ebp $T0 ^ = $esp $T0 8 + = 
STACK WIN 4 14f88 12 0 0 0 0 0 0 1 $T0 .raSearch = $eip $T0 ^ = $esp $T0 4 + = 
STACK WIN 4 14f9e 1e 3 0 4 0 0 0 1 $T0 $ebp = $eip $T0 4 + ^ = $ebp $T0 ^ = $esp $T0 8 + = 
STACK WIN 4 14fc3 1d 1 0 0 4 0 0 1 $T0 .raSearch = $eip $T0 ^ = $esp $T0 4 + =  $23 $T0 4 - ^ = 
STACK WIN 4 14fe7 1d 3 0 c 0 0 0 1 $T0 $ebp = $eip $T0 4 + ^ = $ebp $T0 ^ = $esp $T0 8 + = 
STACK WIN 4 1500b e 3 0 c 0 0 0 1 $T0 $ebp = $eip $T0 4 + ^ = $ebp $T0 ^ = $esp $T0 8 + = 
STACK WIN 4 1501c a0 c 0 8 10 18 0 1 $T0 $ebp = $eip $T0 4 + ^ = $ebp $T0 ^ = $esp $T0 8 + =  $20 $T0 28 - ^ =  $23 $T0 32 - ^ =  $24 $T0 36 - ^ = 
STACK WIN 4 1507c 9 0 0 8 10 18 0 1 $T0 $ebp = $T2 $esp = $T1 .raSearchStart = $eip $T1 ^ = $ebp $T0 = $esp $T1 4 + = 
STACK WIN 4 150e4 d 3 0 8 0 0 0 1 $T0 $ebp = $eip $T0 4 + ^ = $ebp $T0 ^ = $esp $T0 8 + = 
STACK WIN 4 150f4 4 0 0 0 0 0 0 1 $T0 .raSearch = $eip $T0 ^ = $esp $T0 4 + = 
STACK WIN 4 150f8 26 3 0 4 0 0 0 1 $T0 $ebp = $eip $T0 4 + ^ = $ebp $T0 ^ = $esp $T0 8 + = 
STACK WIN 4 15127 d 3 0 4 0 0 0 1 $T0 $ebp = $eip $T0 4 + ^ = $ebp $T0 ^ = $esp $T0 8 + = 
STACK WIN 4 15137 25 a 0 8 0 0 0 1 $T0 $ebp = $eip $T0 4 + ^ = $ebp $T0 ^ = $esp $T0 8 + = 
STACK WIN 4 15141 19 0 0 8 4 0 0 1 $T0 $ebp = $eip $T0 4 + ^ = $ebp $T0 ^ = $esp $T0 8 + =  $23 $T0 4 - ^ = 
STACK WIN 4 15165 45 3 0 4 0 0 0 1 $T0 $ebp = $eip $T0 4 + ^ = $ebp $T0 ^ = $esp $T0 8 + = 
STACK WIN 4 151bb 4c 6 0 4 0 8 0 1 $T0 $ebp = $eip $T0 4 + ^ = $ebp $T0 ^ = $esp $T0 8 + = 
STACK WIN 4 151c1 44 0 0 4 4 8 0 1 $T0 $ebp = $eip $T0 4 + ^ = $ebp $T0 ^ = $esp $T0 8 + =  $23 $T0 12 - ^ = 
STACK WIN 4 1521a 9 0 0 0 0 0 0 1 $T0 .raSearch = $eip $T0 ^ = $esp $T0 4 + = 
STACK WIN 4 15225 9 0 0 0 0 0 0 1 $T0 .raSearch = $eip $T0 ^ = $esp $T0 4 + = 
STACK WIN 4 15230 9 0 0 0 0 0 0 1 $T0 .raSearch = $eip $T0 ^ = $esp $T0 4 + = 
STACK WIN 4 1523b 5 0 0 0 0 0 0 1 $T0 .raSearch = $eip $T0 ^ = $esp $T0 4 + = 
STACK WIN 4 15240 a4 3 0 8 0 0 0 1 $T0 $ebp = $eip $T0 4 + ^ = $ebp $T0 ^ = $esp $T0 8 + = 
STACK WIN 4 15285 52 0 0 8 4 0 0 1 $T0 $ebp = $eip $T0 4 + ^ = $ebp $T0 ^ = $esp $T0 8 + =  $20 $T0 4 - ^ = 
STACK WIN 4 15286 50 0 0 8 8 0 0 1 $T0 $ebp = $eip $T0 4 + ^ = $ebp $T0 ^ = $esp $T0 8 + =  $20 $T0 4 - ^ =  $23 $T0 8 - ^ = 
STACK WIN 4 15287 4e 0 0 8 c 0 0 1 $T0 $ebp = $eip $T0 4 + ^ = $ebp $T0 ^ = $esp $T0 8 + =  $20 $T0 4 - ^ =  $23 $T0 8 - ^ =  $24 $T0 12 - ^ = 
STACK WIN 4 152d9 b 0 0 8 c 0 0 1 $T0 $ebp = $eip $T0 4 + ^ = $ebp $T0 ^ = $esp $T0 8 + =  $20 $T0 4 - ^ =  $23 $T0 8 - ^ =  $24 $T0 12 - ^ = 
STACK WIN 4 1530d 10 3 0 4 0 0 0 1 $T0 $ebp = $eip $T0 4 + ^ = $ebp $T0 ^ = $esp $T0 8 + = 
STACK WIN 4 15321 e 3 0 4 0 0 0 1 $T0 $ebp = $eip $T0 4 + ^ = $ebp $T0 ^ = $esp $T0 8 + = 
STACK WIN 4 15332 10 3 0 0 0 0 0 1 $T0 .raSearch = $eip $T0 ^ = $esp $T0 4 + = 
STACK WIN 4 15333 e 2 0 0 4 0 0 1 $T0 .raSearch = $eip $T0 ^ = $esp $T0 4 + =  $23 $T0 4 - ^ = 
STACK WIN 4 15346 7 0 0 0 0 0 0 1 $T0 .raSearch = $eip $T0 ^ = $esp $T0 4 + = 
STACK WIN 4 1534d 6 0 0 0 0 0 0 1 $T0 .raSearch = $eip $T0 ^ = $esp $T0 4 + = 
STACK WIN 4 15353 3 0 0 0 0 0 0 1 $T0 .raSearch = $eip $T0 ^ = $esp $T0 4 + = 
STACK WIN 4 15356 7 0 0 0 0 0 0 1 $T0 .raSearch = $eip $T0 ^ = $esp $T0 4 + = 
STACK WIN 4 1535d 10 3 0 0 0 0 0 1 $T0 .raSearch = $eip $T0 ^ = $esp $T0 4 + = 
STACK WIN 4 1535e e 2 0 0 4 0 0 1 $T0 .raSearch = $eip $T0 ^ = $esp $T0 4 + =  $23 $T0 4 - ^ = 
STACK WIN 4 15371 63 4 0 8 0 0 0 1 $T0 $ebp = $eip $T0 4 + ^ = $ebp $T0 ^ = $esp $T0 8 + = 
STACK WIN 4 15375 5d 0 0 8 4 0 0 1 $T0 $ebp = $eip $T0 4 + ^ = $ebp $T0 ^ = $esp $T0 8 + =  $24 $T0 4 - ^ = 
STACK WIN 4 15391 33 0 0 8 8 0 0 1 $T0 $ebp = $eip $T0 4 + ^ = $ebp $T0 ^ = $esp $T0 8 + =  $24 $T0 4 - ^ =  $20 $T0 8 - ^ = 
STACK WIN 4 15392 31 0 0 8 c 0 0 1 $T0 $ebp = $eip $T0 4 + ^ = $ebp $T0 ^ = $esp $T0 8 + =  $24 $T0 4 - ^ =  $20 $T0 8 - ^ =  $23 $T0 12 - ^ = 
STACK WIN 4 153ec 1f 4 0 4 0 0 0 1 $T0 $ebp = $eip $T0 4 + ^ = $ebp $T0 ^ = $esp $T0 8 + = 
STACK WIN 4 153f0 19 0 0 4 4 0 0 1 $T0 $ebp = $eip $T0 4 + ^ = $ebp $T0 ^ = $esp $T0 8 + =  $23 $T0 4 - ^ = 
STACK WIN 4 15412 6d c 0 8 0 20 0 1 $T0 $ebp = $eip $T0 4 + ^ = $ebp $T0 ^ = $esp $T0 8 + = 
STACK WIN 4 15419 62 5 0 8 4 20 0 1 $T0 $ebp = $eip $T0 4 + ^ = $ebp $T0 ^ = $esp $T0 8 + =  $20 $T0 36 - ^ = 
STACK WIN 4 1541d 5d 1 0 8 8 20 0 1 $T0 $ebp = $eip $T0 4 + ^ = $ebp $T0 ^ = $esp $T0 8 + =  $20 $T0 36 - ^ =  $23 $T0 40 - ^ = 
STACK WIN 4 1541e 5b 0 0 8 c 20 0 1 $T0 $ebp = $eip $T0 4 + ^ = $ebp $T0 ^ = $esp $T0 8 + =  $20 $T0 36 - ^ =  $23 $T0 40 - ^ =  $24 $T0 44 - ^ = 
STACK WIN 4 15b71 16 5 0 4 0 0 0 1 $T0 $ebp = $eip $T0 4 + ^ = $ebp $T0 ^ = $esp $T0 8 + = 
STACK WIN 4 15b8c 1f 5 0 4 0 0 0 1 $T0 $ebp = $eip $T0 4 + ^ = $ebp $T0 ^ = $esp $T0 8 + = 
STACK WIN 4 15bb2 11 5 0 8 0 0 0 1 $T0 $ebp = $eip $T0 4 + ^ = $ebp $T0 ^ = $esp $T0 8 + = 
STACK WIN 4 15bc7 3 0 0 0 0 0 0 1 $T0 .raSearch = $eip $T0 ^ = $esp $T0 4 + = 
STACK WIN 4 15bca 3 0 0 0 0 0 0 1 $T0 .raSearch = $eip $T0 ^ = $esp $T0 4 + = 
STACK WIN 4 15bcd 3 0 0 0 0 0 0 1 $T0 .raSearch = $eip $T0 ^ = $esp $T0 4 + = 
STACK WIN 4 15bd0 139 1a 0 c 4 328 0 1 $T0 $ebp = $eip $T0 4 + ^ = $ebp $T0 ^ = $esp $T0 8 + =  $24 $T0 812 - ^ = 
STACK WIN 4 15d57 f 5 0 4 0 0 0 1 $T0 $ebp = $eip $T0 4 + ^ = $ebp $T0 ^ = $esp $T0 8 + = 
STACK WIN 4 15d69 13 0 0 0 0 0 0 1 $T0 .raSearch = $eip $T0 ^ = $esp $T0 4 + = 
STACK WIN 4 15d80 11 0 0 0 0 0 0 1 $T0 .raSearch = $eip $T0 ^ = $esp $T0 4 + = 
STACK WIN 4 15d95 64 6 0 14 0 0 0 1 $T0 $ebp = $eip $T0 4 + ^ = $ebp $T0 ^ = $esp $T0 8 + = 
STACK WIN 4 15d9b 30 0 0 14 4 0 0 1 $T0 $ebp = $eip $T0 4 + ^ = $ebp $T0 ^ = $esp $T0 8 + =  $23 $T0 4 - ^ = 
STACK WIN 4 15e12 10 0 0 0 0 0 0 1 $T0 .raSearch = $eip $T0 ^ = $esp $T0 4 + = 
STACK WIN 4 15e26 1d 3 0 0 4 0 0 1 $T0 .raSearch = $eip $T0 ^ = $esp $T0 4 + =  $23 $T0 4 - ^ = 
STACK WIN 4 15e4a 34 0 0 14 0 0 0 1 $T0 .raSearch = $eip $T0 ^ = $esp $T0 4 + = 
STACK WIN 4 15e5c 21 0 0 14 4 0 0 1 $T0 .raSearch = $eip $T0 ^ = $esp $T0 4 + =  $23 $T0 4 - ^ = 
STACK WIN 4 15e8b 30 d 0 4 0 0 0 1 $T0 $ebp = $eip $T0 4 + ^ = $ebp $T0 ^ = $esp $T0 8 + = 
STACK WIN 4 15e91 28 7 0 4 4 0 0 1 $T0 $ebp = $eip $T0 4 + ^ = $ebp $T0 ^ = $esp $T0 8 + =  $23 $T0 4 - ^ = 
STACK WIN 4 15e98 20 0 0 4 8 0 0 1 $T0 $ebp = $eip $T0 4 + ^ = $ebp $T0 ^ = $esp $T0 8 + =  $23 $T0 4 - ^ =  $24 $T0 8 - ^ = 
STACK WIN 4 15ec7 1d 5 0 4 0 0 0 1 $T0 $ebp = $eip $T0 4 + ^ = $ebp $T0 ^ = $esp $T0 8 + = 
STACK WIN 4 15eeb 45 14 0 8 0 4 0 1 $T0 $ebp = $eip $T0 4 + ^ = $ebp $T0 ^ = $esp $T0 8 + = 
STACK WIN 4 15ef5 39 a 0 8 4 4 0 1 $T0 $ebp = $eip $T0 4 + ^ = $ebp $T0 ^ = $esp $T0 8 + =  $20 $T0 8 - ^ = 
STACK WIN 4 15ef6 37 9 0 8 8 4 0 1 $T0 $ebp = $eip $T0 4 + ^ = $ebp $T0 ^ = $esp $T0 8 + =  $20 $T0 8 - ^ =  $23 $T0 12 - ^ = 
STACK WIN 4 15eff 2d 0 0 8 c 4 0 1 $T0 $ebp = $eip $T0 4 + ^ = $ebp $T0 ^ = $esp $T0 8 + =  $20 $T0 8 - ^ =  $23 $T0 12 - ^ =  $24 $T0 16 - ^ = 
STACK WIN 4 15f41 2e a 0 8 0 0 0 1 $T0 $ebp = $eip $T0 4 + ^ = $ebp $T0 ^ = $esp $T0 8 + = 
STACK WIN 4 15f47 26 4 0 8 4 0 0 1 $T0 $ebp = $eip $T0 4 + ^ = $ebp $T0 ^ = $esp $T0 8 + =  $23 $T0 4 - ^ = 
STACK WIN 4 15f4b 21 0 0 8 8 0 0 1 $T0 $ebp = $eip $T0 4 + ^ = $ebp $T0 ^ = $esp $T0 8 + =  $23 $T0 4 - ^ =  $24 $T0 8 - ^ = 
STACK WIN 4 15f7a 1b 6 0 4 0 4 0 1 $T0 $ebp = $eip $T0 4 + ^ = $ebp $T0 ^ = $esp $T0 8 + = 
STACK WIN 4 15f9b 24 5 0 8 0 0 0 1 $T0 $ebp = $eip $T0 4 + ^ = $ebp $T0 ^ = $esp $T0 8 + = 
STACK WIN 4 15fc8 20 5 0 8 0 0 0 1 $T0 $ebp = $eip $T0 4 + ^ = $ebp $T0 ^ = $esp $T0 8 + = 
STACK WIN 4 15ff0 158 9 0 8 0 4 0 1 $T0 $ebp = $eip $T0 4 + ^ = $ebp $T0 ^ = $esp $T0 8 + = 
STACK WIN 4 15ff7 14f 2 0 8 4 4 0 1 $T0 $ebp = $eip $T0 4 + ^ = $ebp $T0 ^ = $esp $T0 8 + =  $20 $T0 8 - ^ = 
STACK WIN 4 15ff8 14d 1 0 8 8 4 0 1 $T0 $ebp = $eip $T0 4 + ^ = $ebp $T0 ^ = $esp $T0 8 + =  $20 $T0 8 - ^ =  $23 $T0 12 - ^ = 
STACK WIN 4 15ff9 14b 0 0 8 c 4 0 1 $T0 $ebp = $eip $T0 4 + ^ = $ebp $T0 ^ = $esp $T0 8 + =  $20 $T0 8 - ^ =  $23 $T0 12 - ^ =  $24 $T0 16 - ^ = 
STACK WIN 4 1619e 6 0 0 0 0 0 0 1 $T0 .raSearch = $eip $T0 ^ = $esp $T0 4 + = 
STACK WIN 4 161a4 4d c 0 c 10 18 0 1 $T0 $ebp = $eip $T0 4 + ^ = $ebp $T0 ^ = $esp $T0 8 + =  $20 $T0 28 - ^ =  $23 $T0 32 - ^ =  $24 $T0 36 - ^ = 
STACK WIN 4 161e5 b 0 0 c 10 18 0 1 $T0 $ebp = $T2 $esp = $T1 .raSearchStart = $eip $T1 ^ = $ebp $T0 = $esp $T1 4 + = 
STACK WIN 4 16204 26 8 0 8 0 c 0 1 $T0 $ebp = $eip $T0 4 + ^ = $ebp $T0 ^ = $esp $T0 8 + = 
STACK WIN 4 16233 16 5 0 4 0 0 0 1 $T0 $ebp = $eip $T0 4 + ^ = $ebp $T0 ^ = $esp $T0 8 + = 
STACK WIN 4 1624e 1f 5 0 4 0 0 0 1 $T0 $ebp = $eip $T0 4 + ^ = $ebp $T0 ^ = $esp $T0 8 + = 
STACK WIN 4 16274 13 5 0 8 0 0 0 1 $T0 $ebp = $eip $T0 4 + ^ = $ebp $T0 ^ = $esp $T0 8 + = 
STACK WIN 4 1628b d 5 0 4 0 0 0 1 $T0 $ebp = $eip $T0 4 + ^ = $ebp $T0 ^ = $esp $T0 8 + = 
STACK WIN 4 1629b 12 5 0 4 0 0 0 1 $T0 $ebp = $eip $T0 4 + ^ = $ebp $T0 ^ = $esp $T0 8 + = 
STACK WIN 4 162b1 12 5 0 4 0 0 0 1 $T0 $ebp = $eip $T0 4 + ^ = $ebp $T0 ^ = $esp $T0 8 + = 
STACK WIN 4 162c7 1c 5 0 c 0 0 0 1 $T0 $ebp = $eip $T0 4 + ^ = $ebp $T0 ^ = $esp $T0 8 + = 
STACK WIN 4 162ea 10 5 0 4 0 0 0 1 $T0 $ebp = $eip $T0 4 + ^ = $ebp $T0 ^ = $esp $T0 8 + = 
STACK WIN 4 162fe 17 5 0 0 0 0 0 1 $T0 .raSearch = $eip $T0 ^ = $esp $T0 4 + = 
STACK WIN 4 16301 13 2 0 0 4 0 0 1 $T0 .raSearch = $eip $T0 ^ = $esp $T0 4 + =  $23 $T0 4 - ^ = 
STACK WIN 4 1631a 9 0 0 0 0 0 0 1 $T0 .raSearch = $eip $T0 ^ = $esp $T0 4 + = 
STACK WIN 4 16325 9 0 0 0 0 0 0 1 $T0 .raSearch = $eip $T0 ^ = $esp $T0 4 + = 
STACK WIN 4 16330 da e 0 0 10 18 0 1 $T0 $ebp = $eip $T0 4 + ^ = $ebp $T0 ^ = $esp $T0 8 + =  $20 $T0 28 - ^ =  $23 $T0 32 - ^ =  $24 $T0 36 - ^ = 
STACK WIN 4 163f1 10 0 0 0 10 18 0 1 $T0 $ebp = $T2 $esp = $T1 .raSearchStart = $eip $T1 ^ = $ebp $T0 = $esp $T1 4 + = 
STACK WIN 4 16440 4 0 0 0 0 0 0 1 $T0 .raSearch = $eip $T0 ^ = $esp $T0 4 + = 
STACK WIN 4 16444 13 5 0 4 0 0 0 1 $T0 $ebp = $eip $T0 4 + ^ = $ebp $T0 ^ = $esp $T0 8 + = 
STACK WIN 4 1645b 17 5 0 0 0 0 0 1 $T0 .raSearch = $eip $T0 ^ = $esp $T0 4 + = 
STACK WIN 4 1645e 13 2 0 0 4 0 0 1 $T0 .raSearch = $eip $T0 ^ = $esp $T0 4 + =  $23 $T0 4 - ^ = 
STACK WIN 4 16477 15 5 0 4 0 0 0 1 $T0 $ebp = $eip $T0 4 + ^ = $ebp $T0 ^ = $esp $T0 8 + = 
STACK WIN 4 16491 64 8 0 c 0 18 0 1 $T0 $ebp = $eip $T0 4 + ^ = $ebp $T0 ^ = $esp $T0 8 + = 
STACK WIN 4 1650e 42 5 0 4 0 0 0 1 $T0 $ebp = $eip $T0 4 + ^ = $ebp $T0 ^ = $esp $T0 8 + = 
STACK WIN 4 16560 3 0 0 0 0 0 0 1 $T0 .raSearch = $eip $T0 ^ = $esp $T0 4 + = 
STACK WIN 4 16563 3 0 0 0 0 0 0 1 $T0 .raSearch = $eip $T0 ^ = $esp $T0 4 + = 
STACK WIN 4 16566 3 0 0 0 0 0 0 1 $T0 .raSearch = $eip $T0 ^ = $esp $T0 4 + = 
STACK WIN 4 16569 43 0 0 0 0 0 0 1 $T0 .raSearch = $eip $T0 ^ = $esp $T0 4 + = 
STACK WIN 4 165bc 22 0 0 0 0 0 0 1 $T0 .raSearch = $eip $T0 ^ = $esp $T0 4 + = 
STACK WIN 4 165e6 53 6 0 4 0 4 0 1 $T0 $ebp = $eip $T0 4 + ^ = $ebp $T0 ^ = $esp $T0 8 + = 
STACK WIN 4 16606 22 0 0 4 4 4 0 1 $T0 $ebp = $eip $T0 4 + ^ = $ebp $T0 ^ = $esp $T0 8 + =  $23 $T0 8 - ^ = 
STACK WIN 4 1664d 16 5 0 4 0 0 0 1 $T0 $ebp = $eip $T0 4 + ^ = $ebp $T0 ^ = $esp $T0 8 + = 
STACK WIN 4 16668 f 5 0 4 0 0 0 1 $T0 $ebp = $eip $T0 4 + ^ = $ebp $T0 ^ = $esp $T0 8 + = 
STACK WIN 4 1667a f 0 0 0 0 0 0 1 $T0 .raSearch = $eip $T0 ^ = $esp $T0 4 + = 
STACK WIN 4 1668c f 0 0 0 0 0 0 1 $T0 .raSearch = $eip $T0 ^ = $esp $T0 4 + = 
STACK WIN 4 1669e 16 5 0 4 0 0 0 1 $T0 $ebp = $eip $T0 4 + ^ = $ebp $T0 ^ = $esp $T0 8 + = 
STACK WIN 4 166b9 7 0 0 0 0 0 0 1 $T0 .raSearch = $eip $T0 ^ = $esp $T0 4 + = 
STACK WIN 4 166c0 26 5 0 4 0 0 0 1 $T0 $ebp = $eip $T0 4 + ^ = $ebp $T0 ^ = $esp $T0 8 + = 
STACK WIN 4 166ef 16 5 0 4 0 0 0 1 $T0 $ebp = $eip $T0 4 + ^ = $ebp $T0 ^ = $esp $T0 8 + = 
STACK WIN 4 1670a 16 5 0 4 0 0 0 1 $T0 $ebp = $eip $T0 4 + ^ = $ebp $T0 ^ = $esp $T0 8 + = 
STACK WIN 4 16725 12 5 0 4 0 0 0 1 $T0 $ebp = $eip $T0 4 + ^ = $ebp $T0 ^ = $esp $T0 8 + = 
STACK WIN 4 1673b 12 5 0 4 0 0 0 1 $T0 $ebp = $eip $T0 4 + ^ = $ebp $T0 ^ = $esp $T0 8 + = 
STACK WIN 4 16751 12 5 0 4 0 0 0 1 $T0 $ebp = $eip $T0 4 + ^ = $ebp $T0 ^ = $esp $T0 8 + = 
STACK WIN 4 16767 136 9 0 4 0 10 0 1 $T0 $ebp = $eip $T0 4 + ^ = $ebp $T0 ^ = $esp $T0 8 + = 
STACK WIN 4 16770 12b 0 0 4 4 10 0 1 $T0 $ebp = $eip $T0 4 + ^ = $ebp $T0 ^ = $esp $T0 8 + =  $20 $T0 20 - ^ = 
STACK WIN 4 1677f 11b 0 0 4 8 10 0 1 $T0 $ebp = $eip $T0 4 + ^ = $ebp $T0 ^ = $esp $T0 8 + =  $20 $T0 20 - ^ =  $23 $T0 24 - ^ = 
STACK WIN 4 167a0 f9 0 0 4 c 10 0 1 $T0 $ebp = $eip $T0 4 + ^ = $ebp $T0 ^ = $esp $T0 8 + =  $20 $T0 20 - ^ =  $23 $T0 24 - ^ =  $24 $T0 28 - ^ = 
STACK WIN 4 168ea 12f 9 0 4 0 10 0 1 $T0 $ebp = $eip $T0 4 + ^ = $ebp $T0 ^ = $esp $T0 8 + = 
STACK WIN 4 168f3 124 0 0 4 4 10 0 1 $T0 $ebp = $eip $T0 4 + ^ = $ebp $T0 ^ = $esp $T0 8 + =  $20 $T0 20 - ^ = 
STACK WIN 4 16902 114 0 0 4 8 10 0 1 $T0 $ebp = $eip $T0 4 + ^ = $ebp $T0 ^ = $esp $T0 8 + =  $20 $T0 20 - ^ =  $23 $T0 24 - ^ = 
STACK WIN 4 16923 f2 0 0 4 c 10 0 1 $T0 $ebp = $eip $T0 4 + ^ = $ebp $T0 ^ = $esp $T0 8 + =  $20 $T0 20 - ^ =  $23 $T0 24 - ^ =  $24 $T0 28 - ^ = 
STACK WIN 4 16a64 1c 5 0 c 0 0 0 1 $T0 $ebp = $eip $T0 4 + ^ = $ebp $T0 ^ = $esp $T0 8 + = 
STACK WIN 4 16a87 1a 5 0 c 0 0 0 1 $T0 $ebp = $eip $T0 4 + ^ = $ebp $T0 ^ = $esp $T0 8 + = 
STACK WIN 4 16aa7 177 12 0 14 0 4 0 1 $T0 $ebp = $eip $T0 4 + ^ = $ebp $T0 ^ = $esp $T0 8 + = 
STACK WIN 4 16ab1 15f 8 0 14 4 4 0 1 $T0 $ebp = $eip $T0 4 + ^ = $ebp $T0 ^ = $esp $T0 8 + =  $20 $T0 8 - ^ = 
STACK WIN 4 16ab5 15a 4 0 14 8 4 0 1 $T0 $ebp = $eip $T0 4 + ^ = $ebp $T0 ^ = $esp $T0 8 + =  $20 $T0 8 - ^ =  $23 $T0 12 - ^ = 
STACK WIN 4 16ab9 155 0 0 14 c 4 0 1 $T0 $ebp = $eip $T0 4 + ^ = $ebp $T0 ^ = $esp $T0 8 + =  $20 $T0 8 - ^ =  $23 $T0 12 - ^ =  $24 $T0 16 - ^ = 
STACK WIN 4 16c7b 195 16 0 14 0 10 0 1 $T0 $ebp = $eip $T0 4 + ^ = $ebp $T0 ^ = $esp $T0 8 + = 
STACK WIN 4 16c8d 17f 4 0 14 4 10 0 1 $T0 $ebp = $eip $T0 4 + ^ = $ebp $T0 ^ = $esp $T0 8 + =  $23 $T0 20 - ^ = 
STACK WIN 4 16c91 17a 0 0 14 8 10 0 1 $T0 $ebp = $eip $T0 4 + ^ = $ebp $T0 ^ = $esp $T0 8 + =  $23 $T0 20 - ^ =  $24 $T0 24 - ^ = 
STACK WIN 4 16caa 156 0 0 14 c 10 0 1 $T0 $ebp = $eip $T0 4 + ^ = $ebp $T0 ^ = $esp $T0 8 + =  $23 $T0 20 - ^ =  $24 $T0 24 - ^ =  $20 $T0 28 - ^ = 
STACK WIN 4 16e75 11 5 0 4 0 0 0 1 $T0 $ebp = $eip $T0 4 + ^ = $ebp $T0 ^ = $esp $T0 8 + = 
STACK WIN 4 16e8a 11 5 0 4 0 0 0 1 $T0 $ebp = $eip $T0 4 + ^ = $ebp $T0 ^ = $esp $T0 8 + = 
STACK WIN 4 16e9f 10 5 0 4 0 0 0 1 $T0 $ebp = $eip $T0 4 + ^ = $ebp $T0 ^ = $esp $T0 8 + = 
STACK WIN 4 16eb3 10 5 0 4 0 0 0 1 $T0 $ebp = $eip $T0 4 + ^ = $ebp $T0 ^ = $esp $T0 8 + = 
STACK WIN 4 16ec7 10 5 0 4 0 0 0 1 $T0 $ebp = $eip $T0 4 + ^ = $ebp $T0 ^ = $esp $T0 8 + = 
STACK WIN 4 16edb 10 5 0 4 0 0 0 1 $T0 $ebp = $eip $T0 4 + ^ = $ebp $T0 ^ = $esp $T0 8 + = 
STACK WIN 4 16eef 10 5 0 4 0 0 0 1 $T0 $ebp = $eip $T0 4 + ^ = $ebp $T0 ^ = $esp $T0 8 + = 
STACK WIN 4 16f03 12 5 0 0 0 0 0 1 $T0 .raSearch = $eip $T0 ^ = $esp $T0 4 + = 
STACK WIN 4 16f06 e 2 0 0 4 0 0 1 $T0 .raSearch = $eip $T0 ^ = $esp $T0 4 + =  $23 $T0 4 - ^ = 
STACK WIN 4 16f19 12 5 0 0 0 0 0 1 $T0 .raSearch = $eip $T0 ^ = $esp $T0 4 + = 
STACK WIN 4 16f1c e 2 0 0 4 0 0 1 $T0 .raSearch = $eip $T0 ^ = $esp $T0 4 + =  $23 $T0 4 - ^ = 
STACK WIN 4 16f2f 12 5 0 0 0 0 0 1 $T0 .raSearch = $eip $T0 ^ = $esp $T0 4 + = 
STACK WIN 4 16f32 e 2 0 0 4 0 0 1 $T0 .raSearch = $eip $T0 ^ = $esp $T0 4 + =  $23 $T0 4 - ^ = 
STACK WIN 4 16f45 7 0 0 0 0 0 0 1 $T0 .raSearch = $eip $T0 ^ = $esp $T0 4 + = 
STACK WIN 4 16f4c 16 0 0 0 0 0 0 1 $T0 .raSearch = $eip $T0 ^ = $esp $T0 4 + = 
STACK WIN 4 16f67 16 0 0 0 0 0 0 1 $T0 .raSearch = $eip $T0 ^ = $esp $T0 4 + = 
STACK WIN 4 16f82 6 0 0 0 0 0 0 1 $T0 .raSearch = $eip $T0 ^ = $esp $T0 4 + = 
STACK WIN 4 16f88 6 0 0 0 0 0 0 1 $T0 .raSearch = $eip $T0 ^ = $esp $T0 4 + = 
STACK WIN 4 16f8e 6 0 0 0 0 0 0 1 $T0 .raSearch = $eip $T0 ^ = $esp $T0 4 + = 
STACK WIN 4 16f94 5 0 0 4 0 0 0 1 $T0 .raSearch = $eip $T0 ^ = $esp $T0 4 + = 
STACK WIN 4 16f99 3 0 0 4 0 0 0 1 $T0 .raSearch = $eip $T0 ^ = $esp $T0 4 + = 
STACK WIN 4 16f9c b 5 0 8 0 0 0 1 $T0 $ebp = $eip $T0 4 + ^ = $ebp $T0 ^ = $esp $T0 8 + = 
STACK WIN 4 16fa9 b 5 0 8 0 0 0 1 $T0 $ebp = $eip $T0 4 + ^ = $ebp $T0 ^ = $esp $T0 8 + = 
STACK WIN 4 16fb6 3 0 0 0 0 0 0 1 $T0 .raSearch = $eip $T0 ^ = $esp $T0 4 + = 
STACK WIN 4 16fb9 3 0 0 0 0 0 0 1 $T0 .raSearch = $eip $T0 ^ = $esp $T0 4 + = 
STACK WIN 4 16fbc 3 0 0 0 0 0 0 1 $T0 .raSearch = $eip $T0 ^ = $esp $T0 4 + = 
STACK WIN 4 16fbf 3 0 0 0 0 0 0 1 $T0 .raSearch = $eip $T0 ^ = $esp $T0 4 + = 
STACK WIN 4 16fc2 3 0 0 0 0 0 0 1 $T0 .raSearch = $eip $T0 ^ = $esp $T0 4 + = 
STACK WIN 4 16fc5 6 0 0 4 0 0 0 1 $T0 .raSearch = $eip $T0 ^ = $esp $T0 4 + = 
STACK WIN 4 16fcb 6 0 0 4 0 0 0 1 $T0 .raSearch = $eip $T0 ^ = $esp $T0 4 + = 
STACK WIN 4 16fd1 6 0 0 4 0 0 0 1 $T0 .raSearch = $eip $T0 ^ = $esp $T0 4 + = 
STACK WIN 4 16fd7 6 0 0 4 0 0 0 1 $T0 .raSearch = $eip $T0 ^ = $esp $T0 4 + = 
STACK WIN 4 16fdd 7 0 0 0 0 0 0 1 $T0 .raSearch = $eip $T0 ^ = $esp $T0 4 + = 
STACK WIN 4 16fe4 12 5 0 0 0 0 0 1 $T0 .raSearch = $eip $T0 ^ = $esp $T0 4 + = 
STACK WIN 4 16fe7 e 2 0 0 4 0 0 1 $T0 .raSearch = $eip $T0 ^ = $esp $T0 4 + =  $23 $T0 4 - ^ = 
STACK WIN 4 16ffa 12 5 0 0 0 0 0 1 $T0 .raSearch = $eip $T0 ^ = $esp $T0 4 + = 
STACK WIN 4 16ffd e 2 0 0 4 0 0 1 $T0 .raSearch = $eip $T0 ^ = $esp $T0 4 + =  $23 $T0 4 - ^ = 
STACK WIN 4 17010 12 5 0 0 0 0 0 1 $T0 .raSearch = $eip $T0 ^ = $esp $T0 4 + = 
STACK WIN 4 17013 e 2 0 0 4 0 0 1 $T0 .raSearch = $eip $T0 ^ = $esp $T0 4 + =  $23 $T0 4 - ^ = 
STACK WIN 4 17026 17 5 0 4 0 0 0 1 $T0 $ebp = $eip $T0 4 + ^ = $ebp $T0 ^ = $esp $T0 8 + = 
STACK WIN 4 17042 3 0 0 4 0 0 0 1 $T0 .raSearch = $eip $T0 ^ = $esp $T0 4 + = 
STACK WIN 4 17045 4f 6 0 c 0 0 0 1 $T0 $ebp = $eip $T0 4 + ^ = $ebp $T0 ^ = $esp $T0 8 + = 
STACK WIN 4 1704b 47 0 0 c 4 0 0 1 $T0 $ebp = $eip $T0 4 + ^ = $ebp $T0 ^ = $esp $T0 8 + =  $23 $T0 4 - ^ = 
STACK WIN 4 170a7 b 5 0 4 0 0 0 1 $T0 $ebp = $eip $T0 4 + ^ = $ebp $T0 ^ = $esp $T0 8 + = 
STACK WIN 4 170b4 b 5 0 4 0 0 0 1 $T0 $ebp = $eip $T0 4 + ^ = $ebp $T0 ^ = $esp $T0 8 + = 
STACK WIN 4 170c1 f 5 0 4 0 0 0 1 $T0 $ebp = $eip $T0 4 + ^ = $ebp $T0 ^ = $esp $T0 8 + = 
STACK WIN 4 170d3 f 5 0 4 0 0 0 1 $T0 $ebp = $eip $T0 4 + ^ = $ebp $T0 ^ = $esp $T0 8 + = 
STACK WIN 4 170e5 12 5 0 4 0 0 0 1 $T0 $ebp = $eip $T0 4 + ^ = $ebp $T0 ^ = $esp $T0 8 + = 
STACK WIN 4 170fb 14 0 0 0 0 0 0 1 $T0 .raSearch = $eip $T0 ^ = $esp $T0 4 + = 
STACK WIN 4 17114 14 0 0 0 0 0 0 1 $T0 .raSearch = $eip $T0 ^ = $esp $T0 4 + = 
STACK WIN 4 1712d 2c 0 0 0 0 0 0 1 $T0 .raSearch = $eip $T0 ^ = $esp $T0 4 + = 
STACK WIN 4 17164 2c 0 0 0 0 0 0 1 $T0 .raSearch = $eip $T0 ^ = $esp $T0 4 + = 
STACK WIN 4 1719b 53 0 0 0 0 0 0 1 $T0 .raSearch = $eip $T0 ^ = $esp $T0 4 + = 
STACK WIN 4 171a8 45 0 0 0 4 0 0 1 $T0 .raSearch = $eip $T0 ^ = $esp $T0 4 + =  $23 $T0 4 - ^ = 
STACK WIN 4 171a9 43 0 0 0 8 0 0 1 $T0 .raSearch = $eip $T0 ^ = $esp $T0 4 + =  $23 $T0 4 - ^ =  $24 $T0 8 - ^ = 
STACK WIN 4 17202 4e 0 0 0 0 0 0 1 $T0 .raSearch = $eip $T0 ^ = $esp $T0 4 + = 
STACK WIN 4 1720f 40 0 0 0 4 0 0 1 $T0 .raSearch = $eip $T0 ^ = $esp $T0 4 + =  $23 $T0 4 - ^ = 
STACK WIN 4 17210 3e 0 0 0 8 0 0 1 $T0 .raSearch = $eip $T0 ^ = $esp $T0 4 + =  $23 $T0 4 - ^ =  $24 $T0 8 - ^ = 
STACK WIN 4 17263 34 6 0 4 0 0 0 1 $T0 $ebp = $eip $T0 4 + ^ = $ebp $T0 ^ = $esp $T0 8 + = 
STACK WIN 4 17269 2c 0 0 4 4 0 0 1 $T0 $ebp = $eip $T0 4 + ^ = $ebp $T0 ^ = $esp $T0 8 + =  $23 $T0 4 - ^ = 
STACK WIN 4 17275 1d 0 0 4 8 0 0 1 $T0 $ebp = $eip $T0 4 + ^ = $ebp $T0 ^ = $esp $T0 8 + =  $23 $T0 4 - ^ =  $24 $T0 8 - ^ = 
STACK WIN 4 172a4 49 7 0 4 0 0 0 1 $T0 $ebp = $eip $T0 4 + ^ = $ebp $T0 ^ = $esp $T0 8 + = 
STACK WIN 4 172aa 41 1 0 4 4 0 0 1 $T0 $ebp = $eip $T0 4 + ^ = $ebp $T0 ^ = $esp $T0 8 + =  $20 $T0 4 - ^ = 
STACK WIN 4 172ab 3d 0 0 4 8 0 0 1 $T0 $ebp = $eip $T0 4 + ^ = $ebp $T0 ^ = $esp $T0 8 + =  $20 $T0 4 - ^ =  $23 $T0 8 - ^ = 
STACK WIN 4 172bb 2c 0 0 4 c 0 0 1 $T0 $ebp = $eip $T0 4 + ^ = $ebp $T0 ^ = $esp $T0 8 + =  $20 $T0 4 - ^ =  $23 $T0 8 - ^ =  $24 $T0 12 - ^ = 
STACK WIN 4 172ff d0 f 0 4 0 8 0 1 $T0 $ebp = $eip $T0 4 + ^ = $ebp $T0 ^ = $esp $T0 8 + = 
STACK WIN 4 17307 b9 7 0 4 4 8 0 1 $T0 $ebp = $eip $T0 4 + ^ = $ebp $T0 ^ = $esp $T0 8 + =  $20 $T0 12 - ^ = 
STACK WIN 4 1730d b2 1 0 4 8 8 0 1 $T0 $ebp = $eip $T0 4 + ^ = $ebp $T0 ^ = $esp $T0 8 + =  $20 $T0 12 - ^ =  $23 $T0 16 - ^ = 
STACK WIN 4 1730e b0 0 0 4 c 8 0 1 $T0 $ebp = $eip $T0 4 + ^ = $ebp $T0 ^ = $esp $T0 8 + =  $20 $T0 12 - ^ =  $23 $T0 16 - ^ =  $24 $T0 20 - ^ = 
STACK WIN 4 17403 10d 15 0 4 0 c 0 1 $T0 $ebp = $eip $T0 4 + ^ = $ebp $T0 ^ = $esp $T0 8 + = 
STACK WIN 4 1740c f5 c 0 4 4 c 0 1 $T0 $ebp = $eip $T0 4 + ^ = $ebp $T0 ^ = $esp $T0 8 + =  $20 $T0 16 - ^ = 
STACK WIN 4 17417 e9 1 0 4 8 c 0 1 $T0 $ebp = $eip $T0 4 + ^ = $ebp $T0 ^ = $esp $T0 8 + =  $20 $T0 16 - ^ =  $23 $T0 20 - ^ = 
STACK WIN 4 17418 e7 0 0 4 c c 0 1 $T0 $ebp = $eip $T0 4 + ^ = $ebp $T0 ^ = $esp $T0 8 + =  $20 $T0 16 - ^ =  $23 $T0 20 - ^ =  $24 $T0 24 - ^ = 
STACK WIN 4 17553 2f 6 0 4 0 0 0 1 $T0 $ebp = $eip $T0 4 + ^ = $ebp $T0 ^ = $esp $T0 8 + = 
STACK WIN 4 17559 27 0 0 4 4 0 0 1 $T0 $ebp = $eip $T0 4 + ^ = $ebp $T0 ^ = $esp $T0 8 + =  $23 $T0 4 - ^ = 
STACK WIN 4 17563 1c 0 0 4 8 0 0 1 $T0 $ebp = $eip $T0 4 + ^ = $ebp $T0 ^ = $esp $T0 8 + =  $23 $T0 4 - ^ =  $24 $T0 8 - ^ = 
STACK WIN 4 1758d 2f 6 0 4 0 0 0 1 $T0 $ebp = $eip $T0 4 + ^ = $ebp $T0 ^ = $esp $T0 8 + = 
STACK WIN 4 17593 27 0 0 4 4 0 0 1 $T0 $ebp = $eip $T0 4 + ^ = $ebp $T0 ^ = $esp $T0 8 + =  $23 $T0 4 - ^ = 
STACK WIN 4 1759d 1c 0 0 4 8 0 0 1 $T0 $ebp = $eip $T0 4 + ^ = $ebp $T0 ^ = $esp $T0 8 + =  $23 $T0 4 - ^ =  $24 $T0 8 - ^ = 
STACK WIN 4 175c7 5 0 0 0 0 0 0 1 $T0 .raSearch = $eip $T0 ^ = $esp $T0 4 + = 
STACK WIN 4 175cc 5 0 0 0 0 0 0 1 $T0 .raSearch = $eip $T0 ^ = $esp $T0 4 + = 
STACK WIN 4 175d1 83 5 0 0 0 0 0 1 $T0 .raSearch = $eip $T0 ^ = $esp $T0 4 + = 
STACK WIN 4 175d4 7f 2 0 0 4 0 0 1 $T0 .raSearch = $eip $T0 ^ = $esp $T0 4 + =  $20 $T0 4 - ^ = 
STACK WIN 4 175d5 7d 1 0 0 8 0 0 1 $T0 .raSearch = $eip $T0 ^ = $esp $T0 4 + =  $20 $T0 4 - ^ =  $23 $T0 8 - ^ = 
STACK WIN 4 175d6 7b 0 0 0 c 0 0 1 $T0 .raSearch = $eip $T0 ^ = $esp $T0 4 + =  $20 $T0 4 - ^ =  $23 $T0 8 - ^ =  $24 $T0 12 - ^ = 
STACK WIN 4 17674 7d 5 0 0 0 0 0 1 $T0 .raSearch = $eip $T0 ^ = $esp $T0 4 + = 
STACK WIN 4 17677 79 2 0 0 4 0 0 1 $T0 .raSearch = $eip $T0 ^ = $esp $T0 4 + =  $20 $T0 4 - ^ = 
STACK WIN 4 17678 77 1 0 0 8 0 0 1 $T0 .raSearch = $eip $T0 ^ = $esp $T0 4 + =  $20 $T0 4 - ^ =  $23 $T0 8 - ^ = 
STACK WIN 4 17679 75 0 0 0 c 0 0 1 $T0 .raSearch = $eip $T0 ^ = $esp $T0 4 + =  $20 $T0 4 - ^ =  $23 $T0 8 - ^ =  $24 $T0 12 - ^ = 
STACK WIN 4 17710 18 5 0 8 0 0 0 1 $T0 $ebp = $eip $T0 4 + ^ = $ebp $T0 ^ = $esp $T0 8 + = 
STACK WIN 4 1772e 18 5 0 8 0 0 0 1 $T0 $ebp = $eip $T0 4 + ^ = $ebp $T0 ^ = $esp $T0 8 + = 
STACK WIN 4 1774c 1e 5 0 c 0 0 0 1 $T0 $ebp = $eip $T0 4 + ^ = $ebp $T0 ^ = $esp $T0 8 + = 
STACK WIN 4 17771 1e 5 0 c 0 0 0 1 $T0 $ebp = $eip $T0 4 + ^ = $ebp $T0 ^ = $esp $T0 8 + = 
STACK WIN 4 17796 18 5 0 4 0 0 0 1 $T0 $ebp = $eip $T0 4 + ^ = $ebp $T0 ^ = $esp $T0 8 + = 
STACK WIN 4 177b4 1e 5 0 4 0 0 0 1 $T0 $ebp = $eip $T0 4 + ^ = $ebp $T0 ^ = $esp $T0 8 + = 
STACK WIN 4 177d9 29 8 0 4 0 0 0 1 $T0 $ebp = $eip $T0 4 + ^ = $ebp $T0 ^ = $esp $T0 8 + = 
STACK WIN 4 177df 1f 2 0 4 4 0 0 1 $T0 $ebp = $eip $T0 4 + ^ = $ebp $T0 ^ = $esp $T0 8 + =  $23 $T0 4 - ^ = 
STACK WIN 4 177e2 1b 0 0 4 8 0 0 1 $T0 $ebp = $eip $T0 4 + ^ = $ebp $T0 ^ = $esp $T0 8 + =  $23 $T0 4 - ^ =  $24 $T0 8 - ^ = 
STACK WIN 4 1780c 29 8 0 4 0 0 0 1 $T0 $ebp = $eip $T0 4 + ^ = $ebp $T0 ^ = $esp $T0 8 + = 
STACK WIN 4 17812 1f 2 0 4 4 0 0 1 $T0 $ebp = $eip $T0 4 + ^ = $ebp $T0 ^ = $esp $T0 8 + =  $23 $T0 4 - ^ = 
STACK WIN 4 17815 1b 0 0 4 8 0 0 1 $T0 $ebp = $eip $T0 4 + ^ = $ebp $T0 ^ = $esp $T0 8 + =  $23 $T0 4 - ^ =  $24 $T0 8 - ^ = 
STACK WIN 4 1783f 1b 5 0 4 0 0 0 1 $T0 $ebp = $eip $T0 4 + ^ = $ebp $T0 ^ = $esp $T0 8 + = 
STACK WIN 4 17860 1b 5 0 4 0 0 0 1 $T0 $ebp = $eip $T0 4 + ^ = $ebp $T0 ^ = $esp $T0 8 + = 
STACK WIN 4 17881 10 5 0 4 0 0 0 1 $T0 $ebp = $eip $T0 4 + ^ = $ebp $T0 ^ = $esp $T0 8 + = 
STACK WIN 4 17895 12 5 0 0 0 0 0 1 $T0 .raSearch = $eip $T0 ^ = $esp $T0 4 + = 
STACK WIN 4 17898 e 2 0 0 4 0 0 1 $T0 .raSearch = $eip $T0 ^ = $esp $T0 4 + =  $23 $T0 4 - ^ = 
STACK WIN 4 178ab 7 0 0 0 0 0 0 1 $T0 .raSearch = $eip $T0 ^ = $esp $T0 4 + = 
STACK WIN 4 178b2 7 0 0 0 0 0 0 1 $T0 .raSearch = $eip $T0 ^ = $esp $T0 4 + = 
STACK WIN 4 178b9 7 0 0 0 0 0 0 1 $T0 .raSearch = $eip $T0 ^ = $esp $T0 4 + = 
STACK WIN 4 178c0 1c 5 0 8 0 0 0 1 $T0 $ebp = $eip $T0 4 + ^ = $ebp $T0 ^ = $esp $T0 8 + = 
STACK WIN 4 178e3 1e 5 0 8 0 0 0 1 $T0 $ebp = $eip $T0 4 + ^ = $ebp $T0 ^ = $esp $T0 8 + = 
STACK WIN 4 17908 1f 5 0 10 0 0 0 1 $T0 $ebp = $eip $T0 4 + ^ = $ebp $T0 ^ = $esp $T0 8 + = 
STACK WIN 4 1792e 22 5 0 10 0 0 0 1 $T0 $ebp = $eip $T0 4 + ^ = $ebp $T0 ^ = $esp $T0 8 + = 
STACK WIN 4 17958 6 0 0 0 0 0 0 1 $T0 .raSearch = $eip $T0 ^ = $esp $T0 4 + = 
STACK WIN 4 1795e 6 0 0 0 0 0 0 1 $T0 .raSearch = $eip $T0 ^ = $esp $T0 4 + = 
STACK WIN 4 17964 3 0 0 0 0 0 0 1 $T0 .raSearch = $eip $T0 ^ = $esp $T0 4 + = 
STACK WIN 4 17967 6 0 0 4 0 0 0 1 $T0 .raSearch = $eip $T0 ^ = $esp $T0 4 + = 
STACK WIN 4 1796d 6 0 0 4 0 0 0 1 $T0 .raSearch = $eip $T0 ^ = $esp $T0 4 + = 
STACK WIN 4 17973 6 0 0 4 0 0 0 1 $T0 .raSearch = $eip $T0 ^ = $esp $T0 4 + = 
STACK WIN 4 17979 6 0 0 4 0 0 0 1 $T0 .raSearch = $eip $T0 ^ = $esp $T0 4 + = 
STACK WIN 4 1797f 6 0 0 4 0 0 0 1 $T0 .raSearch = $eip $T0 ^ = $esp $T0 4 + = 
STACK WIN 4 17985 6 0 0 4 0 0 0 1 $T0 .raSearch = $eip $T0 ^ = $esp $T0 4 + = 
STACK WIN 4 1798b 26 d 0 4 0 0 0 1 $T0 $ebp = $eip $T0 4 + ^ = $ebp $T0 ^ = $esp $T0 8 + = 
STACK WIN 4 17998 15 0 0 4 4 0 0 1 $T0 $ebp = $eip $T0 4 + ^ = $ebp $T0 ^ = $esp $T0 8 + =  $23 $T0 4 - ^ = 
STACK WIN 4 179ba 26 d 0 4 0 0 0 1 $T0 $ebp = $eip $T0 4 + ^ = $ebp $T0 ^ = $esp $T0 8 + = 
STACK WIN 4 179c7 15 0 0 4 4 0 0 1 $T0 $ebp = $eip $T0 4 + ^ = $ebp $T0 ^ = $esp $T0 8 + =  $23 $T0 4 - ^ = 
STACK WIN 4 179e9 7 0 0 0 0 0 0 1 $T0 .raSearch = $eip $T0 ^ = $esp $T0 4 + = 
STACK WIN 4 179f0 7 0 0 0 0 0 0 1 $T0 .raSearch = $eip $T0 ^ = $esp $T0 4 + = 
STACK WIN 4 179f7 7 0 0 0 0 0 0 1 $T0 .raSearch = $eip $T0 ^ = $esp $T0 4 + = 
STACK WIN 4 179fe 5 0 0 4 0 0 0 1 $T0 .raSearch = $eip $T0 ^ = $esp $T0 4 + = 
STACK WIN 4 17a03 3 0 0 4 0 0 0 1 $T0 .raSearch = $eip $T0 ^ = $esp $T0 4 + = 
STACK WIN 4 17a06 12 5 0 0 0 0 0 1 $T0 .raSearch = $eip $T0 ^ = $esp $T0 4 + = 
STACK WIN 4 17a09 e 2 0 0 4 0 0 1 $T0 .raSearch = $eip $T0 ^ = $esp $T0 4 + =  $23 $T0 4 - ^ = 
STACK WIN 4 17a1c 3 0 0 0 0 0 0 1 $T0 .raSearch = $eip $T0 ^ = $esp $T0 4 + = 
STACK WIN 4 17a1f 3 0 0 0 0 0 0 1 $T0 .raSearch = $eip $T0 ^ = $esp $T0 4 + = 
STACK WIN 4 17a22 5 0 0 0 0 0 0 1 $T0 .raSearch = $eip $T0 ^ = $esp $T0 4 + = 
STACK WIN 4 17a27 5 0 0 0 0 0 0 1 $T0 .raSearch = $eip $T0 ^ = $esp $T0 4 + = 
STACK WIN 4 17a2c 37 0 0 0 0 0 0 1 $T0 .raSearch = $eip $T0 ^ = $esp $T0 4 + = 
STACK WIN 4 17a70 6 0 0 0 0 0 0 1 $T0 .raSearch = $eip $T0 ^ = $esp $T0 4 + = 
STACK WIN 4 17a76 6 0 0 0 0 0 0 1 $T0 .raSearch = $eip $T0 ^ = $esp $T0 4 + = 
STACK WIN 4 17a7c 14 0 0 0 0 0 0 1 $T0 .raSearch = $eip $T0 ^ = $esp $T0 4 + = 
STACK WIN 4 17a95 14 0 0 0 0 0 0 1 $T0 .raSearch = $eip $T0 ^ = $esp $T0 4 + = 
STACK WIN 4 17aae 5 0 0 0 0 0 0 1 $T0 .raSearch = $eip $T0 ^ = $esp $T0 4 + = 
STACK WIN 4 17ab3 5 0 0 0 0 0 0 1 $T0 .raSearch = $eip $T0 ^ = $esp $T0 4 + = 
STACK WIN 4 17ab8 22 5 0 18 0 0 0 1 $T0 $ebp = $eip $T0 4 + ^ = $ebp $T0 ^ = $esp $T0 8 + = 
STACK WIN 4 17ae2 6 0 0 0 0 0 0 1 $T0 .raSearch = $eip $T0 ^ = $esp $T0 4 + = 
STACK WIN 4 17ae8 12 5 0 4 0 0 0 1 $T0 $ebp = $eip $T0 4 + ^ = $ebp $T0 ^ = $esp $T0 8 + = 
STACK WIN 4 17afe 5b c 0 c 10 1c 0 1 $T0 $ebp = $eip $T0 4 + ^ = $ebp $T0 ^ = $esp $T0 8 + =  $20 $T0 32 - ^ =  $23 $T0 36 - ^ =  $24 $T0 40 - ^ = 
STACK WIN 4 17b4a e 0 0 c 10 1c 0 1 $T0 $ebp = $T2 $esp = $T1 .raSearchStart = $eip $T1 ^ = $ebp $T0 = $esp $T1 4 + = 
STACK WIN 4 17b6f 5b c 0 c 10 1c 0 1 $T0 $ebp = $eip $T0 4 + ^ = $ebp $T0 ^ = $esp $T0 8 + =  $20 $T0 32 - ^ =  $23 $T0 36 - ^ =  $24 $T0 40 - ^ = 
STACK WIN 4 17bbb e 0 0 c 10 1c 0 1 $T0 $ebp = $T2 $esp = $T1 .raSearchStart = $eip $T1 ^ = $ebp $T0 = $esp $T1 4 + = 
STACK WIN 4 17be0 26 8 0 8 0 c 0 1 $T0 $ebp = $eip $T0 4 + ^ = $ebp $T0 ^ = $esp $T0 8 + = 
STACK WIN 4 17c0f 26 8 0 8 0 c 0 1 $T0 $ebp = $eip $T0 4 + ^ = $ebp $T0 ^ = $esp $T0 8 + = 
STACK WIN 4 17c3e 1f 5 0 4 0 0 0 1 $T0 $ebp = $eip $T0 4 + ^ = $ebp $T0 ^ = $esp $T0 8 + = 
STACK WIN 4 17c64 12 5 0 4 0 0 0 1 $T0 $ebp = $eip $T0 4 + ^ = $ebp $T0 ^ = $esp $T0 8 + = 
STACK WIN 4 17c7a 12 5 0 4 0 0 0 1 $T0 $ebp = $eip $T0 4 + ^ = $ebp $T0 ^ = $esp $T0 8 + = 
STACK WIN 4 17c90 16 5 0 8 0 0 0 1 $T0 $ebp = $eip $T0 4 + ^ = $ebp $T0 ^ = $esp $T0 8 + = 
STACK WIN 4 17cab 12 5 0 4 0 0 0 1 $T0 $ebp = $eip $T0 4 + ^ = $ebp $T0 ^ = $esp $T0 8 + = 
STACK WIN 4 17cc1 12 5 0 4 0 0 0 1 $T0 $ebp = $eip $T0 4 + ^ = $ebp $T0 ^ = $esp $T0 8 + = 
STACK WIN 4 17cd7 10 5 0 4 0 0 0 1 $T0 $ebp = $eip $T0 4 + ^ = $ebp $T0 ^ = $esp $T0 8 + = 
STACK WIN 4 17ceb 10 5 0 4 0 0 0 1 $T0 $ebp = $eip $T0 4 + ^ = $ebp $T0 ^ = $esp $T0 8 + = 
STACK WIN 4 17cff 12 5 0 0 0 0 0 1 $T0 .raSearch = $eip $T0 ^ = $esp $T0 4 + = 
STACK WIN 4 17d02 e 2 0 0 4 0 0 1 $T0 .raSearch = $eip $T0 ^ = $esp $T0 4 + =  $23 $T0 4 - ^ = 
STACK WIN 4 17d15 3 0 0 0 0 0 0 1 $T0 .raSearch = $eip $T0 ^ = $esp $T0 4 + = 
STACK WIN 4 17d18 9 0 0 0 0 0 0 1 $T0 .raSearch = $eip $T0 ^ = $esp $T0 4 + = 
STACK WIN 4 17d23 9 0 0 0 0 0 0 1 $T0 .raSearch = $eip $T0 ^ = $esp $T0 4 + = 
STACK WIN 4 17d2e 129 d 0 0 0 c 0 1 $T0 $ebp = $eip $T0 4 + ^ = $ebp $T0 ^ = $esp $T0 8 + = 
STACK WIN 4 17d3c 119 0 0 0 4 c 0 1 $T0 $ebp = $eip $T0 4 + ^ = $ebp $T0 ^ = $esp $T0 8 + =  $20 $T0 16 - ^ = 
STACK WIN 4 17d3d 117 0 0 0 8 c 0 1 $T0 $ebp = $eip $T0 4 + ^ = $ebp $T0 ^ = $esp $T0 8 + =  $20 $T0 16 - ^ =  $23 $T0 20 - ^ = 
STACK WIN 4 17d40 113 0 0 0 c c 0 1 $T0 $ebp = $eip $T0 4 + ^ = $ebp $T0 ^ = $esp $T0 8 + =  $20 $T0 16 - ^ =  $23 $T0 20 - ^ =  $24 $T0 24 - ^ = 
STACK WIN 4 17ea1 9 0 0 0 0 0 0 1 $T0 .raSearch = $eip $T0 ^ = $esp $T0 4 + = 
STACK WIN 4 17eac 9 0 0 0 0 0 0 1 $T0 .raSearch = $eip $T0 ^ = $esp $T0 4 + = 
STACK WIN 4 17eb7 da f 0 0 0 14 0 1 $T0 $ebp = $eip $T0 4 + ^ = $ebp $T0 ^ = $esp $T0 8 + = 
STACK WIN 4 17ec0 cf 6 0 0 4 14 0 1 $T0 $ebp = $eip $T0 4 + ^ = $ebp $T0 ^ = $esp $T0 8 + =  $20 $T0 24 - ^ = 
STACK WIN 4 17ec3 cb 3 0 0 8 14 0 1 $T0 $ebp = $eip $T0 4 + ^ = $ebp $T0 ^ = $esp $T0 8 + =  $20 $T0 24 - ^ =  $24 $T0 28 - ^ = 
STACK WIN 4 17edf ae 0 0 0 c 14 0 1 $T0 $ebp = $eip $T0 4 + ^ = $ebp $T0 ^ = $esp $T0 8 + =  $20 $T0 24 - ^ =  $24 $T0 28 - ^ =  $23 $T0 32 - ^ = 
STACK WIN 4 17fc7 6 0 0 0 0 0 0 1 $T0 .raSearch = $eip $T0 ^ = $esp $T0 4 + = 
STACK WIN 4 17fcd 12 5 0 0 0 0 0 1 $T0 .raSearch = $eip $T0 ^ = $esp $T0 4 + = 
STACK WIN 4 17fd0 e 2 0 0 4 0 0 1 $T0 .raSearch = $eip $T0 ^ = $esp $T0 4 + =  $23 $T0 4 - ^ = 
STACK WIN 4 17fe3 16 5 0 4 0 0 0 1 $T0 $ebp = $eip $T0 4 + ^ = $ebp $T0 ^ = $esp $T0 8 + = 
STACK WIN 4 17ffe 16 5 0 4 0 0 0 1 $T0 $ebp = $eip $T0 4 + ^ = $ebp $T0 ^ = $esp $T0 8 + = 
STACK WIN 4 18019 2d 8 0 4 0 10 0 1 $T0 $ebp = $eip $T0 4 + ^ = $ebp $T0 ^ = $esp $T0 8 + = 
STACK WIN 4 18051 29 5 0 4 0 0 0 1 $T0 $ebp = $eip $T0 4 + ^ = $ebp $T0 ^ = $esp $T0 8 + = 
STACK WIN 4 18084 33 8 0 8 0 14 0 1 $T0 $ebp = $eip $T0 4 + ^ = $ebp $T0 ^ = $esp $T0 8 + = 
STACK WIN 4 180c3 3 0 0 4 0 0 0 1 $T0 .raSearch = $eip $T0 ^ = $esp $T0 4 + = 
STACK WIN 4 180c6 d 0 0 0 0 0 0 1 $T0 .raSearch = $eip $T0 ^ = $esp $T0 4 + = 
STACK WIN 4 180d6 1a 0 0 0 0 0 0 1 $T0 .raSearch = $eip $T0 ^ = $esp $T0 4 + = 
STACK WIN 4 180f6 3 0 0 4 0 0 0 1 $T0 .raSearch = $eip $T0 ^ = $esp $T0 4 + = 
STACK WIN 4 180f9 3 0 0 0 0 0 0 1 $T0 .raSearch = $eip $T0 ^ = $esp $T0 4 + = 
STACK WIN 4 180fc 8 0 0 4 0 0 0 1 $T0 .raSearch = $eip $T0 ^ = $esp $T0 4 + = 
STACK WIN 4 18106 3 0 0 0 0 0 0 1 $T0 .raSearch = $eip $T0 ^ = $esp $T0 4 + = 
STACK WIN 4 18109 3 0 0 4 0 0 0 1 $T0 .raSearch = $eip $T0 ^ = $esp $T0 4 + = 
STACK WIN 4 1810c 2e 3 0 0 0 0 0 1 $T0 .raSearch = $eip $T0 ^ = $esp $T0 4 + = 
STACK WIN 4 1810f 2a 0 0 0 4 0 0 1 $T0 .raSearch = $eip $T0 ^ = $esp $T0 4 + =  $23 $T0 4 - ^ = 
STACK WIN 4 18145 9 0 0 4 0 0 0 1 $T0 .raSearch = $eip $T0 ^ = $esp $T0 4 + = 
STACK WIN 4 18150 17 6 0 4 0 4 0 1 $T0 $ebp = $eip $T0 4 + ^ = $ebp $T0 ^ = $esp $T0 8 + = 
STACK WIN 4 1816c 50 3 0 4 0 0 0 1 $T0 .raSearch = $eip $T0 ^ = $esp $T0 4 + = 
STACK WIN 4 1816f 4c 0 0 4 4 0 0 1 $T0 .raSearch = $eip $T0 ^ = $esp $T0 4 + =  $23 $T0 4 - ^ = 
STACK WIN 4 181d0 24 8 0 4 0 0 0 1 $T0 $ebp = $eip $T0 4 + ^ = $ebp $T0 ^ = $esp $T0 8 + = 
STACK WIN 4 181d6 1a 2 0 4 4 0 0 1 $T0 $ebp = $eip $T0 4 + ^ = $ebp $T0 ^ = $esp $T0 8 + =  $23 $T0 4 - ^ = 
STACK WIN 4 181d9 16 0 0 4 8 0 0 1 $T0 $ebp = $eip $T0 4 + ^ = $ebp $T0 ^ = $esp $T0 8 + =  $23 $T0 4 - ^ =  $24 $T0 8 - ^ = 
STACK WIN 4 181fd 2e 6 0 4 0 0 0 1 $T0 $ebp = $eip $T0 4 + ^ = $ebp $T0 ^ = $esp $T0 8 + = 
STACK WIN 4 18203 24 0 0 4 4 0 0 1 $T0 $ebp = $eip $T0 4 + ^ = $ebp $T0 ^ = $esp $T0 8 + =  $23 $T0 4 - ^ = 
STACK WIN 4 18212 14 0 0 4 8 0 0 1 $T0 $ebp = $eip $T0 4 + ^ = $ebp $T0 ^ = $esp $T0 8 + =  $23 $T0 4 - ^ =  $24 $T0 8 - ^ = 
STACK WIN 4 18236 b 0 0 0 0 0 0 1 $T0 .raSearch = $eip $T0 ^ = $esp $T0 4 + = 
STACK WIN 4 18243 26 d 0 4 0 0 0 1 $T0 $ebp = $eip $T0 4 + ^ = $ebp $T0 ^ = $esp $T0 8 + = 
STACK WIN 4 18250 15 0 0 4 4 0 0 1 $T0 $ebp = $eip $T0 4 + ^ = $ebp $T0 ^ = $esp $T0 8 + =  $23 $T0 4 - ^ = 
STACK WIN 4 18272 12 0 0 0 0 0 0 1 $T0 .raSearch = $eip $T0 ^ = $esp $T0 4 + = 
STACK WIN 4 18288 b 0 0 0 0 0 0 1 $T0 .raSearch = $eip $T0 ^ = $esp $T0 4 + = 
STACK WIN 4 18295 8 0 0 0 0 0 0 1 $T0 .raSearch = $eip $T0 ^ = $esp $T0 4 + = 
STACK WIN 4 1829f 30 5 0 4 0 0 0 1 $T0 $ebp = $eip $T0 4 + ^ = $ebp $T0 ^ = $esp $T0 8 + = 
STACK WIN 4 182db 12 5 0 4 0 0 0 1 $T0 $ebp = $eip $T0 4 + ^ = $ebp $T0 ^ = $esp $T0 8 + = 
STACK WIN 4 182f1 16 5 0 4 0 0 0 1 $T0 $ebp = $eip $T0 4 + ^ = $ebp $T0 ^ = $esp $T0 8 + = 
STACK WIN 4 1830c 12 0 0 0 0 0 0 1 $T0 .raSearch = $eip $T0 ^ = $esp $T0 4 + = 
STACK WIN 4 18322 20 5 0 4 0 0 0 1 $T0 $ebp = $eip $T0 4 + ^ = $ebp $T0 ^ = $esp $T0 8 + = 
STACK WIN 4 1834a 3c c 0 0 10 18 0 1 $T0 $ebp = $eip $T0 4 + ^ = $ebp $T0 ^ = $esp $T0 8 + =  $20 $T0 28 - ^ =  $23 $T0 32 - ^ =  $24 $T0 36 - ^ = 
STACK WIN 4 18372 4 0 0 0 10 18 0 1 $T0 $ebp = $T2 $esp = $T1 .raSearchStart = $eip $T1 ^ = $ebp $T0 = $esp $T1 4 + = 
STACK WIN 4 18395 b 5 0 4 0 0 0 1 $T0 $ebp = $eip $T0 4 + ^ = $ebp $T0 ^ = $esp $T0 8 + = 
STACK WIN 4 183a2 5a 9 0 c 0 0 0 1 $T0 $ebp = $eip $T0 4 + ^ = $ebp $T0 ^ = $esp $T0 8 + = 
STACK WIN 4 183ab 27 0 0 c 4 0 0 1 $T0 $ebp = $eip $T0 4 + ^ = $ebp $T0 ^ = $esp $T0 8 + =  $23 $T0 4 - ^ = 
STACK WIN 4 183d5 14 0 0 c 8 0 0 1 $T0 $ebp = $eip $T0 4 + ^ = $ebp $T0 ^ = $esp $T0 8 + =  $23 $T0 4 - ^ =  $24 $T0 8 - ^ = 
STACK WIN 4 18412 5a 9 0 c 0 0 0 1 $T0 $ebp = $eip $T0 4 + ^ = $ebp $T0 ^ = $esp $T0 8 + = 
STACK WIN 4 1841b 27 0 0 c 4 0 0 1 $T0 $ebp = $eip $T0 4 + ^ = $ebp $T0 ^ = $esp $T0 8 + =  $23 $T0 4 - ^ = 
STACK WIN 4 18445 14 0 0 c 8 0 0 1 $T0 $ebp = $eip $T0 4 + ^ = $ebp $T0 ^ = $esp $T0 8 + =  $23 $T0 4 - ^ =  $24 $T0 8 - ^ = 
STACK WIN 4 18482 23 b 0 14 0 0 0 1 $T0 $ebp = $eip $T0 4 + ^ = $ebp $T0 ^ = $esp $T0 8 + = 
STACK WIN 4 18488 19 5 0 14 4 0 0 1 $T0 $ebp = $eip $T0 4 + ^ = $ebp $T0 ^ = $esp $T0 8 + =  $23 $T0 4 - ^ = 
STACK WIN 4 184ad 48 b 0 14 0 0 0 1 $T0 $ebp = $eip $T0 4 + ^ = $ebp $T0 ^ = $esp $T0 8 + = 
STACK WIN 4 184b3 3e 5 0 14 4 0 0 1 $T0 $ebp = $eip $T0 4 + ^ = $ebp $T0 ^ = $esp $T0 8 + =  $23 $T0 4 - ^ = 
STACK WIN 4 18507 35 b 0 14 0 0 0 1 $T0 $ebp = $eip $T0 4 + ^ = $ebp $T0 ^ = $esp $T0 8 + = 
STACK WIN 4 18510 28 2 0 14 4 0 0 1 $T0 $ebp = $eip $T0 4 + ^ = $ebp $T0 ^ = $esp $T0 8 + =  $23 $T0 4 - ^ = 
STACK WIN 4 18549 23 b 0 14 0 0 0 1 $T0 $ebp = $eip $T0 4 + ^ = $ebp $T0 ^ = $esp $T0 8 + = 
STACK WIN 4 1854f 19 5 0 14 4 0 0 1 $T0 $ebp = $eip $T0 4 + ^ = $ebp $T0 ^ = $esp $T0 8 + =  $23 $T0 4 - ^ = 
STACK WIN 4 18574 48 b 0 14 0 0 0 1 $T0 $ebp = $eip $T0 4 + ^ = $ebp $T0 ^ = $esp $T0 8 + = 
STACK WIN 4 1857a 3e 5 0 14 4 0 0 1 $T0 $ebp = $eip $T0 4 + ^ = $ebp $T0 ^ = $esp $T0 8 + =  $23 $T0 4 - ^ = 
STACK WIN 4 185ce 35 b 0 14 0 0 0 1 $T0 $ebp = $eip $T0 4 + ^ = $ebp $T0 ^ = $esp $T0 8 + = 
STACK WIN 4 185d7 28 2 0 14 4 0 0 1 $T0 $ebp = $eip $T0 4 + ^ = $ebp $T0 ^ = $esp $T0 8 + =  $23 $T0 4 - ^ = 
STACK WIN 4 18610 23 b 0 14 0 0 0 1 $T0 $ebp = $eip $T0 4 + ^ = $ebp $T0 ^ = $esp $T0 8 + = 
STACK WIN 4 18616 19 5 0 14 4 0 0 1 $T0 $ebp = $eip $T0 4 + ^ = $ebp $T0 ^ = $esp $T0 8 + =  $23 $T0 4 - ^ = 
STACK WIN 4 1863b 48 b 0 14 0 0 0 1 $T0 $ebp = $eip $T0 4 + ^ = $ebp $T0 ^ = $esp $T0 8 + = 
STACK WIN 4 18641 3e 5 0 14 4 0 0 1 $T0 $ebp = $eip $T0 4 + ^ = $ebp $T0 ^ = $esp $T0 8 + =  $23 $T0 4 - ^ = 
STACK WIN 4 18695 35 b 0 14 0 0 0 1 $T0 $ebp = $eip $T0 4 + ^ = $ebp $T0 ^ = $esp $T0 8 + = 
STACK WIN 4 1869e 28 2 0 14 4 0 0 1 $T0 $ebp = $eip $T0 4 + ^ = $ebp $T0 ^ = $esp $T0 8 + =  $23 $T0 4 - ^ = 
STACK WIN 4 186d7 23 b 0 14 0 0 0 1 $T0 $ebp = $eip $T0 4 + ^ = $ebp $T0 ^ = $esp $T0 8 + = 
STACK WIN 4 186dd 19 5 0 14 4 0 0 1 $T0 $ebp = $eip $T0 4 + ^ = $ebp $T0 ^ = $esp $T0 8 + =  $23 $T0 4 - ^ = 
STACK WIN 4 18702 48 b 0 14 0 0 0 1 $T0 $ebp = $eip $T0 4 + ^ = $ebp $T0 ^ = $esp $T0 8 + = 
STACK WIN 4 18708 3e 5 0 14 4 0 0 1 $T0 $ebp = $eip $T0 4 + ^ = $ebp $T0 ^ = $esp $T0 8 + =  $23 $T0 4 - ^ = 
STACK WIN 4 1875c 35 b 0 14 0 0 0 1 $T0 $ebp = $eip $T0 4 + ^ = $ebp $T0 ^ = $esp $T0 8 + = 
STACK WIN 4 18765 28 2 0 14 4 0 0 1 $T0 $ebp = $eip $T0 4 + ^ = $ebp $T0 ^ = $esp $T0 8 + =  $23 $T0 4 - ^ = 
STACK WIN 4 1879e 5b c 0 c 10 1c 0 1 $T0 $ebp = $eip $T0 4 + ^ = $ebp $T0 ^ = $esp $T0 8 + =  $20 $T0 32 - ^ =  $23 $T0 36 - ^ =  $24 $T0 40 - ^ = 
STACK WIN 4 187ea e 0 0 c 10 1c 0 1 $T0 $ebp = $T2 $esp = $T1 .raSearchStart = $eip $T1 ^ = $ebp $T0 = $esp $T1 4 + = 
STACK WIN 4 1880f 5b c 0 c 10 1c 0 1 $T0 $ebp = $eip $T0 4 + ^ = $ebp $T0 ^ = $esp $T0 8 + =  $20 $T0 32 - ^ =  $23 $T0 36 - ^ =  $24 $T0 40 - ^ = 
STACK WIN 4 1885b e 0 0 c 10 1c 0 1 $T0 $ebp = $T2 $esp = $T1 .raSearchStart = $eip $T1 ^ = $ebp $T0 = $esp $T1 4 + = 
STACK WIN 4 18880 5b c 0 c 10 1c 0 1 $T0 $ebp = $eip $T0 4 + ^ = $ebp $T0 ^ = $esp $T0 8 + =  $20 $T0 32 - ^ =  $23 $T0 36 - ^ =  $24 $T0 40 - ^ = 
STACK WIN 4 188cc e 0 0 c 10 1c 0 1 $T0 $ebp = $T2 $esp = $T1 .raSearchStart = $eip $T1 ^ = $ebp $T0 = $esp $T1 4 + = 
STACK WIN 4 188f1 5b c 0 c 10 1c 0 1 $T0 $ebp = $eip $T0 4 + ^ = $ebp $T0 ^ = $esp $T0 8 + =  $20 $T0 32 - ^ =  $23 $T0 36 - ^ =  $24 $T0 40 - ^ = 
STACK WIN 4 1893d e 0 0 c 10 1c 0 1 $T0 $ebp = $T2 $esp = $T1 .raSearchStart = $eip $T1 ^ = $ebp $T0 = $esp $T1 4 + = 
STACK WIN 4 18962 5b c 0 c 10 1c 0 1 $T0 $ebp = $eip $T0 4 + ^ = $ebp $T0 ^ = $esp $T0 8 + =  $20 $T0 32 - ^ =  $23 $T0 36 - ^ =  $24 $T0 40 - ^ = 
STACK WIN 4 189ae e 0 0 c 10 1c 0 1 $T0 $ebp = $T2 $esp = $T1 .raSearchStart = $eip $T1 ^ = $ebp $T0 = $esp $T1 4 + = 
STACK WIN 4 189d3 5b c 0 c 10 1c 0 1 $T0 $ebp = $eip $T0 4 + ^ = $ebp $T0 ^ = $esp $T0 8 + =  $20 $T0 32 - ^ =  $23 $T0 36 - ^ =  $24 $T0 40 - ^ = 
STACK WIN 4 18a1f e 0 0 c 10 1c 0 1 $T0 $ebp = $T2 $esp = $T1 .raSearchStart = $eip $T1 ^ = $ebp $T0 = $esp $T1 4 + = 
STACK WIN 4 18a44 26 8 0 8 0 c 0 1 $T0 $ebp = $eip $T0 4 + ^ = $ebp $T0 ^ = $esp $T0 8 + = 
STACK WIN 4 18a73 26 8 0 8 0 c 0 1 $T0 $ebp = $eip $T0 4 + ^ = $ebp $T0 ^ = $esp $T0 8 + = 
STACK WIN 4 18aa2 26 8 0 8 0 c 0 1 $T0 $ebp = $eip $T0 4 + ^ = $ebp $T0 ^ = $esp $T0 8 + = 
STACK WIN 4 18ad1 26 8 0 8 0 c 0 1 $T0 $ebp = $eip $T0 4 + ^ = $ebp $T0 ^ = $esp $T0 8 + = 
STACK WIN 4 18b00 26 8 0 8 0 c 0 1 $T0 $ebp = $eip $T0 4 + ^ = $ebp $T0 ^ = $esp $T0 8 + = 
STACK WIN 4 18b2f 26 8 0 8 0 c 0 1 $T0 $ebp = $eip $T0 4 + ^ = $ebp $T0 ^ = $esp $T0 8 + = 
STACK WIN 4 18b5e 64 b 0 18 0 20 0 1 $T0 $ebp = $eip $T0 4 + ^ = $ebp $T0 ^ = $esp $T0 8 + = 
STACK WIN 4 18bdb 64 b 0 18 0 20 0 1 $T0 $ebp = $eip $T0 4 + ^ = $ebp $T0 ^ = $esp $T0 8 + = 
STACK WIN 4 18c58 64 b 0 18 0 20 0 1 $T0 $ebp = $eip $T0 4 + ^ = $ebp $T0 ^ = $esp $T0 8 + = 
STACK WIN 4 18cd5 64 b 0 18 0 20 0 1 $T0 $ebp = $eip $T0 4 + ^ = $ebp $T0 ^ = $esp $T0 8 + = 
STACK WIN 4 18d52 64 b 0 18 0 20 0 1 $T0 $ebp = $eip $T0 4 + ^ = $ebp $T0 ^ = $esp $T0 8 + = 
STACK WIN 4 18dcf 64 b 0 18 0 20 0 1 $T0 $ebp = $eip $T0 4 + ^ = $ebp $T0 ^ = $esp $T0 8 + = 
STACK WIN 4 18e4c e8 6 0 20 0 4 0 1 $T0 $ebp = $eip $T0 4 + ^ = $ebp $T0 ^ = $esp $T0 8 + = 
STACK WIN 4 18e6e 8f 0 0 20 4 4 0 1 $T0 $ebp = $eip $T0 4 + ^ = $ebp $T0 ^ = $esp $T0 8 + =  $20 $T0 8 - ^ = 
STACK WIN 4 18e72 8a 0 0 20 8 4 0 1 $T0 $ebp = $eip $T0 4 + ^ = $ebp $T0 ^ = $esp $T0 8 + =  $20 $T0 8 - ^ =  $23 $T0 12 - ^ = 
STACK WIN 4 18e76 85 0 0 20 c 4 0 1 $T0 $ebp = $eip $T0 4 + ^ = $ebp $T0 ^ = $esp $T0 8 + =  $20 $T0 8 - ^ =  $23 $T0 12 - ^ =  $24 $T0 16 - ^ = 
STACK WIN 4 18f6e ec 6 0 20 0 4 0 1 $T0 $ebp = $eip $T0 4 + ^ = $ebp $T0 ^ = $esp $T0 8 + = 
STACK WIN 4 18f90 91 0 0 20 4 4 0 1 $T0 $ebp = $eip $T0 4 + ^ = $ebp $T0 ^ = $esp $T0 8 + =  $20 $T0 8 - ^ = 
STACK WIN 4 18f94 8c 0 0 20 8 4 0 1 $T0 $ebp = $eip $T0 4 + ^ = $ebp $T0 ^ = $esp $T0 8 + =  $20 $T0 8 - ^ =  $23 $T0 12 - ^ = 
STACK WIN 4 18f98 87 0 0 20 c 4 0 1 $T0 $ebp = $eip $T0 4 + ^ = $ebp $T0 ^ = $esp $T0 8 + =  $20 $T0 8 - ^ =  $23 $T0 12 - ^ =  $24 $T0 16 - ^ = 
STACK WIN 4 19095 17e 1d 0 1c 0 484 0 1 $T0 $ebp = $eip $T0 4 + ^ = $ebp $T0 ^ = $esp $T0 8 + = 
STACK WIN 4 190b2 13e 0 0 1c 4 484 0 1 $T0 $ebp = $eip $T0 4 + ^ = $ebp $T0 ^ = $esp $T0 8 + =  $20 $T0 1160 - ^ = 
STACK WIN 4 190de 12f 0 0 1c 8 484 0 1 $T0 $ebp = $eip $T0 4 + ^ = $ebp $T0 ^ = $esp $T0 8 + =  $20 $T0 1160 - ^ =  $23 $T0 1164 - ^ = 
STACK WIN 4 190df 108 0 0 1c c 484 0 1 $T0 $ebp = $eip $T0 4 + ^ = $ebp $T0 ^ = $esp $T0 8 + =  $20 $T0 1160 - ^ =  $23 $T0 1164 - ^ =  $24 $T0 1168 - ^ = 
STACK WIN 4 19272 187 1d 0 1c 0 484 0 1 $T0 $ebp = $eip $T0 4 + ^ = $ebp $T0 ^ = $esp $T0 8 + = 
STACK WIN 4 1928f 144 0 0 1c 4 484 0 1 $T0 $ebp = $eip $T0 4 + ^ = $ebp $T0 ^ = $esp $T0 8 + =  $20 $T0 1160 - ^ = 
STACK WIN 4 192bb 135 0 0 1c 8 484 0 1 $T0 $ebp = $eip $T0 4 + ^ = $ebp $T0 ^ = $esp $T0 8 + =  $20 $T0 1160 - ^ =  $23 $T0 1164 - ^ = 
STACK WIN 4 192bc 10e 0 0 1c c 484 0 1 $T0 $ebp = $eip $T0 4 + ^ = $ebp $T0 ^ = $esp $T0 8 + =  $20 $T0 1160 - ^ =  $23 $T0 1164 - ^ =  $24 $T0 1168 - ^ = 
STACK WIN 4 1945a 1b0 1d 0 1c 0 af0 0 1 $T0 $ebp = $eip $T0 4 + ^ = $ebp $T0 ^ = $esp $T0 8 + = 
STACK WIN 4 19473 174 4 0 1c 4 af0 0 1 $T0 $ebp = $eip $T0 4 + ^ = $ebp $T0 ^ = $esp $T0 8 + =  $20 $T0 2804 - ^ = 
STACK WIN 4 19477 18d 0 0 1c 8 af0 0 1 $T0 $ebp = $eip $T0 4 + ^ = $ebp $T0 ^ = $esp $T0 8 + =  $20 $T0 2804 - ^ =  $23 $T0 2808 - ^ = 
STACK WIN 4 194a5 12a 0 0 1c c af0 0 1 $T0 $ebp = $eip $T0 4 + ^ = $ebp $T0 ^ = $esp $T0 8 + =  $20 $T0 2804 - ^ =  $23 $T0 2808 - ^ =  $24 $T0 2812 - ^ = 
STACK WIN 4 19676 1b9 1d 0 1c 0 af0 0 1 $T0 $ebp = $eip $T0 4 + ^ = $ebp $T0 ^ = $esp $T0 8 + = 
STACK WIN 4 1968f 17a 4 0 1c 4 af0 0 1 $T0 $ebp = $eip $T0 4 + ^ = $ebp $T0 ^ = $esp $T0 8 + =  $20 $T0 2804 - ^ = 
STACK WIN 4 19693 193 0 0 1c 8 af0 0 1 $T0 $ebp = $eip $T0 4 + ^ = $ebp $T0 ^ = $esp $T0 8 + =  $20 $T0 2804 - ^ =  $23 $T0 2808 - ^ = 
STACK WIN 4 196c1 130 0 0 1c c af0 0 1 $T0 $ebp = $eip $T0 4 + ^ = $ebp $T0 ^ = $esp $T0 8 + =  $20 $T0 2804 - ^ =  $23 $T0 2808 - ^ =  $24 $T0 2812 - ^ = 
STACK WIN 4 1989d 17e 1d 0 1c 0 484 0 1 $T0 $ebp = $eip $T0 4 + ^ = $ebp $T0 ^ = $esp $T0 8 + = 
STACK WIN 4 198ba 13e 0 0 1c 4 484 0 1 $T0 $ebp = $eip $T0 4 + ^ = $ebp $T0 ^ = $esp $T0 8 + =  $20 $T0 1160 - ^ = 
STACK WIN 4 198e6 12f 0 0 1c 8 484 0 1 $T0 $ebp = $eip $T0 4 + ^ = $ebp $T0 ^ = $esp $T0 8 + =  $20 $T0 1160 - ^ =  $23 $T0 1164 - ^ = 
STACK WIN 4 198e7 108 0 0 1c c 484 0 1 $T0 $ebp = $eip $T0 4 + ^ = $ebp $T0 ^ = $esp $T0 8 + =  $20 $T0 1160 - ^ =  $23 $T0 1164 - ^ =  $24 $T0 1168 - ^ = 
STACK WIN 4 19a7a 187 1d 0 1c 0 484 0 1 $T0 $ebp = $eip $T0 4 + ^ = $ebp $T0 ^ = $esp $T0 8 + = 
STACK WIN 4 19a97 144 0 0 1c 4 484 0 1 $T0 $ebp = $eip $T0 4 + ^ = $ebp $T0 ^ = $esp $T0 8 + =  $20 $T0 1160 - ^ = 
STACK WIN 4 19ac3 135 0 0 1c 8 484 0 1 $T0 $ebp = $eip $T0 4 + ^ = $ebp $T0 ^ = $esp $T0 8 + =  $20 $T0 1160 - ^ =  $23 $T0 1164 - ^ = 
STACK WIN 4 19ac4 10e 0 0 1c c 484 0 1 $T0 $ebp = $eip $T0 4 + ^ = $ebp $T0 ^ = $esp $T0 8 + =  $20 $T0 1160 - ^ =  $23 $T0 1164 - ^ =  $24 $T0 1168 - ^ = 
STACK WIN 4 19c62 78 5 0 1c 0 0 0 1 $T0 $ebp = $eip $T0 4 + ^ = $ebp $T0 ^ = $esp $T0 8 + = 
STACK WIN 4 19c83 55 0 0 1c 4 0 0 1 $T0 $ebp = $eip $T0 4 + ^ = $ebp $T0 ^ = $esp $T0 8 + =  $23 $T0 4 - ^ = 
STACK WIN 4 19cf8 7a 5 0 1c 0 0 0 1 $T0 $ebp = $eip $T0 4 + ^ = $ebp $T0 ^ = $esp $T0 8 + = 
STACK WIN 4 19d19 57 0 0 1c 4 0 0 1 $T0 $ebp = $eip $T0 4 + ^ = $ebp $T0 ^ = $esp $T0 8 + =  $23 $T0 4 - ^ = 
STACK WIN 4 19d90 18 0 0 0 0 0 0 1 $T0 .raSearch = $eip $T0 ^ = $esp $T0 4 + = 
STACK WIN 4 19dae 19 0 0 0 0 0 0 1 $T0 .raSearch = $eip $T0 ^ = $esp $T0 4 + = 
STACK WIN 4 19dcd d 0 0 0 0 0 0 1 $T0 .raSearch = $eip $T0 ^ = $esp $T0 4 + = 
STACK WIN 4 19ddd d 0 0 0 0 0 0 1 $T0 .raSearch = $eip $T0 ^ = $esp $T0 4 + = 
STACK WIN 4 19ded 7d d 0 4 0 4 0 1 $T0 $ebp = $eip $T0 4 + ^ = $ebp $T0 ^ = $esp $T0 8 + = 
STACK WIN 4 19df4 72 6 0 4 4 4 0 1 $T0 $ebp = $eip $T0 4 + ^ = $ebp $T0 ^ = $esp $T0 8 + =  $23 $T0 8 - ^ = 
STACK WIN 4 19df8 6d 2 0 4 8 4 0 1 $T0 $ebp = $eip $T0 4 + ^ = $ebp $T0 ^ = $esp $T0 8 + =  $23 $T0 8 - ^ =  $24 $T0 12 - ^ = 
STACK WIN 4 19e12 52 0 0 4 c 4 0 1 $T0 $ebp = $eip $T0 4 + ^ = $ebp $T0 ^ = $esp $T0 8 + =  $23 $T0 8 - ^ =  $24 $T0 12 - ^ =  $20 $T0 16 - ^ = 
STACK WIN 4 19e89 7e d 0 4 0 4 0 1 $T0 $ebp = $eip $T0 4 + ^ = $ebp $T0 ^ = $esp $T0 8 + = 
STACK WIN 4 19e90 73 6 0 4 4 4 0 1 $T0 $ebp = $eip $T0 4 + ^ = $ebp $T0 ^ = $esp $T0 8 + =  $23 $T0 8 - ^ = 
STACK WIN 4 19e94 6e 2 0 4 8 4 0 1 $T0 $ebp = $eip $T0 4 + ^ = $ebp $T0 ^ = $esp $T0 8 + =  $23 $T0 8 - ^ =  $24 $T0 12 - ^ = 
STACK WIN 4 19eae 53 0 0 4 c 4 0 1 $T0 $ebp = $eip $T0 4 + ^ = $ebp $T0 ^ = $esp $T0 8 + =  $23 $T0 8 - ^ =  $24 $T0 12 - ^ =  $20 $T0 16 - ^ = 
STACK WIN 4 19f26 79 5 0 4 0 0 0 1 $T0 $ebp = $eip $T0 4 + ^ = $ebp $T0 ^ = $esp $T0 8 + = 
STACK WIN 4 19fbd 79 5 0 4 0 0 0 1 $T0 $ebp = $eip $T0 4 + ^ = $ebp $T0 ^ = $esp $T0 8 + = 
STACK WIN 4 1a054 79 5 0 4 0 0 0 1 $T0 $ebp = $eip $T0 4 + ^ = $ebp $T0 ^ = $esp $T0 8 + = 
STACK WIN 4 1a0eb 79 5 0 4 0 0 0 1 $T0 $ebp = $eip $T0 4 + ^ = $ebp $T0 ^ = $esp $T0 8 + = 
STACK WIN 4 1a182 1f 5 0 4 0 0 0 1 $T0 $ebp = $eip $T0 4 + ^ = $ebp $T0 ^ = $esp $T0 8 + = 
STACK WIN 4 1a1a8 1f 5 0 4 0 0 0 1 $T0 $ebp = $eip $T0 4 + ^ = $ebp $T0 ^ = $esp $T0 8 + = 
STACK WIN 4 1a1ce 1f 5 0 4 0 0 0 1 $T0 $ebp = $eip $T0 4 + ^ = $ebp $T0 ^ = $esp $T0 8 + = 
STACK WIN 4 1a1f4 1f 5 0 4 0 0 0 1 $T0 $ebp = $eip $T0 4 + ^ = $ebp $T0 ^ = $esp $T0 8 + = 
STACK WIN 4 1a21a 79 5 0 4 0 0 0 1 $T0 $ebp = $eip $T0 4 + ^ = $ebp $T0 ^ = $esp $T0 8 + = 
STACK WIN 4 1a2b1 79 5 0 4 0 0 0 1 $T0 $ebp = $eip $T0 4 + ^ = $ebp $T0 ^ = $esp $T0 8 + = 
STACK WIN 4 1a348 79 5 0 4 0 0 0 1 $T0 $ebp = $eip $T0 4 + ^ = $ebp $T0 ^ = $esp $T0 8 + = 
STACK WIN 4 1a3df 79 5 0 4 0 0 0 1 $T0 $ebp = $eip $T0 4 + ^ = $ebp $T0 ^ = $esp $T0 8 + = 
STACK WIN 4 1a476 1f 5 0 4 0 0 0 1 $T0 $ebp = $eip $T0 4 + ^ = $ebp $T0 ^ = $esp $T0 8 + = 
STACK WIN 4 1a49c 1f 5 0 4 0 0 0 1 $T0 $ebp = $eip $T0 4 + ^ = $ebp $T0 ^ = $esp $T0 8 + = 
STACK WIN 4 1a4c2 1f 5 0 4 0 0 0 1 $T0 $ebp = $eip $T0 4 + ^ = $ebp $T0 ^ = $esp $T0 8 + = 
STACK WIN 4 1a4e8 1f 5 0 4 0 0 0 1 $T0 $ebp = $eip $T0 4 + ^ = $ebp $T0 ^ = $esp $T0 8 + = 
STACK WIN 4 1a50e 79 5 0 4 0 0 0 1 $T0 $ebp = $eip $T0 4 + ^ = $ebp $T0 ^ = $esp $T0 8 + = 
STACK WIN 4 1a5a5 79 5 0 4 0 0 0 1 $T0 $ebp = $eip $T0 4 + ^ = $ebp $T0 ^ = $esp $T0 8 + = 
STACK WIN 4 1a63c 79 5 0 4 0 0 0 1 $T0 $ebp = $eip $T0 4 + ^ = $ebp $T0 ^ = $esp $T0 8 + = 
STACK WIN 4 1a6d3 79 5 0 4 0 0 0 1 $T0 $ebp = $eip $T0 4 + ^ = $ebp $T0 ^ = $esp $T0 8 + = 
STACK WIN 4 1a76a 1f 5 0 4 0 0 0 1 $T0 $ebp = $eip $T0 4 + ^ = $ebp $T0 ^ = $esp $T0 8 + = 
STACK WIN 4 1a790 1f 5 0 4 0 0 0 1 $T0 $ebp = $eip $T0 4 + ^ = $ebp $T0 ^ = $esp $T0 8 + = 
STACK WIN 4 1a7b6 1f 5 0 4 0 0 0 1 $T0 $ebp = $eip $T0 4 + ^ = $ebp $T0 ^ = $esp $T0 8 + = 
STACK WIN 4 1a7dc 1f 5 0 4 0 0 0 1 $T0 $ebp = $eip $T0 4 + ^ = $ebp $T0 ^ = $esp $T0 8 + = 
STACK WIN 4 1a802 78 5 0 4 0 0 0 1 $T0 $ebp = $eip $T0 4 + ^ = $ebp $T0 ^ = $esp $T0 8 + = 
STACK WIN 4 1a898 78 5 0 4 0 0 0 1 $T0 $ebp = $eip $T0 4 + ^ = $ebp $T0 ^ = $esp $T0 8 + = 
STACK WIN 4 1a92e 1a 5 0 4 0 0 0 1 $T0 $ebp = $eip $T0 4 + ^ = $ebp $T0 ^ = $esp $T0 8 + = 
STACK WIN 4 1a94e 1a 5 0 4 0 0 0 1 $T0 $ebp = $eip $T0 4 + ^ = $ebp $T0 ^ = $esp $T0 8 + = 
STACK WIN 4 1a96e 79 5 0 4 0 0 0 1 $T0 $ebp = $eip $T0 4 + ^ = $ebp $T0 ^ = $esp $T0 8 + = 
STACK WIN 4 1aa05 79 5 0 4 0 0 0 1 $T0 $ebp = $eip $T0 4 + ^ = $ebp $T0 ^ = $esp $T0 8 + = 
STACK WIN 4 1aa9c 79 5 0 4 0 0 0 1 $T0 $ebp = $eip $T0 4 + ^ = $ebp $T0 ^ = $esp $T0 8 + = 
STACK WIN 4 1ab33 79 5 0 4 0 0 0 1 $T0 $ebp = $eip $T0 4 + ^ = $ebp $T0 ^ = $esp $T0 8 + = 
STACK WIN 4 1abca 1f 5 0 4 0 0 0 1 $T0 $ebp = $eip $T0 4 + ^ = $ebp $T0 ^ = $esp $T0 8 + = 
STACK WIN 4 1abf0 1f 5 0 4 0 0 0 1 $T0 $ebp = $eip $T0 4 + ^ = $ebp $T0 ^ = $esp $T0 8 + = 
STACK WIN 4 1ac16 1f 5 0 4 0 0 0 1 $T0 $ebp = $eip $T0 4 + ^ = $ebp $T0 ^ = $esp $T0 8 + = 
STACK WIN 4 1ac3c 1f 5 0 4 0 0 0 1 $T0 $ebp = $eip $T0 4 + ^ = $ebp $T0 ^ = $esp $T0 8 + = 
STACK WIN 4 1ac62 77 5 0 4 0 0 0 1 $T0 $ebp = $eip $T0 4 + ^ = $ebp $T0 ^ = $esp $T0 8 + = 
STACK WIN 4 1acf6 77 5 0 4 0 0 0 1 $T0 $ebp = $eip $T0 4 + ^ = $ebp $T0 ^ = $esp $T0 8 + = 
STACK WIN 4 1ad8a 77 5 0 4 0 0 0 1 $T0 $ebp = $eip $T0 4 + ^ = $ebp $T0 ^ = $esp $T0 8 + = 
STACK WIN 4 1ae1e 77 5 0 4 0 0 0 1 $T0 $ebp = $eip $T0 4 + ^ = $ebp $T0 ^ = $esp $T0 8 + = 
STACK WIN 4 1aeb2 1e 5 0 4 0 0 0 1 $T0 $ebp = $eip $T0 4 + ^ = $ebp $T0 ^ = $esp $T0 8 + = 
STACK WIN 4 1aed7 1e 5 0 4 0 0 0 1 $T0 $ebp = $eip $T0 4 + ^ = $ebp $T0 ^ = $esp $T0 8 + = 
STACK WIN 4 1aefc 1e 5 0 4 0 0 0 1 $T0 $ebp = $eip $T0 4 + ^ = $ebp $T0 ^ = $esp $T0 8 + = 
STACK WIN 4 1af21 1e 5 0 4 0 0 0 1 $T0 $ebp = $eip $T0 4 + ^ = $ebp $T0 ^ = $esp $T0 8 + = 
STACK WIN 4 1af46 80 5 0 4 0 0 0 1 $T0 $ebp = $eip $T0 4 + ^ = $ebp $T0 ^ = $esp $T0 8 + = 
STACK WIN 4 1afe6 80 5 0 4 0 0 0 1 $T0 $ebp = $eip $T0 4 + ^ = $ebp $T0 ^ = $esp $T0 8 + = 
STACK WIN 4 1b086 80 5 0 4 0 0 0 1 $T0 $ebp = $eip $T0 4 + ^ = $ebp $T0 ^ = $esp $T0 8 + = 
STACK WIN 4 1b126 80 5 0 4 0 0 0 1 $T0 $ebp = $eip $T0 4 + ^ = $ebp $T0 ^ = $esp $T0 8 + = 
STACK WIN 4 1b1c6 1e 5 0 4 0 0 0 1 $T0 $ebp = $eip $T0 4 + ^ = $ebp $T0 ^ = $esp $T0 8 + = 
STACK WIN 4 1b1eb 1e 5 0 4 0 0 0 1 $T0 $ebp = $eip $T0 4 + ^ = $ebp $T0 ^ = $esp $T0 8 + = 
STACK WIN 4 1b210 1e 5 0 4 0 0 0 1 $T0 $ebp = $eip $T0 4 + ^ = $ebp $T0 ^ = $esp $T0 8 + = 
STACK WIN 4 1b235 1e 5 0 4 0 0 0 1 $T0 $ebp = $eip $T0 4 + ^ = $ebp $T0 ^ = $esp $T0 8 + = 
STACK WIN 4 1b25a 78 5 0 4 0 0 0 1 $T0 $ebp = $eip $T0 4 + ^ = $ebp $T0 ^ = $esp $T0 8 + = 
STACK WIN 4 1b2f0 78 5 0 4 0 0 0 1 $T0 $ebp = $eip $T0 4 + ^ = $ebp $T0 ^ = $esp $T0 8 + = 
STACK WIN 4 1b386 78 5 0 4 0 0 0 1 $T0 $ebp = $eip $T0 4 + ^ = $ebp $T0 ^ = $esp $T0 8 + = 
STACK WIN 4 1b41c 78 5 0 4 0 0 0 1 $T0 $ebp = $eip $T0 4 + ^ = $ebp $T0 ^ = $esp $T0 8 + = 
STACK WIN 4 1b4b2 1a 5 0 4 0 0 0 1 $T0 $ebp = $eip $T0 4 + ^ = $ebp $T0 ^ = $esp $T0 8 + = 
STACK WIN 4 1b4d2 1a 5 0 4 0 0 0 1 $T0 $ebp = $eip $T0 4 + ^ = $ebp $T0 ^ = $esp $T0 8 + = 
STACK WIN 4 1b4f2 1a 5 0 4 0 0 0 1 $T0 $ebp = $eip $T0 4 + ^ = $ebp $T0 ^ = $esp $T0 8 + = 
STACK WIN 4 1b512 1a 5 0 4 0 0 0 1 $T0 $ebp = $eip $T0 4 + ^ = $ebp $T0 ^ = $esp $T0 8 + = 
STACK WIN 4 1b532 1a 5 0 4 0 0 0 1 $T0 $ebp = $eip $T0 4 + ^ = $ebp $T0 ^ = $esp $T0 8 + = 
STACK WIN 4 1b552 78 5 0 4 0 0 0 1 $T0 $ebp = $eip $T0 4 + ^ = $ebp $T0 ^ = $esp $T0 8 + = 
STACK WIN 4 1b5e8 1a 5 0 4 0 0 0 1 $T0 $ebp = $eip $T0 4 + ^ = $ebp $T0 ^ = $esp $T0 8 + = 
STACK WIN 4 1b608 1a 5 0 4 0 0 0 1 $T0 $ebp = $eip $T0 4 + ^ = $ebp $T0 ^ = $esp $T0 8 + = 
STACK WIN 4 1b628 1a 5 0 4 0 0 0 1 $T0 $ebp = $eip $T0 4 + ^ = $ebp $T0 ^ = $esp $T0 8 + = 
STACK WIN 4 1b648 78 5 0 4 0 0 0 1 $T0 $ebp = $eip $T0 4 + ^ = $ebp $T0 ^ = $esp $T0 8 + = 
STACK WIN 4 1b6de 1a 5 0 4 0 0 0 1 $T0 $ebp = $eip $T0 4 + ^ = $ebp $T0 ^ = $esp $T0 8 + = 
STACK WIN 4 1b6fe 1a 5 0 4 0 0 0 1 $T0 $ebp = $eip $T0 4 + ^ = $ebp $T0 ^ = $esp $T0 8 + = 
STACK WIN 4 1b71e 1a 5 0 4 0 0 0 1 $T0 $ebp = $eip $T0 4 + ^ = $ebp $T0 ^ = $esp $T0 8 + = 
STACK WIN 4 1b73e 78 5 0 4 0 0 0 1 $T0 $ebp = $eip $T0 4 + ^ = $ebp $T0 ^ = $esp $T0 8 + = 
STACK WIN 4 1b7d4 1a 5 0 4 0 0 0 1 $T0 $ebp = $eip $T0 4 + ^ = $ebp $T0 ^ = $esp $T0 8 + = 
STACK WIN 4 1b7f4 1a 5 0 4 0 0 0 1 $T0 $ebp = $eip $T0 4 + ^ = $ebp $T0 ^ = $esp $T0 8 + = 
STACK WIN 4 1b814 1a 5 0 4 0 0 0 1 $T0 $ebp = $eip $T0 4 + ^ = $ebp $T0 ^ = $esp $T0 8 + = 
STACK WIN 4 1b834 78 5 0 4 0 0 0 1 $T0 $ebp = $eip $T0 4 + ^ = $ebp $T0 ^ = $esp $T0 8 + = 
STACK WIN 4 1b8ca 1a 5 0 4 0 0 0 1 $T0 $ebp = $eip $T0 4 + ^ = $ebp $T0 ^ = $esp $T0 8 + = 
STACK WIN 4 1b8ea 1a 5 0 4 0 0 0 1 $T0 $ebp = $eip $T0 4 + ^ = $ebp $T0 ^ = $esp $T0 8 + = 
STACK WIN 4 1b90a 78 5 0 4 0 0 0 1 $T0 $ebp = $eip $T0 4 + ^ = $ebp $T0 ^ = $esp $T0 8 + = 
STACK WIN 4 1b9a0 78 5 0 4 0 0 0 1 $T0 $ebp = $eip $T0 4 + ^ = $ebp $T0 ^ = $esp $T0 8 + = 
STACK WIN 4 1ba36 78 5 0 4 0 0 0 1 $T0 $ebp = $eip $T0 4 + ^ = $ebp $T0 ^ = $esp $T0 8 + = 
STACK WIN 4 1bacc 78 5 0 4 0 0 0 1 $T0 $ebp = $eip $T0 4 + ^ = $ebp $T0 ^ = $esp $T0 8 + = 
STACK WIN 4 1bb62 1a 5 0 4 0 0 0 1 $T0 $ebp = $eip $T0 4 + ^ = $ebp $T0 ^ = $esp $T0 8 + = 
STACK WIN 4 1bb82 1a 5 0 4 0 0 0 1 $T0 $ebp = $eip $T0 4 + ^ = $ebp $T0 ^ = $esp $T0 8 + = 
STACK WIN 4 1bba2 1a 5 0 4 0 0 0 1 $T0 $ebp = $eip $T0 4 + ^ = $ebp $T0 ^ = $esp $T0 8 + = 
STACK WIN 4 1bbc2 1a 5 0 4 0 0 0 1 $T0 $ebp = $eip $T0 4 + ^ = $ebp $T0 ^ = $esp $T0 8 + = 
STACK WIN 4 1bbe2 86 5 0 4 0 0 0 1 $T0 $ebp = $eip $T0 4 + ^ = $ebp $T0 ^ = $esp $T0 8 + = 
STACK WIN 4 1bbf8 f 0 0 4 4 0 0 1 $T0 $ebp = $eip $T0 4 + ^ = $ebp $T0 ^ = $esp $T0 8 + =  $23 $T0 4 - ^ = 
STACK WIN 4 1bc89 86 5 0 4 0 0 0 1 $T0 $ebp = $eip $T0 4 + ^ = $ebp $T0 ^ = $esp $T0 8 + = 
STACK WIN 4 1bc9f f 0 0 4 4 0 0 1 $T0 $ebp = $eip $T0 4 + ^ = $ebp $T0 ^ = $esp $T0 8 + =  $23 $T0 4 - ^ = 
STACK WIN 4 1bd30 86 5 0 4 0 0 0 1 $T0 $ebp = $eip $T0 4 + ^ = $ebp $T0 ^ = $esp $T0 8 + = 
STACK WIN 4 1bd46 f 0 0 4 4 0 0 1 $T0 $ebp = $eip $T0 4 + ^ = $ebp $T0 ^ = $esp $T0 8 + =  $23 $T0 4 - ^ = 
STACK WIN 4 1bdd7 86 5 0 4 0 0 0 1 $T0 $ebp = $eip $T0 4 + ^ = $ebp $T0 ^ = $esp $T0 8 + = 
STACK WIN 4 1bded f 0 0 4 4 0 0 1 $T0 $ebp = $eip $T0 4 + ^ = $ebp $T0 ^ = $esp $T0 8 + =  $23 $T0 4 - ^ = 
STACK WIN 4 1be7e 20 5 0 4 0 0 0 1 $T0 $ebp = $eip $T0 4 + ^ = $ebp $T0 ^ = $esp $T0 8 + = 
STACK WIN 4 1bea6 20 5 0 4 0 0 0 1 $T0 $ebp = $eip $T0 4 + ^ = $ebp $T0 ^ = $esp $T0 8 + = 
STACK WIN 4 1bece 20 5 0 4 0 0 0 1 $T0 $ebp = $eip $T0 4 + ^ = $ebp $T0 ^ = $esp $T0 8 + = 
STACK WIN 4 1bef6 20 5 0 4 0 0 0 1 $T0 $ebp = $eip $T0 4 + ^ = $ebp $T0 ^ = $esp $T0 8 + = 
STACK WIN 4 1bf1e 86 5 0 4 0 0 0 1 $T0 $ebp = $eip $T0 4 + ^ = $ebp $T0 ^ = $esp $T0 8 + = 
STACK WIN 4 1bf34 f 0 0 4 4 0 0 1 $T0 $ebp = $eip $T0 4 + ^ = $ebp $T0 ^ = $esp $T0 8 + =  $23 $T0 4 - ^ = 
STACK WIN 4 1bfc5 86 5 0 4 0 0 0 1 $T0 $ebp = $eip $T0 4 + ^ = $ebp $T0 ^ = $esp $T0 8 + = 
STACK WIN 4 1bfdb f 0 0 4 4 0 0 1 $T0 $ebp = $eip $T0 4 + ^ = $ebp $T0 ^ = $esp $T0 8 + =  $23 $T0 4 - ^ = 
STACK WIN 4 1c06c 86 5 0 4 0 0 0 1 $T0 $ebp = $eip $T0 4 + ^ = $ebp $T0 ^ = $esp $T0 8 + = 
STACK WIN 4 1c082 f 0 0 4 4 0 0 1 $T0 $ebp = $eip $T0 4 + ^ = $ebp $T0 ^ = $esp $T0 8 + =  $23 $T0 4 - ^ = 
STACK WIN 4 1c113 86 5 0 4 0 0 0 1 $T0 $ebp = $eip $T0 4 + ^ = $ebp $T0 ^ = $esp $T0 8 + = 
STACK WIN 4 1c129 f 0 0 4 4 0 0 1 $T0 $ebp = $eip $T0 4 + ^ = $ebp $T0 ^ = $esp $T0 8 + =  $23 $T0 4 - ^ = 
STACK WIN 4 1c1ba 20 5 0 4 0 0 0 1 $T0 $ebp = $eip $T0 4 + ^ = $ebp $T0 ^ = $esp $T0 8 + = 
STACK WIN 4 1c1e2 20 5 0 4 0 0 0 1 $T0 $ebp = $eip $T0 4 + ^ = $ebp $T0 ^ = $esp $T0 8 + = 
STACK WIN 4 1c20a 20 5 0 4 0 0 0 1 $T0 $ebp = $eip $T0 4 + ^ = $ebp $T0 ^ = $esp $T0 8 + = 
STACK WIN 4 1c232 20 5 0 4 0 0 0 1 $T0 $ebp = $eip $T0 4 + ^ = $ebp $T0 ^ = $esp $T0 8 + = 
STACK WIN 4 1c25a 86 5 0 4 0 0 0 1 $T0 $ebp = $eip $T0 4 + ^ = $ebp $T0 ^ = $esp $T0 8 + = 
STACK WIN 4 1c270 f 0 0 4 4 0 0 1 $T0 $ebp = $eip $T0 4 + ^ = $ebp $T0 ^ = $esp $T0 8 + =  $23 $T0 4 - ^ = 
STACK WIN 4 1c301 86 5 0 4 0 0 0 1 $T0 $ebp = $eip $T0 4 + ^ = $ebp $T0 ^ = $esp $T0 8 + = 
STACK WIN 4 1c317 f 0 0 4 4 0 0 1 $T0 $ebp = $eip $T0 4 + ^ = $ebp $T0 ^ = $esp $T0 8 + =  $23 $T0 4 - ^ = 
STACK WIN 4 1c3a8 86 5 0 4 0 0 0 1 $T0 $ebp = $eip $T0 4 + ^ = $ebp $T0 ^ = $esp $T0 8 + = 
STACK WIN 4 1c3be f 0 0 4 4 0 0 1 $T0 $ebp = $eip $T0 4 + ^ = $ebp $T0 ^ = $esp $T0 8 + =  $23 $T0 4 - ^ = 
STACK WIN 4 1c44f 86 5 0 4 0 0 0 1 $T0 $ebp = $eip $T0 4 + ^ = $ebp $T0 ^ = $esp $T0 8 + = 
STACK WIN 4 1c465 f 0 0 4 4 0 0 1 $T0 $ebp = $eip $T0 4 + ^ = $ebp $T0 ^ = $esp $T0 8 + =  $23 $T0 4 - ^ = 
STACK WIN 4 1c4f6 20 5 0 4 0 0 0 1 $T0 $ebp = $eip $T0 4 + ^ = $ebp $T0 ^ = $esp $T0 8 + = 
STACK WIN 4 1c51e 20 5 0 4 0 0 0 1 $T0 $ebp = $eip $T0 4 + ^ = $ebp $T0 ^ = $esp $T0 8 + = 
STACK WIN 4 1c546 20 5 0 4 0 0 0 1 $T0 $ebp = $eip $T0 4 + ^ = $ebp $T0 ^ = $esp $T0 8 + = 
STACK WIN 4 1c56e 20 5 0 4 0 0 0 1 $T0 $ebp = $eip $T0 4 + ^ = $ebp $T0 ^ = $esp $T0 8 + = 
STACK WIN 4 1c596 7c 5 0 4 0 0 0 1 $T0 $ebp = $eip $T0 4 + ^ = $ebp $T0 ^ = $esp $T0 8 + = 
STACK WIN 4 1c631 7c 5 0 4 0 0 0 1 $T0 $ebp = $eip $T0 4 + ^ = $ebp $T0 ^ = $esp $T0 8 + = 
STACK WIN 4 1c6cc 7c 5 0 4 0 0 0 1 $T0 $ebp = $eip $T0 4 + ^ = $ebp $T0 ^ = $esp $T0 8 + = 
STACK WIN 4 1c767 7c 5 0 4 0 0 0 1 $T0 $ebp = $eip $T0 4 + ^ = $ebp $T0 ^ = $esp $T0 8 + = 
STACK WIN 4 1c802 1c 5 0 4 0 0 0 1 $T0 $ebp = $eip $T0 4 + ^ = $ebp $T0 ^ = $esp $T0 8 + = 
STACK WIN 4 1c825 1c 5 0 4 0 0 0 1 $T0 $ebp = $eip $T0 4 + ^ = $ebp $T0 ^ = $esp $T0 8 + = 
STACK WIN 4 1c848 1c 5 0 4 0 0 0 1 $T0 $ebp = $eip $T0 4 + ^ = $ebp $T0 ^ = $esp $T0 8 + = 
STACK WIN 4 1c86b 1c 5 0 4 0 0 0 1 $T0 $ebp = $eip $T0 4 + ^ = $ebp $T0 ^ = $esp $T0 8 + = 
STACK WIN 4 1c88e 4 0 0 4 0 0 0 1 $T0 .raSearch = $eip $T0 ^ = $esp $T0 4 + = 
STACK WIN 4 1c892 4 0 0 4 0 0 0 1 $T0 .raSearch = $eip $T0 ^ = $esp $T0 4 + = 
STACK WIN 4 1c896 4 0 0 4 0 0 0 1 $T0 .raSearch = $eip $T0 ^ = $esp $T0 4 + = 
STACK WIN 4 1c89a 4 0 0 4 0 0 0 1 $T0 .raSearch = $eip $T0 ^ = $esp $T0 4 + = 
STACK WIN 4 1c89e 4 0 0 4 0 0 0 1 $T0 .raSearch = $eip $T0 ^ = $esp $T0 4 + = 
STACK WIN 4 1c8a2 4 0 0 4 0 0 0 1 $T0 .raSearch = $eip $T0 ^ = $esp $T0 4 + = 
STACK WIN 4 1c8a6 4 0 0 4 0 0 0 1 $T0 .raSearch = $eip $T0 ^ = $esp $T0 4 + = 
STACK WIN 4 1c8aa 4 0 0 4 0 0 0 1 $T0 .raSearch = $eip $T0 ^ = $esp $T0 4 + = 
STACK WIN 4 1c8ae 4 0 0 4 0 0 0 1 $T0 .raSearch = $eip $T0 ^ = $esp $T0 4 + = 
STACK WIN 4 1c8b2 4 0 0 4 0 0 0 1 $T0 .raSearch = $eip $T0 ^ = $esp $T0 4 + = 
STACK WIN 4 1c8b6 4 0 0 4 0 0 0 1 $T0 .raSearch = $eip $T0 ^ = $esp $T0 4 + = 
STACK WIN 4 1c8ba 4 0 0 4 0 0 0 1 $T0 .raSearch = $eip $T0 ^ = $esp $T0 4 + = 
STACK WIN 4 1c8be 18 5 0 4 0 0 0 1 $T0 $ebp = $eip $T0 4 + ^ = $ebp $T0 ^ = $esp $T0 8 + = 
STACK WIN 4 1c8dc 18 5 0 4 0 0 0 1 $T0 $ebp = $eip $T0 4 + ^ = $ebp $T0 ^ = $esp $T0 8 + = 
STACK WIN 4 1c8fa 1b 5 0 4 0 0 0 1 $T0 $ebp = $eip $T0 4 + ^ = $ebp $T0 ^ = $esp $T0 8 + = 
STACK WIN 4 1c91b 1b 5 0 4 0 0 0 1 $T0 $ebp = $eip $T0 4 + ^ = $ebp $T0 ^ = $esp $T0 8 + = 
STACK WIN 4 1c93c 2c 5 0 4 0 0 0 1 $T0 $ebp = $eip $T0 4 + ^ = $ebp $T0 ^ = $esp $T0 8 + = 
STACK WIN 4 1c973 2c 5 0 4 0 0 0 1 $T0 $ebp = $eip $T0 4 + ^ = $ebp $T0 ^ = $esp $T0 8 + = 
STACK WIN 4 1c9aa 3b 5 0 4 0 0 0 1 $T0 $ebp = $eip $T0 4 + ^ = $ebp $T0 ^ = $esp $T0 8 + = 
STACK WIN 4 1c9f3 3b 5 0 4 0 0 0 1 $T0 $ebp = $eip $T0 4 + ^ = $ebp $T0 ^ = $esp $T0 8 + = 
STACK WIN 4 1ca3c e 5 0 4 0 0 0 1 $T0 $ebp = $eip $T0 4 + ^ = $ebp $T0 ^ = $esp $T0 8 + = 
STACK WIN 4 1ca4d e 5 0 4 0 0 0 1 $T0 $ebp = $eip $T0 4 + ^ = $ebp $T0 ^ = $esp $T0 8 + = 
STACK WIN 4 1ca5e f 5 0 4 0 0 0 1 $T0 $ebp = $eip $T0 4 + ^ = $ebp $T0 ^ = $esp $T0 8 + = 
STACK WIN 4 1ca70 f 5 0 4 0 0 0 1 $T0 $ebp = $eip $T0 4 + ^ = $ebp $T0 ^ = $esp $T0 8 + = 
STACK WIN 4 1ca82 18 5 0 4 0 0 0 1 $T0 $ebp = $eip $T0 4 + ^ = $ebp $T0 ^ = $esp $T0 8 + = 
STACK WIN 4 1caa0 18 5 0 4 0 0 0 1 $T0 $ebp = $eip $T0 4 + ^ = $ebp $T0 ^ = $esp $T0 8 + = 
STACK WIN 4 1cabe 1b 5 0 4 0 0 0 1 $T0 $ebp = $eip $T0 4 + ^ = $ebp $T0 ^ = $esp $T0 8 + = 
STACK WIN 4 1cadf 1b 5 0 4 0 0 0 1 $T0 $ebp = $eip $T0 4 + ^ = $ebp $T0 ^ = $esp $T0 8 + = 
STACK WIN 4 1cb00 31 5 0 10 0 0 0 1 $T0 $ebp = $eip $T0 4 + ^ = $ebp $T0 ^ = $esp $T0 8 + = 
STACK WIN 4 1cb3d 4e 5 0 10 0 0 0 1 $T0 $ebp = $eip $T0 4 + ^ = $ebp $T0 ^ = $esp $T0 8 + = 
STACK WIN 4 1cb9e c 5 0 4 0 0 0 1 $T0 $ebp = $eip $T0 4 + ^ = $ebp $T0 ^ = $esp $T0 8 + = 
STACK WIN 4 1cbad c 5 0 4 0 0 0 1 $T0 $ebp = $eip $T0 4 + ^ = $ebp $T0 ^ = $esp $T0 8 + = 
STACK WIN 4 1cbbc d 5 0 4 0 0 0 1 $T0 $ebp = $eip $T0 4 + ^ = $ebp $T0 ^ = $esp $T0 8 + = 
STACK WIN 4 1cbcc d 5 0 4 0 0 0 1 $T0 $ebp = $eip $T0 4 + ^ = $ebp $T0 ^ = $esp $T0 8 + = 
STACK WIN 4 1cbdc c 5 0 4 0 0 0 1 $T0 $ebp = $eip $T0 4 + ^ = $ebp $T0 ^ = $esp $T0 8 + = 
STACK WIN 4 1cbeb c 5 0 4 0 0 0 1 $T0 $ebp = $eip $T0 4 + ^ = $ebp $T0 ^ = $esp $T0 8 + = 
STACK WIN 4 1cbfa c 5 0 4 0 0 0 1 $T0 $ebp = $eip $T0 4 + ^ = $ebp $T0 ^ = $esp $T0 8 + = 
STACK WIN 4 1cc09 c 5 0 4 0 0 0 1 $T0 $ebp = $eip $T0 4 + ^ = $ebp $T0 ^ = $esp $T0 8 + = 
STACK WIN 4 1cc18 c 5 0 4 0 0 0 1 $T0 $ebp = $eip $T0 4 + ^ = $ebp $T0 ^ = $esp $T0 8 + = 
STACK WIN 4 1cc27 c 5 0 4 0 0 0 1 $T0 $ebp = $eip $T0 4 + ^ = $ebp $T0 ^ = $esp $T0 8 + = 
STACK WIN 4 1cc36 c 5 0 4 0 0 0 1 $T0 $ebp = $eip $T0 4 + ^ = $ebp $T0 ^ = $esp $T0 8 + = 
STACK WIN 4 1cc45 c 5 0 4 0 0 0 1 $T0 $ebp = $eip $T0 4 + ^ = $ebp $T0 ^ = $esp $T0 8 + = 
STACK WIN 4 1cc54 f 5 0 4 0 0 0 1 $T0 $ebp = $eip $T0 4 + ^ = $ebp $T0 ^ = $esp $T0 8 + = 
STACK WIN 4 1cc66 f 5 0 4 0 0 0 1 $T0 $ebp = $eip $T0 4 + ^ = $ebp $T0 ^ = $esp $T0 8 + = 
STACK WIN 4 1cc78 f 5 0 4 0 0 0 1 $T0 $ebp = $eip $T0 4 + ^ = $ebp $T0 ^ = $esp $T0 8 + = 
STACK WIN 4 1cc8a d 5 0 4 0 0 0 1 $T0 $ebp = $eip $T0 4 + ^ = $ebp $T0 ^ = $esp $T0 8 + = 
STACK WIN 4 1cc9a 1a 5 0 8 0 0 0 1 $T0 $ebp = $eip $T0 4 + ^ = $ebp $T0 ^ = $esp $T0 8 + = 
STACK WIN 4 1ccba 1a 5 0 8 0 0 0 1 $T0 $ebp = $eip $T0 4 + ^ = $ebp $T0 ^ = $esp $T0 8 + = 
STACK WIN 4 1ccda 12 5 0 4 0 0 0 1 $T0 $ebp = $eip $T0 4 + ^ = $ebp $T0 ^ = $esp $T0 8 + = 
STACK WIN 4 1ccf0 12 5 0 4 0 0 0 1 $T0 $ebp = $eip $T0 4 + ^ = $ebp $T0 ^ = $esp $T0 8 + = 
STACK WIN 4 1cd06 13 5 0 4 0 0 0 1 $T0 $ebp = $eip $T0 4 + ^ = $ebp $T0 ^ = $esp $T0 8 + = 
STACK WIN 4 1cd1d 13 5 0 4 0 0 0 1 $T0 $ebp = $eip $T0 4 + ^ = $ebp $T0 ^ = $esp $T0 8 + = 
STACK WIN 4 1cd34 12 5 0 4 0 0 0 1 $T0 $ebp = $eip $T0 4 + ^ = $ebp $T0 ^ = $esp $T0 8 + = 
STACK WIN 4 1cd4a 12 5 0 4 0 0 0 1 $T0 $ebp = $eip $T0 4 + ^ = $ebp $T0 ^ = $esp $T0 8 + = 
STACK WIN 4 1cd60 12 5 0 4 0 0 0 1 $T0 $ebp = $eip $T0 4 + ^ = $ebp $T0 ^ = $esp $T0 8 + = 
STACK WIN 4 1cd76 12 5 0 4 0 0 0 1 $T0 $ebp = $eip $T0 4 + ^ = $ebp $T0 ^ = $esp $T0 8 + = 
STACK WIN 4 1cd8c 12 5 0 4 0 0 0 1 $T0 $ebp = $eip $T0 4 + ^ = $ebp $T0 ^ = $esp $T0 8 + = 
STACK WIN 4 1cda2 12 5 0 4 0 0 0 1 $T0 $ebp = $eip $T0 4 + ^ = $ebp $T0 ^ = $esp $T0 8 + = 
STACK WIN 4 1cdb8 12 5 0 4 0 0 0 1 $T0 $ebp = $eip $T0 4 + ^ = $ebp $T0 ^ = $esp $T0 8 + = 
STACK WIN 4 1cdce 12 5 0 4 0 0 0 1 $T0 $ebp = $eip $T0 4 + ^ = $ebp $T0 ^ = $esp $T0 8 + = 
STACK WIN 4 1cde4 12 5 0 4 0 0 0 1 $T0 $ebp = $eip $T0 4 + ^ = $ebp $T0 ^ = $esp $T0 8 + = 
STACK WIN 4 1cdfa 12 5 0 4 0 0 0 1 $T0 $ebp = $eip $T0 4 + ^ = $ebp $T0 ^ = $esp $T0 8 + = 
STACK WIN 4 1ce10 12 5 0 4 0 0 0 1 $T0 $ebp = $eip $T0 4 + ^ = $ebp $T0 ^ = $esp $T0 8 + = 
STACK WIN 4 1ce26 12 5 0 4 0 0 0 1 $T0 $ebp = $eip $T0 4 + ^ = $ebp $T0 ^ = $esp $T0 8 + = 
STACK WIN 4 1ce3c 12 5 0 4 0 0 0 1 $T0 $ebp = $eip $T0 4 + ^ = $ebp $T0 ^ = $esp $T0 8 + = 
STACK WIN 4 1ce52 12 5 0 4 0 0 0 1 $T0 $ebp = $eip $T0 4 + ^ = $ebp $T0 ^ = $esp $T0 8 + = 
STACK WIN 4 1ce68 12 5 0 4 0 0 0 1 $T0 $ebp = $eip $T0 4 + ^ = $ebp $T0 ^ = $esp $T0 8 + = 
STACK WIN 4 1ce7e 12 5 0 4 0 0 0 1 $T0 $ebp = $eip $T0 4 + ^ = $ebp $T0 ^ = $esp $T0 8 + = 
STACK WIN 4 1ce94 16 5 0 4 0 0 0 1 $T0 $ebp = $eip $T0 4 + ^ = $ebp $T0 ^ = $esp $T0 8 + = 
STACK WIN 4 1ceaf 15 5 0 4 0 0 0 1 $T0 $ebp = $eip $T0 4 + ^ = $ebp $T0 ^ = $esp $T0 8 + = 
STACK WIN 4 1cec9 15 5 0 4 0 0 0 1 $T0 $ebp = $eip $T0 4 + ^ = $ebp $T0 ^ = $esp $T0 8 + = 
STACK WIN 4 1cee3 13 5 0 4 0 0 0 1 $T0 $ebp = $eip $T0 4 + ^ = $ebp $T0 ^ = $esp $T0 8 + = 
STACK WIN 4 1cefa 5 0 0 0 0 0 0 1 $T0 .raSearch = $eip $T0 ^ = $esp $T0 4 + = 
STACK WIN 4 1ceff 1e 5 0 0 0 0 0 1 $T0 .raSearch = $eip $T0 ^ = $esp $T0 4 + = 
STACK WIN 4 1cf02 1a 2 0 0 4 0 0 1 $T0 .raSearch = $eip $T0 ^ = $esp $T0 4 + =  $23 $T0 4 - ^ = 
STACK WIN 4 1cf05 16 0 0 0 8 0 0 1 $T0 .raSearch = $eip $T0 ^ = $esp $T0 4 + =  $23 $T0 4 - ^ =  $24 $T0 8 - ^ = 
STACK WIN 4 1cf24 1e 5 0 c 0 0 0 1 $T0 $ebp = $eip $T0 4 + ^ = $ebp $T0 ^ = $esp $T0 8 + = 
STACK WIN 4 1cf49 1e 5 0 c 0 0 0 1 $T0 $ebp = $eip $T0 4 + ^ = $ebp $T0 ^ = $esp $T0 8 + = 
STACK WIN 4 1cf6e 1e 5 0 c 0 0 0 1 $T0 $ebp = $eip $T0 4 + ^ = $ebp $T0 ^ = $esp $T0 8 + = 
STACK WIN 4 1cf93 1e 5 0 c 0 0 0 1 $T0 $ebp = $eip $T0 4 + ^ = $ebp $T0 ^ = $esp $T0 8 + = 
STACK WIN 4 1cfb8 73 9 0 c 0 0 0 1 $T0 $ebp = $eip $T0 4 + ^ = $ebp $T0 ^ = $esp $T0 8 + = 
STACK WIN 4 1cfbe 69 3 0 c 4 0 0 1 $T0 $ebp = $eip $T0 4 + ^ = $ebp $T0 ^ = $esp $T0 8 + =  $20 $T0 4 - ^ = 
STACK WIN 4 1cfbf 67 2 0 c 8 0 0 1 $T0 $ebp = $eip $T0 4 + ^ = $ebp $T0 ^ = $esp $T0 8 + =  $20 $T0 4 - ^ =  $23 $T0 8 - ^ = 
STACK WIN 4 1cfc2 63 0 0 c c 0 0 1 $T0 $ebp = $eip $T0 4 + ^ = $ebp $T0 ^ = $esp $T0 8 + =  $20 $T0 4 - ^ =  $23 $T0 8 - ^ =  $24 $T0 12 - ^ = 
STACK WIN 4 1d047 73 9 0 c 0 0 0 1 $T0 $ebp = $eip $T0 4 + ^ = $ebp $T0 ^ = $esp $T0 8 + = 
STACK WIN 4 1d04d 69 3 0 c 4 0 0 1 $T0 $ebp = $eip $T0 4 + ^ = $ebp $T0 ^ = $esp $T0 8 + =  $20 $T0 4 - ^ = 
STACK WIN 4 1d04e 67 2 0 c 8 0 0 1 $T0 $ebp = $eip $T0 4 + ^ = $ebp $T0 ^ = $esp $T0 8 + =  $20 $T0 4 - ^ =  $23 $T0 8 - ^ = 
STACK WIN 4 1d051 63 0 0 c c 0 0 1 $T0 $ebp = $eip $T0 4 + ^ = $ebp $T0 ^ = $esp $T0 8 + =  $20 $T0 4 - ^ =  $23 $T0 8 - ^ =  $24 $T0 12 - ^ = 
STACK WIN 4 1d0d6 73 9 0 c 0 0 0 1 $T0 $ebp = $eip $T0 4 + ^ = $ebp $T0 ^ = $esp $T0 8 + = 
STACK WIN 4 1d0dc 69 3 0 c 4 0 0 1 $T0 $ebp = $eip $T0 4 + ^ = $ebp $T0 ^ = $esp $T0 8 + =  $20 $T0 4 - ^ = 
STACK WIN 4 1d0dd 67 2 0 c 8 0 0 1 $T0 $ebp = $eip $T0 4 + ^ = $ebp $T0 ^ = $esp $T0 8 + =  $20 $T0 4 - ^ =  $23 $T0 8 - ^ = 
STACK WIN 4 1d0e0 63 0 0 c c 0 0 1 $T0 $ebp = $eip $T0 4 + ^ = $ebp $T0 ^ = $esp $T0 8 + =  $20 $T0 4 - ^ =  $23 $T0 8 - ^ =  $24 $T0 12 - ^ = 
STACK WIN 4 1d165 73 9 0 c 0 0 0 1 $T0 $ebp = $eip $T0 4 + ^ = $ebp $T0 ^ = $esp $T0 8 + = 
STACK WIN 4 1d16b 69 3 0 c 4 0 0 1 $T0 $ebp = $eip $T0 4 + ^ = $ebp $T0 ^ = $esp $T0 8 + =  $20 $T0 4 - ^ = 
STACK WIN 4 1d16c 67 2 0 c 8 0 0 1 $T0 $ebp = $eip $T0 4 + ^ = $ebp $T0 ^ = $esp $T0 8 + =  $20 $T0 4 - ^ =  $23 $T0 8 - ^ = 
STACK WIN 4 1d16f 63 0 0 c c 0 0 1 $T0 $ebp = $eip $T0 4 + ^ = $ebp $T0 ^ = $esp $T0 8 + =  $20 $T0 4 - ^ =  $23 $T0 8 - ^ =  $24 $T0 12 - ^ = 
STACK WIN 4 1d1f4 73 9 0 c 0 0 0 1 $T0 $ebp = $eip $T0 4 + ^ = $ebp $T0 ^ = $esp $T0 8 + = 
STACK WIN 4 1d1fa 69 3 0 c 4 0 0 1 $T0 $ebp = $eip $T0 4 + ^ = $ebp $T0 ^ = $esp $T0 8 + =  $20 $T0 4 - ^ = 
STACK WIN 4 1d1fb 67 2 0 c 8 0 0 1 $T0 $ebp = $eip $T0 4 + ^ = $ebp $T0 ^ = $esp $T0 8 + =  $20 $T0 4 - ^ =  $23 $T0 8 - ^ = 
STACK WIN 4 1d1fe 63 0 0 c c 0 0 1 $T0 $ebp = $eip $T0 4 + ^ = $ebp $T0 ^ = $esp $T0 8 + =  $20 $T0 4 - ^ =  $23 $T0 8 - ^ =  $24 $T0 12 - ^ = 
STACK WIN 4 1d283 73 9 0 c 0 0 0 1 $T0 $ebp = $eip $T0 4 + ^ = $ebp $T0 ^ = $esp $T0 8 + = 
STACK WIN 4 1d289 69 3 0 c 4 0 0 1 $T0 $ebp = $eip $T0 4 + ^ = $ebp $T0 ^ = $esp $T0 8 + =  $20 $T0 4 - ^ = 
STACK WIN 4 1d28a 67 2 0 c 8 0 0 1 $T0 $ebp = $eip $T0 4 + ^ = $ebp $T0 ^ = $esp $T0 8 + =  $20 $T0 4 - ^ =  $23 $T0 8 - ^ = 
STACK WIN 4 1d28d 63 0 0 c c 0 0 1 $T0 $ebp = $eip $T0 4 + ^ = $ebp $T0 ^ = $esp $T0 8 + =  $20 $T0 4 - ^ =  $23 $T0 8 - ^ =  $24 $T0 12 - ^ = 
STACK WIN 4 1d312 87 9 0 c 0 0 0 1 $T0 $ebp = $eip $T0 4 + ^ = $ebp $T0 ^ = $esp $T0 8 + = 
STACK WIN 4 1d318 7d 3 0 c 4 0 0 1 $T0 $ebp = $eip $T0 4 + ^ = $ebp $T0 ^ = $esp $T0 8 + =  $20 $T0 4 - ^ = 
STACK WIN 4 1d319 7b 2 0 c 8 0 0 1 $T0 $ebp = $eip $T0 4 + ^ = $ebp $T0 ^ = $esp $T0 8 + =  $20 $T0 4 - ^ =  $23 $T0 8 - ^ = 
STACK WIN 4 1d31c 77 0 0 c c 0 0 1 $T0 $ebp = $eip $T0 4 + ^ = $ebp $T0 ^ = $esp $T0 8 + =  $20 $T0 4 - ^ =  $23 $T0 8 - ^ =  $24 $T0 12 - ^ = 
STACK WIN 4 1d3ba 87 9 0 c 0 0 0 1 $T0 $ebp = $eip $T0 4 + ^ = $ebp $T0 ^ = $esp $T0 8 + = 
STACK WIN 4 1d3c0 7d 3 0 c 4 0 0 1 $T0 $ebp = $eip $T0 4 + ^ = $ebp $T0 ^ = $esp $T0 8 + =  $20 $T0 4 - ^ = 
STACK WIN 4 1d3c1 7b 2 0 c 8 0 0 1 $T0 $ebp = $eip $T0 4 + ^ = $ebp $T0 ^ = $esp $T0 8 + =  $20 $T0 4 - ^ =  $23 $T0 8 - ^ = 
STACK WIN 4 1d3c4 77 0 0 c c 0 0 1 $T0 $ebp = $eip $T0 4 + ^ = $ebp $T0 ^ = $esp $T0 8 + =  $20 $T0 4 - ^ =  $23 $T0 8 - ^ =  $24 $T0 12 - ^ = 
STACK WIN 4 1d462 87 9 0 c 0 0 0 1 $T0 $ebp = $eip $T0 4 + ^ = $ebp $T0 ^ = $esp $T0 8 + = 
STACK WIN 4 1d468 7d 3 0 c 4 0 0 1 $T0 $ebp = $eip $T0 4 + ^ = $ebp $T0 ^ = $esp $T0 8 + =  $20 $T0 4 - ^ = 
STACK WIN 4 1d469 7b 2 0 c 8 0 0 1 $T0 $ebp = $eip $T0 4 + ^ = $ebp $T0 ^ = $esp $T0 8 + =  $20 $T0 4 - ^ =  $23 $T0 8 - ^ = 
STACK WIN 4 1d46c 77 0 0 c c 0 0 1 $T0 $ebp = $eip $T0 4 + ^ = $ebp $T0 ^ = $esp $T0 8 + =  $20 $T0 4 - ^ =  $23 $T0 8 - ^ =  $24 $T0 12 - ^ = 
STACK WIN 4 1d50a 87 9 0 c 0 0 0 1 $T0 $ebp = $eip $T0 4 + ^ = $ebp $T0 ^ = $esp $T0 8 + = 
STACK WIN 4 1d510 7d 3 0 c 4 0 0 1 $T0 $ebp = $eip $T0 4 + ^ = $ebp $T0 ^ = $esp $T0 8 + =  $20 $T0 4 - ^ = 
STACK WIN 4 1d511 7b 2 0 c 8 0 0 1 $T0 $ebp = $eip $T0 4 + ^ = $ebp $T0 ^ = $esp $T0 8 + =  $20 $T0 4 - ^ =  $23 $T0 8 - ^ = 
STACK WIN 4 1d514 77 0 0 c c 0 0 1 $T0 $ebp = $eip $T0 4 + ^ = $ebp $T0 ^ = $esp $T0 8 + =  $20 $T0 4 - ^ =  $23 $T0 8 - ^ =  $24 $T0 12 - ^ = 
STACK WIN 4 1d5b2 87 9 0 c 0 0 0 1 $T0 $ebp = $eip $T0 4 + ^ = $ebp $T0 ^ = $esp $T0 8 + = 
STACK WIN 4 1d5b8 7d 3 0 c 4 0 0 1 $T0 $ebp = $eip $T0 4 + ^ = $ebp $T0 ^ = $esp $T0 8 + =  $20 $T0 4 - ^ = 
STACK WIN 4 1d5b9 7b 2 0 c 8 0 0 1 $T0 $ebp = $eip $T0 4 + ^ = $ebp $T0 ^ = $esp $T0 8 + =  $20 $T0 4 - ^ =  $23 $T0 8 - ^ = 
STACK WIN 4 1d5bc 77 0 0 c c 0 0 1 $T0 $ebp = $eip $T0 4 + ^ = $ebp $T0 ^ = $esp $T0 8 + =  $20 $T0 4 - ^ =  $23 $T0 8 - ^ =  $24 $T0 12 - ^ = 
STACK WIN 4 1d65a 87 9 0 c 0 0 0 1 $T0 $ebp = $eip $T0 4 + ^ = $ebp $T0 ^ = $esp $T0 8 + = 
STACK WIN 4 1d660 7d 3 0 c 4 0 0 1 $T0 $ebp = $eip $T0 4 + ^ = $ebp $T0 ^ = $esp $T0 8 + =  $20 $T0 4 - ^ = 
STACK WIN 4 1d661 7b 2 0 c 8 0 0 1 $T0 $ebp = $eip $T0 4 + ^ = $ebp $T0 ^ = $esp $T0 8 + =  $20 $T0 4 - ^ =  $23 $T0 8 - ^ = 
STACK WIN 4 1d664 77 0 0 c c 0 0 1 $T0 $ebp = $eip $T0 4 + ^ = $ebp $T0 ^ = $esp $T0 8 + =  $20 $T0 4 - ^ =  $23 $T0 8 - ^ =  $24 $T0 12 - ^ = 
STACK WIN 4 1d702 8e c 0 10 0 c 0 1 $T0 $ebp = $eip $T0 4 + ^ = $ebp $T0 ^ = $esp $T0 8 + = 
STACK WIN 4 1d70b 81 3 0 10 4 c 0 1 $T0 $ebp = $eip $T0 4 + ^ = $ebp $T0 ^ = $esp $T0 8 + =  $20 $T0 16 - ^ = 
STACK WIN 4 1d70c 7f 2 0 10 8 c 0 1 $T0 $ebp = $eip $T0 4 + ^ = $ebp $T0 ^ = $esp $T0 8 + =  $20 $T0 16 - ^ =  $23 $T0 20 - ^ = 
STACK WIN 4 1d70f 7b 0 0 10 c c 0 1 $T0 $ebp = $eip $T0 4 + ^ = $ebp $T0 ^ = $esp $T0 8 + =  $20 $T0 16 - ^ =  $23 $T0 20 - ^ =  $24 $T0 24 - ^ = 
STACK WIN 4 1d7b3 8e c 0 10 0 c 0 1 $T0 $ebp = $eip $T0 4 + ^ = $ebp $T0 ^ = $esp $T0 8 + = 
STACK WIN 4 1d7bc 81 3 0 10 4 c 0 1 $T0 $ebp = $eip $T0 4 + ^ = $ebp $T0 ^ = $esp $T0 8 + =  $20 $T0 16 - ^ = 
STACK WIN 4 1d7bd 7f 2 0 10 8 c 0 1 $T0 $ebp = $eip $T0 4 + ^ = $ebp $T0 ^ = $esp $T0 8 + =  $20 $T0 16 - ^ =  $23 $T0 20 - ^ = 
STACK WIN 4 1d7c0 7b 0 0 10 c c 0 1 $T0 $ebp = $eip $T0 4 + ^ = $ebp $T0 ^ = $esp $T0 8 + =  $20 $T0 16 - ^ =  $23 $T0 20 - ^ =  $24 $T0 24 - ^ = 
STACK WIN 4 1d864 8e c 0 10 0 c 0 1 $T0 $ebp = $eip $T0 4 + ^ = $ebp $T0 ^ = $esp $T0 8 + = 
STACK WIN 4 1d86d 81 3 0 10 4 c 0 1 $T0 $ebp = $eip $T0 4 + ^ = $ebp $T0 ^ = $esp $T0 8 + =  $20 $T0 16 - ^ = 
STACK WIN 4 1d86e 7f 2 0 10 8 c 0 1 $T0 $ebp = $eip $T0 4 + ^ = $ebp $T0 ^ = $esp $T0 8 + =  $20 $T0 16 - ^ =  $23 $T0 20 - ^ = 
STACK WIN 4 1d871 7b 0 0 10 c c 0 1 $T0 $ebp = $eip $T0 4 + ^ = $ebp $T0 ^ = $esp $T0 8 + =  $20 $T0 16 - ^ =  $23 $T0 20 - ^ =  $24 $T0 24 - ^ = 
STACK WIN 4 1d915 8e c 0 10 0 c 0 1 $T0 $ebp = $eip $T0 4 + ^ = $ebp $T0 ^ = $esp $T0 8 + = 
STACK WIN 4 1d91e 81 3 0 10 4 c 0 1 $T0 $ebp = $eip $T0 4 + ^ = $ebp $T0 ^ = $esp $T0 8 + =  $20 $T0 16 - ^ = 
STACK WIN 4 1d91f 7f 2 0 10 8 c 0 1 $T0 $ebp = $eip $T0 4 + ^ = $ebp $T0 ^ = $esp $T0 8 + =  $20 $T0 16 - ^ =  $23 $T0 20 - ^ = 
STACK WIN 4 1d922 7b 0 0 10 c c 0 1 $T0 $ebp = $eip $T0 4 + ^ = $ebp $T0 ^ = $esp $T0 8 + =  $20 $T0 16 - ^ =  $23 $T0 20 - ^ =  $24 $T0 24 - ^ = 
STACK WIN 4 1d9c6 8e c 0 10 0 c 0 1 $T0 $ebp = $eip $T0 4 + ^ = $ebp $T0 ^ = $esp $T0 8 + = 
STACK WIN 4 1d9cf 81 3 0 10 4 c 0 1 $T0 $ebp = $eip $T0 4 + ^ = $ebp $T0 ^ = $esp $T0 8 + =  $20 $T0 16 - ^ = 
STACK WIN 4 1d9d0 7f 2 0 10 8 c 0 1 $T0 $ebp = $eip $T0 4 + ^ = $ebp $T0 ^ = $esp $T0 8 + =  $20 $T0 16 - ^ =  $23 $T0 20 - ^ = 
STACK WIN 4 1d9d3 7b 0 0 10 c c 0 1 $T0 $ebp = $eip $T0 4 + ^ = $ebp $T0 ^ = $esp $T0 8 + =  $20 $T0 16 - ^ =  $23 $T0 20 - ^ =  $24 $T0 24 - ^ = 
STACK WIN 4 1da77 8e c 0 10 0 c 0 1 $T0 $ebp = $eip $T0 4 + ^ = $ebp $T0 ^ = $esp $T0 8 + = 
STACK WIN 4 1da80 81 3 0 10 4 c 0 1 $T0 $ebp = $eip $T0 4 + ^ = $ebp $T0 ^ = $esp $T0 8 + =  $20 $T0 16 - ^ = 
STACK WIN 4 1da81 7f 2 0 10 8 c 0 1 $T0 $ebp = $eip $T0 4 + ^ = $ebp $T0 ^ = $esp $T0 8 + =  $20 $T0 16 - ^ =  $23 $T0 20 - ^ = 
STACK WIN 4 1da84 7b 0 0 10 c c 0 1 $T0 $ebp = $eip $T0 4 + ^ = $ebp $T0 ^ = $esp $T0 8 + =  $20 $T0 16 - ^ =  $23 $T0 20 - ^ =  $24 $T0 24 - ^ = 
STACK WIN 4 1db28 a2 c 0 10 0 c 0 1 $T0 $ebp = $eip $T0 4 + ^ = $ebp $T0 ^ = $esp $T0 8 + = 
STACK WIN 4 1db31 95 3 0 10 4 c 0 1 $T0 $ebp = $eip $T0 4 + ^ = $ebp $T0 ^ = $esp $T0 8 + =  $20 $T0 16 - ^ = 
STACK WIN 4 1db32 93 2 0 10 8 c 0 1 $T0 $ebp = $eip $T0 4 + ^ = $ebp $T0 ^ = $esp $T0 8 + =  $20 $T0 16 - ^ =  $23 $T0 20 - ^ = 
STACK WIN 4 1db35 8f 0 0 10 c c 0 1 $T0 $ebp = $eip $T0 4 + ^ = $ebp $T0 ^ = $esp $T0 8 + =  $20 $T0 16 - ^ =  $23 $T0 20 - ^ =  $24 $T0 24 - ^ = 
STACK WIN 4 1dbf2 a2 c 0 10 0 c 0 1 $T0 $ebp = $eip $T0 4 + ^ = $ebp $T0 ^ = $esp $T0 8 + = 
STACK WIN 4 1dbfb 95 3 0 10 4 c 0 1 $T0 $ebp = $eip $T0 4 + ^ = $ebp $T0 ^ = $esp $T0 8 + =  $20 $T0 16 - ^ = 
STACK WIN 4 1dbfc 93 2 0 10 8 c 0 1 $T0 $ebp = $eip $T0 4 + ^ = $ebp $T0 ^ = $esp $T0 8 + =  $20 $T0 16 - ^ =  $23 $T0 20 - ^ = 
STACK WIN 4 1dbff 8f 0 0 10 c c 0 1 $T0 $ebp = $eip $T0 4 + ^ = $ebp $T0 ^ = $esp $T0 8 + =  $20 $T0 16 - ^ =  $23 $T0 20 - ^ =  $24 $T0 24 - ^ = 
STACK WIN 4 1dcbc a2 c 0 10 0 c 0 1 $T0 $ebp = $eip $T0 4 + ^ = $ebp $T0 ^ = $esp $T0 8 + = 
STACK WIN 4 1dcc5 95 3 0 10 4 c 0 1 $T0 $ebp = $eip $T0 4 + ^ = $ebp $T0 ^ = $esp $T0 8 + =  $20 $T0 16 - ^ = 
STACK WIN 4 1dcc6 93 2 0 10 8 c 0 1 $T0 $ebp = $eip $T0 4 + ^ = $ebp $T0 ^ = $esp $T0 8 + =  $20 $T0 16 - ^ =  $23 $T0 20 - ^ = 
STACK WIN 4 1dcc9 8f 0 0 10 c c 0 1 $T0 $ebp = $eip $T0 4 + ^ = $ebp $T0 ^ = $esp $T0 8 + =  $20 $T0 16 - ^ =  $23 $T0 20 - ^ =  $24 $T0 24 - ^ = 
STACK WIN 4 1dd86 a2 c 0 10 0 c 0 1 $T0 $ebp = $eip $T0 4 + ^ = $ebp $T0 ^ = $esp $T0 8 + = 
STACK WIN 4 1dd8f 95 3 0 10 4 c 0 1 $T0 $ebp = $eip $T0 4 + ^ = $ebp $T0 ^ = $esp $T0 8 + =  $20 $T0 16 - ^ = 
STACK WIN 4 1dd90 93 2 0 10 8 c 0 1 $T0 $ebp = $eip $T0 4 + ^ = $ebp $T0 ^ = $esp $T0 8 + =  $20 $T0 16 - ^ =  $23 $T0 20 - ^ = 
STACK WIN 4 1dd93 8f 0 0 10 c c 0 1 $T0 $ebp = $eip $T0 4 + ^ = $ebp $T0 ^ = $esp $T0 8 + =  $20 $T0 16 - ^ =  $23 $T0 20 - ^ =  $24 $T0 24 - ^ = 
STACK WIN 4 1de50 a2 c 0 10 0 c 0 1 $T0 $ebp = $eip $T0 4 + ^ = $ebp $T0 ^ = $esp $T0 8 + = 
STACK WIN 4 1de59 95 3 0 10 4 c 0 1 $T0 $ebp = $eip $T0 4 + ^ = $ebp $T0 ^ = $esp $T0 8 + =  $20 $T0 16 - ^ = 
STACK WIN 4 1de5a 93 2 0 10 8 c 0 1 $T0 $ebp = $eip $T0 4 + ^ = $ebp $T0 ^ = $esp $T0 8 + =  $20 $T0 16 - ^ =  $23 $T0 20 - ^ = 
STACK WIN 4 1de5d 8f 0 0 10 c c 0 1 $T0 $ebp = $eip $T0 4 + ^ = $ebp $T0 ^ = $esp $T0 8 + =  $20 $T0 16 - ^ =  $23 $T0 20 - ^ =  $24 $T0 24 - ^ = 
STACK WIN 4 1df1a a2 c 0 10 0 c 0 1 $T0 $ebp = $eip $T0 4 + ^ = $ebp $T0 ^ = $esp $T0 8 + = 
STACK WIN 4 1df23 95 3 0 10 4 c 0 1 $T0 $ebp = $eip $T0 4 + ^ = $ebp $T0 ^ = $esp $T0 8 + =  $20 $T0 16 - ^ = 
STACK WIN 4 1df24 93 2 0 10 8 c 0 1 $T0 $ebp = $eip $T0 4 + ^ = $ebp $T0 ^ = $esp $T0 8 + =  $20 $T0 16 - ^ =  $23 $T0 20 - ^ = 
STACK WIN 4 1df27 8f 0 0 10 c c 0 1 $T0 $ebp = $eip $T0 4 + ^ = $ebp $T0 ^ = $esp $T0 8 + =  $20 $T0 16 - ^ =  $23 $T0 20 - ^ =  $24 $T0 24 - ^ = 
STACK WIN 4 1dfe4 3b 6 0 10 0 0 0 1 $T0 $ebp = $eip $T0 4 + ^ = $ebp $T0 ^ = $esp $T0 8 + = 
STACK WIN 4 1dfea 33 0 0 10 4 0 0 1 $T0 $ebp = $eip $T0 4 + ^ = $ebp $T0 ^ = $esp $T0 8 + =  $23 $T0 4 - ^ = 
STACK WIN 4 1dff2 2a 0 0 10 8 0 0 1 $T0 $ebp = $eip $T0 4 + ^ = $ebp $T0 ^ = $esp $T0 8 + =  $23 $T0 4 - ^ =  $24 $T0 8 - ^ = 
STACK WIN 4 1e02d 40 6 0 10 0 0 0 1 $T0 $ebp = $eip $T0 4 + ^ = $ebp $T0 ^ = $esp $T0 8 + = 
STACK WIN 4 1e033 38 0 0 10 4 0 0 1 $T0 $ebp = $eip $T0 4 + ^ = $ebp $T0 ^ = $esp $T0 8 + =  $23 $T0 4 - ^ = 
STACK WIN 4 1e03b 2f 0 0 10 8 0 0 1 $T0 $ebp = $eip $T0 4 + ^ = $ebp $T0 ^ = $esp $T0 8 + =  $23 $T0 4 - ^ =  $20 $T0 8 - ^ = 
STACK WIN 4 1e041 28 0 0 10 c 0 0 1 $T0 $ebp = $eip $T0 4 + ^ = $ebp $T0 ^ = $esp $T0 8 + =  $23 $T0 4 - ^ =  $20 $T0 8 - ^ =  $24 $T0 12 - ^ = 
STACK WIN 4 1e07d 2c 6 0 10 0 0 0 1 $T0 $ebp = $eip $T0 4 + ^ = $ebp $T0 ^ = $esp $T0 8 + = 
STACK WIN 4 1e083 24 0 0 10 4 0 0 1 $T0 $ebp = $eip $T0 4 + ^ = $ebp $T0 ^ = $esp $T0 8 + =  $23 $T0 4 - ^ = 
STACK WIN 4 1e08b 1b 0 0 10 8 0 0 1 $T0 $ebp = $eip $T0 4 + ^ = $ebp $T0 ^ = $esp $T0 8 + =  $23 $T0 4 - ^ =  $24 $T0 8 - ^ = 
STACK WIN 4 1e0b4 31 6 0 10 0 0 0 1 $T0 $ebp = $eip $T0 4 + ^ = $ebp $T0 ^ = $esp $T0 8 + = 
STACK WIN 4 1e0ba 29 0 0 10 4 0 0 1 $T0 $ebp = $eip $T0 4 + ^ = $ebp $T0 ^ = $esp $T0 8 + =  $23 $T0 4 - ^ = 
STACK WIN 4 1e0c2 20 0 0 10 8 0 0 1 $T0 $ebp = $eip $T0 4 + ^ = $ebp $T0 ^ = $esp $T0 8 + =  $23 $T0 4 - ^ =  $20 $T0 8 - ^ = 
STACK WIN 4 1e0c8 19 0 0 10 c 0 0 1 $T0 $ebp = $eip $T0 4 + ^ = $ebp $T0 ^ = $esp $T0 8 + =  $23 $T0 4 - ^ =  $20 $T0 8 - ^ =  $24 $T0 12 - ^ = 
STACK WIN 4 1e0f1 28 5 0 14 0 0 0 1 $T0 $ebp = $eip $T0 4 + ^ = $ebp $T0 ^ = $esp $T0 8 + = 
STACK WIN 4 1e123 12 5 0 4 0 0 0 1 $T0 $ebp = $eip $T0 4 + ^ = $ebp $T0 ^ = $esp $T0 8 + = 
STACK WIN 4 1e139 12 5 0 4 0 0 0 1 $T0 $ebp = $eip $T0 4 + ^ = $ebp $T0 ^ = $esp $T0 8 + = 
STACK WIN 4 1e14f 12 5 0 4 0 0 0 1 $T0 $ebp = $eip $T0 4 + ^ = $ebp $T0 ^ = $esp $T0 8 + = 
STACK WIN 4 1e165 12 5 0 4 0 0 0 1 $T0 $ebp = $eip $T0 4 + ^ = $ebp $T0 ^ = $esp $T0 8 + = 
STACK WIN 4 1e17b 12 5 0 4 0 0 0 1 $T0 $ebp = $eip $T0 4 + ^ = $ebp $T0 ^ = $esp $T0 8 + = 
STACK WIN 4 1e191 28 5 0 14 0 0 0 1 $T0 $ebp = $eip $T0 4 + ^ = $ebp $T0 ^ = $esp $T0 8 + = 
STACK WIN 4 1e1c3 12 5 0 4 0 0 0 1 $T0 $ebp = $eip $T0 4 + ^ = $ebp $T0 ^ = $esp $T0 8 + = 
STACK WIN 4 1e1d9 12 5 0 4 0 0 0 1 $T0 $ebp = $eip $T0 4 + ^ = $ebp $T0 ^ = $esp $T0 8 + = 
STACK WIN 4 1e1ef 28 5 0 14 0 0 0 1 $T0 $ebp = $eip $T0 4 + ^ = $ebp $T0 ^ = $esp $T0 8 + = 
STACK WIN 4 1e221 28 5 0 14 0 0 0 1 $T0 $ebp = $eip $T0 4 + ^ = $ebp $T0 ^ = $esp $T0 8 + = 
STACK WIN 4 1e253 12 5 0 4 0 0 0 1 $T0 $ebp = $eip $T0 4 + ^ = $ebp $T0 ^ = $esp $T0 8 + = 
STACK WIN 4 1e269 28 5 0 14 0 0 0 1 $T0 $ebp = $eip $T0 4 + ^ = $ebp $T0 ^ = $esp $T0 8 + = 
STACK WIN 4 1e29b 12 5 0 4 0 0 0 1 $T0 $ebp = $eip $T0 4 + ^ = $ebp $T0 ^ = $esp $T0 8 + = 
STACK WIN 4 1e2b1 12 5 0 4 0 0 0 1 $T0 $ebp = $eip $T0 4 + ^ = $ebp $T0 ^ = $esp $T0 8 + = 
STACK WIN 4 1e2c7 12 5 0 4 0 0 0 1 $T0 $ebp = $eip $T0 4 + ^ = $ebp $T0 ^ = $esp $T0 8 + = 
STACK WIN 4 1e2dd 28 5 0 14 0 0 0 1 $T0 $ebp = $eip $T0 4 + ^ = $ebp $T0 ^ = $esp $T0 8 + = 
STACK WIN 4 1e30f 12 5 0 4 0 0 0 1 $T0 $ebp = $eip $T0 4 + ^ = $ebp $T0 ^ = $esp $T0 8 + = 
STACK WIN 4 1e325 45 b 0 0 0 4 0 1 $T0 $ebp = $eip $T0 4 + ^ = $ebp $T0 ^ = $esp $T0 8 + = 
STACK WIN 4 1e37b 4a b 0 0 0 4 0 1 $T0 $ebp = $eip $T0 4 + ^ = $ebp $T0 ^ = $esp $T0 8 + = 
STACK WIN 4 1e3d7 3c 8 0 18 0 0 0 1 $T0 $ebp = $eip $T0 4 + ^ = $ebp $T0 ^ = $esp $T0 8 + = 
STACK WIN 4 1e3dd 32 2 0 18 4 0 0 1 $T0 $ebp = $eip $T0 4 + ^ = $ebp $T0 ^ = $esp $T0 8 + =  $23 $T0 4 - ^ = 
STACK WIN 4 1e422 3c 8 0 18 0 0 0 1 $T0 $ebp = $eip $T0 4 + ^ = $ebp $T0 ^ = $esp $T0 8 + = 
STACK WIN 4 1e428 32 2 0 18 4 0 0 1 $T0 $ebp = $eip $T0 4 + ^ = $ebp $T0 ^ = $esp $T0 8 + =  $23 $T0 4 - ^ = 
STACK WIN 4 1e46d 3c 8 0 18 0 0 0 1 $T0 $ebp = $eip $T0 4 + ^ = $ebp $T0 ^ = $esp $T0 8 + = 
STACK WIN 4 1e473 32 2 0 18 4 0 0 1 $T0 $ebp = $eip $T0 4 + ^ = $ebp $T0 ^ = $esp $T0 8 + =  $23 $T0 4 - ^ = 
STACK WIN 4 1e4b8 3c 8 0 18 0 0 0 1 $T0 $ebp = $eip $T0 4 + ^ = $ebp $T0 ^ = $esp $T0 8 + = 
STACK WIN 4 1e4be 32 2 0 18 4 0 0 1 $T0 $ebp = $eip $T0 4 + ^ = $ebp $T0 ^ = $esp $T0 8 + =  $23 $T0 4 - ^ = 
STACK WIN 4 1e503 2d b 0 18 0 0 0 1 $T0 $ebp = $eip $T0 4 + ^ = $ebp $T0 ^ = $esp $T0 8 + = 
STACK WIN 4 1e509 23 5 0 18 4 0 0 1 $T0 $ebp = $eip $T0 4 + ^ = $ebp $T0 ^ = $esp $T0 8 + =  $23 $T0 4 - ^ = 
STACK WIN 4 1e53b 27 b 0 18 0 0 0 1 $T0 $ebp = $eip $T0 4 + ^ = $ebp $T0 ^ = $esp $T0 8 + = 
STACK WIN 4 1e541 1d 5 0 18 4 0 0 1 $T0 $ebp = $eip $T0 4 + ^ = $ebp $T0 ^ = $esp $T0 8 + =  $23 $T0 4 - ^ = 
STACK WIN 4 1e56b 2d b 0 18 0 0 0 1 $T0 $ebp = $eip $T0 4 + ^ = $ebp $T0 ^ = $esp $T0 8 + = 
STACK WIN 4 1e571 23 5 0 18 4 0 0 1 $T0 $ebp = $eip $T0 4 + ^ = $ebp $T0 ^ = $esp $T0 8 + =  $23 $T0 4 - ^ = 
STACK WIN 4 1e5a3 2d b 0 18 0 0 0 1 $T0 $ebp = $eip $T0 4 + ^ = $ebp $T0 ^ = $esp $T0 8 + = 
STACK WIN 4 1e5a9 23 5 0 18 4 0 0 1 $T0 $ebp = $eip $T0 4 + ^ = $ebp $T0 ^ = $esp $T0 8 + =  $23 $T0 4 - ^ = 
STACK WIN 4 1e5db 27 b 0 18 0 0 0 1 $T0 $ebp = $eip $T0 4 + ^ = $ebp $T0 ^ = $esp $T0 8 + = 
STACK WIN 4 1e5e1 1d 5 0 18 4 0 0 1 $T0 $ebp = $eip $T0 4 + ^ = $ebp $T0 ^ = $esp $T0 8 + =  $23 $T0 4 - ^ = 
STACK WIN 4 1e60b 2d b 0 18 0 0 0 1 $T0 $ebp = $eip $T0 4 + ^ = $ebp $T0 ^ = $esp $T0 8 + = 
STACK WIN 4 1e611 23 5 0 18 4 0 0 1 $T0 $ebp = $eip $T0 4 + ^ = $ebp $T0 ^ = $esp $T0 8 + =  $23 $T0 4 - ^ = 
STACK WIN 4 1e643 2d b 0 18 0 0 0 1 $T0 $ebp = $eip $T0 4 + ^ = $ebp $T0 ^ = $esp $T0 8 + = 
STACK WIN 4 1e649 23 5 0 18 4 0 0 1 $T0 $ebp = $eip $T0 4 + ^ = $ebp $T0 ^ = $esp $T0 8 + =  $23 $T0 4 - ^ = 
STACK WIN 4 1e67b 27 b 0 18 0 0 0 1 $T0 $ebp = $eip $T0 4 + ^ = $ebp $T0 ^ = $esp $T0 8 + = 
STACK WIN 4 1e681 1d 5 0 18 4 0 0 1 $T0 $ebp = $eip $T0 4 + ^ = $ebp $T0 ^ = $esp $T0 8 + =  $23 $T0 4 - ^ = 
STACK WIN 4 1e6ab 2d b 0 18 0 0 0 1 $T0 $ebp = $eip $T0 4 + ^ = $ebp $T0 ^ = $esp $T0 8 + = 
STACK WIN 4 1e6b1 23 5 0 18 4 0 0 1 $T0 $ebp = $eip $T0 4 + ^ = $ebp $T0 ^ = $esp $T0 8 + =  $23 $T0 4 - ^ = 
STACK WIN 4 1e6e3 2d b 0 18 0 0 0 1 $T0 $ebp = $eip $T0 4 + ^ = $ebp $T0 ^ = $esp $T0 8 + = 
STACK WIN 4 1e6e9 23 5 0 18 4 0 0 1 $T0 $ebp = $eip $T0 4 + ^ = $ebp $T0 ^ = $esp $T0 8 + =  $23 $T0 4 - ^ = 
STACK WIN 4 1e71b 27 b 0 18 0 0 0 1 $T0 $ebp = $eip $T0 4 + ^ = $ebp $T0 ^ = $esp $T0 8 + = 
STACK WIN 4 1e721 1d 5 0 18 4 0 0 1 $T0 $ebp = $eip $T0 4 + ^ = $ebp $T0 ^ = $esp $T0 8 + =  $23 $T0 4 - ^ = 
STACK WIN 4 1e74b 2d b 0 18 0 0 0 1 $T0 $ebp = $eip $T0 4 + ^ = $ebp $T0 ^ = $esp $T0 8 + = 
STACK WIN 4 1e751 23 5 0 18 4 0 0 1 $T0 $ebp = $eip $T0 4 + ^ = $ebp $T0 ^ = $esp $T0 8 + =  $23 $T0 4 - ^ = 
STACK WIN 4 1e783 10 5 0 4 0 0 0 1 $T0 $ebp = $eip $T0 4 + ^ = $ebp $T0 ^ = $esp $T0 8 + = 
STACK WIN 4 1e797 10 5 0 4 0 0 0 1 $T0 $ebp = $eip $T0 4 + ^ = $ebp $T0 ^ = $esp $T0 8 + = 
STACK WIN 4 1e7ab 10 5 0 4 0 0 0 1 $T0 $ebp = $eip $T0 4 + ^ = $ebp $T0 ^ = $esp $T0 8 + = 
STACK WIN 4 1e7bf 10 5 0 4 0 0 0 1 $T0 $ebp = $eip $T0 4 + ^ = $ebp $T0 ^ = $esp $T0 8 + = 
STACK WIN 4 1e7d3 83 9 0 4 0 0 0 1 $T0 $ebp = $eip $T0 4 + ^ = $ebp $T0 ^ = $esp $T0 8 + = 
STACK WIN 4 1e7d9 79 3 0 4 4 0 0 1 $T0 $ebp = $eip $T0 4 + ^ = $ebp $T0 ^ = $esp $T0 8 + =  $20 $T0 4 - ^ = 
STACK WIN 4 1e7da 77 2 0 4 8 0 0 1 $T0 $ebp = $eip $T0 4 + ^ = $ebp $T0 ^ = $esp $T0 8 + =  $20 $T0 4 - ^ =  $24 $T0 8 - ^ = 
STACK WIN 4 1e80e 2f 0 0 4 c 0 0 1 $T0 $ebp = $eip $T0 4 + ^ = $ebp $T0 ^ = $esp $T0 8 + =  $20 $T0 4 - ^ =  $24 $T0 8 - ^ =  $23 $T0 12 - ^ = 
STACK WIN 4 1e876 1e b 0 4 0 0 0 1 $T0 $ebp = $eip $T0 4 + ^ = $ebp $T0 ^ = $esp $T0 8 + = 
STACK WIN 4 1e87f 11 2 0 4 4 0 0 1 $T0 $ebp = $eip $T0 4 + ^ = $ebp $T0 ^ = $esp $T0 8 + =  $23 $T0 4 - ^ = 
STACK WIN 4 1e89b 6 0 0 0 0 0 0 1 $T0 .raSearch = $eip $T0 ^ = $esp $T0 4 + = 
STACK WIN 4 1e8a1 18 5 0 4 0 0 0 1 $T0 $ebp = $eip $T0 4 + ^ = $ebp $T0 ^ = $esp $T0 8 + = 
STACK WIN 4 1e8bf 10 5 0 4 0 0 0 1 $T0 $ebp = $eip $T0 4 + ^ = $ebp $T0 ^ = $esp $T0 8 + = 
STACK WIN 4 1e8d3 11 0 0 0 0 0 0 1 $T0 .raSearch = $eip $T0 ^ = $esp $T0 4 + = 
STACK WIN 4 1e8e8 8 0 0 0 0 0 0 1 $T0 .raSearch = $eip $T0 ^ = $esp $T0 4 + = 
STACK WIN 4 1e8f2 8 0 0 0 0 0 0 1 $T0 .raSearch = $eip $T0 ^ = $esp $T0 4 + = 
STACK WIN 4 1e8fc 8 0 0 0 0 0 0 1 $T0 .raSearch = $eip $T0 ^ = $esp $T0 4 + = 
STACK WIN 4 1e906 8 0 0 0 0 0 0 1 $T0 .raSearch = $eip $T0 ^ = $esp $T0 4 + = 
STACK WIN 4 1e910 8 0 0 0 0 0 0 1 $T0 .raSearch = $eip $T0 ^ = $esp $T0 4 + = 
STACK WIN 4 1e91a 8 0 0 0 0 0 0 1 $T0 .raSearch = $eip $T0 ^ = $esp $T0 4 + = 
STACK WIN 4 1e924 8 0 0 0 0 0 0 1 $T0 .raSearch = $eip $T0 ^ = $esp $T0 4 + = 
STACK WIN 4 1e92e 8 0 0 0 0 0 0 1 $T0 .raSearch = $eip $T0 ^ = $esp $T0 4 + = 
STACK WIN 4 1e938 8 0 0 0 0 0 0 1 $T0 .raSearch = $eip $T0 ^ = $esp $T0 4 + = 
STACK WIN 4 1e942 8 0 0 0 0 0 0 1 $T0 .raSearch = $eip $T0 ^ = $esp $T0 4 + = 
STACK WIN 4 1e94c 8 0 0 0 0 0 0 1 $T0 .raSearch = $eip $T0 ^ = $esp $T0 4 + = 
STACK WIN 4 1e956 8 0 0 0 0 0 0 1 $T0 .raSearch = $eip $T0 ^ = $esp $T0 4 + = 
STACK WIN 4 1e960 8 0 0 0 0 0 0 1 $T0 .raSearch = $eip $T0 ^ = $esp $T0 4 + = 
STACK WIN 4 1e96a 8 0 0 0 0 0 0 1 $T0 .raSearch = $eip $T0 ^ = $esp $T0 4 + = 
STACK WIN 4 1e974 8 0 0 0 0 0 0 1 $T0 .raSearch = $eip $T0 ^ = $esp $T0 4 + = 
STACK WIN 4 1e97e 8 0 0 0 0 0 0 1 $T0 .raSearch = $eip $T0 ^ = $esp $T0 4 + = 
STACK WIN 4 1e988 8 0 0 0 0 0 0 1 $T0 .raSearch = $eip $T0 ^ = $esp $T0 4 + = 
STACK WIN 4 1e992 8 0 0 0 0 0 0 1 $T0 .raSearch = $eip $T0 ^ = $esp $T0 4 + = 
STACK WIN 4 1e99c 8 0 0 0 0 0 0 1 $T0 .raSearch = $eip $T0 ^ = $esp $T0 4 + = 
STACK WIN 4 1e9a6 8 0 0 0 0 0 0 1 $T0 .raSearch = $eip $T0 ^ = $esp $T0 4 + = 
STACK WIN 4 1e9b0 8 0 0 0 0 0 0 1 $T0 .raSearch = $eip $T0 ^ = $esp $T0 4 + = 
STACK WIN 4 1e9ba 8 0 0 0 0 0 0 1 $T0 .raSearch = $eip $T0 ^ = $esp $T0 4 + = 
STACK WIN 4 1e9c4 8 0 0 0 0 0 0 1 $T0 .raSearch = $eip $T0 ^ = $esp $T0 4 + = 
STACK WIN 4 1e9ce 8 0 0 0 0 0 0 1 $T0 .raSearch = $eip $T0 ^ = $esp $T0 4 + = 
STACK WIN 4 1e9d8 8 0 0 0 0 0 0 1 $T0 .raSearch = $eip $T0 ^ = $esp $T0 4 + = 
STACK WIN 4 1e9e2 8 0 0 0 0 0 0 1 $T0 .raSearch = $eip $T0 ^ = $esp $T0 4 + = 
STACK WIN 4 1e9ec 8 0 0 0 0 0 0 1 $T0 .raSearch = $eip $T0 ^ = $esp $T0 4 + = 
STACK WIN 4 1e9f6 8 0 0 0 0 0 0 1 $T0 .raSearch = $eip $T0 ^ = $esp $T0 4 + = 
STACK WIN 4 1ea00 8 0 0 0 0 0 0 1 $T0 .raSearch = $eip $T0 ^ = $esp $T0 4 + = 
STACK WIN 4 1ea0a 8 0 0 0 0 0 0 1 $T0 .raSearch = $eip $T0 ^ = $esp $T0 4 + = 
STACK WIN 4 1ea14 10 0 0 0 0 0 0 1 $T0 .raSearch = $eip $T0 ^ = $esp $T0 4 + = 
STACK WIN 4 1ea28 f 0 0 0 0 0 0 1 $T0 .raSearch = $eip $T0 ^ = $esp $T0 4 + = 
STACK WIN 4 1ea3a 11 0 0 0 0 0 0 1 $T0 .raSearch = $eip $T0 ^ = $esp $T0 4 + = 
STACK WIN 4 1ea4f 1a 5 0 0 0 0 0 1 $T0 .raSearch = $eip $T0 ^ = $esp $T0 4 + = 
STACK WIN 4 1ea52 16 2 0 0 4 0 0 1 $T0 .raSearch = $eip $T0 ^ = $esp $T0 4 + =  $23 $T0 4 - ^ = 
STACK WIN 4 1ea6f 24 8 0 4 0 0 0 1 $T0 $ebp = $eip $T0 4 + ^ = $ebp $T0 ^ = $esp $T0 8 + = 
STACK WIN 4 1ea75 1a 2 0 4 4 0 0 1 $T0 $ebp = $eip $T0 4 + ^ = $ebp $T0 ^ = $esp $T0 8 + =  $23 $T0 4 - ^ = 
STACK WIN 4 1ea9c 3 0 0 0 0 0 0 1 $T0 .raSearch = $eip $T0 ^ = $esp $T0 4 + = 
STACK WIN 4 1ea9f bf 18 0 0 0 474 0 1 $T0 $ebp = $eip $T0 4 + ^ = $ebp $T0 ^ = $esp $T0 8 + = 
STACK WIN 4 1eab5 a2 2 0 0 4 474 0 1 $T0 $ebp = $eip $T0 4 + ^ = $ebp $T0 ^ = $esp $T0 8 + =  $23 $T0 1144 - ^ = 
STACK WIN 4 1eab8 9c 0 0 0 8 474 0 1 $T0 $ebp = $eip $T0 4 + ^ = $ebp $T0 ^ = $esp $T0 8 + =  $23 $T0 1144 - ^ =  $24 $T0 1148 - ^ = 
STACK WIN 4 1eb8d 9 0 0 0 0 0 0 1 $T0 .raSearch = $eip $T0 ^ = $esp $T0 4 + = 
STACK WIN 4 1eb98 9 0 0 0 0 0 0 1 $T0 .raSearch = $eip $T0 ^ = $esp $T0 4 + = 
STACK WIN 4 1eba3 9 0 0 0 0 0 0 1 $T0 .raSearch = $eip $T0 ^ = $esp $T0 4 + = 
STACK WIN 4 1ebae 9 0 0 0 0 0 0 1 $T0 .raSearch = $eip $T0 ^ = $esp $T0 4 + = 
STACK WIN 4 1ebb9 9 0 0 0 0 0 0 1 $T0 .raSearch = $eip $T0 ^ = $esp $T0 4 + = 
STACK WIN 4 1ebc4 bf 18 0 0 0 474 0 1 $T0 $ebp = $eip $T0 4 + ^ = $ebp $T0 ^ = $esp $T0 8 + = 
STACK WIN 4 1ebda a2 2 0 0 4 474 0 1 $T0 $ebp = $eip $T0 4 + ^ = $ebp $T0 ^ = $esp $T0 8 + =  $23 $T0 1144 - ^ = 
STACK WIN 4 1ebdd 9c 0 0 0 8 474 0 1 $T0 $ebp = $eip $T0 4 + ^ = $ebp $T0 ^ = $esp $T0 8 + =  $23 $T0 1144 - ^ =  $24 $T0 1148 - ^ = 
STACK WIN 4 1ecb2 9 0 0 0 0 0 0 1 $T0 .raSearch = $eip $T0 ^ = $esp $T0 4 + = 
STACK WIN 4 1ecbd 9 0 0 0 0 0 0 1 $T0 .raSearch = $eip $T0 ^ = $esp $T0 4 + = 
STACK WIN 4 1ecc8 f4 18 0 0 0 ae0 0 1 $T0 $ebp = $eip $T0 4 + ^ = $ebp $T0 ^ = $esp $T0 8 + = 
STACK WIN 4 1ecde d7 2 0 0 4 ae0 0 1 $T0 $ebp = $eip $T0 4 + ^ = $ebp $T0 ^ = $esp $T0 8 + =  $23 $T0 2788 - ^ = 
STACK WIN 4 1ece1 d1 0 0 0 8 ae0 0 1 $T0 $ebp = $eip $T0 4 + ^ = $ebp $T0 ^ = $esp $T0 8 + =  $23 $T0 2788 - ^ =  $24 $T0 2792 - ^ = 
STACK WIN 4 1edf9 f4 18 0 0 0 ae0 0 1 $T0 $ebp = $eip $T0 4 + ^ = $ebp $T0 ^ = $esp $T0 8 + = 
STACK WIN 4 1ee0f d7 2 0 0 4 ae0 0 1 $T0 $ebp = $eip $T0 4 + ^ = $ebp $T0 ^ = $esp $T0 8 + =  $23 $T0 2788 - ^ = 
STACK WIN 4 1ee12 d1 0 0 0 8 ae0 0 1 $T0 $ebp = $eip $T0 4 + ^ = $ebp $T0 ^ = $esp $T0 8 + =  $23 $T0 2788 - ^ =  $24 $T0 2792 - ^ = 
STACK WIN 4 1ef2a 9 0 0 0 0 0 0 1 $T0 .raSearch = $eip $T0 ^ = $esp $T0 4 + = 
STACK WIN 4 1ef35 bf 18 0 0 0 474 0 1 $T0 $ebp = $eip $T0 4 + ^ = $ebp $T0 ^ = $esp $T0 8 + = 
STACK WIN 4 1ef4b a2 2 0 0 4 474 0 1 $T0 $ebp = $eip $T0 4 + ^ = $ebp $T0 ^ = $esp $T0 8 + =  $23 $T0 1144 - ^ = 
STACK WIN 4 1ef4e 9c 0 0 0 8 474 0 1 $T0 $ebp = $eip $T0 4 + ^ = $ebp $T0 ^ = $esp $T0 8 + =  $23 $T0 1144 - ^ =  $24 $T0 1148 - ^ = 
STACK WIN 4 1f023 9 0 0 0 0 0 0 1 $T0 .raSearch = $eip $T0 ^ = $esp $T0 4 + = 
STACK WIN 4 1f02e 9 0 0 0 0 0 0 1 $T0 .raSearch = $eip $T0 ^ = $esp $T0 4 + = 
STACK WIN 4 1f039 9 0 0 0 0 0 0 1 $T0 .raSearch = $eip $T0 ^ = $esp $T0 4 + = 
STACK WIN 4 1f044 bf 18 0 0 0 474 0 1 $T0 $ebp = $eip $T0 4 + ^ = $ebp $T0 ^ = $esp $T0 8 + = 
STACK WIN 4 1f05a a2 2 0 0 4 474 0 1 $T0 $ebp = $eip $T0 4 + ^ = $ebp $T0 ^ = $esp $T0 8 + =  $23 $T0 1144 - ^ = 
STACK WIN 4 1f05d 9c 0 0 0 8 474 0 1 $T0 $ebp = $eip $T0 4 + ^ = $ebp $T0 ^ = $esp $T0 8 + =  $23 $T0 1144 - ^ =  $24 $T0 1148 - ^ = 
STACK WIN 4 1f132 9 0 0 0 0 0 0 1 $T0 .raSearch = $eip $T0 ^ = $esp $T0 4 + = 
STACK WIN 4 1f13d 4 0 0 0 0 0 0 1 $T0 .raSearch = $eip $T0 ^ = $esp $T0 4 + = 
STACK WIN 4 1f141 14 5 0 8 0 0 0 1 $T0 $ebp = $eip $T0 4 + ^ = $ebp $T0 ^ = $esp $T0 8 + = 
STACK WIN 4 1f15a 14 5 0 8 0 0 0 1 $T0 $ebp = $eip $T0 4 + ^ = $ebp $T0 ^ = $esp $T0 8 + = 
STACK WIN 4 1f173 14 5 0 8 0 0 0 1 $T0 $ebp = $eip $T0 4 + ^ = $ebp $T0 ^ = $esp $T0 8 + = 
STACK WIN 4 1f18c 14 5 0 8 0 0 0 1 $T0 $ebp = $eip $T0 4 + ^ = $ebp $T0 ^ = $esp $T0 8 + = 
STACK WIN 4 1f1a5 14 5 0 8 0 0 0 1 $T0 $ebp = $eip $T0 4 + ^ = $ebp $T0 ^ = $esp $T0 8 + = 
STACK WIN 4 1f1be 14 5 0 8 0 0 0 1 $T0 $ebp = $eip $T0 4 + ^ = $ebp $T0 ^ = $esp $T0 8 + = 
STACK WIN 4 1f1d7 14 5 0 8 0 0 0 1 $T0 $ebp = $eip $T0 4 + ^ = $ebp $T0 ^ = $esp $T0 8 + = 
STACK WIN 4 1f1f0 14 5 0 8 0 0 0 1 $T0 $ebp = $eip $T0 4 + ^ = $ebp $T0 ^ = $esp $T0 8 + = 
STACK WIN 4 1f209 14 5 0 8 0 0 0 1 $T0 $ebp = $eip $T0 4 + ^ = $ebp $T0 ^ = $esp $T0 8 + = 
STACK WIN 4 1f222 14 5 0 8 0 0 0 1 $T0 $ebp = $eip $T0 4 + ^ = $ebp $T0 ^ = $esp $T0 8 + = 
STACK WIN 4 1f23b 14 5 0 8 0 0 0 1 $T0 $ebp = $eip $T0 4 + ^ = $ebp $T0 ^ = $esp $T0 8 + = 
STACK WIN 4 1f254 14 5 0 8 0 0 0 1 $T0 $ebp = $eip $T0 4 + ^ = $ebp $T0 ^ = $esp $T0 8 + = 
STACK WIN 4 1f26d 4c 2 0 0 0 0 0 1 $T0 .raSearch = $eip $T0 ^ = $esp $T0 4 + = 
STACK WIN 4 1f2cc 4c 2 0 0 0 0 0 1 $T0 .raSearch = $eip $T0 ^ = $esp $T0 4 + = 
STACK WIN 4 1f32b 4c 2 0 0 0 0 0 1 $T0 .raSearch = $eip $T0 ^ = $esp $T0 4 + = 
STACK WIN 4 1f38a 4c 2 0 0 0 0 0 1 $T0 .raSearch = $eip $T0 ^ = $esp $T0 4 + = 
STACK WIN 4 1f3e9 11 0 0 0 0 0 0 1 $T0 .raSearch = $eip $T0 ^ = $esp $T0 4 + = 
STACK WIN 4 1f3fe 11 0 0 0 0 0 0 1 $T0 .raSearch = $eip $T0 ^ = $esp $T0 4 + = 
STACK WIN 4 1f413 11 0 0 0 0 0 0 1 $T0 .raSearch = $eip $T0 ^ = $esp $T0 4 + = 
STACK WIN 4 1f428 11 0 0 0 0 0 0 1 $T0 .raSearch = $eip $T0 ^ = $esp $T0 4 + = 
STACK WIN 4 1f43d 60 c 0 8 0 0 0 1 $T0 $ebp = $eip $T0 4 + ^ = $ebp $T0 ^ = $esp $T0 8 + = 
STACK WIN 4 1f449 52 0 0 8 4 0 0 1 $T0 $ebp = $eip $T0 4 + ^ = $ebp $T0 ^ = $esp $T0 8 + =  $20 $T0 4 - ^ = 
STACK WIN 4 1f4b5 40 6 0 8 0 4 0 1 $T0 $ebp = $eip $T0 4 + ^ = $ebp $T0 ^ = $esp $T0 8 + = 
STACK WIN 4 1f505 40 6 0 8 0 4 0 1 $T0 $ebp = $eip $T0 4 + ^ = $ebp $T0 ^ = $esp $T0 8 + = 
STACK WIN 4 1f555 3d 6 0 8 0 4 0 1 $T0 $ebp = $eip $T0 4 + ^ = $ebp $T0 ^ = $esp $T0 8 + = 
STACK WIN 4 1f5a1 40 6 0 8 0 4 0 1 $T0 $ebp = $eip $T0 4 + ^ = $ebp $T0 ^ = $esp $T0 8 + = 
STACK WIN 4 1f5f1 40 6 0 8 0 4 0 1 $T0 $ebp = $eip $T0 4 + ^ = $ebp $T0 ^ = $esp $T0 8 + = 
STACK WIN 4 1f641 3d 6 0 8 0 4 0 1 $T0 $ebp = $eip $T0 4 + ^ = $ebp $T0 ^ = $esp $T0 8 + = 
STACK WIN 4 1f68d 42 6 0 8 0 4 0 1 $T0 $ebp = $eip $T0 4 + ^ = $ebp $T0 ^ = $esp $T0 8 + = 
STACK WIN 4 1f6df 42 6 0 8 0 4 0 1 $T0 $ebp = $eip $T0 4 + ^ = $ebp $T0 ^ = $esp $T0 8 + = 
STACK WIN 4 1f731 3f 6 0 8 0 4 0 1 $T0 $ebp = $eip $T0 4 + ^ = $ebp $T0 ^ = $esp $T0 8 + = 
STACK WIN 4 1f77f 42 6 0 8 0 4 0 1 $T0 $ebp = $eip $T0 4 + ^ = $ebp $T0 ^ = $esp $T0 8 + = 
STACK WIN 4 1f7d1 42 6 0 8 0 4 0 1 $T0 $ebp = $eip $T0 4 + ^ = $ebp $T0 ^ = $esp $T0 8 + = 
STACK WIN 4 1f823 3f 6 0 8 0 4 0 1 $T0 $ebp = $eip $T0 4 + ^ = $ebp $T0 ^ = $esp $T0 8 + = 
STACK WIN 4 1f871 5c d 0 8 0 0 0 1 $T0 $ebp = $eip $T0 4 + ^ = $ebp $T0 ^ = $esp $T0 8 + = 
STACK WIN 4 1f87d 4e 1 0 8 4 0 0 1 $T0 $ebp = $eip $T0 4 + ^ = $ebp $T0 ^ = $esp $T0 8 + =  $20 $T0 4 - ^ = 
STACK WIN 4 1f87e 4c 0 0 8 8 0 0 1 $T0 $ebp = $eip $T0 4 + ^ = $ebp $T0 ^ = $esp $T0 8 + =  $20 $T0 4 - ^ =  $24 $T0 8 - ^ = 
STACK WIN 4 1f892 f 0 0 8 c 0 0 1 $T0 $ebp = $eip $T0 4 + ^ = $ebp $T0 ^ = $esp $T0 8 + =  $20 $T0 4 - ^ =  $24 $T0 8 - ^ =  $23 $T0 12 - ^ = 
STACK WIN 4 1f8e4 14 5 0 0 0 0 0 1 $T0 .raSearch = $eip $T0 ^ = $esp $T0 4 + = 
STACK WIN 4 1f8e7 10 2 0 0 4 0 0 1 $T0 .raSearch = $eip $T0 ^ = $esp $T0 4 + =  $23 $T0 4 - ^ = 
STACK WIN 4 1f8fd 7 0 0 0 0 0 0 1 $T0 .raSearch = $eip $T0 ^ = $esp $T0 4 + = 
STACK WIN 4 1f904 4 0 0 4 0 0 0 1 $T0 .raSearch = $eip $T0 ^ = $esp $T0 4 + = 
STACK WIN 4 1f908 4 0 0 4 0 0 0 1 $T0 .raSearch = $eip $T0 ^ = $esp $T0 4 + = 
STACK WIN 4 1f90c 4 0 0 4 0 0 0 1 $T0 .raSearch = $eip $T0 ^ = $esp $T0 4 + = 
STACK WIN 4 1f910 4 0 0 4 0 0 0 1 $T0 .raSearch = $eip $T0 ^ = $esp $T0 4 + = 
STACK WIN 4 1f914 4 0 0 8 0 0 0 1 $T0 .raSearch = $eip $T0 ^ = $esp $T0 4 + = 
STACK WIN 4 1f918 4 0 0 8 0 0 0 1 $T0 .raSearch = $eip $T0 ^ = $esp $T0 4 + = 
STACK WIN 4 1f91c 4 0 0 8 0 0 0 1 $T0 .raSearch = $eip $T0 ^ = $esp $T0 4 + = 
STACK WIN 4 1f920 4 0 0 4 0 0 0 1 $T0 .raSearch = $eip $T0 ^ = $esp $T0 4 + = 
STACK WIN 4 1f924 4 0 0 4 0 0 0 1 $T0 .raSearch = $eip $T0 ^ = $esp $T0 4 + = 
STACK WIN 4 1f928 4 0 0 4 0 0 0 1 $T0 .raSearch = $eip $T0 ^ = $esp $T0 4 + = 
STACK WIN 4 1f92c 4 0 0 4 0 0 0 1 $T0 .raSearch = $eip $T0 ^ = $esp $T0 4 + = 
STACK WIN 4 1f930 4 0 0 4 0 0 0 1 $T0 .raSearch = $eip $T0 ^ = $esp $T0 4 + = 
STACK WIN 4 1f934 4 0 0 8 0 0 0 1 $T0 .raSearch = $eip $T0 ^ = $esp $T0 4 + = 
STACK WIN 4 1f938 4 0 0 8 0 0 0 1 $T0 .raSearch = $eip $T0 ^ = $esp $T0 4 + = 
STACK WIN 4 1f93c 4 0 0 8 0 0 0 1 $T0 .raSearch = $eip $T0 ^ = $esp $T0 4 + = 
STACK WIN 4 1f940 4 0 0 4 0 0 0 1 $T0 .raSearch = $eip $T0 ^ = $esp $T0 4 + = 
STACK WIN 4 1f944 4 0 0 4 0 0 0 1 $T0 .raSearch = $eip $T0 ^ = $esp $T0 4 + = 
STACK WIN 4 1f948 4 0 0 4 0 0 0 1 $T0 .raSearch = $eip $T0 ^ = $esp $T0 4 + = 
STACK WIN 4 1f94c 4 0 0 4 0 0 0 1 $T0 .raSearch = $eip $T0 ^ = $esp $T0 4 + = 
STACK WIN 4 1f950 4 0 0 4 0 0 0 1 $T0 .raSearch = $eip $T0 ^ = $esp $T0 4 + = 
STACK WIN 4 1f954 4 0 0 8 0 0 0 1 $T0 .raSearch = $eip $T0 ^ = $esp $T0 4 + = 
STACK WIN 4 1f958 4 0 0 8 0 0 0 1 $T0 .raSearch = $eip $T0 ^ = $esp $T0 4 + = 
STACK WIN 4 1f95c 4 0 0 8 0 0 0 1 $T0 .raSearch = $eip $T0 ^ = $esp $T0 4 + = 
STACK WIN 4 1f960 4 0 0 4 0 0 0 1 $T0 .raSearch = $eip $T0 ^ = $esp $T0 4 + = 
STACK WIN 4 1f964 4 0 0 4 0 0 0 1 $T0 .raSearch = $eip $T0 ^ = $esp $T0 4 + = 
STACK WIN 4 1f968 4 0 0 4 0 0 0 1 $T0 .raSearch = $eip $T0 ^ = $esp $T0 4 + = 
STACK WIN 4 1f96c 4 0 0 4 0 0 0 1 $T0 .raSearch = $eip $T0 ^ = $esp $T0 4 + = 
STACK WIN 4 1f970 4 0 0 4 0 0 0 1 $T0 .raSearch = $eip $T0 ^ = $esp $T0 4 + = 
STACK WIN 4 1f974 4 0 0 8 0 0 0 1 $T0 .raSearch = $eip $T0 ^ = $esp $T0 4 + = 
STACK WIN 4 1f978 4 0 0 8 0 0 0 1 $T0 .raSearch = $eip $T0 ^ = $esp $T0 4 + = 
STACK WIN 4 1f97c 4 0 0 8 0 0 0 1 $T0 .raSearch = $eip $T0 ^ = $esp $T0 4 + = 
STACK WIN 4 1f980 4 0 0 4 0 0 0 1 $T0 .raSearch = $eip $T0 ^ = $esp $T0 4 + = 
STACK WIN 4 1f984 12 5 0 4 0 0 0 1 $T0 $ebp = $eip $T0 4 + ^ = $ebp $T0 ^ = $esp $T0 8 + = 
STACK WIN 4 1f99a 12 5 0 4 0 0 0 1 $T0 $ebp = $eip $T0 4 + ^ = $ebp $T0 ^ = $esp $T0 8 + = 
STACK WIN 4 1f9b0 12 5 0 4 0 0 0 1 $T0 $ebp = $eip $T0 4 + ^ = $ebp $T0 ^ = $esp $T0 8 + = 
STACK WIN 4 1f9c6 12 5 0 4 0 0 0 1 $T0 $ebp = $eip $T0 4 + ^ = $ebp $T0 ^ = $esp $T0 8 + = 
STACK WIN 4 1f9dc 12 5 0 4 0 0 0 1 $T0 $ebp = $eip $T0 4 + ^ = $ebp $T0 ^ = $esp $T0 8 + = 
STACK WIN 4 1f9f2 12 5 0 4 0 0 0 1 $T0 $ebp = $eip $T0 4 + ^ = $ebp $T0 ^ = $esp $T0 8 + = 
STACK WIN 4 1fa08 12 5 0 4 0 0 0 1 $T0 $ebp = $eip $T0 4 + ^ = $ebp $T0 ^ = $esp $T0 8 + = 
STACK WIN 4 1fa1e 12 5 0 4 0 0 0 1 $T0 $ebp = $eip $T0 4 + ^ = $ebp $T0 ^ = $esp $T0 8 + = 
STACK WIN 4 1fa34 12 5 0 4 0 0 0 1 $T0 $ebp = $eip $T0 4 + ^ = $ebp $T0 ^ = $esp $T0 8 + = 
STACK WIN 4 1fa4a 12 5 0 4 0 0 0 1 $T0 $ebp = $eip $T0 4 + ^ = $ebp $T0 ^ = $esp $T0 8 + = 
STACK WIN 4 1fa60 12 5 0 4 0 0 0 1 $T0 $ebp = $eip $T0 4 + ^ = $ebp $T0 ^ = $esp $T0 8 + = 
STACK WIN 4 1fa76 12 5 0 4 0 0 0 1 $T0 $ebp = $eip $T0 4 + ^ = $ebp $T0 ^ = $esp $T0 8 + = 
